
/home/dev/github/clones/riscv-arch-test/work/rv32i-core/elfs/rv32i/I/I-sll-00.elf:     file format elf32-littleriscv
/home/dev/github/clones/riscv-arch-test/work/rv32i-core/elfs/rv32i/I/I-sll-00.elf
architecture: riscv:rv32, flags 0x00000112:
EXEC_P, HAS_SYMS, D_PAGED
start address 0x00000000

Program Header:
0x70000003 off    0x0001f240 vaddr 0x00000000 paddr 0x00000000 align 2**0
         filesz 0x00000033 memsz 0x00000000 flags r--
    LOAD off    0x00001000 vaddr 0x00000000 paddr 0x00000000 align 2**12
         filesz 0x00005f40 memsz 0x00005f40 flags r-x
    LOAD off    0x00007000 vaddr 0x00008000 paddr 0x00008000 align 2**12
         filesz 0x00018240 memsz 0x00018240 flags rwx

Sections:
Idx Name          Size      VMA       LMA       File off  Algn
  0 .text.init    00000040  00000000  00000000  00001000  2**5
                  CONTENTS, ALLOC, LOAD, READONLY, CODE
  1 .text.rvtest  00005f00  00000040  00000040  00001040  2**5
                  CONTENTS, ALLOC, LOAD, READONLY, CODE
  2 .data         00017d70  00008000  00008000  00007000  2**8
                  CONTENTS, ALLOC, LOAD, DATA
  3 .text.rvmodel 00000240  00020000  00020000  0001f000  2**5
                  CONTENTS, ALLOC, LOAD, READONLY, CODE
  4 .riscv.attributes 00000033  00000000  00000000  0001f240  2**0
                  CONTENTS, READONLY
  5 .debug_line   0000264c  00000000  00000000  0001f273  2**0
                  CONTENTS, READONLY, DEBUGGING, OCTETS
  6 .debug_line_str 00000069  00000000  00000000  000218bf  2**0
                  CONTENTS, READONLY, DEBUGGING, OCTETS
  7 .debug_info   00000023  00000000  00000000  00021928  2**0
                  CONTENTS, READONLY, DEBUGGING, OCTETS
  8 .debug_abbrev 00000012  00000000  00000000  0002194b  2**0
                  CONTENTS, READONLY, DEBUGGING, OCTETS
  9 .debug_aranges 00000028  00000000  00000000  00021960  2**3
                  CONTENTS, READONLY, DEBUGGING, OCTETS
 10 .debug_str    00000075  00000000  00000000  00021988  2**0
                  CONTENTS, READONLY, DEBUGGING, OCTETS
 11 .debug_rnglists 0000001b  00000000  00000000  000219fd  2**0
                  CONTENTS, READONLY, DEBUGGING, OCTETS
SYMBOL TABLE:
00000000 l    d  .text.init	00000000 .text.init
00000040 l    d  .text.rvtest	00000000 .text.rvtest
00008000 l    d  .data	00000000 .data
00020000 l    d  .text.rvmodel	00000000 .text.rvmodel
00000000 l    d  .riscv.attributes	00000000 .riscv.attributes
00000000 l    d  .debug_line	00000000 .debug_line
00000000 l    d  .debug_line_str	00000000 .debug_line_str
00000000 l    d  .debug_info	00000000 .debug_info
00000000 l    d  .debug_abbrev	00000000 .debug_abbrev
00000000 l    d  .debug_aranges	00000000 .debug_aranges
00000000 l    d  .debug_str	00000000 .debug_str
00000000 l    d  .debug_rnglists	00000000 .debug_rnglists
00000000 l    df *ABS*	00000000 ccRUcPBV.o
00000003 l       *ABS*	00000000 MMODE_SIG
00000001 l       *ABS*	00000000 SMODE_SIG
00000001 l       *ABS*	00000000 HMODE_SIG
00000002 l       *ABS*	00000000 VMODE_SIG
00020000 l       .text.rvmodel	00000000 rvmodel_boot
00000050 l       .text.rvtest	00000000 I_sll_cg_cp_rs1_b0
000044bc l       .text.rvtest	00000000 failedtest_x5_x4
00008d50 l       .data	00000000 I_sll_cg_cp_rs1_b0_str
0000007c l       .text.rvtest	00000000 I_sll_cg_cp_rs1_b1
00008d7d l       .data	00000000 I_sll_cg_cp_rs1_b1_str
000000ac l       .text.rvtest	00000000 I_sll_cg_cp_rs1_b2
00008daa l       .data	00000000 I_sll_cg_cp_rs1_b2_str
000000dc l       .text.rvtest	00000000 I_sll_cg_cp_rs1_b3
00008dd7 l       .data	00000000 I_sll_cg_cp_rs1_b3_str
00000110 l       .text.rvtest	00000000 I_sll_cg_cp_rs1_b4
000044fc l       .text.rvtest	00000000 failedtest_x14_x13
00008e04 l       .data	00000000 I_sll_cg_cp_rs1_b4_str
0000013c l       .text.rvtest	00000000 I_sll_cg_cp_rs1_b5
00008e31 l       .data	00000000 I_sll_cg_cp_rs1_b5_str
00000168 l       .text.rvtest	00000000 I_sll_cg_cp_rs1_b6
00008e5e l       .data	00000000 I_sll_cg_cp_rs1_b6_str
00000194 l       .text.rvtest	00000000 I_sll_cg_cp_rs1_b7
00008e8b l       .data	00000000 I_sll_cg_cp_rs1_b7_str
000001c0 l       .text.rvtest	00000000 I_sll_cg_cp_rs1_b8
00008eb8 l       .data	00000000 I_sll_cg_cp_rs1_b8_str
000001f0 l       .text.rvtest	00000000 I_sll_cg_cp_rs1_b9
00008ee5 l       .data	00000000 I_sll_cg_cp_rs1_b9_str
0000021c l       .text.rvtest	00000000 I_sll_cg_cp_rs1_b10
00008f13 l       .data	00000000 I_sll_cg_cp_rs1_b10_str
00000248 l       .text.rvtest	00000000 I_sll_cg_cp_rs1_b11
00008f42 l       .data	00000000 I_sll_cg_cp_rs1_b11_str
00000274 l       .text.rvtest	00000000 I_sll_cg_cp_rs1_b12
00008f71 l       .data	00000000 I_sll_cg_cp_rs1_b12_str
000002a8 l       .text.rvtest	00000000 I_sll_cg_cp_rs1_b13
000044d4 l       .text.rvtest	00000000 failedtest_x8_x7
00008fa0 l       .data	00000000 I_sll_cg_cp_rs1_b13_str
000002d4 l       .text.rvtest	00000000 I_sll_cg_cp_rs1_b14
00008fcf l       .data	00000000 I_sll_cg_cp_rs1_b14_str
00000300 l       .text.rvtest	00000000 I_sll_cg_cp_rs1_b15
00008ffe l       .data	00000000 I_sll_cg_cp_rs1_b15_str
0000032c l       .text.rvtest	00000000 I_sll_cg_cp_rs1_b16
0000902d l       .data	00000000 I_sll_cg_cp_rs1_b16_str
00000358 l       .text.rvtest	00000000 I_sll_cg_cp_rs1_b17
0000905c l       .data	00000000 I_sll_cg_cp_rs1_b17_str
00000384 l       .text.rvtest	00000000 I_sll_cg_cp_rs1_b18
0000908b l       .data	00000000 I_sll_cg_cp_rs1_b18_str
000003b0 l       .text.rvtest	00000000 I_sll_cg_cp_rs1_b19
000090ba l       .data	00000000 I_sll_cg_cp_rs1_b19_str
000003dc l       .text.rvtest	00000000 I_sll_cg_cp_rs1_b20
000090e9 l       .data	00000000 I_sll_cg_cp_rs1_b20_str
00000408 l       .text.rvtest	00000000 I_sll_cg_cp_rs1_b21
00009118 l       .data	00000000 I_sll_cg_cp_rs1_b21_str
00000434 l       .text.rvtest	00000000 I_sll_cg_cp_rs1_b22
00009147 l       .data	00000000 I_sll_cg_cp_rs1_b22_str
00000460 l       .text.rvtest	00000000 I_sll_cg_cp_rs1_b23
00009176 l       .data	00000000 I_sll_cg_cp_rs1_b23_str
00000490 l       .text.rvtest	00000000 I_sll_cg_cp_rs1_b24
000091a5 l       .data	00000000 I_sll_cg_cp_rs1_b24_str
000004c0 l       .text.rvtest	00000000 I_sll_cg_cp_rs1_b25
000091d4 l       .data	00000000 I_sll_cg_cp_rs1_b25_str
000004f0 l       .text.rvtest	00000000 I_sll_cg_cp_rs1_b26
00009203 l       .data	00000000 I_sll_cg_cp_rs1_b26_str
0000051c l       .text.rvtest	00000000 I_sll_cg_cp_rs1_b27
00009232 l       .data	00000000 I_sll_cg_cp_rs1_b27_str
00000548 l       .text.rvtest	00000000 I_sll_cg_cp_rs1_b28
00009261 l       .data	00000000 I_sll_cg_cp_rs1_b28_str
00000574 l       .text.rvtest	00000000 I_sll_cg_cp_rs1_b29
00009290 l       .data	00000000 I_sll_cg_cp_rs1_b29_str
000005a0 l       .text.rvtest	00000000 I_sll_cg_cp_rs1_b30
000092bf l       .data	00000000 I_sll_cg_cp_rs1_b30_str
000005cc l       .text.rvtest	00000000 I_sll_cg_cp_rs1_b31
000092ee l       .data	00000000 I_sll_cg_cp_rs1_b31_str
000005f8 l       .text.rvtest	00000000 I_sll_cg_cp_rs2_b0
0000931d l       .data	00000000 I_sll_cg_cp_rs2_b0_str
00000624 l       .text.rvtest	00000000 I_sll_cg_cp_rs2_b1
0000934b l       .data	00000000 I_sll_cg_cp_rs2_b1_str
00000650 l       .text.rvtest	00000000 I_sll_cg_cp_rs2_b2
00009379 l       .data	00000000 I_sll_cg_cp_rs2_b2_str
0000067c l       .text.rvtest	00000000 I_sll_cg_cp_rs2_b3
000093a7 l       .data	00000000 I_sll_cg_cp_rs2_b3_str
000006a8 l       .text.rvtest	00000000 I_sll_cg_cp_rs2_b4
000093d5 l       .data	00000000 I_sll_cg_cp_rs2_b4_str
000006d4 l       .text.rvtest	00000000 I_sll_cg_cp_rs2_b5
00009403 l       .data	00000000 I_sll_cg_cp_rs2_b5_str
00000704 l       .text.rvtest	00000000 I_sll_cg_cp_rs2_b6
00009431 l       .data	00000000 I_sll_cg_cp_rs2_b6_str
00000738 l       .text.rvtest	00000000 I_sll_cg_cp_rs2_b7
0000945f l       .data	00000000 I_sll_cg_cp_rs2_b7_str
00000764 l       .text.rvtest	00000000 I_sll_cg_cp_rs2_b8
0000948d l       .data	00000000 I_sll_cg_cp_rs2_b8_str
00000790 l       .text.rvtest	00000000 I_sll_cg_cp_rs2_b9
000094bb l       .data	00000000 I_sll_cg_cp_rs2_b9_str
000007bc l       .text.rvtest	00000000 I_sll_cg_cp_rs2_b10
000094e9 l       .data	00000000 I_sll_cg_cp_rs2_b10_str
000007ec l       .text.rvtest	00000000 I_sll_cg_cp_rs2_b11
00009518 l       .data	00000000 I_sll_cg_cp_rs2_b11_str
00000818 l       .text.rvtest	00000000 I_sll_cg_cp_rs2_b12
00009547 l       .data	00000000 I_sll_cg_cp_rs2_b12_str
00000844 l       .text.rvtest	00000000 I_sll_cg_cp_rs2_b13
00009576 l       .data	00000000 I_sll_cg_cp_rs2_b13_str
00000870 l       .text.rvtest	00000000 I_sll_cg_cp_rs2_b14
000095a5 l       .data	00000000 I_sll_cg_cp_rs2_b14_str
0000089c l       .text.rvtest	00000000 I_sll_cg_cp_rs2_b15
000095d4 l       .data	00000000 I_sll_cg_cp_rs2_b15_str
000008c8 l       .text.rvtest	00000000 I_sll_cg_cp_rs2_b16
00009603 l       .data	00000000 I_sll_cg_cp_rs2_b16_str
000008f4 l       .text.rvtest	00000000 I_sll_cg_cp_rs2_b17
00009632 l       .data	00000000 I_sll_cg_cp_rs2_b17_str
00000920 l       .text.rvtest	00000000 I_sll_cg_cp_rs2_b18
00009661 l       .data	00000000 I_sll_cg_cp_rs2_b18_str
0000094c l       .text.rvtest	00000000 I_sll_cg_cp_rs2_b19
00009690 l       .data	00000000 I_sll_cg_cp_rs2_b19_str
00000978 l       .text.rvtest	00000000 I_sll_cg_cp_rs2_b20
000096bf l       .data	00000000 I_sll_cg_cp_rs2_b20_str
000009a4 l       .text.rvtest	00000000 I_sll_cg_cp_rs2_b21
000096ee l       .data	00000000 I_sll_cg_cp_rs2_b21_str
000009d0 l       .text.rvtest	00000000 I_sll_cg_cp_rs2_b22
0000971d l       .data	00000000 I_sll_cg_cp_rs2_b22_str
00000a00 l       .text.rvtest	00000000 I_sll_cg_cp_rs2_b23
0000974c l       .data	00000000 I_sll_cg_cp_rs2_b23_str
00000a2c l       .text.rvtest	00000000 I_sll_cg_cp_rs2_b24
0000977b l       .data	00000000 I_sll_cg_cp_rs2_b24_str
00000a58 l       .text.rvtest	00000000 I_sll_cg_cp_rs2_b25
000097aa l       .data	00000000 I_sll_cg_cp_rs2_b25_str
00000a84 l       .text.rvtest	00000000 I_sll_cg_cp_rs2_b26
000097d9 l       .data	00000000 I_sll_cg_cp_rs2_b26_str
00000ab0 l       .text.rvtest	00000000 I_sll_cg_cp_rs2_b27
00009808 l       .data	00000000 I_sll_cg_cp_rs2_b27_str
00000adc l       .text.rvtest	00000000 I_sll_cg_cp_rs2_b28
00009837 l       .data	00000000 I_sll_cg_cp_rs2_b28_str
00000b08 l       .text.rvtest	00000000 I_sll_cg_cp_rs2_b29
00009866 l       .data	00000000 I_sll_cg_cp_rs2_b29_str
00000b34 l       .text.rvtest	00000000 I_sll_cg_cp_rs2_b30
00009895 l       .data	00000000 I_sll_cg_cp_rs2_b30_str
00000b60 l       .text.rvtest	00000000 I_sll_cg_cp_rs2_b31
000098c4 l       .data	00000000 I_sll_cg_cp_rs2_b31_str
00000b8c l       .text.rvtest	00000000 I_sll_cg_cp_rd_b0
000098f3 l       .data	00000000 I_sll_cg_cp_rd_b0_str
00000bb8 l       .text.rvtest	00000000 I_sll_cg_cp_rd_b1
00009920 l       .data	00000000 I_sll_cg_cp_rd_b1_str
00000be8 l       .text.rvtest	00000000 I_sll_cg_cp_rd_b2
0000994d l       .data	00000000 I_sll_cg_cp_rd_b2_str
00000c14 l       .text.rvtest	00000000 I_sll_cg_cp_rd_b3
0000997a l       .data	00000000 I_sll_cg_cp_rd_b3_str
00000c48 l       .text.rvtest	00000000 I_sll_cg_cp_rd_b4
000099a7 l       .data	00000000 I_sll_cg_cp_rd_b4_str
00000c74 l       .text.rvtest	00000000 I_sll_cg_cp_rd_b5
000099d4 l       .data	00000000 I_sll_cg_cp_rd_b5_str
00000ca0 l       .text.rvtest	00000000 I_sll_cg_cp_rd_b6
00009a01 l       .data	00000000 I_sll_cg_cp_rd_b6_str
00000ccc l       .text.rvtest	00000000 I_sll_cg_cp_rd_b7
00009a2e l       .data	00000000 I_sll_cg_cp_rd_b7_str
00000cf8 l       .text.rvtest	00000000 I_sll_cg_cp_rd_b8
00009a5b l       .data	00000000 I_sll_cg_cp_rd_b8_str
00000d24 l       .text.rvtest	00000000 I_sll_cg_cp_rd_b9
00009a88 l       .data	00000000 I_sll_cg_cp_rd_b9_str
00000d50 l       .text.rvtest	00000000 I_sll_cg_cp_rd_b10
00009ab5 l       .data	00000000 I_sll_cg_cp_rd_b10_str
00000d7c l       .text.rvtest	00000000 I_sll_cg_cp_rd_b11
00009ae3 l       .data	00000000 I_sll_cg_cp_rd_b11_str
00000da8 l       .text.rvtest	00000000 I_sll_cg_cp_rd_b12
00009b11 l       .data	00000000 I_sll_cg_cp_rd_b12_str
00000ddc l       .text.rvtest	00000000 I_sll_cg_cp_rd_b13
00009b3f l       .data	00000000 I_sll_cg_cp_rd_b13_str
00000e08 l       .text.rvtest	00000000 I_sll_cg_cp_rd_b14
00009b6d l       .data	00000000 I_sll_cg_cp_rd_b14_str
00000e34 l       .text.rvtest	00000000 I_sll_cg_cp_rd_b15
00009b9b l       .data	00000000 I_sll_cg_cp_rd_b15_str
00000e60 l       .text.rvtest	00000000 I_sll_cg_cp_rd_b16
00009bc9 l       .data	00000000 I_sll_cg_cp_rd_b16_str
00000e8c l       .text.rvtest	00000000 I_sll_cg_cp_rd_b17
00009bf7 l       .data	00000000 I_sll_cg_cp_rd_b17_str
00000eb8 l       .text.rvtest	00000000 I_sll_cg_cp_rd_b18
00009c25 l       .data	00000000 I_sll_cg_cp_rd_b18_str
00000ee4 l       .text.rvtest	00000000 I_sll_cg_cp_rd_b19
00009c53 l       .data	00000000 I_sll_cg_cp_rd_b19_str
00000f14 l       .text.rvtest	00000000 I_sll_cg_cp_rd_b20
00009c81 l       .data	00000000 I_sll_cg_cp_rd_b20_str
00000f40 l       .text.rvtest	00000000 I_sll_cg_cp_rd_b21
00009caf l       .data	00000000 I_sll_cg_cp_rd_b21_str
00000f6c l       .text.rvtest	00000000 I_sll_cg_cp_rd_b22
00009cdd l       .data	00000000 I_sll_cg_cp_rd_b22_str
00000f98 l       .text.rvtest	00000000 I_sll_cg_cp_rd_b23
00009d0b l       .data	00000000 I_sll_cg_cp_rd_b23_str
00000fc4 l       .text.rvtest	00000000 I_sll_cg_cp_rd_b24
00009d39 l       .data	00000000 I_sll_cg_cp_rd_b24_str
00000ff0 l       .text.rvtest	00000000 I_sll_cg_cp_rd_b25
00009d67 l       .data	00000000 I_sll_cg_cp_rd_b25_str
0000101c l       .text.rvtest	00000000 I_sll_cg_cp_rd_b26
00009d95 l       .data	00000000 I_sll_cg_cp_rd_b26_str
00001048 l       .text.rvtest	00000000 I_sll_cg_cp_rd_b27
00009dc3 l       .data	00000000 I_sll_cg_cp_rd_b27_str
00001078 l       .text.rvtest	00000000 I_sll_cg_cp_rd_b28
00009df1 l       .data	00000000 I_sll_cg_cp_rd_b28_str
000010a4 l       .text.rvtest	00000000 I_sll_cg_cp_rd_b29
00009e1f l       .data	00000000 I_sll_cg_cp_rd_b29_str
000010d4 l       .text.rvtest	00000000 I_sll_cg_cp_rd_b30
00009e4d l       .data	00000000 I_sll_cg_cp_rd_b30_str
00001100 l       .text.rvtest	00000000 I_sll_cg_cp_rd_b31
00009e7b l       .data	00000000 I_sll_cg_cp_rd_b31_str
0000112c l       .text.rvtest	00000000 I_sll_cg_cp_rs1_edges_0x0
00009ea9 l       .data	00000000 I_sll_cg_cp_rs1_edges_0x0_str
00001158 l       .text.rvtest	00000000 I_sll_cg_cp_rs1_edges_0x1
00009ede l       .data	00000000 I_sll_cg_cp_rs1_edges_0x1_str
00001184 l       .text.rvtest	00000000 I_sll_cg_cp_rs1_edges_0x2
00009f13 l       .data	00000000 I_sll_cg_cp_rs1_edges_0x2_str
000011b0 l       .text.rvtest	00000000 I_sll_cg_cp_rs1_edges_0x80000000
00009f48 l       .data	00000000 I_sll_cg_cp_rs1_edges_0x80000000_str
000011dc l       .text.rvtest	00000000 I_sll_cg_cp_rs1_edges_0x80000001
00009f85 l       .data	00000000 I_sll_cg_cp_rs1_edges_0x80000001_str
00001208 l       .text.rvtest	00000000 I_sll_cg_cp_rs1_edges_0x7fffffff
00009fc2 l       .data	00000000 I_sll_cg_cp_rs1_edges_0x7fffffff_str
00001234 l       .text.rvtest	00000000 I_sll_cg_cp_rs1_edges_0x7ffffffe
00009fff l       .data	00000000 I_sll_cg_cp_rs1_edges_0x7ffffffe_str
00001260 l       .text.rvtest	00000000 I_sll_cg_cp_rs1_edges_0xffffffff
0000a03c l       .data	00000000 I_sll_cg_cp_rs1_edges_0xffffffff_str
0000128c l       .text.rvtest	00000000 I_sll_cg_cp_rs1_edges_0xfffffffe
0000a079 l       .data	00000000 I_sll_cg_cp_rs1_edges_0xfffffffe_str
000012b8 l       .text.rvtest	00000000 I_sll_cg_cp_rs1_edges_0x5bbc8872
0000a0b6 l       .data	00000000 I_sll_cg_cp_rs1_edges_0x5bbc8872_str
000012e4 l       .text.rvtest	00000000 I_sll_cg_cp_rs1_edges_0xaaaaaaaa
0000a0f3 l       .data	00000000 I_sll_cg_cp_rs1_edges_0xaaaaaaaa_str
00001310 l       .text.rvtest	00000000 I_sll_cg_cp_rs1_edges_0x55555555
0000a130 l       .data	00000000 I_sll_cg_cp_rs1_edges_0x55555555_str
0000133c l       .text.rvtest	00000000 I_sll_cg_cp_rs2_edges_0x0
0000a16d l       .data	00000000 I_sll_cg_cp_rs2_edges_0x0_str
00001368 l       .text.rvtest	00000000 I_sll_cg_cp_rs2_edges_0x1
0000a1a3 l       .data	00000000 I_sll_cg_cp_rs2_edges_0x1_str
00001394 l       .text.rvtest	00000000 I_sll_cg_cp_rs2_edges_0x2
0000a1d9 l       .data	00000000 I_sll_cg_cp_rs2_edges_0x2_str
000013c0 l       .text.rvtest	00000000 I_sll_cg_cp_rs2_edges_0x80000000
0000a20f l       .data	00000000 I_sll_cg_cp_rs2_edges_0x80000000_str
000013ec l       .text.rvtest	00000000 I_sll_cg_cp_rs2_edges_0x80000001
0000a24c l       .data	00000000 I_sll_cg_cp_rs2_edges_0x80000001_str
00001418 l       .text.rvtest	00000000 I_sll_cg_cp_rs2_edges_0x7fffffff
0000a289 l       .data	00000000 I_sll_cg_cp_rs2_edges_0x7fffffff_str
00001444 l       .text.rvtest	00000000 I_sll_cg_cp_rs2_edges_0x7ffffffe
0000a2c6 l       .data	00000000 I_sll_cg_cp_rs2_edges_0x7ffffffe_str
00001470 l       .text.rvtest	00000000 I_sll_cg_cp_rs2_edges_0xffffffff
0000a303 l       .data	00000000 I_sll_cg_cp_rs2_edges_0xffffffff_str
0000149c l       .text.rvtest	00000000 I_sll_cg_cp_rs2_edges_0xfffffffe
0000a340 l       .data	00000000 I_sll_cg_cp_rs2_edges_0xfffffffe_str
000014c8 l       .text.rvtest	00000000 I_sll_cg_cp_rs2_edges_0x5bbc8872
0000a37d l       .data	00000000 I_sll_cg_cp_rs2_edges_0x5bbc8872_str
000014f4 l       .text.rvtest	00000000 I_sll_cg_cp_rs2_edges_0xaaaaaaaa
0000a3ba l       .data	00000000 I_sll_cg_cp_rs2_edges_0xaaaaaaaa_str
00001520 l       .text.rvtest	00000000 I_sll_cg_cp_rs2_edges_0x55555555
0000a3f7 l       .data	00000000 I_sll_cg_cp_rs2_edges_0x55555555_str
0000154c l       .text.rvtest	00000000 I_sll_cg_cr_rs1_rs2_edges_rs1val_0x0_rs2val_0x0
0000a434 l       .data	00000000 I_sll_cg_cr_rs1_rs2_edges_rs1val_0x0_rs2val_0x0_str
00001578 l       .text.rvtest	00000000 I_sll_cg_cr_rs1_rs2_edges_rs1val_0x0_rs2val_0x1
0000a481 l       .data	00000000 I_sll_cg_cr_rs1_rs2_edges_rs1val_0x0_rs2val_0x1_str
000015a4 l       .text.rvtest	00000000 I_sll_cg_cr_rs1_rs2_edges_rs1val_0x0_rs2val_0x2
0000a4ce l       .data	00000000 I_sll_cg_cr_rs1_rs2_edges_rs1val_0x0_rs2val_0x2_str
000015d0 l       .text.rvtest	00000000 I_sll_cg_cr_rs1_rs2_edges_rs1val_0x0_rs2val_0x80000000
0000a51b l       .data	00000000 I_sll_cg_cr_rs1_rs2_edges_rs1val_0x0_rs2val_0x80000000_str
000015fc l       .text.rvtest	00000000 I_sll_cg_cr_rs1_rs2_edges_rs1val_0x0_rs2val_0x80000001
0000a56f l       .data	00000000 I_sll_cg_cr_rs1_rs2_edges_rs1val_0x0_rs2val_0x80000001_str
00001628 l       .text.rvtest	00000000 I_sll_cg_cr_rs1_rs2_edges_rs1val_0x0_rs2val_0x7fffffff
0000a5c3 l       .data	00000000 I_sll_cg_cr_rs1_rs2_edges_rs1val_0x0_rs2val_0x7fffffff_str
00001654 l       .text.rvtest	00000000 I_sll_cg_cr_rs1_rs2_edges_rs1val_0x0_rs2val_0x7ffffffe
0000a617 l       .data	00000000 I_sll_cg_cr_rs1_rs2_edges_rs1val_0x0_rs2val_0x7ffffffe_str
00001680 l       .text.rvtest	00000000 I_sll_cg_cr_rs1_rs2_edges_rs1val_0x0_rs2val_0xffffffff
0000a66b l       .data	00000000 I_sll_cg_cr_rs1_rs2_edges_rs1val_0x0_rs2val_0xffffffff_str
000016ac l       .text.rvtest	00000000 I_sll_cg_cr_rs1_rs2_edges_rs1val_0x0_rs2val_0xfffffffe
0000a6bf l       .data	00000000 I_sll_cg_cr_rs1_rs2_edges_rs1val_0x0_rs2val_0xfffffffe_str
000016d8 l       .text.rvtest	00000000 I_sll_cg_cr_rs1_rs2_edges_rs1val_0x0_rs2val_0x5bbc8872
0000a713 l       .data	00000000 I_sll_cg_cr_rs1_rs2_edges_rs1val_0x0_rs2val_0x5bbc8872_str
00001704 l       .text.rvtest	00000000 I_sll_cg_cr_rs1_rs2_edges_rs1val_0x0_rs2val_0xaaaaaaaa
0000a767 l       .data	00000000 I_sll_cg_cr_rs1_rs2_edges_rs1val_0x0_rs2val_0xaaaaaaaa_str
00001730 l       .text.rvtest	00000000 I_sll_cg_cr_rs1_rs2_edges_rs1val_0x0_rs2val_0x55555555
0000a7bb l       .data	00000000 I_sll_cg_cr_rs1_rs2_edges_rs1val_0x0_rs2val_0x55555555_str
0000175c l       .text.rvtest	00000000 I_sll_cg_cr_rs1_rs2_edges_rs1val_0x1_rs2val_0x0
0000a80f l       .data	00000000 I_sll_cg_cr_rs1_rs2_edges_rs1val_0x1_rs2val_0x0_str
00001788 l       .text.rvtest	00000000 I_sll_cg_cr_rs1_rs2_edges_rs1val_0x1_rs2val_0x1
0000a85c l       .data	00000000 I_sll_cg_cr_rs1_rs2_edges_rs1val_0x1_rs2val_0x1_str
000017b4 l       .text.rvtest	00000000 I_sll_cg_cr_rs1_rs2_edges_rs1val_0x1_rs2val_0x2
0000a8a9 l       .data	00000000 I_sll_cg_cr_rs1_rs2_edges_rs1val_0x1_rs2val_0x2_str
000017e0 l       .text.rvtest	00000000 I_sll_cg_cr_rs1_rs2_edges_rs1val_0x1_rs2val_0x80000000
0000a8f6 l       .data	00000000 I_sll_cg_cr_rs1_rs2_edges_rs1val_0x1_rs2val_0x80000000_str
0000180c l       .text.rvtest	00000000 I_sll_cg_cr_rs1_rs2_edges_rs1val_0x1_rs2val_0x80000001
0000a94a l       .data	00000000 I_sll_cg_cr_rs1_rs2_edges_rs1val_0x1_rs2val_0x80000001_str
00001838 l       .text.rvtest	00000000 I_sll_cg_cr_rs1_rs2_edges_rs1val_0x1_rs2val_0x7fffffff
0000a99e l       .data	00000000 I_sll_cg_cr_rs1_rs2_edges_rs1val_0x1_rs2val_0x7fffffff_str
00001864 l       .text.rvtest	00000000 I_sll_cg_cr_rs1_rs2_edges_rs1val_0x1_rs2val_0x7ffffffe
0000a9f2 l       .data	00000000 I_sll_cg_cr_rs1_rs2_edges_rs1val_0x1_rs2val_0x7ffffffe_str
00001890 l       .text.rvtest	00000000 I_sll_cg_cr_rs1_rs2_edges_rs1val_0x1_rs2val_0xffffffff
0000aa46 l       .data	00000000 I_sll_cg_cr_rs1_rs2_edges_rs1val_0x1_rs2val_0xffffffff_str
000018bc l       .text.rvtest	00000000 I_sll_cg_cr_rs1_rs2_edges_rs1val_0x1_rs2val_0xfffffffe
0000aa9a l       .data	00000000 I_sll_cg_cr_rs1_rs2_edges_rs1val_0x1_rs2val_0xfffffffe_str
000018e8 l       .text.rvtest	00000000 I_sll_cg_cr_rs1_rs2_edges_rs1val_0x1_rs2val_0x5bbc8872
0000aaee l       .data	00000000 I_sll_cg_cr_rs1_rs2_edges_rs1val_0x1_rs2val_0x5bbc8872_str
00001914 l       .text.rvtest	00000000 I_sll_cg_cr_rs1_rs2_edges_rs1val_0x1_rs2val_0xaaaaaaaa
0000ab42 l       .data	00000000 I_sll_cg_cr_rs1_rs2_edges_rs1val_0x1_rs2val_0xaaaaaaaa_str
00001940 l       .text.rvtest	00000000 I_sll_cg_cr_rs1_rs2_edges_rs1val_0x1_rs2val_0x55555555
0000ab96 l       .data	00000000 I_sll_cg_cr_rs1_rs2_edges_rs1val_0x1_rs2val_0x55555555_str
0000196c l       .text.rvtest	00000000 I_sll_cg_cr_rs1_rs2_edges_rs1val_0x2_rs2val_0x0
0000abea l       .data	00000000 I_sll_cg_cr_rs1_rs2_edges_rs1val_0x2_rs2val_0x0_str
00001998 l       .text.rvtest	00000000 I_sll_cg_cr_rs1_rs2_edges_rs1val_0x2_rs2val_0x1
0000ac37 l       .data	00000000 I_sll_cg_cr_rs1_rs2_edges_rs1val_0x2_rs2val_0x1_str
000019c4 l       .text.rvtest	00000000 I_sll_cg_cr_rs1_rs2_edges_rs1val_0x2_rs2val_0x2
0000ac84 l       .data	00000000 I_sll_cg_cr_rs1_rs2_edges_rs1val_0x2_rs2val_0x2_str
000019f0 l       .text.rvtest	00000000 I_sll_cg_cr_rs1_rs2_edges_rs1val_0x2_rs2val_0x80000000
0000acd1 l       .data	00000000 I_sll_cg_cr_rs1_rs2_edges_rs1val_0x2_rs2val_0x80000000_str
00001a1c l       .text.rvtest	00000000 I_sll_cg_cr_rs1_rs2_edges_rs1val_0x2_rs2val_0x80000001
0000ad25 l       .data	00000000 I_sll_cg_cr_rs1_rs2_edges_rs1val_0x2_rs2val_0x80000001_str
00001a48 l       .text.rvtest	00000000 I_sll_cg_cr_rs1_rs2_edges_rs1val_0x2_rs2val_0x7fffffff
0000ad79 l       .data	00000000 I_sll_cg_cr_rs1_rs2_edges_rs1val_0x2_rs2val_0x7fffffff_str
00001a74 l       .text.rvtest	00000000 I_sll_cg_cr_rs1_rs2_edges_rs1val_0x2_rs2val_0x7ffffffe
0000adcd l       .data	00000000 I_sll_cg_cr_rs1_rs2_edges_rs1val_0x2_rs2val_0x7ffffffe_str
00001aa0 l       .text.rvtest	00000000 I_sll_cg_cr_rs1_rs2_edges_rs1val_0x2_rs2val_0xffffffff
0000ae21 l       .data	00000000 I_sll_cg_cr_rs1_rs2_edges_rs1val_0x2_rs2val_0xffffffff_str
00001acc l       .text.rvtest	00000000 I_sll_cg_cr_rs1_rs2_edges_rs1val_0x2_rs2val_0xfffffffe
0000ae75 l       .data	00000000 I_sll_cg_cr_rs1_rs2_edges_rs1val_0x2_rs2val_0xfffffffe_str
00001af8 l       .text.rvtest	00000000 I_sll_cg_cr_rs1_rs2_edges_rs1val_0x2_rs2val_0x5bbc8872
0000aec9 l       .data	00000000 I_sll_cg_cr_rs1_rs2_edges_rs1val_0x2_rs2val_0x5bbc8872_str
00001b24 l       .text.rvtest	00000000 I_sll_cg_cr_rs1_rs2_edges_rs1val_0x2_rs2val_0xaaaaaaaa
0000af1d l       .data	00000000 I_sll_cg_cr_rs1_rs2_edges_rs1val_0x2_rs2val_0xaaaaaaaa_str
00001b50 l       .text.rvtest	00000000 I_sll_cg_cr_rs1_rs2_edges_rs1val_0x2_rs2val_0x55555555
0000af71 l       .data	00000000 I_sll_cg_cr_rs1_rs2_edges_rs1val_0x2_rs2val_0x55555555_str
00001b7c l       .text.rvtest	00000000 I_sll_cg_cr_rs1_rs2_edges_rs1val_0x80000000_rs2val_0x0
0000afc5 l       .data	00000000 I_sll_cg_cr_rs1_rs2_edges_rs1val_0x80000000_rs2val_0x0_str
00001ba8 l       .text.rvtest	00000000 I_sll_cg_cr_rs1_rs2_edges_rs1val_0x80000000_rs2val_0x1
0000b019 l       .data	00000000 I_sll_cg_cr_rs1_rs2_edges_rs1val_0x80000000_rs2val_0x1_str
00001bd4 l       .text.rvtest	00000000 I_sll_cg_cr_rs1_rs2_edges_rs1val_0x80000000_rs2val_0x2
0000b06d l       .data	00000000 I_sll_cg_cr_rs1_rs2_edges_rs1val_0x80000000_rs2val_0x2_str
00001c00 l       .text.rvtest	00000000 I_sll_cg_cr_rs1_rs2_edges_rs1val_0x80000000_rs2val_0x80000000
0000b0c1 l       .data	00000000 I_sll_cg_cr_rs1_rs2_edges_rs1val_0x80000000_rs2val_0x80000000_str
00001c2c l       .text.rvtest	00000000 I_sll_cg_cr_rs1_rs2_edges_rs1val_0x80000000_rs2val_0x80000001
0000b11c l       .data	00000000 I_sll_cg_cr_rs1_rs2_edges_rs1val_0x80000000_rs2val_0x80000001_str
00001c58 l       .text.rvtest	00000000 I_sll_cg_cr_rs1_rs2_edges_rs1val_0x80000000_rs2val_0x7fffffff
0000b177 l       .data	00000000 I_sll_cg_cr_rs1_rs2_edges_rs1val_0x80000000_rs2val_0x7fffffff_str
00001c84 l       .text.rvtest	00000000 I_sll_cg_cr_rs1_rs2_edges_rs1val_0x80000000_rs2val_0x7ffffffe
0000b1d2 l       .data	00000000 I_sll_cg_cr_rs1_rs2_edges_rs1val_0x80000000_rs2val_0x7ffffffe_str
00001cb0 l       .text.rvtest	00000000 I_sll_cg_cr_rs1_rs2_edges_rs1val_0x80000000_rs2val_0xffffffff
0000b22d l       .data	00000000 I_sll_cg_cr_rs1_rs2_edges_rs1val_0x80000000_rs2val_0xffffffff_str
00001cdc l       .text.rvtest	00000000 I_sll_cg_cr_rs1_rs2_edges_rs1val_0x80000000_rs2val_0xfffffffe
0000b288 l       .data	00000000 I_sll_cg_cr_rs1_rs2_edges_rs1val_0x80000000_rs2val_0xfffffffe_str
00001d08 l       .text.rvtest	00000000 I_sll_cg_cr_rs1_rs2_edges_rs1val_0x80000000_rs2val_0x5bbc8872
0000b2e3 l       .data	00000000 I_sll_cg_cr_rs1_rs2_edges_rs1val_0x80000000_rs2val_0x5bbc8872_str
00001d34 l       .text.rvtest	00000000 I_sll_cg_cr_rs1_rs2_edges_rs1val_0x80000000_rs2val_0xaaaaaaaa
0000b33e l       .data	00000000 I_sll_cg_cr_rs1_rs2_edges_rs1val_0x80000000_rs2val_0xaaaaaaaa_str
00001d60 l       .text.rvtest	00000000 I_sll_cg_cr_rs1_rs2_edges_rs1val_0x80000000_rs2val_0x55555555
0000b399 l       .data	00000000 I_sll_cg_cr_rs1_rs2_edges_rs1val_0x80000000_rs2val_0x55555555_str
00001d8c l       .text.rvtest	00000000 I_sll_cg_cr_rs1_rs2_edges_rs1val_0x80000001_rs2val_0x0
0000b3f4 l       .data	00000000 I_sll_cg_cr_rs1_rs2_edges_rs1val_0x80000001_rs2val_0x0_str
00001db8 l       .text.rvtest	00000000 I_sll_cg_cr_rs1_rs2_edges_rs1val_0x80000001_rs2val_0x1
0000b448 l       .data	00000000 I_sll_cg_cr_rs1_rs2_edges_rs1val_0x80000001_rs2val_0x1_str
00001de4 l       .text.rvtest	00000000 I_sll_cg_cr_rs1_rs2_edges_rs1val_0x80000001_rs2val_0x2
0000b49c l       .data	00000000 I_sll_cg_cr_rs1_rs2_edges_rs1val_0x80000001_rs2val_0x2_str
00001e10 l       .text.rvtest	00000000 I_sll_cg_cr_rs1_rs2_edges_rs1val_0x80000001_rs2val_0x80000000
0000b4f0 l       .data	00000000 I_sll_cg_cr_rs1_rs2_edges_rs1val_0x80000001_rs2val_0x80000000_str
00001e3c l       .text.rvtest	00000000 I_sll_cg_cr_rs1_rs2_edges_rs1val_0x80000001_rs2val_0x80000001
0000b54b l       .data	00000000 I_sll_cg_cr_rs1_rs2_edges_rs1val_0x80000001_rs2val_0x80000001_str
00001e68 l       .text.rvtest	00000000 I_sll_cg_cr_rs1_rs2_edges_rs1val_0x80000001_rs2val_0x7fffffff
0000b5a6 l       .data	00000000 I_sll_cg_cr_rs1_rs2_edges_rs1val_0x80000001_rs2val_0x7fffffff_str
00001e94 l       .text.rvtest	00000000 I_sll_cg_cr_rs1_rs2_edges_rs1val_0x80000001_rs2val_0x7ffffffe
0000b601 l       .data	00000000 I_sll_cg_cr_rs1_rs2_edges_rs1val_0x80000001_rs2val_0x7ffffffe_str
00001ec0 l       .text.rvtest	00000000 I_sll_cg_cr_rs1_rs2_edges_rs1val_0x80000001_rs2val_0xffffffff
0000b65c l       .data	00000000 I_sll_cg_cr_rs1_rs2_edges_rs1val_0x80000001_rs2val_0xffffffff_str
00001eec l       .text.rvtest	00000000 I_sll_cg_cr_rs1_rs2_edges_rs1val_0x80000001_rs2val_0xfffffffe
0000b6b7 l       .data	00000000 I_sll_cg_cr_rs1_rs2_edges_rs1val_0x80000001_rs2val_0xfffffffe_str
00001f18 l       .text.rvtest	00000000 I_sll_cg_cr_rs1_rs2_edges_rs1val_0x80000001_rs2val_0x5bbc8872
0000b712 l       .data	00000000 I_sll_cg_cr_rs1_rs2_edges_rs1val_0x80000001_rs2val_0x5bbc8872_str
00001f44 l       .text.rvtest	00000000 I_sll_cg_cr_rs1_rs2_edges_rs1val_0x80000001_rs2val_0xaaaaaaaa
0000b76d l       .data	00000000 I_sll_cg_cr_rs1_rs2_edges_rs1val_0x80000001_rs2val_0xaaaaaaaa_str
00001f70 l       .text.rvtest	00000000 I_sll_cg_cr_rs1_rs2_edges_rs1val_0x80000001_rs2val_0x55555555
0000b7c8 l       .data	00000000 I_sll_cg_cr_rs1_rs2_edges_rs1val_0x80000001_rs2val_0x55555555_str
00001f9c l       .text.rvtest	00000000 I_sll_cg_cr_rs1_rs2_edges_rs1val_0x7fffffff_rs2val_0x0
0000b823 l       .data	00000000 I_sll_cg_cr_rs1_rs2_edges_rs1val_0x7fffffff_rs2val_0x0_str
00001fc8 l       .text.rvtest	00000000 I_sll_cg_cr_rs1_rs2_edges_rs1val_0x7fffffff_rs2val_0x1
0000b877 l       .data	00000000 I_sll_cg_cr_rs1_rs2_edges_rs1val_0x7fffffff_rs2val_0x1_str
00001ff4 l       .text.rvtest	00000000 I_sll_cg_cr_rs1_rs2_edges_rs1val_0x7fffffff_rs2val_0x2
0000b8cb l       .data	00000000 I_sll_cg_cr_rs1_rs2_edges_rs1val_0x7fffffff_rs2val_0x2_str
00002020 l       .text.rvtest	00000000 I_sll_cg_cr_rs1_rs2_edges_rs1val_0x7fffffff_rs2val_0x80000000
0000b91f l       .data	00000000 I_sll_cg_cr_rs1_rs2_edges_rs1val_0x7fffffff_rs2val_0x80000000_str
0000204c l       .text.rvtest	00000000 I_sll_cg_cr_rs1_rs2_edges_rs1val_0x7fffffff_rs2val_0x80000001
0000b97a l       .data	00000000 I_sll_cg_cr_rs1_rs2_edges_rs1val_0x7fffffff_rs2val_0x80000001_str
00002078 l       .text.rvtest	00000000 I_sll_cg_cr_rs1_rs2_edges_rs1val_0x7fffffff_rs2val_0x7fffffff
0000b9d5 l       .data	00000000 I_sll_cg_cr_rs1_rs2_edges_rs1val_0x7fffffff_rs2val_0x7fffffff_str
000020a4 l       .text.rvtest	00000000 I_sll_cg_cr_rs1_rs2_edges_rs1val_0x7fffffff_rs2val_0x7ffffffe
0000ba30 l       .data	00000000 I_sll_cg_cr_rs1_rs2_edges_rs1val_0x7fffffff_rs2val_0x7ffffffe_str
000020d0 l       .text.rvtest	00000000 I_sll_cg_cr_rs1_rs2_edges_rs1val_0x7fffffff_rs2val_0xffffffff
0000ba8b l       .data	00000000 I_sll_cg_cr_rs1_rs2_edges_rs1val_0x7fffffff_rs2val_0xffffffff_str
000020fc l       .text.rvtest	00000000 I_sll_cg_cr_rs1_rs2_edges_rs1val_0x7fffffff_rs2val_0xfffffffe
0000bae6 l       .data	00000000 I_sll_cg_cr_rs1_rs2_edges_rs1val_0x7fffffff_rs2val_0xfffffffe_str
00002128 l       .text.rvtest	00000000 I_sll_cg_cr_rs1_rs2_edges_rs1val_0x7fffffff_rs2val_0x5bbc8872
0000bb41 l       .data	00000000 I_sll_cg_cr_rs1_rs2_edges_rs1val_0x7fffffff_rs2val_0x5bbc8872_str
00002154 l       .text.rvtest	00000000 I_sll_cg_cr_rs1_rs2_edges_rs1val_0x7fffffff_rs2val_0xaaaaaaaa
0000bb9c l       .data	00000000 I_sll_cg_cr_rs1_rs2_edges_rs1val_0x7fffffff_rs2val_0xaaaaaaaa_str
00002180 l       .text.rvtest	00000000 I_sll_cg_cr_rs1_rs2_edges_rs1val_0x7fffffff_rs2val_0x55555555
0000bbf7 l       .data	00000000 I_sll_cg_cr_rs1_rs2_edges_rs1val_0x7fffffff_rs2val_0x55555555_str
000021ac l       .text.rvtest	00000000 I_sll_cg_cr_rs1_rs2_edges_rs1val_0x7ffffffe_rs2val_0x0
0000bc52 l       .data	00000000 I_sll_cg_cr_rs1_rs2_edges_rs1val_0x7ffffffe_rs2val_0x0_str
000021d8 l       .text.rvtest	00000000 I_sll_cg_cr_rs1_rs2_edges_rs1val_0x7ffffffe_rs2val_0x1
0000bca6 l       .data	00000000 I_sll_cg_cr_rs1_rs2_edges_rs1val_0x7ffffffe_rs2val_0x1_str
00002204 l       .text.rvtest	00000000 I_sll_cg_cr_rs1_rs2_edges_rs1val_0x7ffffffe_rs2val_0x2
0000bcfa l       .data	00000000 I_sll_cg_cr_rs1_rs2_edges_rs1val_0x7ffffffe_rs2val_0x2_str
00002230 l       .text.rvtest	00000000 I_sll_cg_cr_rs1_rs2_edges_rs1val_0x7ffffffe_rs2val_0x80000000
0000bd4e l       .data	00000000 I_sll_cg_cr_rs1_rs2_edges_rs1val_0x7ffffffe_rs2val_0x80000000_str
0000225c l       .text.rvtest	00000000 I_sll_cg_cr_rs1_rs2_edges_rs1val_0x7ffffffe_rs2val_0x80000001
0000bda9 l       .data	00000000 I_sll_cg_cr_rs1_rs2_edges_rs1val_0x7ffffffe_rs2val_0x80000001_str
00002288 l       .text.rvtest	00000000 I_sll_cg_cr_rs1_rs2_edges_rs1val_0x7ffffffe_rs2val_0x7fffffff
0000be04 l       .data	00000000 I_sll_cg_cr_rs1_rs2_edges_rs1val_0x7ffffffe_rs2val_0x7fffffff_str
000022b4 l       .text.rvtest	00000000 I_sll_cg_cr_rs1_rs2_edges_rs1val_0x7ffffffe_rs2val_0x7ffffffe
0000be5f l       .data	00000000 I_sll_cg_cr_rs1_rs2_edges_rs1val_0x7ffffffe_rs2val_0x7ffffffe_str
000022e0 l       .text.rvtest	00000000 I_sll_cg_cr_rs1_rs2_edges_rs1val_0x7ffffffe_rs2val_0xffffffff
0000beba l       .data	00000000 I_sll_cg_cr_rs1_rs2_edges_rs1val_0x7ffffffe_rs2val_0xffffffff_str
0000230c l       .text.rvtest	00000000 I_sll_cg_cr_rs1_rs2_edges_rs1val_0x7ffffffe_rs2val_0xfffffffe
0000bf15 l       .data	00000000 I_sll_cg_cr_rs1_rs2_edges_rs1val_0x7ffffffe_rs2val_0xfffffffe_str
00002338 l       .text.rvtest	00000000 I_sll_cg_cr_rs1_rs2_edges_rs1val_0x7ffffffe_rs2val_0x5bbc8872
0000bf70 l       .data	00000000 I_sll_cg_cr_rs1_rs2_edges_rs1val_0x7ffffffe_rs2val_0x5bbc8872_str
00002364 l       .text.rvtest	00000000 I_sll_cg_cr_rs1_rs2_edges_rs1val_0x7ffffffe_rs2val_0xaaaaaaaa
0000bfcb l       .data	00000000 I_sll_cg_cr_rs1_rs2_edges_rs1val_0x7ffffffe_rs2val_0xaaaaaaaa_str
00002390 l       .text.rvtest	00000000 I_sll_cg_cr_rs1_rs2_edges_rs1val_0x7ffffffe_rs2val_0x55555555
0000c026 l       .data	00000000 I_sll_cg_cr_rs1_rs2_edges_rs1val_0x7ffffffe_rs2val_0x55555555_str
000023bc l       .text.rvtest	00000000 I_sll_cg_cr_rs1_rs2_edges_rs1val_0xffffffff_rs2val_0x0
0000c081 l       .data	00000000 I_sll_cg_cr_rs1_rs2_edges_rs1val_0xffffffff_rs2val_0x0_str
000023e8 l       .text.rvtest	00000000 I_sll_cg_cr_rs1_rs2_edges_rs1val_0xffffffff_rs2val_0x1
0000c0d5 l       .data	00000000 I_sll_cg_cr_rs1_rs2_edges_rs1val_0xffffffff_rs2val_0x1_str
00002414 l       .text.rvtest	00000000 I_sll_cg_cr_rs1_rs2_edges_rs1val_0xffffffff_rs2val_0x2
0000c129 l       .data	00000000 I_sll_cg_cr_rs1_rs2_edges_rs1val_0xffffffff_rs2val_0x2_str
00002440 l       .text.rvtest	00000000 I_sll_cg_cr_rs1_rs2_edges_rs1val_0xffffffff_rs2val_0x80000000
0000c17d l       .data	00000000 I_sll_cg_cr_rs1_rs2_edges_rs1val_0xffffffff_rs2val_0x80000000_str
0000246c l       .text.rvtest	00000000 I_sll_cg_cr_rs1_rs2_edges_rs1val_0xffffffff_rs2val_0x80000001
0000c1d8 l       .data	00000000 I_sll_cg_cr_rs1_rs2_edges_rs1val_0xffffffff_rs2val_0x80000001_str
00002498 l       .text.rvtest	00000000 I_sll_cg_cr_rs1_rs2_edges_rs1val_0xffffffff_rs2val_0x7fffffff
0000c233 l       .data	00000000 I_sll_cg_cr_rs1_rs2_edges_rs1val_0xffffffff_rs2val_0x7fffffff_str
000024c4 l       .text.rvtest	00000000 I_sll_cg_cr_rs1_rs2_edges_rs1val_0xffffffff_rs2val_0x7ffffffe
0000c28e l       .data	00000000 I_sll_cg_cr_rs1_rs2_edges_rs1val_0xffffffff_rs2val_0x7ffffffe_str
000024f0 l       .text.rvtest	00000000 I_sll_cg_cr_rs1_rs2_edges_rs1val_0xffffffff_rs2val_0xffffffff
0000c2e9 l       .data	00000000 I_sll_cg_cr_rs1_rs2_edges_rs1val_0xffffffff_rs2val_0xffffffff_str
0000251c l       .text.rvtest	00000000 I_sll_cg_cr_rs1_rs2_edges_rs1val_0xffffffff_rs2val_0xfffffffe
0000c344 l       .data	00000000 I_sll_cg_cr_rs1_rs2_edges_rs1val_0xffffffff_rs2val_0xfffffffe_str
00002548 l       .text.rvtest	00000000 I_sll_cg_cr_rs1_rs2_edges_rs1val_0xffffffff_rs2val_0x5bbc8872
0000c39f l       .data	00000000 I_sll_cg_cr_rs1_rs2_edges_rs1val_0xffffffff_rs2val_0x5bbc8872_str
00002574 l       .text.rvtest	00000000 I_sll_cg_cr_rs1_rs2_edges_rs1val_0xffffffff_rs2val_0xaaaaaaaa
0000c3fa l       .data	00000000 I_sll_cg_cr_rs1_rs2_edges_rs1val_0xffffffff_rs2val_0xaaaaaaaa_str
000025a0 l       .text.rvtest	00000000 I_sll_cg_cr_rs1_rs2_edges_rs1val_0xffffffff_rs2val_0x55555555
0000c455 l       .data	00000000 I_sll_cg_cr_rs1_rs2_edges_rs1val_0xffffffff_rs2val_0x55555555_str
000025cc l       .text.rvtest	00000000 I_sll_cg_cr_rs1_rs2_edges_rs1val_0xfffffffe_rs2val_0x0
0000c4b0 l       .data	00000000 I_sll_cg_cr_rs1_rs2_edges_rs1val_0xfffffffe_rs2val_0x0_str
000025f8 l       .text.rvtest	00000000 I_sll_cg_cr_rs1_rs2_edges_rs1val_0xfffffffe_rs2val_0x1
0000c504 l       .data	00000000 I_sll_cg_cr_rs1_rs2_edges_rs1val_0xfffffffe_rs2val_0x1_str
00002624 l       .text.rvtest	00000000 I_sll_cg_cr_rs1_rs2_edges_rs1val_0xfffffffe_rs2val_0x2
0000c558 l       .data	00000000 I_sll_cg_cr_rs1_rs2_edges_rs1val_0xfffffffe_rs2val_0x2_str
00002650 l       .text.rvtest	00000000 I_sll_cg_cr_rs1_rs2_edges_rs1val_0xfffffffe_rs2val_0x80000000
0000c5ac l       .data	00000000 I_sll_cg_cr_rs1_rs2_edges_rs1val_0xfffffffe_rs2val_0x80000000_str
0000267c l       .text.rvtest	00000000 I_sll_cg_cr_rs1_rs2_edges_rs1val_0xfffffffe_rs2val_0x80000001
0000c607 l       .data	00000000 I_sll_cg_cr_rs1_rs2_edges_rs1val_0xfffffffe_rs2val_0x80000001_str
000026a8 l       .text.rvtest	00000000 I_sll_cg_cr_rs1_rs2_edges_rs1val_0xfffffffe_rs2val_0x7fffffff
0000c662 l       .data	00000000 I_sll_cg_cr_rs1_rs2_edges_rs1val_0xfffffffe_rs2val_0x7fffffff_str
000026d4 l       .text.rvtest	00000000 I_sll_cg_cr_rs1_rs2_edges_rs1val_0xfffffffe_rs2val_0x7ffffffe
0000c6bd l       .data	00000000 I_sll_cg_cr_rs1_rs2_edges_rs1val_0xfffffffe_rs2val_0x7ffffffe_str
00002700 l       .text.rvtest	00000000 I_sll_cg_cr_rs1_rs2_edges_rs1val_0xfffffffe_rs2val_0xffffffff
0000c718 l       .data	00000000 I_sll_cg_cr_rs1_rs2_edges_rs1val_0xfffffffe_rs2val_0xffffffff_str
0000272c l       .text.rvtest	00000000 I_sll_cg_cr_rs1_rs2_edges_rs1val_0xfffffffe_rs2val_0xfffffffe
0000c773 l       .data	00000000 I_sll_cg_cr_rs1_rs2_edges_rs1val_0xfffffffe_rs2val_0xfffffffe_str
00002758 l       .text.rvtest	00000000 I_sll_cg_cr_rs1_rs2_edges_rs1val_0xfffffffe_rs2val_0x5bbc8872
0000c7ce l       .data	00000000 I_sll_cg_cr_rs1_rs2_edges_rs1val_0xfffffffe_rs2val_0x5bbc8872_str
00002784 l       .text.rvtest	00000000 I_sll_cg_cr_rs1_rs2_edges_rs1val_0xfffffffe_rs2val_0xaaaaaaaa
0000c829 l       .data	00000000 I_sll_cg_cr_rs1_rs2_edges_rs1val_0xfffffffe_rs2val_0xaaaaaaaa_str
000027b0 l       .text.rvtest	00000000 I_sll_cg_cr_rs1_rs2_edges_rs1val_0xfffffffe_rs2val_0x55555555
0000c884 l       .data	00000000 I_sll_cg_cr_rs1_rs2_edges_rs1val_0xfffffffe_rs2val_0x55555555_str
000027dc l       .text.rvtest	00000000 I_sll_cg_cr_rs1_rs2_edges_rs1val_0x5bbc8872_rs2val_0x0
0000c8df l       .data	00000000 I_sll_cg_cr_rs1_rs2_edges_rs1val_0x5bbc8872_rs2val_0x0_str
00002808 l       .text.rvtest	00000000 I_sll_cg_cr_rs1_rs2_edges_rs1val_0x5bbc8872_rs2val_0x1
0000c933 l       .data	00000000 I_sll_cg_cr_rs1_rs2_edges_rs1val_0x5bbc8872_rs2val_0x1_str
00002834 l       .text.rvtest	00000000 I_sll_cg_cr_rs1_rs2_edges_rs1val_0x5bbc8872_rs2val_0x2
0000c987 l       .data	00000000 I_sll_cg_cr_rs1_rs2_edges_rs1val_0x5bbc8872_rs2val_0x2_str
00002860 l       .text.rvtest	00000000 I_sll_cg_cr_rs1_rs2_edges_rs1val_0x5bbc8872_rs2val_0x80000000
0000c9db l       .data	00000000 I_sll_cg_cr_rs1_rs2_edges_rs1val_0x5bbc8872_rs2val_0x80000000_str
0000288c l       .text.rvtest	00000000 I_sll_cg_cr_rs1_rs2_edges_rs1val_0x5bbc8872_rs2val_0x80000001
0000ca36 l       .data	00000000 I_sll_cg_cr_rs1_rs2_edges_rs1val_0x5bbc8872_rs2val_0x80000001_str
000028b8 l       .text.rvtest	00000000 I_sll_cg_cr_rs1_rs2_edges_rs1val_0x5bbc8872_rs2val_0x7fffffff
0000ca91 l       .data	00000000 I_sll_cg_cr_rs1_rs2_edges_rs1val_0x5bbc8872_rs2val_0x7fffffff_str
000028e4 l       .text.rvtest	00000000 I_sll_cg_cr_rs1_rs2_edges_rs1val_0x5bbc8872_rs2val_0x7ffffffe
0000caec l       .data	00000000 I_sll_cg_cr_rs1_rs2_edges_rs1val_0x5bbc8872_rs2val_0x7ffffffe_str
00002910 l       .text.rvtest	00000000 I_sll_cg_cr_rs1_rs2_edges_rs1val_0x5bbc8872_rs2val_0xffffffff
0000cb47 l       .data	00000000 I_sll_cg_cr_rs1_rs2_edges_rs1val_0x5bbc8872_rs2val_0xffffffff_str
0000293c l       .text.rvtest	00000000 I_sll_cg_cr_rs1_rs2_edges_rs1val_0x5bbc8872_rs2val_0xfffffffe
0000cba2 l       .data	00000000 I_sll_cg_cr_rs1_rs2_edges_rs1val_0x5bbc8872_rs2val_0xfffffffe_str
00002968 l       .text.rvtest	00000000 I_sll_cg_cr_rs1_rs2_edges_rs1val_0x5bbc8872_rs2val_0x5bbc8872
0000cbfd l       .data	00000000 I_sll_cg_cr_rs1_rs2_edges_rs1val_0x5bbc8872_rs2val_0x5bbc8872_str
00002994 l       .text.rvtest	00000000 I_sll_cg_cr_rs1_rs2_edges_rs1val_0x5bbc8872_rs2val_0xaaaaaaaa
0000cc58 l       .data	00000000 I_sll_cg_cr_rs1_rs2_edges_rs1val_0x5bbc8872_rs2val_0xaaaaaaaa_str
000029c0 l       .text.rvtest	00000000 I_sll_cg_cr_rs1_rs2_edges_rs1val_0x5bbc8872_rs2val_0x55555555
0000ccb3 l       .data	00000000 I_sll_cg_cr_rs1_rs2_edges_rs1val_0x5bbc8872_rs2val_0x55555555_str
000029ec l       .text.rvtest	00000000 I_sll_cg_cr_rs1_rs2_edges_rs1val_0xaaaaaaaa_rs2val_0x0
0000cd0e l       .data	00000000 I_sll_cg_cr_rs1_rs2_edges_rs1val_0xaaaaaaaa_rs2val_0x0_str
00002a18 l       .text.rvtest	00000000 I_sll_cg_cr_rs1_rs2_edges_rs1val_0xaaaaaaaa_rs2val_0x1
0000cd62 l       .data	00000000 I_sll_cg_cr_rs1_rs2_edges_rs1val_0xaaaaaaaa_rs2val_0x1_str
00002a44 l       .text.rvtest	00000000 I_sll_cg_cr_rs1_rs2_edges_rs1val_0xaaaaaaaa_rs2val_0x2
0000cdb6 l       .data	00000000 I_sll_cg_cr_rs1_rs2_edges_rs1val_0xaaaaaaaa_rs2val_0x2_str
00002a70 l       .text.rvtest	00000000 I_sll_cg_cr_rs1_rs2_edges_rs1val_0xaaaaaaaa_rs2val_0x80000000
0000ce0a l       .data	00000000 I_sll_cg_cr_rs1_rs2_edges_rs1val_0xaaaaaaaa_rs2val_0x80000000_str
00002a9c l       .text.rvtest	00000000 I_sll_cg_cr_rs1_rs2_edges_rs1val_0xaaaaaaaa_rs2val_0x80000001
0000ce65 l       .data	00000000 I_sll_cg_cr_rs1_rs2_edges_rs1val_0xaaaaaaaa_rs2val_0x80000001_str
00002ac8 l       .text.rvtest	00000000 I_sll_cg_cr_rs1_rs2_edges_rs1val_0xaaaaaaaa_rs2val_0x7fffffff
0000cec0 l       .data	00000000 I_sll_cg_cr_rs1_rs2_edges_rs1val_0xaaaaaaaa_rs2val_0x7fffffff_str
00002af4 l       .text.rvtest	00000000 I_sll_cg_cr_rs1_rs2_edges_rs1val_0xaaaaaaaa_rs2val_0x7ffffffe
0000cf1b l       .data	00000000 I_sll_cg_cr_rs1_rs2_edges_rs1val_0xaaaaaaaa_rs2val_0x7ffffffe_str
00002b20 l       .text.rvtest	00000000 I_sll_cg_cr_rs1_rs2_edges_rs1val_0xaaaaaaaa_rs2val_0xffffffff
0000cf76 l       .data	00000000 I_sll_cg_cr_rs1_rs2_edges_rs1val_0xaaaaaaaa_rs2val_0xffffffff_str
00002b4c l       .text.rvtest	00000000 I_sll_cg_cr_rs1_rs2_edges_rs1val_0xaaaaaaaa_rs2val_0xfffffffe
0000cfd1 l       .data	00000000 I_sll_cg_cr_rs1_rs2_edges_rs1val_0xaaaaaaaa_rs2val_0xfffffffe_str
00002b78 l       .text.rvtest	00000000 I_sll_cg_cr_rs1_rs2_edges_rs1val_0xaaaaaaaa_rs2val_0x5bbc8872
0000d02c l       .data	00000000 I_sll_cg_cr_rs1_rs2_edges_rs1val_0xaaaaaaaa_rs2val_0x5bbc8872_str
00002ba4 l       .text.rvtest	00000000 I_sll_cg_cr_rs1_rs2_edges_rs1val_0xaaaaaaaa_rs2val_0xaaaaaaaa
0000d087 l       .data	00000000 I_sll_cg_cr_rs1_rs2_edges_rs1val_0xaaaaaaaa_rs2val_0xaaaaaaaa_str
00002bd0 l       .text.rvtest	00000000 I_sll_cg_cr_rs1_rs2_edges_rs1val_0xaaaaaaaa_rs2val_0x55555555
0000d0e2 l       .data	00000000 I_sll_cg_cr_rs1_rs2_edges_rs1val_0xaaaaaaaa_rs2val_0x55555555_str
00002bfc l       .text.rvtest	00000000 I_sll_cg_cr_rs1_rs2_edges_rs1val_0x55555555_rs2val_0x0
0000d13d l       .data	00000000 I_sll_cg_cr_rs1_rs2_edges_rs1val_0x55555555_rs2val_0x0_str
00002c28 l       .text.rvtest	00000000 I_sll_cg_cr_rs1_rs2_edges_rs1val_0x55555555_rs2val_0x1
0000d191 l       .data	00000000 I_sll_cg_cr_rs1_rs2_edges_rs1val_0x55555555_rs2val_0x1_str
00002c54 l       .text.rvtest	00000000 I_sll_cg_cr_rs1_rs2_edges_rs1val_0x55555555_rs2val_0x2
0000d1e5 l       .data	00000000 I_sll_cg_cr_rs1_rs2_edges_rs1val_0x55555555_rs2val_0x2_str
00002c80 l       .text.rvtest	00000000 I_sll_cg_cr_rs1_rs2_edges_rs1val_0x55555555_rs2val_0x80000000
0000d239 l       .data	00000000 I_sll_cg_cr_rs1_rs2_edges_rs1val_0x55555555_rs2val_0x80000000_str
00002cac l       .text.rvtest	00000000 I_sll_cg_cr_rs1_rs2_edges_rs1val_0x55555555_rs2val_0x80000001
0000d294 l       .data	00000000 I_sll_cg_cr_rs1_rs2_edges_rs1val_0x55555555_rs2val_0x80000001_str
00002cd8 l       .text.rvtest	00000000 I_sll_cg_cr_rs1_rs2_edges_rs1val_0x55555555_rs2val_0x7fffffff
0000d2ef l       .data	00000000 I_sll_cg_cr_rs1_rs2_edges_rs1val_0x55555555_rs2val_0x7fffffff_str
00002d04 l       .text.rvtest	00000000 I_sll_cg_cr_rs1_rs2_edges_rs1val_0x55555555_rs2val_0x7ffffffe
0000d34a l       .data	00000000 I_sll_cg_cr_rs1_rs2_edges_rs1val_0x55555555_rs2val_0x7ffffffe_str
00002d30 l       .text.rvtest	00000000 I_sll_cg_cr_rs1_rs2_edges_rs1val_0x55555555_rs2val_0xffffffff
0000d3a5 l       .data	00000000 I_sll_cg_cr_rs1_rs2_edges_rs1val_0x55555555_rs2val_0xffffffff_str
00002d5c l       .text.rvtest	00000000 I_sll_cg_cr_rs1_rs2_edges_rs1val_0x55555555_rs2val_0xfffffffe
0000d400 l       .data	00000000 I_sll_cg_cr_rs1_rs2_edges_rs1val_0x55555555_rs2val_0xfffffffe_str
00002d88 l       .text.rvtest	00000000 I_sll_cg_cr_rs1_rs2_edges_rs1val_0x55555555_rs2val_0x5bbc8872
0000d45b l       .data	00000000 I_sll_cg_cr_rs1_rs2_edges_rs1val_0x55555555_rs2val_0x5bbc8872_str
00002db4 l       .text.rvtest	00000000 I_sll_cg_cr_rs1_rs2_edges_rs1val_0x55555555_rs2val_0xaaaaaaaa
0000d4b6 l       .data	00000000 I_sll_cg_cr_rs1_rs2_edges_rs1val_0x55555555_rs2val_0xaaaaaaaa_str
00002de0 l       .text.rvtest	00000000 I_sll_cg_cr_rs1_rs2_edges_rs1val_0x55555555_rs2val_0x55555555
0000d511 l       .data	00000000 I_sll_cg_cr_rs1_rs2_edges_rs1val_0x55555555_rs2val_0x55555555_str
00002e0c l       .text.rvtest	00000000 I_sll_cg_cmp_rs1_rs2_b0
0000d56c l       .data	00000000 I_sll_cg_cmp_rs1_rs2_b0_str
00002e38 l       .text.rvtest	00000000 I_sll_cg_cmp_rs1_rs2_b1
0000d5a0 l       .data	00000000 I_sll_cg_cmp_rs1_rs2_b1_str
00002e64 l       .text.rvtest	00000000 I_sll_cg_cmp_rs1_rs2_b2
0000d5d4 l       .data	00000000 I_sll_cg_cmp_rs1_rs2_b2_str
00002e90 l       .text.rvtest	00000000 I_sll_cg_cmp_rs1_rs2_b3
0000d608 l       .data	00000000 I_sll_cg_cmp_rs1_rs2_b3_str
00002ebc l       .text.rvtest	00000000 I_sll_cg_cmp_rs1_rs2_b4
0000d63c l       .data	00000000 I_sll_cg_cmp_rs1_rs2_b4_str
00002ee8 l       .text.rvtest	00000000 I_sll_cg_cmp_rs1_rs2_b5
0000d670 l       .data	00000000 I_sll_cg_cmp_rs1_rs2_b5_str
00002f14 l       .text.rvtest	00000000 I_sll_cg_cmp_rs1_rs2_b6
0000d6a4 l       .data	00000000 I_sll_cg_cmp_rs1_rs2_b6_str
00002f48 l       .text.rvtest	00000000 I_sll_cg_cmp_rs1_rs2_b7
0000d6d8 l       .data	00000000 I_sll_cg_cmp_rs1_rs2_b7_str
00002f74 l       .text.rvtest	00000000 I_sll_cg_cmp_rs1_rs2_b8
0000d70c l       .data	00000000 I_sll_cg_cmp_rs1_rs2_b8_str
00002fa0 l       .text.rvtest	00000000 I_sll_cg_cmp_rs1_rs2_b9
0000d740 l       .data	00000000 I_sll_cg_cmp_rs1_rs2_b9_str
00002fcc l       .text.rvtest	00000000 I_sll_cg_cmp_rs1_rs2_b10
0000d774 l       .data	00000000 I_sll_cg_cmp_rs1_rs2_b10_str
00002ff8 l       .text.rvtest	00000000 I_sll_cg_cmp_rs1_rs2_b11
0000d7a9 l       .data	00000000 I_sll_cg_cmp_rs1_rs2_b11_str
00003024 l       .text.rvtest	00000000 I_sll_cg_cmp_rs1_rs2_b12
0000d7de l       .data	00000000 I_sll_cg_cmp_rs1_rs2_b12_str
00003050 l       .text.rvtest	00000000 I_sll_cg_cmp_rs1_rs2_b13
0000d813 l       .data	00000000 I_sll_cg_cmp_rs1_rs2_b13_str
0000307c l       .text.rvtest	00000000 I_sll_cg_cmp_rs1_rs2_b14
0000d848 l       .data	00000000 I_sll_cg_cmp_rs1_rs2_b14_str
000030a8 l       .text.rvtest	00000000 I_sll_cg_cmp_rs1_rs2_b15
0000d87d l       .data	00000000 I_sll_cg_cmp_rs1_rs2_b15_str
000030d4 l       .text.rvtest	00000000 I_sll_cg_cmp_rs1_rs2_b16
0000d8b2 l       .data	00000000 I_sll_cg_cmp_rs1_rs2_b16_str
00003100 l       .text.rvtest	00000000 I_sll_cg_cmp_rs1_rs2_b17
0000d8e7 l       .data	00000000 I_sll_cg_cmp_rs1_rs2_b17_str
0000312c l       .text.rvtest	00000000 I_sll_cg_cmp_rs1_rs2_b18
0000d91c l       .data	00000000 I_sll_cg_cmp_rs1_rs2_b18_str
00003158 l       .text.rvtest	00000000 I_sll_cg_cmp_rs1_rs2_b19
0000d951 l       .data	00000000 I_sll_cg_cmp_rs1_rs2_b19_str
00003188 l       .text.rvtest	00000000 I_sll_cg_cmp_rs1_rs2_b20
0000d986 l       .data	00000000 I_sll_cg_cmp_rs1_rs2_b20_str
000031b8 l       .text.rvtest	00000000 I_sll_cg_cmp_rs1_rs2_b21
0000d9bb l       .data	00000000 I_sll_cg_cmp_rs1_rs2_b21_str
000031e4 l       .text.rvtest	00000000 I_sll_cg_cmp_rs1_rs2_b22
0000d9f0 l       .data	00000000 I_sll_cg_cmp_rs1_rs2_b22_str
00003214 l       .text.rvtest	00000000 I_sll_cg_cmp_rs1_rs2_b23
0000da25 l       .data	00000000 I_sll_cg_cmp_rs1_rs2_b23_str
00003240 l       .text.rvtest	00000000 I_sll_cg_cmp_rs1_rs2_b24
0000da5a l       .data	00000000 I_sll_cg_cmp_rs1_rs2_b24_str
0000326c l       .text.rvtest	00000000 I_sll_cg_cmp_rs1_rs2_b25
0000da8f l       .data	00000000 I_sll_cg_cmp_rs1_rs2_b25_str
00003298 l       .text.rvtest	00000000 I_sll_cg_cmp_rs1_rs2_b26
0000dac4 l       .data	00000000 I_sll_cg_cmp_rs1_rs2_b26_str
000032c4 l       .text.rvtest	00000000 I_sll_cg_cmp_rs1_rs2_b27
0000daf9 l       .data	00000000 I_sll_cg_cmp_rs1_rs2_b27_str
000032f4 l       .text.rvtest	00000000 I_sll_cg_cmp_rs1_rs2_b28
0000db2e l       .data	00000000 I_sll_cg_cmp_rs1_rs2_b28_str
00003320 l       .text.rvtest	00000000 I_sll_cg_cmp_rs1_rs2_b29
0000db63 l       .data	00000000 I_sll_cg_cmp_rs1_rs2_b29_str
0000334c l       .text.rvtest	00000000 I_sll_cg_cmp_rs1_rs2_b30
0000db98 l       .data	00000000 I_sll_cg_cmp_rs1_rs2_b30_str
00003378 l       .text.rvtest	00000000 I_sll_cg_cmp_rs1_rs2_b31
0000dbcd l       .data	00000000 I_sll_cg_cmp_rs1_rs2_b31_str
000033a4 l       .text.rvtest	00000000 I_sll_cg_cmp_rd_rs1_b0
0000dc02 l       .data	00000000 I_sll_cg_cmp_rd_rs1_b0_str
000033d0 l       .text.rvtest	00000000 I_sll_cg_cmp_rd_rs1_b1
0000dc35 l       .data	00000000 I_sll_cg_cmp_rd_rs1_b1_str
000033fc l       .text.rvtest	00000000 I_sll_cg_cmp_rd_rs1_b2
0000dc68 l       .data	00000000 I_sll_cg_cmp_rd_rs1_b2_str
00003428 l       .text.rvtest	00000000 I_sll_cg_cmp_rd_rs1_b3
0000dc9b l       .data	00000000 I_sll_cg_cmp_rd_rs1_b3_str
0000345c l       .text.rvtest	00000000 I_sll_cg_cmp_rd_rs1_b4
0000dcce l       .data	00000000 I_sll_cg_cmp_rd_rs1_b4_str
00003488 l       .text.rvtest	00000000 I_sll_cg_cmp_rd_rs1_b5
0000dd01 l       .data	00000000 I_sll_cg_cmp_rd_rs1_b5_str
000034b4 l       .text.rvtest	00000000 I_sll_cg_cmp_rd_rs1_b6
0000dd34 l       .data	00000000 I_sll_cg_cmp_rd_rs1_b6_str
000034e8 l       .text.rvtest	00000000 I_sll_cg_cmp_rd_rs1_b7
0000dd67 l       .data	00000000 I_sll_cg_cmp_rd_rs1_b7_str
00003514 l       .text.rvtest	00000000 I_sll_cg_cmp_rd_rs1_b8
0000dd9a l       .data	00000000 I_sll_cg_cmp_rd_rs1_b8_str
00003540 l       .text.rvtest	00000000 I_sll_cg_cmp_rd_rs1_b9
0000ddcd l       .data	00000000 I_sll_cg_cmp_rd_rs1_b9_str
0000356c l       .text.rvtest	00000000 I_sll_cg_cmp_rd_rs1_b10
0000de00 l       .data	00000000 I_sll_cg_cmp_rd_rs1_b10_str
0000359c l       .text.rvtest	00000000 I_sll_cg_cmp_rd_rs1_b11
0000de34 l       .data	00000000 I_sll_cg_cmp_rd_rs1_b11_str
000035c8 l       .text.rvtest	00000000 I_sll_cg_cmp_rd_rs1_b12
0000de68 l       .data	00000000 I_sll_cg_cmp_rd_rs1_b12_str
000035f4 l       .text.rvtest	00000000 I_sll_cg_cmp_rd_rs1_b13
0000de9c l       .data	00000000 I_sll_cg_cmp_rd_rs1_b13_str
00003620 l       .text.rvtest	00000000 I_sll_cg_cmp_rd_rs1_b14
0000ded0 l       .data	00000000 I_sll_cg_cmp_rd_rs1_b14_str
0000364c l       .text.rvtest	00000000 I_sll_cg_cmp_rd_rs1_b15
0000df04 l       .data	00000000 I_sll_cg_cmp_rd_rs1_b15_str
00003678 l       .text.rvtest	00000000 I_sll_cg_cmp_rd_rs1_b16
0000df38 l       .data	00000000 I_sll_cg_cmp_rd_rs1_b16_str
000036a8 l       .text.rvtest	00000000 I_sll_cg_cmp_rd_rs1_b17
0000df6c l       .data	00000000 I_sll_cg_cmp_rd_rs1_b17_str
000036d4 l       .text.rvtest	00000000 I_sll_cg_cmp_rd_rs1_b18
0000dfa0 l       .data	00000000 I_sll_cg_cmp_rd_rs1_b18_str
00003700 l       .text.rvtest	00000000 I_sll_cg_cmp_rd_rs1_b19
0000dfd4 l       .data	00000000 I_sll_cg_cmp_rd_rs1_b19_str
0000372c l       .text.rvtest	00000000 I_sll_cg_cmp_rd_rs1_b20
0000e008 l       .data	00000000 I_sll_cg_cmp_rd_rs1_b20_str
00003758 l       .text.rvtest	00000000 I_sll_cg_cmp_rd_rs1_b21
0000e03c l       .data	00000000 I_sll_cg_cmp_rd_rs1_b21_str
00003784 l       .text.rvtest	00000000 I_sll_cg_cmp_rd_rs1_b22
0000e070 l       .data	00000000 I_sll_cg_cmp_rd_rs1_b22_str
000037b0 l       .text.rvtest	00000000 I_sll_cg_cmp_rd_rs1_b23
0000e0a4 l       .data	00000000 I_sll_cg_cmp_rd_rs1_b23_str
000037dc l       .text.rvtest	00000000 I_sll_cg_cmp_rd_rs1_b24
0000e0d8 l       .data	00000000 I_sll_cg_cmp_rd_rs1_b24_str
00003808 l       .text.rvtest	00000000 I_sll_cg_cmp_rd_rs1_b25
0000e10c l       .data	00000000 I_sll_cg_cmp_rd_rs1_b25_str
00003834 l       .text.rvtest	00000000 I_sll_cg_cmp_rd_rs1_b26
0000e140 l       .data	00000000 I_sll_cg_cmp_rd_rs1_b26_str
00003860 l       .text.rvtest	00000000 I_sll_cg_cmp_rd_rs1_b27
0000e174 l       .data	00000000 I_sll_cg_cmp_rd_rs1_b27_str
0000388c l       .text.rvtest	00000000 I_sll_cg_cmp_rd_rs1_b28
0000e1a8 l       .data	00000000 I_sll_cg_cmp_rd_rs1_b28_str
000038b8 l       .text.rvtest	00000000 I_sll_cg_cmp_rd_rs1_b29
0000e1dc l       .data	00000000 I_sll_cg_cmp_rd_rs1_b29_str
000038e8 l       .text.rvtest	00000000 I_sll_cg_cmp_rd_rs1_b30
0000e210 l       .data	00000000 I_sll_cg_cmp_rd_rs1_b30_str
00003914 l       .text.rvtest	00000000 I_sll_cg_cmp_rd_rs1_b31
0000e244 l       .data	00000000 I_sll_cg_cmp_rd_rs1_b31_str
00003940 l       .text.rvtest	00000000 I_sll_cg_cmp_rd_rs2_b0
0000e278 l       .data	00000000 I_sll_cg_cmp_rd_rs2_b0_str
0000396c l       .text.rvtest	00000000 I_sll_cg_cmp_rd_rs2_b1
0000e2ab l       .data	00000000 I_sll_cg_cmp_rd_rs2_b1_str
00003998 l       .text.rvtest	00000000 I_sll_cg_cmp_rd_rs2_b2
0000e2de l       .data	00000000 I_sll_cg_cmp_rd_rs2_b2_str
000039c4 l       .text.rvtest	00000000 I_sll_cg_cmp_rd_rs2_b3
0000e311 l       .data	00000000 I_sll_cg_cmp_rd_rs2_b3_str
000039f8 l       .text.rvtest	00000000 I_sll_cg_cmp_rd_rs2_b4
0000e344 l       .data	00000000 I_sll_cg_cmp_rd_rs2_b4_str
00003a24 l       .text.rvtest	00000000 I_sll_cg_cmp_rd_rs2_b5
0000e377 l       .data	00000000 I_sll_cg_cmp_rd_rs2_b5_str
00003a54 l       .text.rvtest	00000000 I_sll_cg_cmp_rd_rs2_b6
0000e3aa l       .data	00000000 I_sll_cg_cmp_rd_rs2_b6_str
00003a80 l       .text.rvtest	00000000 I_sll_cg_cmp_rd_rs2_b7
0000e3dd l       .data	00000000 I_sll_cg_cmp_rd_rs2_b7_str
00003aac l       .text.rvtest	00000000 I_sll_cg_cmp_rd_rs2_b8
0000e410 l       .data	00000000 I_sll_cg_cmp_rd_rs2_b8_str
00003ad8 l       .text.rvtest	00000000 I_sll_cg_cmp_rd_rs2_b9
0000e443 l       .data	00000000 I_sll_cg_cmp_rd_rs2_b9_str
00003b04 l       .text.rvtest	00000000 I_sll_cg_cmp_rd_rs2_b10
0000e476 l       .data	00000000 I_sll_cg_cmp_rd_rs2_b10_str
00003b30 l       .text.rvtest	00000000 I_sll_cg_cmp_rd_rs2_b11
0000e4aa l       .data	00000000 I_sll_cg_cmp_rd_rs2_b11_str
00003b5c l       .text.rvtest	00000000 I_sll_cg_cmp_rd_rs2_b12
0000e4de l       .data	00000000 I_sll_cg_cmp_rd_rs2_b12_str
00003b90 l       .text.rvtest	00000000 I_sll_cg_cmp_rd_rs2_b13
0000e512 l       .data	00000000 I_sll_cg_cmp_rd_rs2_b13_str
00003bbc l       .text.rvtest	00000000 I_sll_cg_cmp_rd_rs2_b14
0000e546 l       .data	00000000 I_sll_cg_cmp_rd_rs2_b14_str
00003be8 l       .text.rvtest	00000000 I_sll_cg_cmp_rd_rs2_b15
0000e57a l       .data	00000000 I_sll_cg_cmp_rd_rs2_b15_str
00003c14 l       .text.rvtest	00000000 I_sll_cg_cmp_rd_rs2_b16
0000e5ae l       .data	00000000 I_sll_cg_cmp_rd_rs2_b16_str
00003c40 l       .text.rvtest	00000000 I_sll_cg_cmp_rd_rs2_b17
0000e5e2 l       .data	00000000 I_sll_cg_cmp_rd_rs2_b17_str
00003c6c l       .text.rvtest	00000000 I_sll_cg_cmp_rd_rs2_b18
0000e616 l       .data	00000000 I_sll_cg_cmp_rd_rs2_b18_str
00003c98 l       .text.rvtest	00000000 I_sll_cg_cmp_rd_rs2_b19
0000e64a l       .data	00000000 I_sll_cg_cmp_rd_rs2_b19_str
00003cc8 l       .text.rvtest	00000000 I_sll_cg_cmp_rd_rs2_b20
0000e67e l       .data	00000000 I_sll_cg_cmp_rd_rs2_b20_str
00003cf4 l       .text.rvtest	00000000 I_sll_cg_cmp_rd_rs2_b21
0000e6b2 l       .data	00000000 I_sll_cg_cmp_rd_rs2_b21_str
00003d20 l       .text.rvtest	00000000 I_sll_cg_cmp_rd_rs2_b22
0000e6e6 l       .data	00000000 I_sll_cg_cmp_rd_rs2_b22_str
00003d4c l       .text.rvtest	00000000 I_sll_cg_cmp_rd_rs2_b23
0000e71a l       .data	00000000 I_sll_cg_cmp_rd_rs2_b23_str
00003d78 l       .text.rvtest	00000000 I_sll_cg_cmp_rd_rs2_b24
0000e74e l       .data	00000000 I_sll_cg_cmp_rd_rs2_b24_str
00003da4 l       .text.rvtest	00000000 I_sll_cg_cmp_rd_rs2_b25
0000e782 l       .data	00000000 I_sll_cg_cmp_rd_rs2_b25_str
00003dd0 l       .text.rvtest	00000000 I_sll_cg_cmp_rd_rs2_b26
0000e7b6 l       .data	00000000 I_sll_cg_cmp_rd_rs2_b26_str
00003dfc l       .text.rvtest	00000000 I_sll_cg_cmp_rd_rs2_b27
0000e7ea l       .data	00000000 I_sll_cg_cmp_rd_rs2_b27_str
00003e28 l       .text.rvtest	00000000 I_sll_cg_cmp_rd_rs2_b28
0000e81e l       .data	00000000 I_sll_cg_cmp_rd_rs2_b28_str
00003e58 l       .text.rvtest	00000000 I_sll_cg_cmp_rd_rs2_b29
0000e852 l       .data	00000000 I_sll_cg_cmp_rd_rs2_b29_str
00003e84 l       .text.rvtest	00000000 I_sll_cg_cmp_rd_rs2_b30
0000e886 l       .data	00000000 I_sll_cg_cmp_rd_rs2_b30_str
00003eb0 l       .text.rvtest	00000000 I_sll_cg_cmp_rd_rs2_b31
0000e8ba l       .data	00000000 I_sll_cg_cmp_rd_rs2_b31_str
00003edc l       .text.rvtest	00000000 I_sll_cg_cmp_rd_rs1_rs2_b0
0000e8ee l       .data	00000000 I_sll_cg_cmp_rd_rs1_rs2_b0_str
00003f08 l       .text.rvtest	00000000 I_sll_cg_cmp_rd_rs1_rs2_b1
0000e925 l       .data	00000000 I_sll_cg_cmp_rd_rs1_rs2_b1_str
00003f38 l       .text.rvtest	00000000 I_sll_cg_cmp_rd_rs1_rs2_b2
0000e95c l       .data	00000000 I_sll_cg_cmp_rd_rs1_rs2_b2_str
00003f64 l       .text.rvtest	00000000 I_sll_cg_cmp_rd_rs1_rs2_b3
0000e993 l       .data	00000000 I_sll_cg_cmp_rd_rs1_rs2_b3_str
00003f90 l       .text.rvtest	00000000 I_sll_cg_cmp_rd_rs1_rs2_b4
0000e9ca l       .data	00000000 I_sll_cg_cmp_rd_rs1_rs2_b4_str
00003fbc l       .text.rvtest	00000000 I_sll_cg_cmp_rd_rs1_rs2_b5
0000ea01 l       .data	00000000 I_sll_cg_cmp_rd_rs1_rs2_b5_str
00003fe8 l       .text.rvtest	00000000 I_sll_cg_cmp_rd_rs1_rs2_b6
0000ea38 l       .data	00000000 I_sll_cg_cmp_rd_rs1_rs2_b6_str
0000401c l       .text.rvtest	00000000 I_sll_cg_cmp_rd_rs1_rs2_b7
0000ea6f l       .data	00000000 I_sll_cg_cmp_rd_rs1_rs2_b7_str
00004048 l       .text.rvtest	00000000 I_sll_cg_cmp_rd_rs1_rs2_b8
0000eaa6 l       .data	00000000 I_sll_cg_cmp_rd_rs1_rs2_b8_str
00004074 l       .text.rvtest	00000000 I_sll_cg_cmp_rd_rs1_rs2_b9
0000eadd l       .data	00000000 I_sll_cg_cmp_rd_rs1_rs2_b9_str
000040a0 l       .text.rvtest	00000000 I_sll_cg_cmp_rd_rs1_rs2_b10
0000eb14 l       .data	00000000 I_sll_cg_cmp_rd_rs1_rs2_b10_str
000040cc l       .text.rvtest	00000000 I_sll_cg_cmp_rd_rs1_rs2_b11
0000eb4c l       .data	00000000 I_sll_cg_cmp_rd_rs1_rs2_b11_str
000040f8 l       .text.rvtest	00000000 I_sll_cg_cmp_rd_rs1_rs2_b12
0000eb84 l       .data	00000000 I_sll_cg_cmp_rd_rs1_rs2_b12_str
0000412c l       .text.rvtest	00000000 I_sll_cg_cmp_rd_rs1_rs2_b13
0000ebbc l       .data	00000000 I_sll_cg_cmp_rd_rs1_rs2_b13_str
00004158 l       .text.rvtest	00000000 I_sll_cg_cmp_rd_rs1_rs2_b14
0000ebf4 l       .data	00000000 I_sll_cg_cmp_rd_rs1_rs2_b14_str
00004184 l       .text.rvtest	00000000 I_sll_cg_cmp_rd_rs1_rs2_b15
0000ec2c l       .data	00000000 I_sll_cg_cmp_rd_rs1_rs2_b15_str
000041b0 l       .text.rvtest	00000000 I_sll_cg_cmp_rd_rs1_rs2_b16
0000ec64 l       .data	00000000 I_sll_cg_cmp_rd_rs1_rs2_b16_str
000041e0 l       .text.rvtest	00000000 I_sll_cg_cmp_rd_rs1_rs2_b17
0000ec9c l       .data	00000000 I_sll_cg_cmp_rd_rs1_rs2_b17_str
0000420c l       .text.rvtest	00000000 I_sll_cg_cmp_rd_rs1_rs2_b18
0000ecd4 l       .data	00000000 I_sll_cg_cmp_rd_rs1_rs2_b18_str
00004238 l       .text.rvtest	00000000 I_sll_cg_cmp_rd_rs1_rs2_b19
0000ed0c l       .data	00000000 I_sll_cg_cmp_rd_rs1_rs2_b19_str
00004264 l       .text.rvtest	00000000 I_sll_cg_cmp_rd_rs1_rs2_b20
0000ed44 l       .data	00000000 I_sll_cg_cmp_rd_rs1_rs2_b20_str
00004290 l       .text.rvtest	00000000 I_sll_cg_cmp_rd_rs1_rs2_b21
0000ed7c l       .data	00000000 I_sll_cg_cmp_rd_rs1_rs2_b21_str
000042bc l       .text.rvtest	00000000 I_sll_cg_cmp_rd_rs1_rs2_b22
0000edb4 l       .data	00000000 I_sll_cg_cmp_rd_rs1_rs2_b22_str
000042e8 l       .text.rvtest	00000000 I_sll_cg_cmp_rd_rs1_rs2_b23
0000edec l       .data	00000000 I_sll_cg_cmp_rd_rs1_rs2_b23_str
00004314 l       .text.rvtest	00000000 I_sll_cg_cmp_rd_rs1_rs2_b24
0000ee24 l       .data	00000000 I_sll_cg_cmp_rd_rs1_rs2_b24_str
00004344 l       .text.rvtest	00000000 I_sll_cg_cmp_rd_rs1_rs2_b25
0000ee5c l       .data	00000000 I_sll_cg_cmp_rd_rs1_rs2_b25_str
00004370 l       .text.rvtest	00000000 I_sll_cg_cmp_rd_rs1_rs2_b26
0000ee94 l       .data	00000000 I_sll_cg_cmp_rd_rs1_rs2_b26_str
0000439c l       .text.rvtest	00000000 I_sll_cg_cmp_rd_rs1_rs2_b27
0000eecc l       .data	00000000 I_sll_cg_cmp_rd_rs1_rs2_b27_str
000043c8 l       .text.rvtest	00000000 I_sll_cg_cmp_rd_rs1_rs2_b28
0000ef04 l       .data	00000000 I_sll_cg_cmp_rd_rs1_rs2_b28_str
000043f4 l       .text.rvtest	00000000 I_sll_cg_cmp_rd_rs1_rs2_b29
0000ef3c l       .data	00000000 I_sll_cg_cmp_rd_rs1_rs2_b29_str
00004420 l       .text.rvtest	00000000 I_sll_cg_cmp_rd_rs1_rs2_b30
0000ef74 l       .data	00000000 I_sll_cg_cmp_rd_rs1_rs2_b30_str
0000444c l       .text.rvtest	00000000 I_sll_cg_cmp_rd_rs1_rs2_b31
0000efac l       .data	00000000 I_sll_cg_cmp_rd_rs1_rs2_b31_str
0000446c l       .text.rvtest	00000000 exit_cleanup
0000f654 l       .data	00000000 successstr
00020204 l       .text.rvmodel	00000000 rvmodel_io_write_str
00020208 l       .text.rvmodel	00000000 rvmodel_halt_pass
000044b0 l       .text.rvtest	00000000 abort_test
6f5ca309 l       *ABS*	00000000 immx
6f5ca309 l       *ABS*	00000000 absimm
00000000 l       *ABS*	00000000 cry
00000309 l       *ABS*	00000000 imm12
0000eff0 l       .data	00000000 begin_failure_scratch
00004580 l       .text.rvtest	00000000 failedtest_saveregs
00004524 l       .text.rvtest	00000000 failedtest_trap_x7_x9
0000f160 l       .data	00000000 saved_mcause
0000f168 l       .data	00000000 saved_mtval
0000f170 l       .data	00000000 saved_mstatus
000045f0 l       .text.rvtest	00000000 failedtest_saveresults
0000eff0 l       .data	00000000 failure_type
0000466c l       .text.rvtest	00000000 failedtest_saveresults_trap
00004600 l       .text.rvtest	00000000 failedtest_saveresults_int
00004a40 l       .text.rvtest	00000000 failedtest_saveresults_common
0000f148 l       .data	00000000 trap_diag_fail_str_ptr
0000f81a l       .data	00000000 trap_sig_offset_mismatch
00004920 l       .text.rvtest	00000000 trap_diag_offset_mismatch
0000f120 l       .data	00000000 trap_diag_subtype
0000f87e l       .data	00000000 sv_Mvect_str
000049a0 l       .text.rvtest	00000000 trap_diag_field_identified
0000f980 l       .data	00000000 sv_Mcause_str
0000fa7b l       .data	00000000 sv_Mepc_str
0000fb6e l       .data	00000000 sv_Mtval_str
0000fce1 l       .data	00000000 sv_Mip_str
0000fc65 l       .data	00000000 sv_Mtval2_str
0000fca3 l       .data	00000000 sv_Mtinst_str
0000f8be l       .data	00000000 sv_Svect_str
0000f9be l       .data	00000000 sv_Scause_str
0000fab7 l       .data	00000000 sv_Sepc_str
0000fbab l       .data	00000000 sv_Stval_str
0000fd1c l       .data	00000000 sv_Sip_str
0000f8fe l       .data	00000000 sv_Hvect_str
0000f9fc l       .data	00000000 sv_Hcause_str
0000faf3 l       .data	00000000 sv_Hepc_str
0000fbe8 l       .data	00000000 sv_Htval_str
0000fd57 l       .data	00000000 sv_Hip_str
0000f93f l       .data	00000000 sv_Vvect_str
0000fa3b l       .data	00000000 sv_Vcause_str
0000fb30 l       .data	00000000 sv_Vepc_str
0000fc26 l       .data	00000000 sv_Vtval_str
0000fd93 l       .data	00000000 sv_Vip_str
0000fdd0 l       .data	00000000 Mclr_Mext_int_str
0000fe1f l       .data	00000000 Mclr_Sext_int_str
0000ff1a l       .data	00000000 Sclr_Sext_int_str
00010016 l       .data	00000000 Hclr_Sext_int_str
00004a30 l       .text.rvtest	00000000 trap_diag_generic_report
0000f138 l       .data	00000000 trap_diag_actual_offset
0000f140 l       .data	00000000 trap_diag_expected_offset
0000f124 l       .data	00000000 trap_diag_mode
0000f128 l       .data	00000000 trap_diag_actual_value
0000f130 l       .data	00000000 trap_diag_expected_value
00004a70 l       .text.rvtest	00000000 failedtest_report
00004a70 l       .text.rvtest	00000000 print_failstr
0000f68a l       .data	00000000 failstr
00004aa8 l       .text.rvtest	00000000 print_testnamestr
0000f71d l       .data	00000000 testnamestr
00004ae8 l       .text.rvtest	00000000 print_failure_test_name_str
0000f110 l       .data	00000000 failure_string_ptr
00004af8 l       .text.rvtest	00000000 print_newline_str
0000f72f l       .data	00000000 newlinestr
00004f2c l       .text.rvtest	00000000 failedtest_report_trap_detailed
0000f731 l       .data	00000000 inststr
0000f0f0 l       .data	00000000 failing_instruction
00005e78 l       .text.rvtest	00000000 failedtest_hex_to_str
0000f178 l       .data	00000000 ascii_buffer
0000f745 l       .data	00000000 addrstr
0000f0f8 l       .data	00000000 failing_addr
000101c2 l       .data	00000000 regstr
00004cd8 l       .text.rvtest	00000000 failedtest_report_not_intreg
0000f0f4 l       .data	00000000 failing_reg
00005ef4 l       .text.rvtest	00000000 failedtest_dec_to_str
00004db4 l       .text.rvtest	00000000 failedtest_report_print_regstr
00004d2c l       .text.rvtest	00000000 failedtest_report_fpreg
00004d78 l       .text.rvtest	00000000 failedtest_report_vecreg
00010222 l       .data	00000000 fflagsstr
00004de8 l       .text.rvtest	00000000 failedtest_report_after_reg
000101d3 l       .data	00000000 badvalstr
00004e4c l       .text.rvtest	00000000 failedtest_report_badval_not_fp
0000f100 l       .data	00000000 failing_value
00004e5c l       .text.rvtest	00000000 failedtest_report_badval_done
000101ea l       .data	00000000 expvalstr
00004eec l       .text.rvtest	00000000 failedtest_report_expval_not_fp
0000f108 l       .data	00000000 expected_value
00004efc l       .text.rvtest	00000000 failedtest_report_expval_done
00005c24 l       .text.rvtest	00000000 failedtest_report_end
0001024e l       .data	00000000 trap_diag_header_str
0001027a l       .data	00000000 trap_diag_origstr_label
00005000 l       .text.rvtest	00000000 trap_report_offset_mismatch
00005ab0 l       .text.rvtest	00000000 trap_report_generic
00005374 l       .text.rvtest	00000000 trap_report_field_mismatch
0001028a l       .data	00000000 trap_diag_count_mismatch_str
000102eb l       .data	00000000 trap_diag_expected_offset_str
00010312 l       .data	00000000 trap_diag_actual_offset_str
00005254 l       .text.rvtest	00000000 trap_report_missing_traps
0000513c l       .text.rvtest	00000000 trap_report_extra_traps
00010339 l       .data	00000000 trap_diag_extra_traps_str
000103be l       .data	00000000 trap_diag_extra_bytes_str
000103e9 l       .data	00000000 trap_diag_extra_hint_str
00005c70 l       .text.rvtest	00000000 failedtest_print_csr_context
00010373 l       .data	00000000 trap_diag_missing_traps_str
000104d1 l       .data	00000000 trap_diag_missing_hint_str
000105b8 l       .data	00000000 trap_diag_handler_mode_str
00005404 l       .text.rvtest	00000000 trap_mode_m
00005444 l       .text.rvtest	00000000 trap_mode_s
00005484 l       .text.rvtest	00000000 trap_mode_h
000054c4 l       .text.rvtest	00000000 trap_mode_v
000105f4 l       .data	00000000 trap_diag_mode_unknown_str
00005500 l       .text.rvtest	00000000 trap_mode_print
000105d2 l       .data	00000000 trap_diag_mode_m_str
000105da l       .data	00000000 trap_diag_mode_s_str
000105e2 l       .data	00000000 trap_diag_mode_hs_str
000105eb l       .data	00000000 trap_diag_mode_vs_str
000105fd l       .data	00000000 trap_diag_field_str
000055c4 l       .text.rvtest	00000000 trap_field_vect
00005604 l       .text.rvtest	00000000 trap_field_cause
00005644 l       .text.rvtest	00000000 trap_field_epc
00005684 l       .text.rvtest	00000000 trap_field_tval
000056c4 l       .text.rvtest	00000000 trap_field_ip
00005704 l       .text.rvtest	00000000 trap_field_tval2
00005744 l       .text.rvtest	00000000 trap_field_tinst
00005784 l       .text.rvtest	00000000 trap_field_intid
00010754 l       .data	00000000 trap_diag_field_unknown_str
000057c0 l       .text.rvtest	00000000 trap_field_print
00010617 l       .data	00000000 trap_diag_field_vect_str
00010648 l       .data	00000000 trap_diag_field_cause_str
00010668 l       .data	00000000 trap_diag_field_epc_str
00010686 l       .data	00000000 trap_diag_field_tval_str
000106a5 l       .data	00000000 trap_diag_field_ip_str
000106cd l       .data	00000000 trap_diag_field_tval2_str
000106f9 l       .data	00000000 trap_diag_field_tinst_str
00010725 l       .data	00000000 trap_diag_field_intid_str
00010763 l       .data	00000000 trap_diag_expected_str
0001077a l       .data	00000000 trap_diag_actual_str
0000595c l       .text.rvtest	00000000 trap_field_not_cause
00010791 l       .data	00000000 trap_diag_expected_cause_name_str
00005b94 l       .text.rvtest	00000000 trap_cause_to_str
000107a8 l       .data	00000000 trap_diag_actual_cause_name_str
0000595c l       .text.rvtest	00000000 trap_field_not_epc
0001081e l       .data	00000000 trap_diag_hint_vect_str
000108f4 l       .data	00000000 trap_diag_hint_cause_str
000109e7 l       .data	00000000 trap_diag_hint_epc_str
00010ae2 l       .data	00000000 trap_diag_hint_tval_str
00010bc9 l       .data	00000000 trap_diag_hint_ip_str
000107d6 l       .data	00000000 trap_diag_generic_str
0000f158 l       .data	00000000 saved_mepc
0000f7b9 l       .data	00000000 xepcinstrstr
00005bb8 l       .text.rvtest	00000000 trap_cause_interrupt
00005b98 l       .text.rvtest	00000000 trap_cause_exception
00005be4 l       .text.rvtest	00000000 trap_cause_unknown
0000f1a0 l       .data	00000000 trap_excpt_name_tbl
0000f200 l       .data	00000000 trap_int_name_tbl
0000f63e l       .data	00000000 trap_cause_unknown_str
00010201 l       .data	00000000 endstr
00005c68 l       .text.rvtest	00000000 failedtest_terminate
00020214 l       .text.rvmodel	00000000 rvmodel_halt_fail
0000f150 l       .data	00000000 csr_context_ret_addr
0000f7da l       .data	00000000 mepcstr
0000f7ea l       .data	00000000 mcausestr
0000f7fa l       .data	00000000 mtvalstr
0000f80a l       .data	00000000 mstatusstr
00005eb8 l       .text.rvtest	00000000 failedtest_hex_to_str_loop
00005ed4 l       .text.rvtest	00000000 failedtest_hex_to_str_digit
00005ed8 l       .text.rvtest	00000000 failedtest_hex_to_str_write
00020000 l       .text.rvmodel	00000000 rvtest_boot_to_mmode
00020000 l       .text.rvmodel	00000000 rvtest_init_regs
00010cb0 l       .data	00000000 signature_base
000201a0 l       .text.rvmodel	00000000 canary_check
0001022a l       .data	00000000 canary_mismatch
00008000 l       .data	00000000 scratch
0000f1a0 l       .data	00000000 end_failure_scratch
0000f240 l       .data	00000000 trap_excpt_name_0
0000f260 l       .data	00000000 trap_excpt_name_1
0000f27a l       .data	00000000 trap_excpt_name_2
0000f28f l       .data	00000000 trap_excpt_name_3
0000f29b l       .data	00000000 trap_excpt_name_4
0000f2b4 l       .data	00000000 trap_excpt_name_5
0000f2c7 l       .data	00000000 trap_excpt_name_6
0000f2e5 l       .data	00000000 trap_excpt_name_7
0000f2fd l       .data	00000000 trap_excpt_name_8
0000f31b l       .data	00000000 trap_excpt_name_9
0000f339 l       .data	00000000 trap_excpt_name_10
0000f358 l       .data	00000000 trap_excpt_name_11
0000f376 l       .data	00000000 trap_excpt_name_12
0000f38e l       .data	00000000 trap_excpt_name_13
0000f39f l       .data	00000000 trap_excpt_name_14
0000f3ae l       .data	00000000 trap_excpt_name_15
0000f3c4 l       .data	00000000 trap_excpt_name_16
0000f3d1 l       .data	00000000 trap_excpt_name_17
0000f3e0 l       .data	00000000 trap_excpt_name_18
0000f3f0 l       .data	00000000 trap_excpt_name_19
0000f400 l       .data	00000000 trap_excpt_name_20
0000f41e l       .data	00000000 trap_excpt_name_21
0000f435 l       .data	00000000 trap_excpt_name_22
0000f44a l       .data	00000000 trap_excpt_name_23
0000f466 l       .data	00000000 trap_int_name_0
0000f47e l       .data	00000000 trap_int_name_1
0000f49d l       .data	00000000 trap_int_name_2
0000f4c4 l       .data	00000000 trap_int_name_3
0000f4e0 l       .data	00000000 trap_int_name_4
0000f4f8 l       .data	00000000 trap_int_name_5
0000f514 l       .data	00000000 trap_int_name_6
0000f538 l       .data	00000000 trap_int_name_7
0000f551 l       .data	00000000 trap_int_name_8
0000f569 l       .data	00000000 trap_int_name_9
0000f588 l       .data	00000000 trap_int_name_10
0000f5af l       .data	00000000 trap_int_name_11
0000f5cb l       .data	00000000 trap_int_name_12
0000f5f0 l       .data	00000000 trap_int_name_13
0000f60c l       .data	00000000 trap_int_name_14
0000f625 l       .data	00000000 trap_int_name_15
0000f6df l       .data	00000000 abortstr
0000f786 l       .data	00000000 xepcstr
0000fe71 l       .data	00000000 Mclr_Vext_int_str
0000fecb l       .data	00000000 Sclr_Mext_int_str
0000ff6c l       .data	00000000 Sclr_Vext_int_str
0000ffc6 l       .data	00000000 Hclr_Mext_int_str
00010069 l       .data	00000000 Hclr_Vext_int_str
000100c4 l       .data	00000000 Vclr_Mext_int_str
00010114 l       .data	00000000 Vclr_Sext_int_str
00010167 l       .data	00000000 Vclr_Vext_int_str
000107bf l       .data	00000000 trap_diag_curr_xepc_str
00011300 l       .data	00000000 trap_sigptr
0001fd70 g       .data	00000000 end_signature
0001fd70 g       .data	00000000 rvtest_sig_end
00000000 g       .text.init	00000000 rvtest_entry_point
00010cb0 g       .data	00000000 begin_signature
0000446c g       .text.rvtest	00000000 rvtest_code_end
00000040 g       .text.rvtest	00000000 rvtest_code_begin
00010cb0 g       .data	00000000 rvtest_sig_begin
00008110 g       .data	00000000 rvtest_data_begin
00010cae g       .data	00000000 rvtest_data_end
0000446c g       .text.rvtest	00000000 cleanup_epilogs
00021000 g       .text.rvmodel	00000000 _end



Disassembly of section .text.init:

00000000 <rvtest_entry_point>:

// Include framework macros
#include "riscv_arch_test.h"

// Set up test environment and declare main entry point
RVTEST_BEGIN
   0:	00020097          	auipc	x1,0x20
   4:	00008093          	addi	x1,x1,0 # 20000 <rvmodel_boot>
   8:	00000013          	addi	x0,x0,0
   c:	00000013          	addi	x0,x0,0
  10:	00000013          	addi	x0,x0,0
  14:	00000013          	addi	x0,x0,0
  18:	00000013          	addi	x0,x0,0
  1c:	00000013          	addi	x0,x0,0
  20:	000080e7          	jalr	x1,0(x1)
  24:	00000013          	addi	x0,x0,0
  28:	00000013          	addi	x0,x0,0
  2c:	00000013          	addi	x0,x0,0
  30:	00000013          	addi	x0,x0,0
  34:	00000013          	addi	x0,x0,0
  38:	00000013          	addi	x0,x0,0
  3c:	00000013          	addi	x0,x0,0

Disassembly of section .text.rvtest:

00000040 <rvtest_code_begin>:
/////////////////////////////////
// cp_rs1
/////////////////////////////////

# Testcase cp_rs1 (Test source rs1 = x0)
  RVTEST_TESTDATA_LOAD_INT(x3, x0) # load rs1: x0 = 0x0a182d0a
      40:	0001a003          	lw	x0,0(x3)
      44:	00418193          	addi	x3,x3,4
  RVTEST_TESTDATA_LOAD_INT(x3, x19) # load rs2: x19 = 0x8a05af93
      48:	0001a983          	lw	x19,0(x3)
      4c:	00418193          	addi	x3,x3,4

00000050 <I_sll_cg_cp_rs1_b0>:
I_sll_cg_cp_rs1_b0:
  sll x6, x0, x19 # perform operation
      50:	01301333          	sll	x6,x0,x19
  # Check if x6 contains the expected result. x2 is the signature ptr, x5 is the link ptr, x4 is a temp reg.
  RVTEST_SIGUPD(x2, x5, x4, x6, I_sll_cg_cp_rs1_b0, I_sll_cg_cp_rs1_b0_str)
      54:	00012203          	lw	x4,0(x2)
      58:	00620863          	beq	x4,x6,68 <I_sll_cg_cp_rs1_b0+0x18>
      5c:	460042ef          	jal	x5,44bc <failedtest_x5_x4>
      60:	00000050          	.word	0x00000050
      64:	00008d50          	.word	0x00008d50
      68:	00410113          	addi	x2,x2,4

# Testcase cp_rs1 (Test source rs1 = x1)
  RVTEST_TESTDATA_LOAD_INT(x3, x1) # load rs1: x1 = 0xcd073f18
      6c:	0001a083          	lw	x1,0(x3)
      70:	00418193          	addi	x3,x3,4
  RVTEST_TESTDATA_LOAD_INT(x3, x21) # load rs2: x21 = 0x9e8fac57
      74:	0001aa83          	lw	x21,0(x3)
      78:	00418193          	addi	x3,x3,4

0000007c <I_sll_cg_cp_rs1_b1>:
I_sll_cg_cp_rs1_b1:
  sll x28, x1, x21 # perform operation
      7c:	01509e33          	sll	x28,x1,x21
  # Check if x28 contains the expected result. x2 is the signature ptr, x5 is the link ptr, x4 is a temp reg.
  RVTEST_SIGUPD(x2, x5, x4, x28, I_sll_cg_cp_rs1_b1, I_sll_cg_cp_rs1_b1_str)
      80:	00012203          	lw	x4,0(x2)
      84:	01c20863          	beq	x4,x28,94 <I_sll_cg_cp_rs1_b1+0x18>
      88:	434042ef          	jal	x5,44bc <failedtest_x5_x4>
      8c:	0000007c          	.word	0x0000007c
      90:	00008d7d          	.word	0x00008d7d
      94:	00410113          	addi	x2,x2,4

  mv x26, x2 # switch signature pointer register to avoid conflict with test
      98:	00010d13          	addi	x26,x2,0
# Testcase cp_rs1 (Test source rs1 = x2)
  RVTEST_TESTDATA_LOAD_INT(x3, x2) # load rs1: x2 = 0xa985ba79
      9c:	0001a103          	lw	x2,0(x3)
      a0:	00418193          	addi	x3,x3,4
  RVTEST_TESTDATA_LOAD_INT(x3, x18) # load rs2: x18 = 0xb0450995
      a4:	0001a903          	lw	x18,0(x3)
      a8:	00418193          	addi	x3,x3,4

000000ac <I_sll_cg_cp_rs1_b2>:
I_sll_cg_cp_rs1_b2:
  sll x24, x2, x18 # perform operation
      ac:	01211c33          	sll	x24,x2,x18
  # Check if x24 contains the expected result. x26 is the signature ptr, x5 is the link ptr, x4 is a temp reg.
  RVTEST_SIGUPD(x26, x5, x4, x24, I_sll_cg_cp_rs1_b2, I_sll_cg_cp_rs1_b2_str)
      b0:	000d2203          	lw	x4,0(x26)
      b4:	01820863          	beq	x4,x24,c4 <I_sll_cg_cp_rs1_b2+0x18>
      b8:	404042ef          	jal	x5,44bc <failedtest_x5_x4>
      bc:	000000ac          	.word	0x000000ac
      c0:	00008daa          	.word	0x00008daa
      c4:	004d0d13          	addi	x26,x26,4

  mv x9, x3 # switch data pointer register to avoid conflict with test
      c8:	00018493          	addi	x9,x3,0
# Testcase cp_rs1 (Test source rs1 = x3)
  RVTEST_TESTDATA_LOAD_INT(x9, x3) # load rs1: x3 = 0x3fe0731d
      cc:	0004a183          	lw	x3,0(x9)
      d0:	00448493          	addi	x9,x9,4
  RVTEST_TESTDATA_LOAD_INT(x9, x17) # load rs2: x17 = 0x45d64e13
      d4:	0004a883          	lw	x17,0(x9)
      d8:	00448493          	addi	x9,x9,4

000000dc <I_sll_cg_cp_rs1_b3>:
I_sll_cg_cp_rs1_b3:
  sll x12, x3, x17 # perform operation
      dc:	01119633          	sll	x12,x3,x17
  # Check if x12 contains the expected result. x26 is the signature ptr, x5 is the link ptr, x4 is a temp reg.
  RVTEST_SIGUPD(x26, x5, x4, x12, I_sll_cg_cp_rs1_b3, I_sll_cg_cp_rs1_b3_str)
      e0:	000d2203          	lw	x4,0(x26)
      e4:	00c20863          	beq	x4,x12,f4 <I_sll_cg_cp_rs1_b3+0x18>
      e8:	3d4042ef          	jal	x5,44bc <failedtest_x5_x4>
      ec:	000000dc          	.word	0x000000dc
      f0:	00008dd7          	.word	0x00008dd7
      f4:	004d0d13          	addi	x26,x26,4

  mv x13, x4 # switch temp register to avoid conflict with test
      f8:	00020693          	addi	x13,x4,0 # 0 <rvtest_entry_point>
  mv x14, x5 # switch link pointer register to avoid conflict with test
      fc:	00028713          	addi	x14,x5,0
# Testcase cp_rs1 (Test source rs1 = x4)
  RVTEST_TESTDATA_LOAD_INT(x9, x4) # load rs1: x4 = 0xeb250c91
     100:	0004a203          	lw	x4,0(x9)
     104:	00448493          	addi	x9,x9,4
  RVTEST_TESTDATA_LOAD_INT(x9, x30) # load rs2: x30 = 0xc16cf136
     108:	0004af03          	lw	x30,0(x9)
     10c:	00448493          	addi	x9,x9,4

00000110 <I_sll_cg_cp_rs1_b4>:
I_sll_cg_cp_rs1_b4:
  sll x27, x4, x30 # perform operation
     110:	01e21db3          	sll	x27,x4,x30
  # Check if x27 contains the expected result. x26 is the signature ptr, x14 is the link ptr, x13 is a temp reg.
  RVTEST_SIGUPD(x26, x14, x13, x27, I_sll_cg_cp_rs1_b4, I_sll_cg_cp_rs1_b4_str)
     114:	000d2683          	lw	x13,0(x26)
     118:	01b68863          	beq	x13,x27,128 <I_sll_cg_cp_rs1_b4+0x18>
     11c:	3e00476f          	jal	x14,44fc <failedtest_x14_x13>
     120:	00000110          	.word	0x00000110
     124:	00008e04          	.word	0x00008e04
     128:	004d0d13          	addi	x26,x26,4

# Testcase cp_rs1 (Test source rs1 = x5)
  RVTEST_TESTDATA_LOAD_INT(x9, x5) # load rs1: x5 = 0x030a2755
     12c:	0004a283          	lw	x5,0(x9)
     130:	00448493          	addi	x9,x9,4
  RVTEST_TESTDATA_LOAD_INT(x9, x4) # load rs2: x4 = 0xb9ae254e
     134:	0004a203          	lw	x4,0(x9)
     138:	00448493          	addi	x9,x9,4

0000013c <I_sll_cg_cp_rs1_b5>:
I_sll_cg_cp_rs1_b5:
  sll x7, x5, x4 # perform operation
     13c:	004293b3          	sll	x7,x5,x4
  # Check if x7 contains the expected result. x26 is the signature ptr, x14 is the link ptr, x13 is a temp reg.
  RVTEST_SIGUPD(x26, x14, x13, x7, I_sll_cg_cp_rs1_b5, I_sll_cg_cp_rs1_b5_str)
     140:	000d2683          	lw	x13,0(x26)
     144:	00768863          	beq	x13,x7,154 <I_sll_cg_cp_rs1_b5+0x18>
     148:	3b40476f          	jal	x14,44fc <failedtest_x14_x13>
     14c:	0000013c          	.word	0x0000013c
     150:	00008e31          	.word	0x00008e31
     154:	004d0d13          	addi	x26,x26,4

# Testcase cp_rs1 (Test source rs1 = x6)
  RVTEST_TESTDATA_LOAD_INT(x9, x6) # load rs1: x6 = 0x0954ee89
     158:	0004a303          	lw	x6,0(x9)
     15c:	00448493          	addi	x9,x9,4
  RVTEST_TESTDATA_LOAD_INT(x9, x1) # load rs2: x1 = 0xe9ab2984
     160:	0004a083          	lw	x1,0(x9)
     164:	00448493          	addi	x9,x9,4

00000168 <I_sll_cg_cp_rs1_b6>:
I_sll_cg_cp_rs1_b6:
  sll x7, x6, x1 # perform operation
     168:	001313b3          	sll	x7,x6,x1
  # Check if x7 contains the expected result. x26 is the signature ptr, x14 is the link ptr, x13 is a temp reg.
  RVTEST_SIGUPD(x26, x14, x13, x7, I_sll_cg_cp_rs1_b6, I_sll_cg_cp_rs1_b6_str)
     16c:	000d2683          	lw	x13,0(x26)
     170:	00768863          	beq	x13,x7,180 <I_sll_cg_cp_rs1_b6+0x18>
     174:	3880476f          	jal	x14,44fc <failedtest_x14_x13>
     178:	00000168          	.word	0x00000168
     17c:	00008e5e          	.word	0x00008e5e
     180:	004d0d13          	addi	x26,x26,4

# Testcase cp_rs1 (Test source rs1 = x7)
  RVTEST_TESTDATA_LOAD_INT(x9, x7) # load rs1: x7 = 0xb23d671a
     184:	0004a383          	lw	x7,0(x9)
     188:	00448493          	addi	x9,x9,4
  RVTEST_TESTDATA_LOAD_INT(x9, x3) # load rs2: x3 = 0x82da6fc6
     18c:	0004a183          	lw	x3,0(x9)
     190:	00448493          	addi	x9,x9,4

00000194 <I_sll_cg_cp_rs1_b7>:
I_sll_cg_cp_rs1_b7:
  sll x17, x7, x3 # perform operation
     194:	003398b3          	sll	x17,x7,x3
  # Check if x17 contains the expected result. x26 is the signature ptr, x14 is the link ptr, x13 is a temp reg.
  RVTEST_SIGUPD(x26, x14, x13, x17, I_sll_cg_cp_rs1_b7, I_sll_cg_cp_rs1_b7_str)
     198:	000d2683          	lw	x13,0(x26)
     19c:	01168863          	beq	x13,x17,1ac <I_sll_cg_cp_rs1_b7+0x18>
     1a0:	35c0476f          	jal	x14,44fc <failedtest_x14_x13>
     1a4:	00000194          	.word	0x00000194
     1a8:	00008e8b          	.word	0x00008e8b
     1ac:	004d0d13          	addi	x26,x26,4

# Testcase cp_rs1 (Test source rs1 = x8)
  RVTEST_TESTDATA_LOAD_INT(x9, x8) # load rs1: x8 = 0x459c457a
     1b0:	0004a403          	lw	x8,0(x9)
     1b4:	00448493          	addi	x9,x9,4
  RVTEST_TESTDATA_LOAD_INT(x9, x0) # load rs2: x0 = 0x2079c779
     1b8:	0004a003          	lw	x0,0(x9)
     1bc:	00448493          	addi	x9,x9,4

000001c0 <I_sll_cg_cp_rs1_b8>:
I_sll_cg_cp_rs1_b8:
  sll x17, x8, x0 # perform operation
     1c0:	000418b3          	sll	x17,x8,x0
  # Check if x17 contains the expected result. x26 is the signature ptr, x14 is the link ptr, x13 is a temp reg.
  RVTEST_SIGUPD(x26, x14, x13, x17, I_sll_cg_cp_rs1_b8, I_sll_cg_cp_rs1_b8_str)
     1c4:	000d2683          	lw	x13,0(x26)
     1c8:	01168863          	beq	x13,x17,1d8 <I_sll_cg_cp_rs1_b8+0x18>
     1cc:	3300476f          	jal	x14,44fc <failedtest_x14_x13>
     1d0:	000001c0          	.word	0x000001c0
     1d4:	00008eb8          	.word	0x00008eb8
     1d8:	004d0d13          	addi	x26,x26,4

  mv x24, x9 # switch data pointer register to avoid conflict with test
     1dc:	00048c13          	addi	x24,x9,0
# Testcase cp_rs1 (Test source rs1 = x9)
  RVTEST_TESTDATA_LOAD_INT(x24, x9) # load rs1: x9 = 0xe040a7d4
     1e0:	000c2483          	lw	x9,0(x24)
     1e4:	004c0c13          	addi	x24,x24,4
  RVTEST_TESTDATA_LOAD_INT(x24, x31) # load rs2: x31 = 0x9aa9246d
     1e8:	000c2f83          	lw	x31,0(x24)
     1ec:	004c0c13          	addi	x24,x24,4

000001f0 <I_sll_cg_cp_rs1_b9>:
I_sll_cg_cp_rs1_b9:
  sll x1, x9, x31 # perform operation
     1f0:	01f490b3          	sll	x1,x9,x31
  # Check if x1 contains the expected result. x26 is the signature ptr, x14 is the link ptr, x13 is a temp reg.
  RVTEST_SIGUPD(x26, x14, x13, x1, I_sll_cg_cp_rs1_b9, I_sll_cg_cp_rs1_b9_str)
     1f4:	000d2683          	lw	x13,0(x26)
     1f8:	00168863          	beq	x13,x1,208 <I_sll_cg_cp_rs1_b9+0x18>
     1fc:	3000476f          	jal	x14,44fc <failedtest_x14_x13>
     200:	000001f0          	.word	0x000001f0
     204:	00008ee5          	.word	0x00008ee5
     208:	004d0d13          	addi	x26,x26,4

# Testcase cp_rs1 (Test source rs1 = x10)
  RVTEST_TESTDATA_LOAD_INT(x24, x10) # load rs1: x10 = 0x1173f694
     20c:	000c2503          	lw	x10,0(x24)
     210:	004c0c13          	addi	x24,x24,4
  RVTEST_TESTDATA_LOAD_INT(x24, x30) # load rs2: x30 = 0x3e421b5d
     214:	000c2f03          	lw	x30,0(x24)
     218:	004c0c13          	addi	x24,x24,4

0000021c <I_sll_cg_cp_rs1_b10>:
I_sll_cg_cp_rs1_b10:
  sll x29, x10, x30 # perform operation
     21c:	01e51eb3          	sll	x29,x10,x30
  # Check if x29 contains the expected result. x26 is the signature ptr, x14 is the link ptr, x13 is a temp reg.
  RVTEST_SIGUPD(x26, x14, x13, x29, I_sll_cg_cp_rs1_b10, I_sll_cg_cp_rs1_b10_str)
     220:	000d2683          	lw	x13,0(x26)
     224:	01d68863          	beq	x13,x29,234 <I_sll_cg_cp_rs1_b10+0x18>
     228:	2d40476f          	jal	x14,44fc <failedtest_x14_x13>
     22c:	0000021c          	.word	0x0000021c
     230:	00008f13          	.word	0x00008f13
     234:	004d0d13          	addi	x26,x26,4

# Testcase cp_rs1 (Test source rs1 = x11)
  RVTEST_TESTDATA_LOAD_INT(x24, x11) # load rs1: x11 = 0x48c4f8fb
     238:	000c2583          	lw	x11,0(x24)
     23c:	004c0c13          	addi	x24,x24,4
  RVTEST_TESTDATA_LOAD_INT(x24, x4) # load rs2: x4 = 0xde84e21b
     240:	000c2203          	lw	x4,0(x24)
     244:	004c0c13          	addi	x24,x24,4

00000248 <I_sll_cg_cp_rs1_b11>:
I_sll_cg_cp_rs1_b11:
  sll x6, x11, x4 # perform operation
     248:	00459333          	sll	x6,x11,x4
  # Check if x6 contains the expected result. x26 is the signature ptr, x14 is the link ptr, x13 is a temp reg.
  RVTEST_SIGUPD(x26, x14, x13, x6, I_sll_cg_cp_rs1_b11, I_sll_cg_cp_rs1_b11_str)
     24c:	000d2683          	lw	x13,0(x26)
     250:	00668863          	beq	x13,x6,260 <I_sll_cg_cp_rs1_b11+0x18>
     254:	2a80476f          	jal	x14,44fc <failedtest_x14_x13>
     258:	00000248          	.word	0x00000248
     25c:	00008f42          	.word	0x00008f42
     260:	004d0d13          	addi	x26,x26,4

# Testcase cp_rs1 (Test source rs1 = x12)
  RVTEST_TESTDATA_LOAD_INT(x24, x12) # load rs1: x12 = 0x4a19ddb9
     264:	000c2603          	lw	x12,0(x24)
     268:	004c0c13          	addi	x24,x24,4
  RVTEST_TESTDATA_LOAD_INT(x24, x9) # load rs2: x9 = 0x4f514eda
     26c:	000c2483          	lw	x9,0(x24)
     270:	004c0c13          	addi	x24,x24,4

00000274 <I_sll_cg_cp_rs1_b12>:
I_sll_cg_cp_rs1_b12:
  sll x7, x12, x9 # perform operation
     274:	009613b3          	sll	x7,x12,x9
  # Check if x7 contains the expected result. x26 is the signature ptr, x14 is the link ptr, x13 is a temp reg.
  RVTEST_SIGUPD(x26, x14, x13, x7, I_sll_cg_cp_rs1_b12, I_sll_cg_cp_rs1_b12_str)
     278:	000d2683          	lw	x13,0(x26)
     27c:	00768863          	beq	x13,x7,28c <I_sll_cg_cp_rs1_b12+0x18>
     280:	27c0476f          	jal	x14,44fc <failedtest_x14_x13>
     284:	00000274          	.word	0x00000274
     288:	00008f71          	.word	0x00008f71
     28c:	004d0d13          	addi	x26,x26,4

  mv x7, x13 # switch temp register to avoid conflict with test
     290:	00068393          	addi	x7,x13,0
  mv x8, x14 # switch link pointer register to avoid conflict with test
     294:	00070413          	addi	x8,x14,0
# Testcase cp_rs1 (Test source rs1 = x13)
  RVTEST_TESTDATA_LOAD_INT(x24, x13) # load rs1: x13 = 0x47bdb495
     298:	000c2683          	lw	x13,0(x24)
     29c:	004c0c13          	addi	x24,x24,4
  RVTEST_TESTDATA_LOAD_INT(x24, x31) # load rs2: x31 = 0x897ae852
     2a0:	000c2f83          	lw	x31,0(x24)
     2a4:	004c0c13          	addi	x24,x24,4

000002a8 <I_sll_cg_cp_rs1_b13>:
I_sll_cg_cp_rs1_b13:
  sll x11, x13, x31 # perform operation
     2a8:	01f695b3          	sll	x11,x13,x31
  # Check if x11 contains the expected result. x26 is the signature ptr, x8 is the link ptr, x7 is a temp reg.
  RVTEST_SIGUPD(x26, x8, x7, x11, I_sll_cg_cp_rs1_b13, I_sll_cg_cp_rs1_b13_str)
     2ac:	000d2383          	lw	x7,0(x26)
     2b0:	00b38863          	beq	x7,x11,2c0 <I_sll_cg_cp_rs1_b13+0x18>
     2b4:	2200446f          	jal	x8,44d4 <failedtest_x8_x7>
     2b8:	000002a8          	.word	0x000002a8
     2bc:	00008fa0          	.word	0x00008fa0
     2c0:	004d0d13          	addi	x26,x26,4

# Testcase cp_rs1 (Test source rs1 = x14)
  RVTEST_TESTDATA_LOAD_INT(x24, x14) # load rs1: x14 = 0x465a480a
     2c4:	000c2703          	lw	x14,0(x24)
     2c8:	004c0c13          	addi	x24,x24,4
  RVTEST_TESTDATA_LOAD_INT(x24, x10) # load rs2: x10 = 0x222820bf
     2cc:	000c2503          	lw	x10,0(x24)
     2d0:	004c0c13          	addi	x24,x24,4

000002d4 <I_sll_cg_cp_rs1_b14>:
I_sll_cg_cp_rs1_b14:
  sll x2, x14, x10 # perform operation
     2d4:	00a71133          	sll	x2,x14,x10
  # Check if x2 contains the expected result. x26 is the signature ptr, x8 is the link ptr, x7 is a temp reg.
  RVTEST_SIGUPD(x26, x8, x7, x2, I_sll_cg_cp_rs1_b14, I_sll_cg_cp_rs1_b14_str)
     2d8:	000d2383          	lw	x7,0(x26)
     2dc:	00238863          	beq	x7,x2,2ec <I_sll_cg_cp_rs1_b14+0x18>
     2e0:	1f40446f          	jal	x8,44d4 <failedtest_x8_x7>
     2e4:	000002d4          	.word	0x000002d4
     2e8:	00008fcf          	.word	0x00008fcf
     2ec:	004d0d13          	addi	x26,x26,4

# Testcase cp_rs1 (Test source rs1 = x15)
  RVTEST_TESTDATA_LOAD_INT(x24, x15) # load rs1: x15 = 0x9c6623fd
     2f0:	000c2783          	lw	x15,0(x24)
     2f4:	004c0c13          	addi	x24,x24,4
  RVTEST_TESTDATA_LOAD_INT(x24, x19) # load rs2: x19 = 0xcc566aa6
     2f8:	000c2983          	lw	x19,0(x24)
     2fc:	004c0c13          	addi	x24,x24,4

00000300 <I_sll_cg_cp_rs1_b15>:
I_sll_cg_cp_rs1_b15:
  sll x29, x15, x19 # perform operation
     300:	01379eb3          	sll	x29,x15,x19
  # Check if x29 contains the expected result. x26 is the signature ptr, x8 is the link ptr, x7 is a temp reg.
  RVTEST_SIGUPD(x26, x8, x7, x29, I_sll_cg_cp_rs1_b15, I_sll_cg_cp_rs1_b15_str)
     304:	000d2383          	lw	x7,0(x26)
     308:	01d38863          	beq	x7,x29,318 <imm12+0xf>
     30c:	1c80446f          	jal	x8,44d4 <failedtest_x8_x7>
     310:	00000300          	.word	0x00000300
     314:	00008ffe          	.word	0x00008ffe
     318:	004d0d13          	addi	x26,x26,4

# Testcase cp_rs1 (Test source rs1 = x16)
  RVTEST_TESTDATA_LOAD_INT(x24, x16) # load rs1: x16 = 0x7a35a45f
     31c:	000c2803          	lw	x16,0(x24)
     320:	004c0c13          	addi	x24,x24,4
  RVTEST_TESTDATA_LOAD_INT(x24, x14) # load rs2: x14 = 0x546b4b11
     324:	000c2703          	lw	x14,0(x24)
     328:	004c0c13          	addi	x24,x24,4

0000032c <I_sll_cg_cp_rs1_b16>:
I_sll_cg_cp_rs1_b16:
  sll x13, x16, x14 # perform operation
     32c:	00e816b3          	sll	x13,x16,x14
  # Check if x13 contains the expected result. x26 is the signature ptr, x8 is the link ptr, x7 is a temp reg.
  RVTEST_SIGUPD(x26, x8, x7, x13, I_sll_cg_cp_rs1_b16, I_sll_cg_cp_rs1_b16_str)
     330:	000d2383          	lw	x7,0(x26)
     334:	00d38863          	beq	x7,x13,344 <I_sll_cg_cp_rs1_b16+0x18>
     338:	19c0446f          	jal	x8,44d4 <failedtest_x8_x7>
     33c:	0000032c          	.word	0x0000032c
     340:	0000902d          	.word	0x0000902d
     344:	004d0d13          	addi	x26,x26,4

# Testcase cp_rs1 (Test source rs1 = x17)
  RVTEST_TESTDATA_LOAD_INT(x24, x17) # load rs1: x17 = 0x219ba42e
     348:	000c2883          	lw	x17,0(x24)
     34c:	004c0c13          	addi	x24,x24,4
  RVTEST_TESTDATA_LOAD_INT(x24, x13) # load rs2: x13 = 0x5d5e023a
     350:	000c2683          	lw	x13,0(x24)
     354:	004c0c13          	addi	x24,x24,4

00000358 <I_sll_cg_cp_rs1_b17>:
I_sll_cg_cp_rs1_b17:
  sll x18, x17, x13 # perform operation
     358:	00d89933          	sll	x18,x17,x13
  # Check if x18 contains the expected result. x26 is the signature ptr, x8 is the link ptr, x7 is a temp reg.
  RVTEST_SIGUPD(x26, x8, x7, x18, I_sll_cg_cp_rs1_b17, I_sll_cg_cp_rs1_b17_str)
     35c:	000d2383          	lw	x7,0(x26)
     360:	01238863          	beq	x7,x18,370 <I_sll_cg_cp_rs1_b17+0x18>
     364:	1700446f          	jal	x8,44d4 <failedtest_x8_x7>
     368:	00000358          	.word	0x00000358
     36c:	0000905c          	.word	0x0000905c
     370:	004d0d13          	addi	x26,x26,4

# Testcase cp_rs1 (Test source rs1 = x18)
  RVTEST_TESTDATA_LOAD_INT(x24, x18) # load rs1: x18 = 0x2e8af9fa
     374:	000c2903          	lw	x18,0(x24)
     378:	004c0c13          	addi	x24,x24,4
  RVTEST_TESTDATA_LOAD_INT(x24, x21) # load rs2: x21 = 0x9cfe18d6
     37c:	000c2a83          	lw	x21,0(x24)
     380:	004c0c13          	addi	x24,x24,4

00000384 <I_sll_cg_cp_rs1_b18>:
I_sll_cg_cp_rs1_b18:
  sll x19, x18, x21 # perform operation
     384:	015919b3          	sll	x19,x18,x21
  # Check if x19 contains the expected result. x26 is the signature ptr, x8 is the link ptr, x7 is a temp reg.
  RVTEST_SIGUPD(x26, x8, x7, x19, I_sll_cg_cp_rs1_b18, I_sll_cg_cp_rs1_b18_str)
     388:	000d2383          	lw	x7,0(x26)
     38c:	01338863          	beq	x7,x19,39c <I_sll_cg_cp_rs1_b18+0x18>
     390:	1440446f          	jal	x8,44d4 <failedtest_x8_x7>
     394:	00000384          	.word	0x00000384
     398:	0000908b          	.word	0x0000908b
     39c:	004d0d13          	addi	x26,x26,4

# Testcase cp_rs1 (Test source rs1 = x19)
  RVTEST_TESTDATA_LOAD_INT(x24, x19) # load rs1: x19 = 0x6917f0d6
     3a0:	000c2983          	lw	x19,0(x24)
     3a4:	004c0c13          	addi	x24,x24,4
  RVTEST_TESTDATA_LOAD_INT(x24, x27) # load rs2: x27 = 0xb09c207a
     3a8:	000c2d83          	lw	x27,0(x24)
     3ac:	004c0c13          	addi	x24,x24,4

000003b0 <I_sll_cg_cp_rs1_b19>:
I_sll_cg_cp_rs1_b19:
  sll x29, x19, x27 # perform operation
     3b0:	01b99eb3          	sll	x29,x19,x27
  # Check if x29 contains the expected result. x26 is the signature ptr, x8 is the link ptr, x7 is a temp reg.
  RVTEST_SIGUPD(x26, x8, x7, x29, I_sll_cg_cp_rs1_b19, I_sll_cg_cp_rs1_b19_str)
     3b4:	000d2383          	lw	x7,0(x26)
     3b8:	01d38863          	beq	x7,x29,3c8 <I_sll_cg_cp_rs1_b19+0x18>
     3bc:	1180446f          	jal	x8,44d4 <failedtest_x8_x7>
     3c0:	000003b0          	.word	0x000003b0
     3c4:	000090ba          	.word	0x000090ba
     3c8:	004d0d13          	addi	x26,x26,4

# Testcase cp_rs1 (Test source rs1 = x20)
  RVTEST_TESTDATA_LOAD_INT(x24, x20) # load rs1: x20 = 0x7e4ac76b
     3cc:	000c2a03          	lw	x20,0(x24)
     3d0:	004c0c13          	addi	x24,x24,4
  RVTEST_TESTDATA_LOAD_INT(x24, x11) # load rs2: x11 = 0xa87ae933
     3d4:	000c2583          	lw	x11,0(x24)
     3d8:	004c0c13          	addi	x24,x24,4

000003dc <I_sll_cg_cp_rs1_b20>:
I_sll_cg_cp_rs1_b20:
  sll x17, x20, x11 # perform operation
     3dc:	00ba18b3          	sll	x17,x20,x11
  # Check if x17 contains the expected result. x26 is the signature ptr, x8 is the link ptr, x7 is a temp reg.
  RVTEST_SIGUPD(x26, x8, x7, x17, I_sll_cg_cp_rs1_b20, I_sll_cg_cp_rs1_b20_str)
     3e0:	000d2383          	lw	x7,0(x26)
     3e4:	01138863          	beq	x7,x17,3f4 <I_sll_cg_cp_rs1_b20+0x18>
     3e8:	0ec0446f          	jal	x8,44d4 <failedtest_x8_x7>
     3ec:	000003dc          	.word	0x000003dc
     3f0:	000090e9          	.word	0x000090e9
     3f4:	004d0d13          	addi	x26,x26,4

# Testcase cp_rs1 (Test source rs1 = x21)
  RVTEST_TESTDATA_LOAD_INT(x24, x21) # load rs1: x21 = 0x9cfa9582
     3f8:	000c2a83          	lw	x21,0(x24)
     3fc:	004c0c13          	addi	x24,x24,4
  RVTEST_TESTDATA_LOAD_INT(x24, x2) # load rs2: x2 = 0x9ead7e91
     400:	000c2103          	lw	x2,0(x24)
     404:	004c0c13          	addi	x24,x24,4

00000408 <I_sll_cg_cp_rs1_b21>:
I_sll_cg_cp_rs1_b21:
  sll x9, x21, x2 # perform operation
     408:	002a94b3          	sll	x9,x21,x2
  # Check if x9 contains the expected result. x26 is the signature ptr, x8 is the link ptr, x7 is a temp reg.
  RVTEST_SIGUPD(x26, x8, x7, x9, I_sll_cg_cp_rs1_b21, I_sll_cg_cp_rs1_b21_str)
     40c:	000d2383          	lw	x7,0(x26)
     410:	00938863          	beq	x7,x9,420 <I_sll_cg_cp_rs1_b21+0x18>
     414:	0c00446f          	jal	x8,44d4 <failedtest_x8_x7>
     418:	00000408          	.word	0x00000408
     41c:	00009118          	.word	0x00009118
     420:	004d0d13          	addi	x26,x26,4

# Testcase cp_rs1 (Test source rs1 = x22)
  RVTEST_TESTDATA_LOAD_INT(x24, x22) # load rs1: x22 = 0x4e7aae5c
     424:	000c2b03          	lw	x22,0(x24)
     428:	004c0c13          	addi	x24,x24,4
  RVTEST_TESTDATA_LOAD_INT(x24, x21) # load rs2: x21 = 0xd0652221
     42c:	000c2a83          	lw	x21,0(x24)
     430:	004c0c13          	addi	x24,x24,4

00000434 <I_sll_cg_cp_rs1_b22>:
I_sll_cg_cp_rs1_b22:
  sll x19, x22, x21 # perform operation
     434:	015b19b3          	sll	x19,x22,x21
  # Check if x19 contains the expected result. x26 is the signature ptr, x8 is the link ptr, x7 is a temp reg.
  RVTEST_SIGUPD(x26, x8, x7, x19, I_sll_cg_cp_rs1_b22, I_sll_cg_cp_rs1_b22_str)
     438:	000d2383          	lw	x7,0(x26)
     43c:	01338863          	beq	x7,x19,44c <I_sll_cg_cp_rs1_b22+0x18>
     440:	0940446f          	jal	x8,44d4 <failedtest_x8_x7>
     444:	00000434          	.word	0x00000434
     448:	00009147          	.word	0x00009147
     44c:	004d0d13          	addi	x26,x26,4

# Testcase cp_rs1 (Test source rs1 = x23)
  RVTEST_TESTDATA_LOAD_INT(x24, x23) # load rs1: x23 = 0x264f70d6
     450:	000c2b83          	lw	x23,0(x24)
     454:	004c0c13          	addi	x24,x24,4
  RVTEST_TESTDATA_LOAD_INT(x24, x0) # load rs2: x0 = 0xfc419b7d
     458:	000c2003          	lw	x0,0(x24)
     45c:	004c0c13          	addi	x24,x24,4

00000460 <I_sll_cg_cp_rs1_b23>:
I_sll_cg_cp_rs1_b23:
  sll x10, x23, x0 # perform operation
     460:	000b9533          	sll	x10,x23,x0
  # Check if x10 contains the expected result. x26 is the signature ptr, x8 is the link ptr, x7 is a temp reg.
  RVTEST_SIGUPD(x26, x8, x7, x10, I_sll_cg_cp_rs1_b23, I_sll_cg_cp_rs1_b23_str)
     464:	000d2383          	lw	x7,0(x26)
     468:	00a38863          	beq	x7,x10,478 <I_sll_cg_cp_rs1_b23+0x18>
     46c:	0680446f          	jal	x8,44d4 <failedtest_x8_x7>
     470:	00000460          	.word	0x00000460
     474:	00009176          	.word	0x00009176
     478:	004d0d13          	addi	x26,x26,4

  mv x25, x24 # switch data pointer register to avoid conflict with test
     47c:	000c0c93          	addi	x25,x24,0
# Testcase cp_rs1 (Test source rs1 = x24)
  RVTEST_TESTDATA_LOAD_INT(x25, x24) # load rs1: x24 = 0xf6f5272a
     480:	000cac03          	lw	x24,0(x25)
     484:	004c8c93          	addi	x25,x25,4
  RVTEST_TESTDATA_LOAD_INT(x25, x11) # load rs2: x11 = 0x06ebe42a
     488:	000ca583          	lw	x11,0(x25)
     48c:	004c8c93          	addi	x25,x25,4

00000490 <I_sll_cg_cp_rs1_b24>:
I_sll_cg_cp_rs1_b24:
  sll x23, x24, x11 # perform operation
     490:	00bc1bb3          	sll	x23,x24,x11
  # Check if x23 contains the expected result. x26 is the signature ptr, x8 is the link ptr, x7 is a temp reg.
  RVTEST_SIGUPD(x26, x8, x7, x23, I_sll_cg_cp_rs1_b24, I_sll_cg_cp_rs1_b24_str)
     494:	000d2383          	lw	x7,0(x26)
     498:	01738863          	beq	x7,x23,4a8 <I_sll_cg_cp_rs1_b24+0x18>
     49c:	0380446f          	jal	x8,44d4 <failedtest_x8_x7>
     4a0:	00000490          	.word	0x00000490
     4a4:	000091a5          	.word	0x000091a5
     4a8:	004d0d13          	addi	x26,x26,4

  mv x6, x25 # switch data pointer register to avoid conflict with test
     4ac:	000c8313          	addi	x6,x25,0
# Testcase cp_rs1 (Test source rs1 = x25)
  RVTEST_TESTDATA_LOAD_INT(x6, x25) # load rs1: x25 = 0x60c3a560
     4b0:	00032c83          	lw	x25,0(x6)
     4b4:	00430313          	addi	x6,x6,4
  RVTEST_TESTDATA_LOAD_INT(x6, x23) # load rs2: x23 = 0xa90b93e2
     4b8:	00032b83          	lw	x23,0(x6)
     4bc:	00430313          	addi	x6,x6,4

000004c0 <I_sll_cg_cp_rs1_b25>:
I_sll_cg_cp_rs1_b25:
  sll x11, x25, x23 # perform operation
     4c0:	017c95b3          	sll	x11,x25,x23
  # Check if x11 contains the expected result. x26 is the signature ptr, x8 is the link ptr, x7 is a temp reg.
  RVTEST_SIGUPD(x26, x8, x7, x11, I_sll_cg_cp_rs1_b25, I_sll_cg_cp_rs1_b25_str)
     4c4:	000d2383          	lw	x7,0(x26)
     4c8:	00b38863          	beq	x7,x11,4d8 <I_sll_cg_cp_rs1_b25+0x18>
     4cc:	0080446f          	jal	x8,44d4 <failedtest_x8_x7>
     4d0:	000004c0          	.word	0x000004c0
     4d4:	000091d4          	.word	0x000091d4
     4d8:	004d0d13          	addi	x26,x26,4

  mv x23, x26 # switch signature pointer register to avoid conflict with test
     4dc:	000d0b93          	addi	x23,x26,0
# Testcase cp_rs1 (Test source rs1 = x26)
  RVTEST_TESTDATA_LOAD_INT(x6, x26) # load rs1: x26 = 0xc5eff521
     4e0:	00032d03          	lw	x26,0(x6)
     4e4:	00430313          	addi	x6,x6,4
  RVTEST_TESTDATA_LOAD_INT(x6, x16) # load rs2: x16 = 0x6a1f4e68
     4e8:	00032803          	lw	x16,0(x6)
     4ec:	00430313          	addi	x6,x6,4

000004f0 <I_sll_cg_cp_rs1_b26>:
I_sll_cg_cp_rs1_b26:
  sll x24, x26, x16 # perform operation
     4f0:	010d1c33          	sll	x24,x26,x16
  # Check if x24 contains the expected result. x23 is the signature ptr, x8 is the link ptr, x7 is a temp reg.
  RVTEST_SIGUPD(x23, x8, x7, x24, I_sll_cg_cp_rs1_b26, I_sll_cg_cp_rs1_b26_str)
     4f4:	000ba383          	lw	x7,0(x23)
     4f8:	01838863          	beq	x7,x24,508 <I_sll_cg_cp_rs1_b26+0x18>
     4fc:	7d90346f          	jal	x8,44d4 <failedtest_x8_x7>
     500:	000004f0          	.word	0x000004f0
     504:	00009203          	.word	0x00009203
     508:	004b8b93          	addi	x23,x23,4

# Testcase cp_rs1 (Test source rs1 = x27)
  RVTEST_TESTDATA_LOAD_INT(x6, x27) # load rs1: x27 = 0x98372430
     50c:	00032d83          	lw	x27,0(x6)
     510:	00430313          	addi	x6,x6,4
  RVTEST_TESTDATA_LOAD_INT(x6, x5) # load rs2: x5 = 0x2c9446a0
     514:	00032283          	lw	x5,0(x6)
     518:	00430313          	addi	x6,x6,4

0000051c <I_sll_cg_cp_rs1_b27>:
I_sll_cg_cp_rs1_b27:
  sll x9, x27, x5 # perform operation
     51c:	005d94b3          	sll	x9,x27,x5
  # Check if x9 contains the expected result. x23 is the signature ptr, x8 is the link ptr, x7 is a temp reg.
  RVTEST_SIGUPD(x23, x8, x7, x9, I_sll_cg_cp_rs1_b27, I_sll_cg_cp_rs1_b27_str)
     520:	000ba383          	lw	x7,0(x23)
     524:	00938863          	beq	x7,x9,534 <I_sll_cg_cp_rs1_b27+0x18>
     528:	7ad0346f          	jal	x8,44d4 <failedtest_x8_x7>
     52c:	0000051c          	.word	0x0000051c
     530:	00009232          	.word	0x00009232
     534:	004b8b93          	addi	x23,x23,4

# Testcase cp_rs1 (Test source rs1 = x28)
  RVTEST_TESTDATA_LOAD_INT(x6, x28) # load rs1: x28 = 0xbc5ee4d8
     538:	00032e03          	lw	x28,0(x6)
     53c:	00430313          	addi	x6,x6,4
  RVTEST_TESTDATA_LOAD_INT(x6, x19) # load rs2: x19 = 0x1464e2ed
     540:	00032983          	lw	x19,0(x6)
     544:	00430313          	addi	x6,x6,4

00000548 <I_sll_cg_cp_rs1_b28>:
I_sll_cg_cp_rs1_b28:
  sll x25, x28, x19 # perform operation
     548:	013e1cb3          	sll	x25,x28,x19
  # Check if x25 contains the expected result. x23 is the signature ptr, x8 is the link ptr, x7 is a temp reg.
  RVTEST_SIGUPD(x23, x8, x7, x25, I_sll_cg_cp_rs1_b28, I_sll_cg_cp_rs1_b28_str)
     54c:	000ba383          	lw	x7,0(x23)
     550:	01938863          	beq	x7,x25,560 <I_sll_cg_cp_rs1_b28+0x18>
     554:	7810346f          	jal	x8,44d4 <failedtest_x8_x7>
     558:	00000548          	.word	0x00000548
     55c:	00009261          	.word	0x00009261
     560:	004b8b93          	addi	x23,x23,4

# Testcase cp_rs1 (Test source rs1 = x29)
  RVTEST_TESTDATA_LOAD_INT(x6, x29) # load rs1: x29 = 0x02e76a64
     564:	00032e83          	lw	x29,0(x6)
     568:	00430313          	addi	x6,x6,4
  RVTEST_TESTDATA_LOAD_INT(x6, x26) # load rs2: x26 = 0x7baa1e88
     56c:	00032d03          	lw	x26,0(x6)
     570:	00430313          	addi	x6,x6,4

00000574 <I_sll_cg_cp_rs1_b29>:
I_sll_cg_cp_rs1_b29:
  sll x2, x29, x26 # perform operation
     574:	01ae9133          	sll	x2,x29,x26
  # Check if x2 contains the expected result. x23 is the signature ptr, x8 is the link ptr, x7 is a temp reg.
  RVTEST_SIGUPD(x23, x8, x7, x2, I_sll_cg_cp_rs1_b29, I_sll_cg_cp_rs1_b29_str)
     578:	000ba383          	lw	x7,0(x23)
     57c:	00238863          	beq	x7,x2,58c <I_sll_cg_cp_rs1_b29+0x18>
     580:	7550346f          	jal	x8,44d4 <failedtest_x8_x7>
     584:	00000574          	.word	0x00000574
     588:	00009290          	.word	0x00009290
     58c:	004b8b93          	addi	x23,x23,4

# Testcase cp_rs1 (Test source rs1 = x30)
  RVTEST_TESTDATA_LOAD_INT(x6, x30) # load rs1: x30 = 0x52a8cd50
     590:	00032f03          	lw	x30,0(x6)
     594:	00430313          	addi	x6,x6,4
  RVTEST_TESTDATA_LOAD_INT(x6, x17) # load rs2: x17 = 0x09662f46
     598:	00032883          	lw	x17,0(x6)
     59c:	00430313          	addi	x6,x6,4

000005a0 <I_sll_cg_cp_rs1_b30>:
I_sll_cg_cp_rs1_b30:
  sll x19, x30, x17 # perform operation
     5a0:	011f19b3          	sll	x19,x30,x17
  # Check if x19 contains the expected result. x23 is the signature ptr, x8 is the link ptr, x7 is a temp reg.
  RVTEST_SIGUPD(x23, x8, x7, x19, I_sll_cg_cp_rs1_b30, I_sll_cg_cp_rs1_b30_str)
     5a4:	000ba383          	lw	x7,0(x23)
     5a8:	01338863          	beq	x7,x19,5b8 <I_sll_cg_cp_rs1_b30+0x18>
     5ac:	7290346f          	jal	x8,44d4 <failedtest_x8_x7>
     5b0:	000005a0          	.word	0x000005a0
     5b4:	000092bf          	.word	0x000092bf
     5b8:	004b8b93          	addi	x23,x23,4

# Testcase cp_rs1 (Test source rs1 = x31)
  RVTEST_TESTDATA_LOAD_INT(x6, x31) # load rs1: x31 = 0x24bcd673
     5bc:	00032f83          	lw	x31,0(x6)
     5c0:	00430313          	addi	x6,x6,4
  RVTEST_TESTDATA_LOAD_INT(x6, x13) # load rs2: x13 = 0x3a6e35df
     5c4:	00032683          	lw	x13,0(x6)
     5c8:	00430313          	addi	x6,x6,4

000005cc <I_sll_cg_cp_rs1_b31>:
I_sll_cg_cp_rs1_b31:
  sll x5, x31, x13 # perform operation
     5cc:	00df92b3          	sll	x5,x31,x13
  # Check if x5 contains the expected result. x23 is the signature ptr, x8 is the link ptr, x7 is a temp reg.
  RVTEST_SIGUPD(x23, x8, x7, x5, I_sll_cg_cp_rs1_b31, I_sll_cg_cp_rs1_b31_str)
     5d0:	000ba383          	lw	x7,0(x23)
     5d4:	00538863          	beq	x7,x5,5e4 <I_sll_cg_cp_rs1_b31+0x18>
     5d8:	6fd0346f          	jal	x8,44d4 <failedtest_x8_x7>
     5dc:	000005cc          	.word	0x000005cc
     5e0:	000092ee          	.word	0x000092ee
     5e4:	004b8b93          	addi	x23,x23,4
/////////////////////////////////
// cp_rs2
/////////////////////////////////

# Testcase cp_rs2 (Test source rs2 = x0)
  RVTEST_TESTDATA_LOAD_INT(x6, x5) # load rs1: x5 = 0xe09180e9
     5e8:	00032283          	lw	x5,0(x6)
     5ec:	00430313          	addi	x6,x6,4
  RVTEST_TESTDATA_LOAD_INT(x6, x0) # load rs2: x0 = 0x3ed5f949
     5f0:	00032003          	lw	x0,0(x6)
     5f4:	00430313          	addi	x6,x6,4

000005f8 <I_sll_cg_cp_rs2_b0>:
I_sll_cg_cp_rs2_b0:
  sll x28, x5, x0 # perform operation
     5f8:	00029e33          	sll	x28,x5,x0
  # Check if x28 contains the expected result. x23 is the signature ptr, x8 is the link ptr, x7 is a temp reg.
  RVTEST_SIGUPD(x23, x8, x7, x28, I_sll_cg_cp_rs2_b0, I_sll_cg_cp_rs2_b0_str)
     5fc:	000ba383          	lw	x7,0(x23)
     600:	01c38863          	beq	x7,x28,610 <I_sll_cg_cp_rs2_b0+0x18>
     604:	6d10346f          	jal	x8,44d4 <failedtest_x8_x7>
     608:	000005f8          	.word	0x000005f8
     60c:	0000931d          	.word	0x0000931d
     610:	004b8b93          	addi	x23,x23,4

# Testcase cp_rs2 (Test source rs2 = x1)
  RVTEST_TESTDATA_LOAD_INT(x6, x10) # load rs1: x10 = 0xbe941c41
     614:	00032503          	lw	x10,0(x6)
     618:	00430313          	addi	x6,x6,4
  RVTEST_TESTDATA_LOAD_INT(x6, x1) # load rs2: x1 = 0xb1bcb3c2
     61c:	00032083          	lw	x1,0(x6)
     620:	00430313          	addi	x6,x6,4

00000624 <I_sll_cg_cp_rs2_b1>:
I_sll_cg_cp_rs2_b1:
  sll x26, x10, x1 # perform operation
     624:	00151d33          	sll	x26,x10,x1
  # Check if x26 contains the expected result. x23 is the signature ptr, x8 is the link ptr, x7 is a temp reg.
  RVTEST_SIGUPD(x23, x8, x7, x26, I_sll_cg_cp_rs2_b1, I_sll_cg_cp_rs2_b1_str)
     628:	000ba383          	lw	x7,0(x23)
     62c:	01a38863          	beq	x7,x26,63c <I_sll_cg_cp_rs2_b1+0x18>
     630:	6a50346f          	jal	x8,44d4 <failedtest_x8_x7>
     634:	00000624          	.word	0x00000624
     638:	0000934b          	.word	0x0000934b
     63c:	004b8b93          	addi	x23,x23,4

# Testcase cp_rs2 (Test source rs2 = x2)
  RVTEST_TESTDATA_LOAD_INT(x6, x26) # load rs1: x26 = 0x8df135bf
     640:	00032d03          	lw	x26,0(x6)
     644:	00430313          	addi	x6,x6,4
  RVTEST_TESTDATA_LOAD_INT(x6, x2) # load rs2: x2 = 0x088317b4
     648:	00032103          	lw	x2,0(x6)
     64c:	00430313          	addi	x6,x6,4

00000650 <I_sll_cg_cp_rs2_b2>:
I_sll_cg_cp_rs2_b2:
  sll x4, x26, x2 # perform operation
     650:	002d1233          	sll	x4,x26,x2
  # Check if x4 contains the expected result. x23 is the signature ptr, x8 is the link ptr, x7 is a temp reg.
  RVTEST_SIGUPD(x23, x8, x7, x4, I_sll_cg_cp_rs2_b2, I_sll_cg_cp_rs2_b2_str)
     654:	000ba383          	lw	x7,0(x23)
     658:	00438863          	beq	x7,x4,668 <I_sll_cg_cp_rs2_b2+0x18>
     65c:	6790346f          	jal	x8,44d4 <failedtest_x8_x7>
     660:	00000650          	.word	0x00000650
     664:	00009379          	.word	0x00009379
     668:	004b8b93          	addi	x23,x23,4

# Testcase cp_rs2 (Test source rs2 = x3)
  RVTEST_TESTDATA_LOAD_INT(x6, x10) # load rs1: x10 = 0xb264fb06
     66c:	00032503          	lw	x10,0(x6)
     670:	00430313          	addi	x6,x6,4
  RVTEST_TESTDATA_LOAD_INT(x6, x3) # load rs2: x3 = 0x9bacc1c4
     674:	00032183          	lw	x3,0(x6)
     678:	00430313          	addi	x6,x6,4

0000067c <I_sll_cg_cp_rs2_b3>:
I_sll_cg_cp_rs2_b3:
  sll x17, x10, x3 # perform operation
     67c:	003518b3          	sll	x17,x10,x3
  # Check if x17 contains the expected result. x23 is the signature ptr, x8 is the link ptr, x7 is a temp reg.
  RVTEST_SIGUPD(x23, x8, x7, x17, I_sll_cg_cp_rs2_b3, I_sll_cg_cp_rs2_b3_str)
     680:	000ba383          	lw	x7,0(x23)
     684:	01138863          	beq	x7,x17,694 <I_sll_cg_cp_rs2_b3+0x18>
     688:	64d0346f          	jal	x8,44d4 <failedtest_x8_x7>
     68c:	0000067c          	.word	0x0000067c
     690:	000093a7          	.word	0x000093a7
     694:	004b8b93          	addi	x23,x23,4

# Testcase cp_rs2 (Test source rs2 = x4)
  RVTEST_TESTDATA_LOAD_INT(x6, x27) # load rs1: x27 = 0xd07867f9
     698:	00032d83          	lw	x27,0(x6)
     69c:	00430313          	addi	x6,x6,4
  RVTEST_TESTDATA_LOAD_INT(x6, x4) # load rs2: x4 = 0x65d21955
     6a0:	00032203          	lw	x4,0(x6)
     6a4:	00430313          	addi	x6,x6,4

000006a8 <I_sll_cg_cp_rs2_b4>:
I_sll_cg_cp_rs2_b4:
  sll x3, x27, x4 # perform operation
     6a8:	004d91b3          	sll	x3,x27,x4
  # Check if x3 contains the expected result. x23 is the signature ptr, x8 is the link ptr, x7 is a temp reg.
  RVTEST_SIGUPD(x23, x8, x7, x3, I_sll_cg_cp_rs2_b4, I_sll_cg_cp_rs2_b4_str)
     6ac:	000ba383          	lw	x7,0(x23)
     6b0:	00338863          	beq	x7,x3,6c0 <I_sll_cg_cp_rs2_b4+0x18>
     6b4:	6210346f          	jal	x8,44d4 <failedtest_x8_x7>
     6b8:	000006a8          	.word	0x000006a8
     6bc:	000093d5          	.word	0x000093d5
     6c0:	004b8b93          	addi	x23,x23,4

# Testcase cp_rs2 (Test source rs2 = x5)
  RVTEST_TESTDATA_LOAD_INT(x6, x31) # load rs1: x31 = 0x8ed15ab4
     6c4:	00032f83          	lw	x31,0(x6)
     6c8:	00430313          	addi	x6,x6,4
  RVTEST_TESTDATA_LOAD_INT(x6, x5) # load rs2: x5 = 0x852c4fc2
     6cc:	00032283          	lw	x5,0(x6)
     6d0:	00430313          	addi	x6,x6,4

000006d4 <I_sll_cg_cp_rs2_b5>:
I_sll_cg_cp_rs2_b5:
  sll x13, x31, x5 # perform operation
     6d4:	005f96b3          	sll	x13,x31,x5
  # Check if x13 contains the expected result. x23 is the signature ptr, x8 is the link ptr, x7 is a temp reg.
  RVTEST_SIGUPD(x23, x8, x7, x13, I_sll_cg_cp_rs2_b5, I_sll_cg_cp_rs2_b5_str)
     6d8:	000ba383          	lw	x7,0(x23)
     6dc:	00d38863          	beq	x7,x13,6ec <I_sll_cg_cp_rs2_b5+0x18>
     6e0:	5f50346f          	jal	x8,44d4 <failedtest_x8_x7>
     6e4:	000006d4          	.word	0x000006d4
     6e8:	00009403          	.word	0x00009403
     6ec:	004b8b93          	addi	x23,x23,4

  mv x11, x6 # switch data pointer register to avoid conflict with test
     6f0:	00030593          	addi	x11,x6,0
# Testcase cp_rs2 (Test source rs2 = x6)
  RVTEST_TESTDATA_LOAD_INT(x11, x31) # load rs1: x31 = 0x56ed988a
     6f4:	0005af83          	lw	x31,0(x11)
     6f8:	00458593          	addi	x11,x11,4
  RVTEST_TESTDATA_LOAD_INT(x11, x6) # load rs2: x6 = 0xa9fc0cc1
     6fc:	0005a303          	lw	x6,0(x11)
     700:	00458593          	addi	x11,x11,4

00000704 <I_sll_cg_cp_rs2_b6>:
I_sll_cg_cp_rs2_b6:
  sll x15, x31, x6 # perform operation
     704:	006f97b3          	sll	x15,x31,x6
  # Check if x15 contains the expected result. x23 is the signature ptr, x8 is the link ptr, x7 is a temp reg.
  RVTEST_SIGUPD(x23, x8, x7, x15, I_sll_cg_cp_rs2_b6, I_sll_cg_cp_rs2_b6_str)
     708:	000ba383          	lw	x7,0(x23)
     70c:	00f38863          	beq	x7,x15,71c <I_sll_cg_cp_rs2_b6+0x18>
     710:	5c50346f          	jal	x8,44d4 <failedtest_x8_x7>
     714:	00000704          	.word	0x00000704
     718:	00009431          	.word	0x00009431
     71c:	004b8b93          	addi	x23,x23,4

  mv x4, x7 # switch temp register to avoid conflict with test
     720:	00038213          	addi	x4,x7,0
  mv x5, x8 # switch link pointer register to avoid conflict with test
     724:	00040293          	addi	x5,x8,0
# Testcase cp_rs2 (Test source rs2 = x7)
  RVTEST_TESTDATA_LOAD_INT(x11, x22) # load rs1: x22 = 0x447a3f26
     728:	0005ab03          	lw	x22,0(x11)
     72c:	00458593          	addi	x11,x11,4
  RVTEST_TESTDATA_LOAD_INT(x11, x7) # load rs2: x7 = 0x3521b414
     730:	0005a383          	lw	x7,0(x11)
     734:	00458593          	addi	x11,x11,4

00000738 <I_sll_cg_cp_rs2_b7>:
I_sll_cg_cp_rs2_b7:
  sll x25, x22, x7 # perform operation
     738:	007b1cb3          	sll	x25,x22,x7
  # Check if x25 contains the expected result. x23 is the signature ptr, x5 is the link ptr, x4 is a temp reg.
  RVTEST_SIGUPD(x23, x5, x4, x25, I_sll_cg_cp_rs2_b7, I_sll_cg_cp_rs2_b7_str)
     73c:	000ba203          	lw	x4,0(x23)
     740:	01920863          	beq	x4,x25,750 <I_sll_cg_cp_rs2_b7+0x18>
     744:	579032ef          	jal	x5,44bc <failedtest_x5_x4>
     748:	00000738          	.word	0x00000738
     74c:	0000945f          	.word	0x0000945f
     750:	004b8b93          	addi	x23,x23,4

# Testcase cp_rs2 (Test source rs2 = x8)
  RVTEST_TESTDATA_LOAD_INT(x11, x19) # load rs1: x19 = 0x18a445bc
     754:	0005a983          	lw	x19,0(x11)
     758:	00458593          	addi	x11,x11,4
  RVTEST_TESTDATA_LOAD_INT(x11, x8) # load rs2: x8 = 0xceee53fa
     75c:	0005a403          	lw	x8,0(x11)
     760:	00458593          	addi	x11,x11,4

00000764 <I_sll_cg_cp_rs2_b8>:
I_sll_cg_cp_rs2_b8:
  sll x18, x19, x8 # perform operation
     764:	00899933          	sll	x18,x19,x8
  # Check if x18 contains the expected result. x23 is the signature ptr, x5 is the link ptr, x4 is a temp reg.
  RVTEST_SIGUPD(x23, x5, x4, x18, I_sll_cg_cp_rs2_b8, I_sll_cg_cp_rs2_b8_str)
     768:	000ba203          	lw	x4,0(x23)
     76c:	01220863          	beq	x4,x18,77c <I_sll_cg_cp_rs2_b8+0x18>
     770:	54d032ef          	jal	x5,44bc <failedtest_x5_x4>
     774:	00000764          	.word	0x00000764
     778:	0000948d          	.word	0x0000948d
     77c:	004b8b93          	addi	x23,x23,4

# Testcase cp_rs2 (Test source rs2 = x9)
  RVTEST_TESTDATA_LOAD_INT(x11, x24) # load rs1: x24 = 0x343c4487
     780:	0005ac03          	lw	x24,0(x11)
     784:	00458593          	addi	x11,x11,4
  RVTEST_TESTDATA_LOAD_INT(x11, x9) # load rs2: x9 = 0x17f8ac71
     788:	0005a483          	lw	x9,0(x11)
     78c:	00458593          	addi	x11,x11,4

00000790 <I_sll_cg_cp_rs2_b9>:
I_sll_cg_cp_rs2_b9:
  sll x20, x24, x9 # perform operation
     790:	009c1a33          	sll	x20,x24,x9
  # Check if x20 contains the expected result. x23 is the signature ptr, x5 is the link ptr, x4 is a temp reg.
  RVTEST_SIGUPD(x23, x5, x4, x20, I_sll_cg_cp_rs2_b9, I_sll_cg_cp_rs2_b9_str)
     794:	000ba203          	lw	x4,0(x23)
     798:	01420863          	beq	x4,x20,7a8 <I_sll_cg_cp_rs2_b9+0x18>
     79c:	521032ef          	jal	x5,44bc <failedtest_x5_x4>
     7a0:	00000790          	.word	0x00000790
     7a4:	000094bb          	.word	0x000094bb
     7a8:	004b8b93          	addi	x23,x23,4

# Testcase cp_rs2 (Test source rs2 = x10)
  RVTEST_TESTDATA_LOAD_INT(x11, x13) # load rs1: x13 = 0x2412d068
     7ac:	0005a683          	lw	x13,0(x11)
     7b0:	00458593          	addi	x11,x11,4
  RVTEST_TESTDATA_LOAD_INT(x11, x10) # load rs2: x10 = 0x8d96d310
     7b4:	0005a503          	lw	x10,0(x11)
     7b8:	00458593          	addi	x11,x11,4

000007bc <I_sll_cg_cp_rs2_b10>:
I_sll_cg_cp_rs2_b10:
  sll x9, x13, x10 # perform operation
     7bc:	00a694b3          	sll	x9,x13,x10
  # Check if x9 contains the expected result. x23 is the signature ptr, x5 is the link ptr, x4 is a temp reg.
  RVTEST_SIGUPD(x23, x5, x4, x9, I_sll_cg_cp_rs2_b10, I_sll_cg_cp_rs2_b10_str)
     7c0:	000ba203          	lw	x4,0(x23)
     7c4:	00920863          	beq	x4,x9,7d4 <I_sll_cg_cp_rs2_b10+0x18>
     7c8:	4f5032ef          	jal	x5,44bc <failedtest_x5_x4>
     7cc:	000007bc          	.word	0x000007bc
     7d0:	000094e9          	.word	0x000094e9
     7d4:	004b8b93          	addi	x23,x23,4

  mv x2, x11 # switch data pointer register to avoid conflict with test
     7d8:	00058113          	addi	x2,x11,0
# Testcase cp_rs2 (Test source rs2 = x11)
  RVTEST_TESTDATA_LOAD_INT(x2, x13) # load rs1: x13 = 0x3b29e5bb
     7dc:	00012683          	lw	x13,0(x2)
     7e0:	00410113          	addi	x2,x2,4
  RVTEST_TESTDATA_LOAD_INT(x2, x11) # load rs2: x11 = 0x88edda5a
     7e4:	00012583          	lw	x11,0(x2)
     7e8:	00410113          	addi	x2,x2,4

000007ec <I_sll_cg_cp_rs2_b11>:
I_sll_cg_cp_rs2_b11:
  sll x3, x13, x11 # perform operation
     7ec:	00b691b3          	sll	x3,x13,x11
  # Check if x3 contains the expected result. x23 is the signature ptr, x5 is the link ptr, x4 is a temp reg.
  RVTEST_SIGUPD(x23, x5, x4, x3, I_sll_cg_cp_rs2_b11, I_sll_cg_cp_rs2_b11_str)
     7f0:	000ba203          	lw	x4,0(x23)
     7f4:	00320863          	beq	x4,x3,804 <I_sll_cg_cp_rs2_b11+0x18>
     7f8:	4c5032ef          	jal	x5,44bc <failedtest_x5_x4>
     7fc:	000007ec          	.word	0x000007ec
     800:	00009518          	.word	0x00009518
     804:	004b8b93          	addi	x23,x23,4

# Testcase cp_rs2 (Test source rs2 = x12)
  RVTEST_TESTDATA_LOAD_INT(x2, x9) # load rs1: x9 = 0x0ff7f256
     808:	00012483          	lw	x9,0(x2)
     80c:	00410113          	addi	x2,x2,4
  RVTEST_TESTDATA_LOAD_INT(x2, x12) # load rs2: x12 = 0x97eccb5c
     810:	00012603          	lw	x12,0(x2)
     814:	00410113          	addi	x2,x2,4

00000818 <I_sll_cg_cp_rs2_b12>:
I_sll_cg_cp_rs2_b12:
  sll x29, x9, x12 # perform operation
     818:	00c49eb3          	sll	x29,x9,x12
  # Check if x29 contains the expected result. x23 is the signature ptr, x5 is the link ptr, x4 is a temp reg.
  RVTEST_SIGUPD(x23, x5, x4, x29, I_sll_cg_cp_rs2_b12, I_sll_cg_cp_rs2_b12_str)
     81c:	000ba203          	lw	x4,0(x23)
     820:	01d20863          	beq	x4,x29,830 <I_sll_cg_cp_rs2_b12+0x18>
     824:	499032ef          	jal	x5,44bc <failedtest_x5_x4>
     828:	00000818          	.word	0x00000818
     82c:	00009547          	.word	0x00009547
     830:	004b8b93          	addi	x23,x23,4

# Testcase cp_rs2 (Test source rs2 = x13)
  RVTEST_TESTDATA_LOAD_INT(x2, x8) # load rs1: x8 = 0x096fe0da
     834:	00012403          	lw	x8,0(x2)
     838:	00410113          	addi	x2,x2,4
  RVTEST_TESTDATA_LOAD_INT(x2, x13) # load rs2: x13 = 0xc37de432
     83c:	00012683          	lw	x13,0(x2)
     840:	00410113          	addi	x2,x2,4

00000844 <I_sll_cg_cp_rs2_b13>:
I_sll_cg_cp_rs2_b13:
  sll x17, x8, x13 # perform operation
     844:	00d418b3          	sll	x17,x8,x13
  # Check if x17 contains the expected result. x23 is the signature ptr, x5 is the link ptr, x4 is a temp reg.
  RVTEST_SIGUPD(x23, x5, x4, x17, I_sll_cg_cp_rs2_b13, I_sll_cg_cp_rs2_b13_str)
     848:	000ba203          	lw	x4,0(x23)
     84c:	01120863          	beq	x4,x17,85c <I_sll_cg_cp_rs2_b13+0x18>
     850:	46d032ef          	jal	x5,44bc <failedtest_x5_x4>
     854:	00000844          	.word	0x00000844
     858:	00009576          	.word	0x00009576
     85c:	004b8b93          	addi	x23,x23,4

# Testcase cp_rs2 (Test source rs2 = x14)
  RVTEST_TESTDATA_LOAD_INT(x2, x24) # load rs1: x24 = 0x11478e77
     860:	00012c03          	lw	x24,0(x2)
     864:	00410113          	addi	x2,x2,4
  RVTEST_TESTDATA_LOAD_INT(x2, x14) # load rs2: x14 = 0x185f6dc3
     868:	00012703          	lw	x14,0(x2)
     86c:	00410113          	addi	x2,x2,4

00000870 <I_sll_cg_cp_rs2_b14>:
I_sll_cg_cp_rs2_b14:
  sll x17, x24, x14 # perform operation
     870:	00ec18b3          	sll	x17,x24,x14
  # Check if x17 contains the expected result. x23 is the signature ptr, x5 is the link ptr, x4 is a temp reg.
  RVTEST_SIGUPD(x23, x5, x4, x17, I_sll_cg_cp_rs2_b14, I_sll_cg_cp_rs2_b14_str)
     874:	000ba203          	lw	x4,0(x23)
     878:	01120863          	beq	x4,x17,888 <I_sll_cg_cp_rs2_b14+0x18>
     87c:	441032ef          	jal	x5,44bc <failedtest_x5_x4>
     880:	00000870          	.word	0x00000870
     884:	000095a5          	.word	0x000095a5
     888:	004b8b93          	addi	x23,x23,4

# Testcase cp_rs2 (Test source rs2 = x15)
  RVTEST_TESTDATA_LOAD_INT(x2, x25) # load rs1: x25 = 0xe822ea08
     88c:	00012c83          	lw	x25,0(x2)
     890:	00410113          	addi	x2,x2,4
  RVTEST_TESTDATA_LOAD_INT(x2, x15) # load rs2: x15 = 0x7bb8f2eb
     894:	00012783          	lw	x15,0(x2)
     898:	00410113          	addi	x2,x2,4

0000089c <I_sll_cg_cp_rs2_b15>:
I_sll_cg_cp_rs2_b15:
  sll x26, x25, x15 # perform operation
     89c:	00fc9d33          	sll	x26,x25,x15
  # Check if x26 contains the expected result. x23 is the signature ptr, x5 is the link ptr, x4 is a temp reg.
  RVTEST_SIGUPD(x23, x5, x4, x26, I_sll_cg_cp_rs2_b15, I_sll_cg_cp_rs2_b15_str)
     8a0:	000ba203          	lw	x4,0(x23)
     8a4:	01a20863          	beq	x4,x26,8b4 <I_sll_cg_cp_rs2_b15+0x18>
     8a8:	415032ef          	jal	x5,44bc <failedtest_x5_x4>
     8ac:	0000089c          	.word	0x0000089c
     8b0:	000095d4          	.word	0x000095d4
     8b4:	004b8b93          	addi	x23,x23,4

# Testcase cp_rs2 (Test source rs2 = x16)
  RVTEST_TESTDATA_LOAD_INT(x2, x6) # load rs1: x6 = 0xb3e666d0
     8b8:	00012303          	lw	x6,0(x2)
     8bc:	00410113          	addi	x2,x2,4
  RVTEST_TESTDATA_LOAD_INT(x2, x16) # load rs2: x16 = 0x3a3070a9
     8c0:	00012803          	lw	x16,0(x2)
     8c4:	00410113          	addi	x2,x2,4

000008c8 <I_sll_cg_cp_rs2_b16>:
I_sll_cg_cp_rs2_b16:
  sll x20, x6, x16 # perform operation
     8c8:	01031a33          	sll	x20,x6,x16
  # Check if x20 contains the expected result. x23 is the signature ptr, x5 is the link ptr, x4 is a temp reg.
  RVTEST_SIGUPD(x23, x5, x4, x20, I_sll_cg_cp_rs2_b16, I_sll_cg_cp_rs2_b16_str)
     8cc:	000ba203          	lw	x4,0(x23)
     8d0:	01420863          	beq	x4,x20,8e0 <I_sll_cg_cp_rs2_b16+0x18>
     8d4:	3e9032ef          	jal	x5,44bc <failedtest_x5_x4>
     8d8:	000008c8          	.word	0x000008c8
     8dc:	00009603          	.word	0x00009603
     8e0:	004b8b93          	addi	x23,x23,4

# Testcase cp_rs2 (Test source rs2 = x17)
  RVTEST_TESTDATA_LOAD_INT(x2, x13) # load rs1: x13 = 0x62ce16fc
     8e4:	00012683          	lw	x13,0(x2)
     8e8:	00410113          	addi	x2,x2,4
  RVTEST_TESTDATA_LOAD_INT(x2, x17) # load rs2: x17 = 0xc41a8e24
     8ec:	00012883          	lw	x17,0(x2)
     8f0:	00410113          	addi	x2,x2,4

000008f4 <I_sll_cg_cp_rs2_b17>:
I_sll_cg_cp_rs2_b17:
  sll x29, x13, x17 # perform operation
     8f4:	01169eb3          	sll	x29,x13,x17
  # Check if x29 contains the expected result. x23 is the signature ptr, x5 is the link ptr, x4 is a temp reg.
  RVTEST_SIGUPD(x23, x5, x4, x29, I_sll_cg_cp_rs2_b17, I_sll_cg_cp_rs2_b17_str)
     8f8:	000ba203          	lw	x4,0(x23)
     8fc:	01d20863          	beq	x4,x29,90c <I_sll_cg_cp_rs2_b17+0x18>
     900:	3bd032ef          	jal	x5,44bc <failedtest_x5_x4>
     904:	000008f4          	.word	0x000008f4
     908:	00009632          	.word	0x00009632
     90c:	004b8b93          	addi	x23,x23,4

# Testcase cp_rs2 (Test source rs2 = x18)
  RVTEST_TESTDATA_LOAD_INT(x2, x28) # load rs1: x28 = 0xe8c70c02
     910:	00012e03          	lw	x28,0(x2)
     914:	00410113          	addi	x2,x2,4
  RVTEST_TESTDATA_LOAD_INT(x2, x18) # load rs2: x18 = 0xa99678a9
     918:	00012903          	lw	x18,0(x2)
     91c:	00410113          	addi	x2,x2,4

00000920 <I_sll_cg_cp_rs2_b18>:
I_sll_cg_cp_rs2_b18:
  sll x8, x28, x18 # perform operation
     920:	012e1433          	sll	x8,x28,x18
  # Check if x8 contains the expected result. x23 is the signature ptr, x5 is the link ptr, x4 is a temp reg.
  RVTEST_SIGUPD(x23, x5, x4, x8, I_sll_cg_cp_rs2_b18, I_sll_cg_cp_rs2_b18_str)
     924:	000ba203          	lw	x4,0(x23)
     928:	00820863          	beq	x4,x8,938 <I_sll_cg_cp_rs2_b18+0x18>
     92c:	391032ef          	jal	x5,44bc <failedtest_x5_x4>
     930:	00000920          	.word	0x00000920
     934:	00009661          	.word	0x00009661
     938:	004b8b93          	addi	x23,x23,4

# Testcase cp_rs2 (Test source rs2 = x19)
  RVTEST_TESTDATA_LOAD_INT(x2, x3) # load rs1: x3 = 0x997e3079
     93c:	00012183          	lw	x3,0(x2)
     940:	00410113          	addi	x2,x2,4
  RVTEST_TESTDATA_LOAD_INT(x2, x19) # load rs2: x19 = 0xbe866eb2
     944:	00012983          	lw	x19,0(x2)
     948:	00410113          	addi	x2,x2,4

0000094c <I_sll_cg_cp_rs2_b19>:
I_sll_cg_cp_rs2_b19:
  sll x25, x3, x19 # perform operation
     94c:	01319cb3          	sll	x25,x3,x19
  # Check if x25 contains the expected result. x23 is the signature ptr, x5 is the link ptr, x4 is a temp reg.
  RVTEST_SIGUPD(x23, x5, x4, x25, I_sll_cg_cp_rs2_b19, I_sll_cg_cp_rs2_b19_str)
     950:	000ba203          	lw	x4,0(x23)
     954:	01920863          	beq	x4,x25,964 <I_sll_cg_cp_rs2_b19+0x18>
     958:	365032ef          	jal	x5,44bc <failedtest_x5_x4>
     95c:	0000094c          	.word	0x0000094c
     960:	00009690          	.word	0x00009690
     964:	004b8b93          	addi	x23,x23,4

# Testcase cp_rs2 (Test source rs2 = x20)
  RVTEST_TESTDATA_LOAD_INT(x2, x30) # load rs1: x30 = 0x83a813a5
     968:	00012f03          	lw	x30,0(x2)
     96c:	00410113          	addi	x2,x2,4
  RVTEST_TESTDATA_LOAD_INT(x2, x20) # load rs2: x20 = 0x12696180
     970:	00012a03          	lw	x20,0(x2)
     974:	00410113          	addi	x2,x2,4

00000978 <I_sll_cg_cp_rs2_b20>:
I_sll_cg_cp_rs2_b20:
  sll x19, x30, x20 # perform operation
     978:	014f19b3          	sll	x19,x30,x20
  # Check if x19 contains the expected result. x23 is the signature ptr, x5 is the link ptr, x4 is a temp reg.
  RVTEST_SIGUPD(x23, x5, x4, x19, I_sll_cg_cp_rs2_b20, I_sll_cg_cp_rs2_b20_str)
     97c:	000ba203          	lw	x4,0(x23)
     980:	01320863          	beq	x4,x19,990 <I_sll_cg_cp_rs2_b20+0x18>
     984:	339032ef          	jal	x5,44bc <failedtest_x5_x4>
     988:	00000978          	.word	0x00000978
     98c:	000096bf          	.word	0x000096bf
     990:	004b8b93          	addi	x23,x23,4

# Testcase cp_rs2 (Test source rs2 = x21)
  RVTEST_TESTDATA_LOAD_INT(x2, x1) # load rs1: x1 = 0x9e4956da
     994:	00012083          	lw	x1,0(x2)
     998:	00410113          	addi	x2,x2,4
  RVTEST_TESTDATA_LOAD_INT(x2, x21) # load rs2: x21 = 0x7bab6609
     99c:	00012a83          	lw	x21,0(x2)
     9a0:	00410113          	addi	x2,x2,4

000009a4 <I_sll_cg_cp_rs2_b21>:
I_sll_cg_cp_rs2_b21:
  sll x22, x1, x21 # perform operation
     9a4:	01509b33          	sll	x22,x1,x21
  # Check if x22 contains the expected result. x23 is the signature ptr, x5 is the link ptr, x4 is a temp reg.
  RVTEST_SIGUPD(x23, x5, x4, x22, I_sll_cg_cp_rs2_b21, I_sll_cg_cp_rs2_b21_str)
     9a8:	000ba203          	lw	x4,0(x23)
     9ac:	01620863          	beq	x4,x22,9bc <I_sll_cg_cp_rs2_b21+0x18>
     9b0:	30d032ef          	jal	x5,44bc <failedtest_x5_x4>
     9b4:	000009a4          	.word	0x000009a4
     9b8:	000096ee          	.word	0x000096ee
     9bc:	004b8b93          	addi	x23,x23,4

# Testcase cp_rs2 (Test source rs2 = x22)
  RVTEST_TESTDATA_LOAD_INT(x2, x9) # load rs1: x9 = 0x1eda63ac
     9c0:	00012483          	lw	x9,0(x2)
     9c4:	00410113          	addi	x2,x2,4
  RVTEST_TESTDATA_LOAD_INT(x2, x22) # load rs2: x22 = 0x1c6567de
     9c8:	00012b03          	lw	x22,0(x2)
     9cc:	00410113          	addi	x2,x2,4

000009d0 <I_sll_cg_cp_rs2_b22>:
I_sll_cg_cp_rs2_b22:
  sll x31, x9, x22 # perform operation
     9d0:	01649fb3          	sll	x31,x9,x22
  # Check if x31 contains the expected result. x23 is the signature ptr, x5 is the link ptr, x4 is a temp reg.
  RVTEST_SIGUPD(x23, x5, x4, x31, I_sll_cg_cp_rs2_b22, I_sll_cg_cp_rs2_b22_str)
     9d4:	000ba203          	lw	x4,0(x23)
     9d8:	01f20863          	beq	x4,x31,9e8 <I_sll_cg_cp_rs2_b22+0x18>
     9dc:	2e1032ef          	jal	x5,44bc <failedtest_x5_x4>
     9e0:	000009d0          	.word	0x000009d0
     9e4:	0000971d          	.word	0x0000971d
     9e8:	004b8b93          	addi	x23,x23,4

  mv x20, x23 # switch signature pointer register to avoid conflict with test
     9ec:	000b8a13          	addi	x20,x23,0
# Testcase cp_rs2 (Test source rs2 = x23)
  RVTEST_TESTDATA_LOAD_INT(x2, x0) # load rs1: x0 = 0x472f1e2d
     9f0:	00012003          	lw	x0,0(x2)
     9f4:	00410113          	addi	x2,x2,4
  RVTEST_TESTDATA_LOAD_INT(x2, x23) # load rs2: x23 = 0x2912682d
     9f8:	00012b83          	lw	x23,0(x2)
     9fc:	00410113          	addi	x2,x2,4

00000a00 <I_sll_cg_cp_rs2_b23>:
I_sll_cg_cp_rs2_b23:
  sll x27, x0, x23 # perform operation
     a00:	01701db3          	sll	x27,x0,x23
  # Check if x27 contains the expected result. x20 is the signature ptr, x5 is the link ptr, x4 is a temp reg.
  RVTEST_SIGUPD(x20, x5, x4, x27, I_sll_cg_cp_rs2_b23, I_sll_cg_cp_rs2_b23_str)
     a04:	000a2203          	lw	x4,0(x20)
     a08:	01b20863          	beq	x4,x27,a18 <I_sll_cg_cp_rs2_b23+0x18>
     a0c:	2b1032ef          	jal	x5,44bc <failedtest_x5_x4>
     a10:	00000a00          	.word	0x00000a00
     a14:	0000974c          	.word	0x0000974c
     a18:	004a0a13          	addi	x20,x20,4

# Testcase cp_rs2 (Test source rs2 = x24)
  RVTEST_TESTDATA_LOAD_INT(x2, x31) # load rs1: x31 = 0x2aafa8d8
     a1c:	00012f83          	lw	x31,0(x2)
     a20:	00410113          	addi	x2,x2,4
  RVTEST_TESTDATA_LOAD_INT(x2, x24) # load rs2: x24 = 0x5022e418
     a24:	00012c03          	lw	x24,0(x2)
     a28:	00410113          	addi	x2,x2,4

00000a2c <I_sll_cg_cp_rs2_b24>:
I_sll_cg_cp_rs2_b24:
  sll x1, x31, x24 # perform operation
     a2c:	018f90b3          	sll	x1,x31,x24
  # Check if x1 contains the expected result. x20 is the signature ptr, x5 is the link ptr, x4 is a temp reg.
  RVTEST_SIGUPD(x20, x5, x4, x1, I_sll_cg_cp_rs2_b24, I_sll_cg_cp_rs2_b24_str)
     a30:	000a2203          	lw	x4,0(x20)
     a34:	00120863          	beq	x4,x1,a44 <I_sll_cg_cp_rs2_b24+0x18>
     a38:	285032ef          	jal	x5,44bc <failedtest_x5_x4>
     a3c:	00000a2c          	.word	0x00000a2c
     a40:	0000977b          	.word	0x0000977b
     a44:	004a0a13          	addi	x20,x20,4

# Testcase cp_rs2 (Test source rs2 = x25)
  RVTEST_TESTDATA_LOAD_INT(x2, x26) # load rs1: x26 = 0xe0aed8bc
     a48:	00012d03          	lw	x26,0(x2)
     a4c:	00410113          	addi	x2,x2,4
  RVTEST_TESTDATA_LOAD_INT(x2, x25) # load rs2: x25 = 0xe2bd4ae3
     a50:	00012c83          	lw	x25,0(x2)
     a54:	00410113          	addi	x2,x2,4

00000a58 <I_sll_cg_cp_rs2_b25>:
I_sll_cg_cp_rs2_b25:
  sll x21, x26, x25 # perform operation
     a58:	019d1ab3          	sll	x21,x26,x25
  # Check if x21 contains the expected result. x20 is the signature ptr, x5 is the link ptr, x4 is a temp reg.
  RVTEST_SIGUPD(x20, x5, x4, x21, I_sll_cg_cp_rs2_b25, I_sll_cg_cp_rs2_b25_str)
     a5c:	000a2203          	lw	x4,0(x20)
     a60:	01520863          	beq	x4,x21,a70 <I_sll_cg_cp_rs2_b25+0x18>
     a64:	259032ef          	jal	x5,44bc <failedtest_x5_x4>
     a68:	00000a58          	.word	0x00000a58
     a6c:	000097aa          	.word	0x000097aa
     a70:	004a0a13          	addi	x20,x20,4

# Testcase cp_rs2 (Test source rs2 = x26)
  RVTEST_TESTDATA_LOAD_INT(x2, x27) # load rs1: x27 = 0xe45a16b9
     a74:	00012d83          	lw	x27,0(x2)
     a78:	00410113          	addi	x2,x2,4
  RVTEST_TESTDATA_LOAD_INT(x2, x26) # load rs2: x26 = 0x58de3c35
     a7c:	00012d03          	lw	x26,0(x2)
     a80:	00410113          	addi	x2,x2,4

00000a84 <I_sll_cg_cp_rs2_b26>:
I_sll_cg_cp_rs2_b26:
  sll x1, x27, x26 # perform operation
     a84:	01ad90b3          	sll	x1,x27,x26
  # Check if x1 contains the expected result. x20 is the signature ptr, x5 is the link ptr, x4 is a temp reg.
  RVTEST_SIGUPD(x20, x5, x4, x1, I_sll_cg_cp_rs2_b26, I_sll_cg_cp_rs2_b26_str)
     a88:	000a2203          	lw	x4,0(x20)
     a8c:	00120863          	beq	x4,x1,a9c <I_sll_cg_cp_rs2_b26+0x18>
     a90:	22d032ef          	jal	x5,44bc <failedtest_x5_x4>
     a94:	00000a84          	.word	0x00000a84
     a98:	000097d9          	.word	0x000097d9
     a9c:	004a0a13          	addi	x20,x20,4

# Testcase cp_rs2 (Test source rs2 = x27)
  RVTEST_TESTDATA_LOAD_INT(x2, x14) # load rs1: x14 = 0xd5cd042c
     aa0:	00012703          	lw	x14,0(x2)
     aa4:	00410113          	addi	x2,x2,4
  RVTEST_TESTDATA_LOAD_INT(x2, x27) # load rs2: x27 = 0x7db7446b
     aa8:	00012d83          	lw	x27,0(x2)
     aac:	00410113          	addi	x2,x2,4

00000ab0 <I_sll_cg_cp_rs2_b27>:
I_sll_cg_cp_rs2_b27:
  sll x8, x14, x27 # perform operation
     ab0:	01b71433          	sll	x8,x14,x27
  # Check if x8 contains the expected result. x20 is the signature ptr, x5 is the link ptr, x4 is a temp reg.
  RVTEST_SIGUPD(x20, x5, x4, x8, I_sll_cg_cp_rs2_b27, I_sll_cg_cp_rs2_b27_str)
     ab4:	000a2203          	lw	x4,0(x20)
     ab8:	00820863          	beq	x4,x8,ac8 <I_sll_cg_cp_rs2_b27+0x18>
     abc:	201032ef          	jal	x5,44bc <failedtest_x5_x4>
     ac0:	00000ab0          	.word	0x00000ab0
     ac4:	00009808          	.word	0x00009808
     ac8:	004a0a13          	addi	x20,x20,4

# Testcase cp_rs2 (Test source rs2 = x28)
  RVTEST_TESTDATA_LOAD_INT(x2, x30) # load rs1: x30 = 0x610bac06
     acc:	00012f03          	lw	x30,0(x2)
     ad0:	00410113          	addi	x2,x2,4
  RVTEST_TESTDATA_LOAD_INT(x2, x28) # load rs2: x28 = 0xb80e7a2d
     ad4:	00012e03          	lw	x28,0(x2)
     ad8:	00410113          	addi	x2,x2,4

00000adc <I_sll_cg_cp_rs2_b28>:
I_sll_cg_cp_rs2_b28:
  sll x29, x30, x28 # perform operation
     adc:	01cf1eb3          	sll	x29,x30,x28
  # Check if x29 contains the expected result. x20 is the signature ptr, x5 is the link ptr, x4 is a temp reg.
  RVTEST_SIGUPD(x20, x5, x4, x29, I_sll_cg_cp_rs2_b28, I_sll_cg_cp_rs2_b28_str)
     ae0:	000a2203          	lw	x4,0(x20)
     ae4:	01d20863          	beq	x4,x29,af4 <I_sll_cg_cp_rs2_b28+0x18>
     ae8:	1d5032ef          	jal	x5,44bc <failedtest_x5_x4>
     aec:	00000adc          	.word	0x00000adc
     af0:	00009837          	.word	0x00009837
     af4:	004a0a13          	addi	x20,x20,4

# Testcase cp_rs2 (Test source rs2 = x29)
  RVTEST_TESTDATA_LOAD_INT(x2, x19) # load rs1: x19 = 0x3daa9150
     af8:	00012983          	lw	x19,0(x2)
     afc:	00410113          	addi	x2,x2,4
  RVTEST_TESTDATA_LOAD_INT(x2, x29) # load rs2: x29 = 0x63b039aa
     b00:	00012e83          	lw	x29,0(x2)
     b04:	00410113          	addi	x2,x2,4

00000b08 <I_sll_cg_cp_rs2_b29>:
I_sll_cg_cp_rs2_b29:
  sll x0, x19, x29 # perform operation
     b08:	01d99033          	sll	x0,x19,x29
  # Check if x0 contains the expected result. x20 is the signature ptr, x5 is the link ptr, x4 is a temp reg.
  RVTEST_SIGUPD(x20, x5, x4, x0, I_sll_cg_cp_rs2_b29, I_sll_cg_cp_rs2_b29_str)
     b0c:	000a2203          	lw	x4,0(x20)
     b10:	00020863          	beq	x4,x0,b20 <I_sll_cg_cp_rs2_b29+0x18>
     b14:	1a9032ef          	jal	x5,44bc <failedtest_x5_x4>
     b18:	00000b08          	.word	0x00000b08
     b1c:	00009866          	.word	0x00009866
     b20:	004a0a13          	addi	x20,x20,4

# Testcase cp_rs2 (Test source rs2 = x30)
  RVTEST_TESTDATA_LOAD_INT(x2, x16) # load rs1: x16 = 0x07a27150
     b24:	00012803          	lw	x16,0(x2)
     b28:	00410113          	addi	x2,x2,4
  RVTEST_TESTDATA_LOAD_INT(x2, x30) # load rs2: x30 = 0x27b22a0a
     b2c:	00012f03          	lw	x30,0(x2)
     b30:	00410113          	addi	x2,x2,4

00000b34 <I_sll_cg_cp_rs2_b30>:
I_sll_cg_cp_rs2_b30:
  sll x1, x16, x30 # perform operation
     b34:	01e810b3          	sll	x1,x16,x30
  # Check if x1 contains the expected result. x20 is the signature ptr, x5 is the link ptr, x4 is a temp reg.
  RVTEST_SIGUPD(x20, x5, x4, x1, I_sll_cg_cp_rs2_b30, I_sll_cg_cp_rs2_b30_str)
     b38:	000a2203          	lw	x4,0(x20)
     b3c:	00120863          	beq	x4,x1,b4c <I_sll_cg_cp_rs2_b30+0x18>
     b40:	17d032ef          	jal	x5,44bc <failedtest_x5_x4>
     b44:	00000b34          	.word	0x00000b34
     b48:	00009895          	.word	0x00009895
     b4c:	004a0a13          	addi	x20,x20,4

# Testcase cp_rs2 (Test source rs2 = x31)
  RVTEST_TESTDATA_LOAD_INT(x2, x18) # load rs1: x18 = 0x8bd96b21
     b50:	00012903          	lw	x18,0(x2)
     b54:	00410113          	addi	x2,x2,4
  RVTEST_TESTDATA_LOAD_INT(x2, x31) # load rs2: x31 = 0xcc820ea9
     b58:	00012f83          	lw	x31,0(x2)
     b5c:	00410113          	addi	x2,x2,4

00000b60 <I_sll_cg_cp_rs2_b31>:
I_sll_cg_cp_rs2_b31:
  sll x6, x18, x31 # perform operation
     b60:	01f91333          	sll	x6,x18,x31
  # Check if x6 contains the expected result. x20 is the signature ptr, x5 is the link ptr, x4 is a temp reg.
  RVTEST_SIGUPD(x20, x5, x4, x6, I_sll_cg_cp_rs2_b31, I_sll_cg_cp_rs2_b31_str)
     b64:	000a2203          	lw	x4,0(x20)
     b68:	00620863          	beq	x4,x6,b78 <I_sll_cg_cp_rs2_b31+0x18>
     b6c:	151032ef          	jal	x5,44bc <failedtest_x5_x4>
     b70:	00000b60          	.word	0x00000b60
     b74:	000098c4          	.word	0x000098c4
     b78:	004a0a13          	addi	x20,x20,4
/////////////////////////////////
// cp_rd
/////////////////////////////////

# Testcase cp_rd (Test destination rd = x0)
  RVTEST_TESTDATA_LOAD_INT(x2, x26) # load rs1: x26 = 0xfea24798
     b7c:	00012d03          	lw	x26,0(x2)
     b80:	00410113          	addi	x2,x2,4
  RVTEST_TESTDATA_LOAD_INT(x2, x13) # load rs2: x13 = 0x45795de5
     b84:	00012683          	lw	x13,0(x2)
     b88:	00410113          	addi	x2,x2,4

00000b8c <I_sll_cg_cp_rd_b0>:
I_sll_cg_cp_rd_b0:
  sll x0, x26, x13 # perform operation
     b8c:	00dd1033          	sll	x0,x26,x13
  # Check if x0 contains the expected result. x20 is the signature ptr, x5 is the link ptr, x4 is a temp reg.
  RVTEST_SIGUPD(x20, x5, x4, x0, I_sll_cg_cp_rd_b0, I_sll_cg_cp_rd_b0_str)
     b90:	000a2203          	lw	x4,0(x20)
     b94:	00020863          	beq	x4,x0,ba4 <I_sll_cg_cp_rd_b0+0x18>
     b98:	125032ef          	jal	x5,44bc <failedtest_x5_x4>
     b9c:	00000b8c          	.word	0x00000b8c
     ba0:	000098f3          	.word	0x000098f3
     ba4:	004a0a13          	addi	x20,x20,4

# Testcase cp_rd (Test destination rd = x1)
  RVTEST_TESTDATA_LOAD_INT(x2, x21) # load rs1: x21 = 0x418164f0
     ba8:	00012a83          	lw	x21,0(x2)
     bac:	00410113          	addi	x2,x2,4
  RVTEST_TESTDATA_LOAD_INT(x2, x23) # load rs2: x23 = 0x24b3f627
     bb0:	00012b83          	lw	x23,0(x2)
     bb4:	00410113          	addi	x2,x2,4

00000bb8 <I_sll_cg_cp_rd_b1>:
I_sll_cg_cp_rd_b1:
  sll x1, x21, x23 # perform operation
     bb8:	017a90b3          	sll	x1,x21,x23
  # Check if x1 contains the expected result. x20 is the signature ptr, x5 is the link ptr, x4 is a temp reg.
  RVTEST_SIGUPD(x20, x5, x4, x1, I_sll_cg_cp_rd_b1, I_sll_cg_cp_rd_b1_str)
     bbc:	000a2203          	lw	x4,0(x20)
     bc0:	00120863          	beq	x4,x1,bd0 <I_sll_cg_cp_rd_b1+0x18>
     bc4:	0f9032ef          	jal	x5,44bc <failedtest_x5_x4>
     bc8:	00000bb8          	.word	0x00000bb8
     bcc:	00009920          	.word	0x00009920
     bd0:	004a0a13          	addi	x20,x20,4

  mv x28, x2 # switch data pointer register to avoid conflict with test
     bd4:	00010e13          	addi	x28,x2,0
# Testcase cp_rd (Test destination rd = x2)
  RVTEST_TESTDATA_LOAD_INT(x28, x14) # load rs1: x14 = 0x80f1fe36
     bd8:	000e2703          	lw	x14,0(x28)
     bdc:	004e0e13          	addi	x28,x28,4
  RVTEST_TESTDATA_LOAD_INT(x28, x8) # load rs2: x8 = 0x6fa72a7d
     be0:	000e2403          	lw	x8,0(x28)
     be4:	004e0e13          	addi	x28,x28,4

00000be8 <I_sll_cg_cp_rd_b2>:
I_sll_cg_cp_rd_b2:
  sll x2, x14, x8 # perform operation
     be8:	00871133          	sll	x2,x14,x8
  # Check if x2 contains the expected result. x20 is the signature ptr, x5 is the link ptr, x4 is a temp reg.
  RVTEST_SIGUPD(x20, x5, x4, x2, I_sll_cg_cp_rd_b2, I_sll_cg_cp_rd_b2_str)
     bec:	000a2203          	lw	x4,0(x20)
     bf0:	00220863          	beq	x4,x2,c00 <I_sll_cg_cp_rd_b2+0x18>
     bf4:	0c9032ef          	jal	x5,44bc <failedtest_x5_x4>
     bf8:	00000be8          	.word	0x00000be8
     bfc:	0000994d          	.word	0x0000994d
     c00:	004a0a13          	addi	x20,x20,4

# Testcase cp_rd (Test destination rd = x3)
  RVTEST_TESTDATA_LOAD_INT(x28, x15) # load rs1: x15 = 0xa98af095
     c04:	000e2783          	lw	x15,0(x28)
     c08:	004e0e13          	addi	x28,x28,4
  RVTEST_TESTDATA_LOAD_INT(x28, x17) # load rs2: x17 = 0xd1402e29
     c0c:	000e2883          	lw	x17,0(x28)
     c10:	004e0e13          	addi	x28,x28,4

00000c14 <I_sll_cg_cp_rd_b3>:
I_sll_cg_cp_rd_b3:
  sll x3, x15, x17 # perform operation
     c14:	011791b3          	sll	x3,x15,x17
  # Check if x3 contains the expected result. x20 is the signature ptr, x5 is the link ptr, x4 is a temp reg.
  RVTEST_SIGUPD(x20, x5, x4, x3, I_sll_cg_cp_rd_b3, I_sll_cg_cp_rd_b3_str)
     c18:	000a2203          	lw	x4,0(x20)
     c1c:	00320863          	beq	x4,x3,c2c <I_sll_cg_cp_rd_b3+0x18>
     c20:	09d032ef          	jal	x5,44bc <failedtest_x5_x4>
     c24:	00000c14          	.word	0x00000c14
     c28:	0000997a          	.word	0x0000997a
     c2c:	004a0a13          	addi	x20,x20,4

  mv x13, x4 # switch temp register to avoid conflict with test
     c30:	00020693          	addi	x13,x4,0 # 0 <rvtest_entry_point>
  mv x14, x5 # switch link pointer register to avoid conflict with test
     c34:	00028713          	addi	x14,x5,0
# Testcase cp_rd (Test destination rd = x4)
  RVTEST_TESTDATA_LOAD_INT(x28, x5) # load rs1: x5 = 0x5bb36bc2
     c38:	000e2283          	lw	x5,0(x28)
     c3c:	004e0e13          	addi	x28,x28,4
  RVTEST_TESTDATA_LOAD_INT(x28, x30) # load rs2: x30 = 0x80ee1823
     c40:	000e2f03          	lw	x30,0(x28)
     c44:	004e0e13          	addi	x28,x28,4

00000c48 <I_sll_cg_cp_rd_b4>:
I_sll_cg_cp_rd_b4:
  sll x4, x5, x30 # perform operation
     c48:	01e29233          	sll	x4,x5,x30
  # Check if x4 contains the expected result. x20 is the signature ptr, x14 is the link ptr, x13 is a temp reg.
  RVTEST_SIGUPD(x20, x14, x13, x4, I_sll_cg_cp_rd_b4, I_sll_cg_cp_rd_b4_str)
     c4c:	000a2683          	lw	x13,0(x20)
     c50:	00468863          	beq	x13,x4,c60 <I_sll_cg_cp_rd_b4+0x18>
     c54:	0a90376f          	jal	x14,44fc <failedtest_x14_x13>
     c58:	00000c48          	.word	0x00000c48
     c5c:	000099a7          	.word	0x000099a7
     c60:	004a0a13          	addi	x20,x20,4

# Testcase cp_rd (Test destination rd = x5)
  RVTEST_TESTDATA_LOAD_INT(x28, x8) # load rs1: x8 = 0x32d11d83
     c64:	000e2403          	lw	x8,0(x28)
     c68:	004e0e13          	addi	x28,x28,4
  RVTEST_TESTDATA_LOAD_INT(x28, x2) # load rs2: x2 = 0x2bbd6391
     c6c:	000e2103          	lw	x2,0(x28)
     c70:	004e0e13          	addi	x28,x28,4

00000c74 <I_sll_cg_cp_rd_b5>:
I_sll_cg_cp_rd_b5:
  sll x5, x8, x2 # perform operation
     c74:	002412b3          	sll	x5,x8,x2
  # Check if x5 contains the expected result. x20 is the signature ptr, x14 is the link ptr, x13 is a temp reg.
  RVTEST_SIGUPD(x20, x14, x13, x5, I_sll_cg_cp_rd_b5, I_sll_cg_cp_rd_b5_str)
     c78:	000a2683          	lw	x13,0(x20)
     c7c:	00568863          	beq	x13,x5,c8c <I_sll_cg_cp_rd_b5+0x18>
     c80:	07d0376f          	jal	x14,44fc <failedtest_x14_x13>
     c84:	00000c74          	.word	0x00000c74
     c88:	000099d4          	.word	0x000099d4
     c8c:	004a0a13          	addi	x20,x20,4

# Testcase cp_rd (Test destination rd = x6)
  RVTEST_TESTDATA_LOAD_INT(x28, x15) # load rs1: x15 = 0xd7769227
     c90:	000e2783          	lw	x15,0(x28)
     c94:	004e0e13          	addi	x28,x28,4
  RVTEST_TESTDATA_LOAD_INT(x28, x17) # load rs2: x17 = 0x53192a50
     c98:	000e2883          	lw	x17,0(x28)
     c9c:	004e0e13          	addi	x28,x28,4

00000ca0 <I_sll_cg_cp_rd_b6>:
I_sll_cg_cp_rd_b6:
  sll x6, x15, x17 # perform operation
     ca0:	01179333          	sll	x6,x15,x17
  # Check if x6 contains the expected result. x20 is the signature ptr, x14 is the link ptr, x13 is a temp reg.
  RVTEST_SIGUPD(x20, x14, x13, x6, I_sll_cg_cp_rd_b6, I_sll_cg_cp_rd_b6_str)
     ca4:	000a2683          	lw	x13,0(x20)
     ca8:	00668863          	beq	x13,x6,cb8 <I_sll_cg_cp_rd_b6+0x18>
     cac:	0510376f          	jal	x14,44fc <failedtest_x14_x13>
     cb0:	00000ca0          	.word	0x00000ca0
     cb4:	00009a01          	.word	0x00009a01
     cb8:	004a0a13          	addi	x20,x20,4

# Testcase cp_rd (Test destination rd = x7)
  RVTEST_TESTDATA_LOAD_INT(x28, x10) # load rs1: x10 = 0xec72b77b
     cbc:	000e2503          	lw	x10,0(x28)
     cc0:	004e0e13          	addi	x28,x28,4
  RVTEST_TESTDATA_LOAD_INT(x28, x3) # load rs2: x3 = 0x30833779
     cc4:	000e2183          	lw	x3,0(x28)
     cc8:	004e0e13          	addi	x28,x28,4

00000ccc <I_sll_cg_cp_rd_b7>:
I_sll_cg_cp_rd_b7:
  sll x7, x10, x3 # perform operation
     ccc:	003513b3          	sll	x7,x10,x3
  # Check if x7 contains the expected result. x20 is the signature ptr, x14 is the link ptr, x13 is a temp reg.
  RVTEST_SIGUPD(x20, x14, x13, x7, I_sll_cg_cp_rd_b7, I_sll_cg_cp_rd_b7_str)
     cd0:	000a2683          	lw	x13,0(x20)
     cd4:	00768863          	beq	x13,x7,ce4 <I_sll_cg_cp_rd_b7+0x18>
     cd8:	0250376f          	jal	x14,44fc <failedtest_x14_x13>
     cdc:	00000ccc          	.word	0x00000ccc
     ce0:	00009a2e          	.word	0x00009a2e
     ce4:	004a0a13          	addi	x20,x20,4

# Testcase cp_rd (Test destination rd = x8)
  RVTEST_TESTDATA_LOAD_INT(x28, x9) # load rs1: x9 = 0xe9b44353
     ce8:	000e2483          	lw	x9,0(x28)
     cec:	004e0e13          	addi	x28,x28,4
  RVTEST_TESTDATA_LOAD_INT(x28, x27) # load rs2: x27 = 0x7c635469
     cf0:	000e2d83          	lw	x27,0(x28)
     cf4:	004e0e13          	addi	x28,x28,4

00000cf8 <I_sll_cg_cp_rd_b8>:
I_sll_cg_cp_rd_b8:
  sll x8, x9, x27 # perform operation
     cf8:	01b49433          	sll	x8,x9,x27
  # Check if x8 contains the expected result. x20 is the signature ptr, x14 is the link ptr, x13 is a temp reg.
  RVTEST_SIGUPD(x20, x14, x13, x8, I_sll_cg_cp_rd_b8, I_sll_cg_cp_rd_b8_str)
     cfc:	000a2683          	lw	x13,0(x20)
     d00:	00868863          	beq	x13,x8,d10 <I_sll_cg_cp_rd_b8+0x18>
     d04:	7f80376f          	jal	x14,44fc <failedtest_x14_x13>
     d08:	00000cf8          	.word	0x00000cf8
     d0c:	00009a5b          	.word	0x00009a5b
     d10:	004a0a13          	addi	x20,x20,4

# Testcase cp_rd (Test destination rd = x9)
  RVTEST_TESTDATA_LOAD_INT(x28, x2) # load rs1: x2 = 0x0f581ead
     d14:	000e2103          	lw	x2,0(x28)
     d18:	004e0e13          	addi	x28,x28,4
  RVTEST_TESTDATA_LOAD_INT(x28, x24) # load rs2: x24 = 0xce617ba3
     d1c:	000e2c03          	lw	x24,0(x28)
     d20:	004e0e13          	addi	x28,x28,4

00000d24 <I_sll_cg_cp_rd_b9>:
I_sll_cg_cp_rd_b9:
  sll x9, x2, x24 # perform operation
     d24:	018114b3          	sll	x9,x2,x24
  # Check if x9 contains the expected result. x20 is the signature ptr, x14 is the link ptr, x13 is a temp reg.
  RVTEST_SIGUPD(x20, x14, x13, x9, I_sll_cg_cp_rd_b9, I_sll_cg_cp_rd_b9_str)
     d28:	000a2683          	lw	x13,0(x20)
     d2c:	00968863          	beq	x13,x9,d3c <I_sll_cg_cp_rd_b9+0x18>
     d30:	7cc0376f          	jal	x14,44fc <failedtest_x14_x13>
     d34:	00000d24          	.word	0x00000d24
     d38:	00009a88          	.word	0x00009a88
     d3c:	004a0a13          	addi	x20,x20,4

# Testcase cp_rd (Test destination rd = x10)
  RVTEST_TESTDATA_LOAD_INT(x28, x31) # load rs1: x31 = 0x7311fdb2
     d40:	000e2f83          	lw	x31,0(x28)
     d44:	004e0e13          	addi	x28,x28,4
  RVTEST_TESTDATA_LOAD_INT(x28, x16) # load rs2: x16 = 0x584ca30e
     d48:	000e2803          	lw	x16,0(x28)
     d4c:	004e0e13          	addi	x28,x28,4

00000d50 <I_sll_cg_cp_rd_b10>:
I_sll_cg_cp_rd_b10:
  sll x10, x31, x16 # perform operation
     d50:	010f9533          	sll	x10,x31,x16
  # Check if x10 contains the expected result. x20 is the signature ptr, x14 is the link ptr, x13 is a temp reg.
  RVTEST_SIGUPD(x20, x14, x13, x10, I_sll_cg_cp_rd_b10, I_sll_cg_cp_rd_b10_str)
     d54:	000a2683          	lw	x13,0(x20)
     d58:	00a68863          	beq	x13,x10,d68 <I_sll_cg_cp_rd_b10+0x18>
     d5c:	7a00376f          	jal	x14,44fc <failedtest_x14_x13>
     d60:	00000d50          	.word	0x00000d50
     d64:	00009ab5          	.word	0x00009ab5
     d68:	004a0a13          	addi	x20,x20,4

# Testcase cp_rd (Test destination rd = x11)
  RVTEST_TESTDATA_LOAD_INT(x28, x27) # load rs1: x27 = 0x4374cf4c
     d6c:	000e2d83          	lw	x27,0(x28)
     d70:	004e0e13          	addi	x28,x28,4
  RVTEST_TESTDATA_LOAD_INT(x28, x12) # load rs2: x12 = 0xb783b83f
     d74:	000e2603          	lw	x12,0(x28)
     d78:	004e0e13          	addi	x28,x28,4

00000d7c <I_sll_cg_cp_rd_b11>:
I_sll_cg_cp_rd_b11:
  sll x11, x27, x12 # perform operation
     d7c:	00cd95b3          	sll	x11,x27,x12
  # Check if x11 contains the expected result. x20 is the signature ptr, x14 is the link ptr, x13 is a temp reg.
  RVTEST_SIGUPD(x20, x14, x13, x11, I_sll_cg_cp_rd_b11, I_sll_cg_cp_rd_b11_str)
     d80:	000a2683          	lw	x13,0(x20)
     d84:	00b68863          	beq	x13,x11,d94 <I_sll_cg_cp_rd_b11+0x18>
     d88:	7740376f          	jal	x14,44fc <failedtest_x14_x13>
     d8c:	00000d7c          	.word	0x00000d7c
     d90:	00009ae3          	.word	0x00009ae3
     d94:	004a0a13          	addi	x20,x20,4

# Testcase cp_rd (Test destination rd = x12)
  RVTEST_TESTDATA_LOAD_INT(x28, x9) # load rs1: x9 = 0x00d6c4ea
     d98:	000e2483          	lw	x9,0(x28)
     d9c:	004e0e13          	addi	x28,x28,4
  RVTEST_TESTDATA_LOAD_INT(x28, x17) # load rs2: x17 = 0x8f19ed7c
     da0:	000e2883          	lw	x17,0(x28)
     da4:	004e0e13          	addi	x28,x28,4

00000da8 <I_sll_cg_cp_rd_b12>:
I_sll_cg_cp_rd_b12:
  sll x12, x9, x17 # perform operation
     da8:	01149633          	sll	x12,x9,x17
  # Check if x12 contains the expected result. x20 is the signature ptr, x14 is the link ptr, x13 is a temp reg.
  RVTEST_SIGUPD(x20, x14, x13, x12, I_sll_cg_cp_rd_b12, I_sll_cg_cp_rd_b12_str)
     dac:	000a2683          	lw	x13,0(x20)
     db0:	00c68863          	beq	x13,x12,dc0 <I_sll_cg_cp_rd_b12+0x18>
     db4:	7480376f          	jal	x14,44fc <failedtest_x14_x13>
     db8:	00000da8          	.word	0x00000da8
     dbc:	00009b11          	.word	0x00009b11
     dc0:	004a0a13          	addi	x20,x20,4

  mv x7, x13 # switch temp register to avoid conflict with test
     dc4:	00068393          	addi	x7,x13,0
  mv x8, x14 # switch link pointer register to avoid conflict with test
     dc8:	00070413          	addi	x8,x14,0
# Testcase cp_rd (Test destination rd = x13)
  RVTEST_TESTDATA_LOAD_INT(x28, x4) # load rs1: x4 = 0xefb26bcb
     dcc:	000e2203          	lw	x4,0(x28)
     dd0:	004e0e13          	addi	x28,x28,4
  RVTEST_TESTDATA_LOAD_INT(x28, x0) # load rs2: x0 = 0x8ab1e350
     dd4:	000e2003          	lw	x0,0(x28)
     dd8:	004e0e13          	addi	x28,x28,4

00000ddc <I_sll_cg_cp_rd_b13>:
I_sll_cg_cp_rd_b13:
  sll x13, x4, x0 # perform operation
     ddc:	000216b3          	sll	x13,x4,x0
  # Check if x13 contains the expected result. x20 is the signature ptr, x8 is the link ptr, x7 is a temp reg.
  RVTEST_SIGUPD(x20, x8, x7, x13, I_sll_cg_cp_rd_b13, I_sll_cg_cp_rd_b13_str)
     de0:	000a2383          	lw	x7,0(x20)
     de4:	00d38863          	beq	x7,x13,df4 <I_sll_cg_cp_rd_b13+0x18>
     de8:	6ec0346f          	jal	x8,44d4 <failedtest_x8_x7>
     dec:	00000ddc          	.word	0x00000ddc
     df0:	00009b3f          	.word	0x00009b3f
     df4:	004a0a13          	addi	x20,x20,4

# Testcase cp_rd (Test destination rd = x14)
  RVTEST_TESTDATA_LOAD_INT(x28, x21) # load rs1: x21 = 0xbf829d4d
     df8:	000e2a83          	lw	x21,0(x28)
     dfc:	004e0e13          	addi	x28,x28,4
  RVTEST_TESTDATA_LOAD_INT(x28, x12) # load rs2: x12 = 0x551b0550
     e00:	000e2603          	lw	x12,0(x28)
     e04:	004e0e13          	addi	x28,x28,4

00000e08 <I_sll_cg_cp_rd_b14>:
I_sll_cg_cp_rd_b14:
  sll x14, x21, x12 # perform operation
     e08:	00ca9733          	sll	x14,x21,x12
  # Check if x14 contains the expected result. x20 is the signature ptr, x8 is the link ptr, x7 is a temp reg.
  RVTEST_SIGUPD(x20, x8, x7, x14, I_sll_cg_cp_rd_b14, I_sll_cg_cp_rd_b14_str)
     e0c:	000a2383          	lw	x7,0(x20)
     e10:	00e38863          	beq	x7,x14,e20 <I_sll_cg_cp_rd_b14+0x18>
     e14:	6c00346f          	jal	x8,44d4 <failedtest_x8_x7>
     e18:	00000e08          	.word	0x00000e08
     e1c:	00009b6d          	.word	0x00009b6d
     e20:	004a0a13          	addi	x20,x20,4

# Testcase cp_rd (Test destination rd = x15)
  RVTEST_TESTDATA_LOAD_INT(x28, x1) # load rs1: x1 = 0x98a55e93
     e24:	000e2083          	lw	x1,0(x28)
     e28:	004e0e13          	addi	x28,x28,4
  RVTEST_TESTDATA_LOAD_INT(x28, x2) # load rs2: x2 = 0x105a57fe
     e2c:	000e2103          	lw	x2,0(x28)
     e30:	004e0e13          	addi	x28,x28,4

00000e34 <I_sll_cg_cp_rd_b15>:
I_sll_cg_cp_rd_b15:
  sll x15, x1, x2 # perform operation
     e34:	002097b3          	sll	x15,x1,x2
  # Check if x15 contains the expected result. x20 is the signature ptr, x8 is the link ptr, x7 is a temp reg.
  RVTEST_SIGUPD(x20, x8, x7, x15, I_sll_cg_cp_rd_b15, I_sll_cg_cp_rd_b15_str)
     e38:	000a2383          	lw	x7,0(x20)
     e3c:	00f38863          	beq	x7,x15,e4c <I_sll_cg_cp_rd_b15+0x18>
     e40:	6940346f          	jal	x8,44d4 <failedtest_x8_x7>
     e44:	00000e34          	.word	0x00000e34
     e48:	00009b9b          	.word	0x00009b9b
     e4c:	004a0a13          	addi	x20,x20,4

# Testcase cp_rd (Test destination rd = x16)
  RVTEST_TESTDATA_LOAD_INT(x28, x21) # load rs1: x21 = 0x887a297c
     e50:	000e2a83          	lw	x21,0(x28)
     e54:	004e0e13          	addi	x28,x28,4
  RVTEST_TESTDATA_LOAD_INT(x28, x12) # load rs2: x12 = 0x5cf1ac60
     e58:	000e2603          	lw	x12,0(x28)
     e5c:	004e0e13          	addi	x28,x28,4

00000e60 <I_sll_cg_cp_rd_b16>:
I_sll_cg_cp_rd_b16:
  sll x16, x21, x12 # perform operation
     e60:	00ca9833          	sll	x16,x21,x12
  # Check if x16 contains the expected result. x20 is the signature ptr, x8 is the link ptr, x7 is a temp reg.
  RVTEST_SIGUPD(x20, x8, x7, x16, I_sll_cg_cp_rd_b16, I_sll_cg_cp_rd_b16_str)
     e64:	000a2383          	lw	x7,0(x20)
     e68:	01038863          	beq	x7,x16,e78 <I_sll_cg_cp_rd_b16+0x18>
     e6c:	6680346f          	jal	x8,44d4 <failedtest_x8_x7>
     e70:	00000e60          	.word	0x00000e60
     e74:	00009bc9          	.word	0x00009bc9
     e78:	004a0a13          	addi	x20,x20,4

# Testcase cp_rd (Test destination rd = x17)
  RVTEST_TESTDATA_LOAD_INT(x28, x21) # load rs1: x21 = 0xcd5eaeba
     e7c:	000e2a83          	lw	x21,0(x28)
     e80:	004e0e13          	addi	x28,x28,4
  RVTEST_TESTDATA_LOAD_INT(x28, x13) # load rs2: x13 = 0xf8cff694
     e84:	000e2683          	lw	x13,0(x28)
     e88:	004e0e13          	addi	x28,x28,4

00000e8c <I_sll_cg_cp_rd_b17>:
I_sll_cg_cp_rd_b17:
  sll x17, x21, x13 # perform operation
     e8c:	00da98b3          	sll	x17,x21,x13
  # Check if x17 contains the expected result. x20 is the signature ptr, x8 is the link ptr, x7 is a temp reg.
  RVTEST_SIGUPD(x20, x8, x7, x17, I_sll_cg_cp_rd_b17, I_sll_cg_cp_rd_b17_str)
     e90:	000a2383          	lw	x7,0(x20)
     e94:	01138863          	beq	x7,x17,ea4 <I_sll_cg_cp_rd_b17+0x18>
     e98:	63c0346f          	jal	x8,44d4 <failedtest_x8_x7>
     e9c:	00000e8c          	.word	0x00000e8c
     ea0:	00009bf7          	.word	0x00009bf7
     ea4:	004a0a13          	addi	x20,x20,4

# Testcase cp_rd (Test destination rd = x18)
  RVTEST_TESTDATA_LOAD_INT(x28, x12) # load rs1: x12 = 0xee8e8a63
     ea8:	000e2603          	lw	x12,0(x28)
     eac:	004e0e13          	addi	x28,x28,4
  RVTEST_TESTDATA_LOAD_INT(x28, x2) # load rs2: x2 = 0xeef062fe
     eb0:	000e2103          	lw	x2,0(x28)
     eb4:	004e0e13          	addi	x28,x28,4

00000eb8 <I_sll_cg_cp_rd_b18>:
I_sll_cg_cp_rd_b18:
  sll x18, x12, x2 # perform operation
     eb8:	00261933          	sll	x18,x12,x2
  # Check if x18 contains the expected result. x20 is the signature ptr, x8 is the link ptr, x7 is a temp reg.
  RVTEST_SIGUPD(x20, x8, x7, x18, I_sll_cg_cp_rd_b18, I_sll_cg_cp_rd_b18_str)
     ebc:	000a2383          	lw	x7,0(x20)
     ec0:	01238863          	beq	x7,x18,ed0 <I_sll_cg_cp_rd_b18+0x18>
     ec4:	6100346f          	jal	x8,44d4 <failedtest_x8_x7>
     ec8:	00000eb8          	.word	0x00000eb8
     ecc:	00009c25          	.word	0x00009c25
     ed0:	004a0a13          	addi	x20,x20,4

# Testcase cp_rd (Test destination rd = x19)
  RVTEST_TESTDATA_LOAD_INT(x28, x18) # load rs1: x18 = 0xcd89279b
     ed4:	000e2903          	lw	x18,0(x28)
     ed8:	004e0e13          	addi	x28,x28,4
  RVTEST_TESTDATA_LOAD_INT(x28, x11) # load rs2: x11 = 0x38352b10
     edc:	000e2583          	lw	x11,0(x28)
     ee0:	004e0e13          	addi	x28,x28,4

00000ee4 <I_sll_cg_cp_rd_b19>:
I_sll_cg_cp_rd_b19:
  sll x19, x18, x11 # perform operation
     ee4:	00b919b3          	sll	x19,x18,x11
  # Check if x19 contains the expected result. x20 is the signature ptr, x8 is the link ptr, x7 is a temp reg.
  RVTEST_SIGUPD(x20, x8, x7, x19, I_sll_cg_cp_rd_b19, I_sll_cg_cp_rd_b19_str)
     ee8:	000a2383          	lw	x7,0(x20)
     eec:	01338863          	beq	x7,x19,efc <I_sll_cg_cp_rd_b19+0x18>
     ef0:	5e40346f          	jal	x8,44d4 <failedtest_x8_x7>
     ef4:	00000ee4          	.word	0x00000ee4
     ef8:	00009c53          	.word	0x00009c53
     efc:	004a0a13          	addi	x20,x20,4

  mv x30, x20 # switch signature pointer register to avoid conflict with test
     f00:	000a0f13          	addi	x30,x20,0
# Testcase cp_rd (Test destination rd = x20)
  RVTEST_TESTDATA_LOAD_INT(x28, x26) # load rs1: x26 = 0x69ee35e3
     f04:	000e2d03          	lw	x26,0(x28)
     f08:	004e0e13          	addi	x28,x28,4
  RVTEST_TESTDATA_LOAD_INT(x28, x21) # load rs2: x21 = 0x70af984d
     f0c:	000e2a83          	lw	x21,0(x28)
     f10:	004e0e13          	addi	x28,x28,4

00000f14 <I_sll_cg_cp_rd_b20>:
I_sll_cg_cp_rd_b20:
  sll x20, x26, x21 # perform operation
     f14:	015d1a33          	sll	x20,x26,x21
  # Check if x20 contains the expected result. x30 is the signature ptr, x8 is the link ptr, x7 is a temp reg.
  RVTEST_SIGUPD(x30, x8, x7, x20, I_sll_cg_cp_rd_b20, I_sll_cg_cp_rd_b20_str)
     f18:	000f2383          	lw	x7,0(x30)
     f1c:	01438863          	beq	x7,x20,f2c <I_sll_cg_cp_rd_b20+0x18>
     f20:	5b40346f          	jal	x8,44d4 <failedtest_x8_x7>
     f24:	00000f14          	.word	0x00000f14
     f28:	00009c81          	.word	0x00009c81
     f2c:	004f0f13          	addi	x30,x30,4

# Testcase cp_rd (Test destination rd = x21)
  RVTEST_TESTDATA_LOAD_INT(x28, x4) # load rs1: x4 = 0x0b968088
     f30:	000e2203          	lw	x4,0(x28)
     f34:	004e0e13          	addi	x28,x28,4
  RVTEST_TESTDATA_LOAD_INT(x28, x6) # load rs2: x6 = 0xfbd1037e
     f38:	000e2303          	lw	x6,0(x28)
     f3c:	004e0e13          	addi	x28,x28,4

00000f40 <I_sll_cg_cp_rd_b21>:
I_sll_cg_cp_rd_b21:
  sll x21, x4, x6 # perform operation
     f40:	00621ab3          	sll	x21,x4,x6
  # Check if x21 contains the expected result. x30 is the signature ptr, x8 is the link ptr, x7 is a temp reg.
  RVTEST_SIGUPD(x30, x8, x7, x21, I_sll_cg_cp_rd_b21, I_sll_cg_cp_rd_b21_str)
     f44:	000f2383          	lw	x7,0(x30)
     f48:	01538863          	beq	x7,x21,f58 <I_sll_cg_cp_rd_b21+0x18>
     f4c:	5880346f          	jal	x8,44d4 <failedtest_x8_x7>
     f50:	00000f40          	.word	0x00000f40
     f54:	00009caf          	.word	0x00009caf
     f58:	004f0f13          	addi	x30,x30,4

# Testcase cp_rd (Test destination rd = x22)
  RVTEST_TESTDATA_LOAD_INT(x28, x21) # load rs1: x21 = 0x1b28c5bf
     f5c:	000e2a83          	lw	x21,0(x28)
     f60:	004e0e13          	addi	x28,x28,4
  RVTEST_TESTDATA_LOAD_INT(x28, x25) # load rs2: x25 = 0xd4f050ec
     f64:	000e2c83          	lw	x25,0(x28)
     f68:	004e0e13          	addi	x28,x28,4

00000f6c <I_sll_cg_cp_rd_b22>:
I_sll_cg_cp_rd_b22:
  sll x22, x21, x25 # perform operation
     f6c:	019a9b33          	sll	x22,x21,x25
  # Check if x22 contains the expected result. x30 is the signature ptr, x8 is the link ptr, x7 is a temp reg.
  RVTEST_SIGUPD(x30, x8, x7, x22, I_sll_cg_cp_rd_b22, I_sll_cg_cp_rd_b22_str)
     f70:	000f2383          	lw	x7,0(x30)
     f74:	01638863          	beq	x7,x22,f84 <I_sll_cg_cp_rd_b22+0x18>
     f78:	55c0346f          	jal	x8,44d4 <failedtest_x8_x7>
     f7c:	00000f6c          	.word	0x00000f6c
     f80:	00009cdd          	.word	0x00009cdd
     f84:	004f0f13          	addi	x30,x30,4

# Testcase cp_rd (Test destination rd = x23)
  RVTEST_TESTDATA_LOAD_INT(x28, x29) # load rs1: x29 = 0x35496607
     f88:	000e2e83          	lw	x29,0(x28)
     f8c:	004e0e13          	addi	x28,x28,4
  RVTEST_TESTDATA_LOAD_INT(x28, x17) # load rs2: x17 = 0x2c865ae4
     f90:	000e2883          	lw	x17,0(x28)
     f94:	004e0e13          	addi	x28,x28,4

00000f98 <I_sll_cg_cp_rd_b23>:
I_sll_cg_cp_rd_b23:
  sll x23, x29, x17 # perform operation
     f98:	011e9bb3          	sll	x23,x29,x17
  # Check if x23 contains the expected result. x30 is the signature ptr, x8 is the link ptr, x7 is a temp reg.
  RVTEST_SIGUPD(x30, x8, x7, x23, I_sll_cg_cp_rd_b23, I_sll_cg_cp_rd_b23_str)
     f9c:	000f2383          	lw	x7,0(x30)
     fa0:	01738863          	beq	x7,x23,fb0 <I_sll_cg_cp_rd_b23+0x18>
     fa4:	5300346f          	jal	x8,44d4 <failedtest_x8_x7>
     fa8:	00000f98          	.word	0x00000f98
     fac:	00009d0b          	.word	0x00009d0b
     fb0:	004f0f13          	addi	x30,x30,4

# Testcase cp_rd (Test destination rd = x24)
  RVTEST_TESTDATA_LOAD_INT(x28, x13) # load rs1: x13 = 0x4e9fd116
     fb4:	000e2683          	lw	x13,0(x28)
     fb8:	004e0e13          	addi	x28,x28,4
  RVTEST_TESTDATA_LOAD_INT(x28, x25) # load rs2: x25 = 0x2b51e3c7
     fbc:	000e2c83          	lw	x25,0(x28)
     fc0:	004e0e13          	addi	x28,x28,4

00000fc4 <I_sll_cg_cp_rd_b24>:
I_sll_cg_cp_rd_b24:
  sll x24, x13, x25 # perform operation
     fc4:	01969c33          	sll	x24,x13,x25
  # Check if x24 contains the expected result. x30 is the signature ptr, x8 is the link ptr, x7 is a temp reg.
  RVTEST_SIGUPD(x30, x8, x7, x24, I_sll_cg_cp_rd_b24, I_sll_cg_cp_rd_b24_str)
     fc8:	000f2383          	lw	x7,0(x30)
     fcc:	01838863          	beq	x7,x24,fdc <I_sll_cg_cp_rd_b24+0x18>
     fd0:	5040346f          	jal	x8,44d4 <failedtest_x8_x7>
     fd4:	00000fc4          	.word	0x00000fc4
     fd8:	00009d39          	.word	0x00009d39
     fdc:	004f0f13          	addi	x30,x30,4

# Testcase cp_rd (Test destination rd = x25)
  RVTEST_TESTDATA_LOAD_INT(x28, x14) # load rs1: x14 = 0xe74c8a7e
     fe0:	000e2703          	lw	x14,0(x28)
     fe4:	004e0e13          	addi	x28,x28,4
  RVTEST_TESTDATA_LOAD_INT(x28, x3) # load rs2: x3 = 0xe9cc37c1
     fe8:	000e2183          	lw	x3,0(x28)
     fec:	004e0e13          	addi	x28,x28,4

00000ff0 <I_sll_cg_cp_rd_b25>:
I_sll_cg_cp_rd_b25:
  sll x25, x14, x3 # perform operation
     ff0:	00371cb3          	sll	x25,x14,x3
  # Check if x25 contains the expected result. x30 is the signature ptr, x8 is the link ptr, x7 is a temp reg.
  RVTEST_SIGUPD(x30, x8, x7, x25, I_sll_cg_cp_rd_b25, I_sll_cg_cp_rd_b25_str)
     ff4:	000f2383          	lw	x7,0(x30)
     ff8:	01938863          	beq	x7,x25,1008 <I_sll_cg_cp_rd_b25+0x18>
     ffc:	4d80346f          	jal	x8,44d4 <failedtest_x8_x7>
    1000:	00000ff0          	.word	0x00000ff0
    1004:	00009d67          	.word	0x00009d67
    1008:	004f0f13          	addi	x30,x30,4

# Testcase cp_rd (Test destination rd = x26)
  RVTEST_TESTDATA_LOAD_INT(x28, x5) # load rs1: x5 = 0x34f853e3
    100c:	000e2283          	lw	x5,0(x28)
    1010:	004e0e13          	addi	x28,x28,4
  RVTEST_TESTDATA_LOAD_INT(x28, x27) # load rs2: x27 = 0xa94e88da
    1014:	000e2d83          	lw	x27,0(x28)
    1018:	004e0e13          	addi	x28,x28,4

0000101c <I_sll_cg_cp_rd_b26>:
I_sll_cg_cp_rd_b26:
  sll x26, x5, x27 # perform operation
    101c:	01b29d33          	sll	x26,x5,x27
  # Check if x26 contains the expected result. x30 is the signature ptr, x8 is the link ptr, x7 is a temp reg.
  RVTEST_SIGUPD(x30, x8, x7, x26, I_sll_cg_cp_rd_b26, I_sll_cg_cp_rd_b26_str)
    1020:	000f2383          	lw	x7,0(x30)
    1024:	01a38863          	beq	x7,x26,1034 <I_sll_cg_cp_rd_b26+0x18>
    1028:	4ac0346f          	jal	x8,44d4 <failedtest_x8_x7>
    102c:	0000101c          	.word	0x0000101c
    1030:	00009d95          	.word	0x00009d95
    1034:	004f0f13          	addi	x30,x30,4

# Testcase cp_rd (Test destination rd = x27)
  RVTEST_TESTDATA_LOAD_INT(x28, x31) # load rs1: x31 = 0xbdc3dd89
    1038:	000e2f83          	lw	x31,0(x28)
    103c:	004e0e13          	addi	x28,x28,4
  RVTEST_TESTDATA_LOAD_INT(x28, x12) # load rs2: x12 = 0x236ba928
    1040:	000e2603          	lw	x12,0(x28)
    1044:	004e0e13          	addi	x28,x28,4

00001048 <I_sll_cg_cp_rd_b27>:
I_sll_cg_cp_rd_b27:
  sll x27, x31, x12 # perform operation
    1048:	00cf9db3          	sll	x27,x31,x12
  # Check if x27 contains the expected result. x30 is the signature ptr, x8 is the link ptr, x7 is a temp reg.
  RVTEST_SIGUPD(x30, x8, x7, x27, I_sll_cg_cp_rd_b27, I_sll_cg_cp_rd_b27_str)
    104c:	000f2383          	lw	x7,0(x30)
    1050:	01b38863          	beq	x7,x27,1060 <I_sll_cg_cp_rd_b27+0x18>
    1054:	4800346f          	jal	x8,44d4 <failedtest_x8_x7>
    1058:	00001048          	.word	0x00001048
    105c:	00009dc3          	.word	0x00009dc3
    1060:	004f0f13          	addi	x30,x30,4

  mv x23, x28 # switch data pointer register to avoid conflict with test
    1064:	000e0b93          	addi	x23,x28,0
# Testcase cp_rd (Test destination rd = x28)
  RVTEST_TESTDATA_LOAD_INT(x23, x31) # load rs1: x31 = 0x0464227f
    1068:	000baf83          	lw	x31,0(x23)
    106c:	004b8b93          	addi	x23,x23,4
  RVTEST_TESTDATA_LOAD_INT(x23, x16) # load rs2: x16 = 0xa4be1ca8
    1070:	000ba803          	lw	x16,0(x23)
    1074:	004b8b93          	addi	x23,x23,4

00001078 <I_sll_cg_cp_rd_b28>:
I_sll_cg_cp_rd_b28:
  sll x28, x31, x16 # perform operation
    1078:	010f9e33          	sll	x28,x31,x16
  # Check if x28 contains the expected result. x30 is the signature ptr, x8 is the link ptr, x7 is a temp reg.
  RVTEST_SIGUPD(x30, x8, x7, x28, I_sll_cg_cp_rd_b28, I_sll_cg_cp_rd_b28_str)
    107c:	000f2383          	lw	x7,0(x30)
    1080:	01c38863          	beq	x7,x28,1090 <I_sll_cg_cp_rd_b28+0x18>
    1084:	4500346f          	jal	x8,44d4 <failedtest_x8_x7>
    1088:	00001078          	.word	0x00001078
    108c:	00009df1          	.word	0x00009df1
    1090:	004f0f13          	addi	x30,x30,4

# Testcase cp_rd (Test destination rd = x29)
  RVTEST_TESTDATA_LOAD_INT(x23, x15) # load rs1: x15 = 0x5c5cbc95
    1094:	000ba783          	lw	x15,0(x23)
    1098:	004b8b93          	addi	x23,x23,4
  RVTEST_TESTDATA_LOAD_INT(x23, x12) # load rs2: x12 = 0x8dfd7d91
    109c:	000ba603          	lw	x12,0(x23)
    10a0:	004b8b93          	addi	x23,x23,4

000010a4 <I_sll_cg_cp_rd_b29>:
I_sll_cg_cp_rd_b29:
  sll x29, x15, x12 # perform operation
    10a4:	00c79eb3          	sll	x29,x15,x12
  # Check if x29 contains the expected result. x30 is the signature ptr, x8 is the link ptr, x7 is a temp reg.
  RVTEST_SIGUPD(x30, x8, x7, x29, I_sll_cg_cp_rd_b29, I_sll_cg_cp_rd_b29_str)
    10a8:	000f2383          	lw	x7,0(x30)
    10ac:	01d38863          	beq	x7,x29,10bc <I_sll_cg_cp_rd_b29+0x18>
    10b0:	4240346f          	jal	x8,44d4 <failedtest_x8_x7>
    10b4:	000010a4          	.word	0x000010a4
    10b8:	00009e1f          	.word	0x00009e1f
    10bc:	004f0f13          	addi	x30,x30,4

  mv x20, x30 # switch signature pointer register to avoid conflict with test
    10c0:	000f0a13          	addi	x20,x30,0
# Testcase cp_rd (Test destination rd = x30)
  RVTEST_TESTDATA_LOAD_INT(x23, x19) # load rs1: x19 = 0xedd07a79
    10c4:	000ba983          	lw	x19,0(x23)
    10c8:	004b8b93          	addi	x23,x23,4
  RVTEST_TESTDATA_LOAD_INT(x23, x14) # load rs2: x14 = 0x11bce7e5
    10cc:	000ba703          	lw	x14,0(x23)
    10d0:	004b8b93          	addi	x23,x23,4

000010d4 <I_sll_cg_cp_rd_b30>:
I_sll_cg_cp_rd_b30:
  sll x30, x19, x14 # perform operation
    10d4:	00e99f33          	sll	x30,x19,x14
  # Check if x30 contains the expected result. x20 is the signature ptr, x8 is the link ptr, x7 is a temp reg.
  RVTEST_SIGUPD(x20, x8, x7, x30, I_sll_cg_cp_rd_b30, I_sll_cg_cp_rd_b30_str)
    10d8:	000a2383          	lw	x7,0(x20)
    10dc:	01e38863          	beq	x7,x30,10ec <I_sll_cg_cp_rd_b30+0x18>
    10e0:	3f40346f          	jal	x8,44d4 <failedtest_x8_x7>
    10e4:	000010d4          	.word	0x000010d4
    10e8:	00009e4d          	.word	0x00009e4d
    10ec:	004a0a13          	addi	x20,x20,4

# Testcase cp_rd (Test destination rd = x31)
  RVTEST_TESTDATA_LOAD_INT(x23, x24) # load rs1: x24 = 0xf0a872a2
    10f0:	000bac03          	lw	x24,0(x23)
    10f4:	004b8b93          	addi	x23,x23,4
  RVTEST_TESTDATA_LOAD_INT(x23, x17) # load rs2: x17 = 0x2317d52c
    10f8:	000ba883          	lw	x17,0(x23)
    10fc:	004b8b93          	addi	x23,x23,4

00001100 <I_sll_cg_cp_rd_b31>:
I_sll_cg_cp_rd_b31:
  sll x31, x24, x17 # perform operation
    1100:	011c1fb3          	sll	x31,x24,x17
  # Check if x31 contains the expected result. x20 is the signature ptr, x8 is the link ptr, x7 is a temp reg.
  RVTEST_SIGUPD(x20, x8, x7, x31, I_sll_cg_cp_rd_b31, I_sll_cg_cp_rd_b31_str)
    1104:	000a2383          	lw	x7,0(x20)
    1108:	01f38863          	beq	x7,x31,1118 <I_sll_cg_cp_rd_b31+0x18>
    110c:	3c80346f          	jal	x8,44d4 <failedtest_x8_x7>
    1110:	00001100          	.word	0x00001100
    1114:	00009e7b          	.word	0x00009e7b
    1118:	004a0a13          	addi	x20,x20,4
/////////////////////////////////
// cp_rs1_edges
/////////////////////////////////

# Testcase cp_rs1_edges (Test source rs1 value = 0x00000000)
  RVTEST_TESTDATA_LOAD_INT(x23, x25) # load rs1: x25 = 0x00000000
    111c:	000bac83          	lw	x25,0(x23)
    1120:	004b8b93          	addi	x23,x23,4
  RVTEST_TESTDATA_LOAD_INT(x23, x3) # load rs2: x3 = 0x7aac8797
    1124:	000ba183          	lw	x3,0(x23)
    1128:	004b8b93          	addi	x23,x23,4

0000112c <I_sll_cg_cp_rs1_edges_0x0>:
I_sll_cg_cp_rs1_edges_0x0:
  sll x26, x25, x3 # perform operation
    112c:	003c9d33          	sll	x26,x25,x3
  # Check if x26 contains the expected result. x20 is the signature ptr, x8 is the link ptr, x7 is a temp reg.
  RVTEST_SIGUPD(x20, x8, x7, x26, I_sll_cg_cp_rs1_edges_0x0, I_sll_cg_cp_rs1_edges_0x0_str)
    1130:	000a2383          	lw	x7,0(x20)
    1134:	01a38863          	beq	x7,x26,1144 <I_sll_cg_cp_rs1_edges_0x0+0x18>
    1138:	39c0346f          	jal	x8,44d4 <failedtest_x8_x7>
    113c:	0000112c          	.word	0x0000112c
    1140:	00009ea9          	.word	0x00009ea9
    1144:	004a0a13          	addi	x20,x20,4

# Testcase cp_rs1_edges (Test source rs1 value = 0x00000001)
  RVTEST_TESTDATA_LOAD_INT(x23, x2) # load rs1: x2 = 0x00000001
    1148:	000ba103          	lw	x2,0(x23)
    114c:	004b8b93          	addi	x23,x23,4
  RVTEST_TESTDATA_LOAD_INT(x23, x3) # load rs2: x3 = 0xd7c36ab6
    1150:	000ba183          	lw	x3,0(x23)
    1154:	004b8b93          	addi	x23,x23,4

00001158 <I_sll_cg_cp_rs1_edges_0x1>:
I_sll_cg_cp_rs1_edges_0x1:
  sll x5, x2, x3 # perform operation
    1158:	003112b3          	sll	x5,x2,x3
  # Check if x5 contains the expected result. x20 is the signature ptr, x8 is the link ptr, x7 is a temp reg.
  RVTEST_SIGUPD(x20, x8, x7, x5, I_sll_cg_cp_rs1_edges_0x1, I_sll_cg_cp_rs1_edges_0x1_str)
    115c:	000a2383          	lw	x7,0(x20)
    1160:	00538863          	beq	x7,x5,1170 <I_sll_cg_cp_rs1_edges_0x1+0x18>
    1164:	3700346f          	jal	x8,44d4 <failedtest_x8_x7>
    1168:	00001158          	.word	0x00001158
    116c:	00009ede          	.word	0x00009ede
    1170:	004a0a13          	addi	x20,x20,4

# Testcase cp_rs1_edges (Test source rs1 value = 0x00000002)
  RVTEST_TESTDATA_LOAD_INT(x23, x17) # load rs1: x17 = 0x00000002
    1174:	000ba883          	lw	x17,0(x23)
    1178:	004b8b93          	addi	x23,x23,4
  RVTEST_TESTDATA_LOAD_INT(x23, x18) # load rs2: x18 = 0x3901982d
    117c:	000ba903          	lw	x18,0(x23)
    1180:	004b8b93          	addi	x23,x23,4

00001184 <I_sll_cg_cp_rs1_edges_0x2>:
I_sll_cg_cp_rs1_edges_0x2:
  sll x31, x17, x18 # perform operation
    1184:	01289fb3          	sll	x31,x17,x18
  # Check if x31 contains the expected result. x20 is the signature ptr, x8 is the link ptr, x7 is a temp reg.
  RVTEST_SIGUPD(x20, x8, x7, x31, I_sll_cg_cp_rs1_edges_0x2, I_sll_cg_cp_rs1_edges_0x2_str)
    1188:	000a2383          	lw	x7,0(x20)
    118c:	01f38863          	beq	x7,x31,119c <I_sll_cg_cp_rs1_edges_0x2+0x18>
    1190:	3440346f          	jal	x8,44d4 <failedtest_x8_x7>
    1194:	00001184          	.word	0x00001184
    1198:	00009f13          	.word	0x00009f13
    119c:	004a0a13          	addi	x20,x20,4

# Testcase cp_rs1_edges (Test source rs1 value = 0x80000000)
  RVTEST_TESTDATA_LOAD_INT(x23, x28) # load rs1: x28 = 0x80000000
    11a0:	000bae03          	lw	x28,0(x23)
    11a4:	004b8b93          	addi	x23,x23,4
  RVTEST_TESTDATA_LOAD_INT(x23, x31) # load rs2: x31 = 0xa4c4230f
    11a8:	000baf83          	lw	x31,0(x23)
    11ac:	004b8b93          	addi	x23,x23,4

000011b0 <I_sll_cg_cp_rs1_edges_0x80000000>:
I_sll_cg_cp_rs1_edges_0x80000000:
  sll x13, x28, x31 # perform operation
    11b0:	01fe16b3          	sll	x13,x28,x31
  # Check if x13 contains the expected result. x20 is the signature ptr, x8 is the link ptr, x7 is a temp reg.
  RVTEST_SIGUPD(x20, x8, x7, x13, I_sll_cg_cp_rs1_edges_0x80000000, I_sll_cg_cp_rs1_edges_0x80000000_str)
    11b4:	000a2383          	lw	x7,0(x20)
    11b8:	00d38863          	beq	x7,x13,11c8 <I_sll_cg_cp_rs1_edges_0x80000000+0x18>
    11bc:	3180346f          	jal	x8,44d4 <failedtest_x8_x7>
    11c0:	000011b0          	.word	0x000011b0
    11c4:	00009f48          	.word	0x00009f48
    11c8:	004a0a13          	addi	x20,x20,4

# Testcase cp_rs1_edges (Test source rs1 value = 0x80000001)
  RVTEST_TESTDATA_LOAD_INT(x23, x28) # load rs1: x28 = 0x80000001
    11cc:	000bae03          	lw	x28,0(x23)
    11d0:	004b8b93          	addi	x23,x23,4
  RVTEST_TESTDATA_LOAD_INT(x23, x17) # load rs2: x17 = 0xdb45c4e5
    11d4:	000ba883          	lw	x17,0(x23)
    11d8:	004b8b93          	addi	x23,x23,4

000011dc <I_sll_cg_cp_rs1_edges_0x80000001>:
I_sll_cg_cp_rs1_edges_0x80000001:
  sll x25, x28, x17 # perform operation
    11dc:	011e1cb3          	sll	x25,x28,x17
  # Check if x25 contains the expected result. x20 is the signature ptr, x8 is the link ptr, x7 is a temp reg.
  RVTEST_SIGUPD(x20, x8, x7, x25, I_sll_cg_cp_rs1_edges_0x80000001, I_sll_cg_cp_rs1_edges_0x80000001_str)
    11e0:	000a2383          	lw	x7,0(x20)
    11e4:	01938863          	beq	x7,x25,11f4 <I_sll_cg_cp_rs1_edges_0x80000001+0x18>
    11e8:	2ec0346f          	jal	x8,44d4 <failedtest_x8_x7>
    11ec:	000011dc          	.word	0x000011dc
    11f0:	00009f85          	.word	0x00009f85
    11f4:	004a0a13          	addi	x20,x20,4

# Testcase cp_rs1_edges (Test source rs1 value = 0x7fffffff)
  RVTEST_TESTDATA_LOAD_INT(x23, x22) # load rs1: x22 = 0x7fffffff
    11f8:	000bab03          	lw	x22,0(x23)
    11fc:	004b8b93          	addi	x23,x23,4
  RVTEST_TESTDATA_LOAD_INT(x23, x30) # load rs2: x30 = 0xeffe7dd9
    1200:	000baf03          	lw	x30,0(x23)
    1204:	004b8b93          	addi	x23,x23,4

00001208 <I_sll_cg_cp_rs1_edges_0x7fffffff>:
I_sll_cg_cp_rs1_edges_0x7fffffff:
  sll x26, x22, x30 # perform operation
    1208:	01eb1d33          	sll	x26,x22,x30
  # Check if x26 contains the expected result. x20 is the signature ptr, x8 is the link ptr, x7 is a temp reg.
  RVTEST_SIGUPD(x20, x8, x7, x26, I_sll_cg_cp_rs1_edges_0x7fffffff, I_sll_cg_cp_rs1_edges_0x7fffffff_str)
    120c:	000a2383          	lw	x7,0(x20)
    1210:	01a38863          	beq	x7,x26,1220 <I_sll_cg_cp_rs1_edges_0x7fffffff+0x18>
    1214:	2c00346f          	jal	x8,44d4 <failedtest_x8_x7>
    1218:	00001208          	.word	0x00001208
    121c:	00009fc2          	.word	0x00009fc2
    1220:	004a0a13          	addi	x20,x20,4

# Testcase cp_rs1_edges (Test source rs1 value = 0x7ffffffe)
  RVTEST_TESTDATA_LOAD_INT(x23, x10) # load rs1: x10 = 0x7ffffffe
    1224:	000ba503          	lw	x10,0(x23)
    1228:	004b8b93          	addi	x23,x23,4
  RVTEST_TESTDATA_LOAD_INT(x23, x3) # load rs2: x3 = 0xa08d6f7c
    122c:	000ba183          	lw	x3,0(x23)
    1230:	004b8b93          	addi	x23,x23,4

00001234 <I_sll_cg_cp_rs1_edges_0x7ffffffe>:
I_sll_cg_cp_rs1_edges_0x7ffffffe:
  sll x4, x10, x3 # perform operation
    1234:	00351233          	sll	x4,x10,x3
  # Check if x4 contains the expected result. x20 is the signature ptr, x8 is the link ptr, x7 is a temp reg.
  RVTEST_SIGUPD(x20, x8, x7, x4, I_sll_cg_cp_rs1_edges_0x7ffffffe, I_sll_cg_cp_rs1_edges_0x7ffffffe_str)
    1238:	000a2383          	lw	x7,0(x20)
    123c:	00438863          	beq	x7,x4,124c <I_sll_cg_cp_rs1_edges_0x7ffffffe+0x18>
    1240:	2940346f          	jal	x8,44d4 <failedtest_x8_x7>
    1244:	00001234          	.word	0x00001234
    1248:	00009fff          	.word	0x00009fff
    124c:	004a0a13          	addi	x20,x20,4

# Testcase cp_rs1_edges (Test source rs1 value = 0xffffffff)
  RVTEST_TESTDATA_LOAD_INT(x23, x4) # load rs1: x4 = 0xffffffff
    1250:	000ba203          	lw	x4,0(x23)
    1254:	004b8b93          	addi	x23,x23,4
  RVTEST_TESTDATA_LOAD_INT(x23, x9) # load rs2: x9 = 0xa38a5578
    1258:	000ba483          	lw	x9,0(x23)
    125c:	004b8b93          	addi	x23,x23,4

00001260 <I_sll_cg_cp_rs1_edges_0xffffffff>:
I_sll_cg_cp_rs1_edges_0xffffffff:
  sll x28, x4, x9 # perform operation
    1260:	00921e33          	sll	x28,x4,x9
  # Check if x28 contains the expected result. x20 is the signature ptr, x8 is the link ptr, x7 is a temp reg.
  RVTEST_SIGUPD(x20, x8, x7, x28, I_sll_cg_cp_rs1_edges_0xffffffff, I_sll_cg_cp_rs1_edges_0xffffffff_str)
    1264:	000a2383          	lw	x7,0(x20)
    1268:	01c38863          	beq	x7,x28,1278 <I_sll_cg_cp_rs1_edges_0xffffffff+0x18>
    126c:	2680346f          	jal	x8,44d4 <failedtest_x8_x7>
    1270:	00001260          	.word	0x00001260
    1274:	0000a03c          	.word	0x0000a03c
    1278:	004a0a13          	addi	x20,x20,4

# Testcase cp_rs1_edges (Test source rs1 value = 0xfffffffe)
  RVTEST_TESTDATA_LOAD_INT(x23, x29) # load rs1: x29 = 0xfffffffe
    127c:	000bae83          	lw	x29,0(x23)
    1280:	004b8b93          	addi	x23,x23,4
  RVTEST_TESTDATA_LOAD_INT(x23, x21) # load rs2: x21 = 0x21af4d04
    1284:	000baa83          	lw	x21,0(x23)
    1288:	004b8b93          	addi	x23,x23,4

0000128c <I_sll_cg_cp_rs1_edges_0xfffffffe>:
I_sll_cg_cp_rs1_edges_0xfffffffe:
  sll x27, x29, x21 # perform operation
    128c:	015e9db3          	sll	x27,x29,x21
  # Check if x27 contains the expected result. x20 is the signature ptr, x8 is the link ptr, x7 is a temp reg.
  RVTEST_SIGUPD(x20, x8, x7, x27, I_sll_cg_cp_rs1_edges_0xfffffffe, I_sll_cg_cp_rs1_edges_0xfffffffe_str)
    1290:	000a2383          	lw	x7,0(x20)
    1294:	01b38863          	beq	x7,x27,12a4 <I_sll_cg_cp_rs1_edges_0xfffffffe+0x18>
    1298:	23c0346f          	jal	x8,44d4 <failedtest_x8_x7>
    129c:	0000128c          	.word	0x0000128c
    12a0:	0000a079          	.word	0x0000a079
    12a4:	004a0a13          	addi	x20,x20,4

# Testcase cp_rs1_edges (Test source rs1 value = 0x5bbc8872)
  RVTEST_TESTDATA_LOAD_INT(x23, x9) # load rs1: x9 = 0x5bbc8872
    12a8:	000ba483          	lw	x9,0(x23)
    12ac:	004b8b93          	addi	x23,x23,4
  RVTEST_TESTDATA_LOAD_INT(x23, x31) # load rs2: x31 = 0x3ec092ca
    12b0:	000baf83          	lw	x31,0(x23)
    12b4:	004b8b93          	addi	x23,x23,4

000012b8 <I_sll_cg_cp_rs1_edges_0x5bbc8872>:
I_sll_cg_cp_rs1_edges_0x5bbc8872:
  sll x17, x9, x31 # perform operation
    12b8:	01f498b3          	sll	x17,x9,x31
  # Check if x17 contains the expected result. x20 is the signature ptr, x8 is the link ptr, x7 is a temp reg.
  RVTEST_SIGUPD(x20, x8, x7, x17, I_sll_cg_cp_rs1_edges_0x5bbc8872, I_sll_cg_cp_rs1_edges_0x5bbc8872_str)
    12bc:	000a2383          	lw	x7,0(x20)
    12c0:	01138863          	beq	x7,x17,12d0 <I_sll_cg_cp_rs1_edges_0x5bbc8872+0x18>
    12c4:	2100346f          	jal	x8,44d4 <failedtest_x8_x7>
    12c8:	000012b8          	.word	0x000012b8
    12cc:	0000a0b6          	.word	0x0000a0b6
    12d0:	004a0a13          	addi	x20,x20,4

# Testcase cp_rs1_edges (Test source rs1 value = 0xaaaaaaaa)
  RVTEST_TESTDATA_LOAD_INT(x23, x14) # load rs1: x14 = 0xaaaaaaaa
    12d4:	000ba703          	lw	x14,0(x23)
    12d8:	004b8b93          	addi	x23,x23,4
  RVTEST_TESTDATA_LOAD_INT(x23, x30) # load rs2: x30 = 0xbd8152bf
    12dc:	000baf03          	lw	x30,0(x23)
    12e0:	004b8b93          	addi	x23,x23,4

000012e4 <I_sll_cg_cp_rs1_edges_0xaaaaaaaa>:
I_sll_cg_cp_rs1_edges_0xaaaaaaaa:
  sll x15, x14, x30 # perform operation
    12e4:	01e717b3          	sll	x15,x14,x30
  # Check if x15 contains the expected result. x20 is the signature ptr, x8 is the link ptr, x7 is a temp reg.
  RVTEST_SIGUPD(x20, x8, x7, x15, I_sll_cg_cp_rs1_edges_0xaaaaaaaa, I_sll_cg_cp_rs1_edges_0xaaaaaaaa_str)
    12e8:	000a2383          	lw	x7,0(x20)
    12ec:	00f38863          	beq	x7,x15,12fc <I_sll_cg_cp_rs1_edges_0xaaaaaaaa+0x18>
    12f0:	1e40346f          	jal	x8,44d4 <failedtest_x8_x7>
    12f4:	000012e4          	.word	0x000012e4
    12f8:	0000a0f3          	.word	0x0000a0f3
    12fc:	004a0a13          	addi	x20,x20,4

# Testcase cp_rs1_edges (Test source rs1 value = 0x55555555)
  RVTEST_TESTDATA_LOAD_INT(x23, x9) # load rs1: x9 = 0x55555555
    1300:	000ba483          	lw	x9,0(x23)
    1304:	004b8b93          	addi	x23,x23,4
  RVTEST_TESTDATA_LOAD_INT(x23, x22) # load rs2: x22 = 0x3cc4b95f
    1308:	000bab03          	lw	x22,0(x23)
    130c:	004b8b93          	addi	x23,x23,4

00001310 <I_sll_cg_cp_rs1_edges_0x55555555>:
I_sll_cg_cp_rs1_edges_0x55555555:
  sll x11, x9, x22 # perform operation
    1310:	016495b3          	sll	x11,x9,x22
  # Check if x11 contains the expected result. x20 is the signature ptr, x8 is the link ptr, x7 is a temp reg.
  RVTEST_SIGUPD(x20, x8, x7, x11, I_sll_cg_cp_rs1_edges_0x55555555, I_sll_cg_cp_rs1_edges_0x55555555_str)
    1314:	000a2383          	lw	x7,0(x20)
    1318:	00b38863          	beq	x7,x11,1328 <I_sll_cg_cp_rs1_edges_0x55555555+0x18>
    131c:	1b80346f          	jal	x8,44d4 <failedtest_x8_x7>
    1320:	00001310          	.word	0x00001310
    1324:	0000a130          	.word	0x0000a130
    1328:	004a0a13          	addi	x20,x20,4
/////////////////////////////////
// cp_rs2_edges
/////////////////////////////////

# Testcase cp_rs2_edges (Test source rs2 value = 0x00000000)
  RVTEST_TESTDATA_LOAD_INT(x23, x18) # load rs1: x18 = 0x6f2a7872
    132c:	000ba903          	lw	x18,0(x23)
    1330:	004b8b93          	addi	x23,x23,4
  RVTEST_TESTDATA_LOAD_INT(x23, x4) # load rs2: x4 = 0x00000000
    1334:	000ba203          	lw	x4,0(x23)
    1338:	004b8b93          	addi	x23,x23,4

0000133c <I_sll_cg_cp_rs2_edges_0x0>:
I_sll_cg_cp_rs2_edges_0x0:
  sll x31, x18, x4 # perform operation
    133c:	00491fb3          	sll	x31,x18,x4
  # Check if x31 contains the expected result. x20 is the signature ptr, x8 is the link ptr, x7 is a temp reg.
  RVTEST_SIGUPD(x20, x8, x7, x31, I_sll_cg_cp_rs2_edges_0x0, I_sll_cg_cp_rs2_edges_0x0_str)
    1340:	000a2383          	lw	x7,0(x20)
    1344:	01f38863          	beq	x7,x31,1354 <I_sll_cg_cp_rs2_edges_0x0+0x18>
    1348:	18c0346f          	jal	x8,44d4 <failedtest_x8_x7>
    134c:	0000133c          	.word	0x0000133c
    1350:	0000a16d          	.word	0x0000a16d
    1354:	004a0a13          	addi	x20,x20,4

# Testcase cp_rs2_edges (Test source rs2 value = 0x00000001)
  RVTEST_TESTDATA_LOAD_INT(x23, x3) # load rs1: x3 = 0x0ec07319
    1358:	000ba183          	lw	x3,0(x23)
    135c:	004b8b93          	addi	x23,x23,4
  RVTEST_TESTDATA_LOAD_INT(x23, x26) # load rs2: x26 = 0x00000001
    1360:	000bad03          	lw	x26,0(x23)
    1364:	004b8b93          	addi	x23,x23,4

00001368 <I_sll_cg_cp_rs2_edges_0x1>:
I_sll_cg_cp_rs2_edges_0x1:
  sll x17, x3, x26 # perform operation
    1368:	01a198b3          	sll	x17,x3,x26
  # Check if x17 contains the expected result. x20 is the signature ptr, x8 is the link ptr, x7 is a temp reg.
  RVTEST_SIGUPD(x20, x8, x7, x17, I_sll_cg_cp_rs2_edges_0x1, I_sll_cg_cp_rs2_edges_0x1_str)
    136c:	000a2383          	lw	x7,0(x20)
    1370:	01138863          	beq	x7,x17,1380 <I_sll_cg_cp_rs2_edges_0x1+0x18>
    1374:	1600346f          	jal	x8,44d4 <failedtest_x8_x7>
    1378:	00001368          	.word	0x00001368
    137c:	0000a1a3          	.word	0x0000a1a3
    1380:	004a0a13          	addi	x20,x20,4

# Testcase cp_rs2_edges (Test source rs2 value = 0x00000002)
  RVTEST_TESTDATA_LOAD_INT(x23, x1) # load rs1: x1 = 0xdb72b101
    1384:	000ba083          	lw	x1,0(x23)
    1388:	004b8b93          	addi	x23,x23,4
  RVTEST_TESTDATA_LOAD_INT(x23, x19) # load rs2: x19 = 0x00000002
    138c:	000ba983          	lw	x19,0(x23)
    1390:	004b8b93          	addi	x23,x23,4

00001394 <I_sll_cg_cp_rs2_edges_0x2>:
I_sll_cg_cp_rs2_edges_0x2:
  sll x29, x1, x19 # perform operation
    1394:	01309eb3          	sll	x29,x1,x19
  # Check if x29 contains the expected result. x20 is the signature ptr, x8 is the link ptr, x7 is a temp reg.
  RVTEST_SIGUPD(x20, x8, x7, x29, I_sll_cg_cp_rs2_edges_0x2, I_sll_cg_cp_rs2_edges_0x2_str)
    1398:	000a2383          	lw	x7,0(x20)
    139c:	01d38863          	beq	x7,x29,13ac <I_sll_cg_cp_rs2_edges_0x2+0x18>
    13a0:	1340346f          	jal	x8,44d4 <failedtest_x8_x7>
    13a4:	00001394          	.word	0x00001394
    13a8:	0000a1d9          	.word	0x0000a1d9
    13ac:	004a0a13          	addi	x20,x20,4

# Testcase cp_rs2_edges (Test source rs2 value = 0x80000000)
  RVTEST_TESTDATA_LOAD_INT(x23, x28) # load rs1: x28 = 0xc5830ee3
    13b0:	000bae03          	lw	x28,0(x23)
    13b4:	004b8b93          	addi	x23,x23,4
  RVTEST_TESTDATA_LOAD_INT(x23, x16) # load rs2: x16 = 0x80000000
    13b8:	000ba803          	lw	x16,0(x23)
    13bc:	004b8b93          	addi	x23,x23,4

000013c0 <I_sll_cg_cp_rs2_edges_0x80000000>:
I_sll_cg_cp_rs2_edges_0x80000000:
  sll x21, x28, x16 # perform operation
    13c0:	010e1ab3          	sll	x21,x28,x16
  # Check if x21 contains the expected result. x20 is the signature ptr, x8 is the link ptr, x7 is a temp reg.
  RVTEST_SIGUPD(x20, x8, x7, x21, I_sll_cg_cp_rs2_edges_0x80000000, I_sll_cg_cp_rs2_edges_0x80000000_str)
    13c4:	000a2383          	lw	x7,0(x20)
    13c8:	01538863          	beq	x7,x21,13d8 <I_sll_cg_cp_rs2_edges_0x80000000+0x18>
    13cc:	1080346f          	jal	x8,44d4 <failedtest_x8_x7>
    13d0:	000013c0          	.word	0x000013c0
    13d4:	0000a20f          	.word	0x0000a20f
    13d8:	004a0a13          	addi	x20,x20,4

# Testcase cp_rs2_edges (Test source rs2 value = 0x80000001)
  RVTEST_TESTDATA_LOAD_INT(x23, x18) # load rs1: x18 = 0x43e9c135
    13dc:	000ba903          	lw	x18,0(x23)
    13e0:	004b8b93          	addi	x23,x23,4
  RVTEST_TESTDATA_LOAD_INT(x23, x17) # load rs2: x17 = 0x80000001
    13e4:	000ba883          	lw	x17,0(x23)
    13e8:	004b8b93          	addi	x23,x23,4

000013ec <I_sll_cg_cp_rs2_edges_0x80000001>:
I_sll_cg_cp_rs2_edges_0x80000001:
  sll x31, x18, x17 # perform operation
    13ec:	01191fb3          	sll	x31,x18,x17
  # Check if x31 contains the expected result. x20 is the signature ptr, x8 is the link ptr, x7 is a temp reg.
  RVTEST_SIGUPD(x20, x8, x7, x31, I_sll_cg_cp_rs2_edges_0x80000001, I_sll_cg_cp_rs2_edges_0x80000001_str)
    13f0:	000a2383          	lw	x7,0(x20)
    13f4:	01f38863          	beq	x7,x31,1404 <I_sll_cg_cp_rs2_edges_0x80000001+0x18>
    13f8:	0dc0346f          	jal	x8,44d4 <failedtest_x8_x7>
    13fc:	000013ec          	.word	0x000013ec
    1400:	0000a24c          	.word	0x0000a24c
    1404:	004a0a13          	addi	x20,x20,4

# Testcase cp_rs2_edges (Test source rs2 value = 0x7fffffff)
  RVTEST_TESTDATA_LOAD_INT(x23, x27) # load rs1: x27 = 0x5c5e6763
    1408:	000bad83          	lw	x27,0(x23)
    140c:	004b8b93          	addi	x23,x23,4
  RVTEST_TESTDATA_LOAD_INT(x23, x30) # load rs2: x30 = 0x7fffffff
    1410:	000baf03          	lw	x30,0(x23)
    1414:	004b8b93          	addi	x23,x23,4

00001418 <I_sll_cg_cp_rs2_edges_0x7fffffff>:
I_sll_cg_cp_rs2_edges_0x7fffffff:
  sll x25, x27, x30 # perform operation
    1418:	01ed9cb3          	sll	x25,x27,x30
  # Check if x25 contains the expected result. x20 is the signature ptr, x8 is the link ptr, x7 is a temp reg.
  RVTEST_SIGUPD(x20, x8, x7, x25, I_sll_cg_cp_rs2_edges_0x7fffffff, I_sll_cg_cp_rs2_edges_0x7fffffff_str)
    141c:	000a2383          	lw	x7,0(x20)
    1420:	01938863          	beq	x7,x25,1430 <I_sll_cg_cp_rs2_edges_0x7fffffff+0x18>
    1424:	0b00346f          	jal	x8,44d4 <failedtest_x8_x7>
    1428:	00001418          	.word	0x00001418
    142c:	0000a289          	.word	0x0000a289
    1430:	004a0a13          	addi	x20,x20,4

# Testcase cp_rs2_edges (Test source rs2 value = 0x7ffffffe)
  RVTEST_TESTDATA_LOAD_INT(x23, x25) # load rs1: x25 = 0x1c564e8a
    1434:	000bac83          	lw	x25,0(x23)
    1438:	004b8b93          	addi	x23,x23,4
  RVTEST_TESTDATA_LOAD_INT(x23, x2) # load rs2: x2 = 0x7ffffffe
    143c:	000ba103          	lw	x2,0(x23)
    1440:	004b8b93          	addi	x23,x23,4

00001444 <I_sll_cg_cp_rs2_edges_0x7ffffffe>:
I_sll_cg_cp_rs2_edges_0x7ffffffe:
  sll x19, x25, x2 # perform operation
    1444:	002c99b3          	sll	x19,x25,x2
  # Check if x19 contains the expected result. x20 is the signature ptr, x8 is the link ptr, x7 is a temp reg.
  RVTEST_SIGUPD(x20, x8, x7, x19, I_sll_cg_cp_rs2_edges_0x7ffffffe, I_sll_cg_cp_rs2_edges_0x7ffffffe_str)
    1448:	000a2383          	lw	x7,0(x20)
    144c:	01338863          	beq	x7,x19,145c <I_sll_cg_cp_rs2_edges_0x7ffffffe+0x18>
    1450:	0840346f          	jal	x8,44d4 <failedtest_x8_x7>
    1454:	00001444          	.word	0x00001444
    1458:	0000a2c6          	.word	0x0000a2c6
    145c:	004a0a13          	addi	x20,x20,4

# Testcase cp_rs2_edges (Test source rs2 value = 0xffffffff)
  RVTEST_TESTDATA_LOAD_INT(x23, x13) # load rs1: x13 = 0x8548af6a
    1460:	000ba683          	lw	x13,0(x23)
    1464:	004b8b93          	addi	x23,x23,4
  RVTEST_TESTDATA_LOAD_INT(x23, x4) # load rs2: x4 = 0xffffffff
    1468:	000ba203          	lw	x4,0(x23)
    146c:	004b8b93          	addi	x23,x23,4

00001470 <I_sll_cg_cp_rs2_edges_0xffffffff>:
I_sll_cg_cp_rs2_edges_0xffffffff:
  sll x1, x13, x4 # perform operation
    1470:	004690b3          	sll	x1,x13,x4
  # Check if x1 contains the expected result. x20 is the signature ptr, x8 is the link ptr, x7 is a temp reg.
  RVTEST_SIGUPD(x20, x8, x7, x1, I_sll_cg_cp_rs2_edges_0xffffffff, I_sll_cg_cp_rs2_edges_0xffffffff_str)
    1474:	000a2383          	lw	x7,0(x20)
    1478:	00138863          	beq	x7,x1,1488 <I_sll_cg_cp_rs2_edges_0xffffffff+0x18>
    147c:	0580346f          	jal	x8,44d4 <failedtest_x8_x7>
    1480:	00001470          	.word	0x00001470
    1484:	0000a303          	.word	0x0000a303
    1488:	004a0a13          	addi	x20,x20,4

# Testcase cp_rs2_edges (Test source rs2 value = 0xfffffffe)
  RVTEST_TESTDATA_LOAD_INT(x23, x14) # load rs1: x14 = 0x09753e1d
    148c:	000ba703          	lw	x14,0(x23)
    1490:	004b8b93          	addi	x23,x23,4
  RVTEST_TESTDATA_LOAD_INT(x23, x9) # load rs2: x9 = 0xfffffffe
    1494:	000ba483          	lw	x9,0(x23)
    1498:	004b8b93          	addi	x23,x23,4

0000149c <I_sll_cg_cp_rs2_edges_0xfffffffe>:
I_sll_cg_cp_rs2_edges_0xfffffffe:
  sll x6, x14, x9 # perform operation
    149c:	00971333          	sll	x6,x14,x9
  # Check if x6 contains the expected result. x20 is the signature ptr, x8 is the link ptr, x7 is a temp reg.
  RVTEST_SIGUPD(x20, x8, x7, x6, I_sll_cg_cp_rs2_edges_0xfffffffe, I_sll_cg_cp_rs2_edges_0xfffffffe_str)
    14a0:	000a2383          	lw	x7,0(x20)
    14a4:	00638863          	beq	x7,x6,14b4 <I_sll_cg_cp_rs2_edges_0xfffffffe+0x18>
    14a8:	02c0346f          	jal	x8,44d4 <failedtest_x8_x7>
    14ac:	0000149c          	.word	0x0000149c
    14b0:	0000a340          	.word	0x0000a340
    14b4:	004a0a13          	addi	x20,x20,4

# Testcase cp_rs2_edges (Test source rs2 value = 0x5bbc8872)
  RVTEST_TESTDATA_LOAD_INT(x23, x19) # load rs1: x19 = 0x4c4748a6
    14b8:	000ba983          	lw	x19,0(x23)
    14bc:	004b8b93          	addi	x23,x23,4
  RVTEST_TESTDATA_LOAD_INT(x23, x25) # load rs2: x25 = 0x5bbc8872
    14c0:	000bac83          	lw	x25,0(x23)
    14c4:	004b8b93          	addi	x23,x23,4

000014c8 <I_sll_cg_cp_rs2_edges_0x5bbc8872>:
I_sll_cg_cp_rs2_edges_0x5bbc8872:
  sll x12, x19, x25 # perform operation
    14c8:	01999633          	sll	x12,x19,x25
  # Check if x12 contains the expected result. x20 is the signature ptr, x8 is the link ptr, x7 is a temp reg.
  RVTEST_SIGUPD(x20, x8, x7, x12, I_sll_cg_cp_rs2_edges_0x5bbc8872, I_sll_cg_cp_rs2_edges_0x5bbc8872_str)
    14cc:	000a2383          	lw	x7,0(x20)
    14d0:	00c38863          	beq	x7,x12,14e0 <I_sll_cg_cp_rs2_edges_0x5bbc8872+0x18>
    14d4:	0000346f          	jal	x8,44d4 <failedtest_x8_x7>
    14d8:	000014c8          	.word	0x000014c8
    14dc:	0000a37d          	.word	0x0000a37d
    14e0:	004a0a13          	addi	x20,x20,4

# Testcase cp_rs2_edges (Test source rs2 value = 0xaaaaaaaa)
  RVTEST_TESTDATA_LOAD_INT(x23, x30) # load rs1: x30 = 0x7d9fef05
    14e4:	000baf03          	lw	x30,0(x23)
    14e8:	004b8b93          	addi	x23,x23,4
  RVTEST_TESTDATA_LOAD_INT(x23, x4) # load rs2: x4 = 0xaaaaaaaa
    14ec:	000ba203          	lw	x4,0(x23)
    14f0:	004b8b93          	addi	x23,x23,4

000014f4 <I_sll_cg_cp_rs2_edges_0xaaaaaaaa>:
I_sll_cg_cp_rs2_edges_0xaaaaaaaa:
  sll x17, x30, x4 # perform operation
    14f4:	004f18b3          	sll	x17,x30,x4
  # Check if x17 contains the expected result. x20 is the signature ptr, x8 is the link ptr, x7 is a temp reg.
  RVTEST_SIGUPD(x20, x8, x7, x17, I_sll_cg_cp_rs2_edges_0xaaaaaaaa, I_sll_cg_cp_rs2_edges_0xaaaaaaaa_str)
    14f8:	000a2383          	lw	x7,0(x20)
    14fc:	01138863          	beq	x7,x17,150c <I_sll_cg_cp_rs2_edges_0xaaaaaaaa+0x18>
    1500:	7d50246f          	jal	x8,44d4 <failedtest_x8_x7>
    1504:	000014f4          	.word	0x000014f4
    1508:	0000a3ba          	.word	0x0000a3ba
    150c:	004a0a13          	addi	x20,x20,4

# Testcase cp_rs2_edges (Test source rs2 value = 0x55555555)
  RVTEST_TESTDATA_LOAD_INT(x23, x22) # load rs1: x22 = 0x824de8bc
    1510:	000bab03          	lw	x22,0(x23)
    1514:	004b8b93          	addi	x23,x23,4
  RVTEST_TESTDATA_LOAD_INT(x23, x1) # load rs2: x1 = 0x55555555
    1518:	000ba083          	lw	x1,0(x23)
    151c:	004b8b93          	addi	x23,x23,4

00001520 <I_sll_cg_cp_rs2_edges_0x55555555>:
I_sll_cg_cp_rs2_edges_0x55555555:
  sll x26, x22, x1 # perform operation
    1520:	001b1d33          	sll	x26,x22,x1
  # Check if x26 contains the expected result. x20 is the signature ptr, x8 is the link ptr, x7 is a temp reg.
  RVTEST_SIGUPD(x20, x8, x7, x26, I_sll_cg_cp_rs2_edges_0x55555555, I_sll_cg_cp_rs2_edges_0x55555555_str)
    1524:	000a2383          	lw	x7,0(x20)
    1528:	01a38863          	beq	x7,x26,1538 <I_sll_cg_cp_rs2_edges_0x55555555+0x18>
    152c:	7a90246f          	jal	x8,44d4 <failedtest_x8_x7>
    1530:	00001520          	.word	0x00001520
    1534:	0000a3f7          	.word	0x0000a3f7
    1538:	004a0a13          	addi	x20,x20,4
/////////////////////////////////
// cr_rs1_rs2_edges
/////////////////////////////////

# Testcase cr_rs1_rs2_edges (Test source rs1 = 0x00000000 rs2 = 0x00000000)
  RVTEST_TESTDATA_LOAD_INT(x23, x4) # load rs1: x4 = 0x00000000
    153c:	000ba203          	lw	x4,0(x23)
    1540:	004b8b93          	addi	x23,x23,4
  RVTEST_TESTDATA_LOAD_INT(x23, x30) # load rs2: x30 = 0x00000000
    1544:	000baf03          	lw	x30,0(x23)
    1548:	004b8b93          	addi	x23,x23,4

0000154c <I_sll_cg_cr_rs1_rs2_edges_rs1val_0x0_rs2val_0x0>:
I_sll_cg_cr_rs1_rs2_edges_rs1val_0x0_rs2val_0x0:
  sll x5, x4, x30 # perform operation
    154c:	01e212b3          	sll	x5,x4,x30
  # Check if x5 contains the expected result. x20 is the signature ptr, x8 is the link ptr, x7 is a temp reg.
  RVTEST_SIGUPD(x20, x8, x7, x5, I_sll_cg_cr_rs1_rs2_edges_rs1val_0x0_rs2val_0x0, I_sll_cg_cr_rs1_rs2_edges_rs1val_0x0_rs2val_0x0_str)
    1550:	000a2383          	lw	x7,0(x20)
    1554:	00538863          	beq	x7,x5,1564 <I_sll_cg_cr_rs1_rs2_edges_rs1val_0x0_rs2val_0x0+0x18>
    1558:	77d0246f          	jal	x8,44d4 <failedtest_x8_x7>
    155c:	0000154c          	.word	0x0000154c
    1560:	0000a434          	.word	0x0000a434
    1564:	004a0a13          	addi	x20,x20,4

# Testcase cr_rs1_rs2_edges (Test source rs1 = 0x00000000 rs2 = 0x00000001)
  RVTEST_TESTDATA_LOAD_INT(x23, x11) # load rs1: x11 = 0x00000000
    1568:	000ba583          	lw	x11,0(x23)
    156c:	004b8b93          	addi	x23,x23,4
  RVTEST_TESTDATA_LOAD_INT(x23, x28) # load rs2: x28 = 0x00000001
    1570:	000bae03          	lw	x28,0(x23)
    1574:	004b8b93          	addi	x23,x23,4

00001578 <I_sll_cg_cr_rs1_rs2_edges_rs1val_0x0_rs2val_0x1>:
I_sll_cg_cr_rs1_rs2_edges_rs1val_0x0_rs2val_0x1:
  sll x6, x11, x28 # perform operation
    1578:	01c59333          	sll	x6,x11,x28
  # Check if x6 contains the expected result. x20 is the signature ptr, x8 is the link ptr, x7 is a temp reg.
  RVTEST_SIGUPD(x20, x8, x7, x6, I_sll_cg_cr_rs1_rs2_edges_rs1val_0x0_rs2val_0x1, I_sll_cg_cr_rs1_rs2_edges_rs1val_0x0_rs2val_0x1_str)
    157c:	000a2383          	lw	x7,0(x20)
    1580:	00638863          	beq	x7,x6,1590 <I_sll_cg_cr_rs1_rs2_edges_rs1val_0x0_rs2val_0x1+0x18>
    1584:	7510246f          	jal	x8,44d4 <failedtest_x8_x7>
    1588:	00001578          	.word	0x00001578
    158c:	0000a481          	.word	0x0000a481
    1590:	004a0a13          	addi	x20,x20,4

# Testcase cr_rs1_rs2_edges (Test source rs1 = 0x00000000 rs2 = 0x00000002)
  RVTEST_TESTDATA_LOAD_INT(x23, x2) # load rs1: x2 = 0x00000000
    1594:	000ba103          	lw	x2,0(x23)
    1598:	004b8b93          	addi	x23,x23,4
  RVTEST_TESTDATA_LOAD_INT(x23, x29) # load rs2: x29 = 0x00000002
    159c:	000bae83          	lw	x29,0(x23)
    15a0:	004b8b93          	addi	x23,x23,4

000015a4 <I_sll_cg_cr_rs1_rs2_edges_rs1val_0x0_rs2val_0x2>:
I_sll_cg_cr_rs1_rs2_edges_rs1val_0x0_rs2val_0x2:
  sll x10, x2, x29 # perform operation
    15a4:	01d11533          	sll	x10,x2,x29
  # Check if x10 contains the expected result. x20 is the signature ptr, x8 is the link ptr, x7 is a temp reg.
  RVTEST_SIGUPD(x20, x8, x7, x10, I_sll_cg_cr_rs1_rs2_edges_rs1val_0x0_rs2val_0x2, I_sll_cg_cr_rs1_rs2_edges_rs1val_0x0_rs2val_0x2_str)
    15a8:	000a2383          	lw	x7,0(x20)
    15ac:	00a38863          	beq	x7,x10,15bc <I_sll_cg_cr_rs1_rs2_edges_rs1val_0x0_rs2val_0x2+0x18>
    15b0:	7250246f          	jal	x8,44d4 <failedtest_x8_x7>
    15b4:	000015a4          	.word	0x000015a4
    15b8:	0000a4ce          	.word	0x0000a4ce
    15bc:	004a0a13          	addi	x20,x20,4

# Testcase cr_rs1_rs2_edges (Test source rs1 = 0x00000000 rs2 = 0x80000000)
  RVTEST_TESTDATA_LOAD_INT(x23, x28) # load rs1: x28 = 0x00000000
    15c0:	000bae03          	lw	x28,0(x23)
    15c4:	004b8b93          	addi	x23,x23,4
  RVTEST_TESTDATA_LOAD_INT(x23, x3) # load rs2: x3 = 0x80000000
    15c8:	000ba183          	lw	x3,0(x23)
    15cc:	004b8b93          	addi	x23,x23,4

000015d0 <I_sll_cg_cr_rs1_rs2_edges_rs1val_0x0_rs2val_0x80000000>:
I_sll_cg_cr_rs1_rs2_edges_rs1val_0x0_rs2val_0x80000000:
  sll x19, x28, x3 # perform operation
    15d0:	003e19b3          	sll	x19,x28,x3
  # Check if x19 contains the expected result. x20 is the signature ptr, x8 is the link ptr, x7 is a temp reg.
  RVTEST_SIGUPD(x20, x8, x7, x19, I_sll_cg_cr_rs1_rs2_edges_rs1val_0x0_rs2val_0x80000000, I_sll_cg_cr_rs1_rs2_edges_rs1val_0x0_rs2val_0x80000000_str)
    15d4:	000a2383          	lw	x7,0(x20)
    15d8:	01338863          	beq	x7,x19,15e8 <I_sll_cg_cr_rs1_rs2_edges_rs1val_0x0_rs2val_0x80000000+0x18>
    15dc:	6f90246f          	jal	x8,44d4 <failedtest_x8_x7>
    15e0:	000015d0          	.word	0x000015d0
    15e4:	0000a51b          	.word	0x0000a51b
    15e8:	004a0a13          	addi	x20,x20,4

# Testcase cr_rs1_rs2_edges (Test source rs1 = 0x00000000 rs2 = 0x80000001)
  RVTEST_TESTDATA_LOAD_INT(x23, x2) # load rs1: x2 = 0x00000000
    15ec:	000ba103          	lw	x2,0(x23)
    15f0:	004b8b93          	addi	x23,x23,4
  RVTEST_TESTDATA_LOAD_INT(x23, x9) # load rs2: x9 = 0x80000001
    15f4:	000ba483          	lw	x9,0(x23)
    15f8:	004b8b93          	addi	x23,x23,4

000015fc <I_sll_cg_cr_rs1_rs2_edges_rs1val_0x0_rs2val_0x80000001>:
I_sll_cg_cr_rs1_rs2_edges_rs1val_0x0_rs2val_0x80000001:
  sll x1, x2, x9 # perform operation
    15fc:	009110b3          	sll	x1,x2,x9
  # Check if x1 contains the expected result. x20 is the signature ptr, x8 is the link ptr, x7 is a temp reg.
  RVTEST_SIGUPD(x20, x8, x7, x1, I_sll_cg_cr_rs1_rs2_edges_rs1val_0x0_rs2val_0x80000001, I_sll_cg_cr_rs1_rs2_edges_rs1val_0x0_rs2val_0x80000001_str)
    1600:	000a2383          	lw	x7,0(x20)
    1604:	00138863          	beq	x7,x1,1614 <I_sll_cg_cr_rs1_rs2_edges_rs1val_0x0_rs2val_0x80000001+0x18>
    1608:	6cd0246f          	jal	x8,44d4 <failedtest_x8_x7>
    160c:	000015fc          	.word	0x000015fc
    1610:	0000a56f          	.word	0x0000a56f
    1614:	004a0a13          	addi	x20,x20,4

# Testcase cr_rs1_rs2_edges (Test source rs1 = 0x00000000 rs2 = 0x7fffffff)
  RVTEST_TESTDATA_LOAD_INT(x23, x11) # load rs1: x11 = 0x00000000
    1618:	000ba583          	lw	x11,0(x23)
    161c:	004b8b93          	addi	x23,x23,4
  RVTEST_TESTDATA_LOAD_INT(x23, x26) # load rs2: x26 = 0x7fffffff
    1620:	000bad03          	lw	x26,0(x23)
    1624:	004b8b93          	addi	x23,x23,4

00001628 <I_sll_cg_cr_rs1_rs2_edges_rs1val_0x0_rs2val_0x7fffffff>:
I_sll_cg_cr_rs1_rs2_edges_rs1val_0x0_rs2val_0x7fffffff:
  sll x15, x11, x26 # perform operation
    1628:	01a597b3          	sll	x15,x11,x26
  # Check if x15 contains the expected result. x20 is the signature ptr, x8 is the link ptr, x7 is a temp reg.
  RVTEST_SIGUPD(x20, x8, x7, x15, I_sll_cg_cr_rs1_rs2_edges_rs1val_0x0_rs2val_0x7fffffff, I_sll_cg_cr_rs1_rs2_edges_rs1val_0x0_rs2val_0x7fffffff_str)
    162c:	000a2383          	lw	x7,0(x20)
    1630:	00f38863          	beq	x7,x15,1640 <I_sll_cg_cr_rs1_rs2_edges_rs1val_0x0_rs2val_0x7fffffff+0x18>
    1634:	6a10246f          	jal	x8,44d4 <failedtest_x8_x7>
    1638:	00001628          	.word	0x00001628
    163c:	0000a5c3          	.word	0x0000a5c3
    1640:	004a0a13          	addi	x20,x20,4

# Testcase cr_rs1_rs2_edges (Test source rs1 = 0x00000000 rs2 = 0x7ffffffe)
  RVTEST_TESTDATA_LOAD_INT(x23, x2) # load rs1: x2 = 0x00000000
    1644:	000ba103          	lw	x2,0(x23)
    1648:	004b8b93          	addi	x23,x23,4
  RVTEST_TESTDATA_LOAD_INT(x23, x13) # load rs2: x13 = 0x7ffffffe
    164c:	000ba683          	lw	x13,0(x23)
    1650:	004b8b93          	addi	x23,x23,4

00001654 <I_sll_cg_cr_rs1_rs2_edges_rs1val_0x0_rs2val_0x7ffffffe>:
I_sll_cg_cr_rs1_rs2_edges_rs1val_0x0_rs2val_0x7ffffffe:
  sll x19, x2, x13 # perform operation
    1654:	00d119b3          	sll	x19,x2,x13
  # Check if x19 contains the expected result. x20 is the signature ptr, x8 is the link ptr, x7 is a temp reg.
  RVTEST_SIGUPD(x20, x8, x7, x19, I_sll_cg_cr_rs1_rs2_edges_rs1val_0x0_rs2val_0x7ffffffe, I_sll_cg_cr_rs1_rs2_edges_rs1val_0x0_rs2val_0x7ffffffe_str)
    1658:	000a2383          	lw	x7,0(x20)
    165c:	01338863          	beq	x7,x19,166c <I_sll_cg_cr_rs1_rs2_edges_rs1val_0x0_rs2val_0x7ffffffe+0x18>
    1660:	6750246f          	jal	x8,44d4 <failedtest_x8_x7>
    1664:	00001654          	.word	0x00001654
    1668:	0000a617          	.word	0x0000a617
    166c:	004a0a13          	addi	x20,x20,4

# Testcase cr_rs1_rs2_edges (Test source rs1 = 0x00000000 rs2 = 0xffffffff)
  RVTEST_TESTDATA_LOAD_INT(x23, x12) # load rs1: x12 = 0x00000000
    1670:	000ba603          	lw	x12,0(x23)
    1674:	004b8b93          	addi	x23,x23,4
  RVTEST_TESTDATA_LOAD_INT(x23, x6) # load rs2: x6 = 0xffffffff
    1678:	000ba303          	lw	x6,0(x23)
    167c:	004b8b93          	addi	x23,x23,4

00001680 <I_sll_cg_cr_rs1_rs2_edges_rs1val_0x0_rs2val_0xffffffff>:
I_sll_cg_cr_rs1_rs2_edges_rs1val_0x0_rs2val_0xffffffff:
  sll x25, x12, x6 # perform operation
    1680:	00661cb3          	sll	x25,x12,x6
  # Check if x25 contains the expected result. x20 is the signature ptr, x8 is the link ptr, x7 is a temp reg.
  RVTEST_SIGUPD(x20, x8, x7, x25, I_sll_cg_cr_rs1_rs2_edges_rs1val_0x0_rs2val_0xffffffff, I_sll_cg_cr_rs1_rs2_edges_rs1val_0x0_rs2val_0xffffffff_str)
    1684:	000a2383          	lw	x7,0(x20)
    1688:	01938863          	beq	x7,x25,1698 <I_sll_cg_cr_rs1_rs2_edges_rs1val_0x0_rs2val_0xffffffff+0x18>
    168c:	6490246f          	jal	x8,44d4 <failedtest_x8_x7>
    1690:	00001680          	.word	0x00001680
    1694:	0000a66b          	.word	0x0000a66b
    1698:	004a0a13          	addi	x20,x20,4

# Testcase cr_rs1_rs2_edges (Test source rs1 = 0x00000000 rs2 = 0xfffffffe)
  RVTEST_TESTDATA_LOAD_INT(x23, x29) # load rs1: x29 = 0x00000000
    169c:	000bae83          	lw	x29,0(x23)
    16a0:	004b8b93          	addi	x23,x23,4
  RVTEST_TESTDATA_LOAD_INT(x23, x18) # load rs2: x18 = 0xfffffffe
    16a4:	000ba903          	lw	x18,0(x23)
    16a8:	004b8b93          	addi	x23,x23,4

000016ac <I_sll_cg_cr_rs1_rs2_edges_rs1val_0x0_rs2val_0xfffffffe>:
I_sll_cg_cr_rs1_rs2_edges_rs1val_0x0_rs2val_0xfffffffe:
  sll x1, x29, x18 # perform operation
    16ac:	012e90b3          	sll	x1,x29,x18
  # Check if x1 contains the expected result. x20 is the signature ptr, x8 is the link ptr, x7 is a temp reg.
  RVTEST_SIGUPD(x20, x8, x7, x1, I_sll_cg_cr_rs1_rs2_edges_rs1val_0x0_rs2val_0xfffffffe, I_sll_cg_cr_rs1_rs2_edges_rs1val_0x0_rs2val_0xfffffffe_str)
    16b0:	000a2383          	lw	x7,0(x20)
    16b4:	00138863          	beq	x7,x1,16c4 <I_sll_cg_cr_rs1_rs2_edges_rs1val_0x0_rs2val_0xfffffffe+0x18>
    16b8:	61d0246f          	jal	x8,44d4 <failedtest_x8_x7>
    16bc:	000016ac          	.word	0x000016ac
    16c0:	0000a6bf          	.word	0x0000a6bf
    16c4:	004a0a13          	addi	x20,x20,4

# Testcase cr_rs1_rs2_edges (Test source rs1 = 0x00000000 rs2 = 0x5bbc8872)
  RVTEST_TESTDATA_LOAD_INT(x23, x18) # load rs1: x18 = 0x00000000
    16c8:	000ba903          	lw	x18,0(x23)
    16cc:	004b8b93          	addi	x23,x23,4
  RVTEST_TESTDATA_LOAD_INT(x23, x2) # load rs2: x2 = 0x5bbc8872
    16d0:	000ba103          	lw	x2,0(x23)
    16d4:	004b8b93          	addi	x23,x23,4

000016d8 <I_sll_cg_cr_rs1_rs2_edges_rs1val_0x0_rs2val_0x5bbc8872>:
I_sll_cg_cr_rs1_rs2_edges_rs1val_0x0_rs2val_0x5bbc8872:
  sll x19, x18, x2 # perform operation
    16d8:	002919b3          	sll	x19,x18,x2
  # Check if x19 contains the expected result. x20 is the signature ptr, x8 is the link ptr, x7 is a temp reg.
  RVTEST_SIGUPD(x20, x8, x7, x19, I_sll_cg_cr_rs1_rs2_edges_rs1val_0x0_rs2val_0x5bbc8872, I_sll_cg_cr_rs1_rs2_edges_rs1val_0x0_rs2val_0x5bbc8872_str)
    16dc:	000a2383          	lw	x7,0(x20)
    16e0:	01338863          	beq	x7,x19,16f0 <I_sll_cg_cr_rs1_rs2_edges_rs1val_0x0_rs2val_0x5bbc8872+0x18>
    16e4:	5f10246f          	jal	x8,44d4 <failedtest_x8_x7>
    16e8:	000016d8          	.word	0x000016d8
    16ec:	0000a713          	.word	0x0000a713
    16f0:	004a0a13          	addi	x20,x20,4

# Testcase cr_rs1_rs2_edges (Test source rs1 = 0x00000000 rs2 = 0xaaaaaaaa)
  RVTEST_TESTDATA_LOAD_INT(x23, x18) # load rs1: x18 = 0x00000000
    16f4:	000ba903          	lw	x18,0(x23)
    16f8:	004b8b93          	addi	x23,x23,4
  RVTEST_TESTDATA_LOAD_INT(x23, x3) # load rs2: x3 = 0xaaaaaaaa
    16fc:	000ba183          	lw	x3,0(x23)
    1700:	004b8b93          	addi	x23,x23,4

00001704 <I_sll_cg_cr_rs1_rs2_edges_rs1val_0x0_rs2val_0xaaaaaaaa>:
I_sll_cg_cr_rs1_rs2_edges_rs1val_0x0_rs2val_0xaaaaaaaa:
  sll x24, x18, x3 # perform operation
    1704:	00391c33          	sll	x24,x18,x3
  # Check if x24 contains the expected result. x20 is the signature ptr, x8 is the link ptr, x7 is a temp reg.
  RVTEST_SIGUPD(x20, x8, x7, x24, I_sll_cg_cr_rs1_rs2_edges_rs1val_0x0_rs2val_0xaaaaaaaa, I_sll_cg_cr_rs1_rs2_edges_rs1val_0x0_rs2val_0xaaaaaaaa_str)
    1708:	000a2383          	lw	x7,0(x20)
    170c:	01838863          	beq	x7,x24,171c <I_sll_cg_cr_rs1_rs2_edges_rs1val_0x0_rs2val_0xaaaaaaaa+0x18>
    1710:	5c50246f          	jal	x8,44d4 <failedtest_x8_x7>
    1714:	00001704          	.word	0x00001704
    1718:	0000a767          	.word	0x0000a767
    171c:	004a0a13          	addi	x20,x20,4

# Testcase cr_rs1_rs2_edges (Test source rs1 = 0x00000000 rs2 = 0x55555555)
  RVTEST_TESTDATA_LOAD_INT(x23, x28) # load rs1: x28 = 0x00000000
    1720:	000bae03          	lw	x28,0(x23)
    1724:	004b8b93          	addi	x23,x23,4
  RVTEST_TESTDATA_LOAD_INT(x23, x16) # load rs2: x16 = 0x55555555
    1728:	000ba803          	lw	x16,0(x23)
    172c:	004b8b93          	addi	x23,x23,4

00001730 <I_sll_cg_cr_rs1_rs2_edges_rs1val_0x0_rs2val_0x55555555>:
I_sll_cg_cr_rs1_rs2_edges_rs1val_0x0_rs2val_0x55555555:
  sll x14, x28, x16 # perform operation
    1730:	010e1733          	sll	x14,x28,x16
  # Check if x14 contains the expected result. x20 is the signature ptr, x8 is the link ptr, x7 is a temp reg.
  RVTEST_SIGUPD(x20, x8, x7, x14, I_sll_cg_cr_rs1_rs2_edges_rs1val_0x0_rs2val_0x55555555, I_sll_cg_cr_rs1_rs2_edges_rs1val_0x0_rs2val_0x55555555_str)
    1734:	000a2383          	lw	x7,0(x20)
    1738:	00e38863          	beq	x7,x14,1748 <I_sll_cg_cr_rs1_rs2_edges_rs1val_0x0_rs2val_0x55555555+0x18>
    173c:	5990246f          	jal	x8,44d4 <failedtest_x8_x7>
    1740:	00001730          	.word	0x00001730
    1744:	0000a7bb          	.word	0x0000a7bb
    1748:	004a0a13          	addi	x20,x20,4

# Testcase cr_rs1_rs2_edges (Test source rs1 = 0x00000001 rs2 = 0x00000000)
  RVTEST_TESTDATA_LOAD_INT(x23, x18) # load rs1: x18 = 0x00000001
    174c:	000ba903          	lw	x18,0(x23)
    1750:	004b8b93          	addi	x23,x23,4
  RVTEST_TESTDATA_LOAD_INT(x23, x14) # load rs2: x14 = 0x00000000
    1754:	000ba703          	lw	x14,0(x23)
    1758:	004b8b93          	addi	x23,x23,4

0000175c <I_sll_cg_cr_rs1_rs2_edges_rs1val_0x1_rs2val_0x0>:
I_sll_cg_cr_rs1_rs2_edges_rs1val_0x1_rs2val_0x0:
  sll x27, x18, x14 # perform operation
    175c:	00e91db3          	sll	x27,x18,x14
  # Check if x27 contains the expected result. x20 is the signature ptr, x8 is the link ptr, x7 is a temp reg.
  RVTEST_SIGUPD(x20, x8, x7, x27, I_sll_cg_cr_rs1_rs2_edges_rs1val_0x1_rs2val_0x0, I_sll_cg_cr_rs1_rs2_edges_rs1val_0x1_rs2val_0x0_str)
    1760:	000a2383          	lw	x7,0(x20)
    1764:	01b38863          	beq	x7,x27,1774 <I_sll_cg_cr_rs1_rs2_edges_rs1val_0x1_rs2val_0x0+0x18>
    1768:	56d0246f          	jal	x8,44d4 <failedtest_x8_x7>
    176c:	0000175c          	.word	0x0000175c
    1770:	0000a80f          	.word	0x0000a80f
    1774:	004a0a13          	addi	x20,x20,4

# Testcase cr_rs1_rs2_edges (Test source rs1 = 0x00000001 rs2 = 0x00000001)
  RVTEST_TESTDATA_LOAD_INT(x23, x6) # load rs1: x6 = 0x00000001
    1778:	000ba303          	lw	x6,0(x23)
    177c:	004b8b93          	addi	x23,x23,4
  RVTEST_TESTDATA_LOAD_INT(x23, x29) # load rs2: x29 = 0x00000001
    1780:	000bae83          	lw	x29,0(x23)
    1784:	004b8b93          	addi	x23,x23,4

00001788 <I_sll_cg_cr_rs1_rs2_edges_rs1val_0x1_rs2val_0x1>:
I_sll_cg_cr_rs1_rs2_edges_rs1val_0x1_rs2val_0x1:
  sll x9, x6, x29 # perform operation
    1788:	01d314b3          	sll	x9,x6,x29
  # Check if x9 contains the expected result. x20 is the signature ptr, x8 is the link ptr, x7 is a temp reg.
  RVTEST_SIGUPD(x20, x8, x7, x9, I_sll_cg_cr_rs1_rs2_edges_rs1val_0x1_rs2val_0x1, I_sll_cg_cr_rs1_rs2_edges_rs1val_0x1_rs2val_0x1_str)
    178c:	000a2383          	lw	x7,0(x20)
    1790:	00938863          	beq	x7,x9,17a0 <I_sll_cg_cr_rs1_rs2_edges_rs1val_0x1_rs2val_0x1+0x18>
    1794:	5410246f          	jal	x8,44d4 <failedtest_x8_x7>
    1798:	00001788          	.word	0x00001788
    179c:	0000a85c          	.word	0x0000a85c
    17a0:	004a0a13          	addi	x20,x20,4

# Testcase cr_rs1_rs2_edges (Test source rs1 = 0x00000001 rs2 = 0x00000002)
  RVTEST_TESTDATA_LOAD_INT(x23, x1) # load rs1: x1 = 0x00000001
    17a4:	000ba083          	lw	x1,0(x23)
    17a8:	004b8b93          	addi	x23,x23,4
  RVTEST_TESTDATA_LOAD_INT(x23, x3) # load rs2: x3 = 0x00000002
    17ac:	000ba183          	lw	x3,0(x23)
    17b0:	004b8b93          	addi	x23,x23,4

000017b4 <I_sll_cg_cr_rs1_rs2_edges_rs1val_0x1_rs2val_0x2>:
I_sll_cg_cr_rs1_rs2_edges_rs1val_0x1_rs2val_0x2:
  sll x30, x1, x3 # perform operation
    17b4:	00309f33          	sll	x30,x1,x3
  # Check if x30 contains the expected result. x20 is the signature ptr, x8 is the link ptr, x7 is a temp reg.
  RVTEST_SIGUPD(x20, x8, x7, x30, I_sll_cg_cr_rs1_rs2_edges_rs1val_0x1_rs2val_0x2, I_sll_cg_cr_rs1_rs2_edges_rs1val_0x1_rs2val_0x2_str)
    17b8:	000a2383          	lw	x7,0(x20)
    17bc:	01e38863          	beq	x7,x30,17cc <I_sll_cg_cr_rs1_rs2_edges_rs1val_0x1_rs2val_0x2+0x18>
    17c0:	5150246f          	jal	x8,44d4 <failedtest_x8_x7>
    17c4:	000017b4          	.word	0x000017b4
    17c8:	0000a8a9          	.word	0x0000a8a9
    17cc:	004a0a13          	addi	x20,x20,4

# Testcase cr_rs1_rs2_edges (Test source rs1 = 0x00000001 rs2 = 0x80000000)
  RVTEST_TESTDATA_LOAD_INT(x23, x13) # load rs1: x13 = 0x00000001
    17d0:	000ba683          	lw	x13,0(x23)
    17d4:	004b8b93          	addi	x23,x23,4
  RVTEST_TESTDATA_LOAD_INT(x23, x25) # load rs2: x25 = 0x80000000
    17d8:	000bac83          	lw	x25,0(x23)
    17dc:	004b8b93          	addi	x23,x23,4

000017e0 <I_sll_cg_cr_rs1_rs2_edges_rs1val_0x1_rs2val_0x80000000>:
I_sll_cg_cr_rs1_rs2_edges_rs1val_0x1_rs2val_0x80000000:
  sll x11, x13, x25 # perform operation
    17e0:	019695b3          	sll	x11,x13,x25
  # Check if x11 contains the expected result. x20 is the signature ptr, x8 is the link ptr, x7 is a temp reg.
  RVTEST_SIGUPD(x20, x8, x7, x11, I_sll_cg_cr_rs1_rs2_edges_rs1val_0x1_rs2val_0x80000000, I_sll_cg_cr_rs1_rs2_edges_rs1val_0x1_rs2val_0x80000000_str)
    17e4:	000a2383          	lw	x7,0(x20)
    17e8:	00b38863          	beq	x7,x11,17f8 <I_sll_cg_cr_rs1_rs2_edges_rs1val_0x1_rs2val_0x80000000+0x18>
    17ec:	4e90246f          	jal	x8,44d4 <failedtest_x8_x7>
    17f0:	000017e0          	.word	0x000017e0
    17f4:	0000a8f6          	.word	0x0000a8f6
    17f8:	004a0a13          	addi	x20,x20,4

# Testcase cr_rs1_rs2_edges (Test source rs1 = 0x00000001 rs2 = 0x80000001)
  RVTEST_TESTDATA_LOAD_INT(x23, x21) # load rs1: x21 = 0x00000001
    17fc:	000baa83          	lw	x21,0(x23)
    1800:	004b8b93          	addi	x23,x23,4
  RVTEST_TESTDATA_LOAD_INT(x23, x11) # load rs2: x11 = 0x80000001
    1804:	000ba583          	lw	x11,0(x23)
    1808:	004b8b93          	addi	x23,x23,4

0000180c <I_sll_cg_cr_rs1_rs2_edges_rs1val_0x1_rs2val_0x80000001>:
I_sll_cg_cr_rs1_rs2_edges_rs1val_0x1_rs2val_0x80000001:
  sll x30, x21, x11 # perform operation
    180c:	00ba9f33          	sll	x30,x21,x11
  # Check if x30 contains the expected result. x20 is the signature ptr, x8 is the link ptr, x7 is a temp reg.
  RVTEST_SIGUPD(x20, x8, x7, x30, I_sll_cg_cr_rs1_rs2_edges_rs1val_0x1_rs2val_0x80000001, I_sll_cg_cr_rs1_rs2_edges_rs1val_0x1_rs2val_0x80000001_str)
    1810:	000a2383          	lw	x7,0(x20)
    1814:	01e38863          	beq	x7,x30,1824 <I_sll_cg_cr_rs1_rs2_edges_rs1val_0x1_rs2val_0x80000001+0x18>
    1818:	4bd0246f          	jal	x8,44d4 <failedtest_x8_x7>
    181c:	0000180c          	.word	0x0000180c
    1820:	0000a94a          	.word	0x0000a94a
    1824:	004a0a13          	addi	x20,x20,4

# Testcase cr_rs1_rs2_edges (Test source rs1 = 0x00000001 rs2 = 0x7fffffff)
  RVTEST_TESTDATA_LOAD_INT(x23, x30) # load rs1: x30 = 0x00000001
    1828:	000baf03          	lw	x30,0(x23)
    182c:	004b8b93          	addi	x23,x23,4
  RVTEST_TESTDATA_LOAD_INT(x23, x18) # load rs2: x18 = 0x7fffffff
    1830:	000ba903          	lw	x18,0(x23)
    1834:	004b8b93          	addi	x23,x23,4

00001838 <I_sll_cg_cr_rs1_rs2_edges_rs1val_0x1_rs2val_0x7fffffff>:
I_sll_cg_cr_rs1_rs2_edges_rs1val_0x1_rs2val_0x7fffffff:
  sll x31, x30, x18 # perform operation
    1838:	012f1fb3          	sll	x31,x30,x18
  # Check if x31 contains the expected result. x20 is the signature ptr, x8 is the link ptr, x7 is a temp reg.
  RVTEST_SIGUPD(x20, x8, x7, x31, I_sll_cg_cr_rs1_rs2_edges_rs1val_0x1_rs2val_0x7fffffff, I_sll_cg_cr_rs1_rs2_edges_rs1val_0x1_rs2val_0x7fffffff_str)
    183c:	000a2383          	lw	x7,0(x20)
    1840:	01f38863          	beq	x7,x31,1850 <I_sll_cg_cr_rs1_rs2_edges_rs1val_0x1_rs2val_0x7fffffff+0x18>
    1844:	4910246f          	jal	x8,44d4 <failedtest_x8_x7>
    1848:	00001838          	.word	0x00001838
    184c:	0000a99e          	.word	0x0000a99e
    1850:	004a0a13          	addi	x20,x20,4

# Testcase cr_rs1_rs2_edges (Test source rs1 = 0x00000001 rs2 = 0x7ffffffe)
  RVTEST_TESTDATA_LOAD_INT(x23, x14) # load rs1: x14 = 0x00000001
    1854:	000ba703          	lw	x14,0(x23)
    1858:	004b8b93          	addi	x23,x23,4
  RVTEST_TESTDATA_LOAD_INT(x23, x24) # load rs2: x24 = 0x7ffffffe
    185c:	000bac03          	lw	x24,0(x23)
    1860:	004b8b93          	addi	x23,x23,4

00001864 <I_sll_cg_cr_rs1_rs2_edges_rs1val_0x1_rs2val_0x7ffffffe>:
I_sll_cg_cr_rs1_rs2_edges_rs1val_0x1_rs2val_0x7ffffffe:
  sll x30, x14, x24 # perform operation
    1864:	01871f33          	sll	x30,x14,x24
  # Check if x30 contains the expected result. x20 is the signature ptr, x8 is the link ptr, x7 is a temp reg.
  RVTEST_SIGUPD(x20, x8, x7, x30, I_sll_cg_cr_rs1_rs2_edges_rs1val_0x1_rs2val_0x7ffffffe, I_sll_cg_cr_rs1_rs2_edges_rs1val_0x1_rs2val_0x7ffffffe_str)
    1868:	000a2383          	lw	x7,0(x20)
    186c:	01e38863          	beq	x7,x30,187c <I_sll_cg_cr_rs1_rs2_edges_rs1val_0x1_rs2val_0x7ffffffe+0x18>
    1870:	4650246f          	jal	x8,44d4 <failedtest_x8_x7>
    1874:	00001864          	.word	0x00001864
    1878:	0000a9f2          	.word	0x0000a9f2
    187c:	004a0a13          	addi	x20,x20,4

# Testcase cr_rs1_rs2_edges (Test source rs1 = 0x00000001 rs2 = 0xffffffff)
  RVTEST_TESTDATA_LOAD_INT(x23, x14) # load rs1: x14 = 0x00000001
    1880:	000ba703          	lw	x14,0(x23)
    1884:	004b8b93          	addi	x23,x23,4
  RVTEST_TESTDATA_LOAD_INT(x23, x6) # load rs2: x6 = 0xffffffff
    1888:	000ba303          	lw	x6,0(x23)
    188c:	004b8b93          	addi	x23,x23,4

00001890 <I_sll_cg_cr_rs1_rs2_edges_rs1val_0x1_rs2val_0xffffffff>:
I_sll_cg_cr_rs1_rs2_edges_rs1val_0x1_rs2val_0xffffffff:
  sll x22, x14, x6 # perform operation
    1890:	00671b33          	sll	x22,x14,x6
  # Check if x22 contains the expected result. x20 is the signature ptr, x8 is the link ptr, x7 is a temp reg.
  RVTEST_SIGUPD(x20, x8, x7, x22, I_sll_cg_cr_rs1_rs2_edges_rs1val_0x1_rs2val_0xffffffff, I_sll_cg_cr_rs1_rs2_edges_rs1val_0x1_rs2val_0xffffffff_str)
    1894:	000a2383          	lw	x7,0(x20)
    1898:	01638863          	beq	x7,x22,18a8 <I_sll_cg_cr_rs1_rs2_edges_rs1val_0x1_rs2val_0xffffffff+0x18>
    189c:	4390246f          	jal	x8,44d4 <failedtest_x8_x7>
    18a0:	00001890          	.word	0x00001890
    18a4:	0000aa46          	.word	0x0000aa46
    18a8:	004a0a13          	addi	x20,x20,4

# Testcase cr_rs1_rs2_edges (Test source rs1 = 0x00000001 rs2 = 0xfffffffe)
  RVTEST_TESTDATA_LOAD_INT(x23, x3) # load rs1: x3 = 0x00000001
    18ac:	000ba183          	lw	x3,0(x23)
    18b0:	004b8b93          	addi	x23,x23,4
  RVTEST_TESTDATA_LOAD_INT(x23, x25) # load rs2: x25 = 0xfffffffe
    18b4:	000bac83          	lw	x25,0(x23)
    18b8:	004b8b93          	addi	x23,x23,4

000018bc <I_sll_cg_cr_rs1_rs2_edges_rs1val_0x1_rs2val_0xfffffffe>:
I_sll_cg_cr_rs1_rs2_edges_rs1val_0x1_rs2val_0xfffffffe:
  sll x17, x3, x25 # perform operation
    18bc:	019198b3          	sll	x17,x3,x25
  # Check if x17 contains the expected result. x20 is the signature ptr, x8 is the link ptr, x7 is a temp reg.
  RVTEST_SIGUPD(x20, x8, x7, x17, I_sll_cg_cr_rs1_rs2_edges_rs1val_0x1_rs2val_0xfffffffe, I_sll_cg_cr_rs1_rs2_edges_rs1val_0x1_rs2val_0xfffffffe_str)
    18c0:	000a2383          	lw	x7,0(x20)
    18c4:	01138863          	beq	x7,x17,18d4 <I_sll_cg_cr_rs1_rs2_edges_rs1val_0x1_rs2val_0xfffffffe+0x18>
    18c8:	40d0246f          	jal	x8,44d4 <failedtest_x8_x7>
    18cc:	000018bc          	.word	0x000018bc
    18d0:	0000aa9a          	.word	0x0000aa9a
    18d4:	004a0a13          	addi	x20,x20,4

# Testcase cr_rs1_rs2_edges (Test source rs1 = 0x00000001 rs2 = 0x5bbc8872)
  RVTEST_TESTDATA_LOAD_INT(x23, x27) # load rs1: x27 = 0x00000001
    18d8:	000bad83          	lw	x27,0(x23)
    18dc:	004b8b93          	addi	x23,x23,4
  RVTEST_TESTDATA_LOAD_INT(x23, x31) # load rs2: x31 = 0x5bbc8872
    18e0:	000baf83          	lw	x31,0(x23)
    18e4:	004b8b93          	addi	x23,x23,4

000018e8 <I_sll_cg_cr_rs1_rs2_edges_rs1val_0x1_rs2val_0x5bbc8872>:
I_sll_cg_cr_rs1_rs2_edges_rs1val_0x1_rs2val_0x5bbc8872:
  sll x30, x27, x31 # perform operation
    18e8:	01fd9f33          	sll	x30,x27,x31
  # Check if x30 contains the expected result. x20 is the signature ptr, x8 is the link ptr, x7 is a temp reg.
  RVTEST_SIGUPD(x20, x8, x7, x30, I_sll_cg_cr_rs1_rs2_edges_rs1val_0x1_rs2val_0x5bbc8872, I_sll_cg_cr_rs1_rs2_edges_rs1val_0x1_rs2val_0x5bbc8872_str)
    18ec:	000a2383          	lw	x7,0(x20)
    18f0:	01e38863          	beq	x7,x30,1900 <I_sll_cg_cr_rs1_rs2_edges_rs1val_0x1_rs2val_0x5bbc8872+0x18>
    18f4:	3e10246f          	jal	x8,44d4 <failedtest_x8_x7>
    18f8:	000018e8          	.word	0x000018e8
    18fc:	0000aaee          	.word	0x0000aaee
    1900:	004a0a13          	addi	x20,x20,4

# Testcase cr_rs1_rs2_edges (Test source rs1 = 0x00000001 rs2 = 0xaaaaaaaa)
  RVTEST_TESTDATA_LOAD_INT(x23, x3) # load rs1: x3 = 0x00000001
    1904:	000ba183          	lw	x3,0(x23)
    1908:	004b8b93          	addi	x23,x23,4
  RVTEST_TESTDATA_LOAD_INT(x23, x1) # load rs2: x1 = 0xaaaaaaaa
    190c:	000ba083          	lw	x1,0(x23)
    1910:	004b8b93          	addi	x23,x23,4

00001914 <I_sll_cg_cr_rs1_rs2_edges_rs1val_0x1_rs2val_0xaaaaaaaa>:
I_sll_cg_cr_rs1_rs2_edges_rs1val_0x1_rs2val_0xaaaaaaaa:
  sll x11, x3, x1 # perform operation
    1914:	001195b3          	sll	x11,x3,x1
  # Check if x11 contains the expected result. x20 is the signature ptr, x8 is the link ptr, x7 is a temp reg.
  RVTEST_SIGUPD(x20, x8, x7, x11, I_sll_cg_cr_rs1_rs2_edges_rs1val_0x1_rs2val_0xaaaaaaaa, I_sll_cg_cr_rs1_rs2_edges_rs1val_0x1_rs2val_0xaaaaaaaa_str)
    1918:	000a2383          	lw	x7,0(x20)
    191c:	00b38863          	beq	x7,x11,192c <I_sll_cg_cr_rs1_rs2_edges_rs1val_0x1_rs2val_0xaaaaaaaa+0x18>
    1920:	3b50246f          	jal	x8,44d4 <failedtest_x8_x7>
    1924:	00001914          	.word	0x00001914
    1928:	0000ab42          	.word	0x0000ab42
    192c:	004a0a13          	addi	x20,x20,4

# Testcase cr_rs1_rs2_edges (Test source rs1 = 0x00000001 rs2 = 0x55555555)
  RVTEST_TESTDATA_LOAD_INT(x23, x4) # load rs1: x4 = 0x00000001
    1930:	000ba203          	lw	x4,0(x23)
    1934:	004b8b93          	addi	x23,x23,4
  RVTEST_TESTDATA_LOAD_INT(x23, x27) # load rs2: x27 = 0x55555555
    1938:	000bad83          	lw	x27,0(x23)
    193c:	004b8b93          	addi	x23,x23,4

00001940 <I_sll_cg_cr_rs1_rs2_edges_rs1val_0x1_rs2val_0x55555555>:
I_sll_cg_cr_rs1_rs2_edges_rs1val_0x1_rs2val_0x55555555:
  sll x31, x4, x27 # perform operation
    1940:	01b21fb3          	sll	x31,x4,x27
  # Check if x31 contains the expected result. x20 is the signature ptr, x8 is the link ptr, x7 is a temp reg.
  RVTEST_SIGUPD(x20, x8, x7, x31, I_sll_cg_cr_rs1_rs2_edges_rs1val_0x1_rs2val_0x55555555, I_sll_cg_cr_rs1_rs2_edges_rs1val_0x1_rs2val_0x55555555_str)
    1944:	000a2383          	lw	x7,0(x20)
    1948:	01f38863          	beq	x7,x31,1958 <I_sll_cg_cr_rs1_rs2_edges_rs1val_0x1_rs2val_0x55555555+0x18>
    194c:	3890246f          	jal	x8,44d4 <failedtest_x8_x7>
    1950:	00001940          	.word	0x00001940
    1954:	0000ab96          	.word	0x0000ab96
    1958:	004a0a13          	addi	x20,x20,4

# Testcase cr_rs1_rs2_edges (Test source rs1 = 0x00000002 rs2 = 0x00000000)
  RVTEST_TESTDATA_LOAD_INT(x23, x17) # load rs1: x17 = 0x00000002
    195c:	000ba883          	lw	x17,0(x23)
    1960:	004b8b93          	addi	x23,x23,4
  RVTEST_TESTDATA_LOAD_INT(x23, x1) # load rs2: x1 = 0x00000000
    1964:	000ba083          	lw	x1,0(x23)
    1968:	004b8b93          	addi	x23,x23,4

0000196c <I_sll_cg_cr_rs1_rs2_edges_rs1val_0x2_rs2val_0x0>:
I_sll_cg_cr_rs1_rs2_edges_rs1val_0x2_rs2val_0x0:
  sll x16, x17, x1 # perform operation
    196c:	00189833          	sll	x16,x17,x1
  # Check if x16 contains the expected result. x20 is the signature ptr, x8 is the link ptr, x7 is a temp reg.
  RVTEST_SIGUPD(x20, x8, x7, x16, I_sll_cg_cr_rs1_rs2_edges_rs1val_0x2_rs2val_0x0, I_sll_cg_cr_rs1_rs2_edges_rs1val_0x2_rs2val_0x0_str)
    1970:	000a2383          	lw	x7,0(x20)
    1974:	01038863          	beq	x7,x16,1984 <I_sll_cg_cr_rs1_rs2_edges_rs1val_0x2_rs2val_0x0+0x18>
    1978:	35d0246f          	jal	x8,44d4 <failedtest_x8_x7>
    197c:	0000196c          	.word	0x0000196c
    1980:	0000abea          	.word	0x0000abea
    1984:	004a0a13          	addi	x20,x20,4

# Testcase cr_rs1_rs2_edges (Test source rs1 = 0x00000002 rs2 = 0x00000001)
  RVTEST_TESTDATA_LOAD_INT(x23, x22) # load rs1: x22 = 0x00000002
    1988:	000bab03          	lw	x22,0(x23)
    198c:	004b8b93          	addi	x23,x23,4
  RVTEST_TESTDATA_LOAD_INT(x23, x19) # load rs2: x19 = 0x00000001
    1990:	000ba983          	lw	x19,0(x23)
    1994:	004b8b93          	addi	x23,x23,4

00001998 <I_sll_cg_cr_rs1_rs2_edges_rs1val_0x2_rs2val_0x1>:
I_sll_cg_cr_rs1_rs2_edges_rs1val_0x2_rs2val_0x1:
  sll x17, x22, x19 # perform operation
    1998:	013b18b3          	sll	x17,x22,x19
  # Check if x17 contains the expected result. x20 is the signature ptr, x8 is the link ptr, x7 is a temp reg.
  RVTEST_SIGUPD(x20, x8, x7, x17, I_sll_cg_cr_rs1_rs2_edges_rs1val_0x2_rs2val_0x1, I_sll_cg_cr_rs1_rs2_edges_rs1val_0x2_rs2val_0x1_str)
    199c:	000a2383          	lw	x7,0(x20)
    19a0:	01138863          	beq	x7,x17,19b0 <I_sll_cg_cr_rs1_rs2_edges_rs1val_0x2_rs2val_0x1+0x18>
    19a4:	3310246f          	jal	x8,44d4 <failedtest_x8_x7>
    19a8:	00001998          	.word	0x00001998
    19ac:	0000ac37          	.word	0x0000ac37
    19b0:	004a0a13          	addi	x20,x20,4

# Testcase cr_rs1_rs2_edges (Test source rs1 = 0x00000002 rs2 = 0x00000002)
  RVTEST_TESTDATA_LOAD_INT(x23, x18) # load rs1: x18 = 0x00000002
    19b4:	000ba903          	lw	x18,0(x23)
    19b8:	004b8b93          	addi	x23,x23,4
  RVTEST_TESTDATA_LOAD_INT(x23, x24) # load rs2: x24 = 0x00000002
    19bc:	000bac03          	lw	x24,0(x23)
    19c0:	004b8b93          	addi	x23,x23,4

000019c4 <I_sll_cg_cr_rs1_rs2_edges_rs1val_0x2_rs2val_0x2>:
I_sll_cg_cr_rs1_rs2_edges_rs1val_0x2_rs2val_0x2:
  sll x13, x18, x24 # perform operation
    19c4:	018916b3          	sll	x13,x18,x24
  # Check if x13 contains the expected result. x20 is the signature ptr, x8 is the link ptr, x7 is a temp reg.
  RVTEST_SIGUPD(x20, x8, x7, x13, I_sll_cg_cr_rs1_rs2_edges_rs1val_0x2_rs2val_0x2, I_sll_cg_cr_rs1_rs2_edges_rs1val_0x2_rs2val_0x2_str)
    19c8:	000a2383          	lw	x7,0(x20)
    19cc:	00d38863          	beq	x7,x13,19dc <I_sll_cg_cr_rs1_rs2_edges_rs1val_0x2_rs2val_0x2+0x18>
    19d0:	3050246f          	jal	x8,44d4 <failedtest_x8_x7>
    19d4:	000019c4          	.word	0x000019c4
    19d8:	0000ac84          	.word	0x0000ac84
    19dc:	004a0a13          	addi	x20,x20,4

# Testcase cr_rs1_rs2_edges (Test source rs1 = 0x00000002 rs2 = 0x80000000)
  RVTEST_TESTDATA_LOAD_INT(x23, x24) # load rs1: x24 = 0x00000002
    19e0:	000bac03          	lw	x24,0(x23)
    19e4:	004b8b93          	addi	x23,x23,4
  RVTEST_TESTDATA_LOAD_INT(x23, x26) # load rs2: x26 = 0x80000000
    19e8:	000bad03          	lw	x26,0(x23)
    19ec:	004b8b93          	addi	x23,x23,4

000019f0 <I_sll_cg_cr_rs1_rs2_edges_rs1val_0x2_rs2val_0x80000000>:
I_sll_cg_cr_rs1_rs2_edges_rs1val_0x2_rs2val_0x80000000:
  sll x1, x24, x26 # perform operation
    19f0:	01ac10b3          	sll	x1,x24,x26
  # Check if x1 contains the expected result. x20 is the signature ptr, x8 is the link ptr, x7 is a temp reg.
  RVTEST_SIGUPD(x20, x8, x7, x1, I_sll_cg_cr_rs1_rs2_edges_rs1val_0x2_rs2val_0x80000000, I_sll_cg_cr_rs1_rs2_edges_rs1val_0x2_rs2val_0x80000000_str)
    19f4:	000a2383          	lw	x7,0(x20)
    19f8:	00138863          	beq	x7,x1,1a08 <I_sll_cg_cr_rs1_rs2_edges_rs1val_0x2_rs2val_0x80000000+0x18>
    19fc:	2d90246f          	jal	x8,44d4 <failedtest_x8_x7>
    1a00:	000019f0          	.word	0x000019f0
    1a04:	0000acd1          	.word	0x0000acd1
    1a08:	004a0a13          	addi	x20,x20,4

# Testcase cr_rs1_rs2_edges (Test source rs1 = 0x00000002 rs2 = 0x80000001)
  RVTEST_TESTDATA_LOAD_INT(x23, x19) # load rs1: x19 = 0x00000002
    1a0c:	000ba983          	lw	x19,0(x23)
    1a10:	004b8b93          	addi	x23,x23,4
  RVTEST_TESTDATA_LOAD_INT(x23, x4) # load rs2: x4 = 0x80000001
    1a14:	000ba203          	lw	x4,0(x23)
    1a18:	004b8b93          	addi	x23,x23,4

00001a1c <I_sll_cg_cr_rs1_rs2_edges_rs1val_0x2_rs2val_0x80000001>:
I_sll_cg_cr_rs1_rs2_edges_rs1val_0x2_rs2val_0x80000001:
  sll x26, x19, x4 # perform operation
    1a1c:	00499d33          	sll	x26,x19,x4
  # Check if x26 contains the expected result. x20 is the signature ptr, x8 is the link ptr, x7 is a temp reg.
  RVTEST_SIGUPD(x20, x8, x7, x26, I_sll_cg_cr_rs1_rs2_edges_rs1val_0x2_rs2val_0x80000001, I_sll_cg_cr_rs1_rs2_edges_rs1val_0x2_rs2val_0x80000001_str)
    1a20:	000a2383          	lw	x7,0(x20)
    1a24:	01a38863          	beq	x7,x26,1a34 <I_sll_cg_cr_rs1_rs2_edges_rs1val_0x2_rs2val_0x80000001+0x18>
    1a28:	2ad0246f          	jal	x8,44d4 <failedtest_x8_x7>
    1a2c:	00001a1c          	.word	0x00001a1c
    1a30:	0000ad25          	.word	0x0000ad25
    1a34:	004a0a13          	addi	x20,x20,4

# Testcase cr_rs1_rs2_edges (Test source rs1 = 0x00000002 rs2 = 0x7fffffff)
  RVTEST_TESTDATA_LOAD_INT(x23, x1) # load rs1: x1 = 0x00000002
    1a38:	000ba083          	lw	x1,0(x23)
    1a3c:	004b8b93          	addi	x23,x23,4
  RVTEST_TESTDATA_LOAD_INT(x23, x31) # load rs2: x31 = 0x7fffffff
    1a40:	000baf83          	lw	x31,0(x23)
    1a44:	004b8b93          	addi	x23,x23,4

00001a48 <I_sll_cg_cr_rs1_rs2_edges_rs1val_0x2_rs2val_0x7fffffff>:
I_sll_cg_cr_rs1_rs2_edges_rs1val_0x2_rs2val_0x7fffffff:
  sll x10, x1, x31 # perform operation
    1a48:	01f09533          	sll	x10,x1,x31
  # Check if x10 contains the expected result. x20 is the signature ptr, x8 is the link ptr, x7 is a temp reg.
  RVTEST_SIGUPD(x20, x8, x7, x10, I_sll_cg_cr_rs1_rs2_edges_rs1val_0x2_rs2val_0x7fffffff, I_sll_cg_cr_rs1_rs2_edges_rs1val_0x2_rs2val_0x7fffffff_str)
    1a4c:	000a2383          	lw	x7,0(x20)
    1a50:	00a38863          	beq	x7,x10,1a60 <I_sll_cg_cr_rs1_rs2_edges_rs1val_0x2_rs2val_0x7fffffff+0x18>
    1a54:	2810246f          	jal	x8,44d4 <failedtest_x8_x7>
    1a58:	00001a48          	.word	0x00001a48
    1a5c:	0000ad79          	.word	0x0000ad79
    1a60:	004a0a13          	addi	x20,x20,4

# Testcase cr_rs1_rs2_edges (Test source rs1 = 0x00000002 rs2 = 0x7ffffffe)
  RVTEST_TESTDATA_LOAD_INT(x23, x5) # load rs1: x5 = 0x00000002
    1a64:	000ba283          	lw	x5,0(x23)
    1a68:	004b8b93          	addi	x23,x23,4
  RVTEST_TESTDATA_LOAD_INT(x23, x6) # load rs2: x6 = 0x7ffffffe
    1a6c:	000ba303          	lw	x6,0(x23)
    1a70:	004b8b93          	addi	x23,x23,4

00001a74 <I_sll_cg_cr_rs1_rs2_edges_rs1val_0x2_rs2val_0x7ffffffe>:
I_sll_cg_cr_rs1_rs2_edges_rs1val_0x2_rs2val_0x7ffffffe:
  sll x11, x5, x6 # perform operation
    1a74:	006295b3          	sll	x11,x5,x6
  # Check if x11 contains the expected result. x20 is the signature ptr, x8 is the link ptr, x7 is a temp reg.
  RVTEST_SIGUPD(x20, x8, x7, x11, I_sll_cg_cr_rs1_rs2_edges_rs1val_0x2_rs2val_0x7ffffffe, I_sll_cg_cr_rs1_rs2_edges_rs1val_0x2_rs2val_0x7ffffffe_str)
    1a78:	000a2383          	lw	x7,0(x20)
    1a7c:	00b38863          	beq	x7,x11,1a8c <I_sll_cg_cr_rs1_rs2_edges_rs1val_0x2_rs2val_0x7ffffffe+0x18>
    1a80:	2550246f          	jal	x8,44d4 <failedtest_x8_x7>
    1a84:	00001a74          	.word	0x00001a74
    1a88:	0000adcd          	.word	0x0000adcd
    1a8c:	004a0a13          	addi	x20,x20,4

# Testcase cr_rs1_rs2_edges (Test source rs1 = 0x00000002 rs2 = 0xffffffff)
  RVTEST_TESTDATA_LOAD_INT(x23, x14) # load rs1: x14 = 0x00000002
    1a90:	000ba703          	lw	x14,0(x23)
    1a94:	004b8b93          	addi	x23,x23,4
  RVTEST_TESTDATA_LOAD_INT(x23, x16) # load rs2: x16 = 0xffffffff
    1a98:	000ba803          	lw	x16,0(x23)
    1a9c:	004b8b93          	addi	x23,x23,4

00001aa0 <I_sll_cg_cr_rs1_rs2_edges_rs1val_0x2_rs2val_0xffffffff>:
I_sll_cg_cr_rs1_rs2_edges_rs1val_0x2_rs2val_0xffffffff:
  sll x18, x14, x16 # perform operation
    1aa0:	01071933          	sll	x18,x14,x16
  # Check if x18 contains the expected result. x20 is the signature ptr, x8 is the link ptr, x7 is a temp reg.
  RVTEST_SIGUPD(x20, x8, x7, x18, I_sll_cg_cr_rs1_rs2_edges_rs1val_0x2_rs2val_0xffffffff, I_sll_cg_cr_rs1_rs2_edges_rs1val_0x2_rs2val_0xffffffff_str)
    1aa4:	000a2383          	lw	x7,0(x20)
    1aa8:	01238863          	beq	x7,x18,1ab8 <I_sll_cg_cr_rs1_rs2_edges_rs1val_0x2_rs2val_0xffffffff+0x18>
    1aac:	2290246f          	jal	x8,44d4 <failedtest_x8_x7>
    1ab0:	00001aa0          	.word	0x00001aa0
    1ab4:	0000ae21          	.word	0x0000ae21
    1ab8:	004a0a13          	addi	x20,x20,4

# Testcase cr_rs1_rs2_edges (Test source rs1 = 0x00000002 rs2 = 0xfffffffe)
  RVTEST_TESTDATA_LOAD_INT(x23, x14) # load rs1: x14 = 0x00000002
    1abc:	000ba703          	lw	x14,0(x23)
    1ac0:	004b8b93          	addi	x23,x23,4
  RVTEST_TESTDATA_LOAD_INT(x23, x1) # load rs2: x1 = 0xfffffffe
    1ac4:	000ba083          	lw	x1,0(x23)
    1ac8:	004b8b93          	addi	x23,x23,4

00001acc <I_sll_cg_cr_rs1_rs2_edges_rs1val_0x2_rs2val_0xfffffffe>:
I_sll_cg_cr_rs1_rs2_edges_rs1val_0x2_rs2val_0xfffffffe:
  sll x19, x14, x1 # perform operation
    1acc:	001719b3          	sll	x19,x14,x1
  # Check if x19 contains the expected result. x20 is the signature ptr, x8 is the link ptr, x7 is a temp reg.
  RVTEST_SIGUPD(x20, x8, x7, x19, I_sll_cg_cr_rs1_rs2_edges_rs1val_0x2_rs2val_0xfffffffe, I_sll_cg_cr_rs1_rs2_edges_rs1val_0x2_rs2val_0xfffffffe_str)
    1ad0:	000a2383          	lw	x7,0(x20)
    1ad4:	01338863          	beq	x7,x19,1ae4 <I_sll_cg_cr_rs1_rs2_edges_rs1val_0x2_rs2val_0xfffffffe+0x18>
    1ad8:	1fd0246f          	jal	x8,44d4 <failedtest_x8_x7>
    1adc:	00001acc          	.word	0x00001acc
    1ae0:	0000ae75          	.word	0x0000ae75
    1ae4:	004a0a13          	addi	x20,x20,4

# Testcase cr_rs1_rs2_edges (Test source rs1 = 0x00000002 rs2 = 0x5bbc8872)
  RVTEST_TESTDATA_LOAD_INT(x23, x28) # load rs1: x28 = 0x00000002
    1ae8:	000bae03          	lw	x28,0(x23)
    1aec:	004b8b93          	addi	x23,x23,4
  RVTEST_TESTDATA_LOAD_INT(x23, x21) # load rs2: x21 = 0x5bbc8872
    1af0:	000baa83          	lw	x21,0(x23)
    1af4:	004b8b93          	addi	x23,x23,4

00001af8 <I_sll_cg_cr_rs1_rs2_edges_rs1val_0x2_rs2val_0x5bbc8872>:
I_sll_cg_cr_rs1_rs2_edges_rs1val_0x2_rs2val_0x5bbc8872:
  sll x9, x28, x21 # perform operation
    1af8:	015e14b3          	sll	x9,x28,x21
  # Check if x9 contains the expected result. x20 is the signature ptr, x8 is the link ptr, x7 is a temp reg.
  RVTEST_SIGUPD(x20, x8, x7, x9, I_sll_cg_cr_rs1_rs2_edges_rs1val_0x2_rs2val_0x5bbc8872, I_sll_cg_cr_rs1_rs2_edges_rs1val_0x2_rs2val_0x5bbc8872_str)
    1afc:	000a2383          	lw	x7,0(x20)
    1b00:	00938863          	beq	x7,x9,1b10 <I_sll_cg_cr_rs1_rs2_edges_rs1val_0x2_rs2val_0x5bbc8872+0x18>
    1b04:	1d10246f          	jal	x8,44d4 <failedtest_x8_x7>
    1b08:	00001af8          	.word	0x00001af8
    1b0c:	0000aec9          	.word	0x0000aec9
    1b10:	004a0a13          	addi	x20,x20,4

# Testcase cr_rs1_rs2_edges (Test source rs1 = 0x00000002 rs2 = 0xaaaaaaaa)
  RVTEST_TESTDATA_LOAD_INT(x23, x6) # load rs1: x6 = 0x00000002
    1b14:	000ba303          	lw	x6,0(x23)
    1b18:	004b8b93          	addi	x23,x23,4
  RVTEST_TESTDATA_LOAD_INT(x23, x27) # load rs2: x27 = 0xaaaaaaaa
    1b1c:	000bad83          	lw	x27,0(x23)
    1b20:	004b8b93          	addi	x23,x23,4

00001b24 <I_sll_cg_cr_rs1_rs2_edges_rs1val_0x2_rs2val_0xaaaaaaaa>:
I_sll_cg_cr_rs1_rs2_edges_rs1val_0x2_rs2val_0xaaaaaaaa:
  sll x31, x6, x27 # perform operation
    1b24:	01b31fb3          	sll	x31,x6,x27
  # Check if x31 contains the expected result. x20 is the signature ptr, x8 is the link ptr, x7 is a temp reg.
  RVTEST_SIGUPD(x20, x8, x7, x31, I_sll_cg_cr_rs1_rs2_edges_rs1val_0x2_rs2val_0xaaaaaaaa, I_sll_cg_cr_rs1_rs2_edges_rs1val_0x2_rs2val_0xaaaaaaaa_str)
    1b28:	000a2383          	lw	x7,0(x20)
    1b2c:	01f38863          	beq	x7,x31,1b3c <I_sll_cg_cr_rs1_rs2_edges_rs1val_0x2_rs2val_0xaaaaaaaa+0x18>
    1b30:	1a50246f          	jal	x8,44d4 <failedtest_x8_x7>
    1b34:	00001b24          	.word	0x00001b24
    1b38:	0000af1d          	.word	0x0000af1d
    1b3c:	004a0a13          	addi	x20,x20,4

# Testcase cr_rs1_rs2_edges (Test source rs1 = 0x00000002 rs2 = 0x55555555)
  RVTEST_TESTDATA_LOAD_INT(x23, x30) # load rs1: x30 = 0x00000002
    1b40:	000baf03          	lw	x30,0(x23)
    1b44:	004b8b93          	addi	x23,x23,4
  RVTEST_TESTDATA_LOAD_INT(x23, x1) # load rs2: x1 = 0x55555555
    1b48:	000ba083          	lw	x1,0(x23)
    1b4c:	004b8b93          	addi	x23,x23,4

00001b50 <I_sll_cg_cr_rs1_rs2_edges_rs1val_0x2_rs2val_0x55555555>:
I_sll_cg_cr_rs1_rs2_edges_rs1val_0x2_rs2val_0x55555555:
  sll x15, x30, x1 # perform operation
    1b50:	001f17b3          	sll	x15,x30,x1
  # Check if x15 contains the expected result. x20 is the signature ptr, x8 is the link ptr, x7 is a temp reg.
  RVTEST_SIGUPD(x20, x8, x7, x15, I_sll_cg_cr_rs1_rs2_edges_rs1val_0x2_rs2val_0x55555555, I_sll_cg_cr_rs1_rs2_edges_rs1val_0x2_rs2val_0x55555555_str)
    1b54:	000a2383          	lw	x7,0(x20)
    1b58:	00f38863          	beq	x7,x15,1b68 <I_sll_cg_cr_rs1_rs2_edges_rs1val_0x2_rs2val_0x55555555+0x18>
    1b5c:	1790246f          	jal	x8,44d4 <failedtest_x8_x7>
    1b60:	00001b50          	.word	0x00001b50
    1b64:	0000af71          	.word	0x0000af71
    1b68:	004a0a13          	addi	x20,x20,4

# Testcase cr_rs1_rs2_edges (Test source rs1 = 0x80000000 rs2 = 0x00000000)
  RVTEST_TESTDATA_LOAD_INT(x23, x30) # load rs1: x30 = 0x80000000
    1b6c:	000baf03          	lw	x30,0(x23)
    1b70:	004b8b93          	addi	x23,x23,4
  RVTEST_TESTDATA_LOAD_INT(x23, x1) # load rs2: x1 = 0x00000000
    1b74:	000ba083          	lw	x1,0(x23)
    1b78:	004b8b93          	addi	x23,x23,4

00001b7c <I_sll_cg_cr_rs1_rs2_edges_rs1val_0x80000000_rs2val_0x0>:
I_sll_cg_cr_rs1_rs2_edges_rs1val_0x80000000_rs2val_0x0:
  sll x28, x30, x1 # perform operation
    1b7c:	001f1e33          	sll	x28,x30,x1
  # Check if x28 contains the expected result. x20 is the signature ptr, x8 is the link ptr, x7 is a temp reg.
  RVTEST_SIGUPD(x20, x8, x7, x28, I_sll_cg_cr_rs1_rs2_edges_rs1val_0x80000000_rs2val_0x0, I_sll_cg_cr_rs1_rs2_edges_rs1val_0x80000000_rs2val_0x0_str)
    1b80:	000a2383          	lw	x7,0(x20)
    1b84:	01c38863          	beq	x7,x28,1b94 <I_sll_cg_cr_rs1_rs2_edges_rs1val_0x80000000_rs2val_0x0+0x18>
    1b88:	14d0246f          	jal	x8,44d4 <failedtest_x8_x7>
    1b8c:	00001b7c          	.word	0x00001b7c
    1b90:	0000afc5          	.word	0x0000afc5
    1b94:	004a0a13          	addi	x20,x20,4

# Testcase cr_rs1_rs2_edges (Test source rs1 = 0x80000000 rs2 = 0x00000001)
  RVTEST_TESTDATA_LOAD_INT(x23, x19) # load rs1: x19 = 0x80000000
    1b98:	000ba983          	lw	x19,0(x23)
    1b9c:	004b8b93          	addi	x23,x23,4
  RVTEST_TESTDATA_LOAD_INT(x23, x15) # load rs2: x15 = 0x00000001
    1ba0:	000ba783          	lw	x15,0(x23)
    1ba4:	004b8b93          	addi	x23,x23,4

00001ba8 <I_sll_cg_cr_rs1_rs2_edges_rs1val_0x80000000_rs2val_0x1>:
I_sll_cg_cr_rs1_rs2_edges_rs1val_0x80000000_rs2val_0x1:
  sll x11, x19, x15 # perform operation
    1ba8:	00f995b3          	sll	x11,x19,x15
  # Check if x11 contains the expected result. x20 is the signature ptr, x8 is the link ptr, x7 is a temp reg.
  RVTEST_SIGUPD(x20, x8, x7, x11, I_sll_cg_cr_rs1_rs2_edges_rs1val_0x80000000_rs2val_0x1, I_sll_cg_cr_rs1_rs2_edges_rs1val_0x80000000_rs2val_0x1_str)
    1bac:	000a2383          	lw	x7,0(x20)
    1bb0:	00b38863          	beq	x7,x11,1bc0 <I_sll_cg_cr_rs1_rs2_edges_rs1val_0x80000000_rs2val_0x1+0x18>
    1bb4:	1210246f          	jal	x8,44d4 <failedtest_x8_x7>
    1bb8:	00001ba8          	.word	0x00001ba8
    1bbc:	0000b019          	.word	0x0000b019
    1bc0:	004a0a13          	addi	x20,x20,4

# Testcase cr_rs1_rs2_edges (Test source rs1 = 0x80000000 rs2 = 0x00000002)
  RVTEST_TESTDATA_LOAD_INT(x23, x16) # load rs1: x16 = 0x80000000
    1bc4:	000ba803          	lw	x16,0(x23)
    1bc8:	004b8b93          	addi	x23,x23,4
  RVTEST_TESTDATA_LOAD_INT(x23, x31) # load rs2: x31 = 0x00000002
    1bcc:	000baf83          	lw	x31,0(x23)
    1bd0:	004b8b93          	addi	x23,x23,4

00001bd4 <I_sll_cg_cr_rs1_rs2_edges_rs1val_0x80000000_rs2val_0x2>:
I_sll_cg_cr_rs1_rs2_edges_rs1val_0x80000000_rs2val_0x2:
  sll x25, x16, x31 # perform operation
    1bd4:	01f81cb3          	sll	x25,x16,x31
  # Check if x25 contains the expected result. x20 is the signature ptr, x8 is the link ptr, x7 is a temp reg.
  RVTEST_SIGUPD(x20, x8, x7, x25, I_sll_cg_cr_rs1_rs2_edges_rs1val_0x80000000_rs2val_0x2, I_sll_cg_cr_rs1_rs2_edges_rs1val_0x80000000_rs2val_0x2_str)
    1bd8:	000a2383          	lw	x7,0(x20)
    1bdc:	01938863          	beq	x7,x25,1bec <I_sll_cg_cr_rs1_rs2_edges_rs1val_0x80000000_rs2val_0x2+0x18>
    1be0:	0f50246f          	jal	x8,44d4 <failedtest_x8_x7>
    1be4:	00001bd4          	.word	0x00001bd4
    1be8:	0000b06d          	.word	0x0000b06d
    1bec:	004a0a13          	addi	x20,x20,4

# Testcase cr_rs1_rs2_edges (Test source rs1 = 0x80000000 rs2 = 0x80000000)
  RVTEST_TESTDATA_LOAD_INT(x23, x2) # load rs1: x2 = 0x80000000
    1bf0:	000ba103          	lw	x2,0(x23)
    1bf4:	004b8b93          	addi	x23,x23,4
  RVTEST_TESTDATA_LOAD_INT(x23, x16) # load rs2: x16 = 0x80000000
    1bf8:	000ba803          	lw	x16,0(x23)
    1bfc:	004b8b93          	addi	x23,x23,4

00001c00 <I_sll_cg_cr_rs1_rs2_edges_rs1val_0x80000000_rs2val_0x80000000>:
I_sll_cg_cr_rs1_rs2_edges_rs1val_0x80000000_rs2val_0x80000000:
  sll x21, x2, x16 # perform operation
    1c00:	01011ab3          	sll	x21,x2,x16
  # Check if x21 contains the expected result. x20 is the signature ptr, x8 is the link ptr, x7 is a temp reg.
  RVTEST_SIGUPD(x20, x8, x7, x21, I_sll_cg_cr_rs1_rs2_edges_rs1val_0x80000000_rs2val_0x80000000, I_sll_cg_cr_rs1_rs2_edges_rs1val_0x80000000_rs2val_0x80000000_str)
    1c04:	000a2383          	lw	x7,0(x20)
    1c08:	01538863          	beq	x7,x21,1c18 <I_sll_cg_cr_rs1_rs2_edges_rs1val_0x80000000_rs2val_0x80000000+0x18>
    1c0c:	0c90246f          	jal	x8,44d4 <failedtest_x8_x7>
    1c10:	00001c00          	.word	0x00001c00
    1c14:	0000b0c1          	.word	0x0000b0c1
    1c18:	004a0a13          	addi	x20,x20,4

# Testcase cr_rs1_rs2_edges (Test source rs1 = 0x80000000 rs2 = 0x80000001)
  RVTEST_TESTDATA_LOAD_INT(x23, x27) # load rs1: x27 = 0x80000000
    1c1c:	000bad83          	lw	x27,0(x23)
    1c20:	004b8b93          	addi	x23,x23,4
  RVTEST_TESTDATA_LOAD_INT(x23, x16) # load rs2: x16 = 0x80000001
    1c24:	000ba803          	lw	x16,0(x23)
    1c28:	004b8b93          	addi	x23,x23,4

00001c2c <I_sll_cg_cr_rs1_rs2_edges_rs1val_0x80000000_rs2val_0x80000001>:
I_sll_cg_cr_rs1_rs2_edges_rs1val_0x80000000_rs2val_0x80000001:
  sll x26, x27, x16 # perform operation
    1c2c:	010d9d33          	sll	x26,x27,x16
  # Check if x26 contains the expected result. x20 is the signature ptr, x8 is the link ptr, x7 is a temp reg.
  RVTEST_SIGUPD(x20, x8, x7, x26, I_sll_cg_cr_rs1_rs2_edges_rs1val_0x80000000_rs2val_0x80000001, I_sll_cg_cr_rs1_rs2_edges_rs1val_0x80000000_rs2val_0x80000001_str)
    1c30:	000a2383          	lw	x7,0(x20)
    1c34:	01a38863          	beq	x7,x26,1c44 <I_sll_cg_cr_rs1_rs2_edges_rs1val_0x80000000_rs2val_0x80000001+0x18>
    1c38:	09d0246f          	jal	x8,44d4 <failedtest_x8_x7>
    1c3c:	00001c2c          	.word	0x00001c2c
    1c40:	0000b11c          	.word	0x0000b11c
    1c44:	004a0a13          	addi	x20,x20,4

# Testcase cr_rs1_rs2_edges (Test source rs1 = 0x80000000 rs2 = 0x7fffffff)
  RVTEST_TESTDATA_LOAD_INT(x23, x28) # load rs1: x28 = 0x80000000
    1c48:	000bae03          	lw	x28,0(x23)
    1c4c:	004b8b93          	addi	x23,x23,4
  RVTEST_TESTDATA_LOAD_INT(x23, x5) # load rs2: x5 = 0x7fffffff
    1c50:	000ba283          	lw	x5,0(x23)
    1c54:	004b8b93          	addi	x23,x23,4

00001c58 <I_sll_cg_cr_rs1_rs2_edges_rs1val_0x80000000_rs2val_0x7fffffff>:
I_sll_cg_cr_rs1_rs2_edges_rs1val_0x80000000_rs2val_0x7fffffff:
  sll x14, x28, x5 # perform operation
    1c58:	005e1733          	sll	x14,x28,x5
  # Check if x14 contains the expected result. x20 is the signature ptr, x8 is the link ptr, x7 is a temp reg.
  RVTEST_SIGUPD(x20, x8, x7, x14, I_sll_cg_cr_rs1_rs2_edges_rs1val_0x80000000_rs2val_0x7fffffff, I_sll_cg_cr_rs1_rs2_edges_rs1val_0x80000000_rs2val_0x7fffffff_str)
    1c5c:	000a2383          	lw	x7,0(x20)
    1c60:	00e38863          	beq	x7,x14,1c70 <I_sll_cg_cr_rs1_rs2_edges_rs1val_0x80000000_rs2val_0x7fffffff+0x18>
    1c64:	0710246f          	jal	x8,44d4 <failedtest_x8_x7>
    1c68:	00001c58          	.word	0x00001c58
    1c6c:	0000b177          	.word	0x0000b177
    1c70:	004a0a13          	addi	x20,x20,4

# Testcase cr_rs1_rs2_edges (Test source rs1 = 0x80000000 rs2 = 0x7ffffffe)
  RVTEST_TESTDATA_LOAD_INT(x23, x11) # load rs1: x11 = 0x80000000
    1c74:	000ba583          	lw	x11,0(x23)
    1c78:	004b8b93          	addi	x23,x23,4
  RVTEST_TESTDATA_LOAD_INT(x23, x22) # load rs2: x22 = 0x7ffffffe
    1c7c:	000bab03          	lw	x22,0(x23)
    1c80:	004b8b93          	addi	x23,x23,4

00001c84 <I_sll_cg_cr_rs1_rs2_edges_rs1val_0x80000000_rs2val_0x7ffffffe>:
I_sll_cg_cr_rs1_rs2_edges_rs1val_0x80000000_rs2val_0x7ffffffe:
  sll x30, x11, x22 # perform operation
    1c84:	01659f33          	sll	x30,x11,x22
  # Check if x30 contains the expected result. x20 is the signature ptr, x8 is the link ptr, x7 is a temp reg.
  RVTEST_SIGUPD(x20, x8, x7, x30, I_sll_cg_cr_rs1_rs2_edges_rs1val_0x80000000_rs2val_0x7ffffffe, I_sll_cg_cr_rs1_rs2_edges_rs1val_0x80000000_rs2val_0x7ffffffe_str)
    1c88:	000a2383          	lw	x7,0(x20)
    1c8c:	01e38863          	beq	x7,x30,1c9c <I_sll_cg_cr_rs1_rs2_edges_rs1val_0x80000000_rs2val_0x7ffffffe+0x18>
    1c90:	0450246f          	jal	x8,44d4 <failedtest_x8_x7>
    1c94:	00001c84          	.word	0x00001c84
    1c98:	0000b1d2          	.word	0x0000b1d2
    1c9c:	004a0a13          	addi	x20,x20,4

# Testcase cr_rs1_rs2_edges (Test source rs1 = 0x80000000 rs2 = 0xffffffff)
  RVTEST_TESTDATA_LOAD_INT(x23, x18) # load rs1: x18 = 0x80000000
    1ca0:	000ba903          	lw	x18,0(x23)
    1ca4:	004b8b93          	addi	x23,x23,4
  RVTEST_TESTDATA_LOAD_INT(x23, x17) # load rs2: x17 = 0xffffffff
    1ca8:	000ba883          	lw	x17,0(x23)
    1cac:	004b8b93          	addi	x23,x23,4

00001cb0 <I_sll_cg_cr_rs1_rs2_edges_rs1val_0x80000000_rs2val_0xffffffff>:
I_sll_cg_cr_rs1_rs2_edges_rs1val_0x80000000_rs2val_0xffffffff:
  sll x22, x18, x17 # perform operation
    1cb0:	01191b33          	sll	x22,x18,x17
  # Check if x22 contains the expected result. x20 is the signature ptr, x8 is the link ptr, x7 is a temp reg.
  RVTEST_SIGUPD(x20, x8, x7, x22, I_sll_cg_cr_rs1_rs2_edges_rs1val_0x80000000_rs2val_0xffffffff, I_sll_cg_cr_rs1_rs2_edges_rs1val_0x80000000_rs2val_0xffffffff_str)
    1cb4:	000a2383          	lw	x7,0(x20)
    1cb8:	01638863          	beq	x7,x22,1cc8 <I_sll_cg_cr_rs1_rs2_edges_rs1val_0x80000000_rs2val_0xffffffff+0x18>
    1cbc:	0190246f          	jal	x8,44d4 <failedtest_x8_x7>
    1cc0:	00001cb0          	.word	0x00001cb0
    1cc4:	0000b22d          	.word	0x0000b22d
    1cc8:	004a0a13          	addi	x20,x20,4

# Testcase cr_rs1_rs2_edges (Test source rs1 = 0x80000000 rs2 = 0xfffffffe)
  RVTEST_TESTDATA_LOAD_INT(x23, x26) # load rs1: x26 = 0x80000000
    1ccc:	000bad03          	lw	x26,0(x23)
    1cd0:	004b8b93          	addi	x23,x23,4
  RVTEST_TESTDATA_LOAD_INT(x23, x18) # load rs2: x18 = 0xfffffffe
    1cd4:	000ba903          	lw	x18,0(x23)
    1cd8:	004b8b93          	addi	x23,x23,4

00001cdc <I_sll_cg_cr_rs1_rs2_edges_rs1val_0x80000000_rs2val_0xfffffffe>:
I_sll_cg_cr_rs1_rs2_edges_rs1val_0x80000000_rs2val_0xfffffffe:
  sll x5, x26, x18 # perform operation
    1cdc:	012d12b3          	sll	x5,x26,x18
  # Check if x5 contains the expected result. x20 is the signature ptr, x8 is the link ptr, x7 is a temp reg.
  RVTEST_SIGUPD(x20, x8, x7, x5, I_sll_cg_cr_rs1_rs2_edges_rs1val_0x80000000_rs2val_0xfffffffe, I_sll_cg_cr_rs1_rs2_edges_rs1val_0x80000000_rs2val_0xfffffffe_str)
    1ce0:	000a2383          	lw	x7,0(x20)
    1ce4:	00538863          	beq	x7,x5,1cf4 <I_sll_cg_cr_rs1_rs2_edges_rs1val_0x80000000_rs2val_0xfffffffe+0x18>
    1ce8:	7ec0246f          	jal	x8,44d4 <failedtest_x8_x7>
    1cec:	00001cdc          	.word	0x00001cdc
    1cf0:	0000b288          	.word	0x0000b288
    1cf4:	004a0a13          	addi	x20,x20,4

# Testcase cr_rs1_rs2_edges (Test source rs1 = 0x80000000 rs2 = 0x5bbc8872)
  RVTEST_TESTDATA_LOAD_INT(x23, x27) # load rs1: x27 = 0x80000000
    1cf8:	000bad83          	lw	x27,0(x23)
    1cfc:	004b8b93          	addi	x23,x23,4
  RVTEST_TESTDATA_LOAD_INT(x23, x26) # load rs2: x26 = 0x5bbc8872
    1d00:	000bad03          	lw	x26,0(x23)
    1d04:	004b8b93          	addi	x23,x23,4

00001d08 <I_sll_cg_cr_rs1_rs2_edges_rs1val_0x80000000_rs2val_0x5bbc8872>:
I_sll_cg_cr_rs1_rs2_edges_rs1val_0x80000000_rs2val_0x5bbc8872:
  sll x12, x27, x26 # perform operation
    1d08:	01ad9633          	sll	x12,x27,x26
  # Check if x12 contains the expected result. x20 is the signature ptr, x8 is the link ptr, x7 is a temp reg.
  RVTEST_SIGUPD(x20, x8, x7, x12, I_sll_cg_cr_rs1_rs2_edges_rs1val_0x80000000_rs2val_0x5bbc8872, I_sll_cg_cr_rs1_rs2_edges_rs1val_0x80000000_rs2val_0x5bbc8872_str)
    1d0c:	000a2383          	lw	x7,0(x20)
    1d10:	00c38863          	beq	x7,x12,1d20 <I_sll_cg_cr_rs1_rs2_edges_rs1val_0x80000000_rs2val_0x5bbc8872+0x18>
    1d14:	7c00246f          	jal	x8,44d4 <failedtest_x8_x7>
    1d18:	00001d08          	.word	0x00001d08
    1d1c:	0000b2e3          	.word	0x0000b2e3
    1d20:	004a0a13          	addi	x20,x20,4

# Testcase cr_rs1_rs2_edges (Test source rs1 = 0x80000000 rs2 = 0xaaaaaaaa)
  RVTEST_TESTDATA_LOAD_INT(x23, x21) # load rs1: x21 = 0x80000000
    1d24:	000baa83          	lw	x21,0(x23)
    1d28:	004b8b93          	addi	x23,x23,4
  RVTEST_TESTDATA_LOAD_INT(x23, x2) # load rs2: x2 = 0xaaaaaaaa
    1d2c:	000ba103          	lw	x2,0(x23)
    1d30:	004b8b93          	addi	x23,x23,4

00001d34 <I_sll_cg_cr_rs1_rs2_edges_rs1val_0x80000000_rs2val_0xaaaaaaaa>:
I_sll_cg_cr_rs1_rs2_edges_rs1val_0x80000000_rs2val_0xaaaaaaaa:
  sll x28, x21, x2 # perform operation
    1d34:	002a9e33          	sll	x28,x21,x2
  # Check if x28 contains the expected result. x20 is the signature ptr, x8 is the link ptr, x7 is a temp reg.
  RVTEST_SIGUPD(x20, x8, x7, x28, I_sll_cg_cr_rs1_rs2_edges_rs1val_0x80000000_rs2val_0xaaaaaaaa, I_sll_cg_cr_rs1_rs2_edges_rs1val_0x80000000_rs2val_0xaaaaaaaa_str)
    1d38:	000a2383          	lw	x7,0(x20)
    1d3c:	01c38863          	beq	x7,x28,1d4c <I_sll_cg_cr_rs1_rs2_edges_rs1val_0x80000000_rs2val_0xaaaaaaaa+0x18>
    1d40:	7940246f          	jal	x8,44d4 <failedtest_x8_x7>
    1d44:	00001d34          	.word	0x00001d34
    1d48:	0000b33e          	.word	0x0000b33e
    1d4c:	004a0a13          	addi	x20,x20,4

# Testcase cr_rs1_rs2_edges (Test source rs1 = 0x80000000 rs2 = 0x55555555)
  RVTEST_TESTDATA_LOAD_INT(x23, x5) # load rs1: x5 = 0x80000000
    1d50:	000ba283          	lw	x5,0(x23)
    1d54:	004b8b93          	addi	x23,x23,4
  RVTEST_TESTDATA_LOAD_INT(x23, x29) # load rs2: x29 = 0x55555555
    1d58:	000bae83          	lw	x29,0(x23)
    1d5c:	004b8b93          	addi	x23,x23,4

00001d60 <I_sll_cg_cr_rs1_rs2_edges_rs1val_0x80000000_rs2val_0x55555555>:
I_sll_cg_cr_rs1_rs2_edges_rs1val_0x80000000_rs2val_0x55555555:
  sll x27, x5, x29 # perform operation
    1d60:	01d29db3          	sll	x27,x5,x29
  # Check if x27 contains the expected result. x20 is the signature ptr, x8 is the link ptr, x7 is a temp reg.
  RVTEST_SIGUPD(x20, x8, x7, x27, I_sll_cg_cr_rs1_rs2_edges_rs1val_0x80000000_rs2val_0x55555555, I_sll_cg_cr_rs1_rs2_edges_rs1val_0x80000000_rs2val_0x55555555_str)
    1d64:	000a2383          	lw	x7,0(x20)
    1d68:	01b38863          	beq	x7,x27,1d78 <I_sll_cg_cr_rs1_rs2_edges_rs1val_0x80000000_rs2val_0x55555555+0x18>
    1d6c:	7680246f          	jal	x8,44d4 <failedtest_x8_x7>
    1d70:	00001d60          	.word	0x00001d60
    1d74:	0000b399          	.word	0x0000b399
    1d78:	004a0a13          	addi	x20,x20,4

# Testcase cr_rs1_rs2_edges (Test source rs1 = 0x80000001 rs2 = 0x00000000)
  RVTEST_TESTDATA_LOAD_INT(x23, x10) # load rs1: x10 = 0x80000001
    1d7c:	000ba503          	lw	x10,0(x23)
    1d80:	004b8b93          	addi	x23,x23,4
  RVTEST_TESTDATA_LOAD_INT(x23, x17) # load rs2: x17 = 0x00000000
    1d84:	000ba883          	lw	x17,0(x23)
    1d88:	004b8b93          	addi	x23,x23,4

00001d8c <I_sll_cg_cr_rs1_rs2_edges_rs1val_0x80000001_rs2val_0x0>:
I_sll_cg_cr_rs1_rs2_edges_rs1val_0x80000001_rs2val_0x0:
  sll x21, x10, x17 # perform operation
    1d8c:	01151ab3          	sll	x21,x10,x17
  # Check if x21 contains the expected result. x20 is the signature ptr, x8 is the link ptr, x7 is a temp reg.
  RVTEST_SIGUPD(x20, x8, x7, x21, I_sll_cg_cr_rs1_rs2_edges_rs1val_0x80000001_rs2val_0x0, I_sll_cg_cr_rs1_rs2_edges_rs1val_0x80000001_rs2val_0x0_str)
    1d90:	000a2383          	lw	x7,0(x20)
    1d94:	01538863          	beq	x7,x21,1da4 <I_sll_cg_cr_rs1_rs2_edges_rs1val_0x80000001_rs2val_0x0+0x18>
    1d98:	73c0246f          	jal	x8,44d4 <failedtest_x8_x7>
    1d9c:	00001d8c          	.word	0x00001d8c
    1da0:	0000b3f4          	.word	0x0000b3f4
    1da4:	004a0a13          	addi	x20,x20,4

# Testcase cr_rs1_rs2_edges (Test source rs1 = 0x80000001 rs2 = 0x00000001)
  RVTEST_TESTDATA_LOAD_INT(x23, x3) # load rs1: x3 = 0x80000001
    1da8:	000ba183          	lw	x3,0(x23)
    1dac:	004b8b93          	addi	x23,x23,4
  RVTEST_TESTDATA_LOAD_INT(x23, x13) # load rs2: x13 = 0x00000001
    1db0:	000ba683          	lw	x13,0(x23)
    1db4:	004b8b93          	addi	x23,x23,4

00001db8 <I_sll_cg_cr_rs1_rs2_edges_rs1val_0x80000001_rs2val_0x1>:
I_sll_cg_cr_rs1_rs2_edges_rs1val_0x80000001_rs2val_0x1:
  sll x2, x3, x13 # perform operation
    1db8:	00d19133          	sll	x2,x3,x13
  # Check if x2 contains the expected result. x20 is the signature ptr, x8 is the link ptr, x7 is a temp reg.
  RVTEST_SIGUPD(x20, x8, x7, x2, I_sll_cg_cr_rs1_rs2_edges_rs1val_0x80000001_rs2val_0x1, I_sll_cg_cr_rs1_rs2_edges_rs1val_0x80000001_rs2val_0x1_str)
    1dbc:	000a2383          	lw	x7,0(x20)
    1dc0:	00238863          	beq	x7,x2,1dd0 <I_sll_cg_cr_rs1_rs2_edges_rs1val_0x80000001_rs2val_0x1+0x18>
    1dc4:	7100246f          	jal	x8,44d4 <failedtest_x8_x7>
    1dc8:	00001db8          	.word	0x00001db8
    1dcc:	0000b448          	.word	0x0000b448
    1dd0:	004a0a13          	addi	x20,x20,4

# Testcase cr_rs1_rs2_edges (Test source rs1 = 0x80000001 rs2 = 0x00000002)
  RVTEST_TESTDATA_LOAD_INT(x23, x5) # load rs1: x5 = 0x80000001
    1dd4:	000ba283          	lw	x5,0(x23)
    1dd8:	004b8b93          	addi	x23,x23,4
  RVTEST_TESTDATA_LOAD_INT(x23, x3) # load rs2: x3 = 0x00000002
    1ddc:	000ba183          	lw	x3,0(x23)
    1de0:	004b8b93          	addi	x23,x23,4

00001de4 <I_sll_cg_cr_rs1_rs2_edges_rs1val_0x80000001_rs2val_0x2>:
I_sll_cg_cr_rs1_rs2_edges_rs1val_0x80000001_rs2val_0x2:
  sll x28, x5, x3 # perform operation
    1de4:	00329e33          	sll	x28,x5,x3
  # Check if x28 contains the expected result. x20 is the signature ptr, x8 is the link ptr, x7 is a temp reg.
  RVTEST_SIGUPD(x20, x8, x7, x28, I_sll_cg_cr_rs1_rs2_edges_rs1val_0x80000001_rs2val_0x2, I_sll_cg_cr_rs1_rs2_edges_rs1val_0x80000001_rs2val_0x2_str)
    1de8:	000a2383          	lw	x7,0(x20)
    1dec:	01c38863          	beq	x7,x28,1dfc <I_sll_cg_cr_rs1_rs2_edges_rs1val_0x80000001_rs2val_0x2+0x18>
    1df0:	6e40246f          	jal	x8,44d4 <failedtest_x8_x7>
    1df4:	00001de4          	.word	0x00001de4
    1df8:	0000b49c          	.word	0x0000b49c
    1dfc:	004a0a13          	addi	x20,x20,4

# Testcase cr_rs1_rs2_edges (Test source rs1 = 0x80000001 rs2 = 0x80000000)
  RVTEST_TESTDATA_LOAD_INT(x23, x31) # load rs1: x31 = 0x80000001
    1e00:	000baf83          	lw	x31,0(x23)
    1e04:	004b8b93          	addi	x23,x23,4
  RVTEST_TESTDATA_LOAD_INT(x23, x14) # load rs2: x14 = 0x80000000
    1e08:	000ba703          	lw	x14,0(x23)
    1e0c:	004b8b93          	addi	x23,x23,4

00001e10 <I_sll_cg_cr_rs1_rs2_edges_rs1val_0x80000001_rs2val_0x80000000>:
I_sll_cg_cr_rs1_rs2_edges_rs1val_0x80000001_rs2val_0x80000000:
  sll x4, x31, x14 # perform operation
    1e10:	00ef9233          	sll	x4,x31,x14
  # Check if x4 contains the expected result. x20 is the signature ptr, x8 is the link ptr, x7 is a temp reg.
  RVTEST_SIGUPD(x20, x8, x7, x4, I_sll_cg_cr_rs1_rs2_edges_rs1val_0x80000001_rs2val_0x80000000, I_sll_cg_cr_rs1_rs2_edges_rs1val_0x80000001_rs2val_0x80000000_str)
    1e14:	000a2383          	lw	x7,0(x20)
    1e18:	00438863          	beq	x7,x4,1e28 <I_sll_cg_cr_rs1_rs2_edges_rs1val_0x80000001_rs2val_0x80000000+0x18>
    1e1c:	6b80246f          	jal	x8,44d4 <failedtest_x8_x7>
    1e20:	00001e10          	.word	0x00001e10
    1e24:	0000b4f0          	.word	0x0000b4f0
    1e28:	004a0a13          	addi	x20,x20,4

# Testcase cr_rs1_rs2_edges (Test source rs1 = 0x80000001 rs2 = 0x80000001)
  RVTEST_TESTDATA_LOAD_INT(x23, x9) # load rs1: x9 = 0x80000001
    1e2c:	000ba483          	lw	x9,0(x23)
    1e30:	004b8b93          	addi	x23,x23,4
  RVTEST_TESTDATA_LOAD_INT(x23, x29) # load rs2: x29 = 0x80000001
    1e34:	000bae83          	lw	x29,0(x23)
    1e38:	004b8b93          	addi	x23,x23,4

00001e3c <I_sll_cg_cr_rs1_rs2_edges_rs1val_0x80000001_rs2val_0x80000001>:
I_sll_cg_cr_rs1_rs2_edges_rs1val_0x80000001_rs2val_0x80000001:
  sll x11, x9, x29 # perform operation
    1e3c:	01d495b3          	sll	x11,x9,x29
  # Check if x11 contains the expected result. x20 is the signature ptr, x8 is the link ptr, x7 is a temp reg.
  RVTEST_SIGUPD(x20, x8, x7, x11, I_sll_cg_cr_rs1_rs2_edges_rs1val_0x80000001_rs2val_0x80000001, I_sll_cg_cr_rs1_rs2_edges_rs1val_0x80000001_rs2val_0x80000001_str)
    1e40:	000a2383          	lw	x7,0(x20)
    1e44:	00b38863          	beq	x7,x11,1e54 <I_sll_cg_cr_rs1_rs2_edges_rs1val_0x80000001_rs2val_0x80000001+0x18>
    1e48:	68c0246f          	jal	x8,44d4 <failedtest_x8_x7>
    1e4c:	00001e3c          	.word	0x00001e3c
    1e50:	0000b54b          	.word	0x0000b54b
    1e54:	004a0a13          	addi	x20,x20,4

# Testcase cr_rs1_rs2_edges (Test source rs1 = 0x80000001 rs2 = 0x7fffffff)
  RVTEST_TESTDATA_LOAD_INT(x23, x17) # load rs1: x17 = 0x80000001
    1e58:	000ba883          	lw	x17,0(x23)
    1e5c:	004b8b93          	addi	x23,x23,4
  RVTEST_TESTDATA_LOAD_INT(x23, x6) # load rs2: x6 = 0x7fffffff
    1e60:	000ba303          	lw	x6,0(x23)
    1e64:	004b8b93          	addi	x23,x23,4

00001e68 <I_sll_cg_cr_rs1_rs2_edges_rs1val_0x80000001_rs2val_0x7fffffff>:
I_sll_cg_cr_rs1_rs2_edges_rs1val_0x80000001_rs2val_0x7fffffff:
  sll x21, x17, x6 # perform operation
    1e68:	00689ab3          	sll	x21,x17,x6
  # Check if x21 contains the expected result. x20 is the signature ptr, x8 is the link ptr, x7 is a temp reg.
  RVTEST_SIGUPD(x20, x8, x7, x21, I_sll_cg_cr_rs1_rs2_edges_rs1val_0x80000001_rs2val_0x7fffffff, I_sll_cg_cr_rs1_rs2_edges_rs1val_0x80000001_rs2val_0x7fffffff_str)
    1e6c:	000a2383          	lw	x7,0(x20)
    1e70:	01538863          	beq	x7,x21,1e80 <I_sll_cg_cr_rs1_rs2_edges_rs1val_0x80000001_rs2val_0x7fffffff+0x18>
    1e74:	6600246f          	jal	x8,44d4 <failedtest_x8_x7>
    1e78:	00001e68          	.word	0x00001e68
    1e7c:	0000b5a6          	.word	0x0000b5a6
    1e80:	004a0a13          	addi	x20,x20,4

# Testcase cr_rs1_rs2_edges (Test source rs1 = 0x80000001 rs2 = 0x7ffffffe)
  RVTEST_TESTDATA_LOAD_INT(x23, x24) # load rs1: x24 = 0x80000001
    1e84:	000bac03          	lw	x24,0(x23)
    1e88:	004b8b93          	addi	x23,x23,4
  RVTEST_TESTDATA_LOAD_INT(x23, x9) # load rs2: x9 = 0x7ffffffe
    1e8c:	000ba483          	lw	x9,0(x23)
    1e90:	004b8b93          	addi	x23,x23,4

00001e94 <I_sll_cg_cr_rs1_rs2_edges_rs1val_0x80000001_rs2val_0x7ffffffe>:
I_sll_cg_cr_rs1_rs2_edges_rs1val_0x80000001_rs2val_0x7ffffffe:
  sll x15, x24, x9 # perform operation
    1e94:	009c17b3          	sll	x15,x24,x9
  # Check if x15 contains the expected result. x20 is the signature ptr, x8 is the link ptr, x7 is a temp reg.
  RVTEST_SIGUPD(x20, x8, x7, x15, I_sll_cg_cr_rs1_rs2_edges_rs1val_0x80000001_rs2val_0x7ffffffe, I_sll_cg_cr_rs1_rs2_edges_rs1val_0x80000001_rs2val_0x7ffffffe_str)
    1e98:	000a2383          	lw	x7,0(x20)
    1e9c:	00f38863          	beq	x7,x15,1eac <I_sll_cg_cr_rs1_rs2_edges_rs1val_0x80000001_rs2val_0x7ffffffe+0x18>
    1ea0:	6340246f          	jal	x8,44d4 <failedtest_x8_x7>
    1ea4:	00001e94          	.word	0x00001e94
    1ea8:	0000b601          	.word	0x0000b601
    1eac:	004a0a13          	addi	x20,x20,4

# Testcase cr_rs1_rs2_edges (Test source rs1 = 0x80000001 rs2 = 0xffffffff)
  RVTEST_TESTDATA_LOAD_INT(x23, x24) # load rs1: x24 = 0x80000001
    1eb0:	000bac03          	lw	x24,0(x23)
    1eb4:	004b8b93          	addi	x23,x23,4
  RVTEST_TESTDATA_LOAD_INT(x23, x22) # load rs2: x22 = 0xffffffff
    1eb8:	000bab03          	lw	x22,0(x23)
    1ebc:	004b8b93          	addi	x23,x23,4

00001ec0 <I_sll_cg_cr_rs1_rs2_edges_rs1val_0x80000001_rs2val_0xffffffff>:
I_sll_cg_cr_rs1_rs2_edges_rs1val_0x80000001_rs2val_0xffffffff:
  sll x25, x24, x22 # perform operation
    1ec0:	016c1cb3          	sll	x25,x24,x22
  # Check if x25 contains the expected result. x20 is the signature ptr, x8 is the link ptr, x7 is a temp reg.
  RVTEST_SIGUPD(x20, x8, x7, x25, I_sll_cg_cr_rs1_rs2_edges_rs1val_0x80000001_rs2val_0xffffffff, I_sll_cg_cr_rs1_rs2_edges_rs1val_0x80000001_rs2val_0xffffffff_str)
    1ec4:	000a2383          	lw	x7,0(x20)
    1ec8:	01938863          	beq	x7,x25,1ed8 <I_sll_cg_cr_rs1_rs2_edges_rs1val_0x80000001_rs2val_0xffffffff+0x18>
    1ecc:	6080246f          	jal	x8,44d4 <failedtest_x8_x7>
    1ed0:	00001ec0          	.word	0x00001ec0
    1ed4:	0000b65c          	.word	0x0000b65c
    1ed8:	004a0a13          	addi	x20,x20,4

# Testcase cr_rs1_rs2_edges (Test source rs1 = 0x80000001 rs2 = 0xfffffffe)
  RVTEST_TESTDATA_LOAD_INT(x23, x14) # load rs1: x14 = 0x80000001
    1edc:	000ba703          	lw	x14,0(x23)
    1ee0:	004b8b93          	addi	x23,x23,4
  RVTEST_TESTDATA_LOAD_INT(x23, x4) # load rs2: x4 = 0xfffffffe
    1ee4:	000ba203          	lw	x4,0(x23)
    1ee8:	004b8b93          	addi	x23,x23,4

00001eec <I_sll_cg_cr_rs1_rs2_edges_rs1val_0x80000001_rs2val_0xfffffffe>:
I_sll_cg_cr_rs1_rs2_edges_rs1val_0x80000001_rs2val_0xfffffffe:
  sll x22, x14, x4 # perform operation
    1eec:	00471b33          	sll	x22,x14,x4
  # Check if x22 contains the expected result. x20 is the signature ptr, x8 is the link ptr, x7 is a temp reg.
  RVTEST_SIGUPD(x20, x8, x7, x22, I_sll_cg_cr_rs1_rs2_edges_rs1val_0x80000001_rs2val_0xfffffffe, I_sll_cg_cr_rs1_rs2_edges_rs1val_0x80000001_rs2val_0xfffffffe_str)
    1ef0:	000a2383          	lw	x7,0(x20)
    1ef4:	01638863          	beq	x7,x22,1f04 <I_sll_cg_cr_rs1_rs2_edges_rs1val_0x80000001_rs2val_0xfffffffe+0x18>
    1ef8:	5dc0246f          	jal	x8,44d4 <failedtest_x8_x7>
    1efc:	00001eec          	.word	0x00001eec
    1f00:	0000b6b7          	.word	0x0000b6b7
    1f04:	004a0a13          	addi	x20,x20,4

# Testcase cr_rs1_rs2_edges (Test source rs1 = 0x80000001 rs2 = 0x5bbc8872)
  RVTEST_TESTDATA_LOAD_INT(x23, x22) # load rs1: x22 = 0x80000001
    1f08:	000bab03          	lw	x22,0(x23)
    1f0c:	004b8b93          	addi	x23,x23,4
  RVTEST_TESTDATA_LOAD_INT(x23, x13) # load rs2: x13 = 0x5bbc8872
    1f10:	000ba683          	lw	x13,0(x23)
    1f14:	004b8b93          	addi	x23,x23,4

00001f18 <I_sll_cg_cr_rs1_rs2_edges_rs1val_0x80000001_rs2val_0x5bbc8872>:
I_sll_cg_cr_rs1_rs2_edges_rs1val_0x80000001_rs2val_0x5bbc8872:
  sll x1, x22, x13 # perform operation
    1f18:	00db10b3          	sll	x1,x22,x13
  # Check if x1 contains the expected result. x20 is the signature ptr, x8 is the link ptr, x7 is a temp reg.
  RVTEST_SIGUPD(x20, x8, x7, x1, I_sll_cg_cr_rs1_rs2_edges_rs1val_0x80000001_rs2val_0x5bbc8872, I_sll_cg_cr_rs1_rs2_edges_rs1val_0x80000001_rs2val_0x5bbc8872_str)
    1f1c:	000a2383          	lw	x7,0(x20)
    1f20:	00138863          	beq	x7,x1,1f30 <I_sll_cg_cr_rs1_rs2_edges_rs1val_0x80000001_rs2val_0x5bbc8872+0x18>
    1f24:	5b00246f          	jal	x8,44d4 <failedtest_x8_x7>
    1f28:	00001f18          	.word	0x00001f18
    1f2c:	0000b712          	.word	0x0000b712
    1f30:	004a0a13          	addi	x20,x20,4

# Testcase cr_rs1_rs2_edges (Test source rs1 = 0x80000001 rs2 = 0xaaaaaaaa)
  RVTEST_TESTDATA_LOAD_INT(x23, x3) # load rs1: x3 = 0x80000001
    1f34:	000ba183          	lw	x3,0(x23)
    1f38:	004b8b93          	addi	x23,x23,4
  RVTEST_TESTDATA_LOAD_INT(x23, x12) # load rs2: x12 = 0xaaaaaaaa
    1f3c:	000ba603          	lw	x12,0(x23)
    1f40:	004b8b93          	addi	x23,x23,4

00001f44 <I_sll_cg_cr_rs1_rs2_edges_rs1val_0x80000001_rs2val_0xaaaaaaaa>:
I_sll_cg_cr_rs1_rs2_edges_rs1val_0x80000001_rs2val_0xaaaaaaaa:
  sll x28, x3, x12 # perform operation
    1f44:	00c19e33          	sll	x28,x3,x12
  # Check if x28 contains the expected result. x20 is the signature ptr, x8 is the link ptr, x7 is a temp reg.
  RVTEST_SIGUPD(x20, x8, x7, x28, I_sll_cg_cr_rs1_rs2_edges_rs1val_0x80000001_rs2val_0xaaaaaaaa, I_sll_cg_cr_rs1_rs2_edges_rs1val_0x80000001_rs2val_0xaaaaaaaa_str)
    1f48:	000a2383          	lw	x7,0(x20)
    1f4c:	01c38863          	beq	x7,x28,1f5c <I_sll_cg_cr_rs1_rs2_edges_rs1val_0x80000001_rs2val_0xaaaaaaaa+0x18>
    1f50:	5840246f          	jal	x8,44d4 <failedtest_x8_x7>
    1f54:	00001f44          	.word	0x00001f44
    1f58:	0000b76d          	.word	0x0000b76d
    1f5c:	004a0a13          	addi	x20,x20,4

# Testcase cr_rs1_rs2_edges (Test source rs1 = 0x80000001 rs2 = 0x55555555)
  RVTEST_TESTDATA_LOAD_INT(x23, x9) # load rs1: x9 = 0x80000001
    1f60:	000ba483          	lw	x9,0(x23)
    1f64:	004b8b93          	addi	x23,x23,4
  RVTEST_TESTDATA_LOAD_INT(x23, x21) # load rs2: x21 = 0x55555555
    1f68:	000baa83          	lw	x21,0(x23)
    1f6c:	004b8b93          	addi	x23,x23,4

00001f70 <I_sll_cg_cr_rs1_rs2_edges_rs1val_0x80000001_rs2val_0x55555555>:
I_sll_cg_cr_rs1_rs2_edges_rs1val_0x80000001_rs2val_0x55555555:
  sll x10, x9, x21 # perform operation
    1f70:	01549533          	sll	x10,x9,x21
  # Check if x10 contains the expected result. x20 is the signature ptr, x8 is the link ptr, x7 is a temp reg.
  RVTEST_SIGUPD(x20, x8, x7, x10, I_sll_cg_cr_rs1_rs2_edges_rs1val_0x80000001_rs2val_0x55555555, I_sll_cg_cr_rs1_rs2_edges_rs1val_0x80000001_rs2val_0x55555555_str)
    1f74:	000a2383          	lw	x7,0(x20)
    1f78:	00a38863          	beq	x7,x10,1f88 <I_sll_cg_cr_rs1_rs2_edges_rs1val_0x80000001_rs2val_0x55555555+0x18>
    1f7c:	5580246f          	jal	x8,44d4 <failedtest_x8_x7>
    1f80:	00001f70          	.word	0x00001f70
    1f84:	0000b7c8          	.word	0x0000b7c8
    1f88:	004a0a13          	addi	x20,x20,4

# Testcase cr_rs1_rs2_edges (Test source rs1 = 0x7fffffff rs2 = 0x00000000)
  RVTEST_TESTDATA_LOAD_INT(x23, x15) # load rs1: x15 = 0x7fffffff
    1f8c:	000ba783          	lw	x15,0(x23)
    1f90:	004b8b93          	addi	x23,x23,4
  RVTEST_TESTDATA_LOAD_INT(x23, x12) # load rs2: x12 = 0x00000000
    1f94:	000ba603          	lw	x12,0(x23)
    1f98:	004b8b93          	addi	x23,x23,4

00001f9c <I_sll_cg_cr_rs1_rs2_edges_rs1val_0x7fffffff_rs2val_0x0>:
I_sll_cg_cr_rs1_rs2_edges_rs1val_0x7fffffff_rs2val_0x0:
  sll x21, x15, x12 # perform operation
    1f9c:	00c79ab3          	sll	x21,x15,x12
  # Check if x21 contains the expected result. x20 is the signature ptr, x8 is the link ptr, x7 is a temp reg.
  RVTEST_SIGUPD(x20, x8, x7, x21, I_sll_cg_cr_rs1_rs2_edges_rs1val_0x7fffffff_rs2val_0x0, I_sll_cg_cr_rs1_rs2_edges_rs1val_0x7fffffff_rs2val_0x0_str)
    1fa0:	000a2383          	lw	x7,0(x20)
    1fa4:	01538863          	beq	x7,x21,1fb4 <I_sll_cg_cr_rs1_rs2_edges_rs1val_0x7fffffff_rs2val_0x0+0x18>
    1fa8:	52c0246f          	jal	x8,44d4 <failedtest_x8_x7>
    1fac:	00001f9c          	.word	0x00001f9c
    1fb0:	0000b823          	.word	0x0000b823
    1fb4:	004a0a13          	addi	x20,x20,4

# Testcase cr_rs1_rs2_edges (Test source rs1 = 0x7fffffff rs2 = 0x00000001)
  RVTEST_TESTDATA_LOAD_INT(x23, x1) # load rs1: x1 = 0x7fffffff
    1fb8:	000ba083          	lw	x1,0(x23)
    1fbc:	004b8b93          	addi	x23,x23,4
  RVTEST_TESTDATA_LOAD_INT(x23, x27) # load rs2: x27 = 0x00000001
    1fc0:	000bad83          	lw	x27,0(x23)
    1fc4:	004b8b93          	addi	x23,x23,4

00001fc8 <I_sll_cg_cr_rs1_rs2_edges_rs1val_0x7fffffff_rs2val_0x1>:
I_sll_cg_cr_rs1_rs2_edges_rs1val_0x7fffffff_rs2val_0x1:
  sll x13, x1, x27 # perform operation
    1fc8:	01b096b3          	sll	x13,x1,x27
  # Check if x13 contains the expected result. x20 is the signature ptr, x8 is the link ptr, x7 is a temp reg.
  RVTEST_SIGUPD(x20, x8, x7, x13, I_sll_cg_cr_rs1_rs2_edges_rs1val_0x7fffffff_rs2val_0x1, I_sll_cg_cr_rs1_rs2_edges_rs1val_0x7fffffff_rs2val_0x1_str)
    1fcc:	000a2383          	lw	x7,0(x20)
    1fd0:	00d38863          	beq	x7,x13,1fe0 <I_sll_cg_cr_rs1_rs2_edges_rs1val_0x7fffffff_rs2val_0x1+0x18>
    1fd4:	5000246f          	jal	x8,44d4 <failedtest_x8_x7>
    1fd8:	00001fc8          	.word	0x00001fc8
    1fdc:	0000b877          	.word	0x0000b877
    1fe0:	004a0a13          	addi	x20,x20,4

# Testcase cr_rs1_rs2_edges (Test source rs1 = 0x7fffffff rs2 = 0x00000002)
  RVTEST_TESTDATA_LOAD_INT(x23, x29) # load rs1: x29 = 0x7fffffff
    1fe4:	000bae83          	lw	x29,0(x23)
    1fe8:	004b8b93          	addi	x23,x23,4
  RVTEST_TESTDATA_LOAD_INT(x23, x27) # load rs2: x27 = 0x00000002
    1fec:	000bad83          	lw	x27,0(x23)
    1ff0:	004b8b93          	addi	x23,x23,4

00001ff4 <I_sll_cg_cr_rs1_rs2_edges_rs1val_0x7fffffff_rs2val_0x2>:
I_sll_cg_cr_rs1_rs2_edges_rs1val_0x7fffffff_rs2val_0x2:
  sll x1, x29, x27 # perform operation
    1ff4:	01be90b3          	sll	x1,x29,x27
  # Check if x1 contains the expected result. x20 is the signature ptr, x8 is the link ptr, x7 is a temp reg.
  RVTEST_SIGUPD(x20, x8, x7, x1, I_sll_cg_cr_rs1_rs2_edges_rs1val_0x7fffffff_rs2val_0x2, I_sll_cg_cr_rs1_rs2_edges_rs1val_0x7fffffff_rs2val_0x2_str)
    1ff8:	000a2383          	lw	x7,0(x20)
    1ffc:	00138863          	beq	x7,x1,200c <I_sll_cg_cr_rs1_rs2_edges_rs1val_0x7fffffff_rs2val_0x2+0x18>
    2000:	4d40246f          	jal	x8,44d4 <failedtest_x8_x7>
    2004:	00001ff4          	.word	0x00001ff4
    2008:	0000b8cb          	.word	0x0000b8cb
    200c:	004a0a13          	addi	x20,x20,4

# Testcase cr_rs1_rs2_edges (Test source rs1 = 0x7fffffff rs2 = 0x80000000)
  RVTEST_TESTDATA_LOAD_INT(x23, x30) # load rs1: x30 = 0x7fffffff
    2010:	000baf03          	lw	x30,0(x23)
    2014:	004b8b93          	addi	x23,x23,4
  RVTEST_TESTDATA_LOAD_INT(x23, x9) # load rs2: x9 = 0x80000000
    2018:	000ba483          	lw	x9,0(x23)
    201c:	004b8b93          	addi	x23,x23,4

00002020 <I_sll_cg_cr_rs1_rs2_edges_rs1val_0x7fffffff_rs2val_0x80000000>:
I_sll_cg_cr_rs1_rs2_edges_rs1val_0x7fffffff_rs2val_0x80000000:
  sll x25, x30, x9 # perform operation
    2020:	009f1cb3          	sll	x25,x30,x9
  # Check if x25 contains the expected result. x20 is the signature ptr, x8 is the link ptr, x7 is a temp reg.
  RVTEST_SIGUPD(x20, x8, x7, x25, I_sll_cg_cr_rs1_rs2_edges_rs1val_0x7fffffff_rs2val_0x80000000, I_sll_cg_cr_rs1_rs2_edges_rs1val_0x7fffffff_rs2val_0x80000000_str)
    2024:	000a2383          	lw	x7,0(x20)
    2028:	01938863          	beq	x7,x25,2038 <I_sll_cg_cr_rs1_rs2_edges_rs1val_0x7fffffff_rs2val_0x80000000+0x18>
    202c:	4a80246f          	jal	x8,44d4 <failedtest_x8_x7>
    2030:	00002020          	.word	0x00002020
    2034:	0000b91f          	.word	0x0000b91f
    2038:	004a0a13          	addi	x20,x20,4

# Testcase cr_rs1_rs2_edges (Test source rs1 = 0x7fffffff rs2 = 0x80000001)
  RVTEST_TESTDATA_LOAD_INT(x23, x13) # load rs1: x13 = 0x7fffffff
    203c:	000ba683          	lw	x13,0(x23)
    2040:	004b8b93          	addi	x23,x23,4
  RVTEST_TESTDATA_LOAD_INT(x23, x1) # load rs2: x1 = 0x80000001
    2044:	000ba083          	lw	x1,0(x23)
    2048:	004b8b93          	addi	x23,x23,4

0000204c <I_sll_cg_cr_rs1_rs2_edges_rs1val_0x7fffffff_rs2val_0x80000001>:
I_sll_cg_cr_rs1_rs2_edges_rs1val_0x7fffffff_rs2val_0x80000001:
  sll x9, x13, x1 # perform operation
    204c:	001694b3          	sll	x9,x13,x1
  # Check if x9 contains the expected result. x20 is the signature ptr, x8 is the link ptr, x7 is a temp reg.
  RVTEST_SIGUPD(x20, x8, x7, x9, I_sll_cg_cr_rs1_rs2_edges_rs1val_0x7fffffff_rs2val_0x80000001, I_sll_cg_cr_rs1_rs2_edges_rs1val_0x7fffffff_rs2val_0x80000001_str)
    2050:	000a2383          	lw	x7,0(x20)
    2054:	00938863          	beq	x7,x9,2064 <I_sll_cg_cr_rs1_rs2_edges_rs1val_0x7fffffff_rs2val_0x80000001+0x18>
    2058:	47c0246f          	jal	x8,44d4 <failedtest_x8_x7>
    205c:	0000204c          	.word	0x0000204c
    2060:	0000b97a          	.word	0x0000b97a
    2064:	004a0a13          	addi	x20,x20,4

# Testcase cr_rs1_rs2_edges (Test source rs1 = 0x7fffffff rs2 = 0x7fffffff)
  RVTEST_TESTDATA_LOAD_INT(x23, x14) # load rs1: x14 = 0x7fffffff
    2068:	000ba703          	lw	x14,0(x23)
    206c:	004b8b93          	addi	x23,x23,4
  RVTEST_TESTDATA_LOAD_INT(x23, x4) # load rs2: x4 = 0x7fffffff
    2070:	000ba203          	lw	x4,0(x23)
    2074:	004b8b93          	addi	x23,x23,4

00002078 <I_sll_cg_cr_rs1_rs2_edges_rs1val_0x7fffffff_rs2val_0x7fffffff>:
I_sll_cg_cr_rs1_rs2_edges_rs1val_0x7fffffff_rs2val_0x7fffffff:
  sll x11, x14, x4 # perform operation
    2078:	004715b3          	sll	x11,x14,x4
  # Check if x11 contains the expected result. x20 is the signature ptr, x8 is the link ptr, x7 is a temp reg.
  RVTEST_SIGUPD(x20, x8, x7, x11, I_sll_cg_cr_rs1_rs2_edges_rs1val_0x7fffffff_rs2val_0x7fffffff, I_sll_cg_cr_rs1_rs2_edges_rs1val_0x7fffffff_rs2val_0x7fffffff_str)
    207c:	000a2383          	lw	x7,0(x20)
    2080:	00b38863          	beq	x7,x11,2090 <I_sll_cg_cr_rs1_rs2_edges_rs1val_0x7fffffff_rs2val_0x7fffffff+0x18>
    2084:	4500246f          	jal	x8,44d4 <failedtest_x8_x7>
    2088:	00002078          	.word	0x00002078
    208c:	0000b9d5          	.word	0x0000b9d5
    2090:	004a0a13          	addi	x20,x20,4

# Testcase cr_rs1_rs2_edges (Test source rs1 = 0x7fffffff rs2 = 0x7ffffffe)
  RVTEST_TESTDATA_LOAD_INT(x23, x19) # load rs1: x19 = 0x7fffffff
    2094:	000ba983          	lw	x19,0(x23)
    2098:	004b8b93          	addi	x23,x23,4
  RVTEST_TESTDATA_LOAD_INT(x23, x21) # load rs2: x21 = 0x7ffffffe
    209c:	000baa83          	lw	x21,0(x23)
    20a0:	004b8b93          	addi	x23,x23,4

000020a4 <I_sll_cg_cr_rs1_rs2_edges_rs1val_0x7fffffff_rs2val_0x7ffffffe>:
I_sll_cg_cr_rs1_rs2_edges_rs1val_0x7fffffff_rs2val_0x7ffffffe:
  sll x13, x19, x21 # perform operation
    20a4:	015996b3          	sll	x13,x19,x21
  # Check if x13 contains the expected result. x20 is the signature ptr, x8 is the link ptr, x7 is a temp reg.
  RVTEST_SIGUPD(x20, x8, x7, x13, I_sll_cg_cr_rs1_rs2_edges_rs1val_0x7fffffff_rs2val_0x7ffffffe, I_sll_cg_cr_rs1_rs2_edges_rs1val_0x7fffffff_rs2val_0x7ffffffe_str)
    20a8:	000a2383          	lw	x7,0(x20)
    20ac:	00d38863          	beq	x7,x13,20bc <I_sll_cg_cr_rs1_rs2_edges_rs1val_0x7fffffff_rs2val_0x7ffffffe+0x18>
    20b0:	4240246f          	jal	x8,44d4 <failedtest_x8_x7>
    20b4:	000020a4          	.word	0x000020a4
    20b8:	0000ba30          	.word	0x0000ba30
    20bc:	004a0a13          	addi	x20,x20,4

# Testcase cr_rs1_rs2_edges (Test source rs1 = 0x7fffffff rs2 = 0xffffffff)
  RVTEST_TESTDATA_LOAD_INT(x23, x27) # load rs1: x27 = 0x7fffffff
    20c0:	000bad83          	lw	x27,0(x23)
    20c4:	004b8b93          	addi	x23,x23,4
  RVTEST_TESTDATA_LOAD_INT(x23, x13) # load rs2: x13 = 0xffffffff
    20c8:	000ba683          	lw	x13,0(x23)
    20cc:	004b8b93          	addi	x23,x23,4

000020d0 <I_sll_cg_cr_rs1_rs2_edges_rs1val_0x7fffffff_rs2val_0xffffffff>:
I_sll_cg_cr_rs1_rs2_edges_rs1val_0x7fffffff_rs2val_0xffffffff:
  sll x2, x27, x13 # perform operation
    20d0:	00dd9133          	sll	x2,x27,x13
  # Check if x2 contains the expected result. x20 is the signature ptr, x8 is the link ptr, x7 is a temp reg.
  RVTEST_SIGUPD(x20, x8, x7, x2, I_sll_cg_cr_rs1_rs2_edges_rs1val_0x7fffffff_rs2val_0xffffffff, I_sll_cg_cr_rs1_rs2_edges_rs1val_0x7fffffff_rs2val_0xffffffff_str)
    20d4:	000a2383          	lw	x7,0(x20)
    20d8:	00238863          	beq	x7,x2,20e8 <I_sll_cg_cr_rs1_rs2_edges_rs1val_0x7fffffff_rs2val_0xffffffff+0x18>
    20dc:	3f80246f          	jal	x8,44d4 <failedtest_x8_x7>
    20e0:	000020d0          	.word	0x000020d0
    20e4:	0000ba8b          	.word	0x0000ba8b
    20e8:	004a0a13          	addi	x20,x20,4

# Testcase cr_rs1_rs2_edges (Test source rs1 = 0x7fffffff rs2 = 0xfffffffe)
  RVTEST_TESTDATA_LOAD_INT(x23, x19) # load rs1: x19 = 0x7fffffff
    20ec:	000ba983          	lw	x19,0(x23)
    20f0:	004b8b93          	addi	x23,x23,4
  RVTEST_TESTDATA_LOAD_INT(x23, x21) # load rs2: x21 = 0xfffffffe
    20f4:	000baa83          	lw	x21,0(x23)
    20f8:	004b8b93          	addi	x23,x23,4

000020fc <I_sll_cg_cr_rs1_rs2_edges_rs1val_0x7fffffff_rs2val_0xfffffffe>:
I_sll_cg_cr_rs1_rs2_edges_rs1val_0x7fffffff_rs2val_0xfffffffe:
  sll x26, x19, x21 # perform operation
    20fc:	01599d33          	sll	x26,x19,x21
  # Check if x26 contains the expected result. x20 is the signature ptr, x8 is the link ptr, x7 is a temp reg.
  RVTEST_SIGUPD(x20, x8, x7, x26, I_sll_cg_cr_rs1_rs2_edges_rs1val_0x7fffffff_rs2val_0xfffffffe, I_sll_cg_cr_rs1_rs2_edges_rs1val_0x7fffffff_rs2val_0xfffffffe_str)
    2100:	000a2383          	lw	x7,0(x20)
    2104:	01a38863          	beq	x7,x26,2114 <I_sll_cg_cr_rs1_rs2_edges_rs1val_0x7fffffff_rs2val_0xfffffffe+0x18>
    2108:	3cc0246f          	jal	x8,44d4 <failedtest_x8_x7>
    210c:	000020fc          	.word	0x000020fc
    2110:	0000bae6          	.word	0x0000bae6
    2114:	004a0a13          	addi	x20,x20,4

# Testcase cr_rs1_rs2_edges (Test source rs1 = 0x7fffffff rs2 = 0x5bbc8872)
  RVTEST_TESTDATA_LOAD_INT(x23, x4) # load rs1: x4 = 0x7fffffff
    2118:	000ba203          	lw	x4,0(x23)
    211c:	004b8b93          	addi	x23,x23,4
  RVTEST_TESTDATA_LOAD_INT(x23, x19) # load rs2: x19 = 0x5bbc8872
    2120:	000ba983          	lw	x19,0(x23)
    2124:	004b8b93          	addi	x23,x23,4

00002128 <I_sll_cg_cr_rs1_rs2_edges_rs1val_0x7fffffff_rs2val_0x5bbc8872>:
I_sll_cg_cr_rs1_rs2_edges_rs1val_0x7fffffff_rs2val_0x5bbc8872:
  sll x5, x4, x19 # perform operation
    2128:	013212b3          	sll	x5,x4,x19
  # Check if x5 contains the expected result. x20 is the signature ptr, x8 is the link ptr, x7 is a temp reg.
  RVTEST_SIGUPD(x20, x8, x7, x5, I_sll_cg_cr_rs1_rs2_edges_rs1val_0x7fffffff_rs2val_0x5bbc8872, I_sll_cg_cr_rs1_rs2_edges_rs1val_0x7fffffff_rs2val_0x5bbc8872_str)
    212c:	000a2383          	lw	x7,0(x20)
    2130:	00538863          	beq	x7,x5,2140 <I_sll_cg_cr_rs1_rs2_edges_rs1val_0x7fffffff_rs2val_0x5bbc8872+0x18>
    2134:	3a00246f          	jal	x8,44d4 <failedtest_x8_x7>
    2138:	00002128          	.word	0x00002128
    213c:	0000bb41          	.word	0x0000bb41
    2140:	004a0a13          	addi	x20,x20,4

# Testcase cr_rs1_rs2_edges (Test source rs1 = 0x7fffffff rs2 = 0xaaaaaaaa)
  RVTEST_TESTDATA_LOAD_INT(x23, x30) # load rs1: x30 = 0x7fffffff
    2144:	000baf03          	lw	x30,0(x23)
    2148:	004b8b93          	addi	x23,x23,4
  RVTEST_TESTDATA_LOAD_INT(x23, x25) # load rs2: x25 = 0xaaaaaaaa
    214c:	000bac83          	lw	x25,0(x23)
    2150:	004b8b93          	addi	x23,x23,4

00002154 <I_sll_cg_cr_rs1_rs2_edges_rs1val_0x7fffffff_rs2val_0xaaaaaaaa>:
I_sll_cg_cr_rs1_rs2_edges_rs1val_0x7fffffff_rs2val_0xaaaaaaaa:
  sll x17, x30, x25 # perform operation
    2154:	019f18b3          	sll	x17,x30,x25
  # Check if x17 contains the expected result. x20 is the signature ptr, x8 is the link ptr, x7 is a temp reg.
  RVTEST_SIGUPD(x20, x8, x7, x17, I_sll_cg_cr_rs1_rs2_edges_rs1val_0x7fffffff_rs2val_0xaaaaaaaa, I_sll_cg_cr_rs1_rs2_edges_rs1val_0x7fffffff_rs2val_0xaaaaaaaa_str)
    2158:	000a2383          	lw	x7,0(x20)
    215c:	01138863          	beq	x7,x17,216c <I_sll_cg_cr_rs1_rs2_edges_rs1val_0x7fffffff_rs2val_0xaaaaaaaa+0x18>
    2160:	3740246f          	jal	x8,44d4 <failedtest_x8_x7>
    2164:	00002154          	.word	0x00002154
    2168:	0000bb9c          	.word	0x0000bb9c
    216c:	004a0a13          	addi	x20,x20,4

# Testcase cr_rs1_rs2_edges (Test source rs1 = 0x7fffffff rs2 = 0x55555555)
  RVTEST_TESTDATA_LOAD_INT(x23, x6) # load rs1: x6 = 0x7fffffff
    2170:	000ba303          	lw	x6,0(x23)
    2174:	004b8b93          	addi	x23,x23,4
  RVTEST_TESTDATA_LOAD_INT(x23, x24) # load rs2: x24 = 0x55555555
    2178:	000bac03          	lw	x24,0(x23)
    217c:	004b8b93          	addi	x23,x23,4

00002180 <I_sll_cg_cr_rs1_rs2_edges_rs1val_0x7fffffff_rs2val_0x55555555>:
I_sll_cg_cr_rs1_rs2_edges_rs1val_0x7fffffff_rs2val_0x55555555:
  sll x10, x6, x24 # perform operation
    2180:	01831533          	sll	x10,x6,x24
  # Check if x10 contains the expected result. x20 is the signature ptr, x8 is the link ptr, x7 is a temp reg.
  RVTEST_SIGUPD(x20, x8, x7, x10, I_sll_cg_cr_rs1_rs2_edges_rs1val_0x7fffffff_rs2val_0x55555555, I_sll_cg_cr_rs1_rs2_edges_rs1val_0x7fffffff_rs2val_0x55555555_str)
    2184:	000a2383          	lw	x7,0(x20)
    2188:	00a38863          	beq	x7,x10,2198 <I_sll_cg_cr_rs1_rs2_edges_rs1val_0x7fffffff_rs2val_0x55555555+0x18>
    218c:	3480246f          	jal	x8,44d4 <failedtest_x8_x7>
    2190:	00002180          	.word	0x00002180
    2194:	0000bbf7          	.word	0x0000bbf7
    2198:	004a0a13          	addi	x20,x20,4

# Testcase cr_rs1_rs2_edges (Test source rs1 = 0x7ffffffe rs2 = 0x00000000)
  RVTEST_TESTDATA_LOAD_INT(x23, x15) # load rs1: x15 = 0x7ffffffe
    219c:	000ba783          	lw	x15,0(x23)
    21a0:	004b8b93          	addi	x23,x23,4
  RVTEST_TESTDATA_LOAD_INT(x23, x6) # load rs2: x6 = 0x00000000
    21a4:	000ba303          	lw	x6,0(x23)
    21a8:	004b8b93          	addi	x23,x23,4

000021ac <I_sll_cg_cr_rs1_rs2_edges_rs1val_0x7ffffffe_rs2val_0x0>:
I_sll_cg_cr_rs1_rs2_edges_rs1val_0x7ffffffe_rs2val_0x0:
  sll x9, x15, x6 # perform operation
    21ac:	006794b3          	sll	x9,x15,x6
  # Check if x9 contains the expected result. x20 is the signature ptr, x8 is the link ptr, x7 is a temp reg.
  RVTEST_SIGUPD(x20, x8, x7, x9, I_sll_cg_cr_rs1_rs2_edges_rs1val_0x7ffffffe_rs2val_0x0, I_sll_cg_cr_rs1_rs2_edges_rs1val_0x7ffffffe_rs2val_0x0_str)
    21b0:	000a2383          	lw	x7,0(x20)
    21b4:	00938863          	beq	x7,x9,21c4 <I_sll_cg_cr_rs1_rs2_edges_rs1val_0x7ffffffe_rs2val_0x0+0x18>
    21b8:	31c0246f          	jal	x8,44d4 <failedtest_x8_x7>
    21bc:	000021ac          	.word	0x000021ac
    21c0:	0000bc52          	.word	0x0000bc52
    21c4:	004a0a13          	addi	x20,x20,4

# Testcase cr_rs1_rs2_edges (Test source rs1 = 0x7ffffffe rs2 = 0x00000001)
  RVTEST_TESTDATA_LOAD_INT(x23, x25) # load rs1: x25 = 0x7ffffffe
    21c8:	000bac83          	lw	x25,0(x23)
    21cc:	004b8b93          	addi	x23,x23,4
  RVTEST_TESTDATA_LOAD_INT(x23, x1) # load rs2: x1 = 0x00000001
    21d0:	000ba083          	lw	x1,0(x23)
    21d4:	004b8b93          	addi	x23,x23,4

000021d8 <I_sll_cg_cr_rs1_rs2_edges_rs1val_0x7ffffffe_rs2val_0x1>:
I_sll_cg_cr_rs1_rs2_edges_rs1val_0x7ffffffe_rs2val_0x1:
  sll x12, x25, x1 # perform operation
    21d8:	001c9633          	sll	x12,x25,x1
  # Check if x12 contains the expected result. x20 is the signature ptr, x8 is the link ptr, x7 is a temp reg.
  RVTEST_SIGUPD(x20, x8, x7, x12, I_sll_cg_cr_rs1_rs2_edges_rs1val_0x7ffffffe_rs2val_0x1, I_sll_cg_cr_rs1_rs2_edges_rs1val_0x7ffffffe_rs2val_0x1_str)
    21dc:	000a2383          	lw	x7,0(x20)
    21e0:	00c38863          	beq	x7,x12,21f0 <I_sll_cg_cr_rs1_rs2_edges_rs1val_0x7ffffffe_rs2val_0x1+0x18>
    21e4:	2f00246f          	jal	x8,44d4 <failedtest_x8_x7>
    21e8:	000021d8          	.word	0x000021d8
    21ec:	0000bca6          	.word	0x0000bca6
    21f0:	004a0a13          	addi	x20,x20,4

# Testcase cr_rs1_rs2_edges (Test source rs1 = 0x7ffffffe rs2 = 0x00000002)
  RVTEST_TESTDATA_LOAD_INT(x23, x19) # load rs1: x19 = 0x7ffffffe
    21f4:	000ba983          	lw	x19,0(x23)
    21f8:	004b8b93          	addi	x23,x23,4
  RVTEST_TESTDATA_LOAD_INT(x23, x10) # load rs2: x10 = 0x00000002
    21fc:	000ba503          	lw	x10,0(x23)
    2200:	004b8b93          	addi	x23,x23,4

00002204 <I_sll_cg_cr_rs1_rs2_edges_rs1val_0x7ffffffe_rs2val_0x2>:
I_sll_cg_cr_rs1_rs2_edges_rs1val_0x7ffffffe_rs2val_0x2:
  sll x31, x19, x10 # perform operation
    2204:	00a99fb3          	sll	x31,x19,x10
  # Check if x31 contains the expected result. x20 is the signature ptr, x8 is the link ptr, x7 is a temp reg.
  RVTEST_SIGUPD(x20, x8, x7, x31, I_sll_cg_cr_rs1_rs2_edges_rs1val_0x7ffffffe_rs2val_0x2, I_sll_cg_cr_rs1_rs2_edges_rs1val_0x7ffffffe_rs2val_0x2_str)
    2208:	000a2383          	lw	x7,0(x20)
    220c:	01f38863          	beq	x7,x31,221c <I_sll_cg_cr_rs1_rs2_edges_rs1val_0x7ffffffe_rs2val_0x2+0x18>
    2210:	2c40246f          	jal	x8,44d4 <failedtest_x8_x7>
    2214:	00002204          	.word	0x00002204
    2218:	0000bcfa          	.word	0x0000bcfa
    221c:	004a0a13          	addi	x20,x20,4

# Testcase cr_rs1_rs2_edges (Test source rs1 = 0x7ffffffe rs2 = 0x80000000)
  RVTEST_TESTDATA_LOAD_INT(x23, x3) # load rs1: x3 = 0x7ffffffe
    2220:	000ba183          	lw	x3,0(x23)
    2224:	004b8b93          	addi	x23,x23,4
  RVTEST_TESTDATA_LOAD_INT(x23, x25) # load rs2: x25 = 0x80000000
    2228:	000bac83          	lw	x25,0(x23)
    222c:	004b8b93          	addi	x23,x23,4

00002230 <I_sll_cg_cr_rs1_rs2_edges_rs1val_0x7ffffffe_rs2val_0x80000000>:
I_sll_cg_cr_rs1_rs2_edges_rs1val_0x7ffffffe_rs2val_0x80000000:
  sll x27, x3, x25 # perform operation
    2230:	01919db3          	sll	x27,x3,x25
  # Check if x27 contains the expected result. x20 is the signature ptr, x8 is the link ptr, x7 is a temp reg.
  RVTEST_SIGUPD(x20, x8, x7, x27, I_sll_cg_cr_rs1_rs2_edges_rs1val_0x7ffffffe_rs2val_0x80000000, I_sll_cg_cr_rs1_rs2_edges_rs1val_0x7ffffffe_rs2val_0x80000000_str)
    2234:	000a2383          	lw	x7,0(x20)
    2238:	01b38863          	beq	x7,x27,2248 <I_sll_cg_cr_rs1_rs2_edges_rs1val_0x7ffffffe_rs2val_0x80000000+0x18>
    223c:	2980246f          	jal	x8,44d4 <failedtest_x8_x7>
    2240:	00002230          	.word	0x00002230
    2244:	0000bd4e          	.word	0x0000bd4e
    2248:	004a0a13          	addi	x20,x20,4

# Testcase cr_rs1_rs2_edges (Test source rs1 = 0x7ffffffe rs2 = 0x80000001)
  RVTEST_TESTDATA_LOAD_INT(x23, x15) # load rs1: x15 = 0x7ffffffe
    224c:	000ba783          	lw	x15,0(x23)
    2250:	004b8b93          	addi	x23,x23,4
  RVTEST_TESTDATA_LOAD_INT(x23, x5) # load rs2: x5 = 0x80000001
    2254:	000ba283          	lw	x5,0(x23)
    2258:	004b8b93          	addi	x23,x23,4

0000225c <I_sll_cg_cr_rs1_rs2_edges_rs1val_0x7ffffffe_rs2val_0x80000001>:
I_sll_cg_cr_rs1_rs2_edges_rs1val_0x7ffffffe_rs2val_0x80000001:
  sll x18, x15, x5 # perform operation
    225c:	00579933          	sll	x18,x15,x5
  # Check if x18 contains the expected result. x20 is the signature ptr, x8 is the link ptr, x7 is a temp reg.
  RVTEST_SIGUPD(x20, x8, x7, x18, I_sll_cg_cr_rs1_rs2_edges_rs1val_0x7ffffffe_rs2val_0x80000001, I_sll_cg_cr_rs1_rs2_edges_rs1val_0x7ffffffe_rs2val_0x80000001_str)
    2260:	000a2383          	lw	x7,0(x20)
    2264:	01238863          	beq	x7,x18,2274 <I_sll_cg_cr_rs1_rs2_edges_rs1val_0x7ffffffe_rs2val_0x80000001+0x18>
    2268:	26c0246f          	jal	x8,44d4 <failedtest_x8_x7>
    226c:	0000225c          	.word	0x0000225c
    2270:	0000bda9          	.word	0x0000bda9
    2274:	004a0a13          	addi	x20,x20,4

# Testcase cr_rs1_rs2_edges (Test source rs1 = 0x7ffffffe rs2 = 0x7fffffff)
  RVTEST_TESTDATA_LOAD_INT(x23, x2) # load rs1: x2 = 0x7ffffffe
    2278:	000ba103          	lw	x2,0(x23)
    227c:	004b8b93          	addi	x23,x23,4
  RVTEST_TESTDATA_LOAD_INT(x23, x22) # load rs2: x22 = 0x7fffffff
    2280:	000bab03          	lw	x22,0(x23)
    2284:	004b8b93          	addi	x23,x23,4

00002288 <I_sll_cg_cr_rs1_rs2_edges_rs1val_0x7ffffffe_rs2val_0x7fffffff>:
I_sll_cg_cr_rs1_rs2_edges_rs1val_0x7ffffffe_rs2val_0x7fffffff:
  sll x28, x2, x22 # perform operation
    2288:	01611e33          	sll	x28,x2,x22
  # Check if x28 contains the expected result. x20 is the signature ptr, x8 is the link ptr, x7 is a temp reg.
  RVTEST_SIGUPD(x20, x8, x7, x28, I_sll_cg_cr_rs1_rs2_edges_rs1val_0x7ffffffe_rs2val_0x7fffffff, I_sll_cg_cr_rs1_rs2_edges_rs1val_0x7ffffffe_rs2val_0x7fffffff_str)
    228c:	000a2383          	lw	x7,0(x20)
    2290:	01c38863          	beq	x7,x28,22a0 <I_sll_cg_cr_rs1_rs2_edges_rs1val_0x7ffffffe_rs2val_0x7fffffff+0x18>
    2294:	2400246f          	jal	x8,44d4 <failedtest_x8_x7>
    2298:	00002288          	.word	0x00002288
    229c:	0000be04          	.word	0x0000be04
    22a0:	004a0a13          	addi	x20,x20,4

# Testcase cr_rs1_rs2_edges (Test source rs1 = 0x7ffffffe rs2 = 0x7ffffffe)
  RVTEST_TESTDATA_LOAD_INT(x23, x26) # load rs1: x26 = 0x7ffffffe
    22a4:	000bad03          	lw	x26,0(x23)
    22a8:	004b8b93          	addi	x23,x23,4
  RVTEST_TESTDATA_LOAD_INT(x23, x10) # load rs2: x10 = 0x7ffffffe
    22ac:	000ba503          	lw	x10,0(x23)
    22b0:	004b8b93          	addi	x23,x23,4

000022b4 <I_sll_cg_cr_rs1_rs2_edges_rs1val_0x7ffffffe_rs2val_0x7ffffffe>:
I_sll_cg_cr_rs1_rs2_edges_rs1val_0x7ffffffe_rs2val_0x7ffffffe:
  sll x14, x26, x10 # perform operation
    22b4:	00ad1733          	sll	x14,x26,x10
  # Check if x14 contains the expected result. x20 is the signature ptr, x8 is the link ptr, x7 is a temp reg.
  RVTEST_SIGUPD(x20, x8, x7, x14, I_sll_cg_cr_rs1_rs2_edges_rs1val_0x7ffffffe_rs2val_0x7ffffffe, I_sll_cg_cr_rs1_rs2_edges_rs1val_0x7ffffffe_rs2val_0x7ffffffe_str)
    22b8:	000a2383          	lw	x7,0(x20)
    22bc:	00e38863          	beq	x7,x14,22cc <I_sll_cg_cr_rs1_rs2_edges_rs1val_0x7ffffffe_rs2val_0x7ffffffe+0x18>
    22c0:	2140246f          	jal	x8,44d4 <failedtest_x8_x7>
    22c4:	000022b4          	.word	0x000022b4
    22c8:	0000be5f          	.word	0x0000be5f
    22cc:	004a0a13          	addi	x20,x20,4

# Testcase cr_rs1_rs2_edges (Test source rs1 = 0x7ffffffe rs2 = 0xffffffff)
  RVTEST_TESTDATA_LOAD_INT(x23, x31) # load rs1: x31 = 0x7ffffffe
    22d0:	000baf83          	lw	x31,0(x23)
    22d4:	004b8b93          	addi	x23,x23,4
  RVTEST_TESTDATA_LOAD_INT(x23, x17) # load rs2: x17 = 0xffffffff
    22d8:	000ba883          	lw	x17,0(x23)
    22dc:	004b8b93          	addi	x23,x23,4

000022e0 <I_sll_cg_cr_rs1_rs2_edges_rs1val_0x7ffffffe_rs2val_0xffffffff>:
I_sll_cg_cr_rs1_rs2_edges_rs1val_0x7ffffffe_rs2val_0xffffffff:
  sll x27, x31, x17 # perform operation
    22e0:	011f9db3          	sll	x27,x31,x17
  # Check if x27 contains the expected result. x20 is the signature ptr, x8 is the link ptr, x7 is a temp reg.
  RVTEST_SIGUPD(x20, x8, x7, x27, I_sll_cg_cr_rs1_rs2_edges_rs1val_0x7ffffffe_rs2val_0xffffffff, I_sll_cg_cr_rs1_rs2_edges_rs1val_0x7ffffffe_rs2val_0xffffffff_str)
    22e4:	000a2383          	lw	x7,0(x20)
    22e8:	01b38863          	beq	x7,x27,22f8 <I_sll_cg_cr_rs1_rs2_edges_rs1val_0x7ffffffe_rs2val_0xffffffff+0x18>
    22ec:	1e80246f          	jal	x8,44d4 <failedtest_x8_x7>
    22f0:	000022e0          	.word	0x000022e0
    22f4:	0000beba          	.word	0x0000beba
    22f8:	004a0a13          	addi	x20,x20,4

# Testcase cr_rs1_rs2_edges (Test source rs1 = 0x7ffffffe rs2 = 0xfffffffe)
  RVTEST_TESTDATA_LOAD_INT(x23, x15) # load rs1: x15 = 0x7ffffffe
    22fc:	000ba783          	lw	x15,0(x23)
    2300:	004b8b93          	addi	x23,x23,4
  RVTEST_TESTDATA_LOAD_INT(x23, x10) # load rs2: x10 = 0xfffffffe
    2304:	000ba503          	lw	x10,0(x23)
    2308:	004b8b93          	addi	x23,x23,4

0000230c <I_sll_cg_cr_rs1_rs2_edges_rs1val_0x7ffffffe_rs2val_0xfffffffe>:
I_sll_cg_cr_rs1_rs2_edges_rs1val_0x7ffffffe_rs2val_0xfffffffe:
  sll x1, x15, x10 # perform operation
    230c:	00a790b3          	sll	x1,x15,x10
  # Check if x1 contains the expected result. x20 is the signature ptr, x8 is the link ptr, x7 is a temp reg.
  RVTEST_SIGUPD(x20, x8, x7, x1, I_sll_cg_cr_rs1_rs2_edges_rs1val_0x7ffffffe_rs2val_0xfffffffe, I_sll_cg_cr_rs1_rs2_edges_rs1val_0x7ffffffe_rs2val_0xfffffffe_str)
    2310:	000a2383          	lw	x7,0(x20)
    2314:	00138863          	beq	x7,x1,2324 <I_sll_cg_cr_rs1_rs2_edges_rs1val_0x7ffffffe_rs2val_0xfffffffe+0x18>
    2318:	1bc0246f          	jal	x8,44d4 <failedtest_x8_x7>
    231c:	0000230c          	.word	0x0000230c
    2320:	0000bf15          	.word	0x0000bf15
    2324:	004a0a13          	addi	x20,x20,4

# Testcase cr_rs1_rs2_edges (Test source rs1 = 0x7ffffffe rs2 = 0x5bbc8872)
  RVTEST_TESTDATA_LOAD_INT(x23, x27) # load rs1: x27 = 0x7ffffffe
    2328:	000bad83          	lw	x27,0(x23)
    232c:	004b8b93          	addi	x23,x23,4
  RVTEST_TESTDATA_LOAD_INT(x23, x24) # load rs2: x24 = 0x5bbc8872
    2330:	000bac03          	lw	x24,0(x23)
    2334:	004b8b93          	addi	x23,x23,4

00002338 <I_sll_cg_cr_rs1_rs2_edges_rs1val_0x7ffffffe_rs2val_0x5bbc8872>:
I_sll_cg_cr_rs1_rs2_edges_rs1val_0x7ffffffe_rs2val_0x5bbc8872:
  sll x12, x27, x24 # perform operation
    2338:	018d9633          	sll	x12,x27,x24
  # Check if x12 contains the expected result. x20 is the signature ptr, x8 is the link ptr, x7 is a temp reg.
  RVTEST_SIGUPD(x20, x8, x7, x12, I_sll_cg_cr_rs1_rs2_edges_rs1val_0x7ffffffe_rs2val_0x5bbc8872, I_sll_cg_cr_rs1_rs2_edges_rs1val_0x7ffffffe_rs2val_0x5bbc8872_str)
    233c:	000a2383          	lw	x7,0(x20)
    2340:	00c38863          	beq	x7,x12,2350 <I_sll_cg_cr_rs1_rs2_edges_rs1val_0x7ffffffe_rs2val_0x5bbc8872+0x18>
    2344:	1900246f          	jal	x8,44d4 <failedtest_x8_x7>
    2348:	00002338          	.word	0x00002338
    234c:	0000bf70          	.word	0x0000bf70
    2350:	004a0a13          	addi	x20,x20,4

# Testcase cr_rs1_rs2_edges (Test source rs1 = 0x7ffffffe rs2 = 0xaaaaaaaa)
  RVTEST_TESTDATA_LOAD_INT(x23, x29) # load rs1: x29 = 0x7ffffffe
    2354:	000bae83          	lw	x29,0(x23)
    2358:	004b8b93          	addi	x23,x23,4
  RVTEST_TESTDATA_LOAD_INT(x23, x4) # load rs2: x4 = 0xaaaaaaaa
    235c:	000ba203          	lw	x4,0(x23)
    2360:	004b8b93          	addi	x23,x23,4

00002364 <I_sll_cg_cr_rs1_rs2_edges_rs1val_0x7ffffffe_rs2val_0xaaaaaaaa>:
I_sll_cg_cr_rs1_rs2_edges_rs1val_0x7ffffffe_rs2val_0xaaaaaaaa:
  sll x11, x29, x4 # perform operation
    2364:	004e95b3          	sll	x11,x29,x4
  # Check if x11 contains the expected result. x20 is the signature ptr, x8 is the link ptr, x7 is a temp reg.
  RVTEST_SIGUPD(x20, x8, x7, x11, I_sll_cg_cr_rs1_rs2_edges_rs1val_0x7ffffffe_rs2val_0xaaaaaaaa, I_sll_cg_cr_rs1_rs2_edges_rs1val_0x7ffffffe_rs2val_0xaaaaaaaa_str)
    2368:	000a2383          	lw	x7,0(x20)
    236c:	00b38863          	beq	x7,x11,237c <I_sll_cg_cr_rs1_rs2_edges_rs1val_0x7ffffffe_rs2val_0xaaaaaaaa+0x18>
    2370:	1640246f          	jal	x8,44d4 <failedtest_x8_x7>
    2374:	00002364          	.word	0x00002364
    2378:	0000bfcb          	.word	0x0000bfcb
    237c:	004a0a13          	addi	x20,x20,4

# Testcase cr_rs1_rs2_edges (Test source rs1 = 0x7ffffffe rs2 = 0x55555555)
  RVTEST_TESTDATA_LOAD_INT(x23, x25) # load rs1: x25 = 0x7ffffffe
    2380:	000bac83          	lw	x25,0(x23)
    2384:	004b8b93          	addi	x23,x23,4
  RVTEST_TESTDATA_LOAD_INT(x23, x21) # load rs2: x21 = 0x55555555
    2388:	000baa83          	lw	x21,0(x23)
    238c:	004b8b93          	addi	x23,x23,4

00002390 <I_sll_cg_cr_rs1_rs2_edges_rs1val_0x7ffffffe_rs2val_0x55555555>:
I_sll_cg_cr_rs1_rs2_edges_rs1val_0x7ffffffe_rs2val_0x55555555:
  sll x5, x25, x21 # perform operation
    2390:	015c92b3          	sll	x5,x25,x21
  # Check if x5 contains the expected result. x20 is the signature ptr, x8 is the link ptr, x7 is a temp reg.
  RVTEST_SIGUPD(x20, x8, x7, x5, I_sll_cg_cr_rs1_rs2_edges_rs1val_0x7ffffffe_rs2val_0x55555555, I_sll_cg_cr_rs1_rs2_edges_rs1val_0x7ffffffe_rs2val_0x55555555_str)
    2394:	000a2383          	lw	x7,0(x20)
    2398:	00538863          	beq	x7,x5,23a8 <I_sll_cg_cr_rs1_rs2_edges_rs1val_0x7ffffffe_rs2val_0x55555555+0x18>
    239c:	1380246f          	jal	x8,44d4 <failedtest_x8_x7>
    23a0:	00002390          	.word	0x00002390
    23a4:	0000c026          	.word	0x0000c026
    23a8:	004a0a13          	addi	x20,x20,4

# Testcase cr_rs1_rs2_edges (Test source rs1 = 0xffffffff rs2 = 0x00000000)
  RVTEST_TESTDATA_LOAD_INT(x23, x3) # load rs1: x3 = 0xffffffff
    23ac:	000ba183          	lw	x3,0(x23)
    23b0:	004b8b93          	addi	x23,x23,4
  RVTEST_TESTDATA_LOAD_INT(x23, x1) # load rs2: x1 = 0x00000000
    23b4:	000ba083          	lw	x1,0(x23)
    23b8:	004b8b93          	addi	x23,x23,4

000023bc <I_sll_cg_cr_rs1_rs2_edges_rs1val_0xffffffff_rs2val_0x0>:
I_sll_cg_cr_rs1_rs2_edges_rs1val_0xffffffff_rs2val_0x0:
  sll x26, x3, x1 # perform operation
    23bc:	00119d33          	sll	x26,x3,x1
  # Check if x26 contains the expected result. x20 is the signature ptr, x8 is the link ptr, x7 is a temp reg.
  RVTEST_SIGUPD(x20, x8, x7, x26, I_sll_cg_cr_rs1_rs2_edges_rs1val_0xffffffff_rs2val_0x0, I_sll_cg_cr_rs1_rs2_edges_rs1val_0xffffffff_rs2val_0x0_str)
    23c0:	000a2383          	lw	x7,0(x20)
    23c4:	01a38863          	beq	x7,x26,23d4 <I_sll_cg_cr_rs1_rs2_edges_rs1val_0xffffffff_rs2val_0x0+0x18>
    23c8:	10c0246f          	jal	x8,44d4 <failedtest_x8_x7>
    23cc:	000023bc          	.word	0x000023bc
    23d0:	0000c081          	.word	0x0000c081
    23d4:	004a0a13          	addi	x20,x20,4

# Testcase cr_rs1_rs2_edges (Test source rs1 = 0xffffffff rs2 = 0x00000001)
  RVTEST_TESTDATA_LOAD_INT(x23, x12) # load rs1: x12 = 0xffffffff
    23d8:	000ba603          	lw	x12,0(x23)
    23dc:	004b8b93          	addi	x23,x23,4
  RVTEST_TESTDATA_LOAD_INT(x23, x11) # load rs2: x11 = 0x00000001
    23e0:	000ba583          	lw	x11,0(x23)
    23e4:	004b8b93          	addi	x23,x23,4

000023e8 <I_sll_cg_cr_rs1_rs2_edges_rs1val_0xffffffff_rs2val_0x1>:
I_sll_cg_cr_rs1_rs2_edges_rs1val_0xffffffff_rs2val_0x1:
  sll x16, x12, x11 # perform operation
    23e8:	00b61833          	sll	x16,x12,x11
  # Check if x16 contains the expected result. x20 is the signature ptr, x8 is the link ptr, x7 is a temp reg.
  RVTEST_SIGUPD(x20, x8, x7, x16, I_sll_cg_cr_rs1_rs2_edges_rs1val_0xffffffff_rs2val_0x1, I_sll_cg_cr_rs1_rs2_edges_rs1val_0xffffffff_rs2val_0x1_str)
    23ec:	000a2383          	lw	x7,0(x20)
    23f0:	01038863          	beq	x7,x16,2400 <I_sll_cg_cr_rs1_rs2_edges_rs1val_0xffffffff_rs2val_0x1+0x18>
    23f4:	0e00246f          	jal	x8,44d4 <failedtest_x8_x7>
    23f8:	000023e8          	.word	0x000023e8
    23fc:	0000c0d5          	.word	0x0000c0d5
    2400:	004a0a13          	addi	x20,x20,4

# Testcase cr_rs1_rs2_edges (Test source rs1 = 0xffffffff rs2 = 0x00000002)
  RVTEST_TESTDATA_LOAD_INT(x23, x27) # load rs1: x27 = 0xffffffff
    2404:	000bad83          	lw	x27,0(x23)
    2408:	004b8b93          	addi	x23,x23,4
  RVTEST_TESTDATA_LOAD_INT(x23, x11) # load rs2: x11 = 0x00000002
    240c:	000ba583          	lw	x11,0(x23)
    2410:	004b8b93          	addi	x23,x23,4

00002414 <I_sll_cg_cr_rs1_rs2_edges_rs1val_0xffffffff_rs2val_0x2>:
I_sll_cg_cr_rs1_rs2_edges_rs1val_0xffffffff_rs2val_0x2:
  sll x29, x27, x11 # perform operation
    2414:	00bd9eb3          	sll	x29,x27,x11
  # Check if x29 contains the expected result. x20 is the signature ptr, x8 is the link ptr, x7 is a temp reg.
  RVTEST_SIGUPD(x20, x8, x7, x29, I_sll_cg_cr_rs1_rs2_edges_rs1val_0xffffffff_rs2val_0x2, I_sll_cg_cr_rs1_rs2_edges_rs1val_0xffffffff_rs2val_0x2_str)
    2418:	000a2383          	lw	x7,0(x20)
    241c:	01d38863          	beq	x7,x29,242c <I_sll_cg_cr_rs1_rs2_edges_rs1val_0xffffffff_rs2val_0x2+0x18>
    2420:	0b40246f          	jal	x8,44d4 <failedtest_x8_x7>
    2424:	00002414          	.word	0x00002414
    2428:	0000c129          	.word	0x0000c129
    242c:	004a0a13          	addi	x20,x20,4

# Testcase cr_rs1_rs2_edges (Test source rs1 = 0xffffffff rs2 = 0x80000000)
  RVTEST_TESTDATA_LOAD_INT(x23, x3) # load rs1: x3 = 0xffffffff
    2430:	000ba183          	lw	x3,0(x23)
    2434:	004b8b93          	addi	x23,x23,4
  RVTEST_TESTDATA_LOAD_INT(x23, x9) # load rs2: x9 = 0x80000000
    2438:	000ba483          	lw	x9,0(x23)
    243c:	004b8b93          	addi	x23,x23,4

00002440 <I_sll_cg_cr_rs1_rs2_edges_rs1val_0xffffffff_rs2val_0x80000000>:
I_sll_cg_cr_rs1_rs2_edges_rs1val_0xffffffff_rs2val_0x80000000:
  sll x1, x3, x9 # perform operation
    2440:	009190b3          	sll	x1,x3,x9
  # Check if x1 contains the expected result. x20 is the signature ptr, x8 is the link ptr, x7 is a temp reg.
  RVTEST_SIGUPD(x20, x8, x7, x1, I_sll_cg_cr_rs1_rs2_edges_rs1val_0xffffffff_rs2val_0x80000000, I_sll_cg_cr_rs1_rs2_edges_rs1val_0xffffffff_rs2val_0x80000000_str)
    2444:	000a2383          	lw	x7,0(x20)
    2448:	00138863          	beq	x7,x1,2458 <I_sll_cg_cr_rs1_rs2_edges_rs1val_0xffffffff_rs2val_0x80000000+0x18>
    244c:	0880246f          	jal	x8,44d4 <failedtest_x8_x7>
    2450:	00002440          	.word	0x00002440
    2454:	0000c17d          	.word	0x0000c17d
    2458:	004a0a13          	addi	x20,x20,4

# Testcase cr_rs1_rs2_edges (Test source rs1 = 0xffffffff rs2 = 0x80000001)
  RVTEST_TESTDATA_LOAD_INT(x23, x13) # load rs1: x13 = 0xffffffff
    245c:	000ba683          	lw	x13,0(x23)
    2460:	004b8b93          	addi	x23,x23,4
  RVTEST_TESTDATA_LOAD_INT(x23, x12) # load rs2: x12 = 0x80000001
    2464:	000ba603          	lw	x12,0(x23)
    2468:	004b8b93          	addi	x23,x23,4

0000246c <I_sll_cg_cr_rs1_rs2_edges_rs1val_0xffffffff_rs2val_0x80000001>:
I_sll_cg_cr_rs1_rs2_edges_rs1val_0xffffffff_rs2val_0x80000001:
  sll x31, x13, x12 # perform operation
    246c:	00c69fb3          	sll	x31,x13,x12
  # Check if x31 contains the expected result. x20 is the signature ptr, x8 is the link ptr, x7 is a temp reg.
  RVTEST_SIGUPD(x20, x8, x7, x31, I_sll_cg_cr_rs1_rs2_edges_rs1val_0xffffffff_rs2val_0x80000001, I_sll_cg_cr_rs1_rs2_edges_rs1val_0xffffffff_rs2val_0x80000001_str)
    2470:	000a2383          	lw	x7,0(x20)
    2474:	01f38863          	beq	x7,x31,2484 <I_sll_cg_cr_rs1_rs2_edges_rs1val_0xffffffff_rs2val_0x80000001+0x18>
    2478:	05c0246f          	jal	x8,44d4 <failedtest_x8_x7>
    247c:	0000246c          	.word	0x0000246c
    2480:	0000c1d8          	.word	0x0000c1d8
    2484:	004a0a13          	addi	x20,x20,4

# Testcase cr_rs1_rs2_edges (Test source rs1 = 0xffffffff rs2 = 0x7fffffff)
  RVTEST_TESTDATA_LOAD_INT(x23, x4) # load rs1: x4 = 0xffffffff
    2488:	000ba203          	lw	x4,0(x23)
    248c:	004b8b93          	addi	x23,x23,4
  RVTEST_TESTDATA_LOAD_INT(x23, x1) # load rs2: x1 = 0x7fffffff
    2490:	000ba083          	lw	x1,0(x23)
    2494:	004b8b93          	addi	x23,x23,4

00002498 <I_sll_cg_cr_rs1_rs2_edges_rs1val_0xffffffff_rs2val_0x7fffffff>:
I_sll_cg_cr_rs1_rs2_edges_rs1val_0xffffffff_rs2val_0x7fffffff:
  sll x17, x4, x1 # perform operation
    2498:	001218b3          	sll	x17,x4,x1
  # Check if x17 contains the expected result. x20 is the signature ptr, x8 is the link ptr, x7 is a temp reg.
  RVTEST_SIGUPD(x20, x8, x7, x17, I_sll_cg_cr_rs1_rs2_edges_rs1val_0xffffffff_rs2val_0x7fffffff, I_sll_cg_cr_rs1_rs2_edges_rs1val_0xffffffff_rs2val_0x7fffffff_str)
    249c:	000a2383          	lw	x7,0(x20)
    24a0:	01138863          	beq	x7,x17,24b0 <I_sll_cg_cr_rs1_rs2_edges_rs1val_0xffffffff_rs2val_0x7fffffff+0x18>
    24a4:	0300246f          	jal	x8,44d4 <failedtest_x8_x7>
    24a8:	00002498          	.word	0x00002498
    24ac:	0000c233          	.word	0x0000c233
    24b0:	004a0a13          	addi	x20,x20,4

# Testcase cr_rs1_rs2_edges (Test source rs1 = 0xffffffff rs2 = 0x7ffffffe)
  RVTEST_TESTDATA_LOAD_INT(x23, x1) # load rs1: x1 = 0xffffffff
    24b4:	000ba083          	lw	x1,0(x23)
    24b8:	004b8b93          	addi	x23,x23,4
  RVTEST_TESTDATA_LOAD_INT(x23, x5) # load rs2: x5 = 0x7ffffffe
    24bc:	000ba283          	lw	x5,0(x23)
    24c0:	004b8b93          	addi	x23,x23,4

000024c4 <I_sll_cg_cr_rs1_rs2_edges_rs1val_0xffffffff_rs2val_0x7ffffffe>:
I_sll_cg_cr_rs1_rs2_edges_rs1val_0xffffffff_rs2val_0x7ffffffe:
  sll x9, x1, x5 # perform operation
    24c4:	005094b3          	sll	x9,x1,x5
  # Check if x9 contains the expected result. x20 is the signature ptr, x8 is the link ptr, x7 is a temp reg.
  RVTEST_SIGUPD(x20, x8, x7, x9, I_sll_cg_cr_rs1_rs2_edges_rs1val_0xffffffff_rs2val_0x7ffffffe, I_sll_cg_cr_rs1_rs2_edges_rs1val_0xffffffff_rs2val_0x7ffffffe_str)
    24c8:	000a2383          	lw	x7,0(x20)
    24cc:	00938863          	beq	x7,x9,24dc <I_sll_cg_cr_rs1_rs2_edges_rs1val_0xffffffff_rs2val_0x7ffffffe+0x18>
    24d0:	0040246f          	jal	x8,44d4 <failedtest_x8_x7>
    24d4:	000024c4          	.word	0x000024c4
    24d8:	0000c28e          	.word	0x0000c28e
    24dc:	004a0a13          	addi	x20,x20,4

# Testcase cr_rs1_rs2_edges (Test source rs1 = 0xffffffff rs2 = 0xffffffff)
  RVTEST_TESTDATA_LOAD_INT(x23, x10) # load rs1: x10 = 0xffffffff
    24e0:	000ba503          	lw	x10,0(x23)
    24e4:	004b8b93          	addi	x23,x23,4
  RVTEST_TESTDATA_LOAD_INT(x23, x9) # load rs2: x9 = 0xffffffff
    24e8:	000ba483          	lw	x9,0(x23)
    24ec:	004b8b93          	addi	x23,x23,4

000024f0 <I_sll_cg_cr_rs1_rs2_edges_rs1val_0xffffffff_rs2val_0xffffffff>:
I_sll_cg_cr_rs1_rs2_edges_rs1val_0xffffffff_rs2val_0xffffffff:
  sll x25, x10, x9 # perform operation
    24f0:	00951cb3          	sll	x25,x10,x9
  # Check if x25 contains the expected result. x20 is the signature ptr, x8 is the link ptr, x7 is a temp reg.
  RVTEST_SIGUPD(x20, x8, x7, x25, I_sll_cg_cr_rs1_rs2_edges_rs1val_0xffffffff_rs2val_0xffffffff, I_sll_cg_cr_rs1_rs2_edges_rs1val_0xffffffff_rs2val_0xffffffff_str)
    24f4:	000a2383          	lw	x7,0(x20)
    24f8:	01938863          	beq	x7,x25,2508 <I_sll_cg_cr_rs1_rs2_edges_rs1val_0xffffffff_rs2val_0xffffffff+0x18>
    24fc:	7d90146f          	jal	x8,44d4 <failedtest_x8_x7>
    2500:	000024f0          	.word	0x000024f0
    2504:	0000c2e9          	.word	0x0000c2e9
    2508:	004a0a13          	addi	x20,x20,4

# Testcase cr_rs1_rs2_edges (Test source rs1 = 0xffffffff rs2 = 0xfffffffe)
  RVTEST_TESTDATA_LOAD_INT(x23, x10) # load rs1: x10 = 0xffffffff
    250c:	000ba503          	lw	x10,0(x23)
    2510:	004b8b93          	addi	x23,x23,4
  RVTEST_TESTDATA_LOAD_INT(x23, x31) # load rs2: x31 = 0xfffffffe
    2514:	000baf83          	lw	x31,0(x23)
    2518:	004b8b93          	addi	x23,x23,4

0000251c <I_sll_cg_cr_rs1_rs2_edges_rs1val_0xffffffff_rs2val_0xfffffffe>:
I_sll_cg_cr_rs1_rs2_edges_rs1val_0xffffffff_rs2val_0xfffffffe:
  sll x15, x10, x31 # perform operation
    251c:	01f517b3          	sll	x15,x10,x31
  # Check if x15 contains the expected result. x20 is the signature ptr, x8 is the link ptr, x7 is a temp reg.
  RVTEST_SIGUPD(x20, x8, x7, x15, I_sll_cg_cr_rs1_rs2_edges_rs1val_0xffffffff_rs2val_0xfffffffe, I_sll_cg_cr_rs1_rs2_edges_rs1val_0xffffffff_rs2val_0xfffffffe_str)
    2520:	000a2383          	lw	x7,0(x20)
    2524:	00f38863          	beq	x7,x15,2534 <I_sll_cg_cr_rs1_rs2_edges_rs1val_0xffffffff_rs2val_0xfffffffe+0x18>
    2528:	7ad0146f          	jal	x8,44d4 <failedtest_x8_x7>
    252c:	0000251c          	.word	0x0000251c
    2530:	0000c344          	.word	0x0000c344
    2534:	004a0a13          	addi	x20,x20,4

# Testcase cr_rs1_rs2_edges (Test source rs1 = 0xffffffff rs2 = 0x5bbc8872)
  RVTEST_TESTDATA_LOAD_INT(x23, x16) # load rs1: x16 = 0xffffffff
    2538:	000ba803          	lw	x16,0(x23)
    253c:	004b8b93          	addi	x23,x23,4
  RVTEST_TESTDATA_LOAD_INT(x23, x25) # load rs2: x25 = 0x5bbc8872
    2540:	000bac83          	lw	x25,0(x23)
    2544:	004b8b93          	addi	x23,x23,4

00002548 <I_sll_cg_cr_rs1_rs2_edges_rs1val_0xffffffff_rs2val_0x5bbc8872>:
I_sll_cg_cr_rs1_rs2_edges_rs1val_0xffffffff_rs2val_0x5bbc8872:
  sll x28, x16, x25 # perform operation
    2548:	01981e33          	sll	x28,x16,x25
  # Check if x28 contains the expected result. x20 is the signature ptr, x8 is the link ptr, x7 is a temp reg.
  RVTEST_SIGUPD(x20, x8, x7, x28, I_sll_cg_cr_rs1_rs2_edges_rs1val_0xffffffff_rs2val_0x5bbc8872, I_sll_cg_cr_rs1_rs2_edges_rs1val_0xffffffff_rs2val_0x5bbc8872_str)
    254c:	000a2383          	lw	x7,0(x20)
    2550:	01c38863          	beq	x7,x28,2560 <I_sll_cg_cr_rs1_rs2_edges_rs1val_0xffffffff_rs2val_0x5bbc8872+0x18>
    2554:	7810146f          	jal	x8,44d4 <failedtest_x8_x7>
    2558:	00002548          	.word	0x00002548
    255c:	0000c39f          	.word	0x0000c39f
    2560:	004a0a13          	addi	x20,x20,4

# Testcase cr_rs1_rs2_edges (Test source rs1 = 0xffffffff rs2 = 0xaaaaaaaa)
  RVTEST_TESTDATA_LOAD_INT(x23, x4) # load rs1: x4 = 0xffffffff
    2564:	000ba203          	lw	x4,0(x23)
    2568:	004b8b93          	addi	x23,x23,4
  RVTEST_TESTDATA_LOAD_INT(x23, x31) # load rs2: x31 = 0xaaaaaaaa
    256c:	000baf83          	lw	x31,0(x23)
    2570:	004b8b93          	addi	x23,x23,4

00002574 <I_sll_cg_cr_rs1_rs2_edges_rs1val_0xffffffff_rs2val_0xaaaaaaaa>:
I_sll_cg_cr_rs1_rs2_edges_rs1val_0xffffffff_rs2val_0xaaaaaaaa:
  sll x16, x4, x31 # perform operation
    2574:	01f21833          	sll	x16,x4,x31
  # Check if x16 contains the expected result. x20 is the signature ptr, x8 is the link ptr, x7 is a temp reg.
  RVTEST_SIGUPD(x20, x8, x7, x16, I_sll_cg_cr_rs1_rs2_edges_rs1val_0xffffffff_rs2val_0xaaaaaaaa, I_sll_cg_cr_rs1_rs2_edges_rs1val_0xffffffff_rs2val_0xaaaaaaaa_str)
    2578:	000a2383          	lw	x7,0(x20)
    257c:	01038863          	beq	x7,x16,258c <I_sll_cg_cr_rs1_rs2_edges_rs1val_0xffffffff_rs2val_0xaaaaaaaa+0x18>
    2580:	7550146f          	jal	x8,44d4 <failedtest_x8_x7>
    2584:	00002574          	.word	0x00002574
    2588:	0000c3fa          	.word	0x0000c3fa
    258c:	004a0a13          	addi	x20,x20,4

# Testcase cr_rs1_rs2_edges (Test source rs1 = 0xffffffff rs2 = 0x55555555)
  RVTEST_TESTDATA_LOAD_INT(x23, x31) # load rs1: x31 = 0xffffffff
    2590:	000baf83          	lw	x31,0(x23)
    2594:	004b8b93          	addi	x23,x23,4
  RVTEST_TESTDATA_LOAD_INT(x23, x15) # load rs2: x15 = 0x55555555
    2598:	000ba783          	lw	x15,0(x23)
    259c:	004b8b93          	addi	x23,x23,4

000025a0 <I_sll_cg_cr_rs1_rs2_edges_rs1val_0xffffffff_rs2val_0x55555555>:
I_sll_cg_cr_rs1_rs2_edges_rs1val_0xffffffff_rs2val_0x55555555:
  sll x18, x31, x15 # perform operation
    25a0:	00ff9933          	sll	x18,x31,x15
  # Check if x18 contains the expected result. x20 is the signature ptr, x8 is the link ptr, x7 is a temp reg.
  RVTEST_SIGUPD(x20, x8, x7, x18, I_sll_cg_cr_rs1_rs2_edges_rs1val_0xffffffff_rs2val_0x55555555, I_sll_cg_cr_rs1_rs2_edges_rs1val_0xffffffff_rs2val_0x55555555_str)
    25a4:	000a2383          	lw	x7,0(x20)
    25a8:	01238863          	beq	x7,x18,25b8 <I_sll_cg_cr_rs1_rs2_edges_rs1val_0xffffffff_rs2val_0x55555555+0x18>
    25ac:	7290146f          	jal	x8,44d4 <failedtest_x8_x7>
    25b0:	000025a0          	.word	0x000025a0
    25b4:	0000c455          	.word	0x0000c455
    25b8:	004a0a13          	addi	x20,x20,4

# Testcase cr_rs1_rs2_edges (Test source rs1 = 0xfffffffe rs2 = 0x00000000)
  RVTEST_TESTDATA_LOAD_INT(x23, x6) # load rs1: x6 = 0xfffffffe
    25bc:	000ba303          	lw	x6,0(x23)
    25c0:	004b8b93          	addi	x23,x23,4
  RVTEST_TESTDATA_LOAD_INT(x23, x4) # load rs2: x4 = 0x00000000
    25c4:	000ba203          	lw	x4,0(x23)
    25c8:	004b8b93          	addi	x23,x23,4

000025cc <I_sll_cg_cr_rs1_rs2_edges_rs1val_0xfffffffe_rs2val_0x0>:
I_sll_cg_cr_rs1_rs2_edges_rs1val_0xfffffffe_rs2val_0x0:
  sll x25, x6, x4 # perform operation
    25cc:	00431cb3          	sll	x25,x6,x4
  # Check if x25 contains the expected result. x20 is the signature ptr, x8 is the link ptr, x7 is a temp reg.
  RVTEST_SIGUPD(x20, x8, x7, x25, I_sll_cg_cr_rs1_rs2_edges_rs1val_0xfffffffe_rs2val_0x0, I_sll_cg_cr_rs1_rs2_edges_rs1val_0xfffffffe_rs2val_0x0_str)
    25d0:	000a2383          	lw	x7,0(x20)
    25d4:	01938863          	beq	x7,x25,25e4 <I_sll_cg_cr_rs1_rs2_edges_rs1val_0xfffffffe_rs2val_0x0+0x18>
    25d8:	6fd0146f          	jal	x8,44d4 <failedtest_x8_x7>
    25dc:	000025cc          	.word	0x000025cc
    25e0:	0000c4b0          	.word	0x0000c4b0
    25e4:	004a0a13          	addi	x20,x20,4

# Testcase cr_rs1_rs2_edges (Test source rs1 = 0xfffffffe rs2 = 0x00000001)
  RVTEST_TESTDATA_LOAD_INT(x23, x13) # load rs1: x13 = 0xfffffffe
    25e8:	000ba683          	lw	x13,0(x23)
    25ec:	004b8b93          	addi	x23,x23,4
  RVTEST_TESTDATA_LOAD_INT(x23, x29) # load rs2: x29 = 0x00000001
    25f0:	000bae83          	lw	x29,0(x23)
    25f4:	004b8b93          	addi	x23,x23,4

000025f8 <I_sll_cg_cr_rs1_rs2_edges_rs1val_0xfffffffe_rs2val_0x1>:
I_sll_cg_cr_rs1_rs2_edges_rs1val_0xfffffffe_rs2val_0x1:
  sll x31, x13, x29 # perform operation
    25f8:	01d69fb3          	sll	x31,x13,x29
  # Check if x31 contains the expected result. x20 is the signature ptr, x8 is the link ptr, x7 is a temp reg.
  RVTEST_SIGUPD(x20, x8, x7, x31, I_sll_cg_cr_rs1_rs2_edges_rs1val_0xfffffffe_rs2val_0x1, I_sll_cg_cr_rs1_rs2_edges_rs1val_0xfffffffe_rs2val_0x1_str)
    25fc:	000a2383          	lw	x7,0(x20)
    2600:	01f38863          	beq	x7,x31,2610 <I_sll_cg_cr_rs1_rs2_edges_rs1val_0xfffffffe_rs2val_0x1+0x18>
    2604:	6d10146f          	jal	x8,44d4 <failedtest_x8_x7>
    2608:	000025f8          	.word	0x000025f8
    260c:	0000c504          	.word	0x0000c504
    2610:	004a0a13          	addi	x20,x20,4

# Testcase cr_rs1_rs2_edges (Test source rs1 = 0xfffffffe rs2 = 0x00000002)
  RVTEST_TESTDATA_LOAD_INT(x23, x27) # load rs1: x27 = 0xfffffffe
    2614:	000bad83          	lw	x27,0(x23)
    2618:	004b8b93          	addi	x23,x23,4
  RVTEST_TESTDATA_LOAD_INT(x23, x15) # load rs2: x15 = 0x00000002
    261c:	000ba783          	lw	x15,0(x23)
    2620:	004b8b93          	addi	x23,x23,4

00002624 <I_sll_cg_cr_rs1_rs2_edges_rs1val_0xfffffffe_rs2val_0x2>:
I_sll_cg_cr_rs1_rs2_edges_rs1val_0xfffffffe_rs2val_0x2:
  sll x6, x27, x15 # perform operation
    2624:	00fd9333          	sll	x6,x27,x15
  # Check if x6 contains the expected result. x20 is the signature ptr, x8 is the link ptr, x7 is a temp reg.
  RVTEST_SIGUPD(x20, x8, x7, x6, I_sll_cg_cr_rs1_rs2_edges_rs1val_0xfffffffe_rs2val_0x2, I_sll_cg_cr_rs1_rs2_edges_rs1val_0xfffffffe_rs2val_0x2_str)
    2628:	000a2383          	lw	x7,0(x20)
    262c:	00638863          	beq	x7,x6,263c <I_sll_cg_cr_rs1_rs2_edges_rs1val_0xfffffffe_rs2val_0x2+0x18>
    2630:	6a50146f          	jal	x8,44d4 <failedtest_x8_x7>
    2634:	00002624          	.word	0x00002624
    2638:	0000c558          	.word	0x0000c558
    263c:	004a0a13          	addi	x20,x20,4

# Testcase cr_rs1_rs2_edges (Test source rs1 = 0xfffffffe rs2 = 0x80000000)
  RVTEST_TESTDATA_LOAD_INT(x23, x26) # load rs1: x26 = 0xfffffffe
    2640:	000bad03          	lw	x26,0(x23)
    2644:	004b8b93          	addi	x23,x23,4
  RVTEST_TESTDATA_LOAD_INT(x23, x10) # load rs2: x10 = 0x80000000
    2648:	000ba503          	lw	x10,0(x23)
    264c:	004b8b93          	addi	x23,x23,4

00002650 <I_sll_cg_cr_rs1_rs2_edges_rs1val_0xfffffffe_rs2val_0x80000000>:
I_sll_cg_cr_rs1_rs2_edges_rs1val_0xfffffffe_rs2val_0x80000000:
  sll x16, x26, x10 # perform operation
    2650:	00ad1833          	sll	x16,x26,x10
  # Check if x16 contains the expected result. x20 is the signature ptr, x8 is the link ptr, x7 is a temp reg.
  RVTEST_SIGUPD(x20, x8, x7, x16, I_sll_cg_cr_rs1_rs2_edges_rs1val_0xfffffffe_rs2val_0x80000000, I_sll_cg_cr_rs1_rs2_edges_rs1val_0xfffffffe_rs2val_0x80000000_str)
    2654:	000a2383          	lw	x7,0(x20)
    2658:	01038863          	beq	x7,x16,2668 <I_sll_cg_cr_rs1_rs2_edges_rs1val_0xfffffffe_rs2val_0x80000000+0x18>
    265c:	6790146f          	jal	x8,44d4 <failedtest_x8_x7>
    2660:	00002650          	.word	0x00002650
    2664:	0000c5ac          	.word	0x0000c5ac
    2668:	004a0a13          	addi	x20,x20,4

# Testcase cr_rs1_rs2_edges (Test source rs1 = 0xfffffffe rs2 = 0x80000001)
  RVTEST_TESTDATA_LOAD_INT(x23, x27) # load rs1: x27 = 0xfffffffe
    266c:	000bad83          	lw	x27,0(x23)
    2670:	004b8b93          	addi	x23,x23,4
  RVTEST_TESTDATA_LOAD_INT(x23, x6) # load rs2: x6 = 0x80000001
    2674:	000ba303          	lw	x6,0(x23)
    2678:	004b8b93          	addi	x23,x23,4

0000267c <I_sll_cg_cr_rs1_rs2_edges_rs1val_0xfffffffe_rs2val_0x80000001>:
I_sll_cg_cr_rs1_rs2_edges_rs1val_0xfffffffe_rs2val_0x80000001:
  sll x13, x27, x6 # perform operation
    267c:	006d96b3          	sll	x13,x27,x6
  # Check if x13 contains the expected result. x20 is the signature ptr, x8 is the link ptr, x7 is a temp reg.
  RVTEST_SIGUPD(x20, x8, x7, x13, I_sll_cg_cr_rs1_rs2_edges_rs1val_0xfffffffe_rs2val_0x80000001, I_sll_cg_cr_rs1_rs2_edges_rs1val_0xfffffffe_rs2val_0x80000001_str)
    2680:	000a2383          	lw	x7,0(x20)
    2684:	00d38863          	beq	x7,x13,2694 <I_sll_cg_cr_rs1_rs2_edges_rs1val_0xfffffffe_rs2val_0x80000001+0x18>
    2688:	64d0146f          	jal	x8,44d4 <failedtest_x8_x7>
    268c:	0000267c          	.word	0x0000267c
    2690:	0000c607          	.word	0x0000c607
    2694:	004a0a13          	addi	x20,x20,4

# Testcase cr_rs1_rs2_edges (Test source rs1 = 0xfffffffe rs2 = 0x7fffffff)
  RVTEST_TESTDATA_LOAD_INT(x23, x13) # load rs1: x13 = 0xfffffffe
    2698:	000ba683          	lw	x13,0(x23)
    269c:	004b8b93          	addi	x23,x23,4
  RVTEST_TESTDATA_LOAD_INT(x23, x25) # load rs2: x25 = 0x7fffffff
    26a0:	000bac83          	lw	x25,0(x23)
    26a4:	004b8b93          	addi	x23,x23,4

000026a8 <I_sll_cg_cr_rs1_rs2_edges_rs1val_0xfffffffe_rs2val_0x7fffffff>:
I_sll_cg_cr_rs1_rs2_edges_rs1val_0xfffffffe_rs2val_0x7fffffff:
  sll x31, x13, x25 # perform operation
    26a8:	01969fb3          	sll	x31,x13,x25
  # Check if x31 contains the expected result. x20 is the signature ptr, x8 is the link ptr, x7 is a temp reg.
  RVTEST_SIGUPD(x20, x8, x7, x31, I_sll_cg_cr_rs1_rs2_edges_rs1val_0xfffffffe_rs2val_0x7fffffff, I_sll_cg_cr_rs1_rs2_edges_rs1val_0xfffffffe_rs2val_0x7fffffff_str)
    26ac:	000a2383          	lw	x7,0(x20)
    26b0:	01f38863          	beq	x7,x31,26c0 <I_sll_cg_cr_rs1_rs2_edges_rs1val_0xfffffffe_rs2val_0x7fffffff+0x18>
    26b4:	6210146f          	jal	x8,44d4 <failedtest_x8_x7>
    26b8:	000026a8          	.word	0x000026a8
    26bc:	0000c662          	.word	0x0000c662
    26c0:	004a0a13          	addi	x20,x20,4

# Testcase cr_rs1_rs2_edges (Test source rs1 = 0xfffffffe rs2 = 0x7ffffffe)
  RVTEST_TESTDATA_LOAD_INT(x23, x10) # load rs1: x10 = 0xfffffffe
    26c4:	000ba503          	lw	x10,0(x23)
    26c8:	004b8b93          	addi	x23,x23,4
  RVTEST_TESTDATA_LOAD_INT(x23, x12) # load rs2: x12 = 0x7ffffffe
    26cc:	000ba603          	lw	x12,0(x23)
    26d0:	004b8b93          	addi	x23,x23,4

000026d4 <I_sll_cg_cr_rs1_rs2_edges_rs1val_0xfffffffe_rs2val_0x7ffffffe>:
I_sll_cg_cr_rs1_rs2_edges_rs1val_0xfffffffe_rs2val_0x7ffffffe:
  sll x29, x10, x12 # perform operation
    26d4:	00c51eb3          	sll	x29,x10,x12
  # Check if x29 contains the expected result. x20 is the signature ptr, x8 is the link ptr, x7 is a temp reg.
  RVTEST_SIGUPD(x20, x8, x7, x29, I_sll_cg_cr_rs1_rs2_edges_rs1val_0xfffffffe_rs2val_0x7ffffffe, I_sll_cg_cr_rs1_rs2_edges_rs1val_0xfffffffe_rs2val_0x7ffffffe_str)
    26d8:	000a2383          	lw	x7,0(x20)
    26dc:	01d38863          	beq	x7,x29,26ec <I_sll_cg_cr_rs1_rs2_edges_rs1val_0xfffffffe_rs2val_0x7ffffffe+0x18>
    26e0:	5f50146f          	jal	x8,44d4 <failedtest_x8_x7>
    26e4:	000026d4          	.word	0x000026d4
    26e8:	0000c6bd          	.word	0x0000c6bd
    26ec:	004a0a13          	addi	x20,x20,4

# Testcase cr_rs1_rs2_edges (Test source rs1 = 0xfffffffe rs2 = 0xffffffff)
  RVTEST_TESTDATA_LOAD_INT(x23, x31) # load rs1: x31 = 0xfffffffe
    26f0:	000baf83          	lw	x31,0(x23)
    26f4:	004b8b93          	addi	x23,x23,4
  RVTEST_TESTDATA_LOAD_INT(x23, x15) # load rs2: x15 = 0xffffffff
    26f8:	000ba783          	lw	x15,0(x23)
    26fc:	004b8b93          	addi	x23,x23,4

00002700 <I_sll_cg_cr_rs1_rs2_edges_rs1val_0xfffffffe_rs2val_0xffffffff>:
I_sll_cg_cr_rs1_rs2_edges_rs1val_0xfffffffe_rs2val_0xffffffff:
  sll x18, x31, x15 # perform operation
    2700:	00ff9933          	sll	x18,x31,x15
  # Check if x18 contains the expected result. x20 is the signature ptr, x8 is the link ptr, x7 is a temp reg.
  RVTEST_SIGUPD(x20, x8, x7, x18, I_sll_cg_cr_rs1_rs2_edges_rs1val_0xfffffffe_rs2val_0xffffffff, I_sll_cg_cr_rs1_rs2_edges_rs1val_0xfffffffe_rs2val_0xffffffff_str)
    2704:	000a2383          	lw	x7,0(x20)
    2708:	01238863          	beq	x7,x18,2718 <I_sll_cg_cr_rs1_rs2_edges_rs1val_0xfffffffe_rs2val_0xffffffff+0x18>
    270c:	5c90146f          	jal	x8,44d4 <failedtest_x8_x7>
    2710:	00002700          	.word	0x00002700
    2714:	0000c718          	.word	0x0000c718
    2718:	004a0a13          	addi	x20,x20,4

# Testcase cr_rs1_rs2_edges (Test source rs1 = 0xfffffffe rs2 = 0xfffffffe)
  RVTEST_TESTDATA_LOAD_INT(x23, x24) # load rs1: x24 = 0xfffffffe
    271c:	000bac03          	lw	x24,0(x23)
    2720:	004b8b93          	addi	x23,x23,4
  RVTEST_TESTDATA_LOAD_INT(x23, x19) # load rs2: x19 = 0xfffffffe
    2724:	000ba983          	lw	x19,0(x23)
    2728:	004b8b93          	addi	x23,x23,4

0000272c <I_sll_cg_cr_rs1_rs2_edges_rs1val_0xfffffffe_rs2val_0xfffffffe>:
I_sll_cg_cr_rs1_rs2_edges_rs1val_0xfffffffe_rs2val_0xfffffffe:
  sll x21, x24, x19 # perform operation
    272c:	013c1ab3          	sll	x21,x24,x19
  # Check if x21 contains the expected result. x20 is the signature ptr, x8 is the link ptr, x7 is a temp reg.
  RVTEST_SIGUPD(x20, x8, x7, x21, I_sll_cg_cr_rs1_rs2_edges_rs1val_0xfffffffe_rs2val_0xfffffffe, I_sll_cg_cr_rs1_rs2_edges_rs1val_0xfffffffe_rs2val_0xfffffffe_str)
    2730:	000a2383          	lw	x7,0(x20)
    2734:	01538863          	beq	x7,x21,2744 <I_sll_cg_cr_rs1_rs2_edges_rs1val_0xfffffffe_rs2val_0xfffffffe+0x18>
    2738:	59d0146f          	jal	x8,44d4 <failedtest_x8_x7>
    273c:	0000272c          	.word	0x0000272c
    2740:	0000c773          	.word	0x0000c773
    2744:	004a0a13          	addi	x20,x20,4

# Testcase cr_rs1_rs2_edges (Test source rs1 = 0xfffffffe rs2 = 0x5bbc8872)
  RVTEST_TESTDATA_LOAD_INT(x23, x15) # load rs1: x15 = 0xfffffffe
    2748:	000ba783          	lw	x15,0(x23)
    274c:	004b8b93          	addi	x23,x23,4
  RVTEST_TESTDATA_LOAD_INT(x23, x22) # load rs2: x22 = 0x5bbc8872
    2750:	000bab03          	lw	x22,0(x23)
    2754:	004b8b93          	addi	x23,x23,4

00002758 <I_sll_cg_cr_rs1_rs2_edges_rs1val_0xfffffffe_rs2val_0x5bbc8872>:
I_sll_cg_cr_rs1_rs2_edges_rs1val_0xfffffffe_rs2val_0x5bbc8872:
  sll x24, x15, x22 # perform operation
    2758:	01679c33          	sll	x24,x15,x22
  # Check if x24 contains the expected result. x20 is the signature ptr, x8 is the link ptr, x7 is a temp reg.
  RVTEST_SIGUPD(x20, x8, x7, x24, I_sll_cg_cr_rs1_rs2_edges_rs1val_0xfffffffe_rs2val_0x5bbc8872, I_sll_cg_cr_rs1_rs2_edges_rs1val_0xfffffffe_rs2val_0x5bbc8872_str)
    275c:	000a2383          	lw	x7,0(x20)
    2760:	01838863          	beq	x7,x24,2770 <I_sll_cg_cr_rs1_rs2_edges_rs1val_0xfffffffe_rs2val_0x5bbc8872+0x18>
    2764:	5710146f          	jal	x8,44d4 <failedtest_x8_x7>
    2768:	00002758          	.word	0x00002758
    276c:	0000c7ce          	.word	0x0000c7ce
    2770:	004a0a13          	addi	x20,x20,4

# Testcase cr_rs1_rs2_edges (Test source rs1 = 0xfffffffe rs2 = 0xaaaaaaaa)
  RVTEST_TESTDATA_LOAD_INT(x23, x12) # load rs1: x12 = 0xfffffffe
    2774:	000ba603          	lw	x12,0(x23)
    2778:	004b8b93          	addi	x23,x23,4
  RVTEST_TESTDATA_LOAD_INT(x23, x22) # load rs2: x22 = 0xaaaaaaaa
    277c:	000bab03          	lw	x22,0(x23)
    2780:	004b8b93          	addi	x23,x23,4

00002784 <I_sll_cg_cr_rs1_rs2_edges_rs1val_0xfffffffe_rs2val_0xaaaaaaaa>:
I_sll_cg_cr_rs1_rs2_edges_rs1val_0xfffffffe_rs2val_0xaaaaaaaa:
  sll x10, x12, x22 # perform operation
    2784:	01661533          	sll	x10,x12,x22
  # Check if x10 contains the expected result. x20 is the signature ptr, x8 is the link ptr, x7 is a temp reg.
  RVTEST_SIGUPD(x20, x8, x7, x10, I_sll_cg_cr_rs1_rs2_edges_rs1val_0xfffffffe_rs2val_0xaaaaaaaa, I_sll_cg_cr_rs1_rs2_edges_rs1val_0xfffffffe_rs2val_0xaaaaaaaa_str)
    2788:	000a2383          	lw	x7,0(x20)
    278c:	00a38863          	beq	x7,x10,279c <I_sll_cg_cr_rs1_rs2_edges_rs1val_0xfffffffe_rs2val_0xaaaaaaaa+0x18>
    2790:	5450146f          	jal	x8,44d4 <failedtest_x8_x7>
    2794:	00002784          	.word	0x00002784
    2798:	0000c829          	.word	0x0000c829
    279c:	004a0a13          	addi	x20,x20,4

# Testcase cr_rs1_rs2_edges (Test source rs1 = 0xfffffffe rs2 = 0x55555555)
  RVTEST_TESTDATA_LOAD_INT(x23, x24) # load rs1: x24 = 0xfffffffe
    27a0:	000bac03          	lw	x24,0(x23)
    27a4:	004b8b93          	addi	x23,x23,4
  RVTEST_TESTDATA_LOAD_INT(x23, x13) # load rs2: x13 = 0x55555555
    27a8:	000ba683          	lw	x13,0(x23)
    27ac:	004b8b93          	addi	x23,x23,4

000027b0 <I_sll_cg_cr_rs1_rs2_edges_rs1val_0xfffffffe_rs2val_0x55555555>:
I_sll_cg_cr_rs1_rs2_edges_rs1val_0xfffffffe_rs2val_0x55555555:
  sll x12, x24, x13 # perform operation
    27b0:	00dc1633          	sll	x12,x24,x13
  # Check if x12 contains the expected result. x20 is the signature ptr, x8 is the link ptr, x7 is a temp reg.
  RVTEST_SIGUPD(x20, x8, x7, x12, I_sll_cg_cr_rs1_rs2_edges_rs1val_0xfffffffe_rs2val_0x55555555, I_sll_cg_cr_rs1_rs2_edges_rs1val_0xfffffffe_rs2val_0x55555555_str)
    27b4:	000a2383          	lw	x7,0(x20)
    27b8:	00c38863          	beq	x7,x12,27c8 <I_sll_cg_cr_rs1_rs2_edges_rs1val_0xfffffffe_rs2val_0x55555555+0x18>
    27bc:	5190146f          	jal	x8,44d4 <failedtest_x8_x7>
    27c0:	000027b0          	.word	0x000027b0
    27c4:	0000c884          	.word	0x0000c884
    27c8:	004a0a13          	addi	x20,x20,4

# Testcase cr_rs1_rs2_edges (Test source rs1 = 0x5bbc8872 rs2 = 0x00000000)
  RVTEST_TESTDATA_LOAD_INT(x23, x30) # load rs1: x30 = 0x5bbc8872
    27cc:	000baf03          	lw	x30,0(x23)
    27d0:	004b8b93          	addi	x23,x23,4
  RVTEST_TESTDATA_LOAD_INT(x23, x2) # load rs2: x2 = 0x00000000
    27d4:	000ba103          	lw	x2,0(x23)
    27d8:	004b8b93          	addi	x23,x23,4

000027dc <I_sll_cg_cr_rs1_rs2_edges_rs1val_0x5bbc8872_rs2val_0x0>:
I_sll_cg_cr_rs1_rs2_edges_rs1val_0x5bbc8872_rs2val_0x0:
  sll x24, x30, x2 # perform operation
    27dc:	002f1c33          	sll	x24,x30,x2
  # Check if x24 contains the expected result. x20 is the signature ptr, x8 is the link ptr, x7 is a temp reg.
  RVTEST_SIGUPD(x20, x8, x7, x24, I_sll_cg_cr_rs1_rs2_edges_rs1val_0x5bbc8872_rs2val_0x0, I_sll_cg_cr_rs1_rs2_edges_rs1val_0x5bbc8872_rs2val_0x0_str)
    27e0:	000a2383          	lw	x7,0(x20)
    27e4:	01838863          	beq	x7,x24,27f4 <I_sll_cg_cr_rs1_rs2_edges_rs1val_0x5bbc8872_rs2val_0x0+0x18>
    27e8:	4ed0146f          	jal	x8,44d4 <failedtest_x8_x7>
    27ec:	000027dc          	.word	0x000027dc
    27f0:	0000c8df          	.word	0x0000c8df
    27f4:	004a0a13          	addi	x20,x20,4

# Testcase cr_rs1_rs2_edges (Test source rs1 = 0x5bbc8872 rs2 = 0x00000001)
  RVTEST_TESTDATA_LOAD_INT(x23, x10) # load rs1: x10 = 0x5bbc8872
    27f8:	000ba503          	lw	x10,0(x23)
    27fc:	004b8b93          	addi	x23,x23,4
  RVTEST_TESTDATA_LOAD_INT(x23, x16) # load rs2: x16 = 0x00000001
    2800:	000ba803          	lw	x16,0(x23)
    2804:	004b8b93          	addi	x23,x23,4

00002808 <I_sll_cg_cr_rs1_rs2_edges_rs1val_0x5bbc8872_rs2val_0x1>:
I_sll_cg_cr_rs1_rs2_edges_rs1val_0x5bbc8872_rs2val_0x1:
  sll x11, x10, x16 # perform operation
    2808:	010515b3          	sll	x11,x10,x16
  # Check if x11 contains the expected result. x20 is the signature ptr, x8 is the link ptr, x7 is a temp reg.
  RVTEST_SIGUPD(x20, x8, x7, x11, I_sll_cg_cr_rs1_rs2_edges_rs1val_0x5bbc8872_rs2val_0x1, I_sll_cg_cr_rs1_rs2_edges_rs1val_0x5bbc8872_rs2val_0x1_str)
    280c:	000a2383          	lw	x7,0(x20)
    2810:	00b38863          	beq	x7,x11,2820 <I_sll_cg_cr_rs1_rs2_edges_rs1val_0x5bbc8872_rs2val_0x1+0x18>
    2814:	4c10146f          	jal	x8,44d4 <failedtest_x8_x7>
    2818:	00002808          	.word	0x00002808
    281c:	0000c933          	.word	0x0000c933
    2820:	004a0a13          	addi	x20,x20,4

# Testcase cr_rs1_rs2_edges (Test source rs1 = 0x5bbc8872 rs2 = 0x00000002)
  RVTEST_TESTDATA_LOAD_INT(x23, x14) # load rs1: x14 = 0x5bbc8872
    2824:	000ba703          	lw	x14,0(x23)
    2828:	004b8b93          	addi	x23,x23,4
  RVTEST_TESTDATA_LOAD_INT(x23, x3) # load rs2: x3 = 0x00000002
    282c:	000ba183          	lw	x3,0(x23)
    2830:	004b8b93          	addi	x23,x23,4

00002834 <I_sll_cg_cr_rs1_rs2_edges_rs1val_0x5bbc8872_rs2val_0x2>:
I_sll_cg_cr_rs1_rs2_edges_rs1val_0x5bbc8872_rs2val_0x2:
  sll x13, x14, x3 # perform operation
    2834:	003716b3          	sll	x13,x14,x3
  # Check if x13 contains the expected result. x20 is the signature ptr, x8 is the link ptr, x7 is a temp reg.
  RVTEST_SIGUPD(x20, x8, x7, x13, I_sll_cg_cr_rs1_rs2_edges_rs1val_0x5bbc8872_rs2val_0x2, I_sll_cg_cr_rs1_rs2_edges_rs1val_0x5bbc8872_rs2val_0x2_str)
    2838:	000a2383          	lw	x7,0(x20)
    283c:	00d38863          	beq	x7,x13,284c <I_sll_cg_cr_rs1_rs2_edges_rs1val_0x5bbc8872_rs2val_0x2+0x18>
    2840:	4950146f          	jal	x8,44d4 <failedtest_x8_x7>
    2844:	00002834          	.word	0x00002834
    2848:	0000c987          	.word	0x0000c987
    284c:	004a0a13          	addi	x20,x20,4

# Testcase cr_rs1_rs2_edges (Test source rs1 = 0x5bbc8872 rs2 = 0x80000000)
  RVTEST_TESTDATA_LOAD_INT(x23, x16) # load rs1: x16 = 0x5bbc8872
    2850:	000ba803          	lw	x16,0(x23)
    2854:	004b8b93          	addi	x23,x23,4
  RVTEST_TESTDATA_LOAD_INT(x23, x3) # load rs2: x3 = 0x80000000
    2858:	000ba183          	lw	x3,0(x23)
    285c:	004b8b93          	addi	x23,x23,4

00002860 <I_sll_cg_cr_rs1_rs2_edges_rs1val_0x5bbc8872_rs2val_0x80000000>:
I_sll_cg_cr_rs1_rs2_edges_rs1val_0x5bbc8872_rs2val_0x80000000:
  sll x5, x16, x3 # perform operation
    2860:	003812b3          	sll	x5,x16,x3
  # Check if x5 contains the expected result. x20 is the signature ptr, x8 is the link ptr, x7 is a temp reg.
  RVTEST_SIGUPD(x20, x8, x7, x5, I_sll_cg_cr_rs1_rs2_edges_rs1val_0x5bbc8872_rs2val_0x80000000, I_sll_cg_cr_rs1_rs2_edges_rs1val_0x5bbc8872_rs2val_0x80000000_str)
    2864:	000a2383          	lw	x7,0(x20)
    2868:	00538863          	beq	x7,x5,2878 <I_sll_cg_cr_rs1_rs2_edges_rs1val_0x5bbc8872_rs2val_0x80000000+0x18>
    286c:	4690146f          	jal	x8,44d4 <failedtest_x8_x7>
    2870:	00002860          	.word	0x00002860
    2874:	0000c9db          	.word	0x0000c9db
    2878:	004a0a13          	addi	x20,x20,4

# Testcase cr_rs1_rs2_edges (Test source rs1 = 0x5bbc8872 rs2 = 0x80000001)
  RVTEST_TESTDATA_LOAD_INT(x23, x13) # load rs1: x13 = 0x5bbc8872
    287c:	000ba683          	lw	x13,0(x23)
    2880:	004b8b93          	addi	x23,x23,4
  RVTEST_TESTDATA_LOAD_INT(x23, x30) # load rs2: x30 = 0x80000001
    2884:	000baf03          	lw	x30,0(x23)
    2888:	004b8b93          	addi	x23,x23,4

0000288c <I_sll_cg_cr_rs1_rs2_edges_rs1val_0x5bbc8872_rs2val_0x80000001>:
I_sll_cg_cr_rs1_rs2_edges_rs1val_0x5bbc8872_rs2val_0x80000001:
  sll x6, x13, x30 # perform operation
    288c:	01e69333          	sll	x6,x13,x30
  # Check if x6 contains the expected result. x20 is the signature ptr, x8 is the link ptr, x7 is a temp reg.
  RVTEST_SIGUPD(x20, x8, x7, x6, I_sll_cg_cr_rs1_rs2_edges_rs1val_0x5bbc8872_rs2val_0x80000001, I_sll_cg_cr_rs1_rs2_edges_rs1val_0x5bbc8872_rs2val_0x80000001_str)
    2890:	000a2383          	lw	x7,0(x20)
    2894:	00638863          	beq	x7,x6,28a4 <I_sll_cg_cr_rs1_rs2_edges_rs1val_0x5bbc8872_rs2val_0x80000001+0x18>
    2898:	43d0146f          	jal	x8,44d4 <failedtest_x8_x7>
    289c:	0000288c          	.word	0x0000288c
    28a0:	0000ca36          	.word	0x0000ca36
    28a4:	004a0a13          	addi	x20,x20,4

# Testcase cr_rs1_rs2_edges (Test source rs1 = 0x5bbc8872 rs2 = 0x7fffffff)
  RVTEST_TESTDATA_LOAD_INT(x23, x28) # load rs1: x28 = 0x5bbc8872
    28a8:	000bae03          	lw	x28,0(x23)
    28ac:	004b8b93          	addi	x23,x23,4
  RVTEST_TESTDATA_LOAD_INT(x23, x5) # load rs2: x5 = 0x7fffffff
    28b0:	000ba283          	lw	x5,0(x23)
    28b4:	004b8b93          	addi	x23,x23,4

000028b8 <I_sll_cg_cr_rs1_rs2_edges_rs1val_0x5bbc8872_rs2val_0x7fffffff>:
I_sll_cg_cr_rs1_rs2_edges_rs1val_0x5bbc8872_rs2val_0x7fffffff:
  sll x31, x28, x5 # perform operation
    28b8:	005e1fb3          	sll	x31,x28,x5
  # Check if x31 contains the expected result. x20 is the signature ptr, x8 is the link ptr, x7 is a temp reg.
  RVTEST_SIGUPD(x20, x8, x7, x31, I_sll_cg_cr_rs1_rs2_edges_rs1val_0x5bbc8872_rs2val_0x7fffffff, I_sll_cg_cr_rs1_rs2_edges_rs1val_0x5bbc8872_rs2val_0x7fffffff_str)
    28bc:	000a2383          	lw	x7,0(x20)
    28c0:	01f38863          	beq	x7,x31,28d0 <I_sll_cg_cr_rs1_rs2_edges_rs1val_0x5bbc8872_rs2val_0x7fffffff+0x18>
    28c4:	4110146f          	jal	x8,44d4 <failedtest_x8_x7>
    28c8:	000028b8          	.word	0x000028b8
    28cc:	0000ca91          	.word	0x0000ca91
    28d0:	004a0a13          	addi	x20,x20,4

# Testcase cr_rs1_rs2_edges (Test source rs1 = 0x5bbc8872 rs2 = 0x7ffffffe)
  RVTEST_TESTDATA_LOAD_INT(x23, x28) # load rs1: x28 = 0x5bbc8872
    28d4:	000bae03          	lw	x28,0(x23)
    28d8:	004b8b93          	addi	x23,x23,4
  RVTEST_TESTDATA_LOAD_INT(x23, x17) # load rs2: x17 = 0x7ffffffe
    28dc:	000ba883          	lw	x17,0(x23)
    28e0:	004b8b93          	addi	x23,x23,4

000028e4 <I_sll_cg_cr_rs1_rs2_edges_rs1val_0x5bbc8872_rs2val_0x7ffffffe>:
I_sll_cg_cr_rs1_rs2_edges_rs1val_0x5bbc8872_rs2val_0x7ffffffe:
  sll x15, x28, x17 # perform operation
    28e4:	011e17b3          	sll	x15,x28,x17
  # Check if x15 contains the expected result. x20 is the signature ptr, x8 is the link ptr, x7 is a temp reg.
  RVTEST_SIGUPD(x20, x8, x7, x15, I_sll_cg_cr_rs1_rs2_edges_rs1val_0x5bbc8872_rs2val_0x7ffffffe, I_sll_cg_cr_rs1_rs2_edges_rs1val_0x5bbc8872_rs2val_0x7ffffffe_str)
    28e8:	000a2383          	lw	x7,0(x20)
    28ec:	00f38863          	beq	x7,x15,28fc <I_sll_cg_cr_rs1_rs2_edges_rs1val_0x5bbc8872_rs2val_0x7ffffffe+0x18>
    28f0:	3e50146f          	jal	x8,44d4 <failedtest_x8_x7>
    28f4:	000028e4          	.word	0x000028e4
    28f8:	0000caec          	.word	0x0000caec
    28fc:	004a0a13          	addi	x20,x20,4

# Testcase cr_rs1_rs2_edges (Test source rs1 = 0x5bbc8872 rs2 = 0xffffffff)
  RVTEST_TESTDATA_LOAD_INT(x23, x14) # load rs1: x14 = 0x5bbc8872
    2900:	000ba703          	lw	x14,0(x23)
    2904:	004b8b93          	addi	x23,x23,4
  RVTEST_TESTDATA_LOAD_INT(x23, x11) # load rs2: x11 = 0xffffffff
    2908:	000ba583          	lw	x11,0(x23)
    290c:	004b8b93          	addi	x23,x23,4

00002910 <I_sll_cg_cr_rs1_rs2_edges_rs1val_0x5bbc8872_rs2val_0xffffffff>:
I_sll_cg_cr_rs1_rs2_edges_rs1val_0x5bbc8872_rs2val_0xffffffff:
  sll x19, x14, x11 # perform operation
    2910:	00b719b3          	sll	x19,x14,x11
  # Check if x19 contains the expected result. x20 is the signature ptr, x8 is the link ptr, x7 is a temp reg.
  RVTEST_SIGUPD(x20, x8, x7, x19, I_sll_cg_cr_rs1_rs2_edges_rs1val_0x5bbc8872_rs2val_0xffffffff, I_sll_cg_cr_rs1_rs2_edges_rs1val_0x5bbc8872_rs2val_0xffffffff_str)
    2914:	000a2383          	lw	x7,0(x20)
    2918:	01338863          	beq	x7,x19,2928 <I_sll_cg_cr_rs1_rs2_edges_rs1val_0x5bbc8872_rs2val_0xffffffff+0x18>
    291c:	3b90146f          	jal	x8,44d4 <failedtest_x8_x7>
    2920:	00002910          	.word	0x00002910
    2924:	0000cb47          	.word	0x0000cb47
    2928:	004a0a13          	addi	x20,x20,4

# Testcase cr_rs1_rs2_edges (Test source rs1 = 0x5bbc8872 rs2 = 0xfffffffe)
  RVTEST_TESTDATA_LOAD_INT(x23, x26) # load rs1: x26 = 0x5bbc8872
    292c:	000bad03          	lw	x26,0(x23)
    2930:	004b8b93          	addi	x23,x23,4
  RVTEST_TESTDATA_LOAD_INT(x23, x30) # load rs2: x30 = 0xfffffffe
    2934:	000baf03          	lw	x30,0(x23)
    2938:	004b8b93          	addi	x23,x23,4

0000293c <I_sll_cg_cr_rs1_rs2_edges_rs1val_0x5bbc8872_rs2val_0xfffffffe>:
I_sll_cg_cr_rs1_rs2_edges_rs1val_0x5bbc8872_rs2val_0xfffffffe:
  sll x5, x26, x30 # perform operation
    293c:	01ed12b3          	sll	x5,x26,x30
  # Check if x5 contains the expected result. x20 is the signature ptr, x8 is the link ptr, x7 is a temp reg.
  RVTEST_SIGUPD(x20, x8, x7, x5, I_sll_cg_cr_rs1_rs2_edges_rs1val_0x5bbc8872_rs2val_0xfffffffe, I_sll_cg_cr_rs1_rs2_edges_rs1val_0x5bbc8872_rs2val_0xfffffffe_str)
    2940:	000a2383          	lw	x7,0(x20)
    2944:	00538863          	beq	x7,x5,2954 <I_sll_cg_cr_rs1_rs2_edges_rs1val_0x5bbc8872_rs2val_0xfffffffe+0x18>
    2948:	38d0146f          	jal	x8,44d4 <failedtest_x8_x7>
    294c:	0000293c          	.word	0x0000293c
    2950:	0000cba2          	.word	0x0000cba2
    2954:	004a0a13          	addi	x20,x20,4

# Testcase cr_rs1_rs2_edges (Test source rs1 = 0x5bbc8872 rs2 = 0x5bbc8872)
  RVTEST_TESTDATA_LOAD_INT(x23, x26) # load rs1: x26 = 0x5bbc8872
    2958:	000bad03          	lw	x26,0(x23)
    295c:	004b8b93          	addi	x23,x23,4
  RVTEST_TESTDATA_LOAD_INT(x23, x17) # load rs2: x17 = 0x5bbc8872
    2960:	000ba883          	lw	x17,0(x23)
    2964:	004b8b93          	addi	x23,x23,4

00002968 <I_sll_cg_cr_rs1_rs2_edges_rs1val_0x5bbc8872_rs2val_0x5bbc8872>:
I_sll_cg_cr_rs1_rs2_edges_rs1val_0x5bbc8872_rs2val_0x5bbc8872:
  sll x11, x26, x17 # perform operation
    2968:	011d15b3          	sll	x11,x26,x17
  # Check if x11 contains the expected result. x20 is the signature ptr, x8 is the link ptr, x7 is a temp reg.
  RVTEST_SIGUPD(x20, x8, x7, x11, I_sll_cg_cr_rs1_rs2_edges_rs1val_0x5bbc8872_rs2val_0x5bbc8872, I_sll_cg_cr_rs1_rs2_edges_rs1val_0x5bbc8872_rs2val_0x5bbc8872_str)
    296c:	000a2383          	lw	x7,0(x20)
    2970:	00b38863          	beq	x7,x11,2980 <I_sll_cg_cr_rs1_rs2_edges_rs1val_0x5bbc8872_rs2val_0x5bbc8872+0x18>
    2974:	3610146f          	jal	x8,44d4 <failedtest_x8_x7>
    2978:	00002968          	.word	0x00002968
    297c:	0000cbfd          	.word	0x0000cbfd
    2980:	004a0a13          	addi	x20,x20,4

# Testcase cr_rs1_rs2_edges (Test source rs1 = 0x5bbc8872 rs2 = 0xaaaaaaaa)
  RVTEST_TESTDATA_LOAD_INT(x23, x13) # load rs1: x13 = 0x5bbc8872
    2984:	000ba683          	lw	x13,0(x23)
    2988:	004b8b93          	addi	x23,x23,4
  RVTEST_TESTDATA_LOAD_INT(x23, x17) # load rs2: x17 = 0xaaaaaaaa
    298c:	000ba883          	lw	x17,0(x23)
    2990:	004b8b93          	addi	x23,x23,4

00002994 <I_sll_cg_cr_rs1_rs2_edges_rs1val_0x5bbc8872_rs2val_0xaaaaaaaa>:
I_sll_cg_cr_rs1_rs2_edges_rs1val_0x5bbc8872_rs2val_0xaaaaaaaa:
  sll x16, x13, x17 # perform operation
    2994:	01169833          	sll	x16,x13,x17
  # Check if x16 contains the expected result. x20 is the signature ptr, x8 is the link ptr, x7 is a temp reg.
  RVTEST_SIGUPD(x20, x8, x7, x16, I_sll_cg_cr_rs1_rs2_edges_rs1val_0x5bbc8872_rs2val_0xaaaaaaaa, I_sll_cg_cr_rs1_rs2_edges_rs1val_0x5bbc8872_rs2val_0xaaaaaaaa_str)
    2998:	000a2383          	lw	x7,0(x20)
    299c:	01038863          	beq	x7,x16,29ac <I_sll_cg_cr_rs1_rs2_edges_rs1val_0x5bbc8872_rs2val_0xaaaaaaaa+0x18>
    29a0:	3350146f          	jal	x8,44d4 <failedtest_x8_x7>
    29a4:	00002994          	.word	0x00002994
    29a8:	0000cc58          	.word	0x0000cc58
    29ac:	004a0a13          	addi	x20,x20,4

# Testcase cr_rs1_rs2_edges (Test source rs1 = 0x5bbc8872 rs2 = 0x55555555)
  RVTEST_TESTDATA_LOAD_INT(x23, x27) # load rs1: x27 = 0x5bbc8872
    29b0:	000bad83          	lw	x27,0(x23)
    29b4:	004b8b93          	addi	x23,x23,4
  RVTEST_TESTDATA_LOAD_INT(x23, x13) # load rs2: x13 = 0x55555555
    29b8:	000ba683          	lw	x13,0(x23)
    29bc:	004b8b93          	addi	x23,x23,4

000029c0 <I_sll_cg_cr_rs1_rs2_edges_rs1val_0x5bbc8872_rs2val_0x55555555>:
I_sll_cg_cr_rs1_rs2_edges_rs1val_0x5bbc8872_rs2val_0x55555555:
  sll x29, x27, x13 # perform operation
    29c0:	00dd9eb3          	sll	x29,x27,x13
  # Check if x29 contains the expected result. x20 is the signature ptr, x8 is the link ptr, x7 is a temp reg.
  RVTEST_SIGUPD(x20, x8, x7, x29, I_sll_cg_cr_rs1_rs2_edges_rs1val_0x5bbc8872_rs2val_0x55555555, I_sll_cg_cr_rs1_rs2_edges_rs1val_0x5bbc8872_rs2val_0x55555555_str)
    29c4:	000a2383          	lw	x7,0(x20)
    29c8:	01d38863          	beq	x7,x29,29d8 <I_sll_cg_cr_rs1_rs2_edges_rs1val_0x5bbc8872_rs2val_0x55555555+0x18>
    29cc:	3090146f          	jal	x8,44d4 <failedtest_x8_x7>
    29d0:	000029c0          	.word	0x000029c0
    29d4:	0000ccb3          	.word	0x0000ccb3
    29d8:	004a0a13          	addi	x20,x20,4

# Testcase cr_rs1_rs2_edges (Test source rs1 = 0xaaaaaaaa rs2 = 0x00000000)
  RVTEST_TESTDATA_LOAD_INT(x23, x3) # load rs1: x3 = 0xaaaaaaaa
    29dc:	000ba183          	lw	x3,0(x23)
    29e0:	004b8b93          	addi	x23,x23,4
  RVTEST_TESTDATA_LOAD_INT(x23, x24) # load rs2: x24 = 0x00000000
    29e4:	000bac03          	lw	x24,0(x23)
    29e8:	004b8b93          	addi	x23,x23,4

000029ec <I_sll_cg_cr_rs1_rs2_edges_rs1val_0xaaaaaaaa_rs2val_0x0>:
I_sll_cg_cr_rs1_rs2_edges_rs1val_0xaaaaaaaa_rs2val_0x0:
  sll x25, x3, x24 # perform operation
    29ec:	01819cb3          	sll	x25,x3,x24
  # Check if x25 contains the expected result. x20 is the signature ptr, x8 is the link ptr, x7 is a temp reg.
  RVTEST_SIGUPD(x20, x8, x7, x25, I_sll_cg_cr_rs1_rs2_edges_rs1val_0xaaaaaaaa_rs2val_0x0, I_sll_cg_cr_rs1_rs2_edges_rs1val_0xaaaaaaaa_rs2val_0x0_str)
    29f0:	000a2383          	lw	x7,0(x20)
    29f4:	01938863          	beq	x7,x25,2a04 <I_sll_cg_cr_rs1_rs2_edges_rs1val_0xaaaaaaaa_rs2val_0x0+0x18>
    29f8:	2dd0146f          	jal	x8,44d4 <failedtest_x8_x7>
    29fc:	000029ec          	.word	0x000029ec
    2a00:	0000cd0e          	.word	0x0000cd0e
    2a04:	004a0a13          	addi	x20,x20,4

# Testcase cr_rs1_rs2_edges (Test source rs1 = 0xaaaaaaaa rs2 = 0x00000001)
  RVTEST_TESTDATA_LOAD_INT(x23, x28) # load rs1: x28 = 0xaaaaaaaa
    2a08:	000bae03          	lw	x28,0(x23)
    2a0c:	004b8b93          	addi	x23,x23,4
  RVTEST_TESTDATA_LOAD_INT(x23, x6) # load rs2: x6 = 0x00000001
    2a10:	000ba303          	lw	x6,0(x23)
    2a14:	004b8b93          	addi	x23,x23,4

00002a18 <I_sll_cg_cr_rs1_rs2_edges_rs1val_0xaaaaaaaa_rs2val_0x1>:
I_sll_cg_cr_rs1_rs2_edges_rs1val_0xaaaaaaaa_rs2val_0x1:
  sll x16, x28, x6 # perform operation
    2a18:	006e1833          	sll	x16,x28,x6
  # Check if x16 contains the expected result. x20 is the signature ptr, x8 is the link ptr, x7 is a temp reg.
  RVTEST_SIGUPD(x20, x8, x7, x16, I_sll_cg_cr_rs1_rs2_edges_rs1val_0xaaaaaaaa_rs2val_0x1, I_sll_cg_cr_rs1_rs2_edges_rs1val_0xaaaaaaaa_rs2val_0x1_str)
    2a1c:	000a2383          	lw	x7,0(x20)
    2a20:	01038863          	beq	x7,x16,2a30 <I_sll_cg_cr_rs1_rs2_edges_rs1val_0xaaaaaaaa_rs2val_0x1+0x18>
    2a24:	2b10146f          	jal	x8,44d4 <failedtest_x8_x7>
    2a28:	00002a18          	.word	0x00002a18
    2a2c:	0000cd62          	.word	0x0000cd62
    2a30:	004a0a13          	addi	x20,x20,4

# Testcase cr_rs1_rs2_edges (Test source rs1 = 0xaaaaaaaa rs2 = 0x00000002)
  RVTEST_TESTDATA_LOAD_INT(x23, x9) # load rs1: x9 = 0xaaaaaaaa
    2a34:	000ba483          	lw	x9,0(x23)
    2a38:	004b8b93          	addi	x23,x23,4
  RVTEST_TESTDATA_LOAD_INT(x23, x10) # load rs2: x10 = 0x00000002
    2a3c:	000ba503          	lw	x10,0(x23)
    2a40:	004b8b93          	addi	x23,x23,4

00002a44 <I_sll_cg_cr_rs1_rs2_edges_rs1val_0xaaaaaaaa_rs2val_0x2>:
I_sll_cg_cr_rs1_rs2_edges_rs1val_0xaaaaaaaa_rs2val_0x2:
  sll x21, x9, x10 # perform operation
    2a44:	00a49ab3          	sll	x21,x9,x10
  # Check if x21 contains the expected result. x20 is the signature ptr, x8 is the link ptr, x7 is a temp reg.
  RVTEST_SIGUPD(x20, x8, x7, x21, I_sll_cg_cr_rs1_rs2_edges_rs1val_0xaaaaaaaa_rs2val_0x2, I_sll_cg_cr_rs1_rs2_edges_rs1val_0xaaaaaaaa_rs2val_0x2_str)
    2a48:	000a2383          	lw	x7,0(x20)
    2a4c:	01538863          	beq	x7,x21,2a5c <I_sll_cg_cr_rs1_rs2_edges_rs1val_0xaaaaaaaa_rs2val_0x2+0x18>
    2a50:	2850146f          	jal	x8,44d4 <failedtest_x8_x7>
    2a54:	00002a44          	.word	0x00002a44
    2a58:	0000cdb6          	.word	0x0000cdb6
    2a5c:	004a0a13          	addi	x20,x20,4

# Testcase cr_rs1_rs2_edges (Test source rs1 = 0xaaaaaaaa rs2 = 0x80000000)
  RVTEST_TESTDATA_LOAD_INT(x23, x19) # load rs1: x19 = 0xaaaaaaaa
    2a60:	000ba983          	lw	x19,0(x23)
    2a64:	004b8b93          	addi	x23,x23,4
  RVTEST_TESTDATA_LOAD_INT(x23, x21) # load rs2: x21 = 0x80000000
    2a68:	000baa83          	lw	x21,0(x23)
    2a6c:	004b8b93          	addi	x23,x23,4

00002a70 <I_sll_cg_cr_rs1_rs2_edges_rs1val_0xaaaaaaaa_rs2val_0x80000000>:
I_sll_cg_cr_rs1_rs2_edges_rs1val_0xaaaaaaaa_rs2val_0x80000000:
  sll x26, x19, x21 # perform operation
    2a70:	01599d33          	sll	x26,x19,x21
  # Check if x26 contains the expected result. x20 is the signature ptr, x8 is the link ptr, x7 is a temp reg.
  RVTEST_SIGUPD(x20, x8, x7, x26, I_sll_cg_cr_rs1_rs2_edges_rs1val_0xaaaaaaaa_rs2val_0x80000000, I_sll_cg_cr_rs1_rs2_edges_rs1val_0xaaaaaaaa_rs2val_0x80000000_str)
    2a74:	000a2383          	lw	x7,0(x20)
    2a78:	01a38863          	beq	x7,x26,2a88 <I_sll_cg_cr_rs1_rs2_edges_rs1val_0xaaaaaaaa_rs2val_0x80000000+0x18>
    2a7c:	2590146f          	jal	x8,44d4 <failedtest_x8_x7>
    2a80:	00002a70          	.word	0x00002a70
    2a84:	0000ce0a          	.word	0x0000ce0a
    2a88:	004a0a13          	addi	x20,x20,4

# Testcase cr_rs1_rs2_edges (Test source rs1 = 0xaaaaaaaa rs2 = 0x80000001)
  RVTEST_TESTDATA_LOAD_INT(x23, x28) # load rs1: x28 = 0xaaaaaaaa
    2a8c:	000bae03          	lw	x28,0(x23)
    2a90:	004b8b93          	addi	x23,x23,4
  RVTEST_TESTDATA_LOAD_INT(x23, x9) # load rs2: x9 = 0x80000001
    2a94:	000ba483          	lw	x9,0(x23)
    2a98:	004b8b93          	addi	x23,x23,4

00002a9c <I_sll_cg_cr_rs1_rs2_edges_rs1val_0xaaaaaaaa_rs2val_0x80000001>:
I_sll_cg_cr_rs1_rs2_edges_rs1val_0xaaaaaaaa_rs2val_0x80000001:
  sll x30, x28, x9 # perform operation
    2a9c:	009e1f33          	sll	x30,x28,x9
  # Check if x30 contains the expected result. x20 is the signature ptr, x8 is the link ptr, x7 is a temp reg.
  RVTEST_SIGUPD(x20, x8, x7, x30, I_sll_cg_cr_rs1_rs2_edges_rs1val_0xaaaaaaaa_rs2val_0x80000001, I_sll_cg_cr_rs1_rs2_edges_rs1val_0xaaaaaaaa_rs2val_0x80000001_str)
    2aa0:	000a2383          	lw	x7,0(x20)
    2aa4:	01e38863          	beq	x7,x30,2ab4 <I_sll_cg_cr_rs1_rs2_edges_rs1val_0xaaaaaaaa_rs2val_0x80000001+0x18>
    2aa8:	22d0146f          	jal	x8,44d4 <failedtest_x8_x7>
    2aac:	00002a9c          	.word	0x00002a9c
    2ab0:	0000ce65          	.word	0x0000ce65
    2ab4:	004a0a13          	addi	x20,x20,4

# Testcase cr_rs1_rs2_edges (Test source rs1 = 0xaaaaaaaa rs2 = 0x7fffffff)
  RVTEST_TESTDATA_LOAD_INT(x23, x2) # load rs1: x2 = 0xaaaaaaaa
    2ab8:	000ba103          	lw	x2,0(x23)
    2abc:	004b8b93          	addi	x23,x23,4
  RVTEST_TESTDATA_LOAD_INT(x23, x4) # load rs2: x4 = 0x7fffffff
    2ac0:	000ba203          	lw	x4,0(x23)
    2ac4:	004b8b93          	addi	x23,x23,4

00002ac8 <I_sll_cg_cr_rs1_rs2_edges_rs1val_0xaaaaaaaa_rs2val_0x7fffffff>:
I_sll_cg_cr_rs1_rs2_edges_rs1val_0xaaaaaaaa_rs2val_0x7fffffff:
  sll x22, x2, x4 # perform operation
    2ac8:	00411b33          	sll	x22,x2,x4
  # Check if x22 contains the expected result. x20 is the signature ptr, x8 is the link ptr, x7 is a temp reg.
  RVTEST_SIGUPD(x20, x8, x7, x22, I_sll_cg_cr_rs1_rs2_edges_rs1val_0xaaaaaaaa_rs2val_0x7fffffff, I_sll_cg_cr_rs1_rs2_edges_rs1val_0xaaaaaaaa_rs2val_0x7fffffff_str)
    2acc:	000a2383          	lw	x7,0(x20)
    2ad0:	01638863          	beq	x7,x22,2ae0 <I_sll_cg_cr_rs1_rs2_edges_rs1val_0xaaaaaaaa_rs2val_0x7fffffff+0x18>
    2ad4:	2010146f          	jal	x8,44d4 <failedtest_x8_x7>
    2ad8:	00002ac8          	.word	0x00002ac8
    2adc:	0000cec0          	.word	0x0000cec0
    2ae0:	004a0a13          	addi	x20,x20,4

# Testcase cr_rs1_rs2_edges (Test source rs1 = 0xaaaaaaaa rs2 = 0x7ffffffe)
  RVTEST_TESTDATA_LOAD_INT(x23, x22) # load rs1: x22 = 0xaaaaaaaa
    2ae4:	000bab03          	lw	x22,0(x23)
    2ae8:	004b8b93          	addi	x23,x23,4
  RVTEST_TESTDATA_LOAD_INT(x23, x12) # load rs2: x12 = 0x7ffffffe
    2aec:	000ba603          	lw	x12,0(x23)
    2af0:	004b8b93          	addi	x23,x23,4

00002af4 <I_sll_cg_cr_rs1_rs2_edges_rs1val_0xaaaaaaaa_rs2val_0x7ffffffe>:
I_sll_cg_cr_rs1_rs2_edges_rs1val_0xaaaaaaaa_rs2val_0x7ffffffe:
  sll x9, x22, x12 # perform operation
    2af4:	00cb14b3          	sll	x9,x22,x12
  # Check if x9 contains the expected result. x20 is the signature ptr, x8 is the link ptr, x7 is a temp reg.
  RVTEST_SIGUPD(x20, x8, x7, x9, I_sll_cg_cr_rs1_rs2_edges_rs1val_0xaaaaaaaa_rs2val_0x7ffffffe, I_sll_cg_cr_rs1_rs2_edges_rs1val_0xaaaaaaaa_rs2val_0x7ffffffe_str)
    2af8:	000a2383          	lw	x7,0(x20)
    2afc:	00938863          	beq	x7,x9,2b0c <I_sll_cg_cr_rs1_rs2_edges_rs1val_0xaaaaaaaa_rs2val_0x7ffffffe+0x18>
    2b00:	1d50146f          	jal	x8,44d4 <failedtest_x8_x7>
    2b04:	00002af4          	.word	0x00002af4
    2b08:	0000cf1b          	.word	0x0000cf1b
    2b0c:	004a0a13          	addi	x20,x20,4

# Testcase cr_rs1_rs2_edges (Test source rs1 = 0xaaaaaaaa rs2 = 0xffffffff)
  RVTEST_TESTDATA_LOAD_INT(x23, x5) # load rs1: x5 = 0xaaaaaaaa
    2b10:	000ba283          	lw	x5,0(x23)
    2b14:	004b8b93          	addi	x23,x23,4
  RVTEST_TESTDATA_LOAD_INT(x23, x26) # load rs2: x26 = 0xffffffff
    2b18:	000bad03          	lw	x26,0(x23)
    2b1c:	004b8b93          	addi	x23,x23,4

00002b20 <I_sll_cg_cr_rs1_rs2_edges_rs1val_0xaaaaaaaa_rs2val_0xffffffff>:
I_sll_cg_cr_rs1_rs2_edges_rs1val_0xaaaaaaaa_rs2val_0xffffffff:
  sll x24, x5, x26 # perform operation
    2b20:	01a29c33          	sll	x24,x5,x26
  # Check if x24 contains the expected result. x20 is the signature ptr, x8 is the link ptr, x7 is a temp reg.
  RVTEST_SIGUPD(x20, x8, x7, x24, I_sll_cg_cr_rs1_rs2_edges_rs1val_0xaaaaaaaa_rs2val_0xffffffff, I_sll_cg_cr_rs1_rs2_edges_rs1val_0xaaaaaaaa_rs2val_0xffffffff_str)
    2b24:	000a2383          	lw	x7,0(x20)
    2b28:	01838863          	beq	x7,x24,2b38 <I_sll_cg_cr_rs1_rs2_edges_rs1val_0xaaaaaaaa_rs2val_0xffffffff+0x18>
    2b2c:	1a90146f          	jal	x8,44d4 <failedtest_x8_x7>
    2b30:	00002b20          	.word	0x00002b20
    2b34:	0000cf76          	.word	0x0000cf76
    2b38:	004a0a13          	addi	x20,x20,4

# Testcase cr_rs1_rs2_edges (Test source rs1 = 0xaaaaaaaa rs2 = 0xfffffffe)
  RVTEST_TESTDATA_LOAD_INT(x23, x5) # load rs1: x5 = 0xaaaaaaaa
    2b3c:	000ba283          	lw	x5,0(x23)
    2b40:	004b8b93          	addi	x23,x23,4
  RVTEST_TESTDATA_LOAD_INT(x23, x3) # load rs2: x3 = 0xfffffffe
    2b44:	000ba183          	lw	x3,0(x23)
    2b48:	004b8b93          	addi	x23,x23,4

00002b4c <I_sll_cg_cr_rs1_rs2_edges_rs1val_0xaaaaaaaa_rs2val_0xfffffffe>:
I_sll_cg_cr_rs1_rs2_edges_rs1val_0xaaaaaaaa_rs2val_0xfffffffe:
  sll x27, x5, x3 # perform operation
    2b4c:	00329db3          	sll	x27,x5,x3
  # Check if x27 contains the expected result. x20 is the signature ptr, x8 is the link ptr, x7 is a temp reg.
  RVTEST_SIGUPD(x20, x8, x7, x27, I_sll_cg_cr_rs1_rs2_edges_rs1val_0xaaaaaaaa_rs2val_0xfffffffe, I_sll_cg_cr_rs1_rs2_edges_rs1val_0xaaaaaaaa_rs2val_0xfffffffe_str)
    2b50:	000a2383          	lw	x7,0(x20)
    2b54:	01b38863          	beq	x7,x27,2b64 <I_sll_cg_cr_rs1_rs2_edges_rs1val_0xaaaaaaaa_rs2val_0xfffffffe+0x18>
    2b58:	17d0146f          	jal	x8,44d4 <failedtest_x8_x7>
    2b5c:	00002b4c          	.word	0x00002b4c
    2b60:	0000cfd1          	.word	0x0000cfd1
    2b64:	004a0a13          	addi	x20,x20,4

# Testcase cr_rs1_rs2_edges (Test source rs1 = 0xaaaaaaaa rs2 = 0x5bbc8872)
  RVTEST_TESTDATA_LOAD_INT(x23, x9) # load rs1: x9 = 0xaaaaaaaa
    2b68:	000ba483          	lw	x9,0(x23)
    2b6c:	004b8b93          	addi	x23,x23,4
  RVTEST_TESTDATA_LOAD_INT(x23, x19) # load rs2: x19 = 0x5bbc8872
    2b70:	000ba983          	lw	x19,0(x23)
    2b74:	004b8b93          	addi	x23,x23,4

00002b78 <I_sll_cg_cr_rs1_rs2_edges_rs1val_0xaaaaaaaa_rs2val_0x5bbc8872>:
I_sll_cg_cr_rs1_rs2_edges_rs1val_0xaaaaaaaa_rs2val_0x5bbc8872:
  sll x1, x9, x19 # perform operation
    2b78:	013490b3          	sll	x1,x9,x19
  # Check if x1 contains the expected result. x20 is the signature ptr, x8 is the link ptr, x7 is a temp reg.
  RVTEST_SIGUPD(x20, x8, x7, x1, I_sll_cg_cr_rs1_rs2_edges_rs1val_0xaaaaaaaa_rs2val_0x5bbc8872, I_sll_cg_cr_rs1_rs2_edges_rs1val_0xaaaaaaaa_rs2val_0x5bbc8872_str)
    2b7c:	000a2383          	lw	x7,0(x20)
    2b80:	00138863          	beq	x7,x1,2b90 <I_sll_cg_cr_rs1_rs2_edges_rs1val_0xaaaaaaaa_rs2val_0x5bbc8872+0x18>
    2b84:	1510146f          	jal	x8,44d4 <failedtest_x8_x7>
    2b88:	00002b78          	.word	0x00002b78
    2b8c:	0000d02c          	.word	0x0000d02c
    2b90:	004a0a13          	addi	x20,x20,4

# Testcase cr_rs1_rs2_edges (Test source rs1 = 0xaaaaaaaa rs2 = 0xaaaaaaaa)
  RVTEST_TESTDATA_LOAD_INT(x23, x21) # load rs1: x21 = 0xaaaaaaaa
    2b94:	000baa83          	lw	x21,0(x23)
    2b98:	004b8b93          	addi	x23,x23,4
  RVTEST_TESTDATA_LOAD_INT(x23, x1) # load rs2: x1 = 0xaaaaaaaa
    2b9c:	000ba083          	lw	x1,0(x23)
    2ba0:	004b8b93          	addi	x23,x23,4

00002ba4 <I_sll_cg_cr_rs1_rs2_edges_rs1val_0xaaaaaaaa_rs2val_0xaaaaaaaa>:
I_sll_cg_cr_rs1_rs2_edges_rs1val_0xaaaaaaaa_rs2val_0xaaaaaaaa:
  sll x26, x21, x1 # perform operation
    2ba4:	001a9d33          	sll	x26,x21,x1
  # Check if x26 contains the expected result. x20 is the signature ptr, x8 is the link ptr, x7 is a temp reg.
  RVTEST_SIGUPD(x20, x8, x7, x26, I_sll_cg_cr_rs1_rs2_edges_rs1val_0xaaaaaaaa_rs2val_0xaaaaaaaa, I_sll_cg_cr_rs1_rs2_edges_rs1val_0xaaaaaaaa_rs2val_0xaaaaaaaa_str)
    2ba8:	000a2383          	lw	x7,0(x20)
    2bac:	01a38863          	beq	x7,x26,2bbc <I_sll_cg_cr_rs1_rs2_edges_rs1val_0xaaaaaaaa_rs2val_0xaaaaaaaa+0x18>
    2bb0:	1250146f          	jal	x8,44d4 <failedtest_x8_x7>
    2bb4:	00002ba4          	.word	0x00002ba4
    2bb8:	0000d087          	.word	0x0000d087
    2bbc:	004a0a13          	addi	x20,x20,4

# Testcase cr_rs1_rs2_edges (Test source rs1 = 0xaaaaaaaa rs2 = 0x55555555)
  RVTEST_TESTDATA_LOAD_INT(x23, x19) # load rs1: x19 = 0xaaaaaaaa
    2bc0:	000ba983          	lw	x19,0(x23)
    2bc4:	004b8b93          	addi	x23,x23,4
  RVTEST_TESTDATA_LOAD_INT(x23, x9) # load rs2: x9 = 0x55555555
    2bc8:	000ba483          	lw	x9,0(x23)
    2bcc:	004b8b93          	addi	x23,x23,4

00002bd0 <I_sll_cg_cr_rs1_rs2_edges_rs1val_0xaaaaaaaa_rs2val_0x55555555>:
I_sll_cg_cr_rs1_rs2_edges_rs1val_0xaaaaaaaa_rs2val_0x55555555:
  sll x12, x19, x9 # perform operation
    2bd0:	00999633          	sll	x12,x19,x9
  # Check if x12 contains the expected result. x20 is the signature ptr, x8 is the link ptr, x7 is a temp reg.
  RVTEST_SIGUPD(x20, x8, x7, x12, I_sll_cg_cr_rs1_rs2_edges_rs1val_0xaaaaaaaa_rs2val_0x55555555, I_sll_cg_cr_rs1_rs2_edges_rs1val_0xaaaaaaaa_rs2val_0x55555555_str)
    2bd4:	000a2383          	lw	x7,0(x20)
    2bd8:	00c38863          	beq	x7,x12,2be8 <I_sll_cg_cr_rs1_rs2_edges_rs1val_0xaaaaaaaa_rs2val_0x55555555+0x18>
    2bdc:	0f90146f          	jal	x8,44d4 <failedtest_x8_x7>
    2be0:	00002bd0          	.word	0x00002bd0
    2be4:	0000d0e2          	.word	0x0000d0e2
    2be8:	004a0a13          	addi	x20,x20,4

# Testcase cr_rs1_rs2_edges (Test source rs1 = 0x55555555 rs2 = 0x00000000)
  RVTEST_TESTDATA_LOAD_INT(x23, x15) # load rs1: x15 = 0x55555555
    2bec:	000ba783          	lw	x15,0(x23)
    2bf0:	004b8b93          	addi	x23,x23,4
  RVTEST_TESTDATA_LOAD_INT(x23, x14) # load rs2: x14 = 0x00000000
    2bf4:	000ba703          	lw	x14,0(x23)
    2bf8:	004b8b93          	addi	x23,x23,4

00002bfc <I_sll_cg_cr_rs1_rs2_edges_rs1val_0x55555555_rs2val_0x0>:
I_sll_cg_cr_rs1_rs2_edges_rs1val_0x55555555_rs2val_0x0:
  sll x17, x15, x14 # perform operation
    2bfc:	00e798b3          	sll	x17,x15,x14
  # Check if x17 contains the expected result. x20 is the signature ptr, x8 is the link ptr, x7 is a temp reg.
  RVTEST_SIGUPD(x20, x8, x7, x17, I_sll_cg_cr_rs1_rs2_edges_rs1val_0x55555555_rs2val_0x0, I_sll_cg_cr_rs1_rs2_edges_rs1val_0x55555555_rs2val_0x0_str)
    2c00:	000a2383          	lw	x7,0(x20)
    2c04:	01138863          	beq	x7,x17,2c14 <I_sll_cg_cr_rs1_rs2_edges_rs1val_0x55555555_rs2val_0x0+0x18>
    2c08:	0cd0146f          	jal	x8,44d4 <failedtest_x8_x7>
    2c0c:	00002bfc          	.word	0x00002bfc
    2c10:	0000d13d          	.word	0x0000d13d
    2c14:	004a0a13          	addi	x20,x20,4

# Testcase cr_rs1_rs2_edges (Test source rs1 = 0x55555555 rs2 = 0x00000001)
  RVTEST_TESTDATA_LOAD_INT(x23, x19) # load rs1: x19 = 0x55555555
    2c18:	000ba983          	lw	x19,0(x23)
    2c1c:	004b8b93          	addi	x23,x23,4
  RVTEST_TESTDATA_LOAD_INT(x23, x26) # load rs2: x26 = 0x00000001
    2c20:	000bad03          	lw	x26,0(x23)
    2c24:	004b8b93          	addi	x23,x23,4

00002c28 <I_sll_cg_cr_rs1_rs2_edges_rs1val_0x55555555_rs2val_0x1>:
I_sll_cg_cr_rs1_rs2_edges_rs1val_0x55555555_rs2val_0x1:
  sll x17, x19, x26 # perform operation
    2c28:	01a998b3          	sll	x17,x19,x26
  # Check if x17 contains the expected result. x20 is the signature ptr, x8 is the link ptr, x7 is a temp reg.
  RVTEST_SIGUPD(x20, x8, x7, x17, I_sll_cg_cr_rs1_rs2_edges_rs1val_0x55555555_rs2val_0x1, I_sll_cg_cr_rs1_rs2_edges_rs1val_0x55555555_rs2val_0x1_str)
    2c2c:	000a2383          	lw	x7,0(x20)
    2c30:	01138863          	beq	x7,x17,2c40 <I_sll_cg_cr_rs1_rs2_edges_rs1val_0x55555555_rs2val_0x1+0x18>
    2c34:	0a10146f          	jal	x8,44d4 <failedtest_x8_x7>
    2c38:	00002c28          	.word	0x00002c28
    2c3c:	0000d191          	.word	0x0000d191
    2c40:	004a0a13          	addi	x20,x20,4

# Testcase cr_rs1_rs2_edges (Test source rs1 = 0x55555555 rs2 = 0x00000002)
  RVTEST_TESTDATA_LOAD_INT(x23, x14) # load rs1: x14 = 0x55555555
    2c44:	000ba703          	lw	x14,0(x23)
    2c48:	004b8b93          	addi	x23,x23,4
  RVTEST_TESTDATA_LOAD_INT(x23, x12) # load rs2: x12 = 0x00000002
    2c4c:	000ba603          	lw	x12,0(x23)
    2c50:	004b8b93          	addi	x23,x23,4

00002c54 <I_sll_cg_cr_rs1_rs2_edges_rs1val_0x55555555_rs2val_0x2>:
I_sll_cg_cr_rs1_rs2_edges_rs1val_0x55555555_rs2val_0x2:
  sll x19, x14, x12 # perform operation
    2c54:	00c719b3          	sll	x19,x14,x12
  # Check if x19 contains the expected result. x20 is the signature ptr, x8 is the link ptr, x7 is a temp reg.
  RVTEST_SIGUPD(x20, x8, x7, x19, I_sll_cg_cr_rs1_rs2_edges_rs1val_0x55555555_rs2val_0x2, I_sll_cg_cr_rs1_rs2_edges_rs1val_0x55555555_rs2val_0x2_str)
    2c58:	000a2383          	lw	x7,0(x20)
    2c5c:	01338863          	beq	x7,x19,2c6c <I_sll_cg_cr_rs1_rs2_edges_rs1val_0x55555555_rs2val_0x2+0x18>
    2c60:	0750146f          	jal	x8,44d4 <failedtest_x8_x7>
    2c64:	00002c54          	.word	0x00002c54
    2c68:	0000d1e5          	.word	0x0000d1e5
    2c6c:	004a0a13          	addi	x20,x20,4

# Testcase cr_rs1_rs2_edges (Test source rs1 = 0x55555555 rs2 = 0x80000000)
  RVTEST_TESTDATA_LOAD_INT(x23, x24) # load rs1: x24 = 0x55555555
    2c70:	000bac03          	lw	x24,0(x23)
    2c74:	004b8b93          	addi	x23,x23,4
  RVTEST_TESTDATA_LOAD_INT(x23, x18) # load rs2: x18 = 0x80000000
    2c78:	000ba903          	lw	x18,0(x23)
    2c7c:	004b8b93          	addi	x23,x23,4

00002c80 <I_sll_cg_cr_rs1_rs2_edges_rs1val_0x55555555_rs2val_0x80000000>:
I_sll_cg_cr_rs1_rs2_edges_rs1val_0x55555555_rs2val_0x80000000:
  sll x27, x24, x18 # perform operation
    2c80:	012c1db3          	sll	x27,x24,x18
  # Check if x27 contains the expected result. x20 is the signature ptr, x8 is the link ptr, x7 is a temp reg.
  RVTEST_SIGUPD(x20, x8, x7, x27, I_sll_cg_cr_rs1_rs2_edges_rs1val_0x55555555_rs2val_0x80000000, I_sll_cg_cr_rs1_rs2_edges_rs1val_0x55555555_rs2val_0x80000000_str)
    2c84:	000a2383          	lw	x7,0(x20)
    2c88:	01b38863          	beq	x7,x27,2c98 <I_sll_cg_cr_rs1_rs2_edges_rs1val_0x55555555_rs2val_0x80000000+0x18>
    2c8c:	0490146f          	jal	x8,44d4 <failedtest_x8_x7>
    2c90:	00002c80          	.word	0x00002c80
    2c94:	0000d239          	.word	0x0000d239
    2c98:	004a0a13          	addi	x20,x20,4

# Testcase cr_rs1_rs2_edges (Test source rs1 = 0x55555555 rs2 = 0x80000001)
  RVTEST_TESTDATA_LOAD_INT(x23, x9) # load rs1: x9 = 0x55555555
    2c9c:	000ba483          	lw	x9,0(x23)
    2ca0:	004b8b93          	addi	x23,x23,4
  RVTEST_TESTDATA_LOAD_INT(x23, x31) # load rs2: x31 = 0x80000001
    2ca4:	000baf83          	lw	x31,0(x23)
    2ca8:	004b8b93          	addi	x23,x23,4

00002cac <I_sll_cg_cr_rs1_rs2_edges_rs1val_0x55555555_rs2val_0x80000001>:
I_sll_cg_cr_rs1_rs2_edges_rs1val_0x55555555_rs2val_0x80000001:
  sll x30, x9, x31 # perform operation
    2cac:	01f49f33          	sll	x30,x9,x31
  # Check if x30 contains the expected result. x20 is the signature ptr, x8 is the link ptr, x7 is a temp reg.
  RVTEST_SIGUPD(x20, x8, x7, x30, I_sll_cg_cr_rs1_rs2_edges_rs1val_0x55555555_rs2val_0x80000001, I_sll_cg_cr_rs1_rs2_edges_rs1val_0x55555555_rs2val_0x80000001_str)
    2cb0:	000a2383          	lw	x7,0(x20)
    2cb4:	01e38863          	beq	x7,x30,2cc4 <I_sll_cg_cr_rs1_rs2_edges_rs1val_0x55555555_rs2val_0x80000001+0x18>
    2cb8:	01d0146f          	jal	x8,44d4 <failedtest_x8_x7>
    2cbc:	00002cac          	.word	0x00002cac
    2cc0:	0000d294          	.word	0x0000d294
    2cc4:	004a0a13          	addi	x20,x20,4

# Testcase cr_rs1_rs2_edges (Test source rs1 = 0x55555555 rs2 = 0x7fffffff)
  RVTEST_TESTDATA_LOAD_INT(x23, x15) # load rs1: x15 = 0x55555555
    2cc8:	000ba783          	lw	x15,0(x23)
    2ccc:	004b8b93          	addi	x23,x23,4
  RVTEST_TESTDATA_LOAD_INT(x23, x10) # load rs2: x10 = 0x7fffffff
    2cd0:	000ba503          	lw	x10,0(x23)
    2cd4:	004b8b93          	addi	x23,x23,4

00002cd8 <I_sll_cg_cr_rs1_rs2_edges_rs1val_0x55555555_rs2val_0x7fffffff>:
I_sll_cg_cr_rs1_rs2_edges_rs1val_0x55555555_rs2val_0x7fffffff:
  sll x19, x15, x10 # perform operation
    2cd8:	00a799b3          	sll	x19,x15,x10
  # Check if x19 contains the expected result. x20 is the signature ptr, x8 is the link ptr, x7 is a temp reg.
  RVTEST_SIGUPD(x20, x8, x7, x19, I_sll_cg_cr_rs1_rs2_edges_rs1val_0x55555555_rs2val_0x7fffffff, I_sll_cg_cr_rs1_rs2_edges_rs1val_0x55555555_rs2val_0x7fffffff_str)
    2cdc:	000a2383          	lw	x7,0(x20)
    2ce0:	01338863          	beq	x7,x19,2cf0 <I_sll_cg_cr_rs1_rs2_edges_rs1val_0x55555555_rs2val_0x7fffffff+0x18>
    2ce4:	7f00146f          	jal	x8,44d4 <failedtest_x8_x7>
    2ce8:	00002cd8          	.word	0x00002cd8
    2cec:	0000d2ef          	.word	0x0000d2ef
    2cf0:	004a0a13          	addi	x20,x20,4

# Testcase cr_rs1_rs2_edges (Test source rs1 = 0x55555555 rs2 = 0x7ffffffe)
  RVTEST_TESTDATA_LOAD_INT(x23, x26) # load rs1: x26 = 0x55555555
    2cf4:	000bad03          	lw	x26,0(x23)
    2cf8:	004b8b93          	addi	x23,x23,4
  RVTEST_TESTDATA_LOAD_INT(x23, x17) # load rs2: x17 = 0x7ffffffe
    2cfc:	000ba883          	lw	x17,0(x23)
    2d00:	004b8b93          	addi	x23,x23,4

00002d04 <I_sll_cg_cr_rs1_rs2_edges_rs1val_0x55555555_rs2val_0x7ffffffe>:
I_sll_cg_cr_rs1_rs2_edges_rs1val_0x55555555_rs2val_0x7ffffffe:
  sll x22, x26, x17 # perform operation
    2d04:	011d1b33          	sll	x22,x26,x17
  # Check if x22 contains the expected result. x20 is the signature ptr, x8 is the link ptr, x7 is a temp reg.
  RVTEST_SIGUPD(x20, x8, x7, x22, I_sll_cg_cr_rs1_rs2_edges_rs1val_0x55555555_rs2val_0x7ffffffe, I_sll_cg_cr_rs1_rs2_edges_rs1val_0x55555555_rs2val_0x7ffffffe_str)
    2d08:	000a2383          	lw	x7,0(x20)
    2d0c:	01638863          	beq	x7,x22,2d1c <I_sll_cg_cr_rs1_rs2_edges_rs1val_0x55555555_rs2val_0x7ffffffe+0x18>
    2d10:	7c40146f          	jal	x8,44d4 <failedtest_x8_x7>
    2d14:	00002d04          	.word	0x00002d04
    2d18:	0000d34a          	.word	0x0000d34a
    2d1c:	004a0a13          	addi	x20,x20,4

# Testcase cr_rs1_rs2_edges (Test source rs1 = 0x55555555 rs2 = 0xffffffff)
  RVTEST_TESTDATA_LOAD_INT(x23, x26) # load rs1: x26 = 0x55555555
    2d20:	000bad03          	lw	x26,0(x23)
    2d24:	004b8b93          	addi	x23,x23,4
  RVTEST_TESTDATA_LOAD_INT(x23, x11) # load rs2: x11 = 0xffffffff
    2d28:	000ba583          	lw	x11,0(x23)
    2d2c:	004b8b93          	addi	x23,x23,4

00002d30 <I_sll_cg_cr_rs1_rs2_edges_rs1val_0x55555555_rs2val_0xffffffff>:
I_sll_cg_cr_rs1_rs2_edges_rs1val_0x55555555_rs2val_0xffffffff:
  sll x29, x26, x11 # perform operation
    2d30:	00bd1eb3          	sll	x29,x26,x11
  # Check if x29 contains the expected result. x20 is the signature ptr, x8 is the link ptr, x7 is a temp reg.
  RVTEST_SIGUPD(x20, x8, x7, x29, I_sll_cg_cr_rs1_rs2_edges_rs1val_0x55555555_rs2val_0xffffffff, I_sll_cg_cr_rs1_rs2_edges_rs1val_0x55555555_rs2val_0xffffffff_str)
    2d34:	000a2383          	lw	x7,0(x20)
    2d38:	01d38863          	beq	x7,x29,2d48 <I_sll_cg_cr_rs1_rs2_edges_rs1val_0x55555555_rs2val_0xffffffff+0x18>
    2d3c:	7980146f          	jal	x8,44d4 <failedtest_x8_x7>
    2d40:	00002d30          	.word	0x00002d30
    2d44:	0000d3a5          	.word	0x0000d3a5
    2d48:	004a0a13          	addi	x20,x20,4

# Testcase cr_rs1_rs2_edges (Test source rs1 = 0x55555555 rs2 = 0xfffffffe)
  RVTEST_TESTDATA_LOAD_INT(x23, x26) # load rs1: x26 = 0x55555555
    2d4c:	000bad03          	lw	x26,0(x23)
    2d50:	004b8b93          	addi	x23,x23,4
  RVTEST_TESTDATA_LOAD_INT(x23, x28) # load rs2: x28 = 0xfffffffe
    2d54:	000bae03          	lw	x28,0(x23)
    2d58:	004b8b93          	addi	x23,x23,4

00002d5c <I_sll_cg_cr_rs1_rs2_edges_rs1val_0x55555555_rs2val_0xfffffffe>:
I_sll_cg_cr_rs1_rs2_edges_rs1val_0x55555555_rs2val_0xfffffffe:
  sll x1, x26, x28 # perform operation
    2d5c:	01cd10b3          	sll	x1,x26,x28
  # Check if x1 contains the expected result. x20 is the signature ptr, x8 is the link ptr, x7 is a temp reg.
  RVTEST_SIGUPD(x20, x8, x7, x1, I_sll_cg_cr_rs1_rs2_edges_rs1val_0x55555555_rs2val_0xfffffffe, I_sll_cg_cr_rs1_rs2_edges_rs1val_0x55555555_rs2val_0xfffffffe_str)
    2d60:	000a2383          	lw	x7,0(x20)
    2d64:	00138863          	beq	x7,x1,2d74 <I_sll_cg_cr_rs1_rs2_edges_rs1val_0x55555555_rs2val_0xfffffffe+0x18>
    2d68:	76c0146f          	jal	x8,44d4 <failedtest_x8_x7>
    2d6c:	00002d5c          	.word	0x00002d5c
    2d70:	0000d400          	.word	0x0000d400
    2d74:	004a0a13          	addi	x20,x20,4

# Testcase cr_rs1_rs2_edges (Test source rs1 = 0x55555555 rs2 = 0x5bbc8872)
  RVTEST_TESTDATA_LOAD_INT(x23, x3) # load rs1: x3 = 0x55555555
    2d78:	000ba183          	lw	x3,0(x23)
    2d7c:	004b8b93          	addi	x23,x23,4
  RVTEST_TESTDATA_LOAD_INT(x23, x10) # load rs2: x10 = 0x5bbc8872
    2d80:	000ba503          	lw	x10,0(x23)
    2d84:	004b8b93          	addi	x23,x23,4

00002d88 <I_sll_cg_cr_rs1_rs2_edges_rs1val_0x55555555_rs2val_0x5bbc8872>:
I_sll_cg_cr_rs1_rs2_edges_rs1val_0x55555555_rs2val_0x5bbc8872:
  sll x17, x3, x10 # perform operation
    2d88:	00a198b3          	sll	x17,x3,x10
  # Check if x17 contains the expected result. x20 is the signature ptr, x8 is the link ptr, x7 is a temp reg.
  RVTEST_SIGUPD(x20, x8, x7, x17, I_sll_cg_cr_rs1_rs2_edges_rs1val_0x55555555_rs2val_0x5bbc8872, I_sll_cg_cr_rs1_rs2_edges_rs1val_0x55555555_rs2val_0x5bbc8872_str)
    2d8c:	000a2383          	lw	x7,0(x20)
    2d90:	01138863          	beq	x7,x17,2da0 <I_sll_cg_cr_rs1_rs2_edges_rs1val_0x55555555_rs2val_0x5bbc8872+0x18>
    2d94:	7400146f          	jal	x8,44d4 <failedtest_x8_x7>
    2d98:	00002d88          	.word	0x00002d88
    2d9c:	0000d45b          	.word	0x0000d45b
    2da0:	004a0a13          	addi	x20,x20,4

# Testcase cr_rs1_rs2_edges (Test source rs1 = 0x55555555 rs2 = 0xaaaaaaaa)
  RVTEST_TESTDATA_LOAD_INT(x23, x4) # load rs1: x4 = 0x55555555
    2da4:	000ba203          	lw	x4,0(x23)
    2da8:	004b8b93          	addi	x23,x23,4
  RVTEST_TESTDATA_LOAD_INT(x23, x22) # load rs2: x22 = 0xaaaaaaaa
    2dac:	000bab03          	lw	x22,0(x23)
    2db0:	004b8b93          	addi	x23,x23,4

00002db4 <I_sll_cg_cr_rs1_rs2_edges_rs1val_0x55555555_rs2val_0xaaaaaaaa>:
I_sll_cg_cr_rs1_rs2_edges_rs1val_0x55555555_rs2val_0xaaaaaaaa:
  sll x3, x4, x22 # perform operation
    2db4:	016211b3          	sll	x3,x4,x22
  # Check if x3 contains the expected result. x20 is the signature ptr, x8 is the link ptr, x7 is a temp reg.
  RVTEST_SIGUPD(x20, x8, x7, x3, I_sll_cg_cr_rs1_rs2_edges_rs1val_0x55555555_rs2val_0xaaaaaaaa, I_sll_cg_cr_rs1_rs2_edges_rs1val_0x55555555_rs2val_0xaaaaaaaa_str)
    2db8:	000a2383          	lw	x7,0(x20)
    2dbc:	00338863          	beq	x7,x3,2dcc <I_sll_cg_cr_rs1_rs2_edges_rs1val_0x55555555_rs2val_0xaaaaaaaa+0x18>
    2dc0:	7140146f          	jal	x8,44d4 <failedtest_x8_x7>
    2dc4:	00002db4          	.word	0x00002db4
    2dc8:	0000d4b6          	.word	0x0000d4b6
    2dcc:	004a0a13          	addi	x20,x20,4

# Testcase cr_rs1_rs2_edges (Test source rs1 = 0x55555555 rs2 = 0x55555555)
  RVTEST_TESTDATA_LOAD_INT(x23, x9) # load rs1: x9 = 0x55555555
    2dd0:	000ba483          	lw	x9,0(x23)
    2dd4:	004b8b93          	addi	x23,x23,4
  RVTEST_TESTDATA_LOAD_INT(x23, x17) # load rs2: x17 = 0x55555555
    2dd8:	000ba883          	lw	x17,0(x23)
    2ddc:	004b8b93          	addi	x23,x23,4

00002de0 <I_sll_cg_cr_rs1_rs2_edges_rs1val_0x55555555_rs2val_0x55555555>:
I_sll_cg_cr_rs1_rs2_edges_rs1val_0x55555555_rs2val_0x55555555:
  sll x18, x9, x17 # perform operation
    2de0:	01149933          	sll	x18,x9,x17
  # Check if x18 contains the expected result. x20 is the signature ptr, x8 is the link ptr, x7 is a temp reg.
  RVTEST_SIGUPD(x20, x8, x7, x18, I_sll_cg_cr_rs1_rs2_edges_rs1val_0x55555555_rs2val_0x55555555, I_sll_cg_cr_rs1_rs2_edges_rs1val_0x55555555_rs2val_0x55555555_str)
    2de4:	000a2383          	lw	x7,0(x20)
    2de8:	01238863          	beq	x7,x18,2df8 <I_sll_cg_cr_rs1_rs2_edges_rs1val_0x55555555_rs2val_0x55555555+0x18>
    2dec:	6e80146f          	jal	x8,44d4 <failedtest_x8_x7>
    2df0:	00002de0          	.word	0x00002de0
    2df4:	0000d511          	.word	0x0000d511
    2df8:	004a0a13          	addi	x20,x20,4
/////////////////////////////////
// cmp_rs1_rs2
/////////////////////////////////

# Testcase cmp_rs1_rs2 (Test rs1 = rs2 = x0)
  RVTEST_TESTDATA_LOAD_INT(x23, x0) # load rs1: x0 = 0x2a6f9abd
    2dfc:	000ba003          	lw	x0,0(x23)
    2e00:	004b8b93          	addi	x23,x23,4
  RVTEST_TESTDATA_LOAD_INT(x23, x0) # load rs2: x0 = 0x2b828af9
    2e04:	000ba003          	lw	x0,0(x23)
    2e08:	004b8b93          	addi	x23,x23,4

00002e0c <I_sll_cg_cmp_rs1_rs2_b0>:
I_sll_cg_cmp_rs1_rs2_b0:
  sll x22, x0, x0 # perform operation
    2e0c:	00001b33          	sll	x22,x0,x0
  # Check if x22 contains the expected result. x20 is the signature ptr, x8 is the link ptr, x7 is a temp reg.
  RVTEST_SIGUPD(x20, x8, x7, x22, I_sll_cg_cmp_rs1_rs2_b0, I_sll_cg_cmp_rs1_rs2_b0_str)
    2e10:	000a2383          	lw	x7,0(x20)
    2e14:	01638863          	beq	x7,x22,2e24 <I_sll_cg_cmp_rs1_rs2_b0+0x18>
    2e18:	6bc0146f          	jal	x8,44d4 <failedtest_x8_x7>
    2e1c:	00002e0c          	.word	0x00002e0c
    2e20:	0000d56c          	.word	0x0000d56c
    2e24:	004a0a13          	addi	x20,x20,4

# Testcase cmp_rs1_rs2 (Test rs1 = rs2 = x1)
  RVTEST_TESTDATA_LOAD_INT(x23, x1) # load rs1: x1 = 0xea45b223
    2e28:	000ba083          	lw	x1,0(x23)
    2e2c:	004b8b93          	addi	x23,x23,4
  RVTEST_TESTDATA_LOAD_INT(x23, x1) # load rs2: x1 = 0x6e51c1c0
    2e30:	000ba083          	lw	x1,0(x23)
    2e34:	004b8b93          	addi	x23,x23,4

00002e38 <I_sll_cg_cmp_rs1_rs2_b1>:
I_sll_cg_cmp_rs1_rs2_b1:
  sll x25, x1, x1 # perform operation
    2e38:	00109cb3          	sll	x25,x1,x1
  # Check if x25 contains the expected result. x20 is the signature ptr, x8 is the link ptr, x7 is a temp reg.
  RVTEST_SIGUPD(x20, x8, x7, x25, I_sll_cg_cmp_rs1_rs2_b1, I_sll_cg_cmp_rs1_rs2_b1_str)
    2e3c:	000a2383          	lw	x7,0(x20)
    2e40:	01938863          	beq	x7,x25,2e50 <I_sll_cg_cmp_rs1_rs2_b1+0x18>
    2e44:	6900146f          	jal	x8,44d4 <failedtest_x8_x7>
    2e48:	00002e38          	.word	0x00002e38
    2e4c:	0000d5a0          	.word	0x0000d5a0
    2e50:	004a0a13          	addi	x20,x20,4

# Testcase cmp_rs1_rs2 (Test rs1 = rs2 = x2)
  RVTEST_TESTDATA_LOAD_INT(x23, x2) # load rs1: x2 = 0xfeff0a87
    2e54:	000ba103          	lw	x2,0(x23)
    2e58:	004b8b93          	addi	x23,x23,4
  RVTEST_TESTDATA_LOAD_INT(x23, x2) # load rs2: x2 = 0x128eeab6
    2e5c:	000ba103          	lw	x2,0(x23)
    2e60:	004b8b93          	addi	x23,x23,4

00002e64 <I_sll_cg_cmp_rs1_rs2_b2>:
I_sll_cg_cmp_rs1_rs2_b2:
  sll x19, x2, x2 # perform operation
    2e64:	002119b3          	sll	x19,x2,x2
  # Check if x19 contains the expected result. x20 is the signature ptr, x8 is the link ptr, x7 is a temp reg.
  RVTEST_SIGUPD(x20, x8, x7, x19, I_sll_cg_cmp_rs1_rs2_b2, I_sll_cg_cmp_rs1_rs2_b2_str)
    2e68:	000a2383          	lw	x7,0(x20)
    2e6c:	01338863          	beq	x7,x19,2e7c <I_sll_cg_cmp_rs1_rs2_b2+0x18>
    2e70:	6640146f          	jal	x8,44d4 <failedtest_x8_x7>
    2e74:	00002e64          	.word	0x00002e64
    2e78:	0000d5d4          	.word	0x0000d5d4
    2e7c:	004a0a13          	addi	x20,x20,4

# Testcase cmp_rs1_rs2 (Test rs1 = rs2 = x3)
  RVTEST_TESTDATA_LOAD_INT(x23, x3) # load rs1: x3 = 0xe988b987
    2e80:	000ba183          	lw	x3,0(x23)
    2e84:	004b8b93          	addi	x23,x23,4
  RVTEST_TESTDATA_LOAD_INT(x23, x3) # load rs2: x3 = 0x8622cd45
    2e88:	000ba183          	lw	x3,0(x23)
    2e8c:	004b8b93          	addi	x23,x23,4

00002e90 <I_sll_cg_cmp_rs1_rs2_b3>:
I_sll_cg_cmp_rs1_rs2_b3:
  sll x28, x3, x3 # perform operation
    2e90:	00319e33          	sll	x28,x3,x3
  # Check if x28 contains the expected result. x20 is the signature ptr, x8 is the link ptr, x7 is a temp reg.
  RVTEST_SIGUPD(x20, x8, x7, x28, I_sll_cg_cmp_rs1_rs2_b3, I_sll_cg_cmp_rs1_rs2_b3_str)
    2e94:	000a2383          	lw	x7,0(x20)
    2e98:	01c38863          	beq	x7,x28,2ea8 <I_sll_cg_cmp_rs1_rs2_b3+0x18>
    2e9c:	6380146f          	jal	x8,44d4 <failedtest_x8_x7>
    2ea0:	00002e90          	.word	0x00002e90
    2ea4:	0000d608          	.word	0x0000d608
    2ea8:	004a0a13          	addi	x20,x20,4

# Testcase cmp_rs1_rs2 (Test rs1 = rs2 = x4)
  RVTEST_TESTDATA_LOAD_INT(x23, x4) # load rs1: x4 = 0xbbf84a42
    2eac:	000ba203          	lw	x4,0(x23)
    2eb0:	004b8b93          	addi	x23,x23,4
  RVTEST_TESTDATA_LOAD_INT(x23, x4) # load rs2: x4 = 0x31adcf13
    2eb4:	000ba203          	lw	x4,0(x23)
    2eb8:	004b8b93          	addi	x23,x23,4

00002ebc <I_sll_cg_cmp_rs1_rs2_b4>:
I_sll_cg_cmp_rs1_rs2_b4:
  sll x13, x4, x4 # perform operation
    2ebc:	004216b3          	sll	x13,x4,x4
  # Check if x13 contains the expected result. x20 is the signature ptr, x8 is the link ptr, x7 is a temp reg.
  RVTEST_SIGUPD(x20, x8, x7, x13, I_sll_cg_cmp_rs1_rs2_b4, I_sll_cg_cmp_rs1_rs2_b4_str)
    2ec0:	000a2383          	lw	x7,0(x20)
    2ec4:	00d38863          	beq	x7,x13,2ed4 <I_sll_cg_cmp_rs1_rs2_b4+0x18>
    2ec8:	60c0146f          	jal	x8,44d4 <failedtest_x8_x7>
    2ecc:	00002ebc          	.word	0x00002ebc
    2ed0:	0000d63c          	.word	0x0000d63c
    2ed4:	004a0a13          	addi	x20,x20,4

# Testcase cmp_rs1_rs2 (Test rs1 = rs2 = x5)
  RVTEST_TESTDATA_LOAD_INT(x23, x5) # load rs1: x5 = 0x7169c523
    2ed8:	000ba283          	lw	x5,0(x23)
    2edc:	004b8b93          	addi	x23,x23,4
  RVTEST_TESTDATA_LOAD_INT(x23, x5) # load rs2: x5 = 0xf6e3bec5
    2ee0:	000ba283          	lw	x5,0(x23)
    2ee4:	004b8b93          	addi	x23,x23,4

00002ee8 <I_sll_cg_cmp_rs1_rs2_b5>:
I_sll_cg_cmp_rs1_rs2_b5:
  sll x30, x5, x5 # perform operation
    2ee8:	00529f33          	sll	x30,x5,x5
  # Check if x30 contains the expected result. x20 is the signature ptr, x8 is the link ptr, x7 is a temp reg.
  RVTEST_SIGUPD(x20, x8, x7, x30, I_sll_cg_cmp_rs1_rs2_b5, I_sll_cg_cmp_rs1_rs2_b5_str)
    2eec:	000a2383          	lw	x7,0(x20)
    2ef0:	01e38863          	beq	x7,x30,2f00 <I_sll_cg_cmp_rs1_rs2_b5+0x18>
    2ef4:	5e00146f          	jal	x8,44d4 <failedtest_x8_x7>
    2ef8:	00002ee8          	.word	0x00002ee8
    2efc:	0000d670          	.word	0x0000d670
    2f00:	004a0a13          	addi	x20,x20,4

# Testcase cmp_rs1_rs2 (Test rs1 = rs2 = x6)
  RVTEST_TESTDATA_LOAD_INT(x23, x6) # load rs1: x6 = 0xc560a8a5
    2f04:	000ba303          	lw	x6,0(x23)
    2f08:	004b8b93          	addi	x23,x23,4
  RVTEST_TESTDATA_LOAD_INT(x23, x6) # load rs2: x6 = 0x5cac8c78
    2f0c:	000ba303          	lw	x6,0(x23)
    2f10:	004b8b93          	addi	x23,x23,4

00002f14 <I_sll_cg_cmp_rs1_rs2_b6>:
I_sll_cg_cmp_rs1_rs2_b6:
  sll x15, x6, x6 # perform operation
    2f14:	006317b3          	sll	x15,x6,x6
  # Check if x15 contains the expected result. x20 is the signature ptr, x8 is the link ptr, x7 is a temp reg.
  RVTEST_SIGUPD(x20, x8, x7, x15, I_sll_cg_cmp_rs1_rs2_b6, I_sll_cg_cmp_rs1_rs2_b6_str)
    2f18:	000a2383          	lw	x7,0(x20)
    2f1c:	00f38863          	beq	x7,x15,2f2c <I_sll_cg_cmp_rs1_rs2_b6+0x18>
    2f20:	5b40146f          	jal	x8,44d4 <failedtest_x8_x7>
    2f24:	00002f14          	.word	0x00002f14
    2f28:	0000d6a4          	.word	0x0000d6a4
    2f2c:	004a0a13          	addi	x20,x20,4

  mv x4, x7 # switch temp register to avoid conflict with test
    2f30:	00038213          	addi	x4,x7,0
  mv x5, x8 # switch link pointer register to avoid conflict with test
    2f34:	00040293          	addi	x5,x8,0
# Testcase cmp_rs1_rs2 (Test rs1 = rs2 = x7)
  RVTEST_TESTDATA_LOAD_INT(x23, x7) # load rs1: x7 = 0x45b6a60c
    2f38:	000ba383          	lw	x7,0(x23)
    2f3c:	004b8b93          	addi	x23,x23,4
  RVTEST_TESTDATA_LOAD_INT(x23, x7) # load rs2: x7 = 0x3c7ab025
    2f40:	000ba383          	lw	x7,0(x23)
    2f44:	004b8b93          	addi	x23,x23,4

00002f48 <I_sll_cg_cmp_rs1_rs2_b7>:
I_sll_cg_cmp_rs1_rs2_b7:
  sll x30, x7, x7 # perform operation
    2f48:	00739f33          	sll	x30,x7,x7
  # Check if x30 contains the expected result. x20 is the signature ptr, x5 is the link ptr, x4 is a temp reg.
  RVTEST_SIGUPD(x20, x5, x4, x30, I_sll_cg_cmp_rs1_rs2_b7, I_sll_cg_cmp_rs1_rs2_b7_str)
    2f4c:	000a2203          	lw	x4,0(x20)
    2f50:	01e20863          	beq	x4,x30,2f60 <I_sll_cg_cmp_rs1_rs2_b7+0x18>
    2f54:	568012ef          	jal	x5,44bc <failedtest_x5_x4>
    2f58:	00002f48          	.word	0x00002f48
    2f5c:	0000d6d8          	.word	0x0000d6d8
    2f60:	004a0a13          	addi	x20,x20,4

# Testcase cmp_rs1_rs2 (Test rs1 = rs2 = x8)
  RVTEST_TESTDATA_LOAD_INT(x23, x8) # load rs1: x8 = 0x27166695
    2f64:	000ba403          	lw	x8,0(x23)
    2f68:	004b8b93          	addi	x23,x23,4
  RVTEST_TESTDATA_LOAD_INT(x23, x8) # load rs2: x8 = 0xe59c7e84
    2f6c:	000ba403          	lw	x8,0(x23)
    2f70:	004b8b93          	addi	x23,x23,4

00002f74 <I_sll_cg_cmp_rs1_rs2_b8>:
I_sll_cg_cmp_rs1_rs2_b8:
  sll x21, x8, x8 # perform operation
    2f74:	00841ab3          	sll	x21,x8,x8
  # Check if x21 contains the expected result. x20 is the signature ptr, x5 is the link ptr, x4 is a temp reg.
  RVTEST_SIGUPD(x20, x5, x4, x21, I_sll_cg_cmp_rs1_rs2_b8, I_sll_cg_cmp_rs1_rs2_b8_str)
    2f78:	000a2203          	lw	x4,0(x20)
    2f7c:	01520863          	beq	x4,x21,2f8c <I_sll_cg_cmp_rs1_rs2_b8+0x18>
    2f80:	53c012ef          	jal	x5,44bc <failedtest_x5_x4>
    2f84:	00002f74          	.word	0x00002f74
    2f88:	0000d70c          	.word	0x0000d70c
    2f8c:	004a0a13          	addi	x20,x20,4

# Testcase cmp_rs1_rs2 (Test rs1 = rs2 = x9)
  RVTEST_TESTDATA_LOAD_INT(x23, x9) # load rs1: x9 = 0x6dcf0df4
    2f90:	000ba483          	lw	x9,0(x23)
    2f94:	004b8b93          	addi	x23,x23,4
  RVTEST_TESTDATA_LOAD_INT(x23, x9) # load rs2: x9 = 0x0637c917
    2f98:	000ba483          	lw	x9,0(x23)
    2f9c:	004b8b93          	addi	x23,x23,4

00002fa0 <I_sll_cg_cmp_rs1_rs2_b9>:
I_sll_cg_cmp_rs1_rs2_b9:
  sll x19, x9, x9 # perform operation
    2fa0:	009499b3          	sll	x19,x9,x9
  # Check if x19 contains the expected result. x20 is the signature ptr, x5 is the link ptr, x4 is a temp reg.
  RVTEST_SIGUPD(x20, x5, x4, x19, I_sll_cg_cmp_rs1_rs2_b9, I_sll_cg_cmp_rs1_rs2_b9_str)
    2fa4:	000a2203          	lw	x4,0(x20)
    2fa8:	01320863          	beq	x4,x19,2fb8 <I_sll_cg_cmp_rs1_rs2_b9+0x18>
    2fac:	510012ef          	jal	x5,44bc <failedtest_x5_x4>
    2fb0:	00002fa0          	.word	0x00002fa0
    2fb4:	0000d740          	.word	0x0000d740
    2fb8:	004a0a13          	addi	x20,x20,4

# Testcase cmp_rs1_rs2 (Test rs1 = rs2 = x10)
  RVTEST_TESTDATA_LOAD_INT(x23, x10) # load rs1: x10 = 0xc7089cc3
    2fbc:	000ba503          	lw	x10,0(x23)
    2fc0:	004b8b93          	addi	x23,x23,4
  RVTEST_TESTDATA_LOAD_INT(x23, x10) # load rs2: x10 = 0x048ea37b
    2fc4:	000ba503          	lw	x10,0(x23)
    2fc8:	004b8b93          	addi	x23,x23,4

00002fcc <I_sll_cg_cmp_rs1_rs2_b10>:
I_sll_cg_cmp_rs1_rs2_b10:
  sll x7, x10, x10 # perform operation
    2fcc:	00a513b3          	sll	x7,x10,x10
  # Check if x7 contains the expected result. x20 is the signature ptr, x5 is the link ptr, x4 is a temp reg.
  RVTEST_SIGUPD(x20, x5, x4, x7, I_sll_cg_cmp_rs1_rs2_b10, I_sll_cg_cmp_rs1_rs2_b10_str)
    2fd0:	000a2203          	lw	x4,0(x20)
    2fd4:	00720863          	beq	x4,x7,2fe4 <I_sll_cg_cmp_rs1_rs2_b10+0x18>
    2fd8:	4e4012ef          	jal	x5,44bc <failedtest_x5_x4>
    2fdc:	00002fcc          	.word	0x00002fcc
    2fe0:	0000d774          	.word	0x0000d774
    2fe4:	004a0a13          	addi	x20,x20,4

# Testcase cmp_rs1_rs2 (Test rs1 = rs2 = x11)
  RVTEST_TESTDATA_LOAD_INT(x23, x11) # load rs1: x11 = 0xe458ce57
    2fe8:	000ba583          	lw	x11,0(x23)
    2fec:	004b8b93          	addi	x23,x23,4
  RVTEST_TESTDATA_LOAD_INT(x23, x11) # load rs2: x11 = 0x05e186ec
    2ff0:	000ba583          	lw	x11,0(x23)
    2ff4:	004b8b93          	addi	x23,x23,4

00002ff8 <I_sll_cg_cmp_rs1_rs2_b11>:
I_sll_cg_cmp_rs1_rs2_b11:
  sll x25, x11, x11 # perform operation
    2ff8:	00b59cb3          	sll	x25,x11,x11
  # Check if x25 contains the expected result. x20 is the signature ptr, x5 is the link ptr, x4 is a temp reg.
  RVTEST_SIGUPD(x20, x5, x4, x25, I_sll_cg_cmp_rs1_rs2_b11, I_sll_cg_cmp_rs1_rs2_b11_str)
    2ffc:	000a2203          	lw	x4,0(x20)
    3000:	01920863          	beq	x4,x25,3010 <I_sll_cg_cmp_rs1_rs2_b11+0x18>
    3004:	4b8012ef          	jal	x5,44bc <failedtest_x5_x4>
    3008:	00002ff8          	.word	0x00002ff8
    300c:	0000d7a9          	.word	0x0000d7a9
    3010:	004a0a13          	addi	x20,x20,4

# Testcase cmp_rs1_rs2 (Test rs1 = rs2 = x12)
  RVTEST_TESTDATA_LOAD_INT(x23, x12) # load rs1: x12 = 0x5718ef45
    3014:	000ba603          	lw	x12,0(x23)
    3018:	004b8b93          	addi	x23,x23,4
  RVTEST_TESTDATA_LOAD_INT(x23, x12) # load rs2: x12 = 0xf8d00726
    301c:	000ba603          	lw	x12,0(x23)
    3020:	004b8b93          	addi	x23,x23,4

00003024 <I_sll_cg_cmp_rs1_rs2_b12>:
I_sll_cg_cmp_rs1_rs2_b12:
  sll x15, x12, x12 # perform operation
    3024:	00c617b3          	sll	x15,x12,x12
  # Check if x15 contains the expected result. x20 is the signature ptr, x5 is the link ptr, x4 is a temp reg.
  RVTEST_SIGUPD(x20, x5, x4, x15, I_sll_cg_cmp_rs1_rs2_b12, I_sll_cg_cmp_rs1_rs2_b12_str)
    3028:	000a2203          	lw	x4,0(x20)
    302c:	00f20863          	beq	x4,x15,303c <I_sll_cg_cmp_rs1_rs2_b12+0x18>
    3030:	48c012ef          	jal	x5,44bc <failedtest_x5_x4>
    3034:	00003024          	.word	0x00003024
    3038:	0000d7de          	.word	0x0000d7de
    303c:	004a0a13          	addi	x20,x20,4

# Testcase cmp_rs1_rs2 (Test rs1 = rs2 = x13)
  RVTEST_TESTDATA_LOAD_INT(x23, x13) # load rs1: x13 = 0xc8a027ed
    3040:	000ba683          	lw	x13,0(x23)
    3044:	004b8b93          	addi	x23,x23,4
  RVTEST_TESTDATA_LOAD_INT(x23, x13) # load rs2: x13 = 0x14256aa4
    3048:	000ba683          	lw	x13,0(x23)
    304c:	004b8b93          	addi	x23,x23,4

00003050 <I_sll_cg_cmp_rs1_rs2_b13>:
I_sll_cg_cmp_rs1_rs2_b13:
  sll x8, x13, x13 # perform operation
    3050:	00d69433          	sll	x8,x13,x13
  # Check if x8 contains the expected result. x20 is the signature ptr, x5 is the link ptr, x4 is a temp reg.
  RVTEST_SIGUPD(x20, x5, x4, x8, I_sll_cg_cmp_rs1_rs2_b13, I_sll_cg_cmp_rs1_rs2_b13_str)
    3054:	000a2203          	lw	x4,0(x20)
    3058:	00820863          	beq	x4,x8,3068 <I_sll_cg_cmp_rs1_rs2_b13+0x18>
    305c:	460012ef          	jal	x5,44bc <failedtest_x5_x4>
    3060:	00003050          	.word	0x00003050
    3064:	0000d813          	.word	0x0000d813
    3068:	004a0a13          	addi	x20,x20,4

# Testcase cmp_rs1_rs2 (Test rs1 = rs2 = x14)
  RVTEST_TESTDATA_LOAD_INT(x23, x14) # load rs1: x14 = 0x6db63a9f
    306c:	000ba703          	lw	x14,0(x23)
    3070:	004b8b93          	addi	x23,x23,4
  RVTEST_TESTDATA_LOAD_INT(x23, x14) # load rs2: x14 = 0x40f50da5
    3074:	000ba703          	lw	x14,0(x23)
    3078:	004b8b93          	addi	x23,x23,4

0000307c <I_sll_cg_cmp_rs1_rs2_b14>:
I_sll_cg_cmp_rs1_rs2_b14:
  sll x16, x14, x14 # perform operation
    307c:	00e71833          	sll	x16,x14,x14
  # Check if x16 contains the expected result. x20 is the signature ptr, x5 is the link ptr, x4 is a temp reg.
  RVTEST_SIGUPD(x20, x5, x4, x16, I_sll_cg_cmp_rs1_rs2_b14, I_sll_cg_cmp_rs1_rs2_b14_str)
    3080:	000a2203          	lw	x4,0(x20)
    3084:	01020863          	beq	x4,x16,3094 <I_sll_cg_cmp_rs1_rs2_b14+0x18>
    3088:	434012ef          	jal	x5,44bc <failedtest_x5_x4>
    308c:	0000307c          	.word	0x0000307c
    3090:	0000d848          	.word	0x0000d848
    3094:	004a0a13          	addi	x20,x20,4

# Testcase cmp_rs1_rs2 (Test rs1 = rs2 = x15)
  RVTEST_TESTDATA_LOAD_INT(x23, x15) # load rs1: x15 = 0xc43b3920
    3098:	000ba783          	lw	x15,0(x23)
    309c:	004b8b93          	addi	x23,x23,4
  RVTEST_TESTDATA_LOAD_INT(x23, x15) # load rs2: x15 = 0x940f08e7
    30a0:	000ba783          	lw	x15,0(x23)
    30a4:	004b8b93          	addi	x23,x23,4

000030a8 <I_sll_cg_cmp_rs1_rs2_b15>:
I_sll_cg_cmp_rs1_rs2_b15:
  sll x30, x15, x15 # perform operation
    30a8:	00f79f33          	sll	x30,x15,x15
  # Check if x30 contains the expected result. x20 is the signature ptr, x5 is the link ptr, x4 is a temp reg.
  RVTEST_SIGUPD(x20, x5, x4, x30, I_sll_cg_cmp_rs1_rs2_b15, I_sll_cg_cmp_rs1_rs2_b15_str)
    30ac:	000a2203          	lw	x4,0(x20)
    30b0:	01e20863          	beq	x4,x30,30c0 <I_sll_cg_cmp_rs1_rs2_b15+0x18>
    30b4:	408012ef          	jal	x5,44bc <failedtest_x5_x4>
    30b8:	000030a8          	.word	0x000030a8
    30bc:	0000d87d          	.word	0x0000d87d
    30c0:	004a0a13          	addi	x20,x20,4

# Testcase cmp_rs1_rs2 (Test rs1 = rs2 = x16)
  RVTEST_TESTDATA_LOAD_INT(x23, x16) # load rs1: x16 = 0x560926bf
    30c4:	000ba803          	lw	x16,0(x23)
    30c8:	004b8b93          	addi	x23,x23,4
  RVTEST_TESTDATA_LOAD_INT(x23, x16) # load rs2: x16 = 0x772127ae
    30cc:	000ba803          	lw	x16,0(x23)
    30d0:	004b8b93          	addi	x23,x23,4

000030d4 <I_sll_cg_cmp_rs1_rs2_b16>:
I_sll_cg_cmp_rs1_rs2_b16:
  sll x13, x16, x16 # perform operation
    30d4:	010816b3          	sll	x13,x16,x16
  # Check if x13 contains the expected result. x20 is the signature ptr, x5 is the link ptr, x4 is a temp reg.
  RVTEST_SIGUPD(x20, x5, x4, x13, I_sll_cg_cmp_rs1_rs2_b16, I_sll_cg_cmp_rs1_rs2_b16_str)
    30d8:	000a2203          	lw	x4,0(x20)
    30dc:	00d20863          	beq	x4,x13,30ec <I_sll_cg_cmp_rs1_rs2_b16+0x18>
    30e0:	3dc012ef          	jal	x5,44bc <failedtest_x5_x4>
    30e4:	000030d4          	.word	0x000030d4
    30e8:	0000d8b2          	.word	0x0000d8b2
    30ec:	004a0a13          	addi	x20,x20,4

# Testcase cmp_rs1_rs2 (Test rs1 = rs2 = x17)
  RVTEST_TESTDATA_LOAD_INT(x23, x17) # load rs1: x17 = 0x73ce4bef
    30f0:	000ba883          	lw	x17,0(x23)
    30f4:	004b8b93          	addi	x23,x23,4
  RVTEST_TESTDATA_LOAD_INT(x23, x17) # load rs2: x17 = 0xa97abdf0
    30f8:	000ba883          	lw	x17,0(x23)
    30fc:	004b8b93          	addi	x23,x23,4

00003100 <I_sll_cg_cmp_rs1_rs2_b17>:
I_sll_cg_cmp_rs1_rs2_b17:
  sll x12, x17, x17 # perform operation
    3100:	01189633          	sll	x12,x17,x17
  # Check if x12 contains the expected result. x20 is the signature ptr, x5 is the link ptr, x4 is a temp reg.
  RVTEST_SIGUPD(x20, x5, x4, x12, I_sll_cg_cmp_rs1_rs2_b17, I_sll_cg_cmp_rs1_rs2_b17_str)
    3104:	000a2203          	lw	x4,0(x20)
    3108:	00c20863          	beq	x4,x12,3118 <I_sll_cg_cmp_rs1_rs2_b17+0x18>
    310c:	3b0012ef          	jal	x5,44bc <failedtest_x5_x4>
    3110:	00003100          	.word	0x00003100
    3114:	0000d8e7          	.word	0x0000d8e7
    3118:	004a0a13          	addi	x20,x20,4

# Testcase cmp_rs1_rs2 (Test rs1 = rs2 = x18)
  RVTEST_TESTDATA_LOAD_INT(x23, x18) # load rs1: x18 = 0x0c5ea62b
    311c:	000ba903          	lw	x18,0(x23)
    3120:	004b8b93          	addi	x23,x23,4
  RVTEST_TESTDATA_LOAD_INT(x23, x18) # load rs2: x18 = 0xe5df8d49
    3124:	000ba903          	lw	x18,0(x23)
    3128:	004b8b93          	addi	x23,x23,4

0000312c <I_sll_cg_cmp_rs1_rs2_b18>:
I_sll_cg_cmp_rs1_rs2_b18:
  sll x11, x18, x18 # perform operation
    312c:	012915b3          	sll	x11,x18,x18
  # Check if x11 contains the expected result. x20 is the signature ptr, x5 is the link ptr, x4 is a temp reg.
  RVTEST_SIGUPD(x20, x5, x4, x11, I_sll_cg_cmp_rs1_rs2_b18, I_sll_cg_cmp_rs1_rs2_b18_str)
    3130:	000a2203          	lw	x4,0(x20)
    3134:	00b20863          	beq	x4,x11,3144 <I_sll_cg_cmp_rs1_rs2_b18+0x18>
    3138:	384012ef          	jal	x5,44bc <failedtest_x5_x4>
    313c:	0000312c          	.word	0x0000312c
    3140:	0000d91c          	.word	0x0000d91c
    3144:	004a0a13          	addi	x20,x20,4

# Testcase cmp_rs1_rs2 (Test rs1 = rs2 = x19)
  RVTEST_TESTDATA_LOAD_INT(x23, x19) # load rs1: x19 = 0xf6216e65
    3148:	000ba983          	lw	x19,0(x23)
    314c:	004b8b93          	addi	x23,x23,4
  RVTEST_TESTDATA_LOAD_INT(x23, x19) # load rs2: x19 = 0x9f1cd497
    3150:	000ba983          	lw	x19,0(x23)
    3154:	004b8b93          	addi	x23,x23,4

00003158 <I_sll_cg_cmp_rs1_rs2_b19>:
I_sll_cg_cmp_rs1_rs2_b19:
  sll x29, x19, x19 # perform operation
    3158:	01399eb3          	sll	x29,x19,x19
  # Check if x29 contains the expected result. x20 is the signature ptr, x5 is the link ptr, x4 is a temp reg.
  RVTEST_SIGUPD(x20, x5, x4, x29, I_sll_cg_cmp_rs1_rs2_b19, I_sll_cg_cmp_rs1_rs2_b19_str)
    315c:	000a2203          	lw	x4,0(x20)
    3160:	01d20863          	beq	x4,x29,3170 <I_sll_cg_cmp_rs1_rs2_b19+0x18>
    3164:	358012ef          	jal	x5,44bc <failedtest_x5_x4>
    3168:	00003158          	.word	0x00003158
    316c:	0000d951          	.word	0x0000d951
    3170:	004a0a13          	addi	x20,x20,4

  mv x21, x20 # switch signature pointer register to avoid conflict with test
    3174:	000a0a93          	addi	x21,x20,0
# Testcase cmp_rs1_rs2 (Test rs1 = rs2 = x20)
  RVTEST_TESTDATA_LOAD_INT(x23, x20) # load rs1: x20 = 0x0c9a2a0b
    3178:	000baa03          	lw	x20,0(x23)
    317c:	004b8b93          	addi	x23,x23,4
  RVTEST_TESTDATA_LOAD_INT(x23, x20) # load rs2: x20 = 0xdbcc449b
    3180:	000baa03          	lw	x20,0(x23)
    3184:	004b8b93          	addi	x23,x23,4

00003188 <I_sll_cg_cmp_rs1_rs2_b20>:
I_sll_cg_cmp_rs1_rs2_b20:
  sll x13, x20, x20 # perform operation
    3188:	014a16b3          	sll	x13,x20,x20
  # Check if x13 contains the expected result. x21 is the signature ptr, x5 is the link ptr, x4 is a temp reg.
  RVTEST_SIGUPD(x21, x5, x4, x13, I_sll_cg_cmp_rs1_rs2_b20, I_sll_cg_cmp_rs1_rs2_b20_str)
    318c:	000aa203          	lw	x4,0(x21)
    3190:	00d20863          	beq	x4,x13,31a0 <I_sll_cg_cmp_rs1_rs2_b20+0x18>
    3194:	328012ef          	jal	x5,44bc <failedtest_x5_x4>
    3198:	00003188          	.word	0x00003188
    319c:	0000d986          	.word	0x0000d986
    31a0:	004a8a93          	addi	x21,x21,4

  mv x11, x21 # switch signature pointer register to avoid conflict with test
    31a4:	000a8593          	addi	x11,x21,0
# Testcase cmp_rs1_rs2 (Test rs1 = rs2 = x21)
  RVTEST_TESTDATA_LOAD_INT(x23, x21) # load rs1: x21 = 0x51aff45c
    31a8:	000baa83          	lw	x21,0(x23)
    31ac:	004b8b93          	addi	x23,x23,4
  RVTEST_TESTDATA_LOAD_INT(x23, x21) # load rs2: x21 = 0xfac1d3bb
    31b0:	000baa83          	lw	x21,0(x23)
    31b4:	004b8b93          	addi	x23,x23,4

000031b8 <I_sll_cg_cmp_rs1_rs2_b21>:
I_sll_cg_cmp_rs1_rs2_b21:
  sll x18, x21, x21 # perform operation
    31b8:	015a9933          	sll	x18,x21,x21
  # Check if x18 contains the expected result. x11 is the signature ptr, x5 is the link ptr, x4 is a temp reg.
  RVTEST_SIGUPD(x11, x5, x4, x18, I_sll_cg_cmp_rs1_rs2_b21, I_sll_cg_cmp_rs1_rs2_b21_str)
    31bc:	0005a203          	lw	x4,0(x11)
    31c0:	01220863          	beq	x4,x18,31d0 <I_sll_cg_cmp_rs1_rs2_b21+0x18>
    31c4:	2f8012ef          	jal	x5,44bc <failedtest_x5_x4>
    31c8:	000031b8          	.word	0x000031b8
    31cc:	0000d9bb          	.word	0x0000d9bb
    31d0:	00458593          	addi	x11,x11,4

# Testcase cmp_rs1_rs2 (Test rs1 = rs2 = x22)
  RVTEST_TESTDATA_LOAD_INT(x23, x22) # load rs1: x22 = 0x4ac2a3a6
    31d4:	000bab03          	lw	x22,0(x23)
    31d8:	004b8b93          	addi	x23,x23,4
  RVTEST_TESTDATA_LOAD_INT(x23, x22) # load rs2: x22 = 0xbf05d33c
    31dc:	000bab03          	lw	x22,0(x23)
    31e0:	004b8b93          	addi	x23,x23,4

000031e4 <I_sll_cg_cmp_rs1_rs2_b22>:
I_sll_cg_cmp_rs1_rs2_b22:
  sll x9, x22, x22 # perform operation
    31e4:	016b14b3          	sll	x9,x22,x22
  # Check if x9 contains the expected result. x11 is the signature ptr, x5 is the link ptr, x4 is a temp reg.
  RVTEST_SIGUPD(x11, x5, x4, x9, I_sll_cg_cmp_rs1_rs2_b22, I_sll_cg_cmp_rs1_rs2_b22_str)
    31e8:	0005a203          	lw	x4,0(x11)
    31ec:	00920863          	beq	x4,x9,31fc <I_sll_cg_cmp_rs1_rs2_b22+0x18>
    31f0:	2cc012ef          	jal	x5,44bc <failedtest_x5_x4>
    31f4:	000031e4          	.word	0x000031e4
    31f8:	0000d9f0          	.word	0x0000d9f0
    31fc:	00458593          	addi	x11,x11,4

  mv x28, x23 # switch data pointer register to avoid conflict with test
    3200:	000b8e13          	addi	x28,x23,0
# Testcase cmp_rs1_rs2 (Test rs1 = rs2 = x23)
  RVTEST_TESTDATA_LOAD_INT(x28, x23) # load rs1: x23 = 0x00e8c611
    3204:	000e2b83          	lw	x23,0(x28)
    3208:	004e0e13          	addi	x28,x28,4
  RVTEST_TESTDATA_LOAD_INT(x28, x23) # load rs2: x23 = 0x2ee9a422
    320c:	000e2b83          	lw	x23,0(x28)
    3210:	004e0e13          	addi	x28,x28,4

00003214 <I_sll_cg_cmp_rs1_rs2_b23>:
I_sll_cg_cmp_rs1_rs2_b23:
  sll x30, x23, x23 # perform operation
    3214:	017b9f33          	sll	x30,x23,x23
  # Check if x30 contains the expected result. x11 is the signature ptr, x5 is the link ptr, x4 is a temp reg.
  RVTEST_SIGUPD(x11, x5, x4, x30, I_sll_cg_cmp_rs1_rs2_b23, I_sll_cg_cmp_rs1_rs2_b23_str)
    3218:	0005a203          	lw	x4,0(x11)
    321c:	01e20863          	beq	x4,x30,322c <I_sll_cg_cmp_rs1_rs2_b23+0x18>
    3220:	29c012ef          	jal	x5,44bc <failedtest_x5_x4>
    3224:	00003214          	.word	0x00003214
    3228:	0000da25          	.word	0x0000da25
    322c:	00458593          	addi	x11,x11,4

# Testcase cmp_rs1_rs2 (Test rs1 = rs2 = x24)
  RVTEST_TESTDATA_LOAD_INT(x28, x24) # load rs1: x24 = 0x48f8ed8c
    3230:	000e2c03          	lw	x24,0(x28)
    3234:	004e0e13          	addi	x28,x28,4
  RVTEST_TESTDATA_LOAD_INT(x28, x24) # load rs2: x24 = 0x03e918e3
    3238:	000e2c03          	lw	x24,0(x28)
    323c:	004e0e13          	addi	x28,x28,4

00003240 <I_sll_cg_cmp_rs1_rs2_b24>:
I_sll_cg_cmp_rs1_rs2_b24:
  sll x31, x24, x24 # perform operation
    3240:	018c1fb3          	sll	x31,x24,x24
  # Check if x31 contains the expected result. x11 is the signature ptr, x5 is the link ptr, x4 is a temp reg.
  RVTEST_SIGUPD(x11, x5, x4, x31, I_sll_cg_cmp_rs1_rs2_b24, I_sll_cg_cmp_rs1_rs2_b24_str)
    3244:	0005a203          	lw	x4,0(x11)
    3248:	01f20863          	beq	x4,x31,3258 <I_sll_cg_cmp_rs1_rs2_b24+0x18>
    324c:	270012ef          	jal	x5,44bc <failedtest_x5_x4>
    3250:	00003240          	.word	0x00003240
    3254:	0000da5a          	.word	0x0000da5a
    3258:	00458593          	addi	x11,x11,4

# Testcase cmp_rs1_rs2 (Test rs1 = rs2 = x25)
  RVTEST_TESTDATA_LOAD_INT(x28, x25) # load rs1: x25 = 0x1c0d3bef
    325c:	000e2c83          	lw	x25,0(x28)
    3260:	004e0e13          	addi	x28,x28,4
  RVTEST_TESTDATA_LOAD_INT(x28, x25) # load rs2: x25 = 0xb69c7a2a
    3264:	000e2c83          	lw	x25,0(x28)
    3268:	004e0e13          	addi	x28,x28,4

0000326c <I_sll_cg_cmp_rs1_rs2_b25>:
I_sll_cg_cmp_rs1_rs2_b25:
  sll x31, x25, x25 # perform operation
    326c:	019c9fb3          	sll	x31,x25,x25
  # Check if x31 contains the expected result. x11 is the signature ptr, x5 is the link ptr, x4 is a temp reg.
  RVTEST_SIGUPD(x11, x5, x4, x31, I_sll_cg_cmp_rs1_rs2_b25, I_sll_cg_cmp_rs1_rs2_b25_str)
    3270:	0005a203          	lw	x4,0(x11)
    3274:	01f20863          	beq	x4,x31,3284 <I_sll_cg_cmp_rs1_rs2_b25+0x18>
    3278:	244012ef          	jal	x5,44bc <failedtest_x5_x4>
    327c:	0000326c          	.word	0x0000326c
    3280:	0000da8f          	.word	0x0000da8f
    3284:	00458593          	addi	x11,x11,4

# Testcase cmp_rs1_rs2 (Test rs1 = rs2 = x26)
  RVTEST_TESTDATA_LOAD_INT(x28, x26) # load rs1: x26 = 0x2cf4e2d0
    3288:	000e2d03          	lw	x26,0(x28)
    328c:	004e0e13          	addi	x28,x28,4
  RVTEST_TESTDATA_LOAD_INT(x28, x26) # load rs2: x26 = 0xde0b6ddb
    3290:	000e2d03          	lw	x26,0(x28)
    3294:	004e0e13          	addi	x28,x28,4

00003298 <I_sll_cg_cmp_rs1_rs2_b26>:
I_sll_cg_cmp_rs1_rs2_b26:
  sll x10, x26, x26 # perform operation
    3298:	01ad1533          	sll	x10,x26,x26
  # Check if x10 contains the expected result. x11 is the signature ptr, x5 is the link ptr, x4 is a temp reg.
  RVTEST_SIGUPD(x11, x5, x4, x10, I_sll_cg_cmp_rs1_rs2_b26, I_sll_cg_cmp_rs1_rs2_b26_str)
    329c:	0005a203          	lw	x4,0(x11)
    32a0:	00a20863          	beq	x4,x10,32b0 <I_sll_cg_cmp_rs1_rs2_b26+0x18>
    32a4:	218012ef          	jal	x5,44bc <failedtest_x5_x4>
    32a8:	00003298          	.word	0x00003298
    32ac:	0000dac4          	.word	0x0000dac4
    32b0:	00458593          	addi	x11,x11,4

# Testcase cmp_rs1_rs2 (Test rs1 = rs2 = x27)
  RVTEST_TESTDATA_LOAD_INT(x28, x27) # load rs1: x27 = 0x179210c1
    32b4:	000e2d83          	lw	x27,0(x28)
    32b8:	004e0e13          	addi	x28,x28,4
  RVTEST_TESTDATA_LOAD_INT(x28, x27) # load rs2: x27 = 0xd8375c21
    32bc:	000e2d83          	lw	x27,0(x28)
    32c0:	004e0e13          	addi	x28,x28,4

000032c4 <I_sll_cg_cmp_rs1_rs2_b27>:
I_sll_cg_cmp_rs1_rs2_b27:
  sll x29, x27, x27 # perform operation
    32c4:	01bd9eb3          	sll	x29,x27,x27
  # Check if x29 contains the expected result. x11 is the signature ptr, x5 is the link ptr, x4 is a temp reg.
  RVTEST_SIGUPD(x11, x5, x4, x29, I_sll_cg_cmp_rs1_rs2_b27, I_sll_cg_cmp_rs1_rs2_b27_str)
    32c8:	0005a203          	lw	x4,0(x11)
    32cc:	01d20863          	beq	x4,x29,32dc <I_sll_cg_cmp_rs1_rs2_b27+0x18>
    32d0:	1ec012ef          	jal	x5,44bc <failedtest_x5_x4>
    32d4:	000032c4          	.word	0x000032c4
    32d8:	0000daf9          	.word	0x0000daf9
    32dc:	00458593          	addi	x11,x11,4

  mv x17, x28 # switch data pointer register to avoid conflict with test
    32e0:	000e0893          	addi	x17,x28,0
# Testcase cmp_rs1_rs2 (Test rs1 = rs2 = x28)
  RVTEST_TESTDATA_LOAD_INT(x17, x28) # load rs1: x28 = 0x8484067c
    32e4:	0008ae03          	lw	x28,0(x17)
    32e8:	00488893          	addi	x17,x17,4
  RVTEST_TESTDATA_LOAD_INT(x17, x28) # load rs2: x28 = 0x9903663e
    32ec:	0008ae03          	lw	x28,0(x17)
    32f0:	00488893          	addi	x17,x17,4

000032f4 <I_sll_cg_cmp_rs1_rs2_b28>:
I_sll_cg_cmp_rs1_rs2_b28:
  sll x9, x28, x28 # perform operation
    32f4:	01ce14b3          	sll	x9,x28,x28
  # Check if x9 contains the expected result. x11 is the signature ptr, x5 is the link ptr, x4 is a temp reg.
  RVTEST_SIGUPD(x11, x5, x4, x9, I_sll_cg_cmp_rs1_rs2_b28, I_sll_cg_cmp_rs1_rs2_b28_str)
    32f8:	0005a203          	lw	x4,0(x11)
    32fc:	00920863          	beq	x4,x9,330c <I_sll_cg_cmp_rs1_rs2_b28+0x18>
    3300:	1bc012ef          	jal	x5,44bc <failedtest_x5_x4>
    3304:	000032f4          	.word	0x000032f4
    3308:	0000db2e          	.word	0x0000db2e
    330c:	00458593          	addi	x11,x11,4

# Testcase cmp_rs1_rs2 (Test rs1 = rs2 = x29)
  RVTEST_TESTDATA_LOAD_INT(x17, x29) # load rs1: x29 = 0x1a7e1d68
    3310:	0008ae83          	lw	x29,0(x17)
    3314:	00488893          	addi	x17,x17,4
  RVTEST_TESTDATA_LOAD_INT(x17, x29) # load rs2: x29 = 0x3929e9a1
    3318:	0008ae83          	lw	x29,0(x17)
    331c:	00488893          	addi	x17,x17,4

00003320 <I_sll_cg_cmp_rs1_rs2_b29>:
I_sll_cg_cmp_rs1_rs2_b29:
  sll x2, x29, x29 # perform operation
    3320:	01de9133          	sll	x2,x29,x29
  # Check if x2 contains the expected result. x11 is the signature ptr, x5 is the link ptr, x4 is a temp reg.
  RVTEST_SIGUPD(x11, x5, x4, x2, I_sll_cg_cmp_rs1_rs2_b29, I_sll_cg_cmp_rs1_rs2_b29_str)
    3324:	0005a203          	lw	x4,0(x11)
    3328:	00220863          	beq	x4,x2,3338 <I_sll_cg_cmp_rs1_rs2_b29+0x18>
    332c:	190012ef          	jal	x5,44bc <failedtest_x5_x4>
    3330:	00003320          	.word	0x00003320
    3334:	0000db63          	.word	0x0000db63
    3338:	00458593          	addi	x11,x11,4

# Testcase cmp_rs1_rs2 (Test rs1 = rs2 = x30)
  RVTEST_TESTDATA_LOAD_INT(x17, x30) # load rs1: x30 = 0x9e2768f3
    333c:	0008af03          	lw	x30,0(x17)
    3340:	00488893          	addi	x17,x17,4
  RVTEST_TESTDATA_LOAD_INT(x17, x30) # load rs2: x30 = 0xec027b0c
    3344:	0008af03          	lw	x30,0(x17)
    3348:	00488893          	addi	x17,x17,4

0000334c <I_sll_cg_cmp_rs1_rs2_b30>:
I_sll_cg_cmp_rs1_rs2_b30:
  sll x16, x30, x30 # perform operation
    334c:	01ef1833          	sll	x16,x30,x30
  # Check if x16 contains the expected result. x11 is the signature ptr, x5 is the link ptr, x4 is a temp reg.
  RVTEST_SIGUPD(x11, x5, x4, x16, I_sll_cg_cmp_rs1_rs2_b30, I_sll_cg_cmp_rs1_rs2_b30_str)
    3350:	0005a203          	lw	x4,0(x11)
    3354:	01020863          	beq	x4,x16,3364 <I_sll_cg_cmp_rs1_rs2_b30+0x18>
    3358:	164012ef          	jal	x5,44bc <failedtest_x5_x4>
    335c:	0000334c          	.word	0x0000334c
    3360:	0000db98          	.word	0x0000db98
    3364:	00458593          	addi	x11,x11,4

# Testcase cmp_rs1_rs2 (Test rs1 = rs2 = x31)
  RVTEST_TESTDATA_LOAD_INT(x17, x31) # load rs1: x31 = 0x5b9b851b
    3368:	0008af83          	lw	x31,0(x17)
    336c:	00488893          	addi	x17,x17,4
  RVTEST_TESTDATA_LOAD_INT(x17, x31) # load rs2: x31 = 0xb83bea78
    3370:	0008af83          	lw	x31,0(x17)
    3374:	00488893          	addi	x17,x17,4

00003378 <I_sll_cg_cmp_rs1_rs2_b31>:
I_sll_cg_cmp_rs1_rs2_b31:
  sll x20, x31, x31 # perform operation
    3378:	01ff9a33          	sll	x20,x31,x31
  # Check if x20 contains the expected result. x11 is the signature ptr, x5 is the link ptr, x4 is a temp reg.
  RVTEST_SIGUPD(x11, x5, x4, x20, I_sll_cg_cmp_rs1_rs2_b31, I_sll_cg_cmp_rs1_rs2_b31_str)
    337c:	0005a203          	lw	x4,0(x11)
    3380:	01420863          	beq	x4,x20,3390 <I_sll_cg_cmp_rs1_rs2_b31+0x18>
    3384:	138012ef          	jal	x5,44bc <failedtest_x5_x4>
    3388:	00003378          	.word	0x00003378
    338c:	0000dbcd          	.word	0x0000dbcd
    3390:	00458593          	addi	x11,x11,4
/////////////////////////////////
// cmp_rd_rs1
/////////////////////////////////

# Testcase cmp_rd_rs1 (Test rd = rs1 = x0)
  RVTEST_TESTDATA_LOAD_INT(x17, x0) # load rs1: x0 = 0xcb766e94
    3394:	0008a003          	lw	x0,0(x17)
    3398:	00488893          	addi	x17,x17,4
  RVTEST_TESTDATA_LOAD_INT(x17, x30) # load rs2: x30 = 0x80c4140e
    339c:	0008af03          	lw	x30,0(x17)
    33a0:	00488893          	addi	x17,x17,4

000033a4 <I_sll_cg_cmp_rd_rs1_b0>:
I_sll_cg_cmp_rd_rs1_b0:
  sll x0, x0, x30 # perform operation
    33a4:	01e01033          	sll	x0,x0,x30
  # Check if x0 contains the expected result. x11 is the signature ptr, x5 is the link ptr, x4 is a temp reg.
  RVTEST_SIGUPD(x11, x5, x4, x0, I_sll_cg_cmp_rd_rs1_b0, I_sll_cg_cmp_rd_rs1_b0_str)
    33a8:	0005a203          	lw	x4,0(x11)
    33ac:	00020863          	beq	x4,x0,33bc <I_sll_cg_cmp_rd_rs1_b0+0x18>
    33b0:	10c012ef          	jal	x5,44bc <failedtest_x5_x4>
    33b4:	000033a4          	.word	0x000033a4
    33b8:	0000dc02          	.word	0x0000dc02
    33bc:	00458593          	addi	x11,x11,4

# Testcase cmp_rd_rs1 (Test rd = rs1 = x1)
  RVTEST_TESTDATA_LOAD_INT(x17, x1) # load rs1: x1 = 0xf19ac73a
    33c0:	0008a083          	lw	x1,0(x17)
    33c4:	00488893          	addi	x17,x17,4
  RVTEST_TESTDATA_LOAD_INT(x17, x24) # load rs2: x24 = 0xe3e2bfc6
    33c8:	0008ac03          	lw	x24,0(x17)
    33cc:	00488893          	addi	x17,x17,4

000033d0 <I_sll_cg_cmp_rd_rs1_b1>:
I_sll_cg_cmp_rd_rs1_b1:
  sll x1, x1, x24 # perform operation
    33d0:	018090b3          	sll	x1,x1,x24
  # Check if x1 contains the expected result. x11 is the signature ptr, x5 is the link ptr, x4 is a temp reg.
  RVTEST_SIGUPD(x11, x5, x4, x1, I_sll_cg_cmp_rd_rs1_b1, I_sll_cg_cmp_rd_rs1_b1_str)
    33d4:	0005a203          	lw	x4,0(x11)
    33d8:	00120863          	beq	x4,x1,33e8 <I_sll_cg_cmp_rd_rs1_b1+0x18>
    33dc:	0e0012ef          	jal	x5,44bc <failedtest_x5_x4>
    33e0:	000033d0          	.word	0x000033d0
    33e4:	0000dc35          	.word	0x0000dc35
    33e8:	00458593          	addi	x11,x11,4

# Testcase cmp_rd_rs1 (Test rd = rs1 = x2)
  RVTEST_TESTDATA_LOAD_INT(x17, x2) # load rs1: x2 = 0x58c7b7e2
    33ec:	0008a103          	lw	x2,0(x17)
    33f0:	00488893          	addi	x17,x17,4
  RVTEST_TESTDATA_LOAD_INT(x17, x21) # load rs2: x21 = 0xea139e3a
    33f4:	0008aa83          	lw	x21,0(x17)
    33f8:	00488893          	addi	x17,x17,4

000033fc <I_sll_cg_cmp_rd_rs1_b2>:
I_sll_cg_cmp_rd_rs1_b2:
  sll x2, x2, x21 # perform operation
    33fc:	01511133          	sll	x2,x2,x21
  # Check if x2 contains the expected result. x11 is the signature ptr, x5 is the link ptr, x4 is a temp reg.
  RVTEST_SIGUPD(x11, x5, x4, x2, I_sll_cg_cmp_rd_rs1_b2, I_sll_cg_cmp_rd_rs1_b2_str)
    3400:	0005a203          	lw	x4,0(x11)
    3404:	00220863          	beq	x4,x2,3414 <I_sll_cg_cmp_rd_rs1_b2+0x18>
    3408:	0b4012ef          	jal	x5,44bc <failedtest_x5_x4>
    340c:	000033fc          	.word	0x000033fc
    3410:	0000dc68          	.word	0x0000dc68
    3414:	00458593          	addi	x11,x11,4

# Testcase cmp_rd_rs1 (Test rd = rs1 = x3)
  RVTEST_TESTDATA_LOAD_INT(x17, x3) # load rs1: x3 = 0xdc6a5726
    3418:	0008a183          	lw	x3,0(x17)
    341c:	00488893          	addi	x17,x17,4
  RVTEST_TESTDATA_LOAD_INT(x17, x10) # load rs2: x10 = 0xc801f5ec
    3420:	0008a503          	lw	x10,0(x17)
    3424:	00488893          	addi	x17,x17,4

00003428 <I_sll_cg_cmp_rd_rs1_b3>:
I_sll_cg_cmp_rd_rs1_b3:
  sll x3, x3, x10 # perform operation
    3428:	00a191b3          	sll	x3,x3,x10
  # Check if x3 contains the expected result. x11 is the signature ptr, x5 is the link ptr, x4 is a temp reg.
  RVTEST_SIGUPD(x11, x5, x4, x3, I_sll_cg_cmp_rd_rs1_b3, I_sll_cg_cmp_rd_rs1_b3_str)
    342c:	0005a203          	lw	x4,0(x11)
    3430:	00320863          	beq	x4,x3,3440 <I_sll_cg_cmp_rd_rs1_b3+0x18>
    3434:	088012ef          	jal	x5,44bc <failedtest_x5_x4>
    3438:	00003428          	.word	0x00003428
    343c:	0000dc9b          	.word	0x0000dc9b
    3440:	00458593          	addi	x11,x11,4

  mv x7, x4 # switch temp register to avoid conflict with test
    3444:	00020393          	addi	x7,x4,0 # 0 <rvtest_entry_point>
  mv x8, x5 # switch link pointer register to avoid conflict with test
    3448:	00028413          	addi	x8,x5,0
# Testcase cmp_rd_rs1 (Test rd = rs1 = x4)
  RVTEST_TESTDATA_LOAD_INT(x17, x4) # load rs1: x4 = 0xfa2f0e41
    344c:	0008a203          	lw	x4,0(x17)
    3450:	00488893          	addi	x17,x17,4
  RVTEST_TESTDATA_LOAD_INT(x17, x6) # load rs2: x6 = 0x18b606d1
    3454:	0008a303          	lw	x6,0(x17)
    3458:	00488893          	addi	x17,x17,4

0000345c <I_sll_cg_cmp_rd_rs1_b4>:
I_sll_cg_cmp_rd_rs1_b4:
  sll x4, x4, x6 # perform operation
    345c:	00621233          	sll	x4,x4,x6
  # Check if x4 contains the expected result. x11 is the signature ptr, x8 is the link ptr, x7 is a temp reg.
  RVTEST_SIGUPD(x11, x8, x7, x4, I_sll_cg_cmp_rd_rs1_b4, I_sll_cg_cmp_rd_rs1_b4_str)
    3460:	0005a383          	lw	x7,0(x11)
    3464:	00438863          	beq	x7,x4,3474 <I_sll_cg_cmp_rd_rs1_b4+0x18>
    3468:	06c0146f          	jal	x8,44d4 <failedtest_x8_x7>
    346c:	0000345c          	.word	0x0000345c
    3470:	0000dcce          	.word	0x0000dcce
    3474:	00458593          	addi	x11,x11,4

# Testcase cmp_rd_rs1 (Test rd = rs1 = x5)
  RVTEST_TESTDATA_LOAD_INT(x17, x5) # load rs1: x5 = 0x824547f9
    3478:	0008a283          	lw	x5,0(x17)
    347c:	00488893          	addi	x17,x17,4
  RVTEST_TESTDATA_LOAD_INT(x17, x30) # load rs2: x30 = 0x4be33748
    3480:	0008af03          	lw	x30,0(x17)
    3484:	00488893          	addi	x17,x17,4

00003488 <I_sll_cg_cmp_rd_rs1_b5>:
I_sll_cg_cmp_rd_rs1_b5:
  sll x5, x5, x30 # perform operation
    3488:	01e292b3          	sll	x5,x5,x30
  # Check if x5 contains the expected result. x11 is the signature ptr, x8 is the link ptr, x7 is a temp reg.
  RVTEST_SIGUPD(x11, x8, x7, x5, I_sll_cg_cmp_rd_rs1_b5, I_sll_cg_cmp_rd_rs1_b5_str)
    348c:	0005a383          	lw	x7,0(x11)
    3490:	00538863          	beq	x7,x5,34a0 <I_sll_cg_cmp_rd_rs1_b5+0x18>
    3494:	0400146f          	jal	x8,44d4 <failedtest_x8_x7>
    3498:	00003488          	.word	0x00003488
    349c:	0000dd01          	.word	0x0000dd01
    34a0:	00458593          	addi	x11,x11,4

# Testcase cmp_rd_rs1 (Test rd = rs1 = x6)
  RVTEST_TESTDATA_LOAD_INT(x17, x6) # load rs1: x6 = 0xf3ccbe1c
    34a4:	0008a303          	lw	x6,0(x17)
    34a8:	00488893          	addi	x17,x17,4
  RVTEST_TESTDATA_LOAD_INT(x17, x29) # load rs2: x29 = 0x0da3ed36
    34ac:	0008ae83          	lw	x29,0(x17)
    34b0:	00488893          	addi	x17,x17,4

000034b4 <I_sll_cg_cmp_rd_rs1_b6>:
I_sll_cg_cmp_rd_rs1_b6:
  sll x6, x6, x29 # perform operation
    34b4:	01d31333          	sll	x6,x6,x29
  # Check if x6 contains the expected result. x11 is the signature ptr, x8 is the link ptr, x7 is a temp reg.
  RVTEST_SIGUPD(x11, x8, x7, x6, I_sll_cg_cmp_rd_rs1_b6, I_sll_cg_cmp_rd_rs1_b6_str)
    34b8:	0005a383          	lw	x7,0(x11)
    34bc:	00638863          	beq	x7,x6,34cc <I_sll_cg_cmp_rd_rs1_b6+0x18>
    34c0:	0140146f          	jal	x8,44d4 <failedtest_x8_x7>
    34c4:	000034b4          	.word	0x000034b4
    34c8:	0000dd34          	.word	0x0000dd34
    34cc:	00458593          	addi	x11,x11,4

  mv x4, x7 # switch temp register to avoid conflict with test
    34d0:	00038213          	addi	x4,x7,0
  mv x5, x8 # switch link pointer register to avoid conflict with test
    34d4:	00040293          	addi	x5,x8,0
# Testcase cmp_rd_rs1 (Test rd = rs1 = x7)
  RVTEST_TESTDATA_LOAD_INT(x17, x7) # load rs1: x7 = 0xd36b6ecc
    34d8:	0008a383          	lw	x7,0(x17)
    34dc:	00488893          	addi	x17,x17,4
  RVTEST_TESTDATA_LOAD_INT(x17, x3) # load rs2: x3 = 0x226f917f
    34e0:	0008a183          	lw	x3,0(x17)
    34e4:	00488893          	addi	x17,x17,4

000034e8 <I_sll_cg_cmp_rd_rs1_b7>:
I_sll_cg_cmp_rd_rs1_b7:
  sll x7, x7, x3 # perform operation
    34e8:	003393b3          	sll	x7,x7,x3
  # Check if x7 contains the expected result. x11 is the signature ptr, x5 is the link ptr, x4 is a temp reg.
  RVTEST_SIGUPD(x11, x5, x4, x7, I_sll_cg_cmp_rd_rs1_b7, I_sll_cg_cmp_rd_rs1_b7_str)
    34ec:	0005a203          	lw	x4,0(x11)
    34f0:	00720863          	beq	x4,x7,3500 <I_sll_cg_cmp_rd_rs1_b7+0x18>
    34f4:	7c9002ef          	jal	x5,44bc <failedtest_x5_x4>
    34f8:	000034e8          	.word	0x000034e8
    34fc:	0000dd67          	.word	0x0000dd67
    3500:	00458593          	addi	x11,x11,4

# Testcase cmp_rd_rs1 (Test rd = rs1 = x8)
  RVTEST_TESTDATA_LOAD_INT(x17, x8) # load rs1: x8 = 0x9866b05d
    3504:	0008a403          	lw	x8,0(x17)
    3508:	00488893          	addi	x17,x17,4
  RVTEST_TESTDATA_LOAD_INT(x17, x27) # load rs2: x27 = 0x42f6de45
    350c:	0008ad83          	lw	x27,0(x17)
    3510:	00488893          	addi	x17,x17,4

00003514 <I_sll_cg_cmp_rd_rs1_b8>:
I_sll_cg_cmp_rd_rs1_b8:
  sll x8, x8, x27 # perform operation
    3514:	01b41433          	sll	x8,x8,x27
  # Check if x8 contains the expected result. x11 is the signature ptr, x5 is the link ptr, x4 is a temp reg.
  RVTEST_SIGUPD(x11, x5, x4, x8, I_sll_cg_cmp_rd_rs1_b8, I_sll_cg_cmp_rd_rs1_b8_str)
    3518:	0005a203          	lw	x4,0(x11)
    351c:	00820863          	beq	x4,x8,352c <I_sll_cg_cmp_rd_rs1_b8+0x18>
    3520:	79d002ef          	jal	x5,44bc <failedtest_x5_x4>
    3524:	00003514          	.word	0x00003514
    3528:	0000dd9a          	.word	0x0000dd9a
    352c:	00458593          	addi	x11,x11,4

# Testcase cmp_rd_rs1 (Test rd = rs1 = x9)
  RVTEST_TESTDATA_LOAD_INT(x17, x9) # load rs1: x9 = 0xcc40a454
    3530:	0008a483          	lw	x9,0(x17)
    3534:	00488893          	addi	x17,x17,4
  RVTEST_TESTDATA_LOAD_INT(x17, x22) # load rs2: x22 = 0xb7a960a9
    3538:	0008ab03          	lw	x22,0(x17)
    353c:	00488893          	addi	x17,x17,4

00003540 <I_sll_cg_cmp_rd_rs1_b9>:
I_sll_cg_cmp_rd_rs1_b9:
  sll x9, x9, x22 # perform operation
    3540:	016494b3          	sll	x9,x9,x22
  # Check if x9 contains the expected result. x11 is the signature ptr, x5 is the link ptr, x4 is a temp reg.
  RVTEST_SIGUPD(x11, x5, x4, x9, I_sll_cg_cmp_rd_rs1_b9, I_sll_cg_cmp_rd_rs1_b9_str)
    3544:	0005a203          	lw	x4,0(x11)
    3548:	00920863          	beq	x4,x9,3558 <I_sll_cg_cmp_rd_rs1_b9+0x18>
    354c:	771002ef          	jal	x5,44bc <failedtest_x5_x4>
    3550:	00003540          	.word	0x00003540
    3554:	0000ddcd          	.word	0x0000ddcd
    3558:	00458593          	addi	x11,x11,4

# Testcase cmp_rd_rs1 (Test rd = rs1 = x10)
  RVTEST_TESTDATA_LOAD_INT(x17, x10) # load rs1: x10 = 0x6eccb36c
    355c:	0008a503          	lw	x10,0(x17)
    3560:	00488893          	addi	x17,x17,4
  RVTEST_TESTDATA_LOAD_INT(x17, x31) # load rs2: x31 = 0xd4fc0e90
    3564:	0008af83          	lw	x31,0(x17)
    3568:	00488893          	addi	x17,x17,4

0000356c <I_sll_cg_cmp_rd_rs1_b10>:
I_sll_cg_cmp_rd_rs1_b10:
  sll x10, x10, x31 # perform operation
    356c:	01f51533          	sll	x10,x10,x31
  # Check if x10 contains the expected result. x11 is the signature ptr, x5 is the link ptr, x4 is a temp reg.
  RVTEST_SIGUPD(x11, x5, x4, x10, I_sll_cg_cmp_rd_rs1_b10, I_sll_cg_cmp_rd_rs1_b10_str)
    3570:	0005a203          	lw	x4,0(x11)
    3574:	00a20863          	beq	x4,x10,3584 <I_sll_cg_cmp_rd_rs1_b10+0x18>
    3578:	745002ef          	jal	x5,44bc <failedtest_x5_x4>
    357c:	0000356c          	.word	0x0000356c
    3580:	0000de00          	.word	0x0000de00
    3584:	00458593          	addi	x11,x11,4

  mv x30, x11 # switch signature pointer register to avoid conflict with test
    3588:	00058f13          	addi	x30,x11,0
# Testcase cmp_rd_rs1 (Test rd = rs1 = x11)
  RVTEST_TESTDATA_LOAD_INT(x17, x11) # load rs1: x11 = 0x90255337
    358c:	0008a583          	lw	x11,0(x17)
    3590:	00488893          	addi	x17,x17,4
  RVTEST_TESTDATA_LOAD_INT(x17, x19) # load rs2: x19 = 0x33485412
    3594:	0008a983          	lw	x19,0(x17)
    3598:	00488893          	addi	x17,x17,4

0000359c <I_sll_cg_cmp_rd_rs1_b11>:
I_sll_cg_cmp_rd_rs1_b11:
  sll x11, x11, x19 # perform operation
    359c:	013595b3          	sll	x11,x11,x19
  # Check if x11 contains the expected result. x30 is the signature ptr, x5 is the link ptr, x4 is a temp reg.
  RVTEST_SIGUPD(x30, x5, x4, x11, I_sll_cg_cmp_rd_rs1_b11, I_sll_cg_cmp_rd_rs1_b11_str)
    35a0:	000f2203          	lw	x4,0(x30)
    35a4:	00b20863          	beq	x4,x11,35b4 <I_sll_cg_cmp_rd_rs1_b11+0x18>
    35a8:	715002ef          	jal	x5,44bc <failedtest_x5_x4>
    35ac:	0000359c          	.word	0x0000359c
    35b0:	0000de34          	.word	0x0000de34
    35b4:	004f0f13          	addi	x30,x30,4

# Testcase cmp_rd_rs1 (Test rd = rs1 = x12)
  RVTEST_TESTDATA_LOAD_INT(x17, x12) # load rs1: x12 = 0xf89699d8
    35b8:	0008a603          	lw	x12,0(x17)
    35bc:	00488893          	addi	x17,x17,4
  RVTEST_TESTDATA_LOAD_INT(x17, x29) # load rs2: x29 = 0xdae2e00c
    35c0:	0008ae83          	lw	x29,0(x17)
    35c4:	00488893          	addi	x17,x17,4

000035c8 <I_sll_cg_cmp_rd_rs1_b12>:
I_sll_cg_cmp_rd_rs1_b12:
  sll x12, x12, x29 # perform operation
    35c8:	01d61633          	sll	x12,x12,x29
  # Check if x12 contains the expected result. x30 is the signature ptr, x5 is the link ptr, x4 is a temp reg.
  RVTEST_SIGUPD(x30, x5, x4, x12, I_sll_cg_cmp_rd_rs1_b12, I_sll_cg_cmp_rd_rs1_b12_str)
    35cc:	000f2203          	lw	x4,0(x30)
    35d0:	00c20863          	beq	x4,x12,35e0 <I_sll_cg_cmp_rd_rs1_b12+0x18>
    35d4:	6e9002ef          	jal	x5,44bc <failedtest_x5_x4>
    35d8:	000035c8          	.word	0x000035c8
    35dc:	0000de68          	.word	0x0000de68
    35e0:	004f0f13          	addi	x30,x30,4

# Testcase cmp_rd_rs1 (Test rd = rs1 = x13)
  RVTEST_TESTDATA_LOAD_INT(x17, x13) # load rs1: x13 = 0x920ff3c0
    35e4:	0008a683          	lw	x13,0(x17)
    35e8:	00488893          	addi	x17,x17,4
  RVTEST_TESTDATA_LOAD_INT(x17, x9) # load rs2: x9 = 0x97d423cc
    35ec:	0008a483          	lw	x9,0(x17)
    35f0:	00488893          	addi	x17,x17,4

000035f4 <I_sll_cg_cmp_rd_rs1_b13>:
I_sll_cg_cmp_rd_rs1_b13:
  sll x13, x13, x9 # perform operation
    35f4:	009696b3          	sll	x13,x13,x9
  # Check if x13 contains the expected result. x30 is the signature ptr, x5 is the link ptr, x4 is a temp reg.
  RVTEST_SIGUPD(x30, x5, x4, x13, I_sll_cg_cmp_rd_rs1_b13, I_sll_cg_cmp_rd_rs1_b13_str)
    35f8:	000f2203          	lw	x4,0(x30)
    35fc:	00d20863          	beq	x4,x13,360c <I_sll_cg_cmp_rd_rs1_b13+0x18>
    3600:	6bd002ef          	jal	x5,44bc <failedtest_x5_x4>
    3604:	000035f4          	.word	0x000035f4
    3608:	0000de9c          	.word	0x0000de9c
    360c:	004f0f13          	addi	x30,x30,4

# Testcase cmp_rd_rs1 (Test rd = rs1 = x14)
  RVTEST_TESTDATA_LOAD_INT(x17, x14) # load rs1: x14 = 0x5f148773
    3610:	0008a703          	lw	x14,0(x17)
    3614:	00488893          	addi	x17,x17,4
  RVTEST_TESTDATA_LOAD_INT(x17, x29) # load rs2: x29 = 0xe8c57652
    3618:	0008ae83          	lw	x29,0(x17)
    361c:	00488893          	addi	x17,x17,4

00003620 <I_sll_cg_cmp_rd_rs1_b14>:
I_sll_cg_cmp_rd_rs1_b14:
  sll x14, x14, x29 # perform operation
    3620:	01d71733          	sll	x14,x14,x29
  # Check if x14 contains the expected result. x30 is the signature ptr, x5 is the link ptr, x4 is a temp reg.
  RVTEST_SIGUPD(x30, x5, x4, x14, I_sll_cg_cmp_rd_rs1_b14, I_sll_cg_cmp_rd_rs1_b14_str)
    3624:	000f2203          	lw	x4,0(x30)
    3628:	00e20863          	beq	x4,x14,3638 <I_sll_cg_cmp_rd_rs1_b14+0x18>
    362c:	691002ef          	jal	x5,44bc <failedtest_x5_x4>
    3630:	00003620          	.word	0x00003620
    3634:	0000ded0          	.word	0x0000ded0
    3638:	004f0f13          	addi	x30,x30,4

# Testcase cmp_rd_rs1 (Test rd = rs1 = x15)
  RVTEST_TESTDATA_LOAD_INT(x17, x15) # load rs1: x15 = 0xe302249a
    363c:	0008a783          	lw	x15,0(x17)
    3640:	00488893          	addi	x17,x17,4
  RVTEST_TESTDATA_LOAD_INT(x17, x25) # load rs2: x25 = 0xb1b3dd69
    3644:	0008ac83          	lw	x25,0(x17)
    3648:	00488893          	addi	x17,x17,4

0000364c <I_sll_cg_cmp_rd_rs1_b15>:
I_sll_cg_cmp_rd_rs1_b15:
  sll x15, x15, x25 # perform operation
    364c:	019797b3          	sll	x15,x15,x25
  # Check if x15 contains the expected result. x30 is the signature ptr, x5 is the link ptr, x4 is a temp reg.
  RVTEST_SIGUPD(x30, x5, x4, x15, I_sll_cg_cmp_rd_rs1_b15, I_sll_cg_cmp_rd_rs1_b15_str)
    3650:	000f2203          	lw	x4,0(x30)
    3654:	00f20863          	beq	x4,x15,3664 <I_sll_cg_cmp_rd_rs1_b15+0x18>
    3658:	665002ef          	jal	x5,44bc <failedtest_x5_x4>
    365c:	0000364c          	.word	0x0000364c
    3660:	0000df04          	.word	0x0000df04
    3664:	004f0f13          	addi	x30,x30,4

# Testcase cmp_rd_rs1 (Test rd = rs1 = x16)
  RVTEST_TESTDATA_LOAD_INT(x17, x16) # load rs1: x16 = 0x52eda563
    3668:	0008a803          	lw	x16,0(x17)
    366c:	00488893          	addi	x17,x17,4
  RVTEST_TESTDATA_LOAD_INT(x17, x6) # load rs2: x6 = 0xf524d345
    3670:	0008a303          	lw	x6,0(x17)
    3674:	00488893          	addi	x17,x17,4

00003678 <I_sll_cg_cmp_rd_rs1_b16>:
I_sll_cg_cmp_rd_rs1_b16:
  sll x16, x16, x6 # perform operation
    3678:	00681833          	sll	x16,x16,x6
  # Check if x16 contains the expected result. x30 is the signature ptr, x5 is the link ptr, x4 is a temp reg.
  RVTEST_SIGUPD(x30, x5, x4, x16, I_sll_cg_cmp_rd_rs1_b16, I_sll_cg_cmp_rd_rs1_b16_str)
    367c:	000f2203          	lw	x4,0(x30)
    3680:	01020863          	beq	x4,x16,3690 <I_sll_cg_cmp_rd_rs1_b16+0x18>
    3684:	639002ef          	jal	x5,44bc <failedtest_x5_x4>
    3688:	00003678          	.word	0x00003678
    368c:	0000df38          	.word	0x0000df38
    3690:	004f0f13          	addi	x30,x30,4

  mv x6, x17 # switch data pointer register to avoid conflict with test
    3694:	00088313          	addi	x6,x17,0
# Testcase cmp_rd_rs1 (Test rd = rs1 = x17)
  RVTEST_TESTDATA_LOAD_INT(x6, x17) # load rs1: x17 = 0x9cd37222
    3698:	00032883          	lw	x17,0(x6)
    369c:	00430313          	addi	x6,x6,4
  RVTEST_TESTDATA_LOAD_INT(x6, x20) # load rs2: x20 = 0x00c51e0f
    36a0:	00032a03          	lw	x20,0(x6)
    36a4:	00430313          	addi	x6,x6,4

000036a8 <I_sll_cg_cmp_rd_rs1_b17>:
I_sll_cg_cmp_rd_rs1_b17:
  sll x17, x17, x20 # perform operation
    36a8:	014898b3          	sll	x17,x17,x20
  # Check if x17 contains the expected result. x30 is the signature ptr, x5 is the link ptr, x4 is a temp reg.
  RVTEST_SIGUPD(x30, x5, x4, x17, I_sll_cg_cmp_rd_rs1_b17, I_sll_cg_cmp_rd_rs1_b17_str)
    36ac:	000f2203          	lw	x4,0(x30)
    36b0:	01120863          	beq	x4,x17,36c0 <I_sll_cg_cmp_rd_rs1_b17+0x18>
    36b4:	609002ef          	jal	x5,44bc <failedtest_x5_x4>
    36b8:	000036a8          	.word	0x000036a8
    36bc:	0000df6c          	.word	0x0000df6c
    36c0:	004f0f13          	addi	x30,x30,4

# Testcase cmp_rd_rs1 (Test rd = rs1 = x18)
  RVTEST_TESTDATA_LOAD_INT(x6, x18) # load rs1: x18 = 0xb5d1a7f5
    36c4:	00032903          	lw	x18,0(x6)
    36c8:	00430313          	addi	x6,x6,4
  RVTEST_TESTDATA_LOAD_INT(x6, x26) # load rs2: x26 = 0x82b0329e
    36cc:	00032d03          	lw	x26,0(x6)
    36d0:	00430313          	addi	x6,x6,4

000036d4 <I_sll_cg_cmp_rd_rs1_b18>:
I_sll_cg_cmp_rd_rs1_b18:
  sll x18, x18, x26 # perform operation
    36d4:	01a91933          	sll	x18,x18,x26
  # Check if x18 contains the expected result. x30 is the signature ptr, x5 is the link ptr, x4 is a temp reg.
  RVTEST_SIGUPD(x30, x5, x4, x18, I_sll_cg_cmp_rd_rs1_b18, I_sll_cg_cmp_rd_rs1_b18_str)
    36d8:	000f2203          	lw	x4,0(x30)
    36dc:	01220863          	beq	x4,x18,36ec <I_sll_cg_cmp_rd_rs1_b18+0x18>
    36e0:	5dd002ef          	jal	x5,44bc <failedtest_x5_x4>
    36e4:	000036d4          	.word	0x000036d4
    36e8:	0000dfa0          	.word	0x0000dfa0
    36ec:	004f0f13          	addi	x30,x30,4

# Testcase cmp_rd_rs1 (Test rd = rs1 = x19)
  RVTEST_TESTDATA_LOAD_INT(x6, x19) # load rs1: x19 = 0x94ba3f92
    36f0:	00032983          	lw	x19,0(x6)
    36f4:	00430313          	addi	x6,x6,4
  RVTEST_TESTDATA_LOAD_INT(x6, x1) # load rs2: x1 = 0x6561edd2
    36f8:	00032083          	lw	x1,0(x6)
    36fc:	00430313          	addi	x6,x6,4

00003700 <I_sll_cg_cmp_rd_rs1_b19>:
I_sll_cg_cmp_rd_rs1_b19:
  sll x19, x19, x1 # perform operation
    3700:	001999b3          	sll	x19,x19,x1
  # Check if x19 contains the expected result. x30 is the signature ptr, x5 is the link ptr, x4 is a temp reg.
  RVTEST_SIGUPD(x30, x5, x4, x19, I_sll_cg_cmp_rd_rs1_b19, I_sll_cg_cmp_rd_rs1_b19_str)
    3704:	000f2203          	lw	x4,0(x30)
    3708:	01320863          	beq	x4,x19,3718 <I_sll_cg_cmp_rd_rs1_b19+0x18>
    370c:	5b1002ef          	jal	x5,44bc <failedtest_x5_x4>
    3710:	00003700          	.word	0x00003700
    3714:	0000dfd4          	.word	0x0000dfd4
    3718:	004f0f13          	addi	x30,x30,4

# Testcase cmp_rd_rs1 (Test rd = rs1 = x20)
  RVTEST_TESTDATA_LOAD_INT(x6, x20) # load rs1: x20 = 0x31f035b6
    371c:	00032a03          	lw	x20,0(x6)
    3720:	00430313          	addi	x6,x6,4
  RVTEST_TESTDATA_LOAD_INT(x6, x28) # load rs2: x28 = 0x3ba4d0a1
    3724:	00032e03          	lw	x28,0(x6)
    3728:	00430313          	addi	x6,x6,4

0000372c <I_sll_cg_cmp_rd_rs1_b20>:
I_sll_cg_cmp_rd_rs1_b20:
  sll x20, x20, x28 # perform operation
    372c:	01ca1a33          	sll	x20,x20,x28
  # Check if x20 contains the expected result. x30 is the signature ptr, x5 is the link ptr, x4 is a temp reg.
  RVTEST_SIGUPD(x30, x5, x4, x20, I_sll_cg_cmp_rd_rs1_b20, I_sll_cg_cmp_rd_rs1_b20_str)
    3730:	000f2203          	lw	x4,0(x30)
    3734:	01420863          	beq	x4,x20,3744 <I_sll_cg_cmp_rd_rs1_b20+0x18>
    3738:	585002ef          	jal	x5,44bc <failedtest_x5_x4>
    373c:	0000372c          	.word	0x0000372c
    3740:	0000e008          	.word	0x0000e008
    3744:	004f0f13          	addi	x30,x30,4

# Testcase cmp_rd_rs1 (Test rd = rs1 = x21)
  RVTEST_TESTDATA_LOAD_INT(x6, x21) # load rs1: x21 = 0x2888e74b
    3748:	00032a83          	lw	x21,0(x6)
    374c:	00430313          	addi	x6,x6,4
  RVTEST_TESTDATA_LOAD_INT(x6, x9) # load rs2: x9 = 0xcdefaeee
    3750:	00032483          	lw	x9,0(x6)
    3754:	00430313          	addi	x6,x6,4

00003758 <I_sll_cg_cmp_rd_rs1_b21>:
I_sll_cg_cmp_rd_rs1_b21:
  sll x21, x21, x9 # perform operation
    3758:	009a9ab3          	sll	x21,x21,x9
  # Check if x21 contains the expected result. x30 is the signature ptr, x5 is the link ptr, x4 is a temp reg.
  RVTEST_SIGUPD(x30, x5, x4, x21, I_sll_cg_cmp_rd_rs1_b21, I_sll_cg_cmp_rd_rs1_b21_str)
    375c:	000f2203          	lw	x4,0(x30)
    3760:	01520863          	beq	x4,x21,3770 <I_sll_cg_cmp_rd_rs1_b21+0x18>
    3764:	559002ef          	jal	x5,44bc <failedtest_x5_x4>
    3768:	00003758          	.word	0x00003758
    376c:	0000e03c          	.word	0x0000e03c
    3770:	004f0f13          	addi	x30,x30,4

# Testcase cmp_rd_rs1 (Test rd = rs1 = x22)
  RVTEST_TESTDATA_LOAD_INT(x6, x22) # load rs1: x22 = 0x71e1e7a9
    3774:	00032b03          	lw	x22,0(x6)
    3778:	00430313          	addi	x6,x6,4
  RVTEST_TESTDATA_LOAD_INT(x6, x29) # load rs2: x29 = 0x91a32caa
    377c:	00032e83          	lw	x29,0(x6)
    3780:	00430313          	addi	x6,x6,4

00003784 <I_sll_cg_cmp_rd_rs1_b22>:
I_sll_cg_cmp_rd_rs1_b22:
  sll x22, x22, x29 # perform operation
    3784:	01db1b33          	sll	x22,x22,x29
  # Check if x22 contains the expected result. x30 is the signature ptr, x5 is the link ptr, x4 is a temp reg.
  RVTEST_SIGUPD(x30, x5, x4, x22, I_sll_cg_cmp_rd_rs1_b22, I_sll_cg_cmp_rd_rs1_b22_str)
    3788:	000f2203          	lw	x4,0(x30)
    378c:	01620863          	beq	x4,x22,379c <I_sll_cg_cmp_rd_rs1_b22+0x18>
    3790:	52d002ef          	jal	x5,44bc <failedtest_x5_x4>
    3794:	00003784          	.word	0x00003784
    3798:	0000e070          	.word	0x0000e070
    379c:	004f0f13          	addi	x30,x30,4

# Testcase cmp_rd_rs1 (Test rd = rs1 = x23)
  RVTEST_TESTDATA_LOAD_INT(x6, x23) # load rs1: x23 = 0x764e7237
    37a0:	00032b83          	lw	x23,0(x6)
    37a4:	00430313          	addi	x6,x6,4
  RVTEST_TESTDATA_LOAD_INT(x6, x0) # load rs2: x0 = 0xbeb6d4d3
    37a8:	00032003          	lw	x0,0(x6)
    37ac:	00430313          	addi	x6,x6,4

000037b0 <I_sll_cg_cmp_rd_rs1_b23>:
I_sll_cg_cmp_rd_rs1_b23:
  sll x23, x23, x0 # perform operation
    37b0:	000b9bb3          	sll	x23,x23,x0
  # Check if x23 contains the expected result. x30 is the signature ptr, x5 is the link ptr, x4 is a temp reg.
  RVTEST_SIGUPD(x30, x5, x4, x23, I_sll_cg_cmp_rd_rs1_b23, I_sll_cg_cmp_rd_rs1_b23_str)
    37b4:	000f2203          	lw	x4,0(x30)
    37b8:	01720863          	beq	x4,x23,37c8 <I_sll_cg_cmp_rd_rs1_b23+0x18>
    37bc:	501002ef          	jal	x5,44bc <failedtest_x5_x4>
    37c0:	000037b0          	.word	0x000037b0
    37c4:	0000e0a4          	.word	0x0000e0a4
    37c8:	004f0f13          	addi	x30,x30,4

# Testcase cmp_rd_rs1 (Test rd = rs1 = x24)
  RVTEST_TESTDATA_LOAD_INT(x6, x24) # load rs1: x24 = 0x12aeb9ff
    37cc:	00032c03          	lw	x24,0(x6)
    37d0:	00430313          	addi	x6,x6,4
  RVTEST_TESTDATA_LOAD_INT(x6, x14) # load rs2: x14 = 0xe41c2335
    37d4:	00032703          	lw	x14,0(x6)
    37d8:	00430313          	addi	x6,x6,4

000037dc <I_sll_cg_cmp_rd_rs1_b24>:
I_sll_cg_cmp_rd_rs1_b24:
  sll x24, x24, x14 # perform operation
    37dc:	00ec1c33          	sll	x24,x24,x14
  # Check if x24 contains the expected result. x30 is the signature ptr, x5 is the link ptr, x4 is a temp reg.
  RVTEST_SIGUPD(x30, x5, x4, x24, I_sll_cg_cmp_rd_rs1_b24, I_sll_cg_cmp_rd_rs1_b24_str)
    37e0:	000f2203          	lw	x4,0(x30)
    37e4:	01820863          	beq	x4,x24,37f4 <I_sll_cg_cmp_rd_rs1_b24+0x18>
    37e8:	4d5002ef          	jal	x5,44bc <failedtest_x5_x4>
    37ec:	000037dc          	.word	0x000037dc
    37f0:	0000e0d8          	.word	0x0000e0d8
    37f4:	004f0f13          	addi	x30,x30,4

# Testcase cmp_rd_rs1 (Test rd = rs1 = x25)
  RVTEST_TESTDATA_LOAD_INT(x6, x25) # load rs1: x25 = 0x063e839b
    37f8:	00032c83          	lw	x25,0(x6)
    37fc:	00430313          	addi	x6,x6,4
  RVTEST_TESTDATA_LOAD_INT(x6, x15) # load rs2: x15 = 0x711fbe5e
    3800:	00032783          	lw	x15,0(x6)
    3804:	00430313          	addi	x6,x6,4

00003808 <I_sll_cg_cmp_rd_rs1_b25>:
I_sll_cg_cmp_rd_rs1_b25:
  sll x25, x25, x15 # perform operation
    3808:	00fc9cb3          	sll	x25,x25,x15
  # Check if x25 contains the expected result. x30 is the signature ptr, x5 is the link ptr, x4 is a temp reg.
  RVTEST_SIGUPD(x30, x5, x4, x25, I_sll_cg_cmp_rd_rs1_b25, I_sll_cg_cmp_rd_rs1_b25_str)
    380c:	000f2203          	lw	x4,0(x30)
    3810:	01920863          	beq	x4,x25,3820 <I_sll_cg_cmp_rd_rs1_b25+0x18>
    3814:	4a9002ef          	jal	x5,44bc <failedtest_x5_x4>
    3818:	00003808          	.word	0x00003808
    381c:	0000e10c          	.word	0x0000e10c
    3820:	004f0f13          	addi	x30,x30,4

# Testcase cmp_rd_rs1 (Test rd = rs1 = x26)
  RVTEST_TESTDATA_LOAD_INT(x6, x26) # load rs1: x26 = 0x44dead16
    3824:	00032d03          	lw	x26,0(x6)
    3828:	00430313          	addi	x6,x6,4
  RVTEST_TESTDATA_LOAD_INT(x6, x27) # load rs2: x27 = 0xbd83a43b
    382c:	00032d83          	lw	x27,0(x6)
    3830:	00430313          	addi	x6,x6,4

00003834 <I_sll_cg_cmp_rd_rs1_b26>:
I_sll_cg_cmp_rd_rs1_b26:
  sll x26, x26, x27 # perform operation
    3834:	01bd1d33          	sll	x26,x26,x27
  # Check if x26 contains the expected result. x30 is the signature ptr, x5 is the link ptr, x4 is a temp reg.
  RVTEST_SIGUPD(x30, x5, x4, x26, I_sll_cg_cmp_rd_rs1_b26, I_sll_cg_cmp_rd_rs1_b26_str)
    3838:	000f2203          	lw	x4,0(x30)
    383c:	01a20863          	beq	x4,x26,384c <I_sll_cg_cmp_rd_rs1_b26+0x18>
    3840:	47d002ef          	jal	x5,44bc <failedtest_x5_x4>
    3844:	00003834          	.word	0x00003834
    3848:	0000e140          	.word	0x0000e140
    384c:	004f0f13          	addi	x30,x30,4

# Testcase cmp_rd_rs1 (Test rd = rs1 = x27)
  RVTEST_TESTDATA_LOAD_INT(x6, x27) # load rs1: x27 = 0x88f6d1f9
    3850:	00032d83          	lw	x27,0(x6)
    3854:	00430313          	addi	x6,x6,4
  RVTEST_TESTDATA_LOAD_INT(x6, x10) # load rs2: x10 = 0x8e009e26
    3858:	00032503          	lw	x10,0(x6)
    385c:	00430313          	addi	x6,x6,4

00003860 <I_sll_cg_cmp_rd_rs1_b27>:
I_sll_cg_cmp_rd_rs1_b27:
  sll x27, x27, x10 # perform operation
    3860:	00ad9db3          	sll	x27,x27,x10
  # Check if x27 contains the expected result. x30 is the signature ptr, x5 is the link ptr, x4 is a temp reg.
  RVTEST_SIGUPD(x30, x5, x4, x27, I_sll_cg_cmp_rd_rs1_b27, I_sll_cg_cmp_rd_rs1_b27_str)
    3864:	000f2203          	lw	x4,0(x30)
    3868:	01b20863          	beq	x4,x27,3878 <I_sll_cg_cmp_rd_rs1_b27+0x18>
    386c:	451002ef          	jal	x5,44bc <failedtest_x5_x4>
    3870:	00003860          	.word	0x00003860
    3874:	0000e174          	.word	0x0000e174
    3878:	004f0f13          	addi	x30,x30,4

# Testcase cmp_rd_rs1 (Test rd = rs1 = x28)
  RVTEST_TESTDATA_LOAD_INT(x6, x28) # load rs1: x28 = 0xd26c95f7
    387c:	00032e03          	lw	x28,0(x6)
    3880:	00430313          	addi	x6,x6,4
  RVTEST_TESTDATA_LOAD_INT(x6, x15) # load rs2: x15 = 0x54a7b2a8
    3884:	00032783          	lw	x15,0(x6)
    3888:	00430313          	addi	x6,x6,4

0000388c <I_sll_cg_cmp_rd_rs1_b28>:
I_sll_cg_cmp_rd_rs1_b28:
  sll x28, x28, x15 # perform operation
    388c:	00fe1e33          	sll	x28,x28,x15
  # Check if x28 contains the expected result. x30 is the signature ptr, x5 is the link ptr, x4 is a temp reg.
  RVTEST_SIGUPD(x30, x5, x4, x28, I_sll_cg_cmp_rd_rs1_b28, I_sll_cg_cmp_rd_rs1_b28_str)
    3890:	000f2203          	lw	x4,0(x30)
    3894:	01c20863          	beq	x4,x28,38a4 <I_sll_cg_cmp_rd_rs1_b28+0x18>
    3898:	425002ef          	jal	x5,44bc <failedtest_x5_x4>
    389c:	0000388c          	.word	0x0000388c
    38a0:	0000e1a8          	.word	0x0000e1a8
    38a4:	004f0f13          	addi	x30,x30,4

# Testcase cmp_rd_rs1 (Test rd = rs1 = x29)
  RVTEST_TESTDATA_LOAD_INT(x6, x29) # load rs1: x29 = 0x8f29845c
    38a8:	00032e83          	lw	x29,0(x6)
    38ac:	00430313          	addi	x6,x6,4
  RVTEST_TESTDATA_LOAD_INT(x6, x8) # load rs2: x8 = 0xbe3a7842
    38b0:	00032403          	lw	x8,0(x6)
    38b4:	00430313          	addi	x6,x6,4

000038b8 <I_sll_cg_cmp_rd_rs1_b29>:
I_sll_cg_cmp_rd_rs1_b29:
  sll x29, x29, x8 # perform operation
    38b8:	008e9eb3          	sll	x29,x29,x8
  # Check if x29 contains the expected result. x30 is the signature ptr, x5 is the link ptr, x4 is a temp reg.
  RVTEST_SIGUPD(x30, x5, x4, x29, I_sll_cg_cmp_rd_rs1_b29, I_sll_cg_cmp_rd_rs1_b29_str)
    38bc:	000f2203          	lw	x4,0(x30)
    38c0:	01d20863          	beq	x4,x29,38d0 <I_sll_cg_cmp_rd_rs1_b29+0x18>
    38c4:	3f9002ef          	jal	x5,44bc <failedtest_x5_x4>
    38c8:	000038b8          	.word	0x000038b8
    38cc:	0000e1dc          	.word	0x0000e1dc
    38d0:	004f0f13          	addi	x30,x30,4

  mv x20, x30 # switch signature pointer register to avoid conflict with test
    38d4:	000f0a13          	addi	x20,x30,0
# Testcase cmp_rd_rs1 (Test rd = rs1 = x30)
  RVTEST_TESTDATA_LOAD_INT(x6, x30) # load rs1: x30 = 0x6ac645fd
    38d8:	00032f03          	lw	x30,0(x6)
    38dc:	00430313          	addi	x6,x6,4
  RVTEST_TESTDATA_LOAD_INT(x6, x25) # load rs2: x25 = 0x6607f54c
    38e0:	00032c83          	lw	x25,0(x6)
    38e4:	00430313          	addi	x6,x6,4

000038e8 <I_sll_cg_cmp_rd_rs1_b30>:
I_sll_cg_cmp_rd_rs1_b30:
  sll x30, x30, x25 # perform operation
    38e8:	019f1f33          	sll	x30,x30,x25
  # Check if x30 contains the expected result. x20 is the signature ptr, x5 is the link ptr, x4 is a temp reg.
  RVTEST_SIGUPD(x20, x5, x4, x30, I_sll_cg_cmp_rd_rs1_b30, I_sll_cg_cmp_rd_rs1_b30_str)
    38ec:	000a2203          	lw	x4,0(x20)
    38f0:	01e20863          	beq	x4,x30,3900 <I_sll_cg_cmp_rd_rs1_b30+0x18>
    38f4:	3c9002ef          	jal	x5,44bc <failedtest_x5_x4>
    38f8:	000038e8          	.word	0x000038e8
    38fc:	0000e210          	.word	0x0000e210
    3900:	004a0a13          	addi	x20,x20,4

# Testcase cmp_rd_rs1 (Test rd = rs1 = x31)
  RVTEST_TESTDATA_LOAD_INT(x6, x31) # load rs1: x31 = 0x0e42d34a
    3904:	00032f83          	lw	x31,0(x6)
    3908:	00430313          	addi	x6,x6,4
  RVTEST_TESTDATA_LOAD_INT(x6, x21) # load rs2: x21 = 0x6a29bc75
    390c:	00032a83          	lw	x21,0(x6)
    3910:	00430313          	addi	x6,x6,4

00003914 <I_sll_cg_cmp_rd_rs1_b31>:
I_sll_cg_cmp_rd_rs1_b31:
  sll x31, x31, x21 # perform operation
    3914:	015f9fb3          	sll	x31,x31,x21
  # Check if x31 contains the expected result. x20 is the signature ptr, x5 is the link ptr, x4 is a temp reg.
  RVTEST_SIGUPD(x20, x5, x4, x31, I_sll_cg_cmp_rd_rs1_b31, I_sll_cg_cmp_rd_rs1_b31_str)
    3918:	000a2203          	lw	x4,0(x20)
    391c:	01f20863          	beq	x4,x31,392c <I_sll_cg_cmp_rd_rs1_b31+0x18>
    3920:	39d002ef          	jal	x5,44bc <failedtest_x5_x4>
    3924:	00003914          	.word	0x00003914
    3928:	0000e244          	.word	0x0000e244
    392c:	004a0a13          	addi	x20,x20,4
/////////////////////////////////
// cmp_rd_rs2
/////////////////////////////////

# Testcase cmp_rd_rs2 (Test rd = rs2 = x0)
  RVTEST_TESTDATA_LOAD_INT(x6, x3) # load rs1: x3 = 0x6f09d6f7
    3930:	00032183          	lw	x3,0(x6)
    3934:	00430313          	addi	x6,x6,4
  RVTEST_TESTDATA_LOAD_INT(x6, x0) # load rs2: x0 = 0x5f7089df
    3938:	00032003          	lw	x0,0(x6)
    393c:	00430313          	addi	x6,x6,4

00003940 <I_sll_cg_cmp_rd_rs2_b0>:
I_sll_cg_cmp_rd_rs2_b0:
  sll x0, x3, x0 # perform operation
    3940:	00019033          	sll	x0,x3,x0
  # Check if x0 contains the expected result. x20 is the signature ptr, x5 is the link ptr, x4 is a temp reg.
  RVTEST_SIGUPD(x20, x5, x4, x0, I_sll_cg_cmp_rd_rs2_b0, I_sll_cg_cmp_rd_rs2_b0_str)
    3944:	000a2203          	lw	x4,0(x20)
    3948:	00020863          	beq	x4,x0,3958 <I_sll_cg_cmp_rd_rs2_b0+0x18>
    394c:	371002ef          	jal	x5,44bc <failedtest_x5_x4>
    3950:	00003940          	.word	0x00003940
    3954:	0000e278          	.word	0x0000e278
    3958:	004a0a13          	addi	x20,x20,4

# Testcase cmp_rd_rs2 (Test rd = rs2 = x1)
  RVTEST_TESTDATA_LOAD_INT(x6, x9) # load rs1: x9 = 0xe5b3759f
    395c:	00032483          	lw	x9,0(x6)
    3960:	00430313          	addi	x6,x6,4
  RVTEST_TESTDATA_LOAD_INT(x6, x1) # load rs2: x1 = 0x7cd31652
    3964:	00032083          	lw	x1,0(x6)
    3968:	00430313          	addi	x6,x6,4

0000396c <I_sll_cg_cmp_rd_rs2_b1>:
I_sll_cg_cmp_rd_rs2_b1:
  sll x1, x9, x1 # perform operation
    396c:	001490b3          	sll	x1,x9,x1
  # Check if x1 contains the expected result. x20 is the signature ptr, x5 is the link ptr, x4 is a temp reg.
  RVTEST_SIGUPD(x20, x5, x4, x1, I_sll_cg_cmp_rd_rs2_b1, I_sll_cg_cmp_rd_rs2_b1_str)
    3970:	000a2203          	lw	x4,0(x20)
    3974:	00120863          	beq	x4,x1,3984 <I_sll_cg_cmp_rd_rs2_b1+0x18>
    3978:	345002ef          	jal	x5,44bc <failedtest_x5_x4>
    397c:	0000396c          	.word	0x0000396c
    3980:	0000e2ab          	.word	0x0000e2ab
    3984:	004a0a13          	addi	x20,x20,4

# Testcase cmp_rd_rs2 (Test rd = rs2 = x2)
  RVTEST_TESTDATA_LOAD_INT(x6, x9) # load rs1: x9 = 0x5aea6555
    3988:	00032483          	lw	x9,0(x6)
    398c:	00430313          	addi	x6,x6,4
  RVTEST_TESTDATA_LOAD_INT(x6, x2) # load rs2: x2 = 0xf3df1280
    3990:	00032103          	lw	x2,0(x6)
    3994:	00430313          	addi	x6,x6,4

00003998 <I_sll_cg_cmp_rd_rs2_b2>:
I_sll_cg_cmp_rd_rs2_b2:
  sll x2, x9, x2 # perform operation
    3998:	00249133          	sll	x2,x9,x2
  # Check if x2 contains the expected result. x20 is the signature ptr, x5 is the link ptr, x4 is a temp reg.
  RVTEST_SIGUPD(x20, x5, x4, x2, I_sll_cg_cmp_rd_rs2_b2, I_sll_cg_cmp_rd_rs2_b2_str)
    399c:	000a2203          	lw	x4,0(x20)
    39a0:	00220863          	beq	x4,x2,39b0 <I_sll_cg_cmp_rd_rs2_b2+0x18>
    39a4:	319002ef          	jal	x5,44bc <failedtest_x5_x4>
    39a8:	00003998          	.word	0x00003998
    39ac:	0000e2de          	.word	0x0000e2de
    39b0:	004a0a13          	addi	x20,x20,4

# Testcase cmp_rd_rs2 (Test rd = rs2 = x3)
  RVTEST_TESTDATA_LOAD_INT(x6, x31) # load rs1: x31 = 0x4b0a637b
    39b4:	00032f83          	lw	x31,0(x6)
    39b8:	00430313          	addi	x6,x6,4
  RVTEST_TESTDATA_LOAD_INT(x6, x3) # load rs2: x3 = 0x656e2ff6
    39bc:	00032183          	lw	x3,0(x6)
    39c0:	00430313          	addi	x6,x6,4

000039c4 <I_sll_cg_cmp_rd_rs2_b3>:
I_sll_cg_cmp_rd_rs2_b3:
  sll x3, x31, x3 # perform operation
    39c4:	003f91b3          	sll	x3,x31,x3
  # Check if x3 contains the expected result. x20 is the signature ptr, x5 is the link ptr, x4 is a temp reg.
  RVTEST_SIGUPD(x20, x5, x4, x3, I_sll_cg_cmp_rd_rs2_b3, I_sll_cg_cmp_rd_rs2_b3_str)
    39c8:	000a2203          	lw	x4,0(x20)
    39cc:	00320863          	beq	x4,x3,39dc <I_sll_cg_cmp_rd_rs2_b3+0x18>
    39d0:	2ed002ef          	jal	x5,44bc <failedtest_x5_x4>
    39d4:	000039c4          	.word	0x000039c4
    39d8:	0000e311          	.word	0x0000e311
    39dc:	004a0a13          	addi	x20,x20,4

  mv x13, x4 # switch temp register to avoid conflict with test
    39e0:	00020693          	addi	x13,x4,0 # 0 <rvtest_entry_point>
  mv x14, x5 # switch link pointer register to avoid conflict with test
    39e4:	00028713          	addi	x14,x5,0
# Testcase cmp_rd_rs2 (Test rd = rs2 = x4)
  RVTEST_TESTDATA_LOAD_INT(x6, x2) # load rs1: x2 = 0xd94c179e
    39e8:	00032103          	lw	x2,0(x6)
    39ec:	00430313          	addi	x6,x6,4
  RVTEST_TESTDATA_LOAD_INT(x6, x4) # load rs2: x4 = 0x20699f8c
    39f0:	00032203          	lw	x4,0(x6)
    39f4:	00430313          	addi	x6,x6,4

000039f8 <I_sll_cg_cmp_rd_rs2_b4>:
I_sll_cg_cmp_rd_rs2_b4:
  sll x4, x2, x4 # perform operation
    39f8:	00411233          	sll	x4,x2,x4
  # Check if x4 contains the expected result. x20 is the signature ptr, x14 is the link ptr, x13 is a temp reg.
  RVTEST_SIGUPD(x20, x14, x13, x4, I_sll_cg_cmp_rd_rs2_b4, I_sll_cg_cmp_rd_rs2_b4_str)
    39fc:	000a2683          	lw	x13,0(x20)
    3a00:	00468863          	beq	x13,x4,3a10 <I_sll_cg_cmp_rd_rs2_b4+0x18>
    3a04:	2f90076f          	jal	x14,44fc <failedtest_x14_x13>
    3a08:	000039f8          	.word	0x000039f8
    3a0c:	0000e344          	.word	0x0000e344
    3a10:	004a0a13          	addi	x20,x20,4

# Testcase cmp_rd_rs2 (Test rd = rs2 = x5)
  RVTEST_TESTDATA_LOAD_INT(x6, x2) # load rs1: x2 = 0x635cc7f5
    3a14:	00032103          	lw	x2,0(x6)
    3a18:	00430313          	addi	x6,x6,4
  RVTEST_TESTDATA_LOAD_INT(x6, x5) # load rs2: x5 = 0x93c315d9
    3a1c:	00032283          	lw	x5,0(x6)
    3a20:	00430313          	addi	x6,x6,4

00003a24 <I_sll_cg_cmp_rd_rs2_b5>:
I_sll_cg_cmp_rd_rs2_b5:
  sll x5, x2, x5 # perform operation
    3a24:	005112b3          	sll	x5,x2,x5
  # Check if x5 contains the expected result. x20 is the signature ptr, x14 is the link ptr, x13 is a temp reg.
  RVTEST_SIGUPD(x20, x14, x13, x5, I_sll_cg_cmp_rd_rs2_b5, I_sll_cg_cmp_rd_rs2_b5_str)
    3a28:	000a2683          	lw	x13,0(x20)
    3a2c:	00568863          	beq	x13,x5,3a3c <I_sll_cg_cmp_rd_rs2_b5+0x18>
    3a30:	2cd0076f          	jal	x14,44fc <failedtest_x14_x13>
    3a34:	00003a24          	.word	0x00003a24
    3a38:	0000e377          	.word	0x0000e377
    3a3c:	004a0a13          	addi	x20,x20,4

  mv x2, x6 # switch data pointer register to avoid conflict with test
    3a40:	00030113          	addi	x2,x6,0
# Testcase cmp_rd_rs2 (Test rd = rs2 = x6)
  RVTEST_TESTDATA_LOAD_INT(x2, x26) # load rs1: x26 = 0x613a98ba
    3a44:	00012d03          	lw	x26,0(x2)
    3a48:	00410113          	addi	x2,x2,4
  RVTEST_TESTDATA_LOAD_INT(x2, x6) # load rs2: x6 = 0xe8c9375a
    3a4c:	00012303          	lw	x6,0(x2)
    3a50:	00410113          	addi	x2,x2,4

00003a54 <I_sll_cg_cmp_rd_rs2_b6>:
I_sll_cg_cmp_rd_rs2_b6:
  sll x6, x26, x6 # perform operation
    3a54:	006d1333          	sll	x6,x26,x6
  # Check if x6 contains the expected result. x20 is the signature ptr, x14 is the link ptr, x13 is a temp reg.
  RVTEST_SIGUPD(x20, x14, x13, x6, I_sll_cg_cmp_rd_rs2_b6, I_sll_cg_cmp_rd_rs2_b6_str)
    3a58:	000a2683          	lw	x13,0(x20)
    3a5c:	00668863          	beq	x13,x6,3a6c <I_sll_cg_cmp_rd_rs2_b6+0x18>
    3a60:	29d0076f          	jal	x14,44fc <failedtest_x14_x13>
    3a64:	00003a54          	.word	0x00003a54
    3a68:	0000e3aa          	.word	0x0000e3aa
    3a6c:	004a0a13          	addi	x20,x20,4

# Testcase cmp_rd_rs2 (Test rd = rs2 = x7)
  RVTEST_TESTDATA_LOAD_INT(x2, x3) # load rs1: x3 = 0xf93ea865
    3a70:	00012183          	lw	x3,0(x2)
    3a74:	00410113          	addi	x2,x2,4
  RVTEST_TESTDATA_LOAD_INT(x2, x7) # load rs2: x7 = 0x3d0f5f8d
    3a78:	00012383          	lw	x7,0(x2)
    3a7c:	00410113          	addi	x2,x2,4

00003a80 <I_sll_cg_cmp_rd_rs2_b7>:
I_sll_cg_cmp_rd_rs2_b7:
  sll x7, x3, x7 # perform operation
    3a80:	007193b3          	sll	x7,x3,x7
  # Check if x7 contains the expected result. x20 is the signature ptr, x14 is the link ptr, x13 is a temp reg.
  RVTEST_SIGUPD(x20, x14, x13, x7, I_sll_cg_cmp_rd_rs2_b7, I_sll_cg_cmp_rd_rs2_b7_str)
    3a84:	000a2683          	lw	x13,0(x20)
    3a88:	00768863          	beq	x13,x7,3a98 <I_sll_cg_cmp_rd_rs2_b7+0x18>
    3a8c:	2710076f          	jal	x14,44fc <failedtest_x14_x13>
    3a90:	00003a80          	.word	0x00003a80
    3a94:	0000e3dd          	.word	0x0000e3dd
    3a98:	004a0a13          	addi	x20,x20,4

# Testcase cmp_rd_rs2 (Test rd = rs2 = x8)
  RVTEST_TESTDATA_LOAD_INT(x2, x16) # load rs1: x16 = 0x81f529b2
    3a9c:	00012803          	lw	x16,0(x2)
    3aa0:	00410113          	addi	x2,x2,4
  RVTEST_TESTDATA_LOAD_INT(x2, x8) # load rs2: x8 = 0x315be509
    3aa4:	00012403          	lw	x8,0(x2)
    3aa8:	00410113          	addi	x2,x2,4

00003aac <I_sll_cg_cmp_rd_rs2_b8>:
I_sll_cg_cmp_rd_rs2_b8:
  sll x8, x16, x8 # perform operation
    3aac:	00881433          	sll	x8,x16,x8
  # Check if x8 contains the expected result. x20 is the signature ptr, x14 is the link ptr, x13 is a temp reg.
  RVTEST_SIGUPD(x20, x14, x13, x8, I_sll_cg_cmp_rd_rs2_b8, I_sll_cg_cmp_rd_rs2_b8_str)
    3ab0:	000a2683          	lw	x13,0(x20)
    3ab4:	00868863          	beq	x13,x8,3ac4 <I_sll_cg_cmp_rd_rs2_b8+0x18>
    3ab8:	2450076f          	jal	x14,44fc <failedtest_x14_x13>
    3abc:	00003aac          	.word	0x00003aac
    3ac0:	0000e410          	.word	0x0000e410
    3ac4:	004a0a13          	addi	x20,x20,4

# Testcase cmp_rd_rs2 (Test rd = rs2 = x9)
  RVTEST_TESTDATA_LOAD_INT(x2, x23) # load rs1: x23 = 0xd986d45b
    3ac8:	00012b83          	lw	x23,0(x2)
    3acc:	00410113          	addi	x2,x2,4
  RVTEST_TESTDATA_LOAD_INT(x2, x9) # load rs2: x9 = 0x3baccbed
    3ad0:	00012483          	lw	x9,0(x2)
    3ad4:	00410113          	addi	x2,x2,4

00003ad8 <I_sll_cg_cmp_rd_rs2_b9>:
I_sll_cg_cmp_rd_rs2_b9:
  sll x9, x23, x9 # perform operation
    3ad8:	009b94b3          	sll	x9,x23,x9
  # Check if x9 contains the expected result. x20 is the signature ptr, x14 is the link ptr, x13 is a temp reg.
  RVTEST_SIGUPD(x20, x14, x13, x9, I_sll_cg_cmp_rd_rs2_b9, I_sll_cg_cmp_rd_rs2_b9_str)
    3adc:	000a2683          	lw	x13,0(x20)
    3ae0:	00968863          	beq	x13,x9,3af0 <I_sll_cg_cmp_rd_rs2_b9+0x18>
    3ae4:	2190076f          	jal	x14,44fc <failedtest_x14_x13>
    3ae8:	00003ad8          	.word	0x00003ad8
    3aec:	0000e443          	.word	0x0000e443
    3af0:	004a0a13          	addi	x20,x20,4

# Testcase cmp_rd_rs2 (Test rd = rs2 = x10)
  RVTEST_TESTDATA_LOAD_INT(x2, x22) # load rs1: x22 = 0xde243050
    3af4:	00012b03          	lw	x22,0(x2)
    3af8:	00410113          	addi	x2,x2,4
  RVTEST_TESTDATA_LOAD_INT(x2, x10) # load rs2: x10 = 0xd00f05ed
    3afc:	00012503          	lw	x10,0(x2)
    3b00:	00410113          	addi	x2,x2,4

00003b04 <I_sll_cg_cmp_rd_rs2_b10>:
I_sll_cg_cmp_rd_rs2_b10:
  sll x10, x22, x10 # perform operation
    3b04:	00ab1533          	sll	x10,x22,x10
  # Check if x10 contains the expected result. x20 is the signature ptr, x14 is the link ptr, x13 is a temp reg.
  RVTEST_SIGUPD(x20, x14, x13, x10, I_sll_cg_cmp_rd_rs2_b10, I_sll_cg_cmp_rd_rs2_b10_str)
    3b08:	000a2683          	lw	x13,0(x20)
    3b0c:	00a68863          	beq	x13,x10,3b1c <I_sll_cg_cmp_rd_rs2_b10+0x18>
    3b10:	1ed0076f          	jal	x14,44fc <failedtest_x14_x13>
    3b14:	00003b04          	.word	0x00003b04
    3b18:	0000e476          	.word	0x0000e476
    3b1c:	004a0a13          	addi	x20,x20,4

# Testcase cmp_rd_rs2 (Test rd = rs2 = x11)
  RVTEST_TESTDATA_LOAD_INT(x2, x15) # load rs1: x15 = 0x484a5f6c
    3b20:	00012783          	lw	x15,0(x2)
    3b24:	00410113          	addi	x2,x2,4
  RVTEST_TESTDATA_LOAD_INT(x2, x11) # load rs2: x11 = 0xc722a620
    3b28:	00012583          	lw	x11,0(x2)
    3b2c:	00410113          	addi	x2,x2,4

00003b30 <I_sll_cg_cmp_rd_rs2_b11>:
I_sll_cg_cmp_rd_rs2_b11:
  sll x11, x15, x11 # perform operation
    3b30:	00b795b3          	sll	x11,x15,x11
  # Check if x11 contains the expected result. x20 is the signature ptr, x14 is the link ptr, x13 is a temp reg.
  RVTEST_SIGUPD(x20, x14, x13, x11, I_sll_cg_cmp_rd_rs2_b11, I_sll_cg_cmp_rd_rs2_b11_str)
    3b34:	000a2683          	lw	x13,0(x20)
    3b38:	00b68863          	beq	x13,x11,3b48 <I_sll_cg_cmp_rd_rs2_b11+0x18>
    3b3c:	1c10076f          	jal	x14,44fc <failedtest_x14_x13>
    3b40:	00003b30          	.word	0x00003b30
    3b44:	0000e4aa          	.word	0x0000e4aa
    3b48:	004a0a13          	addi	x20,x20,4

# Testcase cmp_rd_rs2 (Test rd = rs2 = x12)
  RVTEST_TESTDATA_LOAD_INT(x2, x23) # load rs1: x23 = 0x395e7f91
    3b4c:	00012b83          	lw	x23,0(x2)
    3b50:	00410113          	addi	x2,x2,4
  RVTEST_TESTDATA_LOAD_INT(x2, x12) # load rs2: x12 = 0x9f149772
    3b54:	00012603          	lw	x12,0(x2)
    3b58:	00410113          	addi	x2,x2,4

00003b5c <I_sll_cg_cmp_rd_rs2_b12>:
I_sll_cg_cmp_rd_rs2_b12:
  sll x12, x23, x12 # perform operation
    3b5c:	00cb9633          	sll	x12,x23,x12
  # Check if x12 contains the expected result. x20 is the signature ptr, x14 is the link ptr, x13 is a temp reg.
  RVTEST_SIGUPD(x20, x14, x13, x12, I_sll_cg_cmp_rd_rs2_b12, I_sll_cg_cmp_rd_rs2_b12_str)
    3b60:	000a2683          	lw	x13,0(x20)
    3b64:	00c68863          	beq	x13,x12,3b74 <I_sll_cg_cmp_rd_rs2_b12+0x18>
    3b68:	1950076f          	jal	x14,44fc <failedtest_x14_x13>
    3b6c:	00003b5c          	.word	0x00003b5c
    3b70:	0000e4de          	.word	0x0000e4de
    3b74:	004a0a13          	addi	x20,x20,4

  mv x7, x13 # switch temp register to avoid conflict with test
    3b78:	00068393          	addi	x7,x13,0
  mv x8, x14 # switch link pointer register to avoid conflict with test
    3b7c:	00070413          	addi	x8,x14,0
# Testcase cmp_rd_rs2 (Test rd = rs2 = x13)
  RVTEST_TESTDATA_LOAD_INT(x2, x26) # load rs1: x26 = 0xe6912542
    3b80:	00012d03          	lw	x26,0(x2)
    3b84:	00410113          	addi	x2,x2,4
  RVTEST_TESTDATA_LOAD_INT(x2, x13) # load rs2: x13 = 0xc2cd6f77
    3b88:	00012683          	lw	x13,0(x2)
    3b8c:	00410113          	addi	x2,x2,4

00003b90 <I_sll_cg_cmp_rd_rs2_b13>:
I_sll_cg_cmp_rd_rs2_b13:
  sll x13, x26, x13 # perform operation
    3b90:	00dd16b3          	sll	x13,x26,x13
  # Check if x13 contains the expected result. x20 is the signature ptr, x8 is the link ptr, x7 is a temp reg.
  RVTEST_SIGUPD(x20, x8, x7, x13, I_sll_cg_cmp_rd_rs2_b13, I_sll_cg_cmp_rd_rs2_b13_str)
    3b94:	000a2383          	lw	x7,0(x20)
    3b98:	00d38863          	beq	x7,x13,3ba8 <I_sll_cg_cmp_rd_rs2_b13+0x18>
    3b9c:	1390046f          	jal	x8,44d4 <failedtest_x8_x7>
    3ba0:	00003b90          	.word	0x00003b90
    3ba4:	0000e512          	.word	0x0000e512
    3ba8:	004a0a13          	addi	x20,x20,4

# Testcase cmp_rd_rs2 (Test rd = rs2 = x14)
  RVTEST_TESTDATA_LOAD_INT(x2, x28) # load rs1: x28 = 0xd76c6c94
    3bac:	00012e03          	lw	x28,0(x2)
    3bb0:	00410113          	addi	x2,x2,4
  RVTEST_TESTDATA_LOAD_INT(x2, x14) # load rs2: x14 = 0x69d43944
    3bb4:	00012703          	lw	x14,0(x2)
    3bb8:	00410113          	addi	x2,x2,4

00003bbc <I_sll_cg_cmp_rd_rs2_b14>:
I_sll_cg_cmp_rd_rs2_b14:
  sll x14, x28, x14 # perform operation
    3bbc:	00ee1733          	sll	x14,x28,x14
  # Check if x14 contains the expected result. x20 is the signature ptr, x8 is the link ptr, x7 is a temp reg.
  RVTEST_SIGUPD(x20, x8, x7, x14, I_sll_cg_cmp_rd_rs2_b14, I_sll_cg_cmp_rd_rs2_b14_str)
    3bc0:	000a2383          	lw	x7,0(x20)
    3bc4:	00e38863          	beq	x7,x14,3bd4 <I_sll_cg_cmp_rd_rs2_b14+0x18>
    3bc8:	10d0046f          	jal	x8,44d4 <failedtest_x8_x7>
    3bcc:	00003bbc          	.word	0x00003bbc
    3bd0:	0000e546          	.word	0x0000e546
    3bd4:	004a0a13          	addi	x20,x20,4

# Testcase cmp_rd_rs2 (Test rd = rs2 = x15)
  RVTEST_TESTDATA_LOAD_INT(x2, x5) # load rs1: x5 = 0xcc8bb013
    3bd8:	00012283          	lw	x5,0(x2)
    3bdc:	00410113          	addi	x2,x2,4
  RVTEST_TESTDATA_LOAD_INT(x2, x15) # load rs2: x15 = 0x2af05c15
    3be0:	00012783          	lw	x15,0(x2)
    3be4:	00410113          	addi	x2,x2,4

00003be8 <I_sll_cg_cmp_rd_rs2_b15>:
I_sll_cg_cmp_rd_rs2_b15:
  sll x15, x5, x15 # perform operation
    3be8:	00f297b3          	sll	x15,x5,x15
  # Check if x15 contains the expected result. x20 is the signature ptr, x8 is the link ptr, x7 is a temp reg.
  RVTEST_SIGUPD(x20, x8, x7, x15, I_sll_cg_cmp_rd_rs2_b15, I_sll_cg_cmp_rd_rs2_b15_str)
    3bec:	000a2383          	lw	x7,0(x20)
    3bf0:	00f38863          	beq	x7,x15,3c00 <I_sll_cg_cmp_rd_rs2_b15+0x18>
    3bf4:	0e10046f          	jal	x8,44d4 <failedtest_x8_x7>
    3bf8:	00003be8          	.word	0x00003be8
    3bfc:	0000e57a          	.word	0x0000e57a
    3c00:	004a0a13          	addi	x20,x20,4

# Testcase cmp_rd_rs2 (Test rd = rs2 = x16)
  RVTEST_TESTDATA_LOAD_INT(x2, x18) # load rs1: x18 = 0x62a3e6f2
    3c04:	00012903          	lw	x18,0(x2)
    3c08:	00410113          	addi	x2,x2,4
  RVTEST_TESTDATA_LOAD_INT(x2, x16) # load rs2: x16 = 0x38742e73
    3c0c:	00012803          	lw	x16,0(x2)
    3c10:	00410113          	addi	x2,x2,4

00003c14 <I_sll_cg_cmp_rd_rs2_b16>:
I_sll_cg_cmp_rd_rs2_b16:
  sll x16, x18, x16 # perform operation
    3c14:	01091833          	sll	x16,x18,x16
  # Check if x16 contains the expected result. x20 is the signature ptr, x8 is the link ptr, x7 is a temp reg.
  RVTEST_SIGUPD(x20, x8, x7, x16, I_sll_cg_cmp_rd_rs2_b16, I_sll_cg_cmp_rd_rs2_b16_str)
    3c18:	000a2383          	lw	x7,0(x20)
    3c1c:	01038863          	beq	x7,x16,3c2c <I_sll_cg_cmp_rd_rs2_b16+0x18>
    3c20:	0b50046f          	jal	x8,44d4 <failedtest_x8_x7>
    3c24:	00003c14          	.word	0x00003c14
    3c28:	0000e5ae          	.word	0x0000e5ae
    3c2c:	004a0a13          	addi	x20,x20,4

# Testcase cmp_rd_rs2 (Test rd = rs2 = x17)
  RVTEST_TESTDATA_LOAD_INT(x2, x18) # load rs1: x18 = 0xb11d1234
    3c30:	00012903          	lw	x18,0(x2)
    3c34:	00410113          	addi	x2,x2,4
  RVTEST_TESTDATA_LOAD_INT(x2, x17) # load rs2: x17 = 0x4c23fd36
    3c38:	00012883          	lw	x17,0(x2)
    3c3c:	00410113          	addi	x2,x2,4

00003c40 <I_sll_cg_cmp_rd_rs2_b17>:
I_sll_cg_cmp_rd_rs2_b17:
  sll x17, x18, x17 # perform operation
    3c40:	011918b3          	sll	x17,x18,x17
  # Check if x17 contains the expected result. x20 is the signature ptr, x8 is the link ptr, x7 is a temp reg.
  RVTEST_SIGUPD(x20, x8, x7, x17, I_sll_cg_cmp_rd_rs2_b17, I_sll_cg_cmp_rd_rs2_b17_str)
    3c44:	000a2383          	lw	x7,0(x20)
    3c48:	01138863          	beq	x7,x17,3c58 <I_sll_cg_cmp_rd_rs2_b17+0x18>
    3c4c:	0890046f          	jal	x8,44d4 <failedtest_x8_x7>
    3c50:	00003c40          	.word	0x00003c40
    3c54:	0000e5e2          	.word	0x0000e5e2
    3c58:	004a0a13          	addi	x20,x20,4

# Testcase cmp_rd_rs2 (Test rd = rs2 = x18)
  RVTEST_TESTDATA_LOAD_INT(x2, x21) # load rs1: x21 = 0x07c33cdc
    3c5c:	00012a83          	lw	x21,0(x2)
    3c60:	00410113          	addi	x2,x2,4
  RVTEST_TESTDATA_LOAD_INT(x2, x18) # load rs2: x18 = 0xa6258ce6
    3c64:	00012903          	lw	x18,0(x2)
    3c68:	00410113          	addi	x2,x2,4

00003c6c <I_sll_cg_cmp_rd_rs2_b18>:
I_sll_cg_cmp_rd_rs2_b18:
  sll x18, x21, x18 # perform operation
    3c6c:	012a9933          	sll	x18,x21,x18
  # Check if x18 contains the expected result. x20 is the signature ptr, x8 is the link ptr, x7 is a temp reg.
  RVTEST_SIGUPD(x20, x8, x7, x18, I_sll_cg_cmp_rd_rs2_b18, I_sll_cg_cmp_rd_rs2_b18_str)
    3c70:	000a2383          	lw	x7,0(x20)
    3c74:	01238863          	beq	x7,x18,3c84 <I_sll_cg_cmp_rd_rs2_b18+0x18>
    3c78:	05d0046f          	jal	x8,44d4 <failedtest_x8_x7>
    3c7c:	00003c6c          	.word	0x00003c6c
    3c80:	0000e616          	.word	0x0000e616
    3c84:	004a0a13          	addi	x20,x20,4

# Testcase cmp_rd_rs2 (Test rd = rs2 = x19)
  RVTEST_TESTDATA_LOAD_INT(x2, x11) # load rs1: x11 = 0x7820ecb5
    3c88:	00012583          	lw	x11,0(x2)
    3c8c:	00410113          	addi	x2,x2,4
  RVTEST_TESTDATA_LOAD_INT(x2, x19) # load rs2: x19 = 0x94b504ec
    3c90:	00012983          	lw	x19,0(x2)
    3c94:	00410113          	addi	x2,x2,4

00003c98 <I_sll_cg_cmp_rd_rs2_b19>:
I_sll_cg_cmp_rd_rs2_b19:
  sll x19, x11, x19 # perform operation
    3c98:	013599b3          	sll	x19,x11,x19
  # Check if x19 contains the expected result. x20 is the signature ptr, x8 is the link ptr, x7 is a temp reg.
  RVTEST_SIGUPD(x20, x8, x7, x19, I_sll_cg_cmp_rd_rs2_b19, I_sll_cg_cmp_rd_rs2_b19_str)
    3c9c:	000a2383          	lw	x7,0(x20)
    3ca0:	01338863          	beq	x7,x19,3cb0 <I_sll_cg_cmp_rd_rs2_b19+0x18>
    3ca4:	0310046f          	jal	x8,44d4 <failedtest_x8_x7>
    3ca8:	00003c98          	.word	0x00003c98
    3cac:	0000e64a          	.word	0x0000e64a
    3cb0:	004a0a13          	addi	x20,x20,4

  mv x29, x20 # switch signature pointer register to avoid conflict with test
    3cb4:	000a0e93          	addi	x29,x20,0
# Testcase cmp_rd_rs2 (Test rd = rs2 = x20)
  RVTEST_TESTDATA_LOAD_INT(x2, x1) # load rs1: x1 = 0x4b8d560a
    3cb8:	00012083          	lw	x1,0(x2)
    3cbc:	00410113          	addi	x2,x2,4
  RVTEST_TESTDATA_LOAD_INT(x2, x20) # load rs2: x20 = 0x6c2789ff
    3cc0:	00012a03          	lw	x20,0(x2)
    3cc4:	00410113          	addi	x2,x2,4

00003cc8 <I_sll_cg_cmp_rd_rs2_b20>:
I_sll_cg_cmp_rd_rs2_b20:
  sll x20, x1, x20 # perform operation
    3cc8:	01409a33          	sll	x20,x1,x20
  # Check if x20 contains the expected result. x29 is the signature ptr, x8 is the link ptr, x7 is a temp reg.
  RVTEST_SIGUPD(x29, x8, x7, x20, I_sll_cg_cmp_rd_rs2_b20, I_sll_cg_cmp_rd_rs2_b20_str)
    3ccc:	000ea383          	lw	x7,0(x29)
    3cd0:	01438863          	beq	x7,x20,3ce0 <I_sll_cg_cmp_rd_rs2_b20+0x18>
    3cd4:	0010046f          	jal	x8,44d4 <failedtest_x8_x7>
    3cd8:	00003cc8          	.word	0x00003cc8
    3cdc:	0000e67e          	.word	0x0000e67e
    3ce0:	004e8e93          	addi	x29,x29,4

# Testcase cmp_rd_rs2 (Test rd = rs2 = x21)
  RVTEST_TESTDATA_LOAD_INT(x2, x31) # load rs1: x31 = 0x22fc670c
    3ce4:	00012f83          	lw	x31,0(x2)
    3ce8:	00410113          	addi	x2,x2,4
  RVTEST_TESTDATA_LOAD_INT(x2, x21) # load rs2: x21 = 0x1f25ee0c
    3cec:	00012a83          	lw	x21,0(x2)
    3cf0:	00410113          	addi	x2,x2,4

00003cf4 <I_sll_cg_cmp_rd_rs2_b21>:
I_sll_cg_cmp_rd_rs2_b21:
  sll x21, x31, x21 # perform operation
    3cf4:	015f9ab3          	sll	x21,x31,x21
  # Check if x21 contains the expected result. x29 is the signature ptr, x8 is the link ptr, x7 is a temp reg.
  RVTEST_SIGUPD(x29, x8, x7, x21, I_sll_cg_cmp_rd_rs2_b21, I_sll_cg_cmp_rd_rs2_b21_str)
    3cf8:	000ea383          	lw	x7,0(x29)
    3cfc:	01538863          	beq	x7,x21,3d0c <I_sll_cg_cmp_rd_rs2_b21+0x18>
    3d00:	7d40046f          	jal	x8,44d4 <failedtest_x8_x7>
    3d04:	00003cf4          	.word	0x00003cf4
    3d08:	0000e6b2          	.word	0x0000e6b2
    3d0c:	004e8e93          	addi	x29,x29,4

# Testcase cmp_rd_rs2 (Test rd = rs2 = x22)
  RVTEST_TESTDATA_LOAD_INT(x2, x1) # load rs1: x1 = 0x962c5754
    3d10:	00012083          	lw	x1,0(x2)
    3d14:	00410113          	addi	x2,x2,4
  RVTEST_TESTDATA_LOAD_INT(x2, x22) # load rs2: x22 = 0xdf58092a
    3d18:	00012b03          	lw	x22,0(x2)
    3d1c:	00410113          	addi	x2,x2,4

00003d20 <I_sll_cg_cmp_rd_rs2_b22>:
I_sll_cg_cmp_rd_rs2_b22:
  sll x22, x1, x22 # perform operation
    3d20:	01609b33          	sll	x22,x1,x22
  # Check if x22 contains the expected result. x29 is the signature ptr, x8 is the link ptr, x7 is a temp reg.
  RVTEST_SIGUPD(x29, x8, x7, x22, I_sll_cg_cmp_rd_rs2_b22, I_sll_cg_cmp_rd_rs2_b22_str)
    3d24:	000ea383          	lw	x7,0(x29)
    3d28:	01638863          	beq	x7,x22,3d38 <I_sll_cg_cmp_rd_rs2_b22+0x18>
    3d2c:	7a80046f          	jal	x8,44d4 <failedtest_x8_x7>
    3d30:	00003d20          	.word	0x00003d20
    3d34:	0000e6e6          	.word	0x0000e6e6
    3d38:	004e8e93          	addi	x29,x29,4

# Testcase cmp_rd_rs2 (Test rd = rs2 = x23)
  RVTEST_TESTDATA_LOAD_INT(x2, x20) # load rs1: x20 = 0xf7fd77e4
    3d3c:	00012a03          	lw	x20,0(x2)
    3d40:	00410113          	addi	x2,x2,4
  RVTEST_TESTDATA_LOAD_INT(x2, x23) # load rs2: x23 = 0x81e55cb9
    3d44:	00012b83          	lw	x23,0(x2)
    3d48:	00410113          	addi	x2,x2,4

00003d4c <I_sll_cg_cmp_rd_rs2_b23>:
I_sll_cg_cmp_rd_rs2_b23:
  sll x23, x20, x23 # perform operation
    3d4c:	017a1bb3          	sll	x23,x20,x23
  # Check if x23 contains the expected result. x29 is the signature ptr, x8 is the link ptr, x7 is a temp reg.
  RVTEST_SIGUPD(x29, x8, x7, x23, I_sll_cg_cmp_rd_rs2_b23, I_sll_cg_cmp_rd_rs2_b23_str)
    3d50:	000ea383          	lw	x7,0(x29)
    3d54:	01738863          	beq	x7,x23,3d64 <I_sll_cg_cmp_rd_rs2_b23+0x18>
    3d58:	77c0046f          	jal	x8,44d4 <failedtest_x8_x7>
    3d5c:	00003d4c          	.word	0x00003d4c
    3d60:	0000e71a          	.word	0x0000e71a
    3d64:	004e8e93          	addi	x29,x29,4

# Testcase cmp_rd_rs2 (Test rd = rs2 = x24)
  RVTEST_TESTDATA_LOAD_INT(x2, x18) # load rs1: x18 = 0xb8203c1d
    3d68:	00012903          	lw	x18,0(x2)
    3d6c:	00410113          	addi	x2,x2,4
  RVTEST_TESTDATA_LOAD_INT(x2, x24) # load rs2: x24 = 0x740f12bd
    3d70:	00012c03          	lw	x24,0(x2)
    3d74:	00410113          	addi	x2,x2,4

00003d78 <I_sll_cg_cmp_rd_rs2_b24>:
I_sll_cg_cmp_rd_rs2_b24:
  sll x24, x18, x24 # perform operation
    3d78:	01891c33          	sll	x24,x18,x24
  # Check if x24 contains the expected result. x29 is the signature ptr, x8 is the link ptr, x7 is a temp reg.
  RVTEST_SIGUPD(x29, x8, x7, x24, I_sll_cg_cmp_rd_rs2_b24, I_sll_cg_cmp_rd_rs2_b24_str)
    3d7c:	000ea383          	lw	x7,0(x29)
    3d80:	01838863          	beq	x7,x24,3d90 <I_sll_cg_cmp_rd_rs2_b24+0x18>
    3d84:	7500046f          	jal	x8,44d4 <failedtest_x8_x7>
    3d88:	00003d78          	.word	0x00003d78
    3d8c:	0000e74e          	.word	0x0000e74e
    3d90:	004e8e93          	addi	x29,x29,4

# Testcase cmp_rd_rs2 (Test rd = rs2 = x25)
  RVTEST_TESTDATA_LOAD_INT(x2, x4) # load rs1: x4 = 0x26120d7b
    3d94:	00012203          	lw	x4,0(x2)
    3d98:	00410113          	addi	x2,x2,4
  RVTEST_TESTDATA_LOAD_INT(x2, x25) # load rs2: x25 = 0x82d5851f
    3d9c:	00012c83          	lw	x25,0(x2)
    3da0:	00410113          	addi	x2,x2,4

00003da4 <I_sll_cg_cmp_rd_rs2_b25>:
I_sll_cg_cmp_rd_rs2_b25:
  sll x25, x4, x25 # perform operation
    3da4:	01921cb3          	sll	x25,x4,x25
  # Check if x25 contains the expected result. x29 is the signature ptr, x8 is the link ptr, x7 is a temp reg.
  RVTEST_SIGUPD(x29, x8, x7, x25, I_sll_cg_cmp_rd_rs2_b25, I_sll_cg_cmp_rd_rs2_b25_str)
    3da8:	000ea383          	lw	x7,0(x29)
    3dac:	01938863          	beq	x7,x25,3dbc <I_sll_cg_cmp_rd_rs2_b25+0x18>
    3db0:	7240046f          	jal	x8,44d4 <failedtest_x8_x7>
    3db4:	00003da4          	.word	0x00003da4
    3db8:	0000e782          	.word	0x0000e782
    3dbc:	004e8e93          	addi	x29,x29,4

# Testcase cmp_rd_rs2 (Test rd = rs2 = x26)
  RVTEST_TESTDATA_LOAD_INT(x2, x0) # load rs1: x0 = 0xfae048fc
    3dc0:	00012003          	lw	x0,0(x2)
    3dc4:	00410113          	addi	x2,x2,4
  RVTEST_TESTDATA_LOAD_INT(x2, x26) # load rs2: x26 = 0xd9daba55
    3dc8:	00012d03          	lw	x26,0(x2)
    3dcc:	00410113          	addi	x2,x2,4

00003dd0 <I_sll_cg_cmp_rd_rs2_b26>:
I_sll_cg_cmp_rd_rs2_b26:
  sll x26, x0, x26 # perform operation
    3dd0:	01a01d33          	sll	x26,x0,x26
  # Check if x26 contains the expected result. x29 is the signature ptr, x8 is the link ptr, x7 is a temp reg.
  RVTEST_SIGUPD(x29, x8, x7, x26, I_sll_cg_cmp_rd_rs2_b26, I_sll_cg_cmp_rd_rs2_b26_str)
    3dd4:	000ea383          	lw	x7,0(x29)
    3dd8:	01a38863          	beq	x7,x26,3de8 <I_sll_cg_cmp_rd_rs2_b26+0x18>
    3ddc:	6f80046f          	jal	x8,44d4 <failedtest_x8_x7>
    3de0:	00003dd0          	.word	0x00003dd0
    3de4:	0000e7b6          	.word	0x0000e7b6
    3de8:	004e8e93          	addi	x29,x29,4

# Testcase cmp_rd_rs2 (Test rd = rs2 = x27)
  RVTEST_TESTDATA_LOAD_INT(x2, x20) # load rs1: x20 = 0x7f7e0df9
    3dec:	00012a03          	lw	x20,0(x2)
    3df0:	00410113          	addi	x2,x2,4
  RVTEST_TESTDATA_LOAD_INT(x2, x27) # load rs2: x27 = 0xd7d5d77d
    3df4:	00012d83          	lw	x27,0(x2)
    3df8:	00410113          	addi	x2,x2,4

00003dfc <I_sll_cg_cmp_rd_rs2_b27>:
I_sll_cg_cmp_rd_rs2_b27:
  sll x27, x20, x27 # perform operation
    3dfc:	01ba1db3          	sll	x27,x20,x27
  # Check if x27 contains the expected result. x29 is the signature ptr, x8 is the link ptr, x7 is a temp reg.
  RVTEST_SIGUPD(x29, x8, x7, x27, I_sll_cg_cmp_rd_rs2_b27, I_sll_cg_cmp_rd_rs2_b27_str)
    3e00:	000ea383          	lw	x7,0(x29)
    3e04:	01b38863          	beq	x7,x27,3e14 <I_sll_cg_cmp_rd_rs2_b27+0x18>
    3e08:	6cc0046f          	jal	x8,44d4 <failedtest_x8_x7>
    3e0c:	00003dfc          	.word	0x00003dfc
    3e10:	0000e7ea          	.word	0x0000e7ea
    3e14:	004e8e93          	addi	x29,x29,4

# Testcase cmp_rd_rs2 (Test rd = rs2 = x28)
  RVTEST_TESTDATA_LOAD_INT(x2, x14) # load rs1: x14 = 0x982602fd
    3e18:	00012703          	lw	x14,0(x2)
    3e1c:	00410113          	addi	x2,x2,4
  RVTEST_TESTDATA_LOAD_INT(x2, x28) # load rs2: x28 = 0x488dbc6d
    3e20:	00012e03          	lw	x28,0(x2)
    3e24:	00410113          	addi	x2,x2,4

00003e28 <I_sll_cg_cmp_rd_rs2_b28>:
I_sll_cg_cmp_rd_rs2_b28:
  sll x28, x14, x28 # perform operation
    3e28:	01c71e33          	sll	x28,x14,x28
  # Check if x28 contains the expected result. x29 is the signature ptr, x8 is the link ptr, x7 is a temp reg.
  RVTEST_SIGUPD(x29, x8, x7, x28, I_sll_cg_cmp_rd_rs2_b28, I_sll_cg_cmp_rd_rs2_b28_str)
    3e2c:	000ea383          	lw	x7,0(x29)
    3e30:	01c38863          	beq	x7,x28,3e40 <I_sll_cg_cmp_rd_rs2_b28+0x18>
    3e34:	6a00046f          	jal	x8,44d4 <failedtest_x8_x7>
    3e38:	00003e28          	.word	0x00003e28
    3e3c:	0000e81e          	.word	0x0000e81e
    3e40:	004e8e93          	addi	x29,x29,4

  mv x17, x29 # switch signature pointer register to avoid conflict with test
    3e44:	000e8893          	addi	x17,x29,0
# Testcase cmp_rd_rs2 (Test rd = rs2 = x29)
  RVTEST_TESTDATA_LOAD_INT(x2, x26) # load rs1: x26 = 0xbf761117
    3e48:	00012d03          	lw	x26,0(x2)
    3e4c:	00410113          	addi	x2,x2,4
  RVTEST_TESTDATA_LOAD_INT(x2, x29) # load rs2: x29 = 0xfd67e41c
    3e50:	00012e83          	lw	x29,0(x2)
    3e54:	00410113          	addi	x2,x2,4

00003e58 <I_sll_cg_cmp_rd_rs2_b29>:
I_sll_cg_cmp_rd_rs2_b29:
  sll x29, x26, x29 # perform operation
    3e58:	01dd1eb3          	sll	x29,x26,x29
  # Check if x29 contains the expected result. x17 is the signature ptr, x8 is the link ptr, x7 is a temp reg.
  RVTEST_SIGUPD(x17, x8, x7, x29, I_sll_cg_cmp_rd_rs2_b29, I_sll_cg_cmp_rd_rs2_b29_str)
    3e5c:	0008a383          	lw	x7,0(x17)
    3e60:	01d38863          	beq	x7,x29,3e70 <I_sll_cg_cmp_rd_rs2_b29+0x18>
    3e64:	6700046f          	jal	x8,44d4 <failedtest_x8_x7>
    3e68:	00003e58          	.word	0x00003e58
    3e6c:	0000e852          	.word	0x0000e852
    3e70:	00488893          	addi	x17,x17,4

# Testcase cmp_rd_rs2 (Test rd = rs2 = x30)
  RVTEST_TESTDATA_LOAD_INT(x2, x11) # load rs1: x11 = 0xab92b22f
    3e74:	00012583          	lw	x11,0(x2)
    3e78:	00410113          	addi	x2,x2,4
  RVTEST_TESTDATA_LOAD_INT(x2, x30) # load rs2: x30 = 0x4c9af766
    3e7c:	00012f03          	lw	x30,0(x2)
    3e80:	00410113          	addi	x2,x2,4

00003e84 <I_sll_cg_cmp_rd_rs2_b30>:
I_sll_cg_cmp_rd_rs2_b30:
  sll x30, x11, x30 # perform operation
    3e84:	01e59f33          	sll	x30,x11,x30
  # Check if x30 contains the expected result. x17 is the signature ptr, x8 is the link ptr, x7 is a temp reg.
  RVTEST_SIGUPD(x17, x8, x7, x30, I_sll_cg_cmp_rd_rs2_b30, I_sll_cg_cmp_rd_rs2_b30_str)
    3e88:	0008a383          	lw	x7,0(x17)
    3e8c:	01e38863          	beq	x7,x30,3e9c <I_sll_cg_cmp_rd_rs2_b30+0x18>
    3e90:	6440046f          	jal	x8,44d4 <failedtest_x8_x7>
    3e94:	00003e84          	.word	0x00003e84
    3e98:	0000e886          	.word	0x0000e886
    3e9c:	00488893          	addi	x17,x17,4

# Testcase cmp_rd_rs2 (Test rd = rs2 = x31)
  RVTEST_TESTDATA_LOAD_INT(x2, x15) # load rs1: x15 = 0xccb61efe
    3ea0:	00012783          	lw	x15,0(x2)
    3ea4:	00410113          	addi	x2,x2,4
  RVTEST_TESTDATA_LOAD_INT(x2, x31) # load rs2: x31 = 0xde9920e1
    3ea8:	00012f83          	lw	x31,0(x2)
    3eac:	00410113          	addi	x2,x2,4

00003eb0 <I_sll_cg_cmp_rd_rs2_b31>:
I_sll_cg_cmp_rd_rs2_b31:
  sll x31, x15, x31 # perform operation
    3eb0:	01f79fb3          	sll	x31,x15,x31
  # Check if x31 contains the expected result. x17 is the signature ptr, x8 is the link ptr, x7 is a temp reg.
  RVTEST_SIGUPD(x17, x8, x7, x31, I_sll_cg_cmp_rd_rs2_b31, I_sll_cg_cmp_rd_rs2_b31_str)
    3eb4:	0008a383          	lw	x7,0(x17)
    3eb8:	01f38863          	beq	x7,x31,3ec8 <I_sll_cg_cmp_rd_rs2_b31+0x18>
    3ebc:	6180046f          	jal	x8,44d4 <failedtest_x8_x7>
    3ec0:	00003eb0          	.word	0x00003eb0
    3ec4:	0000e8ba          	.word	0x0000e8ba
    3ec8:	00488893          	addi	x17,x17,4
/////////////////////////////////
// cmp_rd_rs1_rs2
/////////////////////////////////

# Testcase cmp_rd_rs1_rs2 (Test rd = rs1 = rs2 = x0)
  RVTEST_TESTDATA_LOAD_INT(x2, x0) # load rs1: x0 = 0x21907fd7
    3ecc:	00012003          	lw	x0,0(x2)
    3ed0:	00410113          	addi	x2,x2,4
  RVTEST_TESTDATA_LOAD_INT(x2, x0) # load rs2: x0 = 0x633ef918
    3ed4:	00012003          	lw	x0,0(x2)
    3ed8:	00410113          	addi	x2,x2,4

00003edc <I_sll_cg_cmp_rd_rs1_rs2_b0>:
I_sll_cg_cmp_rd_rs1_rs2_b0:
  sll x0, x0, x0 # perform operation
    3edc:	00001033          	sll	x0,x0,x0
  # Check if x0 contains the expected result. x17 is the signature ptr, x8 is the link ptr, x7 is a temp reg.
  RVTEST_SIGUPD(x17, x8, x7, x0, I_sll_cg_cmp_rd_rs1_rs2_b0, I_sll_cg_cmp_rd_rs1_rs2_b0_str)
    3ee0:	0008a383          	lw	x7,0(x17)
    3ee4:	00038863          	beq	x7,x0,3ef4 <I_sll_cg_cmp_rd_rs1_rs2_b0+0x18>
    3ee8:	5ec0046f          	jal	x8,44d4 <failedtest_x8_x7>
    3eec:	00003edc          	.word	0x00003edc
    3ef0:	0000e8ee          	.word	0x0000e8ee
    3ef4:	00488893          	addi	x17,x17,4

# Testcase cmp_rd_rs1_rs2 (Test rd = rs1 = rs2 = x1)
  RVTEST_TESTDATA_LOAD_INT(x2, x1) # load rs1: x1 = 0x66692699
    3ef8:	00012083          	lw	x1,0(x2)
    3efc:	00410113          	addi	x2,x2,4
  RVTEST_TESTDATA_LOAD_INT(x2, x1) # load rs2: x1 = 0xd94240bf
    3f00:	00012083          	lw	x1,0(x2)
    3f04:	00410113          	addi	x2,x2,4

00003f08 <I_sll_cg_cmp_rd_rs1_rs2_b1>:
I_sll_cg_cmp_rd_rs1_rs2_b1:
  sll x1, x1, x1 # perform operation
    3f08:	001090b3          	sll	x1,x1,x1
  # Check if x1 contains the expected result. x17 is the signature ptr, x8 is the link ptr, x7 is a temp reg.
  RVTEST_SIGUPD(x17, x8, x7, x1, I_sll_cg_cmp_rd_rs1_rs2_b1, I_sll_cg_cmp_rd_rs1_rs2_b1_str)
    3f0c:	0008a383          	lw	x7,0(x17)
    3f10:	00138863          	beq	x7,x1,3f20 <I_sll_cg_cmp_rd_rs1_rs2_b1+0x18>
    3f14:	5c00046f          	jal	x8,44d4 <failedtest_x8_x7>
    3f18:	00003f08          	.word	0x00003f08
    3f1c:	0000e925          	.word	0x0000e925
    3f20:	00488893          	addi	x17,x17,4

  mv x25, x2 # switch data pointer register to avoid conflict with test
    3f24:	00010c93          	addi	x25,x2,0
# Testcase cmp_rd_rs1_rs2 (Test rd = rs1 = rs2 = x2)
  RVTEST_TESTDATA_LOAD_INT(x25, x2) # load rs1: x2 = 0x695d63e6
    3f28:	000ca103          	lw	x2,0(x25)
    3f2c:	004c8c93          	addi	x25,x25,4
  RVTEST_TESTDATA_LOAD_INT(x25, x2) # load rs2: x2 = 0x5cdbd2f0
    3f30:	000ca103          	lw	x2,0(x25)
    3f34:	004c8c93          	addi	x25,x25,4

00003f38 <I_sll_cg_cmp_rd_rs1_rs2_b2>:
I_sll_cg_cmp_rd_rs1_rs2_b2:
  sll x2, x2, x2 # perform operation
    3f38:	00211133          	sll	x2,x2,x2
  # Check if x2 contains the expected result. x17 is the signature ptr, x8 is the link ptr, x7 is a temp reg.
  RVTEST_SIGUPD(x17, x8, x7, x2, I_sll_cg_cmp_rd_rs1_rs2_b2, I_sll_cg_cmp_rd_rs1_rs2_b2_str)
    3f3c:	0008a383          	lw	x7,0(x17)
    3f40:	00238863          	beq	x7,x2,3f50 <I_sll_cg_cmp_rd_rs1_rs2_b2+0x18>
    3f44:	5900046f          	jal	x8,44d4 <failedtest_x8_x7>
    3f48:	00003f38          	.word	0x00003f38
    3f4c:	0000e95c          	.word	0x0000e95c
    3f50:	00488893          	addi	x17,x17,4

# Testcase cmp_rd_rs1_rs2 (Test rd = rs1 = rs2 = x3)
  RVTEST_TESTDATA_LOAD_INT(x25, x3) # load rs1: x3 = 0xb463d769
    3f54:	000ca183          	lw	x3,0(x25)
    3f58:	004c8c93          	addi	x25,x25,4
  RVTEST_TESTDATA_LOAD_INT(x25, x3) # load rs2: x3 = 0x655681dd
    3f5c:	000ca183          	lw	x3,0(x25)
    3f60:	004c8c93          	addi	x25,x25,4

00003f64 <I_sll_cg_cmp_rd_rs1_rs2_b3>:
I_sll_cg_cmp_rd_rs1_rs2_b3:
  sll x3, x3, x3 # perform operation
    3f64:	003191b3          	sll	x3,x3,x3
  # Check if x3 contains the expected result. x17 is the signature ptr, x8 is the link ptr, x7 is a temp reg.
  RVTEST_SIGUPD(x17, x8, x7, x3, I_sll_cg_cmp_rd_rs1_rs2_b3, I_sll_cg_cmp_rd_rs1_rs2_b3_str)
    3f68:	0008a383          	lw	x7,0(x17)
    3f6c:	00338863          	beq	x7,x3,3f7c <I_sll_cg_cmp_rd_rs1_rs2_b3+0x18>
    3f70:	5640046f          	jal	x8,44d4 <failedtest_x8_x7>
    3f74:	00003f64          	.word	0x00003f64
    3f78:	0000e993          	.word	0x0000e993
    3f7c:	00488893          	addi	x17,x17,4

# Testcase cmp_rd_rs1_rs2 (Test rd = rs1 = rs2 = x4)
  RVTEST_TESTDATA_LOAD_INT(x25, x4) # load rs1: x4 = 0x343e1fc3
    3f80:	000ca203          	lw	x4,0(x25)
    3f84:	004c8c93          	addi	x25,x25,4
  RVTEST_TESTDATA_LOAD_INT(x25, x4) # load rs2: x4 = 0xe86a4814
    3f88:	000ca203          	lw	x4,0(x25)
    3f8c:	004c8c93          	addi	x25,x25,4

00003f90 <I_sll_cg_cmp_rd_rs1_rs2_b4>:
I_sll_cg_cmp_rd_rs1_rs2_b4:
  sll x4, x4, x4 # perform operation
    3f90:	00421233          	sll	x4,x4,x4
  # Check if x4 contains the expected result. x17 is the signature ptr, x8 is the link ptr, x7 is a temp reg.
  RVTEST_SIGUPD(x17, x8, x7, x4, I_sll_cg_cmp_rd_rs1_rs2_b4, I_sll_cg_cmp_rd_rs1_rs2_b4_str)
    3f94:	0008a383          	lw	x7,0(x17)
    3f98:	00438863          	beq	x7,x4,3fa8 <I_sll_cg_cmp_rd_rs1_rs2_b4+0x18>
    3f9c:	5380046f          	jal	x8,44d4 <failedtest_x8_x7>
    3fa0:	00003f90          	.word	0x00003f90
    3fa4:	0000e9ca          	.word	0x0000e9ca
    3fa8:	00488893          	addi	x17,x17,4

# Testcase cmp_rd_rs1_rs2 (Test rd = rs1 = rs2 = x5)
  RVTEST_TESTDATA_LOAD_INT(x25, x5) # load rs1: x5 = 0xa1e2c0d6
    3fac:	000ca283          	lw	x5,0(x25)
    3fb0:	004c8c93          	addi	x25,x25,4
  RVTEST_TESTDATA_LOAD_INT(x25, x5) # load rs2: x5 = 0x19b3998a
    3fb4:	000ca283          	lw	x5,0(x25)
    3fb8:	004c8c93          	addi	x25,x25,4

00003fbc <I_sll_cg_cmp_rd_rs1_rs2_b5>:
I_sll_cg_cmp_rd_rs1_rs2_b5:
  sll x5, x5, x5 # perform operation
    3fbc:	005292b3          	sll	x5,x5,x5
  # Check if x5 contains the expected result. x17 is the signature ptr, x8 is the link ptr, x7 is a temp reg.
  RVTEST_SIGUPD(x17, x8, x7, x5, I_sll_cg_cmp_rd_rs1_rs2_b5, I_sll_cg_cmp_rd_rs1_rs2_b5_str)
    3fc0:	0008a383          	lw	x7,0(x17)
    3fc4:	00538863          	beq	x7,x5,3fd4 <I_sll_cg_cmp_rd_rs1_rs2_b5+0x18>
    3fc8:	50c0046f          	jal	x8,44d4 <failedtest_x8_x7>
    3fcc:	00003fbc          	.word	0x00003fbc
    3fd0:	0000ea01          	.word	0x0000ea01
    3fd4:	00488893          	addi	x17,x17,4

# Testcase cmp_rd_rs1_rs2 (Test rd = rs1 = rs2 = x6)
  RVTEST_TESTDATA_LOAD_INT(x25, x6) # load rs1: x6 = 0x3d96a331
    3fd8:	000ca303          	lw	x6,0(x25)
    3fdc:	004c8c93          	addi	x25,x25,4
  RVTEST_TESTDATA_LOAD_INT(x25, x6) # load rs2: x6 = 0x2d36a480
    3fe0:	000ca303          	lw	x6,0(x25)
    3fe4:	004c8c93          	addi	x25,x25,4

00003fe8 <I_sll_cg_cmp_rd_rs1_rs2_b6>:
I_sll_cg_cmp_rd_rs1_rs2_b6:
  sll x6, x6, x6 # perform operation
    3fe8:	00631333          	sll	x6,x6,x6
  # Check if x6 contains the expected result. x17 is the signature ptr, x8 is the link ptr, x7 is a temp reg.
  RVTEST_SIGUPD(x17, x8, x7, x6, I_sll_cg_cmp_rd_rs1_rs2_b6, I_sll_cg_cmp_rd_rs1_rs2_b6_str)
    3fec:	0008a383          	lw	x7,0(x17)
    3ff0:	00638863          	beq	x7,x6,4000 <I_sll_cg_cmp_rd_rs1_rs2_b6+0x18>
    3ff4:	4e00046f          	jal	x8,44d4 <failedtest_x8_x7>
    3ff8:	00003fe8          	.word	0x00003fe8
    3ffc:	0000ea38          	.word	0x0000ea38
    4000:	00488893          	addi	x17,x17,4

  mv x13, x7 # switch temp register to avoid conflict with test
    4004:	00038693          	addi	x13,x7,0
  mv x14, x8 # switch link pointer register to avoid conflict with test
    4008:	00040713          	addi	x14,x8,0
# Testcase cmp_rd_rs1_rs2 (Test rd = rs1 = rs2 = x7)
  RVTEST_TESTDATA_LOAD_INT(x25, x7) # load rs1: x7 = 0x3edc2643
    400c:	000ca383          	lw	x7,0(x25)
    4010:	004c8c93          	addi	x25,x25,4
  RVTEST_TESTDATA_LOAD_INT(x25, x7) # load rs2: x7 = 0x979cc8bc
    4014:	000ca383          	lw	x7,0(x25)
    4018:	004c8c93          	addi	x25,x25,4

0000401c <I_sll_cg_cmp_rd_rs1_rs2_b7>:
I_sll_cg_cmp_rd_rs1_rs2_b7:
  sll x7, x7, x7 # perform operation
    401c:	007393b3          	sll	x7,x7,x7
  # Check if x7 contains the expected result. x17 is the signature ptr, x14 is the link ptr, x13 is a temp reg.
  RVTEST_SIGUPD(x17, x14, x13, x7, I_sll_cg_cmp_rd_rs1_rs2_b7, I_sll_cg_cmp_rd_rs1_rs2_b7_str)
    4020:	0008a683          	lw	x13,0(x17)
    4024:	00768863          	beq	x13,x7,4034 <I_sll_cg_cmp_rd_rs1_rs2_b7+0x18>
    4028:	4d40076f          	jal	x14,44fc <failedtest_x14_x13>
    402c:	0000401c          	.word	0x0000401c
    4030:	0000ea6f          	.word	0x0000ea6f
    4034:	00488893          	addi	x17,x17,4

# Testcase cmp_rd_rs1_rs2 (Test rd = rs1 = rs2 = x8)
  RVTEST_TESTDATA_LOAD_INT(x25, x8) # load rs1: x8 = 0x6d2dc754
    4038:	000ca403          	lw	x8,0(x25)
    403c:	004c8c93          	addi	x25,x25,4
  RVTEST_TESTDATA_LOAD_INT(x25, x8) # load rs2: x8 = 0xe9fb4660
    4040:	000ca403          	lw	x8,0(x25)
    4044:	004c8c93          	addi	x25,x25,4

00004048 <I_sll_cg_cmp_rd_rs1_rs2_b8>:
I_sll_cg_cmp_rd_rs1_rs2_b8:
  sll x8, x8, x8 # perform operation
    4048:	00841433          	sll	x8,x8,x8
  # Check if x8 contains the expected result. x17 is the signature ptr, x14 is the link ptr, x13 is a temp reg.
  RVTEST_SIGUPD(x17, x14, x13, x8, I_sll_cg_cmp_rd_rs1_rs2_b8, I_sll_cg_cmp_rd_rs1_rs2_b8_str)
    404c:	0008a683          	lw	x13,0(x17)
    4050:	00868863          	beq	x13,x8,4060 <I_sll_cg_cmp_rd_rs1_rs2_b8+0x18>
    4054:	4a80076f          	jal	x14,44fc <failedtest_x14_x13>
    4058:	00004048          	.word	0x00004048
    405c:	0000eaa6          	.word	0x0000eaa6
    4060:	00488893          	addi	x17,x17,4

# Testcase cmp_rd_rs1_rs2 (Test rd = rs1 = rs2 = x9)
  RVTEST_TESTDATA_LOAD_INT(x25, x9) # load rs1: x9 = 0xd4f147c8
    4064:	000ca483          	lw	x9,0(x25)
    4068:	004c8c93          	addi	x25,x25,4
  RVTEST_TESTDATA_LOAD_INT(x25, x9) # load rs2: x9 = 0xa134557d
    406c:	000ca483          	lw	x9,0(x25)
    4070:	004c8c93          	addi	x25,x25,4

00004074 <I_sll_cg_cmp_rd_rs1_rs2_b9>:
I_sll_cg_cmp_rd_rs1_rs2_b9:
  sll x9, x9, x9 # perform operation
    4074:	009494b3          	sll	x9,x9,x9
  # Check if x9 contains the expected result. x17 is the signature ptr, x14 is the link ptr, x13 is a temp reg.
  RVTEST_SIGUPD(x17, x14, x13, x9, I_sll_cg_cmp_rd_rs1_rs2_b9, I_sll_cg_cmp_rd_rs1_rs2_b9_str)
    4078:	0008a683          	lw	x13,0(x17)
    407c:	00968863          	beq	x13,x9,408c <I_sll_cg_cmp_rd_rs1_rs2_b9+0x18>
    4080:	47c0076f          	jal	x14,44fc <failedtest_x14_x13>
    4084:	00004074          	.word	0x00004074
    4088:	0000eadd          	.word	0x0000eadd
    408c:	00488893          	addi	x17,x17,4

# Testcase cmp_rd_rs1_rs2 (Test rd = rs1 = rs2 = x10)
  RVTEST_TESTDATA_LOAD_INT(x25, x10) # load rs1: x10 = 0x1a3dfa94
    4090:	000ca503          	lw	x10,0(x25)
    4094:	004c8c93          	addi	x25,x25,4
  RVTEST_TESTDATA_LOAD_INT(x25, x10) # load rs2: x10 = 0x8efed169
    4098:	000ca503          	lw	x10,0(x25)
    409c:	004c8c93          	addi	x25,x25,4

000040a0 <I_sll_cg_cmp_rd_rs1_rs2_b10>:
I_sll_cg_cmp_rd_rs1_rs2_b10:
  sll x10, x10, x10 # perform operation
    40a0:	00a51533          	sll	x10,x10,x10
  # Check if x10 contains the expected result. x17 is the signature ptr, x14 is the link ptr, x13 is a temp reg.
  RVTEST_SIGUPD(x17, x14, x13, x10, I_sll_cg_cmp_rd_rs1_rs2_b10, I_sll_cg_cmp_rd_rs1_rs2_b10_str)
    40a4:	0008a683          	lw	x13,0(x17)
    40a8:	00a68863          	beq	x13,x10,40b8 <I_sll_cg_cmp_rd_rs1_rs2_b10+0x18>
    40ac:	4500076f          	jal	x14,44fc <failedtest_x14_x13>
    40b0:	000040a0          	.word	0x000040a0
    40b4:	0000eb14          	.word	0x0000eb14
    40b8:	00488893          	addi	x17,x17,4

# Testcase cmp_rd_rs1_rs2 (Test rd = rs1 = rs2 = x11)
  RVTEST_TESTDATA_LOAD_INT(x25, x11) # load rs1: x11 = 0x25dba85f
    40bc:	000ca583          	lw	x11,0(x25)
    40c0:	004c8c93          	addi	x25,x25,4
  RVTEST_TESTDATA_LOAD_INT(x25, x11) # load rs2: x11 = 0x234c7d6f
    40c4:	000ca583          	lw	x11,0(x25)
    40c8:	004c8c93          	addi	x25,x25,4

000040cc <I_sll_cg_cmp_rd_rs1_rs2_b11>:
I_sll_cg_cmp_rd_rs1_rs2_b11:
  sll x11, x11, x11 # perform operation
    40cc:	00b595b3          	sll	x11,x11,x11
  # Check if x11 contains the expected result. x17 is the signature ptr, x14 is the link ptr, x13 is a temp reg.
  RVTEST_SIGUPD(x17, x14, x13, x11, I_sll_cg_cmp_rd_rs1_rs2_b11, I_sll_cg_cmp_rd_rs1_rs2_b11_str)
    40d0:	0008a683          	lw	x13,0(x17)
    40d4:	00b68863          	beq	x13,x11,40e4 <I_sll_cg_cmp_rd_rs1_rs2_b11+0x18>
    40d8:	4240076f          	jal	x14,44fc <failedtest_x14_x13>
    40dc:	000040cc          	.word	0x000040cc
    40e0:	0000eb4c          	.word	0x0000eb4c
    40e4:	00488893          	addi	x17,x17,4

# Testcase cmp_rd_rs1_rs2 (Test rd = rs1 = rs2 = x12)
  RVTEST_TESTDATA_LOAD_INT(x25, x12) # load rs1: x12 = 0xa1b561c0
    40e8:	000ca603          	lw	x12,0(x25)
    40ec:	004c8c93          	addi	x25,x25,4
  RVTEST_TESTDATA_LOAD_INT(x25, x12) # load rs2: x12 = 0xc9eb90fd
    40f0:	000ca603          	lw	x12,0(x25)
    40f4:	004c8c93          	addi	x25,x25,4

000040f8 <I_sll_cg_cmp_rd_rs1_rs2_b12>:
I_sll_cg_cmp_rd_rs1_rs2_b12:
  sll x12, x12, x12 # perform operation
    40f8:	00c61633          	sll	x12,x12,x12
  # Check if x12 contains the expected result. x17 is the signature ptr, x14 is the link ptr, x13 is a temp reg.
  RVTEST_SIGUPD(x17, x14, x13, x12, I_sll_cg_cmp_rd_rs1_rs2_b12, I_sll_cg_cmp_rd_rs1_rs2_b12_str)
    40fc:	0008a683          	lw	x13,0(x17)
    4100:	00c68863          	beq	x13,x12,4110 <I_sll_cg_cmp_rd_rs1_rs2_b12+0x18>
    4104:	3f80076f          	jal	x14,44fc <failedtest_x14_x13>
    4108:	000040f8          	.word	0x000040f8
    410c:	0000eb84          	.word	0x0000eb84
    4110:	00488893          	addi	x17,x17,4

  mv x7, x13 # switch temp register to avoid conflict with test
    4114:	00068393          	addi	x7,x13,0
  mv x8, x14 # switch link pointer register to avoid conflict with test
    4118:	00070413          	addi	x8,x14,0
# Testcase cmp_rd_rs1_rs2 (Test rd = rs1 = rs2 = x13)
  RVTEST_TESTDATA_LOAD_INT(x25, x13) # load rs1: x13 = 0x6387f0d4
    411c:	000ca683          	lw	x13,0(x25)
    4120:	004c8c93          	addi	x25,x25,4
  RVTEST_TESTDATA_LOAD_INT(x25, x13) # load rs2: x13 = 0x9e77dcfb
    4124:	000ca683          	lw	x13,0(x25)
    4128:	004c8c93          	addi	x25,x25,4

0000412c <I_sll_cg_cmp_rd_rs1_rs2_b13>:
I_sll_cg_cmp_rd_rs1_rs2_b13:
  sll x13, x13, x13 # perform operation
    412c:	00d696b3          	sll	x13,x13,x13
  # Check if x13 contains the expected result. x17 is the signature ptr, x8 is the link ptr, x7 is a temp reg.
  RVTEST_SIGUPD(x17, x8, x7, x13, I_sll_cg_cmp_rd_rs1_rs2_b13, I_sll_cg_cmp_rd_rs1_rs2_b13_str)
    4130:	0008a383          	lw	x7,0(x17)
    4134:	00d38863          	beq	x7,x13,4144 <I_sll_cg_cmp_rd_rs1_rs2_b13+0x18>
    4138:	39c0046f          	jal	x8,44d4 <failedtest_x8_x7>
    413c:	0000412c          	.word	0x0000412c
    4140:	0000ebbc          	.word	0x0000ebbc
    4144:	00488893          	addi	x17,x17,4

# Testcase cmp_rd_rs1_rs2 (Test rd = rs1 = rs2 = x14)
  RVTEST_TESTDATA_LOAD_INT(x25, x14) # load rs1: x14 = 0xb618360f
    4148:	000ca703          	lw	x14,0(x25)
    414c:	004c8c93          	addi	x25,x25,4
  RVTEST_TESTDATA_LOAD_INT(x25, x14) # load rs2: x14 = 0x712cb407
    4150:	000ca703          	lw	x14,0(x25)
    4154:	004c8c93          	addi	x25,x25,4

00004158 <I_sll_cg_cmp_rd_rs1_rs2_b14>:
I_sll_cg_cmp_rd_rs1_rs2_b14:
  sll x14, x14, x14 # perform operation
    4158:	00e71733          	sll	x14,x14,x14
  # Check if x14 contains the expected result. x17 is the signature ptr, x8 is the link ptr, x7 is a temp reg.
  RVTEST_SIGUPD(x17, x8, x7, x14, I_sll_cg_cmp_rd_rs1_rs2_b14, I_sll_cg_cmp_rd_rs1_rs2_b14_str)
    415c:	0008a383          	lw	x7,0(x17)
    4160:	00e38863          	beq	x7,x14,4170 <I_sll_cg_cmp_rd_rs1_rs2_b14+0x18>
    4164:	3700046f          	jal	x8,44d4 <failedtest_x8_x7>
    4168:	00004158          	.word	0x00004158
    416c:	0000ebf4          	.word	0x0000ebf4
    4170:	00488893          	addi	x17,x17,4

# Testcase cmp_rd_rs1_rs2 (Test rd = rs1 = rs2 = x15)
  RVTEST_TESTDATA_LOAD_INT(x25, x15) # load rs1: x15 = 0x64b485fe
    4174:	000ca783          	lw	x15,0(x25)
    4178:	004c8c93          	addi	x25,x25,4
  RVTEST_TESTDATA_LOAD_INT(x25, x15) # load rs2: x15 = 0xb6f0c3c7
    417c:	000ca783          	lw	x15,0(x25)
    4180:	004c8c93          	addi	x25,x25,4

00004184 <I_sll_cg_cmp_rd_rs1_rs2_b15>:
I_sll_cg_cmp_rd_rs1_rs2_b15:
  sll x15, x15, x15 # perform operation
    4184:	00f797b3          	sll	x15,x15,x15
  # Check if x15 contains the expected result. x17 is the signature ptr, x8 is the link ptr, x7 is a temp reg.
  RVTEST_SIGUPD(x17, x8, x7, x15, I_sll_cg_cmp_rd_rs1_rs2_b15, I_sll_cg_cmp_rd_rs1_rs2_b15_str)
    4188:	0008a383          	lw	x7,0(x17)
    418c:	00f38863          	beq	x7,x15,419c <I_sll_cg_cmp_rd_rs1_rs2_b15+0x18>
    4190:	3440046f          	jal	x8,44d4 <failedtest_x8_x7>
    4194:	00004184          	.word	0x00004184
    4198:	0000ec2c          	.word	0x0000ec2c
    419c:	00488893          	addi	x17,x17,4

# Testcase cmp_rd_rs1_rs2 (Test rd = rs1 = rs2 = x16)
  RVTEST_TESTDATA_LOAD_INT(x25, x16) # load rs1: x16 = 0x33722e41
    41a0:	000ca803          	lw	x16,0(x25)
    41a4:	004c8c93          	addi	x25,x25,4
  RVTEST_TESTDATA_LOAD_INT(x25, x16) # load rs2: x16 = 0x5ee4ce7f
    41a8:	000ca803          	lw	x16,0(x25)
    41ac:	004c8c93          	addi	x25,x25,4

000041b0 <I_sll_cg_cmp_rd_rs1_rs2_b16>:
I_sll_cg_cmp_rd_rs1_rs2_b16:
  sll x16, x16, x16 # perform operation
    41b0:	01081833          	sll	x16,x16,x16
  # Check if x16 contains the expected result. x17 is the signature ptr, x8 is the link ptr, x7 is a temp reg.
  RVTEST_SIGUPD(x17, x8, x7, x16, I_sll_cg_cmp_rd_rs1_rs2_b16, I_sll_cg_cmp_rd_rs1_rs2_b16_str)
    41b4:	0008a383          	lw	x7,0(x17)
    41b8:	01038863          	beq	x7,x16,41c8 <I_sll_cg_cmp_rd_rs1_rs2_b16+0x18>
    41bc:	3180046f          	jal	x8,44d4 <failedtest_x8_x7>
    41c0:	000041b0          	.word	0x000041b0
    41c4:	0000ec64          	.word	0x0000ec64
    41c8:	00488893          	addi	x17,x17,4

  mv x9, x17 # switch signature pointer register to avoid conflict with test
    41cc:	00088493          	addi	x9,x17,0
# Testcase cmp_rd_rs1_rs2 (Test rd = rs1 = rs2 = x17)
  RVTEST_TESTDATA_LOAD_INT(x25, x17) # load rs1: x17 = 0xde09fc8f
    41d0:	000ca883          	lw	x17,0(x25)
    41d4:	004c8c93          	addi	x25,x25,4
  RVTEST_TESTDATA_LOAD_INT(x25, x17) # load rs2: x17 = 0x23e2e1cd
    41d8:	000ca883          	lw	x17,0(x25)
    41dc:	004c8c93          	addi	x25,x25,4

000041e0 <I_sll_cg_cmp_rd_rs1_rs2_b17>:
I_sll_cg_cmp_rd_rs1_rs2_b17:
  sll x17, x17, x17 # perform operation
    41e0:	011898b3          	sll	x17,x17,x17
  # Check if x17 contains the expected result. x9 is the signature ptr, x8 is the link ptr, x7 is a temp reg.
  RVTEST_SIGUPD(x9, x8, x7, x17, I_sll_cg_cmp_rd_rs1_rs2_b17, I_sll_cg_cmp_rd_rs1_rs2_b17_str)
    41e4:	0004a383          	lw	x7,0(x9)
    41e8:	01138863          	beq	x7,x17,41f8 <I_sll_cg_cmp_rd_rs1_rs2_b17+0x18>
    41ec:	2e80046f          	jal	x8,44d4 <failedtest_x8_x7>
    41f0:	000041e0          	.word	0x000041e0
    41f4:	0000ec9c          	.word	0x0000ec9c
    41f8:	00448493          	addi	x9,x9,4

# Testcase cmp_rd_rs1_rs2 (Test rd = rs1 = rs2 = x18)
  RVTEST_TESTDATA_LOAD_INT(x25, x18) # load rs1: x18 = 0xc982fcce
    41fc:	000ca903          	lw	x18,0(x25)
    4200:	004c8c93          	addi	x25,x25,4
  RVTEST_TESTDATA_LOAD_INT(x25, x18) # load rs2: x18 = 0x6c0783b6
    4204:	000ca903          	lw	x18,0(x25)
    4208:	004c8c93          	addi	x25,x25,4

0000420c <I_sll_cg_cmp_rd_rs1_rs2_b18>:
I_sll_cg_cmp_rd_rs1_rs2_b18:
  sll x18, x18, x18 # perform operation
    420c:	01291933          	sll	x18,x18,x18
  # Check if x18 contains the expected result. x9 is the signature ptr, x8 is the link ptr, x7 is a temp reg.
  RVTEST_SIGUPD(x9, x8, x7, x18, I_sll_cg_cmp_rd_rs1_rs2_b18, I_sll_cg_cmp_rd_rs1_rs2_b18_str)
    4210:	0004a383          	lw	x7,0(x9)
    4214:	01238863          	beq	x7,x18,4224 <I_sll_cg_cmp_rd_rs1_rs2_b18+0x18>
    4218:	2bc0046f          	jal	x8,44d4 <failedtest_x8_x7>
    421c:	0000420c          	.word	0x0000420c
    4220:	0000ecd4          	.word	0x0000ecd4
    4224:	00448493          	addi	x9,x9,4

# Testcase cmp_rd_rs1_rs2 (Test rd = rs1 = rs2 = x19)
  RVTEST_TESTDATA_LOAD_INT(x25, x19) # load rs1: x19 = 0xd1de4363
    4228:	000ca983          	lw	x19,0(x25)
    422c:	004c8c93          	addi	x25,x25,4
  RVTEST_TESTDATA_LOAD_INT(x25, x19) # load rs2: x19 = 0x6a4e5a82
    4230:	000ca983          	lw	x19,0(x25)
    4234:	004c8c93          	addi	x25,x25,4

00004238 <I_sll_cg_cmp_rd_rs1_rs2_b19>:
I_sll_cg_cmp_rd_rs1_rs2_b19:
  sll x19, x19, x19 # perform operation
    4238:	013999b3          	sll	x19,x19,x19
  # Check if x19 contains the expected result. x9 is the signature ptr, x8 is the link ptr, x7 is a temp reg.
  RVTEST_SIGUPD(x9, x8, x7, x19, I_sll_cg_cmp_rd_rs1_rs2_b19, I_sll_cg_cmp_rd_rs1_rs2_b19_str)
    423c:	0004a383          	lw	x7,0(x9)
    4240:	01338863          	beq	x7,x19,4250 <I_sll_cg_cmp_rd_rs1_rs2_b19+0x18>
    4244:	2900046f          	jal	x8,44d4 <failedtest_x8_x7>
    4248:	00004238          	.word	0x00004238
    424c:	0000ed0c          	.word	0x0000ed0c
    4250:	00448493          	addi	x9,x9,4

# Testcase cmp_rd_rs1_rs2 (Test rd = rs1 = rs2 = x20)
  RVTEST_TESTDATA_LOAD_INT(x25, x20) # load rs1: x20 = 0x300ce26b
    4254:	000caa03          	lw	x20,0(x25)
    4258:	004c8c93          	addi	x25,x25,4
  RVTEST_TESTDATA_LOAD_INT(x25, x20) # load rs2: x20 = 0x97a49ccd
    425c:	000caa03          	lw	x20,0(x25)
    4260:	004c8c93          	addi	x25,x25,4

00004264 <I_sll_cg_cmp_rd_rs1_rs2_b20>:
I_sll_cg_cmp_rd_rs1_rs2_b20:
  sll x20, x20, x20 # perform operation
    4264:	014a1a33          	sll	x20,x20,x20
  # Check if x20 contains the expected result. x9 is the signature ptr, x8 is the link ptr, x7 is a temp reg.
  RVTEST_SIGUPD(x9, x8, x7, x20, I_sll_cg_cmp_rd_rs1_rs2_b20, I_sll_cg_cmp_rd_rs1_rs2_b20_str)
    4268:	0004a383          	lw	x7,0(x9)
    426c:	01438863          	beq	x7,x20,427c <I_sll_cg_cmp_rd_rs1_rs2_b20+0x18>
    4270:	2640046f          	jal	x8,44d4 <failedtest_x8_x7>
    4274:	00004264          	.word	0x00004264
    4278:	0000ed44          	.word	0x0000ed44
    427c:	00448493          	addi	x9,x9,4

# Testcase cmp_rd_rs1_rs2 (Test rd = rs1 = rs2 = x21)
  RVTEST_TESTDATA_LOAD_INT(x25, x21) # load rs1: x21 = 0xa3af294f
    4280:	000caa83          	lw	x21,0(x25)
    4284:	004c8c93          	addi	x25,x25,4
  RVTEST_TESTDATA_LOAD_INT(x25, x21) # load rs2: x21 = 0xa6f8f992
    4288:	000caa83          	lw	x21,0(x25)
    428c:	004c8c93          	addi	x25,x25,4

00004290 <I_sll_cg_cmp_rd_rs1_rs2_b21>:
I_sll_cg_cmp_rd_rs1_rs2_b21:
  sll x21, x21, x21 # perform operation
    4290:	015a9ab3          	sll	x21,x21,x21
  # Check if x21 contains the expected result. x9 is the signature ptr, x8 is the link ptr, x7 is a temp reg.
  RVTEST_SIGUPD(x9, x8, x7, x21, I_sll_cg_cmp_rd_rs1_rs2_b21, I_sll_cg_cmp_rd_rs1_rs2_b21_str)
    4294:	0004a383          	lw	x7,0(x9)
    4298:	01538863          	beq	x7,x21,42a8 <I_sll_cg_cmp_rd_rs1_rs2_b21+0x18>
    429c:	2380046f          	jal	x8,44d4 <failedtest_x8_x7>
    42a0:	00004290          	.word	0x00004290
    42a4:	0000ed7c          	.word	0x0000ed7c
    42a8:	00448493          	addi	x9,x9,4

# Testcase cmp_rd_rs1_rs2 (Test rd = rs1 = rs2 = x22)
  RVTEST_TESTDATA_LOAD_INT(x25, x22) # load rs1: x22 = 0x11a10443
    42ac:	000cab03          	lw	x22,0(x25)
    42b0:	004c8c93          	addi	x25,x25,4
  RVTEST_TESTDATA_LOAD_INT(x25, x22) # load rs2: x22 = 0x356b7dcb
    42b4:	000cab03          	lw	x22,0(x25)
    42b8:	004c8c93          	addi	x25,x25,4

000042bc <I_sll_cg_cmp_rd_rs1_rs2_b22>:
I_sll_cg_cmp_rd_rs1_rs2_b22:
  sll x22, x22, x22 # perform operation
    42bc:	016b1b33          	sll	x22,x22,x22
  # Check if x22 contains the expected result. x9 is the signature ptr, x8 is the link ptr, x7 is a temp reg.
  RVTEST_SIGUPD(x9, x8, x7, x22, I_sll_cg_cmp_rd_rs1_rs2_b22, I_sll_cg_cmp_rd_rs1_rs2_b22_str)
    42c0:	0004a383          	lw	x7,0(x9)
    42c4:	01638863          	beq	x7,x22,42d4 <I_sll_cg_cmp_rd_rs1_rs2_b22+0x18>
    42c8:	20c0046f          	jal	x8,44d4 <failedtest_x8_x7>
    42cc:	000042bc          	.word	0x000042bc
    42d0:	0000edb4          	.word	0x0000edb4
    42d4:	00448493          	addi	x9,x9,4

# Testcase cmp_rd_rs1_rs2 (Test rd = rs1 = rs2 = x23)
  RVTEST_TESTDATA_LOAD_INT(x25, x23) # load rs1: x23 = 0x35dcfe57
    42d8:	000cab83          	lw	x23,0(x25)
    42dc:	004c8c93          	addi	x25,x25,4
  RVTEST_TESTDATA_LOAD_INT(x25, x23) # load rs2: x23 = 0x6e2e5365
    42e0:	000cab83          	lw	x23,0(x25)
    42e4:	004c8c93          	addi	x25,x25,4

000042e8 <I_sll_cg_cmp_rd_rs1_rs2_b23>:
I_sll_cg_cmp_rd_rs1_rs2_b23:
  sll x23, x23, x23 # perform operation
    42e8:	017b9bb3          	sll	x23,x23,x23
  # Check if x23 contains the expected result. x9 is the signature ptr, x8 is the link ptr, x7 is a temp reg.
  RVTEST_SIGUPD(x9, x8, x7, x23, I_sll_cg_cmp_rd_rs1_rs2_b23, I_sll_cg_cmp_rd_rs1_rs2_b23_str)
    42ec:	0004a383          	lw	x7,0(x9)
    42f0:	01738863          	beq	x7,x23,4300 <I_sll_cg_cmp_rd_rs1_rs2_b23+0x18>
    42f4:	1e00046f          	jal	x8,44d4 <failedtest_x8_x7>
    42f8:	000042e8          	.word	0x000042e8
    42fc:	0000edec          	.word	0x0000edec
    4300:	00448493          	addi	x9,x9,4

# Testcase cmp_rd_rs1_rs2 (Test rd = rs1 = rs2 = x24)
  RVTEST_TESTDATA_LOAD_INT(x25, x24) # load rs1: x24 = 0x4b6ff3dd
    4304:	000cac03          	lw	x24,0(x25)
    4308:	004c8c93          	addi	x25,x25,4
  RVTEST_TESTDATA_LOAD_INT(x25, x24) # load rs2: x24 = 0xebd2024b
    430c:	000cac03          	lw	x24,0(x25)
    4310:	004c8c93          	addi	x25,x25,4

00004314 <I_sll_cg_cmp_rd_rs1_rs2_b24>:
I_sll_cg_cmp_rd_rs1_rs2_b24:
  sll x24, x24, x24 # perform operation
    4314:	018c1c33          	sll	x24,x24,x24
  # Check if x24 contains the expected result. x9 is the signature ptr, x8 is the link ptr, x7 is a temp reg.
  RVTEST_SIGUPD(x9, x8, x7, x24, I_sll_cg_cmp_rd_rs1_rs2_b24, I_sll_cg_cmp_rd_rs1_rs2_b24_str)
    4318:	0004a383          	lw	x7,0(x9)
    431c:	01838863          	beq	x7,x24,432c <I_sll_cg_cmp_rd_rs1_rs2_b24+0x18>
    4320:	1b40046f          	jal	x8,44d4 <failedtest_x8_x7>
    4324:	00004314          	.word	0x00004314
    4328:	0000ee24          	.word	0x0000ee24
    432c:	00448493          	addi	x9,x9,4

  mv x23, x25 # switch data pointer register to avoid conflict with test
    4330:	000c8b93          	addi	x23,x25,0
# Testcase cmp_rd_rs1_rs2 (Test rd = rs1 = rs2 = x25)
  RVTEST_TESTDATA_LOAD_INT(x23, x25) # load rs1: x25 = 0xde9a7137
    4334:	000bac83          	lw	x25,0(x23)
    4338:	004b8b93          	addi	x23,x23,4
  RVTEST_TESTDATA_LOAD_INT(x23, x25) # load rs2: x25 = 0x1cb93911
    433c:	000bac83          	lw	x25,0(x23)
    4340:	004b8b93          	addi	x23,x23,4

00004344 <I_sll_cg_cmp_rd_rs1_rs2_b25>:
I_sll_cg_cmp_rd_rs1_rs2_b25:
  sll x25, x25, x25 # perform operation
    4344:	019c9cb3          	sll	x25,x25,x25
  # Check if x25 contains the expected result. x9 is the signature ptr, x8 is the link ptr, x7 is a temp reg.
  RVTEST_SIGUPD(x9, x8, x7, x25, I_sll_cg_cmp_rd_rs1_rs2_b25, I_sll_cg_cmp_rd_rs1_rs2_b25_str)
    4348:	0004a383          	lw	x7,0(x9)
    434c:	01938863          	beq	x7,x25,435c <I_sll_cg_cmp_rd_rs1_rs2_b25+0x18>
    4350:	1840046f          	jal	x8,44d4 <failedtest_x8_x7>
    4354:	00004344          	.word	0x00004344
    4358:	0000ee5c          	.word	0x0000ee5c
    435c:	00448493          	addi	x9,x9,4

# Testcase cmp_rd_rs1_rs2 (Test rd = rs1 = rs2 = x26)
  RVTEST_TESTDATA_LOAD_INT(x23, x26) # load rs1: x26 = 0x4c30a052
    4360:	000bad03          	lw	x26,0(x23)
    4364:	004b8b93          	addi	x23,x23,4
  RVTEST_TESTDATA_LOAD_INT(x23, x26) # load rs2: x26 = 0x2d3f8a02
    4368:	000bad03          	lw	x26,0(x23)
    436c:	004b8b93          	addi	x23,x23,4

00004370 <I_sll_cg_cmp_rd_rs1_rs2_b26>:
I_sll_cg_cmp_rd_rs1_rs2_b26:
  sll x26, x26, x26 # perform operation
    4370:	01ad1d33          	sll	x26,x26,x26
  # Check if x26 contains the expected result. x9 is the signature ptr, x8 is the link ptr, x7 is a temp reg.
  RVTEST_SIGUPD(x9, x8, x7, x26, I_sll_cg_cmp_rd_rs1_rs2_b26, I_sll_cg_cmp_rd_rs1_rs2_b26_str)
    4374:	0004a383          	lw	x7,0(x9)
    4378:	01a38863          	beq	x7,x26,4388 <I_sll_cg_cmp_rd_rs1_rs2_b26+0x18>
    437c:	1580046f          	jal	x8,44d4 <failedtest_x8_x7>
    4380:	00004370          	.word	0x00004370
    4384:	0000ee94          	.word	0x0000ee94
    4388:	00448493          	addi	x9,x9,4

# Testcase cmp_rd_rs1_rs2 (Test rd = rs1 = rs2 = x27)
  RVTEST_TESTDATA_LOAD_INT(x23, x27) # load rs1: x27 = 0x836fd919
    438c:	000bad83          	lw	x27,0(x23)
    4390:	004b8b93          	addi	x23,x23,4
  RVTEST_TESTDATA_LOAD_INT(x23, x27) # load rs2: x27 = 0xd463f389
    4394:	000bad83          	lw	x27,0(x23)
    4398:	004b8b93          	addi	x23,x23,4

0000439c <I_sll_cg_cmp_rd_rs1_rs2_b27>:
I_sll_cg_cmp_rd_rs1_rs2_b27:
  sll x27, x27, x27 # perform operation
    439c:	01bd9db3          	sll	x27,x27,x27
  # Check if x27 contains the expected result. x9 is the signature ptr, x8 is the link ptr, x7 is a temp reg.
  RVTEST_SIGUPD(x9, x8, x7, x27, I_sll_cg_cmp_rd_rs1_rs2_b27, I_sll_cg_cmp_rd_rs1_rs2_b27_str)
    43a0:	0004a383          	lw	x7,0(x9)
    43a4:	01b38863          	beq	x7,x27,43b4 <I_sll_cg_cmp_rd_rs1_rs2_b27+0x18>
    43a8:	12c0046f          	jal	x8,44d4 <failedtest_x8_x7>
    43ac:	0000439c          	.word	0x0000439c
    43b0:	0000eecc          	.word	0x0000eecc
    43b4:	00448493          	addi	x9,x9,4

# Testcase cmp_rd_rs1_rs2 (Test rd = rs1 = rs2 = x28)
  RVTEST_TESTDATA_LOAD_INT(x23, x28) # load rs1: x28 = 0xcb54c9fa
    43b8:	000bae03          	lw	x28,0(x23)
    43bc:	004b8b93          	addi	x23,x23,4
  RVTEST_TESTDATA_LOAD_INT(x23, x28) # load rs2: x28 = 0x06631965
    43c0:	000bae03          	lw	x28,0(x23)
    43c4:	004b8b93          	addi	x23,x23,4

000043c8 <I_sll_cg_cmp_rd_rs1_rs2_b28>:
I_sll_cg_cmp_rd_rs1_rs2_b28:
  sll x28, x28, x28 # perform operation
    43c8:	01ce1e33          	sll	x28,x28,x28
  # Check if x28 contains the expected result. x9 is the signature ptr, x8 is the link ptr, x7 is a temp reg.
  RVTEST_SIGUPD(x9, x8, x7, x28, I_sll_cg_cmp_rd_rs1_rs2_b28, I_sll_cg_cmp_rd_rs1_rs2_b28_str)
    43cc:	0004a383          	lw	x7,0(x9)
    43d0:	01c38863          	beq	x7,x28,43e0 <I_sll_cg_cmp_rd_rs1_rs2_b28+0x18>
    43d4:	1000046f          	jal	x8,44d4 <failedtest_x8_x7>
    43d8:	000043c8          	.word	0x000043c8
    43dc:	0000ef04          	.word	0x0000ef04
    43e0:	00448493          	addi	x9,x9,4

# Testcase cmp_rd_rs1_rs2 (Test rd = rs1 = rs2 = x29)
  RVTEST_TESTDATA_LOAD_INT(x23, x29) # load rs1: x29 = 0x4f2cbb91
    43e4:	000bae83          	lw	x29,0(x23)
    43e8:	004b8b93          	addi	x23,x23,4
  RVTEST_TESTDATA_LOAD_INT(x23, x29) # load rs2: x29 = 0x2248d80e
    43ec:	000bae83          	lw	x29,0(x23)
    43f0:	004b8b93          	addi	x23,x23,4

000043f4 <I_sll_cg_cmp_rd_rs1_rs2_b29>:
I_sll_cg_cmp_rd_rs1_rs2_b29:
  sll x29, x29, x29 # perform operation
    43f4:	01de9eb3          	sll	x29,x29,x29
  # Check if x29 contains the expected result. x9 is the signature ptr, x8 is the link ptr, x7 is a temp reg.
  RVTEST_SIGUPD(x9, x8, x7, x29, I_sll_cg_cmp_rd_rs1_rs2_b29, I_sll_cg_cmp_rd_rs1_rs2_b29_str)
    43f8:	0004a383          	lw	x7,0(x9)
    43fc:	01d38863          	beq	x7,x29,440c <I_sll_cg_cmp_rd_rs1_rs2_b29+0x18>
    4400:	0d40046f          	jal	x8,44d4 <failedtest_x8_x7>
    4404:	000043f4          	.word	0x000043f4
    4408:	0000ef3c          	.word	0x0000ef3c
    440c:	00448493          	addi	x9,x9,4

# Testcase cmp_rd_rs1_rs2 (Test rd = rs1 = rs2 = x30)
  RVTEST_TESTDATA_LOAD_INT(x23, x30) # load rs1: x30 = 0x66649393
    4410:	000baf03          	lw	x30,0(x23)
    4414:	004b8b93          	addi	x23,x23,4
  RVTEST_TESTDATA_LOAD_INT(x23, x30) # load rs2: x30 = 0x231da2c3
    4418:	000baf03          	lw	x30,0(x23)
    441c:	004b8b93          	addi	x23,x23,4

00004420 <I_sll_cg_cmp_rd_rs1_rs2_b30>:
I_sll_cg_cmp_rd_rs1_rs2_b30:
  sll x30, x30, x30 # perform operation
    4420:	01ef1f33          	sll	x30,x30,x30
  # Check if x30 contains the expected result. x9 is the signature ptr, x8 is the link ptr, x7 is a temp reg.
  RVTEST_SIGUPD(x9, x8, x7, x30, I_sll_cg_cmp_rd_rs1_rs2_b30, I_sll_cg_cmp_rd_rs1_rs2_b30_str)
    4424:	0004a383          	lw	x7,0(x9)
    4428:	01e38863          	beq	x7,x30,4438 <I_sll_cg_cmp_rd_rs1_rs2_b30+0x18>
    442c:	0a80046f          	jal	x8,44d4 <failedtest_x8_x7>
    4430:	00004420          	.word	0x00004420
    4434:	0000ef74          	.word	0x0000ef74
    4438:	00448493          	addi	x9,x9,4

# Testcase cmp_rd_rs1_rs2 (Test rd = rs1 = rs2 = x31)
  RVTEST_TESTDATA_LOAD_INT(x23, x31) # load rs1: x31 = 0x9e1185f8
    443c:	000baf83          	lw	x31,0(x23)
    4440:	004b8b93          	addi	x23,x23,4
  RVTEST_TESTDATA_LOAD_INT(x23, x31) # load rs2: x31 = 0x455c47c8
    4444:	000baf83          	lw	x31,0(x23)
    4448:	004b8b93          	addi	x23,x23,4

0000444c <I_sll_cg_cmp_rd_rs1_rs2_b31>:
I_sll_cg_cmp_rd_rs1_rs2_b31:
  sll x31, x31, x31 # perform operation
    444c:	01ff9fb3          	sll	x31,x31,x31
  # Check if x31 contains the expected result. x9 is the signature ptr, x8 is the link ptr, x7 is a temp reg.
  RVTEST_SIGUPD(x9, x8, x7, x31, I_sll_cg_cmp_rd_rs1_rs2_b31, I_sll_cg_cmp_rd_rs1_rs2_b31_str)
    4450:	0004a383          	lw	x7,0(x9)
    4454:	01f38863          	beq	x7,x31,4464 <I_sll_cg_cmp_rd_rs1_rs2_b31+0x18>
    4458:	07c0046f          	jal	x8,44d4 <failedtest_x8_x7>
    445c:	0000444c          	.word	0x0000444c
    4460:	0000efac          	.word	0x0000efac
    4464:	00448493          	addi	x9,x9,4

  mv x2, x9 # restore signature pointer to default register for teardown
    4468:	00048113          	addi	x2,x9,0

0000446c <cleanup_epilogs>:
    446c:	00000013          	addi	x0,x0,0
    4470:	00000013          	addi	x0,x0,0
    4474:	00000013          	addi	x0,x0,0
    4478:	00000013          	addi	x0,x0,0
    447c:	00000013          	addi	x0,x0,0

// Instantiate trap handlers and other epilog code, call RVMODEL_HALT at end of test
RVTEST_CODE_END
    4480:	0000b517          	auipc	x10,0xb
    4484:	1d450513          	addi	x10,x10,468 # f654 <successstr>
    4488:	00000013          	addi	x0,x0,0
    448c:	00000013          	addi	x0,x0,0
    4490:	00000013          	addi	x0,x0,0
    4494:	00000013          	addi	x0,x0,0
    4498:	00000013          	addi	x0,x0,0
    449c:	00000013          	addi	x0,x0,0
    44a0:	0001c097          	auipc	x1,0x1c
    44a4:	d64080e7          	jalr	x1,-668(x1) # 20204 <rvmodel_io_write_str>
    44a8:	0001c097          	auipc	x1,0x1c
    44ac:	d60080e7          	jalr	x1,-672(x1) # 20208 <rvmodel_halt_pass>

000044b0 <abort_test>:
    44b0:	bad0e737          	lui	x14,0xbad0e
    44b4:	ead70713          	addi	x14,x14,-339 # bad0dead <absimm+0x4b743ba4>
    44b8:	fb5ff06f          	jal	x0,446c <cleanup_epilogs>

000044bc <failedtest_x5_x4>:
    44bc:	0000b217          	auipc	x4,0xb
    44c0:	b3420213          	addi	x4,x4,-1228 # eff0 <begin_failure_scratch>
    44c4:	02522423          	sw	x5,40(x4) # 28 <MMODE_SIG+0x25>
    44c8:	00122423          	sw	x1,8(x4) # 8 <MMODE_SIG+0x5>
    44cc:	00022023          	sw	x0,0(x4) # 0 <rvtest_entry_point>
    44d0:	0b00006f          	jal	x0,4580 <failedtest_saveregs>

000044d4 <failedtest_x8_x7>:
    44d4:	0000b397          	auipc	x7,0xb
    44d8:	b1c38393          	addi	x7,x7,-1252 # eff0 <begin_failure_scratch>
    44dc:	0483a023          	sw	x8,64(x7)
    44e0:	0243a023          	sw	x4,32(x7)
    44e4:	0253a423          	sw	x5,40(x7)
    44e8:	0013a423          	sw	x1,8(x7)
    44ec:	0003a023          	sw	x0,0(x7)
    44f0:	00038213          	addi	x4,x7,0
    44f4:	00040293          	addi	x5,x8,0
    44f8:	0880006f          	jal	x0,4580 <failedtest_saveregs>

000044fc <failedtest_x14_x13>:
    44fc:	0000b697          	auipc	x13,0xb
    4500:	af468693          	addi	x13,x13,-1292 # eff0 <begin_failure_scratch>
    4504:	06e6a823          	sw	x14,112(x13)
    4508:	0246a023          	sw	x4,32(x13)
    450c:	0256a423          	sw	x5,40(x13)
    4510:	0016a423          	sw	x1,8(x13)
    4514:	0006a023          	sw	x0,0(x13)
    4518:	00068213          	addi	x4,x13,0
    451c:	00070293          	addi	x5,x14,0
    4520:	0600006f          	jal	x0,4580 <failedtest_saveregs>

00004524 <failedtest_trap_x7_x9>:
    4524:	0000b497          	auipc	x9,0xb
    4528:	acc48493          	addi	x9,x9,-1332 # eff0 <begin_failure_scratch>
    452c:	0674a423          	sw	x7,104(x9)
    4530:	0244a023          	sw	x4,32(x9)
    4534:	0254a423          	sw	x5,40(x9)
    4538:	0014a423          	sw	x1,8(x9)
    453c:	00300093          	addi	x1,x0,3
    4540:	0014a023          	sw	x1,0(x9)
    4544:	00048213          	addi	x4,x9,0
    4548:	00038293          	addi	x5,x7,0
    454c:	342020f3          	csrrs	x1,mcause,x0
    4550:	0000b497          	auipc	x9,0xb
    4554:	c1048493          	addi	x9,x9,-1008 # f160 <saved_mcause>
    4558:	0014a023          	sw	x1,0(x9)
    455c:	343020f3          	csrrs	x1,mtval,x0
    4560:	0000b497          	auipc	x9,0xb
    4564:	c0848493          	addi	x9,x9,-1016 # f168 <saved_mtval>
    4568:	0014a023          	sw	x1,0(x9)
    456c:	300020f3          	csrrs	x1,mstatus,x0
    4570:	0000b497          	auipc	x9,0xb
    4574:	c0048493          	addi	x9,x9,-1024 # f170 <saved_mstatus>
    4578:	0014a023          	sw	x1,0(x9)
    457c:	0040006f          	jal	x0,4580 <failedtest_saveregs>

00004580 <failedtest_saveregs>:
    4580:	00222823          	sw	x2,16(x4) # 10 <MMODE_SIG+0xd>
    4584:	00322c23          	sw	x3,24(x4) # 18 <MMODE_SIG+0x15>
    4588:	02622823          	sw	x6,48(x4) # 30 <MMODE_SIG+0x2d>
    458c:	02722c23          	sw	x7,56(x4) # 38 <MMODE_SIG+0x35>
    4590:	04822023          	sw	x8,64(x4) # 40 <rvtest_code_begin>
    4594:	04922423          	sw	x9,72(x4) # 48 <rvtest_code_begin+0x8>
    4598:	04a22823          	sw	x10,80(x4) # 50 <I_sll_cg_cp_rs1_b0>
    459c:	04b22c23          	sw	x11,88(x4) # 58 <I_sll_cg_cp_rs1_b0+0x8>
    45a0:	06c22023          	sw	x12,96(x4) # 60 <I_sll_cg_cp_rs1_b0+0x10>
    45a4:	06d22423          	sw	x13,104(x4) # 68 <I_sll_cg_cp_rs1_b0+0x18>
    45a8:	06e22823          	sw	x14,112(x4) # 70 <I_sll_cg_cp_rs1_b0+0x20>
    45ac:	06f22c23          	sw	x15,120(x4) # 78 <I_sll_cg_cp_rs1_b0+0x28>
    45b0:	09022023          	sw	x16,128(x4) # 80 <I_sll_cg_cp_rs1_b1+0x4>
    45b4:	09122423          	sw	x17,136(x4) # 88 <I_sll_cg_cp_rs1_b1+0xc>
    45b8:	09222823          	sw	x18,144(x4) # 90 <I_sll_cg_cp_rs1_b1+0x14>
    45bc:	09322c23          	sw	x19,152(x4) # 98 <I_sll_cg_cp_rs1_b1+0x1c>
    45c0:	0b422023          	sw	x20,160(x4) # a0 <I_sll_cg_cp_rs1_b1+0x24>
    45c4:	0b522423          	sw	x21,168(x4) # a8 <I_sll_cg_cp_rs1_b1+0x2c>
    45c8:	0b622823          	sw	x22,176(x4) # b0 <I_sll_cg_cp_rs1_b2+0x4>
    45cc:	0b722c23          	sw	x23,184(x4) # b8 <I_sll_cg_cp_rs1_b2+0xc>
    45d0:	0d822023          	sw	x24,192(x4) # c0 <I_sll_cg_cp_rs1_b2+0x14>
    45d4:	0d922423          	sw	x25,200(x4) # c8 <I_sll_cg_cp_rs1_b2+0x1c>
    45d8:	0da22823          	sw	x26,208(x4) # d0 <I_sll_cg_cp_rs1_b2+0x24>
    45dc:	0db22c23          	sw	x27,216(x4) # d8 <I_sll_cg_cp_rs1_b2+0x2c>
    45e0:	0fc22023          	sw	x28,224(x4) # e0 <I_sll_cg_cp_rs1_b3+0x4>
    45e4:	0fd22423          	sw	x29,232(x4) # e8 <I_sll_cg_cp_rs1_b3+0xc>
    45e8:	0fe22823          	sw	x30,240(x4) # f0 <I_sll_cg_cp_rs1_b3+0x14>
    45ec:	0ff22c23          	sw	x31,248(x4) # f8 <I_sll_cg_cp_rs1_b3+0x1c>

000045f0 <failedtest_saveresults>:
    45f0:	0000b497          	auipc	x9,0xb
    45f4:	a004a483          	lw	x9,-1536(x9) # eff0 <begin_failure_scratch>
    45f8:	00300513          	addi	x10,x0,3
    45fc:	06a48863          	beq	x9,x10,466c <failedtest_saveresults_trap>

00004600 <failedtest_saveresults_int>:
    4600:	ffa2d303          	lhu	x6,-6(x5)
    4604:	ff82d383          	lhu	x7,-8(x5)
    4608:	01031313          	slli	x6,x6,0x10
    460c:	00736333          	or	x6,x6,x7
    4610:	00f35393          	srli	x7,x6,0xf
    4614:	01f3f393          	andi	x7,x7,31
    4618:	01435413          	srli	x8,x6,0x14
    461c:	01f47413          	andi	x8,x8,31
    4620:	10822223          	sw	x8,260(x4) # 104 <I_sll_cg_cp_rs1_b3+0x28>
    4624:	00341313          	slli	x6,x8,0x3
    4628:	00620333          	add	x6,x4,x6
    462c:	00032303          	lw	x6,0(x6)
    4630:	10622823          	sw	x6,272(x4) # 110 <I_sll_cg_cp_rs1_b4>
    4634:	ff62d303          	lhu	x6,-10(x5)
    4638:	ff42d383          	lhu	x7,-12(x5)
    463c:	01031313          	slli	x6,x6,0x10
    4640:	00736333          	or	x6,x6,x7
    4644:	41435393          	srai	x7,x6,0x14
    4648:	00f35313          	srli	x6,x6,0xf
    464c:	01f37313          	andi	x6,x6,31
    4650:	00331313          	slli	x6,x6,0x3
    4654:	00620333          	add	x6,x4,x6
    4658:	00032303          	lw	x6,0(x6)
    465c:	00730333          	add	x6,x6,x7
    4660:	00032303          	lw	x6,0(x6)
    4664:	10622c23          	sw	x6,280(x4) # 118 <I_sll_cg_cp_rs1_b4+0x8>
    4668:	3d80006f          	jal	x0,4a40 <failedtest_saveresults_common>

0000466c <failedtest_saveresults_trap>:
    466c:	0042a303          	lw	x6,4(x5)
    4670:	0000b817          	auipc	x16,0xb
    4674:	ad880813          	addi	x16,x16,-1320 # f148 <trap_diag_fail_str_ptr>
    4678:	00682023          	sw	x6,0(x16)
    467c:	0002a303          	lw	x6,0(x5)
    4680:	10622423          	sw	x6,264(x4) # 108 <I_sll_cg_cp_rs1_b3+0x2c>
    4684:	0000b817          	auipc	x16,0xb
    4688:	ac480813          	addi	x16,x16,-1340 # f148 <trap_diag_fail_str_ptr>
    468c:	00082303          	lw	x6,0(x16)
    4690:	0000b397          	auipc	x7,0xb
    4694:	18a38393          	addi	x7,x7,394 # f81a <trap_sig_offset_mismatch>
    4698:	28730463          	beq	x6,x7,4920 <trap_diag_offset_mismatch>
    469c:	00000413          	addi	x8,x0,0
    46a0:	0000b817          	auipc	x16,0xb
    46a4:	a8080813          	addi	x16,x16,-1408 # f120 <trap_diag_subtype>
    46a8:	00882023          	sw	x8,0(x16)
    46ac:	0000b397          	auipc	x7,0xb
    46b0:	1d238393          	addi	x7,x7,466 # f87e <sv_Mvect_str>
    46b4:	00731863          	bne	x6,x7,46c4 <failedtest_saveresults_trap+0x58>
    46b8:	00100413          	addi	x8,x0,1
    46bc:	00000493          	addi	x9,x0,0
    46c0:	2e00006f          	jal	x0,49a0 <trap_diag_field_identified>
    46c4:	0000b397          	auipc	x7,0xb
    46c8:	2bc38393          	addi	x7,x7,700 # f980 <sv_Mcause_str>
    46cc:	00731863          	bne	x6,x7,46dc <failedtest_saveresults_trap+0x70>
    46d0:	00200413          	addi	x8,x0,2
    46d4:	00000493          	addi	x9,x0,0
    46d8:	2c80006f          	jal	x0,49a0 <trap_diag_field_identified>
    46dc:	0000b397          	auipc	x7,0xb
    46e0:	39f38393          	addi	x7,x7,927 # fa7b <sv_Mepc_str>
    46e4:	00731863          	bne	x6,x7,46f4 <failedtest_saveresults_trap+0x88>
    46e8:	00300413          	addi	x8,x0,3
    46ec:	00000493          	addi	x9,x0,0
    46f0:	2b00006f          	jal	x0,49a0 <trap_diag_field_identified>
    46f4:	0000b397          	auipc	x7,0xb
    46f8:	47a38393          	addi	x7,x7,1146 # fb6e <sv_Mtval_str>
    46fc:	00731863          	bne	x6,x7,470c <failedtest_saveresults_trap+0xa0>
    4700:	00400413          	addi	x8,x0,4
    4704:	00000493          	addi	x9,x0,0
    4708:	2980006f          	jal	x0,49a0 <trap_diag_field_identified>
    470c:	0000b397          	auipc	x7,0xb
    4710:	5d538393          	addi	x7,x7,1493 # fce1 <sv_Mip_str>
    4714:	00731863          	bne	x6,x7,4724 <failedtest_saveresults_trap+0xb8>
    4718:	00500413          	addi	x8,x0,5
    471c:	00000493          	addi	x9,x0,0
    4720:	2800006f          	jal	x0,49a0 <trap_diag_field_identified>
    4724:	0000b397          	auipc	x7,0xb
    4728:	54138393          	addi	x7,x7,1345 # fc65 <sv_Mtval2_str>
    472c:	00731863          	bne	x6,x7,473c <failedtest_saveresults_trap+0xd0>
    4730:	00600413          	addi	x8,x0,6
    4734:	00000493          	addi	x9,x0,0
    4738:	2680006f          	jal	x0,49a0 <trap_diag_field_identified>
    473c:	0000b397          	auipc	x7,0xb
    4740:	56738393          	addi	x7,x7,1383 # fca3 <sv_Mtinst_str>
    4744:	00731863          	bne	x6,x7,4754 <failedtest_saveresults_trap+0xe8>
    4748:	00700413          	addi	x8,x0,7
    474c:	00000493          	addi	x9,x0,0
    4750:	2500006f          	jal	x0,49a0 <trap_diag_field_identified>
    4754:	0000b397          	auipc	x7,0xb
    4758:	16a38393          	addi	x7,x7,362 # f8be <sv_Svect_str>
    475c:	00731863          	bne	x6,x7,476c <failedtest_saveresults_trap+0x100>
    4760:	00100413          	addi	x8,x0,1
    4764:	00100493          	addi	x9,x0,1
    4768:	2380006f          	jal	x0,49a0 <trap_diag_field_identified>
    476c:	0000b397          	auipc	x7,0xb
    4770:	25238393          	addi	x7,x7,594 # f9be <sv_Scause_str>
    4774:	00731863          	bne	x6,x7,4784 <failedtest_saveresults_trap+0x118>
    4778:	00200413          	addi	x8,x0,2
    477c:	00100493          	addi	x9,x0,1
    4780:	2200006f          	jal	x0,49a0 <trap_diag_field_identified>
    4784:	0000b397          	auipc	x7,0xb
    4788:	33338393          	addi	x7,x7,819 # fab7 <sv_Sepc_str>
    478c:	00731863          	bne	x6,x7,479c <failedtest_saveresults_trap+0x130>
    4790:	00300413          	addi	x8,x0,3
    4794:	00100493          	addi	x9,x0,1
    4798:	2080006f          	jal	x0,49a0 <trap_diag_field_identified>
    479c:	0000b397          	auipc	x7,0xb
    47a0:	40f38393          	addi	x7,x7,1039 # fbab <sv_Stval_str>
    47a4:	00731863          	bne	x6,x7,47b4 <failedtest_saveresults_trap+0x148>
    47a8:	00400413          	addi	x8,x0,4
    47ac:	00100493          	addi	x9,x0,1
    47b0:	1f00006f          	jal	x0,49a0 <trap_diag_field_identified>
    47b4:	0000b397          	auipc	x7,0xb
    47b8:	56838393          	addi	x7,x7,1384 # fd1c <sv_Sip_str>
    47bc:	00731863          	bne	x6,x7,47cc <failedtest_saveresults_trap+0x160>
    47c0:	00500413          	addi	x8,x0,5
    47c4:	00100493          	addi	x9,x0,1
    47c8:	1d80006f          	jal	x0,49a0 <trap_diag_field_identified>
    47cc:	0000b397          	auipc	x7,0xb
    47d0:	13238393          	addi	x7,x7,306 # f8fe <sv_Hvect_str>
    47d4:	00731863          	bne	x6,x7,47e4 <failedtest_saveresults_trap+0x178>
    47d8:	00100413          	addi	x8,x0,1
    47dc:	00200493          	addi	x9,x0,2
    47e0:	1c00006f          	jal	x0,49a0 <trap_diag_field_identified>
    47e4:	0000b397          	auipc	x7,0xb
    47e8:	21838393          	addi	x7,x7,536 # f9fc <sv_Hcause_str>
    47ec:	00731863          	bne	x6,x7,47fc <failedtest_saveresults_trap+0x190>
    47f0:	00200413          	addi	x8,x0,2
    47f4:	00200493          	addi	x9,x0,2
    47f8:	1a80006f          	jal	x0,49a0 <trap_diag_field_identified>
    47fc:	0000b397          	auipc	x7,0xb
    4800:	2f738393          	addi	x7,x7,759 # faf3 <sv_Hepc_str>
    4804:	00731863          	bne	x6,x7,4814 <failedtest_saveresults_trap+0x1a8>
    4808:	00300413          	addi	x8,x0,3
    480c:	00200493          	addi	x9,x0,2
    4810:	1900006f          	jal	x0,49a0 <trap_diag_field_identified>
    4814:	0000b397          	auipc	x7,0xb
    4818:	3d438393          	addi	x7,x7,980 # fbe8 <sv_Htval_str>
    481c:	00731863          	bne	x6,x7,482c <failedtest_saveresults_trap+0x1c0>
    4820:	00400413          	addi	x8,x0,4
    4824:	00200493          	addi	x9,x0,2
    4828:	1780006f          	jal	x0,49a0 <trap_diag_field_identified>
    482c:	0000b397          	auipc	x7,0xb
    4830:	52b38393          	addi	x7,x7,1323 # fd57 <sv_Hip_str>
    4834:	00731863          	bne	x6,x7,4844 <failedtest_saveresults_trap+0x1d8>
    4838:	00500413          	addi	x8,x0,5
    483c:	00200493          	addi	x9,x0,2
    4840:	1600006f          	jal	x0,49a0 <trap_diag_field_identified>
    4844:	0000b397          	auipc	x7,0xb
    4848:	0fb38393          	addi	x7,x7,251 # f93f <sv_Vvect_str>
    484c:	00731863          	bne	x6,x7,485c <failedtest_saveresults_trap+0x1f0>
    4850:	00100413          	addi	x8,x0,1
    4854:	00300493          	addi	x9,x0,3
    4858:	1480006f          	jal	x0,49a0 <trap_diag_field_identified>
    485c:	0000b397          	auipc	x7,0xb
    4860:	1df38393          	addi	x7,x7,479 # fa3b <sv_Vcause_str>
    4864:	00731863          	bne	x6,x7,4874 <failedtest_saveresults_trap+0x208>
    4868:	00200413          	addi	x8,x0,2
    486c:	00300493          	addi	x9,x0,3
    4870:	1300006f          	jal	x0,49a0 <trap_diag_field_identified>
    4874:	0000b397          	auipc	x7,0xb
    4878:	2bc38393          	addi	x7,x7,700 # fb30 <sv_Vepc_str>
    487c:	00731863          	bne	x6,x7,488c <failedtest_saveresults_trap+0x220>
    4880:	00300413          	addi	x8,x0,3
    4884:	00300493          	addi	x9,x0,3
    4888:	1180006f          	jal	x0,49a0 <trap_diag_field_identified>
    488c:	0000b397          	auipc	x7,0xb
    4890:	39a38393          	addi	x7,x7,922 # fc26 <sv_Vtval_str>
    4894:	00731863          	bne	x6,x7,48a4 <failedtest_saveresults_trap+0x238>
    4898:	00400413          	addi	x8,x0,4
    489c:	00300493          	addi	x9,x0,3
    48a0:	1000006f          	jal	x0,49a0 <trap_diag_field_identified>
    48a4:	0000b397          	auipc	x7,0xb
    48a8:	4ef38393          	addi	x7,x7,1263 # fd93 <sv_Vip_str>
    48ac:	00731863          	bne	x6,x7,48bc <failedtest_saveresults_trap+0x250>
    48b0:	00500413          	addi	x8,x0,5
    48b4:	00300493          	addi	x9,x0,3
    48b8:	0e80006f          	jal	x0,49a0 <trap_diag_field_identified>
    48bc:	0000b397          	auipc	x7,0xb
    48c0:	51438393          	addi	x7,x7,1300 # fdd0 <Mclr_Mext_int_str>
    48c4:	00731863          	bne	x6,x7,48d4 <failedtest_saveresults_trap+0x268>
    48c8:	00800413          	addi	x8,x0,8
    48cc:	00000493          	addi	x9,x0,0
    48d0:	0d00006f          	jal	x0,49a0 <trap_diag_field_identified>
    48d4:	0000b397          	auipc	x7,0xb
    48d8:	54b38393          	addi	x7,x7,1355 # fe1f <Mclr_Sext_int_str>
    48dc:	00731863          	bne	x6,x7,48ec <failedtest_saveresults_trap+0x280>
    48e0:	00800413          	addi	x8,x0,8
    48e4:	00000493          	addi	x9,x0,0
    48e8:	0b80006f          	jal	x0,49a0 <trap_diag_field_identified>
    48ec:	0000b397          	auipc	x7,0xb
    48f0:	62e38393          	addi	x7,x7,1582 # ff1a <Sclr_Sext_int_str>
    48f4:	00731863          	bne	x6,x7,4904 <failedtest_saveresults_trap+0x298>
    48f8:	00800413          	addi	x8,x0,8
    48fc:	00100493          	addi	x9,x0,1
    4900:	0a00006f          	jal	x0,49a0 <trap_diag_field_identified>
    4904:	0000b397          	auipc	x7,0xb
    4908:	71238393          	addi	x7,x7,1810 # 10016 <Hclr_Sext_int_str>
    490c:	00731863          	bne	x6,x7,491c <failedtest_saveresults_trap+0x2b0>
    4910:	00800413          	addi	x8,x0,8
    4914:	00200493          	addi	x9,x0,2
    4918:	0880006f          	jal	x0,49a0 <trap_diag_field_identified>
    491c:	1140006f          	jal	x0,4a30 <trap_diag_generic_report>

00004920 <trap_diag_offset_mismatch>:
    4920:	00900413          	addi	x8,x0,9
    4924:	0000a817          	auipc	x16,0xa
    4928:	7fc80813          	addi	x16,x16,2044 # f120 <trap_diag_subtype>
    492c:	00882023          	sw	x8,0(x16)
    4930:	ffa2d303          	lhu	x6,-6(x5)
    4934:	ff82d383          	lhu	x7,-8(x5)
    4938:	01031313          	slli	x6,x6,0x10
    493c:	00736333          	or	x6,x6,x7
    4940:	01435413          	srli	x8,x6,0x14
    4944:	01f47413          	andi	x8,x8,31
    4948:	00341313          	slli	x6,x8,0x3
    494c:	00620333          	add	x6,x4,x6
    4950:	00032303          	lw	x6,0(x6)
    4954:	0000a817          	auipc	x16,0xa
    4958:	7e480813          	addi	x16,x16,2020 # f138 <trap_diag_actual_offset>
    495c:	00682023          	sw	x6,0(x16)
    4960:	ff62d303          	lhu	x6,-10(x5)
    4964:	ff42d383          	lhu	x7,-12(x5)
    4968:	01031313          	slli	x6,x6,0x10
    496c:	00736333          	or	x6,x6,x7
    4970:	41435393          	srai	x7,x6,0x14
    4974:	00f35313          	srli	x6,x6,0xf
    4978:	01f37313          	andi	x6,x6,31
    497c:	00331313          	slli	x6,x6,0x3
    4980:	00620333          	add	x6,x4,x6
    4984:	00032303          	lw	x6,0(x6)
    4988:	00730333          	add	x6,x6,x7
    498c:	00032303          	lw	x6,0(x6)
    4990:	0000a817          	auipc	x16,0xa
    4994:	7b080813          	addi	x16,x16,1968 # f140 <trap_diag_expected_offset>
    4998:	00682023          	sw	x6,0(x16)
    499c:	0a40006f          	jal	x0,4a40 <failedtest_saveresults_common>

000049a0 <trap_diag_field_identified>:
    49a0:	0000a817          	auipc	x16,0xa
    49a4:	78080813          	addi	x16,x16,1920 # f120 <trap_diag_subtype>
    49a8:	00882023          	sw	x8,0(x16)
    49ac:	0000a817          	auipc	x16,0xa
    49b0:	77880813          	addi	x16,x16,1912 # f124 <trap_diag_mode>
    49b4:	00982023          	sw	x9,0(x16)
    49b8:	ffa2d303          	lhu	x6,-6(x5)
    49bc:	ff82d383          	lhu	x7,-8(x5)
    49c0:	01031313          	slli	x6,x6,0x10
    49c4:	00736333          	or	x6,x6,x7
    49c8:	01435713          	srli	x14,x6,0x14
    49cc:	01f77713          	andi	x14,x14,31
    49d0:	00371313          	slli	x6,x14,0x3
    49d4:	00620333          	add	x6,x4,x6
    49d8:	00032303          	lw	x6,0(x6)
    49dc:	10622823          	sw	x6,272(x4) # 110 <I_sll_cg_cp_rs1_b4>
    49e0:	0000a817          	auipc	x16,0xa
    49e4:	74880813          	addi	x16,x16,1864 # f128 <trap_diag_actual_value>
    49e8:	00682023          	sw	x6,0(x16)
    49ec:	ff62d303          	lhu	x6,-10(x5)
    49f0:	ff42d383          	lhu	x7,-12(x5)
    49f4:	01031313          	slli	x6,x6,0x10
    49f8:	00736333          	or	x6,x6,x7
    49fc:	41435393          	srai	x7,x6,0x14
    4a00:	00f35313          	srli	x6,x6,0xf
    4a04:	01f37313          	andi	x6,x6,31
    4a08:	00331313          	slli	x6,x6,0x3
    4a0c:	00620333          	add	x6,x4,x6
    4a10:	00032303          	lw	x6,0(x6)
    4a14:	00730333          	add	x6,x6,x7
    4a18:	00032303          	lw	x6,0(x6)
    4a1c:	10622c23          	sw	x6,280(x4) # 118 <I_sll_cg_cp_rs1_b4+0x8>
    4a20:	0000a817          	auipc	x16,0xa
    4a24:	71080813          	addi	x16,x16,1808 # f130 <trap_diag_expected_value>
    4a28:	00682023          	sw	x6,0(x16)
    4a2c:	0140006f          	jal	x0,4a40 <failedtest_saveresults_common>

00004a30 <trap_diag_generic_report>:
    4a30:	0000a817          	auipc	x16,0xa
    4a34:	6f080813          	addi	x16,x16,1776 # f120 <trap_diag_subtype>
    4a38:	00082023          	sw	x0,0(x16)
    4a3c:	0040006f          	jal	x0,4a40 <failedtest_saveresults_common>

00004a40 <failedtest_saveresults_common>:
    4a40:	0002a303          	lw	x6,0(x5)
    4a44:	10622423          	sw	x6,264(x4) # 108 <I_sll_cg_cp_rs1_b3+0x2c>
    4a48:	00035383          	lhu	x7,0(x6)
    4a4c:	0033f413          	andi	x8,x7,3
    4a50:	00300493          	addi	x9,x0,3
    4a54:	00941863          	bne	x8,x9,4a64 <failedtest_saveresults_common+0x24>
    4a58:	00235403          	lhu	x8,2(x6)
    4a5c:	01041413          	slli	x8,x8,0x10
    4a60:	0083e3b3          	or	x7,x7,x8
    4a64:	10722023          	sw	x7,256(x4) # 100 <I_sll_cg_cp_rs1_b3+0x24>
    4a68:	0042a303          	lw	x6,4(x5)
    4a6c:	12622023          	sw	x6,288(x4) # 120 <I_sll_cg_cp_rs1_b4+0x10>

00004a70 <failedtest_report>:
    4a70:	00000013          	addi	x0,x0,0
    4a74:	00000013          	addi	x0,x0,0
    4a78:	00000013          	addi	x0,x0,0
    4a7c:	00000013          	addi	x0,x0,0
    4a80:	0000b517          	auipc	x10,0xb
    4a84:	c0a50513          	addi	x10,x10,-1014 # f68a <failstr>
    4a88:	00000013          	addi	x0,x0,0
    4a8c:	00000013          	addi	x0,x0,0
    4a90:	00000013          	addi	x0,x0,0
    4a94:	00000013          	addi	x0,x0,0
    4a98:	00000013          	addi	x0,x0,0
    4a9c:	00000013          	addi	x0,x0,0
    4aa0:	0001b097          	auipc	x1,0x1b
    4aa4:	764080e7          	jalr	x1,1892(x1) # 20204 <rvmodel_io_write_str>

00004aa8 <print_testnamestr>:
    4aa8:	00000013          	addi	x0,x0,0
    4aac:	00000013          	addi	x0,x0,0
    4ab0:	00000013          	addi	x0,x0,0
    4ab4:	00000013          	addi	x0,x0,0
    4ab8:	00000013          	addi	x0,x0,0
    4abc:	00000013          	addi	x0,x0,0
    4ac0:	0000b517          	auipc	x10,0xb
    4ac4:	c5d50513          	addi	x10,x10,-931 # f71d <testnamestr>
    4ac8:	00000013          	addi	x0,x0,0
    4acc:	00000013          	addi	x0,x0,0
    4ad0:	00000013          	addi	x0,x0,0
    4ad4:	00000013          	addi	x0,x0,0
    4ad8:	00000013          	addi	x0,x0,0
    4adc:	00000013          	addi	x0,x0,0
    4ae0:	0001b097          	auipc	x1,0x1b
    4ae4:	724080e7          	jalr	x1,1828(x1) # 20204 <rvmodel_io_write_str>

00004ae8 <print_failure_test_name_str>:
    4ae8:	0000a517          	auipc	x10,0xa
    4aec:	62852503          	lw	x10,1576(x10) # f110 <failure_string_ptr>
    4af0:	0001b097          	auipc	x1,0x1b
    4af4:	714080e7          	jalr	x1,1812(x1) # 20204 <rvmodel_io_write_str>

00004af8 <print_newline_str>:
    4af8:	00000013          	addi	x0,x0,0
    4afc:	00000013          	addi	x0,x0,0
    4b00:	0000b517          	auipc	x10,0xb
    4b04:	c2f50513          	addi	x10,x10,-977 # f72f <newlinestr>
    4b08:	00000013          	addi	x0,x0,0
    4b0c:	00000013          	addi	x0,x0,0
    4b10:	00000013          	addi	x0,x0,0
    4b14:	00000013          	addi	x0,x0,0
    4b18:	00000013          	addi	x0,x0,0
    4b1c:	00000013          	addi	x0,x0,0
    4b20:	0001b097          	auipc	x1,0x1b
    4b24:	6e4080e7          	jalr	x1,1764(x1) # 20204 <rvmodel_io_write_str>
    4b28:	0000a517          	auipc	x10,0xa
    4b2c:	4c852503          	lw	x10,1224(x10) # eff0 <begin_failure_scratch>
    4b30:	00300593          	addi	x11,x0,3
    4b34:	3eb50c63          	beq	x10,x11,4f2c <failedtest_report_trap_detailed>
    4b38:	00000013          	addi	x0,x0,0
    4b3c:	00000013          	addi	x0,x0,0
    4b40:	0000b517          	auipc	x10,0xb
    4b44:	bf150513          	addi	x10,x10,-1039 # f731 <inststr>
    4b48:	00000013          	addi	x0,x0,0
    4b4c:	00000013          	addi	x0,x0,0
    4b50:	00000013          	addi	x0,x0,0
    4b54:	00000013          	addi	x0,x0,0
    4b58:	00000013          	addi	x0,x0,0
    4b5c:	00000013          	addi	x0,x0,0
    4b60:	0001b097          	auipc	x1,0x1b
    4b64:	6a4080e7          	jalr	x1,1700(x1) # 20204 <rvmodel_io_write_str>
    4b68:	0000a517          	auipc	x10,0xa
    4b6c:	58852503          	lw	x10,1416(x10) # f0f0 <failing_instruction>
    4b70:	02000593          	addi	x11,x0,32
    4b74:	00357613          	andi	x12,x10,3
    4b78:	00300693          	addi	x13,x0,3
    4b7c:	00d60463          	beq	x12,x13,4b84 <print_newline_str+0x8c>
    4b80:	01000593          	addi	x11,x0,16
    4b84:	2f4010ef          	jal	x1,5e78 <failedtest_hex_to_str>
    4b88:	00000013          	addi	x0,x0,0
    4b8c:	00000013          	addi	x0,x0,0
    4b90:	00000013          	addi	x0,x0,0
    4b94:	00000013          	addi	x0,x0,0
    4b98:	00000013          	addi	x0,x0,0
    4b9c:	00000013          	addi	x0,x0,0
    4ba0:	0000a517          	auipc	x10,0xa
    4ba4:	5d850513          	addi	x10,x10,1496 # f178 <ascii_buffer>
    4ba8:	00000013          	addi	x0,x0,0
    4bac:	00000013          	addi	x0,x0,0
    4bb0:	00000013          	addi	x0,x0,0
    4bb4:	00000013          	addi	x0,x0,0
    4bb8:	00000013          	addi	x0,x0,0
    4bbc:	00000013          	addi	x0,x0,0
    4bc0:	0001b097          	auipc	x1,0x1b
    4bc4:	644080e7          	jalr	x1,1604(x1) # 20204 <rvmodel_io_write_str>
    4bc8:	00000013          	addi	x0,x0,0
    4bcc:	00000013          	addi	x0,x0,0
    4bd0:	00000013          	addi	x0,x0,0
    4bd4:	00000013          	addi	x0,x0,0
    4bd8:	00000013          	addi	x0,x0,0
    4bdc:	00000013          	addi	x0,x0,0
    4be0:	0000b517          	auipc	x10,0xb
    4be4:	b6550513          	addi	x10,x10,-1179 # f745 <addrstr>
    4be8:	00000013          	addi	x0,x0,0
    4bec:	00000013          	addi	x0,x0,0
    4bf0:	00000013          	addi	x0,x0,0
    4bf4:	00000013          	addi	x0,x0,0
    4bf8:	00000013          	addi	x0,x0,0
    4bfc:	00000013          	addi	x0,x0,0
    4c00:	0001b097          	auipc	x1,0x1b
    4c04:	604080e7          	jalr	x1,1540(x1) # 20204 <rvmodel_io_write_str>
    4c08:	0000a517          	auipc	x10,0xa
    4c0c:	4f052503          	lw	x10,1264(x10) # f0f8 <failing_addr>
    4c10:	02000593          	addi	x11,x0,32
    4c14:	264010ef          	jal	x1,5e78 <failedtest_hex_to_str>
    4c18:	00000013          	addi	x0,x0,0
    4c1c:	00000013          	addi	x0,x0,0
    4c20:	0000a517          	auipc	x10,0xa
    4c24:	55850513          	addi	x10,x10,1368 # f178 <ascii_buffer>
    4c28:	00000013          	addi	x0,x0,0
    4c2c:	00000013          	addi	x0,x0,0
    4c30:	00000013          	addi	x0,x0,0
    4c34:	00000013          	addi	x0,x0,0
    4c38:	00000013          	addi	x0,x0,0
    4c3c:	00000013          	addi	x0,x0,0
    4c40:	0001b097          	auipc	x1,0x1b
    4c44:	5c4080e7          	jalr	x1,1476(x1) # 20204 <rvmodel_io_write_str>
    4c48:	00000013          	addi	x0,x0,0
    4c4c:	00000013          	addi	x0,x0,0
    4c50:	00000013          	addi	x0,x0,0
    4c54:	00000013          	addi	x0,x0,0
    4c58:	00000013          	addi	x0,x0,0
    4c5c:	00000013          	addi	x0,x0,0
    4c60:	0000b517          	auipc	x10,0xb
    4c64:	56250513          	addi	x10,x10,1378 # 101c2 <regstr>
    4c68:	00000013          	addi	x0,x0,0
    4c6c:	00000013          	addi	x0,x0,0
    4c70:	00000013          	addi	x0,x0,0
    4c74:	00000013          	addi	x0,x0,0
    4c78:	00000013          	addi	x0,x0,0
    4c7c:	00000013          	addi	x0,x0,0
    4c80:	0001b097          	auipc	x1,0x1b
    4c84:	584080e7          	jalr	x1,1412(x1) # 20204 <rvmodel_io_write_str>
    4c88:	0000a517          	auipc	x10,0xa
    4c8c:	36852503          	lw	x10,872(x10) # eff0 <begin_failure_scratch>
    4c90:	00050663          	beq	x10,x0,4c9c <print_newline_str+0x1a4>
    4c94:	00300593          	addi	x11,x0,3
    4c98:	04b51063          	bne	x10,x11,4cd8 <failedtest_report_not_intreg>
    4c9c:	07800593          	addi	x11,x0,120
    4ca0:	0000a617          	auipc	x12,0xa
    4ca4:	4d860613          	addi	x12,x12,1240 # f178 <ascii_buffer>
    4ca8:	00000013          	addi	x0,x0,0
    4cac:	00000013          	addi	x0,x0,0
    4cb0:	00000013          	addi	x0,x0,0
    4cb4:	00000013          	addi	x0,x0,0
    4cb8:	00000013          	addi	x0,x0,0
    4cbc:	00000013          	addi	x0,x0,0
    4cc0:	00b60023          	sb	x11,0(x12)
    4cc4:	00160613          	addi	x12,x12,1
    4cc8:	0000a517          	auipc	x10,0xa
    4ccc:	42c52503          	lw	x10,1068(x10) # f0f4 <failing_reg>
    4cd0:	224010ef          	jal	x1,5ef4 <failedtest_dec_to_str>
    4cd4:	0e00006f          	jal	x0,4db4 <failedtest_report_print_regstr>

00004cd8 <failedtest_report_not_intreg>:
    4cd8:	00100593          	addi	x11,x0,1
    4cdc:	04b50863          	beq	x10,x11,4d2c <failedtest_report_fpreg>
    4ce0:	00400593          	addi	x11,x0,4
    4ce4:	08b50a63          	beq	x10,x11,4d78 <failedtest_report_vecreg>
    4ce8:	00000013          	addi	x0,x0,0
    4cec:	00000013          	addi	x0,x0,0
    4cf0:	00000013          	addi	x0,x0,0
    4cf4:	00000013          	addi	x0,x0,0
    4cf8:	00000013          	addi	x0,x0,0
    4cfc:	00000013          	addi	x0,x0,0
    4d00:	0000b517          	auipc	x10,0xb
    4d04:	52250513          	addi	x10,x10,1314 # 10222 <fflagsstr>
    4d08:	00000013          	addi	x0,x0,0
    4d0c:	00000013          	addi	x0,x0,0
    4d10:	00000013          	addi	x0,x0,0
    4d14:	00000013          	addi	x0,x0,0
    4d18:	00000013          	addi	x0,x0,0
    4d1c:	00000013          	addi	x0,x0,0
    4d20:	0001b097          	auipc	x1,0x1b
    4d24:	4e4080e7          	jalr	x1,1252(x1) # 20204 <rvmodel_io_write_str>
    4d28:	0c00006f          	jal	x0,4de8 <failedtest_report_after_reg>

00004d2c <failedtest_report_fpreg>:
    4d2c:	06600593          	addi	x11,x0,102
    4d30:	00000013          	addi	x0,x0,0
    4d34:	00000013          	addi	x0,x0,0
    4d38:	00000013          	addi	x0,x0,0
    4d3c:	00000013          	addi	x0,x0,0
    4d40:	0000a617          	auipc	x12,0xa
    4d44:	43860613          	addi	x12,x12,1080 # f178 <ascii_buffer>
    4d48:	00000013          	addi	x0,x0,0
    4d4c:	00000013          	addi	x0,x0,0
    4d50:	00000013          	addi	x0,x0,0
    4d54:	00000013          	addi	x0,x0,0
    4d58:	00000013          	addi	x0,x0,0
    4d5c:	00000013          	addi	x0,x0,0
    4d60:	00b60023          	sb	x11,0(x12)
    4d64:	00160613          	addi	x12,x12,1
    4d68:	0000a517          	auipc	x10,0xa
    4d6c:	38c52503          	lw	x10,908(x10) # f0f4 <failing_reg>
    4d70:	184010ef          	jal	x1,5ef4 <failedtest_dec_to_str>
    4d74:	0400006f          	jal	x0,4db4 <failedtest_report_print_regstr>

00004d78 <failedtest_report_vecreg>:
    4d78:	07600593          	addi	x11,x0,118
    4d7c:	00000013          	addi	x0,x0,0
    4d80:	0000a617          	auipc	x12,0xa
    4d84:	3f860613          	addi	x12,x12,1016 # f178 <ascii_buffer>
    4d88:	00000013          	addi	x0,x0,0
    4d8c:	00000013          	addi	x0,x0,0
    4d90:	00000013          	addi	x0,x0,0
    4d94:	00000013          	addi	x0,x0,0
    4d98:	00000013          	addi	x0,x0,0
    4d9c:	00000013          	addi	x0,x0,0
    4da0:	00b60023          	sb	x11,0(x12)
    4da4:	00160613          	addi	x12,x12,1
    4da8:	0000a517          	auipc	x10,0xa
    4dac:	34c52503          	lw	x10,844(x10) # f0f4 <failing_reg>
    4db0:	144010ef          	jal	x1,5ef4 <failedtest_dec_to_str>

00004db4 <failedtest_report_print_regstr>:
    4db4:	00000013          	addi	x0,x0,0
    4db8:	00000013          	addi	x0,x0,0
    4dbc:	00000013          	addi	x0,x0,0
    4dc0:	0000a517          	auipc	x10,0xa
    4dc4:	3b850513          	addi	x10,x10,952 # f178 <ascii_buffer>
    4dc8:	00000013          	addi	x0,x0,0
    4dcc:	00000013          	addi	x0,x0,0
    4dd0:	00000013          	addi	x0,x0,0
    4dd4:	00000013          	addi	x0,x0,0
    4dd8:	00000013          	addi	x0,x0,0
    4ddc:	00000013          	addi	x0,x0,0
    4de0:	0001b097          	auipc	x1,0x1b
    4de4:	424080e7          	jalr	x1,1060(x1) # 20204 <rvmodel_io_write_str>

00004de8 <failedtest_report_after_reg>:
    4de8:	00000013          	addi	x0,x0,0
    4dec:	00000013          	addi	x0,x0,0
    4df0:	00000013          	addi	x0,x0,0
    4df4:	00000013          	addi	x0,x0,0
    4df8:	00000013          	addi	x0,x0,0
    4dfc:	00000013          	addi	x0,x0,0
    4e00:	0000b517          	auipc	x10,0xb
    4e04:	3d350513          	addi	x10,x10,979 # 101d3 <badvalstr>
    4e08:	00000013          	addi	x0,x0,0
    4e0c:	00000013          	addi	x0,x0,0
    4e10:	00000013          	addi	x0,x0,0
    4e14:	00000013          	addi	x0,x0,0
    4e18:	00000013          	addi	x0,x0,0
    4e1c:	00000013          	addi	x0,x0,0
    4e20:	0001b097          	auipc	x1,0x1b
    4e24:	3e4080e7          	jalr	x1,996(x1) # 20204 <rvmodel_io_write_str>
    4e28:	0000a517          	auipc	x10,0xa
    4e2c:	1c852503          	lw	x10,456(x10) # eff0 <begin_failure_scratch>
    4e30:	00100593          	addi	x11,x0,1
    4e34:	00b51c63          	bne	x10,x11,4e4c <failedtest_report_badval_not_fp>
    4e38:	0000a517          	auipc	x10,0xa
    4e3c:	2c852503          	lw	x10,712(x10) # f100 <failing_value>
    4e40:	02000593          	addi	x11,x0,32
    4e44:	034010ef          	jal	x1,5e78 <failedtest_hex_to_str>
    4e48:	0140006f          	jal	x0,4e5c <failedtest_report_badval_done>

00004e4c <failedtest_report_badval_not_fp>:
    4e4c:	0000a517          	auipc	x10,0xa
    4e50:	2b452503          	lw	x10,692(x10) # f100 <failing_value>
    4e54:	02000593          	addi	x11,x0,32
    4e58:	020010ef          	jal	x1,5e78 <failedtest_hex_to_str>

00004e5c <failedtest_report_badval_done>:
    4e5c:	00000013          	addi	x0,x0,0
    4e60:	0000a517          	auipc	x10,0xa
    4e64:	31850513          	addi	x10,x10,792 # f178 <ascii_buffer>
    4e68:	00000013          	addi	x0,x0,0
    4e6c:	00000013          	addi	x0,x0,0
    4e70:	00000013          	addi	x0,x0,0
    4e74:	00000013          	addi	x0,x0,0
    4e78:	00000013          	addi	x0,x0,0
    4e7c:	00000013          	addi	x0,x0,0
    4e80:	0001b097          	auipc	x1,0x1b
    4e84:	384080e7          	jalr	x1,900(x1) # 20204 <rvmodel_io_write_str>
    4e88:	00000013          	addi	x0,x0,0
    4e8c:	00000013          	addi	x0,x0,0
    4e90:	00000013          	addi	x0,x0,0
    4e94:	00000013          	addi	x0,x0,0
    4e98:	00000013          	addi	x0,x0,0
    4e9c:	00000013          	addi	x0,x0,0
    4ea0:	0000b517          	auipc	x10,0xb
    4ea4:	34a50513          	addi	x10,x10,842 # 101ea <expvalstr>
    4ea8:	00000013          	addi	x0,x0,0
    4eac:	00000013          	addi	x0,x0,0
    4eb0:	00000013          	addi	x0,x0,0
    4eb4:	00000013          	addi	x0,x0,0
    4eb8:	00000013          	addi	x0,x0,0
    4ebc:	00000013          	addi	x0,x0,0
    4ec0:	0001b097          	auipc	x1,0x1b
    4ec4:	344080e7          	jalr	x1,836(x1) # 20204 <rvmodel_io_write_str>
    4ec8:	0000a517          	auipc	x10,0xa
    4ecc:	12852503          	lw	x10,296(x10) # eff0 <begin_failure_scratch>
    4ed0:	00100593          	addi	x11,x0,1
    4ed4:	00b51c63          	bne	x10,x11,4eec <failedtest_report_expval_not_fp>
    4ed8:	0000a517          	auipc	x10,0xa
    4edc:	23052503          	lw	x10,560(x10) # f108 <expected_value>
    4ee0:	02000593          	addi	x11,x0,32
    4ee4:	795000ef          	jal	x1,5e78 <failedtest_hex_to_str>
    4ee8:	0140006f          	jal	x0,4efc <failedtest_report_expval_done>

00004eec <failedtest_report_expval_not_fp>:
    4eec:	0000a517          	auipc	x10,0xa
    4ef0:	21c52503          	lw	x10,540(x10) # f108 <expected_value>
    4ef4:	02000593          	addi	x11,x0,32
    4ef8:	781000ef          	jal	x1,5e78 <failedtest_hex_to_str>

00004efc <failedtest_report_expval_done>:
    4efc:	00000013          	addi	x0,x0,0
    4f00:	0000a517          	auipc	x10,0xa
    4f04:	27850513          	addi	x10,x10,632 # f178 <ascii_buffer>
    4f08:	00000013          	addi	x0,x0,0
    4f0c:	00000013          	addi	x0,x0,0
    4f10:	00000013          	addi	x0,x0,0
    4f14:	00000013          	addi	x0,x0,0
    4f18:	00000013          	addi	x0,x0,0
    4f1c:	00000013          	addi	x0,x0,0
    4f20:	0001b097          	auipc	x1,0x1b
    4f24:	2e4080e7          	jalr	x1,740(x1) # 20204 <rvmodel_io_write_str>
    4f28:	4fd0006f          	jal	x0,5c24 <failedtest_report_end>

00004f2c <failedtest_report_trap_detailed>:
    4f2c:	00000013          	addi	x0,x0,0
    4f30:	00000013          	addi	x0,x0,0
    4f34:	00000013          	addi	x0,x0,0
    4f38:	00000013          	addi	x0,x0,0
    4f3c:	00000013          	addi	x0,x0,0
    4f40:	0000b517          	auipc	x10,0xb
    4f44:	30e50513          	addi	x10,x10,782 # 1024e <trap_diag_header_str>
    4f48:	00000013          	addi	x0,x0,0
    4f4c:	00000013          	addi	x0,x0,0
    4f50:	00000013          	addi	x0,x0,0
    4f54:	00000013          	addi	x0,x0,0
    4f58:	00000013          	addi	x0,x0,0
    4f5c:	00000013          	addi	x0,x0,0
    4f60:	0001b097          	auipc	x1,0x1b
    4f64:	2a4080e7          	jalr	x1,676(x1) # 20204 <rvmodel_io_write_str>
    4f68:	00000013          	addi	x0,x0,0
    4f6c:	00000013          	addi	x0,x0,0
    4f70:	00000013          	addi	x0,x0,0
    4f74:	00000013          	addi	x0,x0,0
    4f78:	00000013          	addi	x0,x0,0
    4f7c:	00000013          	addi	x0,x0,0
    4f80:	0000b517          	auipc	x10,0xb
    4f84:	2fa50513          	addi	x10,x10,762 # 1027a <trap_diag_origstr_label>
    4f88:	00000013          	addi	x0,x0,0
    4f8c:	00000013          	addi	x0,x0,0
    4f90:	00000013          	addi	x0,x0,0
    4f94:	00000013          	addi	x0,x0,0
    4f98:	00000013          	addi	x0,x0,0
    4f9c:	00000013          	addi	x0,x0,0
    4fa0:	0001b097          	auipc	x1,0x1b
    4fa4:	264080e7          	jalr	x1,612(x1) # 20204 <rvmodel_io_write_str>
    4fa8:	0000a817          	auipc	x16,0xa
    4fac:	1a080813          	addi	x16,x16,416 # f148 <trap_diag_fail_str_ptr>
    4fb0:	00082503          	lw	x10,0(x16)
    4fb4:	0001b097          	auipc	x1,0x1b
    4fb8:	250080e7          	jalr	x1,592(x1) # 20204 <rvmodel_io_write_str>
    4fbc:	00000013          	addi	x0,x0,0
    4fc0:	0000a517          	auipc	x10,0xa
    4fc4:	76f50513          	addi	x10,x10,1903 # f72f <newlinestr>
    4fc8:	00000013          	addi	x0,x0,0
    4fcc:	00000013          	addi	x0,x0,0
    4fd0:	00000013          	addi	x0,x0,0
    4fd4:	00000013          	addi	x0,x0,0
    4fd8:	00000013          	addi	x0,x0,0
    4fdc:	00000013          	addi	x0,x0,0
    4fe0:	0001b097          	auipc	x1,0x1b
    4fe4:	224080e7          	jalr	x1,548(x1) # 20204 <rvmodel_io_write_str>
    4fe8:	0000a417          	auipc	x8,0xa
    4fec:	13842403          	lw	x8,312(x8) # f120 <trap_diag_subtype>
    4ff0:	00900493          	addi	x9,x0,9
    4ff4:	00940663          	beq	x8,x9,5000 <trap_report_offset_mismatch>
    4ff8:	2a040ce3          	beq	x8,x0,5ab0 <trap_report_generic>
    4ffc:	3780006f          	jal	x0,5374 <trap_report_field_mismatch>

00005000 <trap_report_offset_mismatch>:
    5000:	0000b517          	auipc	x10,0xb
    5004:	28a50513          	addi	x10,x10,650 # 1028a <trap_diag_count_mismatch_str>
    5008:	00000013          	addi	x0,x0,0
    500c:	00000013          	addi	x0,x0,0
    5010:	00000013          	addi	x0,x0,0
    5014:	00000013          	addi	x0,x0,0
    5018:	00000013          	addi	x0,x0,0
    501c:	00000013          	addi	x0,x0,0
    5020:	0001b097          	auipc	x1,0x1b
    5024:	1e4080e7          	jalr	x1,484(x1) # 20204 <rvmodel_io_write_str>
    5028:	00000013          	addi	x0,x0,0
    502c:	00000013          	addi	x0,x0,0
    5030:	00000013          	addi	x0,x0,0
    5034:	00000013          	addi	x0,x0,0
    5038:	00000013          	addi	x0,x0,0
    503c:	00000013          	addi	x0,x0,0
    5040:	0000b517          	auipc	x10,0xb
    5044:	2ab50513          	addi	x10,x10,683 # 102eb <trap_diag_expected_offset_str>
    5048:	00000013          	addi	x0,x0,0
    504c:	00000013          	addi	x0,x0,0
    5050:	00000013          	addi	x0,x0,0
    5054:	00000013          	addi	x0,x0,0
    5058:	00000013          	addi	x0,x0,0
    505c:	00000013          	addi	x0,x0,0
    5060:	0001b097          	auipc	x1,0x1b
    5064:	1a4080e7          	jalr	x1,420(x1) # 20204 <rvmodel_io_write_str>
    5068:	0000a517          	auipc	x10,0xa
    506c:	0d852503          	lw	x10,216(x10) # f140 <trap_diag_expected_offset>
    5070:	02000593          	addi	x11,x0,32
    5074:	605000ef          	jal	x1,5e78 <failedtest_hex_to_str>
    5078:	00000013          	addi	x0,x0,0
    507c:	00000013          	addi	x0,x0,0
    5080:	0000a517          	auipc	x10,0xa
    5084:	0f850513          	addi	x10,x10,248 # f178 <ascii_buffer>
    5088:	00000013          	addi	x0,x0,0
    508c:	00000013          	addi	x0,x0,0
    5090:	00000013          	addi	x0,x0,0
    5094:	00000013          	addi	x0,x0,0
    5098:	00000013          	addi	x0,x0,0
    509c:	00000013          	addi	x0,x0,0
    50a0:	0001b097          	auipc	x1,0x1b
    50a4:	164080e7          	jalr	x1,356(x1) # 20204 <rvmodel_io_write_str>
    50a8:	00000013          	addi	x0,x0,0
    50ac:	00000013          	addi	x0,x0,0
    50b0:	00000013          	addi	x0,x0,0
    50b4:	00000013          	addi	x0,x0,0
    50b8:	00000013          	addi	x0,x0,0
    50bc:	00000013          	addi	x0,x0,0
    50c0:	0000b517          	auipc	x10,0xb
    50c4:	25250513          	addi	x10,x10,594 # 10312 <trap_diag_actual_offset_str>
    50c8:	00000013          	addi	x0,x0,0
    50cc:	00000013          	addi	x0,x0,0
    50d0:	00000013          	addi	x0,x0,0
    50d4:	00000013          	addi	x0,x0,0
    50d8:	00000013          	addi	x0,x0,0
    50dc:	00000013          	addi	x0,x0,0
    50e0:	0001b097          	auipc	x1,0x1b
    50e4:	124080e7          	jalr	x1,292(x1) # 20204 <rvmodel_io_write_str>
    50e8:	0000a517          	auipc	x10,0xa
    50ec:	05052503          	lw	x10,80(x10) # f138 <trap_diag_actual_offset>
    50f0:	02000593          	addi	x11,x0,32
    50f4:	585000ef          	jal	x1,5e78 <failedtest_hex_to_str>
    50f8:	00000013          	addi	x0,x0,0
    50fc:	00000013          	addi	x0,x0,0
    5100:	0000a517          	auipc	x10,0xa
    5104:	07850513          	addi	x10,x10,120 # f178 <ascii_buffer>
    5108:	00000013          	addi	x0,x0,0
    510c:	00000013          	addi	x0,x0,0
    5110:	00000013          	addi	x0,x0,0
    5114:	00000013          	addi	x0,x0,0
    5118:	00000013          	addi	x0,x0,0
    511c:	00000013          	addi	x0,x0,0
    5120:	0001b097          	auipc	x1,0x1b
    5124:	0e4080e7          	jalr	x1,228(x1) # 20204 <rvmodel_io_write_str>
    5128:	0000a317          	auipc	x6,0xa
    512c:	01032303          	lw	x6,16(x6) # f138 <trap_diag_actual_offset>
    5130:	0000a397          	auipc	x7,0xa
    5134:	0103a383          	lw	x7,16(x7) # f140 <trap_diag_expected_offset>
    5138:	10734e63          	blt	x6,x7,5254 <trap_report_missing_traps>

0000513c <trap_report_extra_traps>:
    513c:	00000013          	addi	x0,x0,0
    5140:	0000b517          	auipc	x10,0xb
    5144:	1f950513          	addi	x10,x10,505 # 10339 <trap_diag_extra_traps_str>
    5148:	00000013          	addi	x0,x0,0
    514c:	00000013          	addi	x0,x0,0
    5150:	00000013          	addi	x0,x0,0
    5154:	00000013          	addi	x0,x0,0
    5158:	00000013          	addi	x0,x0,0
    515c:	00000013          	addi	x0,x0,0
    5160:	0001b097          	auipc	x1,0x1b
    5164:	0a4080e7          	jalr	x1,164(x1) # 20204 <rvmodel_io_write_str>
    5168:	0000a317          	auipc	x6,0xa
    516c:	fd032303          	lw	x6,-48(x6) # f138 <trap_diag_actual_offset>
    5170:	0000a397          	auipc	x7,0xa
    5174:	fd03a383          	lw	x7,-48(x7) # f140 <trap_diag_expected_offset>
    5178:	40730333          	sub	x6,x6,x7
    517c:	00235313          	srli	x6,x6,0x2
    5180:	0000b517          	auipc	x10,0xb
    5184:	23e50513          	addi	x10,x10,574 # 103be <trap_diag_extra_bytes_str>
    5188:	00000013          	addi	x0,x0,0
    518c:	00000013          	addi	x0,x0,0
    5190:	00000013          	addi	x0,x0,0
    5194:	00000013          	addi	x0,x0,0
    5198:	00000013          	addi	x0,x0,0
    519c:	00000013          	addi	x0,x0,0
    51a0:	0001b097          	auipc	x1,0x1b
    51a4:	064080e7          	jalr	x1,100(x1) # 20204 <rvmodel_io_write_str>
    51a8:	0000a317          	auipc	x6,0xa
    51ac:	f9032303          	lw	x6,-112(x6) # f138 <trap_diag_actual_offset>
    51b0:	0000a397          	auipc	x7,0xa
    51b4:	f903a383          	lw	x7,-112(x7) # f140 <trap_diag_expected_offset>
    51b8:	40730533          	sub	x10,x6,x7
    51bc:	02000593          	addi	x11,x0,32
    51c0:	4b9000ef          	jal	x1,5e78 <failedtest_hex_to_str>
    51c4:	00000013          	addi	x0,x0,0
    51c8:	00000013          	addi	x0,x0,0
    51cc:	00000013          	addi	x0,x0,0
    51d0:	00000013          	addi	x0,x0,0
    51d4:	00000013          	addi	x0,x0,0
    51d8:	00000013          	addi	x0,x0,0
    51dc:	00000013          	addi	x0,x0,0
    51e0:	0000a517          	auipc	x10,0xa
    51e4:	f9850513          	addi	x10,x10,-104 # f178 <ascii_buffer>
    51e8:	00000013          	addi	x0,x0,0
    51ec:	00000013          	addi	x0,x0,0
    51f0:	00000013          	addi	x0,x0,0
    51f4:	00000013          	addi	x0,x0,0
    51f8:	00000013          	addi	x0,x0,0
    51fc:	00000013          	addi	x0,x0,0
    5200:	0001b097          	auipc	x1,0x1b
    5204:	004080e7          	jalr	x1,4(x1) # 20204 <rvmodel_io_write_str>
    5208:	00000013          	addi	x0,x0,0
    520c:	00000013          	addi	x0,x0,0
    5210:	00000013          	addi	x0,x0,0
    5214:	00000013          	addi	x0,x0,0
    5218:	00000013          	addi	x0,x0,0
    521c:	00000013          	addi	x0,x0,0
    5220:	0000b517          	auipc	x10,0xb
    5224:	1c950513          	addi	x10,x10,457 # 103e9 <trap_diag_extra_hint_str>
    5228:	00000013          	addi	x0,x0,0
    522c:	00000013          	addi	x0,x0,0
    5230:	00000013          	addi	x0,x0,0
    5234:	00000013          	addi	x0,x0,0
    5238:	00000013          	addi	x0,x0,0
    523c:	00000013          	addi	x0,x0,0
    5240:	0001b097          	auipc	x1,0x1b
    5244:	fc4080e7          	jalr	x1,-60(x1) # 20204 <rvmodel_io_write_str>
    5248:	00001097          	auipc	x1,0x1
    524c:	a28080e7          	jalr	x1,-1496(x1) # 5c70 <failedtest_print_csr_context>
    5250:	1d50006f          	jal	x0,5c24 <failedtest_report_end>

00005254 <trap_report_missing_traps>:
    5254:	00000013          	addi	x0,x0,0
    5258:	00000013          	addi	x0,x0,0
    525c:	00000013          	addi	x0,x0,0
    5260:	0000b517          	auipc	x10,0xb
    5264:	11350513          	addi	x10,x10,275 # 10373 <trap_diag_missing_traps_str>
    5268:	00000013          	addi	x0,x0,0
    526c:	00000013          	addi	x0,x0,0
    5270:	00000013          	addi	x0,x0,0
    5274:	00000013          	addi	x0,x0,0
    5278:	00000013          	addi	x0,x0,0
    527c:	00000013          	addi	x0,x0,0
    5280:	0001b097          	auipc	x1,0x1b
    5284:	f84080e7          	jalr	x1,-124(x1) # 20204 <rvmodel_io_write_str>
    5288:	00000013          	addi	x0,x0,0
    528c:	00000013          	addi	x0,x0,0
    5290:	00000013          	addi	x0,x0,0
    5294:	00000013          	addi	x0,x0,0
    5298:	00000013          	addi	x0,x0,0
    529c:	00000013          	addi	x0,x0,0
    52a0:	0000b517          	auipc	x10,0xb
    52a4:	11e50513          	addi	x10,x10,286 # 103be <trap_diag_extra_bytes_str>
    52a8:	00000013          	addi	x0,x0,0
    52ac:	00000013          	addi	x0,x0,0
    52b0:	00000013          	addi	x0,x0,0
    52b4:	00000013          	addi	x0,x0,0
    52b8:	00000013          	addi	x0,x0,0
    52bc:	00000013          	addi	x0,x0,0
    52c0:	0001b097          	auipc	x1,0x1b
    52c4:	f44080e7          	jalr	x1,-188(x1) # 20204 <rvmodel_io_write_str>
    52c8:	0000a317          	auipc	x6,0xa
    52cc:	e7832303          	lw	x6,-392(x6) # f140 <trap_diag_expected_offset>
    52d0:	0000a397          	auipc	x7,0xa
    52d4:	e683a383          	lw	x7,-408(x7) # f138 <trap_diag_actual_offset>
    52d8:	40730533          	sub	x10,x6,x7
    52dc:	02000593          	addi	x11,x0,32
    52e0:	399000ef          	jal	x1,5e78 <failedtest_hex_to_str>
    52e4:	00000013          	addi	x0,x0,0
    52e8:	00000013          	addi	x0,x0,0
    52ec:	00000013          	addi	x0,x0,0
    52f0:	00000013          	addi	x0,x0,0
    52f4:	00000013          	addi	x0,x0,0
    52f8:	00000013          	addi	x0,x0,0
    52fc:	00000013          	addi	x0,x0,0
    5300:	0000a517          	auipc	x10,0xa
    5304:	e7850513          	addi	x10,x10,-392 # f178 <ascii_buffer>
    5308:	00000013          	addi	x0,x0,0
    530c:	00000013          	addi	x0,x0,0
    5310:	00000013          	addi	x0,x0,0
    5314:	00000013          	addi	x0,x0,0
    5318:	00000013          	addi	x0,x0,0
    531c:	00000013          	addi	x0,x0,0
    5320:	0001b097          	auipc	x1,0x1b
    5324:	ee4080e7          	jalr	x1,-284(x1) # 20204 <rvmodel_io_write_str>
    5328:	00000013          	addi	x0,x0,0
    532c:	00000013          	addi	x0,x0,0
    5330:	00000013          	addi	x0,x0,0
    5334:	00000013          	addi	x0,x0,0
    5338:	00000013          	addi	x0,x0,0
    533c:	00000013          	addi	x0,x0,0
    5340:	0000b517          	auipc	x10,0xb
    5344:	19150513          	addi	x10,x10,401 # 104d1 <trap_diag_missing_hint_str>
    5348:	00000013          	addi	x0,x0,0
    534c:	00000013          	addi	x0,x0,0
    5350:	00000013          	addi	x0,x0,0
    5354:	00000013          	addi	x0,x0,0
    5358:	00000013          	addi	x0,x0,0
    535c:	00000013          	addi	x0,x0,0
    5360:	0001b097          	auipc	x1,0x1b
    5364:	ea4080e7          	jalr	x1,-348(x1) # 20204 <rvmodel_io_write_str>
    5368:	00001097          	auipc	x1,0x1
    536c:	908080e7          	jalr	x1,-1784(x1) # 5c70 <failedtest_print_csr_context>
    5370:	0b50006f          	jal	x0,5c24 <failedtest_report_end>

00005374 <trap_report_field_mismatch>:
    5374:	00000013          	addi	x0,x0,0
    5378:	00000013          	addi	x0,x0,0
    537c:	00000013          	addi	x0,x0,0
    5380:	0000b517          	auipc	x10,0xb
    5384:	23850513          	addi	x10,x10,568 # 105b8 <trap_diag_handler_mode_str>
    5388:	00000013          	addi	x0,x0,0
    538c:	00000013          	addi	x0,x0,0
    5390:	00000013          	addi	x0,x0,0
    5394:	00000013          	addi	x0,x0,0
    5398:	00000013          	addi	x0,x0,0
    539c:	00000013          	addi	x0,x0,0
    53a0:	0001b097          	auipc	x1,0x1b
    53a4:	e64080e7          	jalr	x1,-412(x1) # 20204 <rvmodel_io_write_str>
    53a8:	0000a517          	auipc	x10,0xa
    53ac:	d7c52503          	lw	x10,-644(x10) # f124 <trap_diag_mode>
    53b0:	04050a63          	beq	x10,x0,5404 <trap_mode_m>
    53b4:	00100593          	addi	x11,x0,1
    53b8:	08b50663          	beq	x10,x11,5444 <trap_mode_s>
    53bc:	00200593          	addi	x11,x0,2
    53c0:	0cb50263          	beq	x10,x11,5484 <trap_mode_h>
    53c4:	00300593          	addi	x11,x0,3
    53c8:	0eb50e63          	beq	x10,x11,54c4 <trap_mode_v>
    53cc:	00000013          	addi	x0,x0,0
    53d0:	00000013          	addi	x0,x0,0
    53d4:	00000013          	addi	x0,x0,0
    53d8:	00000013          	addi	x0,x0,0
    53dc:	00000013          	addi	x0,x0,0
    53e0:	0000b517          	auipc	x10,0xb
    53e4:	21450513          	addi	x10,x10,532 # 105f4 <trap_diag_mode_unknown_str>
    53e8:	00000013          	addi	x0,x0,0
    53ec:	00000013          	addi	x0,x0,0
    53f0:	00000013          	addi	x0,x0,0
    53f4:	00000013          	addi	x0,x0,0
    53f8:	00000013          	addi	x0,x0,0
    53fc:	00000013          	addi	x0,x0,0
    5400:	1000006f          	jal	x0,5500 <trap_mode_print>

00005404 <trap_mode_m>:
    5404:	00000013          	addi	x0,x0,0
    5408:	00000013          	addi	x0,x0,0
    540c:	00000013          	addi	x0,x0,0
    5410:	00000013          	addi	x0,x0,0
    5414:	00000013          	addi	x0,x0,0
    5418:	00000013          	addi	x0,x0,0
    541c:	00000013          	addi	x0,x0,0
    5420:	0000b517          	auipc	x10,0xb
    5424:	1b250513          	addi	x10,x10,434 # 105d2 <trap_diag_mode_m_str>
    5428:	00000013          	addi	x0,x0,0
    542c:	00000013          	addi	x0,x0,0
    5430:	00000013          	addi	x0,x0,0
    5434:	00000013          	addi	x0,x0,0
    5438:	00000013          	addi	x0,x0,0
    543c:	00000013          	addi	x0,x0,0
    5440:	0c00006f          	jal	x0,5500 <trap_mode_print>

00005444 <trap_mode_s>:
    5444:	00000013          	addi	x0,x0,0
    5448:	00000013          	addi	x0,x0,0
    544c:	00000013          	addi	x0,x0,0
    5450:	00000013          	addi	x0,x0,0
    5454:	00000013          	addi	x0,x0,0
    5458:	00000013          	addi	x0,x0,0
    545c:	00000013          	addi	x0,x0,0
    5460:	0000b517          	auipc	x10,0xb
    5464:	17a50513          	addi	x10,x10,378 # 105da <trap_diag_mode_s_str>
    5468:	00000013          	addi	x0,x0,0
    546c:	00000013          	addi	x0,x0,0
    5470:	00000013          	addi	x0,x0,0
    5474:	00000013          	addi	x0,x0,0
    5478:	00000013          	addi	x0,x0,0
    547c:	00000013          	addi	x0,x0,0
    5480:	0800006f          	jal	x0,5500 <trap_mode_print>

00005484 <trap_mode_h>:
    5484:	00000013          	addi	x0,x0,0
    5488:	00000013          	addi	x0,x0,0
    548c:	00000013          	addi	x0,x0,0
    5490:	00000013          	addi	x0,x0,0
    5494:	00000013          	addi	x0,x0,0
    5498:	00000013          	addi	x0,x0,0
    549c:	00000013          	addi	x0,x0,0
    54a0:	0000b517          	auipc	x10,0xb
    54a4:	14250513          	addi	x10,x10,322 # 105e2 <trap_diag_mode_hs_str>
    54a8:	00000013          	addi	x0,x0,0
    54ac:	00000013          	addi	x0,x0,0
    54b0:	00000013          	addi	x0,x0,0
    54b4:	00000013          	addi	x0,x0,0
    54b8:	00000013          	addi	x0,x0,0
    54bc:	00000013          	addi	x0,x0,0
    54c0:	0400006f          	jal	x0,5500 <trap_mode_print>

000054c4 <trap_mode_v>:
    54c4:	00000013          	addi	x0,x0,0
    54c8:	00000013          	addi	x0,x0,0
    54cc:	00000013          	addi	x0,x0,0
    54d0:	00000013          	addi	x0,x0,0
    54d4:	00000013          	addi	x0,x0,0
    54d8:	00000013          	addi	x0,x0,0
    54dc:	00000013          	addi	x0,x0,0
    54e0:	0000b517          	auipc	x10,0xb
    54e4:	10b50513          	addi	x10,x10,267 # 105eb <trap_diag_mode_vs_str>
    54e8:	00000013          	addi	x0,x0,0
    54ec:	00000013          	addi	x0,x0,0
    54f0:	00000013          	addi	x0,x0,0
    54f4:	00000013          	addi	x0,x0,0
    54f8:	00000013          	addi	x0,x0,0
    54fc:	00000013          	addi	x0,x0,0

00005500 <trap_mode_print>:
    5500:	0001b097          	auipc	x1,0x1b
    5504:	d04080e7          	jalr	x1,-764(x1) # 20204 <rvmodel_io_write_str>
    5508:	00000013          	addi	x0,x0,0
    550c:	00000013          	addi	x0,x0,0
    5510:	00000013          	addi	x0,x0,0
    5514:	00000013          	addi	x0,x0,0
    5518:	00000013          	addi	x0,x0,0
    551c:	00000013          	addi	x0,x0,0
    5520:	0000b517          	auipc	x10,0xb
    5524:	0dd50513          	addi	x10,x10,221 # 105fd <trap_diag_field_str>
    5528:	00000013          	addi	x0,x0,0
    552c:	00000013          	addi	x0,x0,0
    5530:	00000013          	addi	x0,x0,0
    5534:	00000013          	addi	x0,x0,0
    5538:	00000013          	addi	x0,x0,0
    553c:	00000013          	addi	x0,x0,0
    5540:	0001b097          	auipc	x1,0x1b
    5544:	cc4080e7          	jalr	x1,-828(x1) # 20204 <rvmodel_io_write_str>
    5548:	0000a517          	auipc	x10,0xa
    554c:	bd852503          	lw	x10,-1064(x10) # f120 <trap_diag_subtype>
    5550:	00100593          	addi	x11,x0,1
    5554:	06b50863          	beq	x10,x11,55c4 <trap_field_vect>
    5558:	00200593          	addi	x11,x0,2
    555c:	0ab50463          	beq	x10,x11,5604 <trap_field_cause>
    5560:	00300593          	addi	x11,x0,3
    5564:	0eb50063          	beq	x10,x11,5644 <trap_field_epc>
    5568:	00400593          	addi	x11,x0,4
    556c:	10b50c63          	beq	x10,x11,5684 <trap_field_tval>
    5570:	00500593          	addi	x11,x0,5
    5574:	14b50863          	beq	x10,x11,56c4 <trap_field_ip>
    5578:	00600593          	addi	x11,x0,6
    557c:	18b50463          	beq	x10,x11,5704 <trap_field_tval2>
    5580:	00700593          	addi	x11,x0,7
    5584:	1cb50063          	beq	x10,x11,5744 <trap_field_tinst>
    5588:	00800593          	addi	x11,x0,8
    558c:	1eb50c63          	beq	x10,x11,5784 <trap_field_intid>
    5590:	00000013          	addi	x0,x0,0
    5594:	00000013          	addi	x0,x0,0
    5598:	00000013          	addi	x0,x0,0
    559c:	00000013          	addi	x0,x0,0
    55a0:	0000b517          	auipc	x10,0xb
    55a4:	1b450513          	addi	x10,x10,436 # 10754 <trap_diag_field_unknown_str>
    55a8:	00000013          	addi	x0,x0,0
    55ac:	00000013          	addi	x0,x0,0
    55b0:	00000013          	addi	x0,x0,0
    55b4:	00000013          	addi	x0,x0,0
    55b8:	00000013          	addi	x0,x0,0
    55bc:	00000013          	addi	x0,x0,0
    55c0:	2000006f          	jal	x0,57c0 <trap_field_print>

000055c4 <trap_field_vect>:
    55c4:	00000013          	addi	x0,x0,0
    55c8:	00000013          	addi	x0,x0,0
    55cc:	00000013          	addi	x0,x0,0
    55d0:	00000013          	addi	x0,x0,0
    55d4:	00000013          	addi	x0,x0,0
    55d8:	00000013          	addi	x0,x0,0
    55dc:	00000013          	addi	x0,x0,0
    55e0:	0000b517          	auipc	x10,0xb
    55e4:	03750513          	addi	x10,x10,55 # 10617 <trap_diag_field_vect_str>
    55e8:	00000013          	addi	x0,x0,0
    55ec:	00000013          	addi	x0,x0,0
    55f0:	00000013          	addi	x0,x0,0
    55f4:	00000013          	addi	x0,x0,0
    55f8:	00000013          	addi	x0,x0,0
    55fc:	00000013          	addi	x0,x0,0
    5600:	1c00006f          	jal	x0,57c0 <trap_field_print>

00005604 <trap_field_cause>:
    5604:	00000013          	addi	x0,x0,0
    5608:	00000013          	addi	x0,x0,0
    560c:	00000013          	addi	x0,x0,0
    5610:	00000013          	addi	x0,x0,0
    5614:	00000013          	addi	x0,x0,0
    5618:	00000013          	addi	x0,x0,0
    561c:	00000013          	addi	x0,x0,0
    5620:	0000b517          	auipc	x10,0xb
    5624:	02850513          	addi	x10,x10,40 # 10648 <trap_diag_field_cause_str>
    5628:	00000013          	addi	x0,x0,0
    562c:	00000013          	addi	x0,x0,0
    5630:	00000013          	addi	x0,x0,0
    5634:	00000013          	addi	x0,x0,0
    5638:	00000013          	addi	x0,x0,0
    563c:	00000013          	addi	x0,x0,0
    5640:	1800006f          	jal	x0,57c0 <trap_field_print>

00005644 <trap_field_epc>:
    5644:	00000013          	addi	x0,x0,0
    5648:	00000013          	addi	x0,x0,0
    564c:	00000013          	addi	x0,x0,0
    5650:	00000013          	addi	x0,x0,0
    5654:	00000013          	addi	x0,x0,0
    5658:	00000013          	addi	x0,x0,0
    565c:	00000013          	addi	x0,x0,0
    5660:	0000b517          	auipc	x10,0xb
    5664:	00850513          	addi	x10,x10,8 # 10668 <trap_diag_field_epc_str>
    5668:	00000013          	addi	x0,x0,0
    566c:	00000013          	addi	x0,x0,0
    5670:	00000013          	addi	x0,x0,0
    5674:	00000013          	addi	x0,x0,0
    5678:	00000013          	addi	x0,x0,0
    567c:	00000013          	addi	x0,x0,0
    5680:	1400006f          	jal	x0,57c0 <trap_field_print>

00005684 <trap_field_tval>:
    5684:	00000013          	addi	x0,x0,0
    5688:	00000013          	addi	x0,x0,0
    568c:	00000013          	addi	x0,x0,0
    5690:	00000013          	addi	x0,x0,0
    5694:	00000013          	addi	x0,x0,0
    5698:	00000013          	addi	x0,x0,0
    569c:	00000013          	addi	x0,x0,0
    56a0:	0000b517          	auipc	x10,0xb
    56a4:	fe650513          	addi	x10,x10,-26 # 10686 <trap_diag_field_tval_str>
    56a8:	00000013          	addi	x0,x0,0
    56ac:	00000013          	addi	x0,x0,0
    56b0:	00000013          	addi	x0,x0,0
    56b4:	00000013          	addi	x0,x0,0
    56b8:	00000013          	addi	x0,x0,0
    56bc:	00000013          	addi	x0,x0,0
    56c0:	1000006f          	jal	x0,57c0 <trap_field_print>

000056c4 <trap_field_ip>:
    56c4:	00000013          	addi	x0,x0,0
    56c8:	00000013          	addi	x0,x0,0
    56cc:	00000013          	addi	x0,x0,0
    56d0:	00000013          	addi	x0,x0,0
    56d4:	00000013          	addi	x0,x0,0
    56d8:	00000013          	addi	x0,x0,0
    56dc:	00000013          	addi	x0,x0,0
    56e0:	0000b517          	auipc	x10,0xb
    56e4:	fc550513          	addi	x10,x10,-59 # 106a5 <trap_diag_field_ip_str>
    56e8:	00000013          	addi	x0,x0,0
    56ec:	00000013          	addi	x0,x0,0
    56f0:	00000013          	addi	x0,x0,0
    56f4:	00000013          	addi	x0,x0,0
    56f8:	00000013          	addi	x0,x0,0
    56fc:	00000013          	addi	x0,x0,0
    5700:	0c00006f          	jal	x0,57c0 <trap_field_print>

00005704 <trap_field_tval2>:
    5704:	00000013          	addi	x0,x0,0
    5708:	00000013          	addi	x0,x0,0
    570c:	00000013          	addi	x0,x0,0
    5710:	00000013          	addi	x0,x0,0
    5714:	00000013          	addi	x0,x0,0
    5718:	00000013          	addi	x0,x0,0
    571c:	00000013          	addi	x0,x0,0
    5720:	0000b517          	auipc	x10,0xb
    5724:	fad50513          	addi	x10,x10,-83 # 106cd <trap_diag_field_tval2_str>
    5728:	00000013          	addi	x0,x0,0
    572c:	00000013          	addi	x0,x0,0
    5730:	00000013          	addi	x0,x0,0
    5734:	00000013          	addi	x0,x0,0
    5738:	00000013          	addi	x0,x0,0
    573c:	00000013          	addi	x0,x0,0
    5740:	0800006f          	jal	x0,57c0 <trap_field_print>

00005744 <trap_field_tinst>:
    5744:	00000013          	addi	x0,x0,0
    5748:	00000013          	addi	x0,x0,0
    574c:	00000013          	addi	x0,x0,0
    5750:	00000013          	addi	x0,x0,0
    5754:	00000013          	addi	x0,x0,0
    5758:	00000013          	addi	x0,x0,0
    575c:	00000013          	addi	x0,x0,0
    5760:	0000b517          	auipc	x10,0xb
    5764:	f9950513          	addi	x10,x10,-103 # 106f9 <trap_diag_field_tinst_str>
    5768:	00000013          	addi	x0,x0,0
    576c:	00000013          	addi	x0,x0,0
    5770:	00000013          	addi	x0,x0,0
    5774:	00000013          	addi	x0,x0,0
    5778:	00000013          	addi	x0,x0,0
    577c:	00000013          	addi	x0,x0,0
    5780:	0400006f          	jal	x0,57c0 <trap_field_print>

00005784 <trap_field_intid>:
    5784:	00000013          	addi	x0,x0,0
    5788:	00000013          	addi	x0,x0,0
    578c:	00000013          	addi	x0,x0,0
    5790:	00000013          	addi	x0,x0,0
    5794:	00000013          	addi	x0,x0,0
    5798:	00000013          	addi	x0,x0,0
    579c:	00000013          	addi	x0,x0,0
    57a0:	0000b517          	auipc	x10,0xb
    57a4:	f8550513          	addi	x10,x10,-123 # 10725 <trap_diag_field_intid_str>
    57a8:	00000013          	addi	x0,x0,0
    57ac:	00000013          	addi	x0,x0,0
    57b0:	00000013          	addi	x0,x0,0
    57b4:	00000013          	addi	x0,x0,0
    57b8:	00000013          	addi	x0,x0,0
    57bc:	00000013          	addi	x0,x0,0

000057c0 <trap_field_print>:
    57c0:	0001b097          	auipc	x1,0x1b
    57c4:	a44080e7          	jalr	x1,-1468(x1) # 20204 <rvmodel_io_write_str>
    57c8:	00000013          	addi	x0,x0,0
    57cc:	00000013          	addi	x0,x0,0
    57d0:	00000013          	addi	x0,x0,0
    57d4:	00000013          	addi	x0,x0,0
    57d8:	00000013          	addi	x0,x0,0
    57dc:	00000013          	addi	x0,x0,0
    57e0:	0000b517          	auipc	x10,0xb
    57e4:	f8350513          	addi	x10,x10,-125 # 10763 <trap_diag_expected_str>
    57e8:	00000013          	addi	x0,x0,0
    57ec:	00000013          	addi	x0,x0,0
    57f0:	00000013          	addi	x0,x0,0
    57f4:	00000013          	addi	x0,x0,0
    57f8:	00000013          	addi	x0,x0,0
    57fc:	00000013          	addi	x0,x0,0
    5800:	0001b097          	auipc	x1,0x1b
    5804:	a04080e7          	jalr	x1,-1532(x1) # 20204 <rvmodel_io_write_str>
    5808:	0000a517          	auipc	x10,0xa
    580c:	92852503          	lw	x10,-1752(x10) # f130 <trap_diag_expected_value>
    5810:	02000593          	addi	x11,x0,32
    5814:	664000ef          	jal	x1,5e78 <failedtest_hex_to_str>
    5818:	00000013          	addi	x0,x0,0
    581c:	00000013          	addi	x0,x0,0
    5820:	0000a517          	auipc	x10,0xa
    5824:	95850513          	addi	x10,x10,-1704 # f178 <ascii_buffer>
    5828:	00000013          	addi	x0,x0,0
    582c:	00000013          	addi	x0,x0,0
    5830:	00000013          	addi	x0,x0,0
    5834:	00000013          	addi	x0,x0,0
    5838:	00000013          	addi	x0,x0,0
    583c:	00000013          	addi	x0,x0,0
    5840:	0001b097          	auipc	x1,0x1b
    5844:	9c4080e7          	jalr	x1,-1596(x1) # 20204 <rvmodel_io_write_str>
    5848:	00000013          	addi	x0,x0,0
    584c:	00000013          	addi	x0,x0,0
    5850:	00000013          	addi	x0,x0,0
    5854:	00000013          	addi	x0,x0,0
    5858:	00000013          	addi	x0,x0,0
    585c:	00000013          	addi	x0,x0,0
    5860:	0000b517          	auipc	x10,0xb
    5864:	f1a50513          	addi	x10,x10,-230 # 1077a <trap_diag_actual_str>
    5868:	00000013          	addi	x0,x0,0
    586c:	00000013          	addi	x0,x0,0
    5870:	00000013          	addi	x0,x0,0
    5874:	00000013          	addi	x0,x0,0
    5878:	00000013          	addi	x0,x0,0
    587c:	00000013          	addi	x0,x0,0
    5880:	0001b097          	auipc	x1,0x1b
    5884:	984080e7          	jalr	x1,-1660(x1) # 20204 <rvmodel_io_write_str>
    5888:	0000a517          	auipc	x10,0xa
    588c:	8a052503          	lw	x10,-1888(x10) # f128 <trap_diag_actual_value>
    5890:	02000593          	addi	x11,x0,32
    5894:	5e4000ef          	jal	x1,5e78 <failedtest_hex_to_str>
    5898:	00000013          	addi	x0,x0,0
    589c:	00000013          	addi	x0,x0,0
    58a0:	0000a517          	auipc	x10,0xa
    58a4:	8d850513          	addi	x10,x10,-1832 # f178 <ascii_buffer>
    58a8:	00000013          	addi	x0,x0,0
    58ac:	00000013          	addi	x0,x0,0
    58b0:	00000013          	addi	x0,x0,0
    58b4:	00000013          	addi	x0,x0,0
    58b8:	00000013          	addi	x0,x0,0
    58bc:	00000013          	addi	x0,x0,0
    58c0:	0001b097          	auipc	x1,0x1b
    58c4:	944080e7          	jalr	x1,-1724(x1) # 20204 <rvmodel_io_write_str>
    58c8:	0000a517          	auipc	x10,0xa
    58cc:	85852503          	lw	x10,-1960(x10) # f120 <trap_diag_subtype>
    58d0:	00200593          	addi	x11,x0,2
    58d4:	08b51463          	bne	x10,x11,595c <trap_field_not_cause>
    58d8:	00000013          	addi	x0,x0,0
    58dc:	00000013          	addi	x0,x0,0
    58e0:	0000b517          	auipc	x10,0xb
    58e4:	eb150513          	addi	x10,x10,-335 # 10791 <trap_diag_expected_cause_name_str>
    58e8:	00000013          	addi	x0,x0,0
    58ec:	00000013          	addi	x0,x0,0
    58f0:	00000013          	addi	x0,x0,0
    58f4:	00000013          	addi	x0,x0,0
    58f8:	00000013          	addi	x0,x0,0
    58fc:	00000013          	addi	x0,x0,0
    5900:	0001b097          	auipc	x1,0x1b
    5904:	904080e7          	jalr	x1,-1788(x1) # 20204 <rvmodel_io_write_str>
    5908:	0000a517          	auipc	x10,0xa
    590c:	82852503          	lw	x10,-2008(x10) # f130 <trap_diag_expected_value>
    5910:	284000ef          	jal	x1,5b94 <trap_cause_to_str>
    5914:	0001b097          	auipc	x1,0x1b
    5918:	8f0080e7          	jalr	x1,-1808(x1) # 20204 <rvmodel_io_write_str>
    591c:	00000013          	addi	x0,x0,0
    5920:	0000b517          	auipc	x10,0xb
    5924:	e8850513          	addi	x10,x10,-376 # 107a8 <trap_diag_actual_cause_name_str>
    5928:	00000013          	addi	x0,x0,0
    592c:	00000013          	addi	x0,x0,0
    5930:	00000013          	addi	x0,x0,0
    5934:	00000013          	addi	x0,x0,0
    5938:	00000013          	addi	x0,x0,0
    593c:	00000013          	addi	x0,x0,0
    5940:	0001b097          	auipc	x1,0x1b
    5944:	8c4080e7          	jalr	x1,-1852(x1) # 20204 <rvmodel_io_write_str>
    5948:	00009517          	auipc	x10,0x9
    594c:	7e052503          	lw	x10,2016(x10) # f128 <trap_diag_actual_value>
    5950:	244000ef          	jal	x1,5b94 <trap_cause_to_str>
    5954:	0001b097          	auipc	x1,0x1b
    5958:	8b0080e7          	jalr	x1,-1872(x1) # 20204 <rvmodel_io_write_str>

0000595c <trap_field_not_cause>:
    595c:	00000097          	auipc	x1,0x0
    5960:	314080e7          	jalr	x1,788(x1) # 5c70 <failedtest_print_csr_context>
    5964:	00009517          	auipc	x10,0x9
    5968:	7bc52503          	lw	x10,1980(x10) # f120 <trap_diag_subtype>
    596c:	00100593          	addi	x11,x0,1
    5970:	02b51e63          	bne	x10,x11,59ac <trap_field_not_cause+0x50>
    5974:	00000013          	addi	x0,x0,0
    5978:	00000013          	addi	x0,x0,0
    597c:	00000013          	addi	x0,x0,0
    5980:	0000b517          	auipc	x10,0xb
    5984:	e9e50513          	addi	x10,x10,-354 # 1081e <trap_diag_hint_vect_str>
    5988:	00000013          	addi	x0,x0,0
    598c:	00000013          	addi	x0,x0,0
    5990:	00000013          	addi	x0,x0,0
    5994:	00000013          	addi	x0,x0,0
    5998:	00000013          	addi	x0,x0,0
    599c:	00000013          	addi	x0,x0,0
    59a0:	0001b097          	auipc	x1,0x1b
    59a4:	864080e7          	jalr	x1,-1948(x1) # 20204 <rvmodel_io_write_str>
    59a8:	27c0006f          	jal	x0,5c24 <failedtest_report_end>
    59ac:	00200593          	addi	x11,x0,2
    59b0:	02b51e63          	bne	x10,x11,59ec <trap_field_not_cause+0x90>
    59b4:	00000013          	addi	x0,x0,0
    59b8:	00000013          	addi	x0,x0,0
    59bc:	00000013          	addi	x0,x0,0
    59c0:	0000b517          	auipc	x10,0xb
    59c4:	f3450513          	addi	x10,x10,-204 # 108f4 <trap_diag_hint_cause_str>
    59c8:	00000013          	addi	x0,x0,0
    59cc:	00000013          	addi	x0,x0,0
    59d0:	00000013          	addi	x0,x0,0
    59d4:	00000013          	addi	x0,x0,0
    59d8:	00000013          	addi	x0,x0,0
    59dc:	00000013          	addi	x0,x0,0
    59e0:	0001b097          	auipc	x1,0x1b
    59e4:	824080e7          	jalr	x1,-2012(x1) # 20204 <rvmodel_io_write_str>
    59e8:	23c0006f          	jal	x0,5c24 <failedtest_report_end>
    59ec:	00300593          	addi	x11,x0,3
    59f0:	02b51e63          	bne	x10,x11,5a2c <trap_field_not_cause+0xd0>
    59f4:	00000013          	addi	x0,x0,0
    59f8:	00000013          	addi	x0,x0,0
    59fc:	00000013          	addi	x0,x0,0
    5a00:	0000b517          	auipc	x10,0xb
    5a04:	fe750513          	addi	x10,x10,-25 # 109e7 <trap_diag_hint_epc_str>
    5a08:	00000013          	addi	x0,x0,0
    5a0c:	00000013          	addi	x0,x0,0
    5a10:	00000013          	addi	x0,x0,0
    5a14:	00000013          	addi	x0,x0,0
    5a18:	00000013          	addi	x0,x0,0
    5a1c:	00000013          	addi	x0,x0,0
    5a20:	0001a097          	auipc	x1,0x1a
    5a24:	7e4080e7          	jalr	x1,2020(x1) # 20204 <rvmodel_io_write_str>
    5a28:	1fc0006f          	jal	x0,5c24 <failedtest_report_end>
    5a2c:	00400593          	addi	x11,x0,4
    5a30:	02b51e63          	bne	x10,x11,5a6c <trap_field_not_cause+0x110>
    5a34:	00000013          	addi	x0,x0,0
    5a38:	00000013          	addi	x0,x0,0
    5a3c:	00000013          	addi	x0,x0,0
    5a40:	0000b517          	auipc	x10,0xb
    5a44:	0a250513          	addi	x10,x10,162 # 10ae2 <trap_diag_hint_tval_str>
    5a48:	00000013          	addi	x0,x0,0
    5a4c:	00000013          	addi	x0,x0,0
    5a50:	00000013          	addi	x0,x0,0
    5a54:	00000013          	addi	x0,x0,0
    5a58:	00000013          	addi	x0,x0,0
    5a5c:	00000013          	addi	x0,x0,0
    5a60:	0001a097          	auipc	x1,0x1a
    5a64:	7a4080e7          	jalr	x1,1956(x1) # 20204 <rvmodel_io_write_str>
    5a68:	1bc0006f          	jal	x0,5c24 <failedtest_report_end>
    5a6c:	00500593          	addi	x11,x0,5
    5a70:	02b51e63          	bne	x10,x11,5aac <trap_field_not_cause+0x150>
    5a74:	00000013          	addi	x0,x0,0
    5a78:	00000013          	addi	x0,x0,0
    5a7c:	00000013          	addi	x0,x0,0
    5a80:	0000b517          	auipc	x10,0xb
    5a84:	14950513          	addi	x10,x10,329 # 10bc9 <trap_diag_hint_ip_str>
    5a88:	00000013          	addi	x0,x0,0
    5a8c:	00000013          	addi	x0,x0,0
    5a90:	00000013          	addi	x0,x0,0
    5a94:	00000013          	addi	x0,x0,0
    5a98:	00000013          	addi	x0,x0,0
    5a9c:	00000013          	addi	x0,x0,0
    5aa0:	0001a097          	auipc	x1,0x1a
    5aa4:	764080e7          	jalr	x1,1892(x1) # 20204 <rvmodel_io_write_str>
    5aa8:	17c0006f          	jal	x0,5c24 <failedtest_report_end>
    5aac:	1780006f          	jal	x0,5c24 <failedtest_report_end>

00005ab0 <trap_report_generic>:
    5ab0:	00000013          	addi	x0,x0,0
    5ab4:	00000013          	addi	x0,x0,0
    5ab8:	00000013          	addi	x0,x0,0
    5abc:	00000013          	addi	x0,x0,0
    5ac0:	0000b517          	auipc	x10,0xb
    5ac4:	d1650513          	addi	x10,x10,-746 # 107d6 <trap_diag_generic_str>
    5ac8:	00000013          	addi	x0,x0,0
    5acc:	00000013          	addi	x0,x0,0
    5ad0:	00000013          	addi	x0,x0,0
    5ad4:	00000013          	addi	x0,x0,0
    5ad8:	00000013          	addi	x0,x0,0
    5adc:	00000013          	addi	x0,x0,0
    5ae0:	0001a097          	auipc	x1,0x1a
    5ae4:	724080e7          	jalr	x1,1828(x1) # 20204 <rvmodel_io_write_str>
    5ae8:	00009617          	auipc	x12,0x9
    5aec:	67062603          	lw	x12,1648(x12) # f158 <saved_mepc>
    5af0:	00000013          	addi	x0,x0,0
    5af4:	00000013          	addi	x0,x0,0
    5af8:	00000013          	addi	x0,x0,0
    5afc:	00000013          	addi	x0,x0,0
    5b00:	0000a517          	auipc	x10,0xa
    5b04:	cb950513          	addi	x10,x10,-839 # f7b9 <xepcinstrstr>
    5b08:	00000013          	addi	x0,x0,0
    5b0c:	00000013          	addi	x0,x0,0
    5b10:	00000013          	addi	x0,x0,0
    5b14:	00000013          	addi	x0,x0,0
    5b18:	00000013          	addi	x0,x0,0
    5b1c:	00000013          	addi	x0,x0,0
    5b20:	0001a097          	auipc	x1,0x1a
    5b24:	6e4080e7          	jalr	x1,1764(x1) # 20204 <rvmodel_io_write_str>
    5b28:	00065503          	lhu	x10,0(x12)
    5b2c:	01000593          	addi	x11,x0,16
    5b30:	00357413          	andi	x8,x10,3
    5b34:	00300493          	addi	x9,x0,3
    5b38:	00941a63          	bne	x8,x9,5b4c <trap_report_generic+0x9c>
    5b3c:	00265403          	lhu	x8,2(x12)
    5b40:	01041413          	slli	x8,x8,0x10
    5b44:	00856533          	or	x10,x10,x8
    5b48:	02000593          	addi	x11,x0,32
    5b4c:	32c000ef          	jal	x1,5e78 <failedtest_hex_to_str>
    5b50:	00000013          	addi	x0,x0,0
    5b54:	00000013          	addi	x0,x0,0
    5b58:	00000013          	addi	x0,x0,0
    5b5c:	00000013          	addi	x0,x0,0
    5b60:	00009517          	auipc	x10,0x9
    5b64:	61850513          	addi	x10,x10,1560 # f178 <ascii_buffer>
    5b68:	00000013          	addi	x0,x0,0
    5b6c:	00000013          	addi	x0,x0,0
    5b70:	00000013          	addi	x0,x0,0
    5b74:	00000013          	addi	x0,x0,0
    5b78:	00000013          	addi	x0,x0,0
    5b7c:	00000013          	addi	x0,x0,0
    5b80:	0001a097          	auipc	x1,0x1a
    5b84:	684080e7          	jalr	x1,1668(x1) # 20204 <rvmodel_io_write_str>
    5b88:	00000097          	auipc	x1,0x0
    5b8c:	0e8080e7          	jalr	x1,232(x1) # 5c70 <failedtest_print_csr_context>
    5b90:	0940006f          	jal	x0,5c24 <failedtest_report_end>

00005b94 <trap_cause_to_str>:
    5b94:	02054263          	blt	x10,x0,5bb8 <trap_cause_interrupt>

00005b98 <trap_cause_exception>:
    5b98:	01800593          	addi	x11,x0,24
    5b9c:	04b55463          	bge	x10,x11,5be4 <trap_cause_unknown>
    5ba0:	00009597          	auipc	x11,0x9
    5ba4:	60058593          	addi	x11,x11,1536 # f1a0 <end_failure_scratch>
    5ba8:	00251613          	slli	x12,x10,0x2
    5bac:	00c585b3          	add	x11,x11,x12
    5bb0:	0005a503          	lw	x10,0(x11)
    5bb4:	00008067          	jalr	x0,0(x1)

00005bb8 <trap_cause_interrupt>:
    5bb8:	00100593          	addi	x11,x0,1
    5bbc:	01f59593          	slli	x11,x11,0x1f
    5bc0:	00b54533          	xor	x10,x10,x11
    5bc4:	01000593          	addi	x11,x0,16
    5bc8:	00b55e63          	bge	x10,x11,5be4 <trap_cause_unknown>
    5bcc:	00009597          	auipc	x11,0x9
    5bd0:	63458593          	addi	x11,x11,1588 # f200 <trap_int_name_tbl>
    5bd4:	00251613          	slli	x12,x10,0x2
    5bd8:	00c585b3          	add	x11,x11,x12
    5bdc:	0005a503          	lw	x10,0(x11)
    5be0:	00008067          	jalr	x0,0(x1)

00005be4 <trap_cause_unknown>:
    5be4:	00000013          	addi	x0,x0,0
    5be8:	00000013          	addi	x0,x0,0
    5bec:	00000013          	addi	x0,x0,0
    5bf0:	00000013          	addi	x0,x0,0
    5bf4:	00000013          	addi	x0,x0,0
    5bf8:	00000013          	addi	x0,x0,0
    5bfc:	00000013          	addi	x0,x0,0
    5c00:	0000a517          	auipc	x10,0xa
    5c04:	a3e50513          	addi	x10,x10,-1474 # f63e <trap_cause_unknown_str>
    5c08:	00000013          	addi	x0,x0,0
    5c0c:	00000013          	addi	x0,x0,0
    5c10:	00000013          	addi	x0,x0,0
    5c14:	00000013          	addi	x0,x0,0
    5c18:	00000013          	addi	x0,x0,0
    5c1c:	00000013          	addi	x0,x0,0
    5c20:	00008067          	jalr	x0,0(x1)

00005c24 <failedtest_report_end>:
    5c24:	00000013          	addi	x0,x0,0
    5c28:	00000013          	addi	x0,x0,0
    5c2c:	00000013          	addi	x0,x0,0
    5c30:	00000013          	addi	x0,x0,0
    5c34:	00000013          	addi	x0,x0,0
    5c38:	00000013          	addi	x0,x0,0
    5c3c:	00000013          	addi	x0,x0,0
    5c40:	0000a517          	auipc	x10,0xa
    5c44:	5c150513          	addi	x10,x10,1473 # 10201 <endstr>
    5c48:	00000013          	addi	x0,x0,0
    5c4c:	00000013          	addi	x0,x0,0
    5c50:	00000013          	addi	x0,x0,0
    5c54:	00000013          	addi	x0,x0,0
    5c58:	00000013          	addi	x0,x0,0
    5c5c:	00000013          	addi	x0,x0,0
    5c60:	0001a097          	auipc	x1,0x1a
    5c64:	5a4080e7          	jalr	x1,1444(x1) # 20204 <rvmodel_io_write_str>

00005c68 <failedtest_terminate>:
    5c68:	0001a097          	auipc	x1,0x1a
    5c6c:	5ac080e7          	jalr	x1,1452(x1) # 20214 <rvmodel_halt_fail>

00005c70 <failedtest_print_csr_context>:
    5c70:	00009617          	auipc	x12,0x9
    5c74:	4e060613          	addi	x12,x12,1248 # f150 <csr_context_ret_addr>
    5c78:	00162023          	sw	x1,0(x12)
    5c7c:	00000013          	addi	x0,x0,0
    5c80:	0000a517          	auipc	x10,0xa
    5c84:	b5a50513          	addi	x10,x10,-1190 # f7da <mepcstr>
    5c88:	00000013          	addi	x0,x0,0
    5c8c:	00000013          	addi	x0,x0,0
    5c90:	00000013          	addi	x0,x0,0
    5c94:	00000013          	addi	x0,x0,0
    5c98:	00000013          	addi	x0,x0,0
    5c9c:	00000013          	addi	x0,x0,0
    5ca0:	0001a097          	auipc	x1,0x1a
    5ca4:	564080e7          	jalr	x1,1380(x1) # 20204 <rvmodel_io_write_str>
    5ca8:	00009517          	auipc	x10,0x9
    5cac:	4b052503          	lw	x10,1200(x10) # f158 <saved_mepc>
    5cb0:	02000593          	addi	x11,x0,32
    5cb4:	1c4000ef          	jal	x1,5e78 <failedtest_hex_to_str>
    5cb8:	00000013          	addi	x0,x0,0
    5cbc:	00000013          	addi	x0,x0,0
    5cc0:	00009517          	auipc	x10,0x9
    5cc4:	4b850513          	addi	x10,x10,1208 # f178 <ascii_buffer>
    5cc8:	00000013          	addi	x0,x0,0
    5ccc:	00000013          	addi	x0,x0,0
    5cd0:	00000013          	addi	x0,x0,0
    5cd4:	00000013          	addi	x0,x0,0
    5cd8:	00000013          	addi	x0,x0,0
    5cdc:	00000013          	addi	x0,x0,0
    5ce0:	0001a097          	auipc	x1,0x1a
    5ce4:	524080e7          	jalr	x1,1316(x1) # 20204 <rvmodel_io_write_str>
    5ce8:	00000013          	addi	x0,x0,0
    5cec:	00000013          	addi	x0,x0,0
    5cf0:	00000013          	addi	x0,x0,0
    5cf4:	00000013          	addi	x0,x0,0
    5cf8:	00000013          	addi	x0,x0,0
    5cfc:	00000013          	addi	x0,x0,0
    5d00:	0000a517          	auipc	x10,0xa
    5d04:	aea50513          	addi	x10,x10,-1302 # f7ea <mcausestr>
    5d08:	00000013          	addi	x0,x0,0
    5d0c:	00000013          	addi	x0,x0,0
    5d10:	00000013          	addi	x0,x0,0
    5d14:	00000013          	addi	x0,x0,0
    5d18:	00000013          	addi	x0,x0,0
    5d1c:	00000013          	addi	x0,x0,0
    5d20:	0001a097          	auipc	x1,0x1a
    5d24:	4e4080e7          	jalr	x1,1252(x1) # 20204 <rvmodel_io_write_str>
    5d28:	00009517          	auipc	x10,0x9
    5d2c:	43852503          	lw	x10,1080(x10) # f160 <saved_mcause>
    5d30:	02000593          	addi	x11,x0,32
    5d34:	144000ef          	jal	x1,5e78 <failedtest_hex_to_str>
    5d38:	00000013          	addi	x0,x0,0
    5d3c:	00000013          	addi	x0,x0,0
    5d40:	00009517          	auipc	x10,0x9
    5d44:	43850513          	addi	x10,x10,1080 # f178 <ascii_buffer>
    5d48:	00000013          	addi	x0,x0,0
    5d4c:	00000013          	addi	x0,x0,0
    5d50:	00000013          	addi	x0,x0,0
    5d54:	00000013          	addi	x0,x0,0
    5d58:	00000013          	addi	x0,x0,0
    5d5c:	00000013          	addi	x0,x0,0
    5d60:	0001a097          	auipc	x1,0x1a
    5d64:	4a4080e7          	jalr	x1,1188(x1) # 20204 <rvmodel_io_write_str>
    5d68:	00000013          	addi	x0,x0,0
    5d6c:	00000013          	addi	x0,x0,0
    5d70:	00000013          	addi	x0,x0,0
    5d74:	00000013          	addi	x0,x0,0
    5d78:	00000013          	addi	x0,x0,0
    5d7c:	00000013          	addi	x0,x0,0
    5d80:	0000a517          	auipc	x10,0xa
    5d84:	a7a50513          	addi	x10,x10,-1414 # f7fa <mtvalstr>
    5d88:	00000013          	addi	x0,x0,0
    5d8c:	00000013          	addi	x0,x0,0
    5d90:	00000013          	addi	x0,x0,0
    5d94:	00000013          	addi	x0,x0,0
    5d98:	00000013          	addi	x0,x0,0
    5d9c:	00000013          	addi	x0,x0,0
    5da0:	0001a097          	auipc	x1,0x1a
    5da4:	464080e7          	jalr	x1,1124(x1) # 20204 <rvmodel_io_write_str>
    5da8:	00009517          	auipc	x10,0x9
    5dac:	3c052503          	lw	x10,960(x10) # f168 <saved_mtval>
    5db0:	02000593          	addi	x11,x0,32
    5db4:	0c4000ef          	jal	x1,5e78 <failedtest_hex_to_str>
    5db8:	00000013          	addi	x0,x0,0
    5dbc:	00000013          	addi	x0,x0,0
    5dc0:	00009517          	auipc	x10,0x9
    5dc4:	3b850513          	addi	x10,x10,952 # f178 <ascii_buffer>
    5dc8:	00000013          	addi	x0,x0,0
    5dcc:	00000013          	addi	x0,x0,0
    5dd0:	00000013          	addi	x0,x0,0
    5dd4:	00000013          	addi	x0,x0,0
    5dd8:	00000013          	addi	x0,x0,0
    5ddc:	00000013          	addi	x0,x0,0
    5de0:	0001a097          	auipc	x1,0x1a
    5de4:	424080e7          	jalr	x1,1060(x1) # 20204 <rvmodel_io_write_str>
    5de8:	00000013          	addi	x0,x0,0
    5dec:	00000013          	addi	x0,x0,0
    5df0:	00000013          	addi	x0,x0,0
    5df4:	00000013          	addi	x0,x0,0
    5df8:	00000013          	addi	x0,x0,0
    5dfc:	00000013          	addi	x0,x0,0
    5e00:	0000a517          	auipc	x10,0xa
    5e04:	a0a50513          	addi	x10,x10,-1526 # f80a <mstatusstr>
    5e08:	00000013          	addi	x0,x0,0
    5e0c:	00000013          	addi	x0,x0,0
    5e10:	00000013          	addi	x0,x0,0
    5e14:	00000013          	addi	x0,x0,0
    5e18:	00000013          	addi	x0,x0,0
    5e1c:	00000013          	addi	x0,x0,0
    5e20:	0001a097          	auipc	x1,0x1a
    5e24:	3e4080e7          	jalr	x1,996(x1) # 20204 <rvmodel_io_write_str>
    5e28:	00009517          	auipc	x10,0x9
    5e2c:	34852503          	lw	x10,840(x10) # f170 <saved_mstatus>
    5e30:	02000593          	addi	x11,x0,32
    5e34:	044000ef          	jal	x1,5e78 <failedtest_hex_to_str>
    5e38:	00000013          	addi	x0,x0,0
    5e3c:	00000013          	addi	x0,x0,0
    5e40:	00009517          	auipc	x10,0x9
    5e44:	33850513          	addi	x10,x10,824 # f178 <ascii_buffer>
    5e48:	00000013          	addi	x0,x0,0
    5e4c:	00000013          	addi	x0,x0,0
    5e50:	00000013          	addi	x0,x0,0
    5e54:	00000013          	addi	x0,x0,0
    5e58:	00000013          	addi	x0,x0,0
    5e5c:	00000013          	addi	x0,x0,0
    5e60:	0001a097          	auipc	x1,0x1a
    5e64:	3a4080e7          	jalr	x1,932(x1) # 20204 <rvmodel_io_write_str>
    5e68:	00009617          	auipc	x12,0x9
    5e6c:	2e860613          	addi	x12,x12,744 # f150 <csr_context_ret_addr>
    5e70:	00062083          	lw	x1,0(x12)
    5e74:	00008067          	jalr	x0,0(x1)

00005e78 <failedtest_hex_to_str>:
    5e78:	00000013          	addi	x0,x0,0
    5e7c:	00000013          	addi	x0,x0,0
    5e80:	00009617          	auipc	x12,0x9
    5e84:	2f860613          	addi	x12,x12,760 # f178 <ascii_buffer>
    5e88:	00000013          	addi	x0,x0,0
    5e8c:	00000013          	addi	x0,x0,0
    5e90:	00000013          	addi	x0,x0,0
    5e94:	00000013          	addi	x0,x0,0
    5e98:	00000013          	addi	x0,x0,0
    5e9c:	00000013          	addi	x0,x0,0
    5ea0:	03000693          	addi	x13,x0,48
    5ea4:	00d60023          	sb	x13,0(x12)
    5ea8:	07800693          	addi	x13,x0,120
    5eac:	00d600a3          	sb	x13,1(x12)
    5eb0:	00260613          	addi	x12,x12,2
    5eb4:	00058693          	addi	x13,x11,0

00005eb8 <failedtest_hex_to_str_loop>:
    5eb8:	ffc68693          	addi	x13,x13,-4
    5ebc:	00d55733          	srl	x14,x10,x13
    5ec0:	00f77713          	andi	x14,x14,15
    5ec4:	00a00793          	addi	x15,x0,10
    5ec8:	00f74663          	blt	x14,x15,5ed4 <failedtest_hex_to_str_digit>
    5ecc:	05770713          	addi	x14,x14,87
    5ed0:	0080006f          	jal	x0,5ed8 <failedtest_hex_to_str_write>

00005ed4 <failedtest_hex_to_str_digit>:
    5ed4:	03070713          	addi	x14,x14,48

00005ed8 <failedtest_hex_to_str_write>:
    5ed8:	00e60023          	sb	x14,0(x12)
    5edc:	00160613          	addi	x12,x12,1
    5ee0:	fc069ce3          	bne	x13,x0,5eb8 <failedtest_hex_to_str_loop>
    5ee4:	00a00693          	addi	x13,x0,10
    5ee8:	00d60023          	sb	x13,0(x12)
    5eec:	000600a3          	sb	x0,1(x12)
    5ef0:	00008067          	jalr	x0,0(x1)

00005ef4 <failedtest_dec_to_str>:
    5ef4:	00a00693          	addi	x13,x0,10
    5ef8:	02d54663          	blt	x10,x13,5f24 <failedtest_dec_to_str+0x30>
    5efc:	ff650513          	addi	x10,x10,-10
    5f00:	03100713          	addi	x14,x0,49
    5f04:	00d54c63          	blt	x10,x13,5f1c <failedtest_dec_to_str+0x28>
    5f08:	ff650513          	addi	x10,x10,-10
    5f0c:	03200713          	addi	x14,x0,50
    5f10:	00d54663          	blt	x10,x13,5f1c <failedtest_dec_to_str+0x28>
    5f14:	ff650513          	addi	x10,x10,-10
    5f18:	03300713          	addi	x14,x0,51
    5f1c:	00e60023          	sb	x14,0(x12)
    5f20:	00160613          	addi	x12,x12,1
    5f24:	03050513          	addi	x10,x10,48
    5f28:	00a60023          	sb	x10,0(x12)
    5f2c:	00a00693          	addi	x13,x0,10
    5f30:	00d600a3          	sb	x13,1(x12)
    5f34:	00060123          	sb	x0,2(x12)
    5f38:	00008067          	jalr	x0,0(x1)
    5f3c:	00000013          	addi	x0,x0,0

Disassembly of section .text.rvmodel:

00020000 <rvmodel_boot>:
   20000:	feedc0b7          	lui	x1,0xfeedc
   20004:	ead08093          	addi	x1,x1,-339 # feedbead <absimm+0x8f911ba4>
   20008:	01909793          	slli	x15,x1,0x19
   2000c:	0070d113          	srli	x2,x1,0x7
   20010:	00f16133          	or	x2,x2,x15
   20014:	01911793          	slli	x15,x2,0x19
   20018:	00715193          	srli	x3,x2,0x7
   2001c:	00f1e1b3          	or	x3,x3,x15
   20020:	01919793          	slli	x15,x3,0x19
   20024:	0071d213          	srli	x4,x3,0x7
   20028:	00f26233          	or	x4,x4,x15
   2002c:	01921793          	slli	x15,x4,0x19
   20030:	00725293          	srli	x5,x4,0x7
   20034:	00f2e2b3          	or	x5,x5,x15
   20038:	01929793          	slli	x15,x5,0x19
   2003c:	0072d313          	srli	x6,x5,0x7
   20040:	00f36333          	or	x6,x6,x15
   20044:	01931793          	slli	x15,x6,0x19
   20048:	00735393          	srli	x7,x6,0x7
   2004c:	00f3e3b3          	or	x7,x7,x15
   20050:	01939793          	slli	x15,x7,0x19
   20054:	0073d413          	srli	x8,x7,0x7
   20058:	00f46433          	or	x8,x8,x15
   2005c:	01941793          	slli	x15,x8,0x19
   20060:	00745493          	srli	x9,x8,0x7
   20064:	00f4e4b3          	or	x9,x9,x15
   20068:	01949793          	slli	x15,x9,0x19
   2006c:	0074d513          	srli	x10,x9,0x7
   20070:	00f56533          	or	x10,x10,x15
   20074:	01951793          	slli	x15,x10,0x19
   20078:	00755593          	srli	x11,x10,0x7
   2007c:	00f5e5b3          	or	x11,x11,x15
   20080:	01959793          	slli	x15,x11,0x19
   20084:	0075d613          	srli	x12,x11,0x7
   20088:	00f66633          	or	x12,x12,x15
   2008c:	01961793          	slli	x15,x12,0x19
   20090:	00765693          	srli	x13,x12,0x7
   20094:	00f6e6b3          	or	x13,x13,x15
   20098:	01969793          	slli	x15,x13,0x19
   2009c:	0076d713          	srli	x14,x13,0x7
   200a0:	00f76733          	or	x14,x14,x15
   200a4:	fab807b7          	lui	x15,0xfab80
   200a8:	bb678793          	addi	x15,x15,-1098 # fab7fbb6 <absimm+0x8b5b58ad>
   200ac:	7d5c0837          	lui	x16,0x7d5c0
   200b0:	ddb80813          	addi	x16,x16,-549 # 7d5bfddb <absimm+0xdff5ad2>
   200b4:	01981793          	slli	x15,x16,0x19
   200b8:	00785893          	srli	x17,x16,0x7
   200bc:	00f8e8b3          	or	x17,x17,x15
   200c0:	01989793          	slli	x15,x17,0x19
   200c4:	0078d913          	srli	x18,x17,0x7
   200c8:	00f96933          	or	x18,x18,x15
   200cc:	01991793          	slli	x15,x18,0x19
   200d0:	00795993          	srli	x19,x18,0x7
   200d4:	00f9e9b3          	or	x19,x19,x15
   200d8:	01999793          	slli	x15,x19,0x19
   200dc:	0079da13          	srli	x20,x19,0x7
   200e0:	00fa6a33          	or	x20,x20,x15
   200e4:	019a1793          	slli	x15,x20,0x19
   200e8:	007a5a93          	srli	x21,x20,0x7
   200ec:	00faeab3          	or	x21,x21,x15
   200f0:	019a9793          	slli	x15,x21,0x19
   200f4:	007adb13          	srli	x22,x21,0x7
   200f8:	00fb6b33          	or	x22,x22,x15
   200fc:	019b1793          	slli	x15,x22,0x19
   20100:	007b5b93          	srli	x23,x22,0x7
   20104:	00fbebb3          	or	x23,x23,x15
   20108:	019b9793          	slli	x15,x23,0x19
   2010c:	007bdc13          	srli	x24,x23,0x7
   20110:	00fc6c33          	or	x24,x24,x15
   20114:	019c1793          	slli	x15,x24,0x19
   20118:	007c5c93          	srli	x25,x24,0x7
   2011c:	00fcecb3          	or	x25,x25,x15
   20120:	019c9793          	slli	x15,x25,0x19
   20124:	007cdd13          	srli	x26,x25,0x7
   20128:	00fd6d33          	or	x26,x26,x15
   2012c:	019d1793          	slli	x15,x26,0x19
   20130:	007d5d93          	srli	x27,x26,0x7
   20134:	00fdedb3          	or	x27,x27,x15
   20138:	019d9793          	slli	x15,x27,0x19
   2013c:	007dde13          	srli	x28,x27,0x7
   20140:	00fe6e33          	or	x28,x28,x15
   20144:	019e1793          	slli	x15,x28,0x19
   20148:	007e5e93          	srli	x29,x28,0x7
   2014c:	00feeeb3          	or	x29,x29,x15
   20150:	019e9793          	slli	x15,x29,0x19
   20154:	007edf13          	srli	x30,x29,0x7
   20158:	00ff6f33          	or	x30,x30,x15
   2015c:	019f1793          	slli	x15,x30,0x19
   20160:	007f5f93          	srli	x31,x30,0x7
   20164:	00ffefb3          	or	x31,x31,x15
   20168:	00000013          	addi	x0,x0,0
   2016c:	00000013          	addi	x0,x0,0
   20170:	00000013          	addi	x0,x0,0
   20174:	00000013          	addi	x0,x0,0
   20178:	00000013          	addi	x0,x0,0
   2017c:	00000013          	addi	x0,x0,0
   20180:	ffff1117          	auipc	x2,0xffff1
   20184:	b3010113          	addi	x2,x2,-1232 # 10cb0 <begin_signature>
   20188:	00000013          	addi	x0,x0,0
   2018c:	00000013          	addi	x0,x0,0
   20190:	00000013          	addi	x0,x0,0
   20194:	00000013          	addi	x0,x0,0
   20198:	00000013          	addi	x0,x0,0
   2019c:	00000013          	addi	x0,x0,0

000201a0 <canary_check>:
   201a0:	6f5ca337          	lui	x6,0x6f5ca
   201a4:	30930313          	addi	x6,x6,777 # 6f5ca309 <absimm>
   201a8:	00012203          	lw	x4,0(x2)
   201ac:	00620863          	beq	x4,x6,201bc <canary_check+0x1c>
   201b0:	b0ce42ef          	jal	x5,44bc <failedtest_x5_x4>
   201b4:	000201a0          	.word	0x000201a0
   201b8:	0001022a          	.word	0x0001022a
   201bc:	00410113          	addi	x2,x2,4
   201c0:	fffe8197          	auipc	x3,0xfffe8
   201c4:	f5018193          	addi	x3,x3,-176 # 8110 <rvtest_data_begin>
   201c8:	00000013          	addi	x0,x0,0
   201cc:	00000013          	addi	x0,x0,0
   201d0:	00000013          	addi	x0,x0,0
   201d4:	00000013          	addi	x0,x0,0
   201d8:	00000013          	addi	x0,x0,0
   201dc:	00000013          	addi	x0,x0,0
   201e0:	fffe0317          	auipc	x6,0xfffe0
   201e4:	e6030313          	addi	x6,x6,-416 # 40 <rvtest_code_begin>
   201e8:	00000013          	addi	x0,x0,0
   201ec:	00000013          	addi	x0,x0,0
   201f0:	00000013          	addi	x0,x0,0
   201f4:	00000013          	addi	x0,x0,0
   201f8:	00000013          	addi	x0,x0,0
   201fc:	00000013          	addi	x0,x0,0
   20200:	00030067          	jalr	x0,0(x6)

00020204 <rvmodel_io_write_str>:
   20204:	00008067          	jalr	x0,0(x1)

00020208 <rvmodel_halt_pass>:
   20208:	00000513          	addi	x10,x0,0
   2020c:	00000073          	ecall
   20210:	0000006f          	jal	x0,20210 <rvmodel_halt_pass+0x8>

00020214 <rvmodel_halt_fail>:
   20214:	00100513          	addi	x10,x0,1
   20218:	00000073          	ecall
   2021c:	0000006f          	jal	x0,2021c <rvmodel_halt_fail+0x8>
   20220:	00000013          	addi	x0,x0,0
   20224:	00000013          	addi	x0,x0,0
   20228:	00000013          	addi	x0,x0,0
   2022c:	00000013          	addi	x0,x0,0
   20230:	00000013          	addi	x0,x0,0
   20234:	00000013          	addi	x0,x0,0
   20238:	00000013          	addi	x0,x0,0
   2023c:	00000013          	addi	x0,x0,0
