
/home/dev/github/clones/riscv-arch-test/work/rv32i-core/elfs/rv32i/I/I-slti-00.elf:     file format elf32-littleriscv
/home/dev/github/clones/riscv-arch-test/work/rv32i-core/elfs/rv32i/I/I-slti-00.elf
architecture: riscv:rv32, flags 0x00000112:
EXEC_P, HAS_SYMS, D_PAGED
start address 0x00000000

Program Header:
0x70000003 off    0x0001e240 vaddr 0x00000000 paddr 0x00000000 align 2**0
         filesz 0x00000033 memsz 0x00000000 flags r--
    LOAD off    0x00001000 vaddr 0x00000000 paddr 0x00000000 align 2**12
         filesz 0x00004f20 memsz 0x00004f20 flags r-x
    LOAD off    0x00006000 vaddr 0x00008000 paddr 0x00008000 align 2**12
         filesz 0x00018240 memsz 0x00018240 flags rwx

Sections:
Idx Name          Size      VMA       LMA       File off  Algn
  0 .text.init    00000040  00000000  00000000  00001000  2**5
                  CONTENTS, ALLOC, LOAD, READONLY, CODE
  1 .text.rvtest  00004ee0  00000040  00000040  00001040  2**5
                  CONTENTS, ALLOC, LOAD, READONLY, CODE
  2 .data         00017c90  00008000  00008000  00006000  2**8
                  CONTENTS, ALLOC, LOAD, DATA
  3 .text.rvmodel 00000240  00020000  00020000  0001e000  2**5
                  CONTENTS, ALLOC, LOAD, READONLY, CODE
  4 .riscv.attributes 00000033  00000000  00000000  0001e240  2**0
                  CONTENTS, READONLY
  5 .debug_line   00001abe  00000000  00000000  0001e273  2**0
                  CONTENTS, READONLY, DEBUGGING, OCTETS
  6 .debug_line_str 0000006a  00000000  00000000  0001fd31  2**0
                  CONTENTS, READONLY, DEBUGGING, OCTETS
  7 .debug_info   00000023  00000000  00000000  0001fd9b  2**0
                  CONTENTS, READONLY, DEBUGGING, OCTETS
  8 .debug_abbrev 00000012  00000000  00000000  0001fdbe  2**0
                  CONTENTS, READONLY, DEBUGGING, OCTETS
  9 .debug_aranges 00000028  00000000  00000000  0001fdd0  2**3
                  CONTENTS, READONLY, DEBUGGING, OCTETS
 10 .debug_str    00000076  00000000  00000000  0001fdf8  2**0
                  CONTENTS, READONLY, DEBUGGING, OCTETS
 11 .debug_rnglists 0000001b  00000000  00000000  0001fe6e  2**0
                  CONTENTS, READONLY, DEBUGGING, OCTETS
SYMBOL TABLE:
00000000 l    d  .text.init	00000000 .text.init
00000040 l    d  .text.rvtest	00000000 .text.rvtest
00008000 l    d  .data	00000000 .data
00020000 l    d  .text.rvmodel	00000000 .text.rvmodel
00000000 l    d  .riscv.attributes	00000000 .riscv.attributes
00000000 l    d  .debug_line	00000000 .debug_line
00000000 l    d  .debug_line_str	00000000 .debug_line_str
00000000 l    d  .debug_info	00000000 .debug_info
00000000 l    d  .debug_abbrev	00000000 .debug_abbrev
00000000 l    d  .debug_aranges	00000000 .debug_aranges
00000000 l    d  .debug_str	00000000 .debug_str
00000000 l    d  .debug_rnglists	00000000 .debug_rnglists
00000000 l    df *ABS*	00000000 ccNaD5zk.o
00000003 l       *ABS*	00000000 MMODE_SIG
00000001 l       *ABS*	00000000 SMODE_SIG
00000001 l       *ABS*	00000000 HMODE_SIG
00000002 l       *ABS*	00000000 VMODE_SIG
00020000 l       .text.rvmodel	00000000 rvmodel_boot
00000048 l       .text.rvtest	00000000 I_slti_cg_cp_rs1_b0
0000349c l       .text.rvtest	00000000 failedtest_x5_x4
000086d0 l       .data	00000000 I_slti_cg_cp_rs1_b0_str
0000006c l       .text.rvtest	00000000 I_slti_cg_cp_rs1_b1
000086fe l       .data	00000000 I_slti_cg_cp_rs1_b1_str
00000094 l       .text.rvtest	00000000 I_slti_cg_cp_rs1_b2
0000872c l       .data	00000000 I_slti_cg_cp_rs1_b2_str
000000bc l       .text.rvtest	00000000 I_slti_cg_cp_rs1_b3
0000875a l       .data	00000000 I_slti_cg_cp_rs1_b3_str
000000e8 l       .text.rvtest	00000000 I_slti_cg_cp_rs1_b4
000034dc l       .text.rvtest	00000000 failedtest_x14_x13
00008788 l       .data	00000000 I_slti_cg_cp_rs1_b4_str
0000010c l       .text.rvtest	00000000 I_slti_cg_cp_rs1_b5
000087b6 l       .data	00000000 I_slti_cg_cp_rs1_b5_str
00000130 l       .text.rvtest	00000000 I_slti_cg_cp_rs1_b6
000087e4 l       .data	00000000 I_slti_cg_cp_rs1_b6_str
00000154 l       .text.rvtest	00000000 I_slti_cg_cp_rs1_b7
00008812 l       .data	00000000 I_slti_cg_cp_rs1_b7_str
00000178 l       .text.rvtest	00000000 I_slti_cg_cp_rs1_b8
00008840 l       .data	00000000 I_slti_cg_cp_rs1_b8_str
000001a0 l       .text.rvtest	00000000 I_slti_cg_cp_rs1_b9
0000886e l       .data	00000000 I_slti_cg_cp_rs1_b9_str
000001c4 l       .text.rvtest	00000000 I_slti_cg_cp_rs1_b10
0000889d l       .data	00000000 I_slti_cg_cp_rs1_b10_str
000001e8 l       .text.rvtest	00000000 I_slti_cg_cp_rs1_b11
000088cd l       .data	00000000 I_slti_cg_cp_rs1_b11_str
0000020c l       .text.rvtest	00000000 I_slti_cg_cp_rs1_b12
000088fd l       .data	00000000 I_slti_cg_cp_rs1_b12_str
00000238 l       .text.rvtest	00000000 I_slti_cg_cp_rs1_b13
000034b4 l       .text.rvtest	00000000 failedtest_x8_x7
0000892d l       .data	00000000 I_slti_cg_cp_rs1_b13_str
0000025c l       .text.rvtest	00000000 I_slti_cg_cp_rs1_b14
0000895d l       .data	00000000 I_slti_cg_cp_rs1_b14_str
00000280 l       .text.rvtest	00000000 I_slti_cg_cp_rs1_b15
0000898d l       .data	00000000 I_slti_cg_cp_rs1_b15_str
000002a4 l       .text.rvtest	00000000 I_slti_cg_cp_rs1_b16
000089bd l       .data	00000000 I_slti_cg_cp_rs1_b16_str
000002cc l       .text.rvtest	00000000 I_slti_cg_cp_rs1_b17
000089ed l       .data	00000000 I_slti_cg_cp_rs1_b17_str
000002f0 l       .text.rvtest	00000000 I_slti_cg_cp_rs1_b18
00008a1d l       .data	00000000 I_slti_cg_cp_rs1_b18_str
00000314 l       .text.rvtest	00000000 I_slti_cg_cp_rs1_b19
00008a4d l       .data	00000000 I_slti_cg_cp_rs1_b19_str
00000338 l       .text.rvtest	00000000 I_slti_cg_cp_rs1_b20
00008a7d l       .data	00000000 I_slti_cg_cp_rs1_b20_str
0000035c l       .text.rvtest	00000000 I_slti_cg_cp_rs1_b21
00008aad l       .data	00000000 I_slti_cg_cp_rs1_b21_str
00000380 l       .text.rvtest	00000000 I_slti_cg_cp_rs1_b22
00008add l       .data	00000000 I_slti_cg_cp_rs1_b22_str
000003a4 l       .text.rvtest	00000000 I_slti_cg_cp_rs1_b23
00008b0d l       .data	00000000 I_slti_cg_cp_rs1_b23_str
000003c8 l       .text.rvtest	00000000 I_slti_cg_cp_rs1_b24
00008b3d l       .data	00000000 I_slti_cg_cp_rs1_b24_str
000003ec l       .text.rvtest	00000000 I_slti_cg_cp_rs1_b25
00008b6d l       .data	00000000 I_slti_cg_cp_rs1_b25_str
00000410 l       .text.rvtest	00000000 I_slti_cg_cp_rs1_b26
00008b9d l       .data	00000000 I_slti_cg_cp_rs1_b26_str
00000434 l       .text.rvtest	00000000 I_slti_cg_cp_rs1_b27
00008bcd l       .data	00000000 I_slti_cg_cp_rs1_b27_str
0000045c l       .text.rvtest	00000000 I_slti_cg_cp_rs1_b28
00008bfd l       .data	00000000 I_slti_cg_cp_rs1_b28_str
00000480 l       .text.rvtest	00000000 I_slti_cg_cp_rs1_b29
00008c2d l       .data	00000000 I_slti_cg_cp_rs1_b29_str
000004a4 l       .text.rvtest	00000000 I_slti_cg_cp_rs1_b30
00008c5d l       .data	00000000 I_slti_cg_cp_rs1_b30_str
000004c8 l       .text.rvtest	00000000 I_slti_cg_cp_rs1_b31
00008c8d l       .data	00000000 I_slti_cg_cp_rs1_b31_str
000004ec l       .text.rvtest	00000000 I_slti_cg_cp_rd_b0
00008cbd l       .data	00000000 I_slti_cg_cp_rd_b0_str
00000510 l       .text.rvtest	00000000 I_slti_cg_cp_rd_b1
00008ceb l       .data	00000000 I_slti_cg_cp_rd_b1_str
00000534 l       .text.rvtest	00000000 I_slti_cg_cp_rd_b2
00008d19 l       .data	00000000 I_slti_cg_cp_rd_b2_str
00000558 l       .text.rvtest	00000000 I_slti_cg_cp_rd_b3
00008d47 l       .data	00000000 I_slti_cg_cp_rd_b3_str
0000057c l       .text.rvtest	00000000 I_slti_cg_cp_rd_b4
00008d75 l       .data	00000000 I_slti_cg_cp_rd_b4_str
000005a0 l       .text.rvtest	00000000 I_slti_cg_cp_rd_b5
00008da3 l       .data	00000000 I_slti_cg_cp_rd_b5_str
000005c4 l       .text.rvtest	00000000 I_slti_cg_cp_rd_b6
00008dd1 l       .data	00000000 I_slti_cg_cp_rd_b6_str
000005f0 l       .text.rvtest	00000000 I_slti_cg_cp_rd_b7
00008dff l       .data	00000000 I_slti_cg_cp_rd_b7_str
00000614 l       .text.rvtest	00000000 I_slti_cg_cp_rd_b8
00008e2d l       .data	00000000 I_slti_cg_cp_rd_b8_str
0000063c l       .text.rvtest	00000000 I_slti_cg_cp_rd_b9
00008e5b l       .data	00000000 I_slti_cg_cp_rd_b9_str
00000660 l       .text.rvtest	00000000 I_slti_cg_cp_rd_b10
00008e89 l       .data	00000000 I_slti_cg_cp_rd_b10_str
00000688 l       .text.rvtest	00000000 I_slti_cg_cp_rd_b11
00008eb8 l       .data	00000000 I_slti_cg_cp_rd_b11_str
000006ac l       .text.rvtest	00000000 I_slti_cg_cp_rd_b12
00008ee7 l       .data	00000000 I_slti_cg_cp_rd_b12_str
000006d8 l       .text.rvtest	00000000 I_slti_cg_cp_rd_b13
00008f16 l       .data	00000000 I_slti_cg_cp_rd_b13_str
000006fc l       .text.rvtest	00000000 I_slti_cg_cp_rd_b14
00008f45 l       .data	00000000 I_slti_cg_cp_rd_b14_str
00000720 l       .text.rvtest	00000000 I_slti_cg_cp_rd_b15
00008f74 l       .data	00000000 I_slti_cg_cp_rd_b15_str
00000744 l       .text.rvtest	00000000 I_slti_cg_cp_rd_b16
00008fa3 l       .data	00000000 I_slti_cg_cp_rd_b16_str
00000768 l       .text.rvtest	00000000 I_slti_cg_cp_rd_b17
00008fd2 l       .data	00000000 I_slti_cg_cp_rd_b17_str
0000078c l       .text.rvtest	00000000 I_slti_cg_cp_rd_b18
00009001 l       .data	00000000 I_slti_cg_cp_rd_b18_str
000007b0 l       .text.rvtest	00000000 I_slti_cg_cp_rd_b19
00009030 l       .data	00000000 I_slti_cg_cp_rd_b19_str
000007d4 l       .text.rvtest	00000000 I_slti_cg_cp_rd_b20
0000905f l       .data	00000000 I_slti_cg_cp_rd_b20_str
000007f8 l       .text.rvtest	00000000 I_slti_cg_cp_rd_b21
0000908e l       .data	00000000 I_slti_cg_cp_rd_b21_str
0000081c l       .text.rvtest	00000000 I_slti_cg_cp_rd_b22
000090bd l       .data	00000000 I_slti_cg_cp_rd_b22_str
00000840 l       .text.rvtest	00000000 I_slti_cg_cp_rd_b23
000090ec l       .data	00000000 I_slti_cg_cp_rd_b23_str
00000864 l       .text.rvtest	00000000 I_slti_cg_cp_rd_b24
0000911b l       .data	00000000 I_slti_cg_cp_rd_b24_str
00000888 l       .text.rvtest	00000000 I_slti_cg_cp_rd_b25
0000914a l       .data	00000000 I_slti_cg_cp_rd_b25_str
000008ac l       .text.rvtest	00000000 I_slti_cg_cp_rd_b26
00009179 l       .data	00000000 I_slti_cg_cp_rd_b26_str
000008d4 l       .text.rvtest	00000000 I_slti_cg_cp_rd_b27
000091a8 l       .data	00000000 I_slti_cg_cp_rd_b27_str
000008f8 l       .text.rvtest	00000000 I_slti_cg_cp_rd_b28
000091d7 l       .data	00000000 I_slti_cg_cp_rd_b28_str
0000091c l       .text.rvtest	00000000 I_slti_cg_cp_rd_b29
00009206 l       .data	00000000 I_slti_cg_cp_rd_b29_str
00000940 l       .text.rvtest	00000000 I_slti_cg_cp_rd_b30
00009235 l       .data	00000000 I_slti_cg_cp_rd_b30_str
00000964 l       .text.rvtest	00000000 I_slti_cg_cp_rd_b31
00009264 l       .data	00000000 I_slti_cg_cp_rd_b31_str
00000988 l       .text.rvtest	00000000 I_slti_cg_cp_rs1_edges_0x0
00009293 l       .data	00000000 I_slti_cg_cp_rs1_edges_0x0_str
000009ac l       .text.rvtest	00000000 I_slti_cg_cp_rs1_edges_0x1
000092c9 l       .data	00000000 I_slti_cg_cp_rs1_edges_0x1_str
000009d0 l       .text.rvtest	00000000 I_slti_cg_cp_rs1_edges_0x2
000092ff l       .data	00000000 I_slti_cg_cp_rs1_edges_0x2_str
000009f4 l       .text.rvtest	00000000 I_slti_cg_cp_rs1_edges_0x80000000
00009335 l       .data	00000000 I_slti_cg_cp_rs1_edges_0x80000000_str
00000a18 l       .text.rvtest	00000000 I_slti_cg_cp_rs1_edges_0x80000001
00009372 l       .data	00000000 I_slti_cg_cp_rs1_edges_0x80000001_str
00000a3c l       .text.rvtest	00000000 I_slti_cg_cp_rs1_edges_0x7fffffff
000093af l       .data	00000000 I_slti_cg_cp_rs1_edges_0x7fffffff_str
00000a60 l       .text.rvtest	00000000 I_slti_cg_cp_rs1_edges_0x7ffffffe
000093ec l       .data	00000000 I_slti_cg_cp_rs1_edges_0x7ffffffe_str
00000a84 l       .text.rvtest	00000000 I_slti_cg_cp_rs1_edges_0xffffffff
00009429 l       .data	00000000 I_slti_cg_cp_rs1_edges_0xffffffff_str
00000aa8 l       .text.rvtest	00000000 I_slti_cg_cp_rs1_edges_0xfffffffe
00009466 l       .data	00000000 I_slti_cg_cp_rs1_edges_0xfffffffe_str
00000acc l       .text.rvtest	00000000 I_slti_cg_cp_rs1_edges_0x5bbc8872
000094a3 l       .data	00000000 I_slti_cg_cp_rs1_edges_0x5bbc8872_str
00000af0 l       .text.rvtest	00000000 I_slti_cg_cp_rs1_edges_0xaaaaaaaa
000094e0 l       .data	00000000 I_slti_cg_cp_rs1_edges_0xaaaaaaaa_str
00000b14 l       .text.rvtest	00000000 I_slti_cg_cp_rs1_edges_0x55555555
0000951d l       .data	00000000 I_slti_cg_cp_rs1_edges_0x55555555_str
00000b38 l       .text.rvtest	00000000 I_slti_cg_cr_rs1_imm_edges_rs1val_0x0_immval_0x0
0000955a l       .data	00000000 I_slti_cg_cr_rs1_imm_edges_rs1val_0x0_immval_0x0_str
00000b5c l       .text.rvtest	00000000 I_slti_cg_cr_rs1_imm_edges_rs1val_0x0_immval_0x1
000095a7 l       .data	00000000 I_slti_cg_cr_rs1_imm_edges_rs1val_0x0_immval_0x1_str
00000b80 l       .text.rvtest	00000000 I_slti_cg_cr_rs1_imm_edges_rs1val_0x0_immval_0x2
000095f4 l       .data	00000000 I_slti_cg_cr_rs1_imm_edges_rs1val_0x0_immval_0x2_str
00000ba4 l       .text.rvtest	00000000 I_slti_cg_cr_rs1_imm_edges_rs1val_0x0_immval_0x3
00009641 l       .data	00000000 I_slti_cg_cr_rs1_imm_edges_rs1val_0x0_immval_0x3_str
00000bc8 l       .text.rvtest	00000000 I_slti_cg_cr_rs1_imm_edges_rs1val_0x0_immval_0x4
0000968e l       .data	00000000 I_slti_cg_cr_rs1_imm_edges_rs1val_0x0_immval_0x4_str
00000bec l       .text.rvtest	00000000 I_slti_cg_cr_rs1_imm_edges_rs1val_0x0_immval_0x8
000096db l       .data	00000000 I_slti_cg_cr_rs1_imm_edges_rs1val_0x0_immval_0x8_str
00000c10 l       .text.rvtest	00000000 I_slti_cg_cr_rs1_imm_edges_rs1val_0x0_immval_0x10
00009728 l       .data	00000000 I_slti_cg_cr_rs1_imm_edges_rs1val_0x0_immval_0x10_str
00000c34 l       .text.rvtest	00000000 I_slti_cg_cr_rs1_imm_edges_rs1val_0x0_immval_0x20
00009776 l       .data	00000000 I_slti_cg_cr_rs1_imm_edges_rs1val_0x0_immval_0x20_str
00000c58 l       .text.rvtest	00000000 I_slti_cg_cr_rs1_imm_edges_rs1val_0x0_immval_0x40
000097c4 l       .data	00000000 I_slti_cg_cr_rs1_imm_edges_rs1val_0x0_immval_0x40_str
00000c7c l       .text.rvtest	00000000 I_slti_cg_cr_rs1_imm_edges_rs1val_0x0_immval_0x80
00009812 l       .data	00000000 I_slti_cg_cr_rs1_imm_edges_rs1val_0x0_immval_0x80_str
00000ca0 l       .text.rvtest	00000000 I_slti_cg_cr_rs1_imm_edges_rs1val_0x0_immval_0x100
00009860 l       .data	00000000 I_slti_cg_cr_rs1_imm_edges_rs1val_0x0_immval_0x100_str
00000cc4 l       .text.rvtest	00000000 I_slti_cg_cr_rs1_imm_edges_rs1val_0x0_immval_0x200
000098af l       .data	00000000 I_slti_cg_cr_rs1_imm_edges_rs1val_0x0_immval_0x200_str
00000ce8 l       .text.rvtest	00000000 I_slti_cg_cr_rs1_imm_edges_rs1val_0x0_immval_0x3ff
000098fe l       .data	00000000 I_slti_cg_cr_rs1_imm_edges_rs1val_0x0_immval_0x3ff_str
00000d0c l       .text.rvtest	00000000 I_slti_cg_cr_rs1_imm_edges_rs1val_0x0_immval_0x400
0000994d l       .data	00000000 I_slti_cg_cr_rs1_imm_edges_rs1val_0x0_immval_0x400_str
00000d30 l       .text.rvtest	00000000 I_slti_cg_cr_rs1_imm_edges_rs1val_0x0_immval_0x703
0000999c l       .data	00000000 I_slti_cg_cr_rs1_imm_edges_rs1val_0x0_immval_0x703_str
00000d54 l       .text.rvtest	00000000 I_slti_cg_cr_rs1_imm_edges_rs1val_0x0_immval_0x7ff
000099eb l       .data	00000000 I_slti_cg_cr_rs1_imm_edges_rs1val_0x0_immval_0x7ff_str
00000d78 l       .text.rvtest	00000000 I_slti_cg_cr_rs1_imm_edges_rs1val_0x0_immval_m0x800
00009a3a l       .data	00000000 I_slti_cg_cr_rs1_imm_edges_rs1val_0x0_immval_m0x800_str
00000d9c l       .text.rvtest	00000000 I_slti_cg_cr_rs1_imm_edges_rs1val_0x0_immval_m0x7ff
00009a8a l       .data	00000000 I_slti_cg_cr_rs1_imm_edges_rs1val_0x0_immval_m0x7ff_str
00000dc0 l       .text.rvtest	00000000 I_slti_cg_cr_rs1_imm_edges_rs1val_0x0_immval_m0x2
00009ada l       .data	00000000 I_slti_cg_cr_rs1_imm_edges_rs1val_0x0_immval_m0x2_str
00000de4 l       .text.rvtest	00000000 I_slti_cg_cr_rs1_imm_edges_rs1val_0x0_immval_m0x1
00009b28 l       .data	00000000 I_slti_cg_cr_rs1_imm_edges_rs1val_0x0_immval_m0x1_str
00000e08 l       .text.rvtest	00000000 I_slti_cg_cr_rs1_imm_edges_rs1val_0x1_immval_0x0
00009b76 l       .data	00000000 I_slti_cg_cr_rs1_imm_edges_rs1val_0x1_immval_0x0_str
00000e2c l       .text.rvtest	00000000 I_slti_cg_cr_rs1_imm_edges_rs1val_0x1_immval_0x1
00009bc3 l       .data	00000000 I_slti_cg_cr_rs1_imm_edges_rs1val_0x1_immval_0x1_str
00000e50 l       .text.rvtest	00000000 I_slti_cg_cr_rs1_imm_edges_rs1val_0x1_immval_0x2
00009c10 l       .data	00000000 I_slti_cg_cr_rs1_imm_edges_rs1val_0x1_immval_0x2_str
00000e74 l       .text.rvtest	00000000 I_slti_cg_cr_rs1_imm_edges_rs1val_0x1_immval_0x3
00009c5d l       .data	00000000 I_slti_cg_cr_rs1_imm_edges_rs1val_0x1_immval_0x3_str
00000e98 l       .text.rvtest	00000000 I_slti_cg_cr_rs1_imm_edges_rs1val_0x1_immval_0x4
00009cab l       .data	00000000 I_slti_cg_cr_rs1_imm_edges_rs1val_0x1_immval_0x4_str
00000ebc l       .text.rvtest	00000000 I_slti_cg_cr_rs1_imm_edges_rs1val_0x1_immval_0x8
00009cf9 l       .data	00000000 I_slti_cg_cr_rs1_imm_edges_rs1val_0x1_immval_0x8_str
00000ee0 l       .text.rvtest	00000000 I_slti_cg_cr_rs1_imm_edges_rs1val_0x1_immval_0x10
00009d47 l       .data	00000000 I_slti_cg_cr_rs1_imm_edges_rs1val_0x1_immval_0x10_str
00000f04 l       .text.rvtest	00000000 I_slti_cg_cr_rs1_imm_edges_rs1val_0x1_immval_0x20
00009d96 l       .data	00000000 I_slti_cg_cr_rs1_imm_edges_rs1val_0x1_immval_0x20_str
00000f28 l       .text.rvtest	00000000 I_slti_cg_cr_rs1_imm_edges_rs1val_0x1_immval_0x40
00009de5 l       .data	00000000 I_slti_cg_cr_rs1_imm_edges_rs1val_0x1_immval_0x40_str
00000f4c l       .text.rvtest	00000000 I_slti_cg_cr_rs1_imm_edges_rs1val_0x1_immval_0x80
00009e34 l       .data	00000000 I_slti_cg_cr_rs1_imm_edges_rs1val_0x1_immval_0x80_str
00000f70 l       .text.rvtest	00000000 I_slti_cg_cr_rs1_imm_edges_rs1val_0x1_immval_0x100
00009e83 l       .data	00000000 I_slti_cg_cr_rs1_imm_edges_rs1val_0x1_immval_0x100_str
00000f94 l       .text.rvtest	00000000 I_slti_cg_cr_rs1_imm_edges_rs1val_0x1_immval_0x200
00009ed3 l       .data	00000000 I_slti_cg_cr_rs1_imm_edges_rs1val_0x1_immval_0x200_str
00000fb8 l       .text.rvtest	00000000 I_slti_cg_cr_rs1_imm_edges_rs1val_0x1_immval_0x3ff
00009f23 l       .data	00000000 I_slti_cg_cr_rs1_imm_edges_rs1val_0x1_immval_0x3ff_str
00000fdc l       .text.rvtest	00000000 I_slti_cg_cr_rs1_imm_edges_rs1val_0x1_immval_0x400
00009f73 l       .data	00000000 I_slti_cg_cr_rs1_imm_edges_rs1val_0x1_immval_0x400_str
00001000 l       .text.rvtest	00000000 I_slti_cg_cr_rs1_imm_edges_rs1val_0x1_immval_0x703
00009fc3 l       .data	00000000 I_slti_cg_cr_rs1_imm_edges_rs1val_0x1_immval_0x703_str
00001024 l       .text.rvtest	00000000 I_slti_cg_cr_rs1_imm_edges_rs1val_0x1_immval_0x7ff
0000a013 l       .data	00000000 I_slti_cg_cr_rs1_imm_edges_rs1val_0x1_immval_0x7ff_str
00001048 l       .text.rvtest	00000000 I_slti_cg_cr_rs1_imm_edges_rs1val_0x1_immval_m0x800
0000a063 l       .data	00000000 I_slti_cg_cr_rs1_imm_edges_rs1val_0x1_immval_m0x800_str
0000106c l       .text.rvtest	00000000 I_slti_cg_cr_rs1_imm_edges_rs1val_0x1_immval_m0x7ff
0000a0b4 l       .data	00000000 I_slti_cg_cr_rs1_imm_edges_rs1val_0x1_immval_m0x7ff_str
00001090 l       .text.rvtest	00000000 I_slti_cg_cr_rs1_imm_edges_rs1val_0x1_immval_m0x2
0000a105 l       .data	00000000 I_slti_cg_cr_rs1_imm_edges_rs1val_0x1_immval_m0x2_str
000010b4 l       .text.rvtest	00000000 I_slti_cg_cr_rs1_imm_edges_rs1val_0x1_immval_m0x1
0000a154 l       .data	00000000 I_slti_cg_cr_rs1_imm_edges_rs1val_0x1_immval_m0x1_str
000010d8 l       .text.rvtest	00000000 I_slti_cg_cr_rs1_imm_edges_rs1val_0x2_immval_0x0
0000a1a3 l       .data	00000000 I_slti_cg_cr_rs1_imm_edges_rs1val_0x2_immval_0x0_str
000010fc l       .text.rvtest	00000000 I_slti_cg_cr_rs1_imm_edges_rs1val_0x2_immval_0x1
0000a1f1 l       .data	00000000 I_slti_cg_cr_rs1_imm_edges_rs1val_0x2_immval_0x1_str
00001120 l       .text.rvtest	00000000 I_slti_cg_cr_rs1_imm_edges_rs1val_0x2_immval_0x2
0000a23f l       .data	00000000 I_slti_cg_cr_rs1_imm_edges_rs1val_0x2_immval_0x2_str
00001144 l       .text.rvtest	00000000 I_slti_cg_cr_rs1_imm_edges_rs1val_0x2_immval_0x3
0000a28d l       .data	00000000 I_slti_cg_cr_rs1_imm_edges_rs1val_0x2_immval_0x3_str
00001168 l       .text.rvtest	00000000 I_slti_cg_cr_rs1_imm_edges_rs1val_0x2_immval_0x4
0000a2db l       .data	00000000 I_slti_cg_cr_rs1_imm_edges_rs1val_0x2_immval_0x4_str
0000118c l       .text.rvtest	00000000 I_slti_cg_cr_rs1_imm_edges_rs1val_0x2_immval_0x8
0000a329 l       .data	00000000 I_slti_cg_cr_rs1_imm_edges_rs1val_0x2_immval_0x8_str
000011b0 l       .text.rvtest	00000000 I_slti_cg_cr_rs1_imm_edges_rs1val_0x2_immval_0x10
0000a377 l       .data	00000000 I_slti_cg_cr_rs1_imm_edges_rs1val_0x2_immval_0x10_str
000011d4 l       .text.rvtest	00000000 I_slti_cg_cr_rs1_imm_edges_rs1val_0x2_immval_0x20
0000a3c6 l       .data	00000000 I_slti_cg_cr_rs1_imm_edges_rs1val_0x2_immval_0x20_str
000011f8 l       .text.rvtest	00000000 I_slti_cg_cr_rs1_imm_edges_rs1val_0x2_immval_0x40
0000a415 l       .data	00000000 I_slti_cg_cr_rs1_imm_edges_rs1val_0x2_immval_0x40_str
0000121c l       .text.rvtest	00000000 I_slti_cg_cr_rs1_imm_edges_rs1val_0x2_immval_0x80
0000a464 l       .data	00000000 I_slti_cg_cr_rs1_imm_edges_rs1val_0x2_immval_0x80_str
00001240 l       .text.rvtest	00000000 I_slti_cg_cr_rs1_imm_edges_rs1val_0x2_immval_0x100
0000a4b3 l       .data	00000000 I_slti_cg_cr_rs1_imm_edges_rs1val_0x2_immval_0x100_str
00001264 l       .text.rvtest	00000000 I_slti_cg_cr_rs1_imm_edges_rs1val_0x2_immval_0x200
0000a503 l       .data	00000000 I_slti_cg_cr_rs1_imm_edges_rs1val_0x2_immval_0x200_str
00001288 l       .text.rvtest	00000000 I_slti_cg_cr_rs1_imm_edges_rs1val_0x2_immval_0x3ff
0000a553 l       .data	00000000 I_slti_cg_cr_rs1_imm_edges_rs1val_0x2_immval_0x3ff_str
000012ac l       .text.rvtest	00000000 I_slti_cg_cr_rs1_imm_edges_rs1val_0x2_immval_0x400
0000a5a3 l       .data	00000000 I_slti_cg_cr_rs1_imm_edges_rs1val_0x2_immval_0x400_str
000012d0 l       .text.rvtest	00000000 I_slti_cg_cr_rs1_imm_edges_rs1val_0x2_immval_0x703
0000a5f3 l       .data	00000000 I_slti_cg_cr_rs1_imm_edges_rs1val_0x2_immval_0x703_str
000012f4 l       .text.rvtest	00000000 I_slti_cg_cr_rs1_imm_edges_rs1val_0x2_immval_0x7ff
0000a643 l       .data	00000000 I_slti_cg_cr_rs1_imm_edges_rs1val_0x2_immval_0x7ff_str
00001318 l       .text.rvtest	00000000 I_slti_cg_cr_rs1_imm_edges_rs1val_0x2_immval_m0x800
0000a693 l       .data	00000000 I_slti_cg_cr_rs1_imm_edges_rs1val_0x2_immval_m0x800_str
0000133c l       .text.rvtest	00000000 I_slti_cg_cr_rs1_imm_edges_rs1val_0x2_immval_m0x7ff
0000a6e4 l       .data	00000000 I_slti_cg_cr_rs1_imm_edges_rs1val_0x2_immval_m0x7ff_str
00001360 l       .text.rvtest	00000000 I_slti_cg_cr_rs1_imm_edges_rs1val_0x2_immval_m0x2
0000a735 l       .data	00000000 I_slti_cg_cr_rs1_imm_edges_rs1val_0x2_immval_m0x2_str
00001384 l       .text.rvtest	00000000 I_slti_cg_cr_rs1_imm_edges_rs1val_0x2_immval_m0x1
0000a784 l       .data	00000000 I_slti_cg_cr_rs1_imm_edges_rs1val_0x2_immval_m0x1_str
000013a8 l       .text.rvtest	00000000 I_slti_cg_cr_rs1_imm_edges_rs1val_0x80000000_immval_0x0
0000a7d3 l       .data	00000000 I_slti_cg_cr_rs1_imm_edges_rs1val_0x80000000_immval_0x0_str
000013cc l       .text.rvtest	00000000 I_slti_cg_cr_rs1_imm_edges_rs1val_0x80000000_immval_0x1
0000a828 l       .data	00000000 I_slti_cg_cr_rs1_imm_edges_rs1val_0x80000000_immval_0x1_str
000013f0 l       .text.rvtest	00000000 I_slti_cg_cr_rs1_imm_edges_rs1val_0x80000000_immval_0x2
0000a87d l       .data	00000000 I_slti_cg_cr_rs1_imm_edges_rs1val_0x80000000_immval_0x2_str
00001414 l       .text.rvtest	00000000 I_slti_cg_cr_rs1_imm_edges_rs1val_0x80000000_immval_0x3
0000a8d2 l       .data	00000000 I_slti_cg_cr_rs1_imm_edges_rs1val_0x80000000_immval_0x3_str
00001438 l       .text.rvtest	00000000 I_slti_cg_cr_rs1_imm_edges_rs1val_0x80000000_immval_0x4
0000a927 l       .data	00000000 I_slti_cg_cr_rs1_imm_edges_rs1val_0x80000000_immval_0x4_str
0000145c l       .text.rvtest	00000000 I_slti_cg_cr_rs1_imm_edges_rs1val_0x80000000_immval_0x8
0000a97c l       .data	00000000 I_slti_cg_cr_rs1_imm_edges_rs1val_0x80000000_immval_0x8_str
00001480 l       .text.rvtest	00000000 I_slti_cg_cr_rs1_imm_edges_rs1val_0x80000000_immval_0x10
0000a9d1 l       .data	00000000 I_slti_cg_cr_rs1_imm_edges_rs1val_0x80000000_immval_0x10_str
000014a4 l       .text.rvtest	00000000 I_slti_cg_cr_rs1_imm_edges_rs1val_0x80000000_immval_0x20
0000aa27 l       .data	00000000 I_slti_cg_cr_rs1_imm_edges_rs1val_0x80000000_immval_0x20_str
000014c8 l       .text.rvtest	00000000 I_slti_cg_cr_rs1_imm_edges_rs1val_0x80000000_immval_0x40
0000aa7d l       .data	00000000 I_slti_cg_cr_rs1_imm_edges_rs1val_0x80000000_immval_0x40_str
000014ec l       .text.rvtest	00000000 I_slti_cg_cr_rs1_imm_edges_rs1val_0x80000000_immval_0x80
0000aad3 l       .data	00000000 I_slti_cg_cr_rs1_imm_edges_rs1val_0x80000000_immval_0x80_str
00001510 l       .text.rvtest	00000000 I_slti_cg_cr_rs1_imm_edges_rs1val_0x80000000_immval_0x100
0000ab29 l       .data	00000000 I_slti_cg_cr_rs1_imm_edges_rs1val_0x80000000_immval_0x100_str
00001534 l       .text.rvtest	00000000 I_slti_cg_cr_rs1_imm_edges_rs1val_0x80000000_immval_0x200
0000ab80 l       .data	00000000 I_slti_cg_cr_rs1_imm_edges_rs1val_0x80000000_immval_0x200_str
00001558 l       .text.rvtest	00000000 I_slti_cg_cr_rs1_imm_edges_rs1val_0x80000000_immval_0x3ff
0000abd7 l       .data	00000000 I_slti_cg_cr_rs1_imm_edges_rs1val_0x80000000_immval_0x3ff_str
0000157c l       .text.rvtest	00000000 I_slti_cg_cr_rs1_imm_edges_rs1val_0x80000000_immval_0x400
0000ac2e l       .data	00000000 I_slti_cg_cr_rs1_imm_edges_rs1val_0x80000000_immval_0x400_str
000015a0 l       .text.rvtest	00000000 I_slti_cg_cr_rs1_imm_edges_rs1val_0x80000000_immval_0x703
0000ac85 l       .data	00000000 I_slti_cg_cr_rs1_imm_edges_rs1val_0x80000000_immval_0x703_str
000015c4 l       .text.rvtest	00000000 I_slti_cg_cr_rs1_imm_edges_rs1val_0x80000000_immval_0x7ff
0000acdc l       .data	00000000 I_slti_cg_cr_rs1_imm_edges_rs1val_0x80000000_immval_0x7ff_str
000015e8 l       .text.rvtest	00000000 I_slti_cg_cr_rs1_imm_edges_rs1val_0x80000000_immval_m0x800
0000ad33 l       .data	00000000 I_slti_cg_cr_rs1_imm_edges_rs1val_0x80000000_immval_m0x800_str
0000160c l       .text.rvtest	00000000 I_slti_cg_cr_rs1_imm_edges_rs1val_0x80000000_immval_m0x7ff
0000ad8b l       .data	00000000 I_slti_cg_cr_rs1_imm_edges_rs1val_0x80000000_immval_m0x7ff_str
00001630 l       .text.rvtest	00000000 I_slti_cg_cr_rs1_imm_edges_rs1val_0x80000000_immval_m0x2
0000ade3 l       .data	00000000 I_slti_cg_cr_rs1_imm_edges_rs1val_0x80000000_immval_m0x2_str
00001654 l       .text.rvtest	00000000 I_slti_cg_cr_rs1_imm_edges_rs1val_0x80000000_immval_m0x1
0000ae39 l       .data	00000000 I_slti_cg_cr_rs1_imm_edges_rs1val_0x80000000_immval_m0x1_str
00001678 l       .text.rvtest	00000000 I_slti_cg_cr_rs1_imm_edges_rs1val_0x80000001_immval_0x0
0000ae8f l       .data	00000000 I_slti_cg_cr_rs1_imm_edges_rs1val_0x80000001_immval_0x0_str
0000169c l       .text.rvtest	00000000 I_slti_cg_cr_rs1_imm_edges_rs1val_0x80000001_immval_0x1
0000aee4 l       .data	00000000 I_slti_cg_cr_rs1_imm_edges_rs1val_0x80000001_immval_0x1_str
000016c0 l       .text.rvtest	00000000 I_slti_cg_cr_rs1_imm_edges_rs1val_0x80000001_immval_0x2
0000af39 l       .data	00000000 I_slti_cg_cr_rs1_imm_edges_rs1val_0x80000001_immval_0x2_str
000016e4 l       .text.rvtest	00000000 I_slti_cg_cr_rs1_imm_edges_rs1val_0x80000001_immval_0x3
0000af8e l       .data	00000000 I_slti_cg_cr_rs1_imm_edges_rs1val_0x80000001_immval_0x3_str
00001708 l       .text.rvtest	00000000 I_slti_cg_cr_rs1_imm_edges_rs1val_0x80000001_immval_0x4
0000afe3 l       .data	00000000 I_slti_cg_cr_rs1_imm_edges_rs1val_0x80000001_immval_0x4_str
0000172c l       .text.rvtest	00000000 I_slti_cg_cr_rs1_imm_edges_rs1val_0x80000001_immval_0x8
0000b038 l       .data	00000000 I_slti_cg_cr_rs1_imm_edges_rs1val_0x80000001_immval_0x8_str
00001750 l       .text.rvtest	00000000 I_slti_cg_cr_rs1_imm_edges_rs1val_0x80000001_immval_0x10
0000b08d l       .data	00000000 I_slti_cg_cr_rs1_imm_edges_rs1val_0x80000001_immval_0x10_str
00001774 l       .text.rvtest	00000000 I_slti_cg_cr_rs1_imm_edges_rs1val_0x80000001_immval_0x20
0000b0e3 l       .data	00000000 I_slti_cg_cr_rs1_imm_edges_rs1val_0x80000001_immval_0x20_str
00001798 l       .text.rvtest	00000000 I_slti_cg_cr_rs1_imm_edges_rs1val_0x80000001_immval_0x40
0000b139 l       .data	00000000 I_slti_cg_cr_rs1_imm_edges_rs1val_0x80000001_immval_0x40_str
000017bc l       .text.rvtest	00000000 I_slti_cg_cr_rs1_imm_edges_rs1val_0x80000001_immval_0x80
0000b18f l       .data	00000000 I_slti_cg_cr_rs1_imm_edges_rs1val_0x80000001_immval_0x80_str
000017e0 l       .text.rvtest	00000000 I_slti_cg_cr_rs1_imm_edges_rs1val_0x80000001_immval_0x100
0000b1e5 l       .data	00000000 I_slti_cg_cr_rs1_imm_edges_rs1val_0x80000001_immval_0x100_str
00001804 l       .text.rvtest	00000000 I_slti_cg_cr_rs1_imm_edges_rs1val_0x80000001_immval_0x200
0000b23c l       .data	00000000 I_slti_cg_cr_rs1_imm_edges_rs1val_0x80000001_immval_0x200_str
00001828 l       .text.rvtest	00000000 I_slti_cg_cr_rs1_imm_edges_rs1val_0x80000001_immval_0x3ff
0000b293 l       .data	00000000 I_slti_cg_cr_rs1_imm_edges_rs1val_0x80000001_immval_0x3ff_str
0000184c l       .text.rvtest	00000000 I_slti_cg_cr_rs1_imm_edges_rs1val_0x80000001_immval_0x400
0000b2ea l       .data	00000000 I_slti_cg_cr_rs1_imm_edges_rs1val_0x80000001_immval_0x400_str
00001870 l       .text.rvtest	00000000 I_slti_cg_cr_rs1_imm_edges_rs1val_0x80000001_immval_0x703
0000b341 l       .data	00000000 I_slti_cg_cr_rs1_imm_edges_rs1val_0x80000001_immval_0x703_str
00001894 l       .text.rvtest	00000000 I_slti_cg_cr_rs1_imm_edges_rs1val_0x80000001_immval_0x7ff
0000b398 l       .data	00000000 I_slti_cg_cr_rs1_imm_edges_rs1val_0x80000001_immval_0x7ff_str
000018b8 l       .text.rvtest	00000000 I_slti_cg_cr_rs1_imm_edges_rs1val_0x80000001_immval_m0x800
0000b3ef l       .data	00000000 I_slti_cg_cr_rs1_imm_edges_rs1val_0x80000001_immval_m0x800_str
000018dc l       .text.rvtest	00000000 I_slti_cg_cr_rs1_imm_edges_rs1val_0x80000001_immval_m0x7ff
0000b447 l       .data	00000000 I_slti_cg_cr_rs1_imm_edges_rs1val_0x80000001_immval_m0x7ff_str
00001900 l       .text.rvtest	00000000 I_slti_cg_cr_rs1_imm_edges_rs1val_0x80000001_immval_m0x2
0000b49f l       .data	00000000 I_slti_cg_cr_rs1_imm_edges_rs1val_0x80000001_immval_m0x2_str
00001924 l       .text.rvtest	00000000 I_slti_cg_cr_rs1_imm_edges_rs1val_0x80000001_immval_m0x1
0000b4f5 l       .data	00000000 I_slti_cg_cr_rs1_imm_edges_rs1val_0x80000001_immval_m0x1_str
00001948 l       .text.rvtest	00000000 I_slti_cg_cr_rs1_imm_edges_rs1val_0x7fffffff_immval_0x0
0000b54b l       .data	00000000 I_slti_cg_cr_rs1_imm_edges_rs1val_0x7fffffff_immval_0x0_str
0000196c l       .text.rvtest	00000000 I_slti_cg_cr_rs1_imm_edges_rs1val_0x7fffffff_immval_0x1
0000b5a0 l       .data	00000000 I_slti_cg_cr_rs1_imm_edges_rs1val_0x7fffffff_immval_0x1_str
00001990 l       .text.rvtest	00000000 I_slti_cg_cr_rs1_imm_edges_rs1val_0x7fffffff_immval_0x2
0000b5f5 l       .data	00000000 I_slti_cg_cr_rs1_imm_edges_rs1val_0x7fffffff_immval_0x2_str
000019b4 l       .text.rvtest	00000000 I_slti_cg_cr_rs1_imm_edges_rs1val_0x7fffffff_immval_0x3
0000b64a l       .data	00000000 I_slti_cg_cr_rs1_imm_edges_rs1val_0x7fffffff_immval_0x3_str
000019d8 l       .text.rvtest	00000000 I_slti_cg_cr_rs1_imm_edges_rs1val_0x7fffffff_immval_0x4
0000b69f l       .data	00000000 I_slti_cg_cr_rs1_imm_edges_rs1val_0x7fffffff_immval_0x4_str
000019fc l       .text.rvtest	00000000 I_slti_cg_cr_rs1_imm_edges_rs1val_0x7fffffff_immval_0x8
0000b6f4 l       .data	00000000 I_slti_cg_cr_rs1_imm_edges_rs1val_0x7fffffff_immval_0x8_str
00001a20 l       .text.rvtest	00000000 I_slti_cg_cr_rs1_imm_edges_rs1val_0x7fffffff_immval_0x10
0000b749 l       .data	00000000 I_slti_cg_cr_rs1_imm_edges_rs1val_0x7fffffff_immval_0x10_str
00001a44 l       .text.rvtest	00000000 I_slti_cg_cr_rs1_imm_edges_rs1val_0x7fffffff_immval_0x20
0000b79f l       .data	00000000 I_slti_cg_cr_rs1_imm_edges_rs1val_0x7fffffff_immval_0x20_str
00001a68 l       .text.rvtest	00000000 I_slti_cg_cr_rs1_imm_edges_rs1val_0x7fffffff_immval_0x40
0000b7f5 l       .data	00000000 I_slti_cg_cr_rs1_imm_edges_rs1val_0x7fffffff_immval_0x40_str
00001a8c l       .text.rvtest	00000000 I_slti_cg_cr_rs1_imm_edges_rs1val_0x7fffffff_immval_0x80
0000b84b l       .data	00000000 I_slti_cg_cr_rs1_imm_edges_rs1val_0x7fffffff_immval_0x80_str
00001ab0 l       .text.rvtest	00000000 I_slti_cg_cr_rs1_imm_edges_rs1val_0x7fffffff_immval_0x100
0000b8a1 l       .data	00000000 I_slti_cg_cr_rs1_imm_edges_rs1val_0x7fffffff_immval_0x100_str
00001ad4 l       .text.rvtest	00000000 I_slti_cg_cr_rs1_imm_edges_rs1val_0x7fffffff_immval_0x200
0000b8f8 l       .data	00000000 I_slti_cg_cr_rs1_imm_edges_rs1val_0x7fffffff_immval_0x200_str
00001af8 l       .text.rvtest	00000000 I_slti_cg_cr_rs1_imm_edges_rs1val_0x7fffffff_immval_0x3ff
0000b94f l       .data	00000000 I_slti_cg_cr_rs1_imm_edges_rs1val_0x7fffffff_immval_0x3ff_str
00001b1c l       .text.rvtest	00000000 I_slti_cg_cr_rs1_imm_edges_rs1val_0x7fffffff_immval_0x400
0000b9a6 l       .data	00000000 I_slti_cg_cr_rs1_imm_edges_rs1val_0x7fffffff_immval_0x400_str
00001b40 l       .text.rvtest	00000000 I_slti_cg_cr_rs1_imm_edges_rs1val_0x7fffffff_immval_0x703
0000b9fd l       .data	00000000 I_slti_cg_cr_rs1_imm_edges_rs1val_0x7fffffff_immval_0x703_str
00001b64 l       .text.rvtest	00000000 I_slti_cg_cr_rs1_imm_edges_rs1val_0x7fffffff_immval_0x7ff
0000ba54 l       .data	00000000 I_slti_cg_cr_rs1_imm_edges_rs1val_0x7fffffff_immval_0x7ff_str
00001b88 l       .text.rvtest	00000000 I_slti_cg_cr_rs1_imm_edges_rs1val_0x7fffffff_immval_m0x800
0000baab l       .data	00000000 I_slti_cg_cr_rs1_imm_edges_rs1val_0x7fffffff_immval_m0x800_str
00001bac l       .text.rvtest	00000000 I_slti_cg_cr_rs1_imm_edges_rs1val_0x7fffffff_immval_m0x7ff
0000bb03 l       .data	00000000 I_slti_cg_cr_rs1_imm_edges_rs1val_0x7fffffff_immval_m0x7ff_str
00001bd0 l       .text.rvtest	00000000 I_slti_cg_cr_rs1_imm_edges_rs1val_0x7fffffff_immval_m0x2
0000bb5b l       .data	00000000 I_slti_cg_cr_rs1_imm_edges_rs1val_0x7fffffff_immval_m0x2_str
00001bf4 l       .text.rvtest	00000000 I_slti_cg_cr_rs1_imm_edges_rs1val_0x7fffffff_immval_m0x1
0000bbb1 l       .data	00000000 I_slti_cg_cr_rs1_imm_edges_rs1val_0x7fffffff_immval_m0x1_str
00001c18 l       .text.rvtest	00000000 I_slti_cg_cr_rs1_imm_edges_rs1val_0x7ffffffe_immval_0x0
0000bc07 l       .data	00000000 I_slti_cg_cr_rs1_imm_edges_rs1val_0x7ffffffe_immval_0x0_str
00001c3c l       .text.rvtest	00000000 I_slti_cg_cr_rs1_imm_edges_rs1val_0x7ffffffe_immval_0x1
0000bc5c l       .data	00000000 I_slti_cg_cr_rs1_imm_edges_rs1val_0x7ffffffe_immval_0x1_str
00001c60 l       .text.rvtest	00000000 I_slti_cg_cr_rs1_imm_edges_rs1val_0x7ffffffe_immval_0x2
0000bcb1 l       .data	00000000 I_slti_cg_cr_rs1_imm_edges_rs1val_0x7ffffffe_immval_0x2_str
00001c84 l       .text.rvtest	00000000 I_slti_cg_cr_rs1_imm_edges_rs1val_0x7ffffffe_immval_0x3
0000bd06 l       .data	00000000 I_slti_cg_cr_rs1_imm_edges_rs1val_0x7ffffffe_immval_0x3_str
00001ca8 l       .text.rvtest	00000000 I_slti_cg_cr_rs1_imm_edges_rs1val_0x7ffffffe_immval_0x4
0000bd5b l       .data	00000000 I_slti_cg_cr_rs1_imm_edges_rs1val_0x7ffffffe_immval_0x4_str
00001ccc l       .text.rvtest	00000000 I_slti_cg_cr_rs1_imm_edges_rs1val_0x7ffffffe_immval_0x8
0000bdb0 l       .data	00000000 I_slti_cg_cr_rs1_imm_edges_rs1val_0x7ffffffe_immval_0x8_str
00001cf0 l       .text.rvtest	00000000 I_slti_cg_cr_rs1_imm_edges_rs1val_0x7ffffffe_immval_0x10
0000be05 l       .data	00000000 I_slti_cg_cr_rs1_imm_edges_rs1val_0x7ffffffe_immval_0x10_str
00001d14 l       .text.rvtest	00000000 I_slti_cg_cr_rs1_imm_edges_rs1val_0x7ffffffe_immval_0x20
0000be5b l       .data	00000000 I_slti_cg_cr_rs1_imm_edges_rs1val_0x7ffffffe_immval_0x20_str
00001d38 l       .text.rvtest	00000000 I_slti_cg_cr_rs1_imm_edges_rs1val_0x7ffffffe_immval_0x40
0000beb1 l       .data	00000000 I_slti_cg_cr_rs1_imm_edges_rs1val_0x7ffffffe_immval_0x40_str
00001d5c l       .text.rvtest	00000000 I_slti_cg_cr_rs1_imm_edges_rs1val_0x7ffffffe_immval_0x80
0000bf07 l       .data	00000000 I_slti_cg_cr_rs1_imm_edges_rs1val_0x7ffffffe_immval_0x80_str
00001d80 l       .text.rvtest	00000000 I_slti_cg_cr_rs1_imm_edges_rs1val_0x7ffffffe_immval_0x100
0000bf5d l       .data	00000000 I_slti_cg_cr_rs1_imm_edges_rs1val_0x7ffffffe_immval_0x100_str
00001da4 l       .text.rvtest	00000000 I_slti_cg_cr_rs1_imm_edges_rs1val_0x7ffffffe_immval_0x200
0000bfb4 l       .data	00000000 I_slti_cg_cr_rs1_imm_edges_rs1val_0x7ffffffe_immval_0x200_str
00001dc8 l       .text.rvtest	00000000 I_slti_cg_cr_rs1_imm_edges_rs1val_0x7ffffffe_immval_0x3ff
0000c00b l       .data	00000000 I_slti_cg_cr_rs1_imm_edges_rs1val_0x7ffffffe_immval_0x3ff_str
00001dec l       .text.rvtest	00000000 I_slti_cg_cr_rs1_imm_edges_rs1val_0x7ffffffe_immval_0x400
0000c062 l       .data	00000000 I_slti_cg_cr_rs1_imm_edges_rs1val_0x7ffffffe_immval_0x400_str
00001e10 l       .text.rvtest	00000000 I_slti_cg_cr_rs1_imm_edges_rs1val_0x7ffffffe_immval_0x703
0000c0b9 l       .data	00000000 I_slti_cg_cr_rs1_imm_edges_rs1val_0x7ffffffe_immval_0x703_str
00001e34 l       .text.rvtest	00000000 I_slti_cg_cr_rs1_imm_edges_rs1val_0x7ffffffe_immval_0x7ff
0000c110 l       .data	00000000 I_slti_cg_cr_rs1_imm_edges_rs1val_0x7ffffffe_immval_0x7ff_str
00001e58 l       .text.rvtest	00000000 I_slti_cg_cr_rs1_imm_edges_rs1val_0x7ffffffe_immval_m0x800
0000c167 l       .data	00000000 I_slti_cg_cr_rs1_imm_edges_rs1val_0x7ffffffe_immval_m0x800_str
00001e7c l       .text.rvtest	00000000 I_slti_cg_cr_rs1_imm_edges_rs1val_0x7ffffffe_immval_m0x7ff
0000c1bf l       .data	00000000 I_slti_cg_cr_rs1_imm_edges_rs1val_0x7ffffffe_immval_m0x7ff_str
00001ea0 l       .text.rvtest	00000000 I_slti_cg_cr_rs1_imm_edges_rs1val_0x7ffffffe_immval_m0x2
0000c217 l       .data	00000000 I_slti_cg_cr_rs1_imm_edges_rs1val_0x7ffffffe_immval_m0x2_str
00001ec4 l       .text.rvtest	00000000 I_slti_cg_cr_rs1_imm_edges_rs1val_0x7ffffffe_immval_m0x1
0000c26d l       .data	00000000 I_slti_cg_cr_rs1_imm_edges_rs1val_0x7ffffffe_immval_m0x1_str
00001ee8 l       .text.rvtest	00000000 I_slti_cg_cr_rs1_imm_edges_rs1val_0xffffffff_immval_0x0
0000c2c3 l       .data	00000000 I_slti_cg_cr_rs1_imm_edges_rs1val_0xffffffff_immval_0x0_str
00001f0c l       .text.rvtest	00000000 I_slti_cg_cr_rs1_imm_edges_rs1val_0xffffffff_immval_0x1
0000c318 l       .data	00000000 I_slti_cg_cr_rs1_imm_edges_rs1val_0xffffffff_immval_0x1_str
00001f30 l       .text.rvtest	00000000 I_slti_cg_cr_rs1_imm_edges_rs1val_0xffffffff_immval_0x2
0000c36d l       .data	00000000 I_slti_cg_cr_rs1_imm_edges_rs1val_0xffffffff_immval_0x2_str
00001f54 l       .text.rvtest	00000000 I_slti_cg_cr_rs1_imm_edges_rs1val_0xffffffff_immval_0x3
0000c3c2 l       .data	00000000 I_slti_cg_cr_rs1_imm_edges_rs1val_0xffffffff_immval_0x3_str
00001f78 l       .text.rvtest	00000000 I_slti_cg_cr_rs1_imm_edges_rs1val_0xffffffff_immval_0x4
0000c417 l       .data	00000000 I_slti_cg_cr_rs1_imm_edges_rs1val_0xffffffff_immval_0x4_str
00001f9c l       .text.rvtest	00000000 I_slti_cg_cr_rs1_imm_edges_rs1val_0xffffffff_immval_0x8
0000c46c l       .data	00000000 I_slti_cg_cr_rs1_imm_edges_rs1val_0xffffffff_immval_0x8_str
00001fc0 l       .text.rvtest	00000000 I_slti_cg_cr_rs1_imm_edges_rs1val_0xffffffff_immval_0x10
0000c4c1 l       .data	00000000 I_slti_cg_cr_rs1_imm_edges_rs1val_0xffffffff_immval_0x10_str
00001fe4 l       .text.rvtest	00000000 I_slti_cg_cr_rs1_imm_edges_rs1val_0xffffffff_immval_0x20
0000c517 l       .data	00000000 I_slti_cg_cr_rs1_imm_edges_rs1val_0xffffffff_immval_0x20_str
00002008 l       .text.rvtest	00000000 I_slti_cg_cr_rs1_imm_edges_rs1val_0xffffffff_immval_0x40
0000c56d l       .data	00000000 I_slti_cg_cr_rs1_imm_edges_rs1val_0xffffffff_immval_0x40_str
0000202c l       .text.rvtest	00000000 I_slti_cg_cr_rs1_imm_edges_rs1val_0xffffffff_immval_0x80
0000c5c3 l       .data	00000000 I_slti_cg_cr_rs1_imm_edges_rs1val_0xffffffff_immval_0x80_str
00002050 l       .text.rvtest	00000000 I_slti_cg_cr_rs1_imm_edges_rs1val_0xffffffff_immval_0x100
0000c619 l       .data	00000000 I_slti_cg_cr_rs1_imm_edges_rs1val_0xffffffff_immval_0x100_str
00002074 l       .text.rvtest	00000000 I_slti_cg_cr_rs1_imm_edges_rs1val_0xffffffff_immval_0x200
0000c670 l       .data	00000000 I_slti_cg_cr_rs1_imm_edges_rs1val_0xffffffff_immval_0x200_str
00002098 l       .text.rvtest	00000000 I_slti_cg_cr_rs1_imm_edges_rs1val_0xffffffff_immval_0x3ff
0000c6c7 l       .data	00000000 I_slti_cg_cr_rs1_imm_edges_rs1val_0xffffffff_immval_0x3ff_str
000020bc l       .text.rvtest	00000000 I_slti_cg_cr_rs1_imm_edges_rs1val_0xffffffff_immval_0x400
0000c71e l       .data	00000000 I_slti_cg_cr_rs1_imm_edges_rs1val_0xffffffff_immval_0x400_str
000020e0 l       .text.rvtest	00000000 I_slti_cg_cr_rs1_imm_edges_rs1val_0xffffffff_immval_0x703
0000c775 l       .data	00000000 I_slti_cg_cr_rs1_imm_edges_rs1val_0xffffffff_immval_0x703_str
00002104 l       .text.rvtest	00000000 I_slti_cg_cr_rs1_imm_edges_rs1val_0xffffffff_immval_0x7ff
0000c7cc l       .data	00000000 I_slti_cg_cr_rs1_imm_edges_rs1val_0xffffffff_immval_0x7ff_str
00002128 l       .text.rvtest	00000000 I_slti_cg_cr_rs1_imm_edges_rs1val_0xffffffff_immval_m0x800
0000c823 l       .data	00000000 I_slti_cg_cr_rs1_imm_edges_rs1val_0xffffffff_immval_m0x800_str
0000214c l       .text.rvtest	00000000 I_slti_cg_cr_rs1_imm_edges_rs1val_0xffffffff_immval_m0x7ff
0000c87b l       .data	00000000 I_slti_cg_cr_rs1_imm_edges_rs1val_0xffffffff_immval_m0x7ff_str
00002170 l       .text.rvtest	00000000 I_slti_cg_cr_rs1_imm_edges_rs1val_0xffffffff_immval_m0x2
0000c8d3 l       .data	00000000 I_slti_cg_cr_rs1_imm_edges_rs1val_0xffffffff_immval_m0x2_str
00002194 l       .text.rvtest	00000000 I_slti_cg_cr_rs1_imm_edges_rs1val_0xffffffff_immval_m0x1
0000c929 l       .data	00000000 I_slti_cg_cr_rs1_imm_edges_rs1val_0xffffffff_immval_m0x1_str
000021b8 l       .text.rvtest	00000000 I_slti_cg_cr_rs1_imm_edges_rs1val_0xfffffffe_immval_0x0
0000c97f l       .data	00000000 I_slti_cg_cr_rs1_imm_edges_rs1val_0xfffffffe_immval_0x0_str
000021dc l       .text.rvtest	00000000 I_slti_cg_cr_rs1_imm_edges_rs1val_0xfffffffe_immval_0x1
0000c9d4 l       .data	00000000 I_slti_cg_cr_rs1_imm_edges_rs1val_0xfffffffe_immval_0x1_str
00002200 l       .text.rvtest	00000000 I_slti_cg_cr_rs1_imm_edges_rs1val_0xfffffffe_immval_0x2
0000ca29 l       .data	00000000 I_slti_cg_cr_rs1_imm_edges_rs1val_0xfffffffe_immval_0x2_str
00002224 l       .text.rvtest	00000000 I_slti_cg_cr_rs1_imm_edges_rs1val_0xfffffffe_immval_0x3
0000ca7e l       .data	00000000 I_slti_cg_cr_rs1_imm_edges_rs1val_0xfffffffe_immval_0x3_str
00002248 l       .text.rvtest	00000000 I_slti_cg_cr_rs1_imm_edges_rs1val_0xfffffffe_immval_0x4
0000cad3 l       .data	00000000 I_slti_cg_cr_rs1_imm_edges_rs1val_0xfffffffe_immval_0x4_str
0000226c l       .text.rvtest	00000000 I_slti_cg_cr_rs1_imm_edges_rs1val_0xfffffffe_immval_0x8
0000cb28 l       .data	00000000 I_slti_cg_cr_rs1_imm_edges_rs1val_0xfffffffe_immval_0x8_str
00002290 l       .text.rvtest	00000000 I_slti_cg_cr_rs1_imm_edges_rs1val_0xfffffffe_immval_0x10
0000cb7d l       .data	00000000 I_slti_cg_cr_rs1_imm_edges_rs1val_0xfffffffe_immval_0x10_str
000022b4 l       .text.rvtest	00000000 I_slti_cg_cr_rs1_imm_edges_rs1val_0xfffffffe_immval_0x20
0000cbd3 l       .data	00000000 I_slti_cg_cr_rs1_imm_edges_rs1val_0xfffffffe_immval_0x20_str
000022d8 l       .text.rvtest	00000000 I_slti_cg_cr_rs1_imm_edges_rs1val_0xfffffffe_immval_0x40
0000cc29 l       .data	00000000 I_slti_cg_cr_rs1_imm_edges_rs1val_0xfffffffe_immval_0x40_str
000022fc l       .text.rvtest	00000000 I_slti_cg_cr_rs1_imm_edges_rs1val_0xfffffffe_immval_0x80
0000cc7f l       .data	00000000 I_slti_cg_cr_rs1_imm_edges_rs1val_0xfffffffe_immval_0x80_str
00002320 l       .text.rvtest	00000000 I_slti_cg_cr_rs1_imm_edges_rs1val_0xfffffffe_immval_0x100
0000ccd5 l       .data	00000000 I_slti_cg_cr_rs1_imm_edges_rs1val_0xfffffffe_immval_0x100_str
00002344 l       .text.rvtest	00000000 I_slti_cg_cr_rs1_imm_edges_rs1val_0xfffffffe_immval_0x200
0000cd2c l       .data	00000000 I_slti_cg_cr_rs1_imm_edges_rs1val_0xfffffffe_immval_0x200_str
00002368 l       .text.rvtest	00000000 I_slti_cg_cr_rs1_imm_edges_rs1val_0xfffffffe_immval_0x3ff
0000cd83 l       .data	00000000 I_slti_cg_cr_rs1_imm_edges_rs1val_0xfffffffe_immval_0x3ff_str
0000238c l       .text.rvtest	00000000 I_slti_cg_cr_rs1_imm_edges_rs1val_0xfffffffe_immval_0x400
0000cdda l       .data	00000000 I_slti_cg_cr_rs1_imm_edges_rs1val_0xfffffffe_immval_0x400_str
000023b0 l       .text.rvtest	00000000 I_slti_cg_cr_rs1_imm_edges_rs1val_0xfffffffe_immval_0x703
0000ce31 l       .data	00000000 I_slti_cg_cr_rs1_imm_edges_rs1val_0xfffffffe_immval_0x703_str
000023d4 l       .text.rvtest	00000000 I_slti_cg_cr_rs1_imm_edges_rs1val_0xfffffffe_immval_0x7ff
0000ce88 l       .data	00000000 I_slti_cg_cr_rs1_imm_edges_rs1val_0xfffffffe_immval_0x7ff_str
000023f8 l       .text.rvtest	00000000 I_slti_cg_cr_rs1_imm_edges_rs1val_0xfffffffe_immval_m0x800
0000cedf l       .data	00000000 I_slti_cg_cr_rs1_imm_edges_rs1val_0xfffffffe_immval_m0x800_str
0000241c l       .text.rvtest	00000000 I_slti_cg_cr_rs1_imm_edges_rs1val_0xfffffffe_immval_m0x7ff
0000cf37 l       .data	00000000 I_slti_cg_cr_rs1_imm_edges_rs1val_0xfffffffe_immval_m0x7ff_str
00002440 l       .text.rvtest	00000000 I_slti_cg_cr_rs1_imm_edges_rs1val_0xfffffffe_immval_m0x2
0000cf8f l       .data	00000000 I_slti_cg_cr_rs1_imm_edges_rs1val_0xfffffffe_immval_m0x2_str
00002464 l       .text.rvtest	00000000 I_slti_cg_cr_rs1_imm_edges_rs1val_0xfffffffe_immval_m0x1
0000cfe5 l       .data	00000000 I_slti_cg_cr_rs1_imm_edges_rs1val_0xfffffffe_immval_m0x1_str
00002488 l       .text.rvtest	00000000 I_slti_cg_cr_rs1_imm_edges_rs1val_0x5bbc8872_immval_0x0
0000d03b l       .data	00000000 I_slti_cg_cr_rs1_imm_edges_rs1val_0x5bbc8872_immval_0x0_str
000024ac l       .text.rvtest	00000000 I_slti_cg_cr_rs1_imm_edges_rs1val_0x5bbc8872_immval_0x1
0000d090 l       .data	00000000 I_slti_cg_cr_rs1_imm_edges_rs1val_0x5bbc8872_immval_0x1_str
000024d0 l       .text.rvtest	00000000 I_slti_cg_cr_rs1_imm_edges_rs1val_0x5bbc8872_immval_0x2
0000d0e5 l       .data	00000000 I_slti_cg_cr_rs1_imm_edges_rs1val_0x5bbc8872_immval_0x2_str
000024f4 l       .text.rvtest	00000000 I_slti_cg_cr_rs1_imm_edges_rs1val_0x5bbc8872_immval_0x3
0000d13a l       .data	00000000 I_slti_cg_cr_rs1_imm_edges_rs1val_0x5bbc8872_immval_0x3_str
00002518 l       .text.rvtest	00000000 I_slti_cg_cr_rs1_imm_edges_rs1val_0x5bbc8872_immval_0x4
0000d18f l       .data	00000000 I_slti_cg_cr_rs1_imm_edges_rs1val_0x5bbc8872_immval_0x4_str
0000253c l       .text.rvtest	00000000 I_slti_cg_cr_rs1_imm_edges_rs1val_0x5bbc8872_immval_0x8
0000d1e4 l       .data	00000000 I_slti_cg_cr_rs1_imm_edges_rs1val_0x5bbc8872_immval_0x8_str
00002560 l       .text.rvtest	00000000 I_slti_cg_cr_rs1_imm_edges_rs1val_0x5bbc8872_immval_0x10
0000d239 l       .data	00000000 I_slti_cg_cr_rs1_imm_edges_rs1val_0x5bbc8872_immval_0x10_str
00002584 l       .text.rvtest	00000000 I_slti_cg_cr_rs1_imm_edges_rs1val_0x5bbc8872_immval_0x20
0000d28f l       .data	00000000 I_slti_cg_cr_rs1_imm_edges_rs1val_0x5bbc8872_immval_0x20_str
000025a8 l       .text.rvtest	00000000 I_slti_cg_cr_rs1_imm_edges_rs1val_0x5bbc8872_immval_0x40
0000d2e5 l       .data	00000000 I_slti_cg_cr_rs1_imm_edges_rs1val_0x5bbc8872_immval_0x40_str
000025cc l       .text.rvtest	00000000 I_slti_cg_cr_rs1_imm_edges_rs1val_0x5bbc8872_immval_0x80
0000d33b l       .data	00000000 I_slti_cg_cr_rs1_imm_edges_rs1val_0x5bbc8872_immval_0x80_str
000025f0 l       .text.rvtest	00000000 I_slti_cg_cr_rs1_imm_edges_rs1val_0x5bbc8872_immval_0x100
0000d391 l       .data	00000000 I_slti_cg_cr_rs1_imm_edges_rs1val_0x5bbc8872_immval_0x100_str
00002614 l       .text.rvtest	00000000 I_slti_cg_cr_rs1_imm_edges_rs1val_0x5bbc8872_immval_0x200
0000d3e8 l       .data	00000000 I_slti_cg_cr_rs1_imm_edges_rs1val_0x5bbc8872_immval_0x200_str
00002638 l       .text.rvtest	00000000 I_slti_cg_cr_rs1_imm_edges_rs1val_0x5bbc8872_immval_0x3ff
0000d43f l       .data	00000000 I_slti_cg_cr_rs1_imm_edges_rs1val_0x5bbc8872_immval_0x3ff_str
0000265c l       .text.rvtest	00000000 I_slti_cg_cr_rs1_imm_edges_rs1val_0x5bbc8872_immval_0x400
0000d496 l       .data	00000000 I_slti_cg_cr_rs1_imm_edges_rs1val_0x5bbc8872_immval_0x400_str
00002680 l       .text.rvtest	00000000 I_slti_cg_cr_rs1_imm_edges_rs1val_0x5bbc8872_immval_0x703
0000d4ed l       .data	00000000 I_slti_cg_cr_rs1_imm_edges_rs1val_0x5bbc8872_immval_0x703_str
000026a4 l       .text.rvtest	00000000 I_slti_cg_cr_rs1_imm_edges_rs1val_0x5bbc8872_immval_0x7ff
0000d544 l       .data	00000000 I_slti_cg_cr_rs1_imm_edges_rs1val_0x5bbc8872_immval_0x7ff_str
000026c8 l       .text.rvtest	00000000 I_slti_cg_cr_rs1_imm_edges_rs1val_0x5bbc8872_immval_m0x800
0000d59b l       .data	00000000 I_slti_cg_cr_rs1_imm_edges_rs1val_0x5bbc8872_immval_m0x800_str
000026ec l       .text.rvtest	00000000 I_slti_cg_cr_rs1_imm_edges_rs1val_0x5bbc8872_immval_m0x7ff
0000d5f3 l       .data	00000000 I_slti_cg_cr_rs1_imm_edges_rs1val_0x5bbc8872_immval_m0x7ff_str
00002710 l       .text.rvtest	00000000 I_slti_cg_cr_rs1_imm_edges_rs1val_0x5bbc8872_immval_m0x2
0000d64b l       .data	00000000 I_slti_cg_cr_rs1_imm_edges_rs1val_0x5bbc8872_immval_m0x2_str
00002734 l       .text.rvtest	00000000 I_slti_cg_cr_rs1_imm_edges_rs1val_0x5bbc8872_immval_m0x1
0000d6a1 l       .data	00000000 I_slti_cg_cr_rs1_imm_edges_rs1val_0x5bbc8872_immval_m0x1_str
00002758 l       .text.rvtest	00000000 I_slti_cg_cr_rs1_imm_edges_rs1val_0xaaaaaaaa_immval_0x0
0000d6f7 l       .data	00000000 I_slti_cg_cr_rs1_imm_edges_rs1val_0xaaaaaaaa_immval_0x0_str
0000277c l       .text.rvtest	00000000 I_slti_cg_cr_rs1_imm_edges_rs1val_0xaaaaaaaa_immval_0x1
0000d74c l       .data	00000000 I_slti_cg_cr_rs1_imm_edges_rs1val_0xaaaaaaaa_immval_0x1_str
000027a0 l       .text.rvtest	00000000 I_slti_cg_cr_rs1_imm_edges_rs1val_0xaaaaaaaa_immval_0x2
0000d7a1 l       .data	00000000 I_slti_cg_cr_rs1_imm_edges_rs1val_0xaaaaaaaa_immval_0x2_str
000027c4 l       .text.rvtest	00000000 I_slti_cg_cr_rs1_imm_edges_rs1val_0xaaaaaaaa_immval_0x3
0000d7f6 l       .data	00000000 I_slti_cg_cr_rs1_imm_edges_rs1val_0xaaaaaaaa_immval_0x3_str
000027e8 l       .text.rvtest	00000000 I_slti_cg_cr_rs1_imm_edges_rs1val_0xaaaaaaaa_immval_0x4
0000d84b l       .data	00000000 I_slti_cg_cr_rs1_imm_edges_rs1val_0xaaaaaaaa_immval_0x4_str
0000280c l       .text.rvtest	00000000 I_slti_cg_cr_rs1_imm_edges_rs1val_0xaaaaaaaa_immval_0x8
0000d8a0 l       .data	00000000 I_slti_cg_cr_rs1_imm_edges_rs1val_0xaaaaaaaa_immval_0x8_str
00002830 l       .text.rvtest	00000000 I_slti_cg_cr_rs1_imm_edges_rs1val_0xaaaaaaaa_immval_0x10
0000d8f5 l       .data	00000000 I_slti_cg_cr_rs1_imm_edges_rs1val_0xaaaaaaaa_immval_0x10_str
00002854 l       .text.rvtest	00000000 I_slti_cg_cr_rs1_imm_edges_rs1val_0xaaaaaaaa_immval_0x20
0000d94b l       .data	00000000 I_slti_cg_cr_rs1_imm_edges_rs1val_0xaaaaaaaa_immval_0x20_str
00002878 l       .text.rvtest	00000000 I_slti_cg_cr_rs1_imm_edges_rs1val_0xaaaaaaaa_immval_0x40
0000d9a1 l       .data	00000000 I_slti_cg_cr_rs1_imm_edges_rs1val_0xaaaaaaaa_immval_0x40_str
0000289c l       .text.rvtest	00000000 I_slti_cg_cr_rs1_imm_edges_rs1val_0xaaaaaaaa_immval_0x80
0000d9f7 l       .data	00000000 I_slti_cg_cr_rs1_imm_edges_rs1val_0xaaaaaaaa_immval_0x80_str
000028c0 l       .text.rvtest	00000000 I_slti_cg_cr_rs1_imm_edges_rs1val_0xaaaaaaaa_immval_0x100
0000da4d l       .data	00000000 I_slti_cg_cr_rs1_imm_edges_rs1val_0xaaaaaaaa_immval_0x100_str
000028e4 l       .text.rvtest	00000000 I_slti_cg_cr_rs1_imm_edges_rs1val_0xaaaaaaaa_immval_0x200
0000daa4 l       .data	00000000 I_slti_cg_cr_rs1_imm_edges_rs1val_0xaaaaaaaa_immval_0x200_str
00002908 l       .text.rvtest	00000000 I_slti_cg_cr_rs1_imm_edges_rs1val_0xaaaaaaaa_immval_0x3ff
0000dafb l       .data	00000000 I_slti_cg_cr_rs1_imm_edges_rs1val_0xaaaaaaaa_immval_0x3ff_str
0000292c l       .text.rvtest	00000000 I_slti_cg_cr_rs1_imm_edges_rs1val_0xaaaaaaaa_immval_0x400
0000db52 l       .data	00000000 I_slti_cg_cr_rs1_imm_edges_rs1val_0xaaaaaaaa_immval_0x400_str
00002950 l       .text.rvtest	00000000 I_slti_cg_cr_rs1_imm_edges_rs1val_0xaaaaaaaa_immval_0x703
0000dba9 l       .data	00000000 I_slti_cg_cr_rs1_imm_edges_rs1val_0xaaaaaaaa_immval_0x703_str
00002974 l       .text.rvtest	00000000 I_slti_cg_cr_rs1_imm_edges_rs1val_0xaaaaaaaa_immval_0x7ff
0000dc00 l       .data	00000000 I_slti_cg_cr_rs1_imm_edges_rs1val_0xaaaaaaaa_immval_0x7ff_str
00002998 l       .text.rvtest	00000000 I_slti_cg_cr_rs1_imm_edges_rs1val_0xaaaaaaaa_immval_m0x800
0000dc57 l       .data	00000000 I_slti_cg_cr_rs1_imm_edges_rs1val_0xaaaaaaaa_immval_m0x800_str
000029bc l       .text.rvtest	00000000 I_slti_cg_cr_rs1_imm_edges_rs1val_0xaaaaaaaa_immval_m0x7ff
0000dcaf l       .data	00000000 I_slti_cg_cr_rs1_imm_edges_rs1val_0xaaaaaaaa_immval_m0x7ff_str
000029e0 l       .text.rvtest	00000000 I_slti_cg_cr_rs1_imm_edges_rs1val_0xaaaaaaaa_immval_m0x2
0000dd07 l       .data	00000000 I_slti_cg_cr_rs1_imm_edges_rs1val_0xaaaaaaaa_immval_m0x2_str
00002a04 l       .text.rvtest	00000000 I_slti_cg_cr_rs1_imm_edges_rs1val_0xaaaaaaaa_immval_m0x1
0000dd5d l       .data	00000000 I_slti_cg_cr_rs1_imm_edges_rs1val_0xaaaaaaaa_immval_m0x1_str
00002a28 l       .text.rvtest	00000000 I_slti_cg_cr_rs1_imm_edges_rs1val_0x55555555_immval_0x0
0000ddb3 l       .data	00000000 I_slti_cg_cr_rs1_imm_edges_rs1val_0x55555555_immval_0x0_str
00002a4c l       .text.rvtest	00000000 I_slti_cg_cr_rs1_imm_edges_rs1val_0x55555555_immval_0x1
0000de08 l       .data	00000000 I_slti_cg_cr_rs1_imm_edges_rs1val_0x55555555_immval_0x1_str
00002a70 l       .text.rvtest	00000000 I_slti_cg_cr_rs1_imm_edges_rs1val_0x55555555_immval_0x2
0000de5d l       .data	00000000 I_slti_cg_cr_rs1_imm_edges_rs1val_0x55555555_immval_0x2_str
00002a94 l       .text.rvtest	00000000 I_slti_cg_cr_rs1_imm_edges_rs1val_0x55555555_immval_0x3
0000deb2 l       .data	00000000 I_slti_cg_cr_rs1_imm_edges_rs1val_0x55555555_immval_0x3_str
00002ab8 l       .text.rvtest	00000000 I_slti_cg_cr_rs1_imm_edges_rs1val_0x55555555_immval_0x4
0000df07 l       .data	00000000 I_slti_cg_cr_rs1_imm_edges_rs1val_0x55555555_immval_0x4_str
00002adc l       .text.rvtest	00000000 I_slti_cg_cr_rs1_imm_edges_rs1val_0x55555555_immval_0x8
0000df5c l       .data	00000000 I_slti_cg_cr_rs1_imm_edges_rs1val_0x55555555_immval_0x8_str
00002b00 l       .text.rvtest	00000000 I_slti_cg_cr_rs1_imm_edges_rs1val_0x55555555_immval_0x10
0000dfb1 l       .data	00000000 I_slti_cg_cr_rs1_imm_edges_rs1val_0x55555555_immval_0x10_str
00002b24 l       .text.rvtest	00000000 I_slti_cg_cr_rs1_imm_edges_rs1val_0x55555555_immval_0x20
0000e007 l       .data	00000000 I_slti_cg_cr_rs1_imm_edges_rs1val_0x55555555_immval_0x20_str
00002b48 l       .text.rvtest	00000000 I_slti_cg_cr_rs1_imm_edges_rs1val_0x55555555_immval_0x40
0000e05d l       .data	00000000 I_slti_cg_cr_rs1_imm_edges_rs1val_0x55555555_immval_0x40_str
00002b6c l       .text.rvtest	00000000 I_slti_cg_cr_rs1_imm_edges_rs1val_0x55555555_immval_0x80
0000e0b3 l       .data	00000000 I_slti_cg_cr_rs1_imm_edges_rs1val_0x55555555_immval_0x80_str
00002b90 l       .text.rvtest	00000000 I_slti_cg_cr_rs1_imm_edges_rs1val_0x55555555_immval_0x100
0000e109 l       .data	00000000 I_slti_cg_cr_rs1_imm_edges_rs1val_0x55555555_immval_0x100_str
00002bb4 l       .text.rvtest	00000000 I_slti_cg_cr_rs1_imm_edges_rs1val_0x55555555_immval_0x200
0000e160 l       .data	00000000 I_slti_cg_cr_rs1_imm_edges_rs1val_0x55555555_immval_0x200_str
00002bd8 l       .text.rvtest	00000000 I_slti_cg_cr_rs1_imm_edges_rs1val_0x55555555_immval_0x3ff
0000e1b7 l       .data	00000000 I_slti_cg_cr_rs1_imm_edges_rs1val_0x55555555_immval_0x3ff_str
00002bfc l       .text.rvtest	00000000 I_slti_cg_cr_rs1_imm_edges_rs1val_0x55555555_immval_0x400
0000e20e l       .data	00000000 I_slti_cg_cr_rs1_imm_edges_rs1val_0x55555555_immval_0x400_str
00002c20 l       .text.rvtest	00000000 I_slti_cg_cr_rs1_imm_edges_rs1val_0x55555555_immval_0x703
0000e265 l       .data	00000000 I_slti_cg_cr_rs1_imm_edges_rs1val_0x55555555_immval_0x703_str
00002c44 l       .text.rvtest	00000000 I_slti_cg_cr_rs1_imm_edges_rs1val_0x55555555_immval_0x7ff
0000e2bc l       .data	00000000 I_slti_cg_cr_rs1_imm_edges_rs1val_0x55555555_immval_0x7ff_str
00002c68 l       .text.rvtest	00000000 I_slti_cg_cr_rs1_imm_edges_rs1val_0x55555555_immval_m0x800
0000e313 l       .data	00000000 I_slti_cg_cr_rs1_imm_edges_rs1val_0x55555555_immval_m0x800_str
00002c8c l       .text.rvtest	00000000 I_slti_cg_cr_rs1_imm_edges_rs1val_0x55555555_immval_m0x7ff
0000e36b l       .data	00000000 I_slti_cg_cr_rs1_imm_edges_rs1val_0x55555555_immval_m0x7ff_str
00002cb0 l       .text.rvtest	00000000 I_slti_cg_cr_rs1_imm_edges_rs1val_0x55555555_immval_m0x2
0000e3c3 l       .data	00000000 I_slti_cg_cr_rs1_imm_edges_rs1val_0x55555555_immval_m0x2_str
00002cd4 l       .text.rvtest	00000000 I_slti_cg_cr_rs1_imm_edges_rs1val_0x55555555_immval_m0x1
0000e419 l       .data	00000000 I_slti_cg_cr_rs1_imm_edges_rs1val_0x55555555_immval_m0x1_str
00002cf8 l       .text.rvtest	00000000 I_slti_cg_cmp_rd_rs1_b0
0000e46f l       .data	00000000 I_slti_cg_cmp_rd_rs1_b0_str
00002d1c l       .text.rvtest	00000000 I_slti_cg_cmp_rd_rs1_b1
0000e4a3 l       .data	00000000 I_slti_cg_cmp_rd_rs1_b1_str
00002d40 l       .text.rvtest	00000000 I_slti_cg_cmp_rd_rs1_b2
0000e4d7 l       .data	00000000 I_slti_cg_cmp_rd_rs1_b2_str
00002d64 l       .text.rvtest	00000000 I_slti_cg_cmp_rd_rs1_b3
0000e50b l       .data	00000000 I_slti_cg_cmp_rd_rs1_b3_str
00002d88 l       .text.rvtest	00000000 I_slti_cg_cmp_rd_rs1_b4
0000e53f l       .data	00000000 I_slti_cg_cmp_rd_rs1_b4_str
00002dac l       .text.rvtest	00000000 I_slti_cg_cmp_rd_rs1_b5
0000e573 l       .data	00000000 I_slti_cg_cmp_rd_rs1_b5_str
00002dd4 l       .text.rvtest	00000000 I_slti_cg_cmp_rd_rs1_b6
0000e5a7 l       .data	00000000 I_slti_cg_cmp_rd_rs1_b6_str
00002e00 l       .text.rvtest	00000000 I_slti_cg_cmp_rd_rs1_b7
0000e5db l       .data	00000000 I_slti_cg_cmp_rd_rs1_b7_str
00002e24 l       .text.rvtest	00000000 I_slti_cg_cmp_rd_rs1_b8
0000e60f l       .data	00000000 I_slti_cg_cmp_rd_rs1_b8_str
00002e48 l       .text.rvtest	00000000 I_slti_cg_cmp_rd_rs1_b9
0000e643 l       .data	00000000 I_slti_cg_cmp_rd_rs1_b9_str
00002e6c l       .text.rvtest	00000000 I_slti_cg_cmp_rd_rs1_b10
0000e677 l       .data	00000000 I_slti_cg_cmp_rd_rs1_b10_str
00002e90 l       .text.rvtest	00000000 I_slti_cg_cmp_rd_rs1_b11
0000e6ac l       .data	00000000 I_slti_cg_cmp_rd_rs1_b11_str
00002eb4 l       .text.rvtest	00000000 I_slti_cg_cmp_rd_rs1_b12
0000e6e1 l       .data	00000000 I_slti_cg_cmp_rd_rs1_b12_str
00002ed8 l       .text.rvtest	00000000 I_slti_cg_cmp_rd_rs1_b13
0000e716 l       .data	00000000 I_slti_cg_cmp_rd_rs1_b13_str
00002efc l       .text.rvtest	00000000 I_slti_cg_cmp_rd_rs1_b14
0000e74b l       .data	00000000 I_slti_cg_cmp_rd_rs1_b14_str
00002f20 l       .text.rvtest	00000000 I_slti_cg_cmp_rd_rs1_b15
0000e780 l       .data	00000000 I_slti_cg_cmp_rd_rs1_b15_str
00002f44 l       .text.rvtest	00000000 I_slti_cg_cmp_rd_rs1_b16
0000e7b5 l       .data	00000000 I_slti_cg_cmp_rd_rs1_b16_str
00002f68 l       .text.rvtest	00000000 I_slti_cg_cmp_rd_rs1_b17
0000e7ea l       .data	00000000 I_slti_cg_cmp_rd_rs1_b17_str
00002f8c l       .text.rvtest	00000000 I_slti_cg_cmp_rd_rs1_b18
0000e81f l       .data	00000000 I_slti_cg_cmp_rd_rs1_b18_str
00002fb4 l       .text.rvtest	00000000 I_slti_cg_cmp_rd_rs1_b19
0000e854 l       .data	00000000 I_slti_cg_cmp_rd_rs1_b19_str
00002fd8 l       .text.rvtest	00000000 I_slti_cg_cmp_rd_rs1_b20
0000e889 l       .data	00000000 I_slti_cg_cmp_rd_rs1_b20_str
00002ffc l       .text.rvtest	00000000 I_slti_cg_cmp_rd_rs1_b21
0000e8be l       .data	00000000 I_slti_cg_cmp_rd_rs1_b21_str
00003020 l       .text.rvtest	00000000 I_slti_cg_cmp_rd_rs1_b22
0000e8f3 l       .data	00000000 I_slti_cg_cmp_rd_rs1_b22_str
00003044 l       .text.rvtest	00000000 I_slti_cg_cmp_rd_rs1_b23
0000e928 l       .data	00000000 I_slti_cg_cmp_rd_rs1_b23_str
00003068 l       .text.rvtest	00000000 I_slti_cg_cmp_rd_rs1_b24
0000e95d l       .data	00000000 I_slti_cg_cmp_rd_rs1_b24_str
00003090 l       .text.rvtest	00000000 I_slti_cg_cmp_rd_rs1_b25
0000e992 l       .data	00000000 I_slti_cg_cmp_rd_rs1_b25_str
000030b4 l       .text.rvtest	00000000 I_slti_cg_cmp_rd_rs1_b26
0000e9c7 l       .data	00000000 I_slti_cg_cmp_rd_rs1_b26_str
000030d8 l       .text.rvtest	00000000 I_slti_cg_cmp_rd_rs1_b27
0000e9fc l       .data	00000000 I_slti_cg_cmp_rd_rs1_b27_str
000030fc l       .text.rvtest	00000000 I_slti_cg_cmp_rd_rs1_b28
0000ea31 l       .data	00000000 I_slti_cg_cmp_rd_rs1_b28_str
00003120 l       .text.rvtest	00000000 I_slti_cg_cmp_rd_rs1_b29
0000ea66 l       .data	00000000 I_slti_cg_cmp_rd_rs1_b29_str
00003144 l       .text.rvtest	00000000 I_slti_cg_cmp_rd_rs1_b30
0000ea9b l       .data	00000000 I_slti_cg_cmp_rd_rs1_b30_str
00003168 l       .text.rvtest	00000000 I_slti_cg_cmp_rd_rs1_b31
0000ead0 l       .data	00000000 I_slti_cg_cmp_rd_rs1_b31_str
0000318c l       .text.rvtest	00000000 I_slti_cg_cp_imm_edges_0x0
0000eb05 l       .data	00000000 I_slti_cg_cp_imm_edges_0x0_str
000031b0 l       .text.rvtest	00000000 I_slti_cg_cp_imm_edges_0x1
0000eb3c l       .data	00000000 I_slti_cg_cp_imm_edges_0x1_str
000031d4 l       .text.rvtest	00000000 I_slti_cg_cp_imm_edges_0x2
0000eb73 l       .data	00000000 I_slti_cg_cp_imm_edges_0x2_str
000031f8 l       .text.rvtest	00000000 I_slti_cg_cp_imm_edges_0x3
0000ebaa l       .data	00000000 I_slti_cg_cp_imm_edges_0x3_str
0000321c l       .text.rvtest	00000000 I_slti_cg_cp_imm_edges_0x4
0000ebe1 l       .data	00000000 I_slti_cg_cp_imm_edges_0x4_str
00003240 l       .text.rvtest	00000000 I_slti_cg_cp_imm_edges_0x8
0000ec18 l       .data	00000000 I_slti_cg_cp_imm_edges_0x8_str
00003264 l       .text.rvtest	00000000 I_slti_cg_cp_imm_edges_0x10
0000ec4f l       .data	00000000 I_slti_cg_cp_imm_edges_0x10_str
00003288 l       .text.rvtest	00000000 I_slti_cg_cp_imm_edges_0x20
0000ec87 l       .data	00000000 I_slti_cg_cp_imm_edges_0x20_str
000032ac l       .text.rvtest	00000000 I_slti_cg_cp_imm_edges_0x40
0000ecbf l       .data	00000000 I_slti_cg_cp_imm_edges_0x40_str
000032d0 l       .text.rvtest	00000000 I_slti_cg_cp_imm_edges_0x80
0000ecf7 l       .data	00000000 I_slti_cg_cp_imm_edges_0x80_str
000032f4 l       .text.rvtest	00000000 I_slti_cg_cp_imm_edges_0x100
0000ed2f l       .data	00000000 I_slti_cg_cp_imm_edges_0x100_str
00003318 l       .text.rvtest	00000000 I_slti_cg_cp_imm_edges_0x200
0000ed68 l       .data	00000000 I_slti_cg_cp_imm_edges_0x200_str
0000333c l       .text.rvtest	00000000 I_slti_cg_cp_imm_edges_0x3ff
0000eda1 l       .data	00000000 I_slti_cg_cp_imm_edges_0x3ff_str
00003360 l       .text.rvtest	00000000 I_slti_cg_cp_imm_edges_0x400
0000edda l       .data	00000000 I_slti_cg_cp_imm_edges_0x400_str
00003384 l       .text.rvtest	00000000 I_slti_cg_cp_imm_edges_0x703
0000ee13 l       .data	00000000 I_slti_cg_cp_imm_edges_0x703_str
000033a8 l       .text.rvtest	00000000 I_slti_cg_cp_imm_edges_0x7ff
0000ee4c l       .data	00000000 I_slti_cg_cp_imm_edges_0x7ff_str
000033cc l       .text.rvtest	00000000 I_slti_cg_cp_imm_edges_m0x800
0000ee85 l       .data	00000000 I_slti_cg_cp_imm_edges_m0x800_str
000033f0 l       .text.rvtest	00000000 I_slti_cg_cp_imm_edges_m0x7ff
0000eebf l       .data	00000000 I_slti_cg_cp_imm_edges_m0x7ff_str
00003414 l       .text.rvtest	00000000 I_slti_cg_cp_imm_edges_m0x2
0000eef9 l       .data	00000000 I_slti_cg_cp_imm_edges_m0x2_str
00003438 l       .text.rvtest	00000000 I_slti_cg_cp_imm_edges_m0x1
0000ef31 l       .data	00000000 I_slti_cg_cp_imm_edges_m0x1_str
00003458 l       .text.rvtest	00000000 exit_cleanup
0000f5d4 l       .data	00000000 successstr
00020204 l       .text.rvmodel	00000000 rvmodel_io_write_str
00020208 l       .text.rvmodel	00000000 rvmodel_halt_pass
00003490 l       .text.rvtest	00000000 abort_test
6f5ca309 l       *ABS*	00000000 immx
6f5ca309 l       *ABS*	00000000 absimm
00000000 l       *ABS*	00000000 cry
00000309 l       *ABS*	00000000 imm12
0000ef70 l       .data	00000000 begin_failure_scratch
00003560 l       .text.rvtest	00000000 failedtest_saveregs
00003504 l       .text.rvtest	00000000 failedtest_trap_x7_x9
0000f0e0 l       .data	00000000 saved_mcause
0000f0e8 l       .data	00000000 saved_mtval
0000f0f0 l       .data	00000000 saved_mstatus
000035d0 l       .text.rvtest	00000000 failedtest_saveresults
0000ef70 l       .data	00000000 failure_type
0000364c l       .text.rvtest	00000000 failedtest_saveresults_trap
000035e0 l       .text.rvtest	00000000 failedtest_saveresults_int
00003a20 l       .text.rvtest	00000000 failedtest_saveresults_common
0000f0c8 l       .data	00000000 trap_diag_fail_str_ptr
0000f79c l       .data	00000000 trap_sig_offset_mismatch
00003900 l       .text.rvtest	00000000 trap_diag_offset_mismatch
0000f0a0 l       .data	00000000 trap_diag_subtype
0000f800 l       .data	00000000 sv_Mvect_str
00003980 l       .text.rvtest	00000000 trap_diag_field_identified
0000f902 l       .data	00000000 sv_Mcause_str
0000f9fd l       .data	00000000 sv_Mepc_str
0000faf0 l       .data	00000000 sv_Mtval_str
0000fc63 l       .data	00000000 sv_Mip_str
0000fbe7 l       .data	00000000 sv_Mtval2_str
0000fc25 l       .data	00000000 sv_Mtinst_str
0000f840 l       .data	00000000 sv_Svect_str
0000f940 l       .data	00000000 sv_Scause_str
0000fa39 l       .data	00000000 sv_Sepc_str
0000fb2d l       .data	00000000 sv_Stval_str
0000fc9e l       .data	00000000 sv_Sip_str
0000f880 l       .data	00000000 sv_Hvect_str
0000f97e l       .data	00000000 sv_Hcause_str
0000fa75 l       .data	00000000 sv_Hepc_str
0000fb6a l       .data	00000000 sv_Htval_str
0000fcd9 l       .data	00000000 sv_Hip_str
0000f8c1 l       .data	00000000 sv_Vvect_str
0000f9bd l       .data	00000000 sv_Vcause_str
0000fab2 l       .data	00000000 sv_Vepc_str
0000fba8 l       .data	00000000 sv_Vtval_str
0000fd15 l       .data	00000000 sv_Vip_str
0000fd52 l       .data	00000000 Mclr_Mext_int_str
0000fda1 l       .data	00000000 Mclr_Sext_int_str
0000fe9c l       .data	00000000 Sclr_Sext_int_str
0000ff98 l       .data	00000000 Hclr_Sext_int_str
00003a10 l       .text.rvtest	00000000 trap_diag_generic_report
0000f0b8 l       .data	00000000 trap_diag_actual_offset
0000f0c0 l       .data	00000000 trap_diag_expected_offset
0000f0a4 l       .data	00000000 trap_diag_mode
0000f0a8 l       .data	00000000 trap_diag_actual_value
0000f0b0 l       .data	00000000 trap_diag_expected_value
00003a50 l       .text.rvtest	00000000 failedtest_report
00003a50 l       .text.rvtest	00000000 print_failstr
0000f60b l       .data	00000000 failstr
00003a88 l       .text.rvtest	00000000 print_testnamestr
0000f69f l       .data	00000000 testnamestr
00003ac8 l       .text.rvtest	00000000 print_failure_test_name_str
0000f090 l       .data	00000000 failure_string_ptr
00003ad8 l       .text.rvtest	00000000 print_newline_str
0000f6b1 l       .data	00000000 newlinestr
00003f0c l       .text.rvtest	00000000 failedtest_report_trap_detailed
0000f6b3 l       .data	00000000 inststr
0000f070 l       .data	00000000 failing_instruction
00004e58 l       .text.rvtest	00000000 failedtest_hex_to_str
0000f0f8 l       .data	00000000 ascii_buffer
0000f6c7 l       .data	00000000 addrstr
0000f078 l       .data	00000000 failing_addr
00010144 l       .data	00000000 regstr
00003cb8 l       .text.rvtest	00000000 failedtest_report_not_intreg
0000f074 l       .data	00000000 failing_reg
00004ed4 l       .text.rvtest	00000000 failedtest_dec_to_str
00003d94 l       .text.rvtest	00000000 failedtest_report_print_regstr
00003d0c l       .text.rvtest	00000000 failedtest_report_fpreg
00003d58 l       .text.rvtest	00000000 failedtest_report_vecreg
000101a4 l       .data	00000000 fflagsstr
00003dc8 l       .text.rvtest	00000000 failedtest_report_after_reg
00010155 l       .data	00000000 badvalstr
00003e2c l       .text.rvtest	00000000 failedtest_report_badval_not_fp
0000f080 l       .data	00000000 failing_value
00003e3c l       .text.rvtest	00000000 failedtest_report_badval_done
0001016c l       .data	00000000 expvalstr
00003ecc l       .text.rvtest	00000000 failedtest_report_expval_not_fp
0000f088 l       .data	00000000 expected_value
00003edc l       .text.rvtest	00000000 failedtest_report_expval_done
00004c04 l       .text.rvtest	00000000 failedtest_report_end
000101d0 l       .data	00000000 trap_diag_header_str
000101fc l       .data	00000000 trap_diag_origstr_label
00003fe0 l       .text.rvtest	00000000 trap_report_offset_mismatch
00004a90 l       .text.rvtest	00000000 trap_report_generic
00004354 l       .text.rvtest	00000000 trap_report_field_mismatch
0001020c l       .data	00000000 trap_diag_count_mismatch_str
0001026d l       .data	00000000 trap_diag_expected_offset_str
00010294 l       .data	00000000 trap_diag_actual_offset_str
00004234 l       .text.rvtest	00000000 trap_report_missing_traps
0000411c l       .text.rvtest	00000000 trap_report_extra_traps
000102bb l       .data	00000000 trap_diag_extra_traps_str
00010340 l       .data	00000000 trap_diag_extra_bytes_str
0001036b l       .data	00000000 trap_diag_extra_hint_str
00004c50 l       .text.rvtest	00000000 failedtest_print_csr_context
000102f5 l       .data	00000000 trap_diag_missing_traps_str
00010453 l       .data	00000000 trap_diag_missing_hint_str
0001053a l       .data	00000000 trap_diag_handler_mode_str
000043e4 l       .text.rvtest	00000000 trap_mode_m
00004424 l       .text.rvtest	00000000 trap_mode_s
00004464 l       .text.rvtest	00000000 trap_mode_h
000044a4 l       .text.rvtest	00000000 trap_mode_v
00010576 l       .data	00000000 trap_diag_mode_unknown_str
000044e0 l       .text.rvtest	00000000 trap_mode_print
00010554 l       .data	00000000 trap_diag_mode_m_str
0001055c l       .data	00000000 trap_diag_mode_s_str
00010564 l       .data	00000000 trap_diag_mode_hs_str
0001056d l       .data	00000000 trap_diag_mode_vs_str
0001057f l       .data	00000000 trap_diag_field_str
000045a4 l       .text.rvtest	00000000 trap_field_vect
000045e4 l       .text.rvtest	00000000 trap_field_cause
00004624 l       .text.rvtest	00000000 trap_field_epc
00004664 l       .text.rvtest	00000000 trap_field_tval
000046a4 l       .text.rvtest	00000000 trap_field_ip
000046e4 l       .text.rvtest	00000000 trap_field_tval2
00004724 l       .text.rvtest	00000000 trap_field_tinst
00004764 l       .text.rvtest	00000000 trap_field_intid
000106d6 l       .data	00000000 trap_diag_field_unknown_str
000047a0 l       .text.rvtest	00000000 trap_field_print
00010599 l       .data	00000000 trap_diag_field_vect_str
000105ca l       .data	00000000 trap_diag_field_cause_str
000105ea l       .data	00000000 trap_diag_field_epc_str
00010608 l       .data	00000000 trap_diag_field_tval_str
00010627 l       .data	00000000 trap_diag_field_ip_str
0001064f l       .data	00000000 trap_diag_field_tval2_str
0001067b l       .data	00000000 trap_diag_field_tinst_str
000106a7 l       .data	00000000 trap_diag_field_intid_str
000106e5 l       .data	00000000 trap_diag_expected_str
000106fc l       .data	00000000 trap_diag_actual_str
0000493c l       .text.rvtest	00000000 trap_field_not_cause
00010713 l       .data	00000000 trap_diag_expected_cause_name_str
00004b74 l       .text.rvtest	00000000 trap_cause_to_str
0001072a l       .data	00000000 trap_diag_actual_cause_name_str
0000493c l       .text.rvtest	00000000 trap_field_not_epc
000107a0 l       .data	00000000 trap_diag_hint_vect_str
00010876 l       .data	00000000 trap_diag_hint_cause_str
00010969 l       .data	00000000 trap_diag_hint_epc_str
00010a64 l       .data	00000000 trap_diag_hint_tval_str
00010b4b l       .data	00000000 trap_diag_hint_ip_str
00010758 l       .data	00000000 trap_diag_generic_str
0000f0d8 l       .data	00000000 saved_mepc
0000f73b l       .data	00000000 xepcinstrstr
00004b98 l       .text.rvtest	00000000 trap_cause_interrupt
00004b78 l       .text.rvtest	00000000 trap_cause_exception
00004bc4 l       .text.rvtest	00000000 trap_cause_unknown
0000f120 l       .data	00000000 trap_excpt_name_tbl
0000f180 l       .data	00000000 trap_int_name_tbl
0000f5be l       .data	00000000 trap_cause_unknown_str
00010183 l       .data	00000000 endstr
00004c48 l       .text.rvtest	00000000 failedtest_terminate
00020214 l       .text.rvmodel	00000000 rvmodel_halt_fail
0000f0d0 l       .data	00000000 csr_context_ret_addr
0000f75c l       .data	00000000 mepcstr
0000f76c l       .data	00000000 mcausestr
0000f77c l       .data	00000000 mtvalstr
0000f78c l       .data	00000000 mstatusstr
00004e98 l       .text.rvtest	00000000 failedtest_hex_to_str_loop
00004eb4 l       .text.rvtest	00000000 failedtest_hex_to_str_digit
00004eb8 l       .text.rvtest	00000000 failedtest_hex_to_str_write
00020000 l       .text.rvmodel	00000000 rvtest_boot_to_mmode
00020000 l       .text.rvmodel	00000000 rvtest_init_regs
00010c30 l       .data	00000000 signature_base
000201a0 l       .text.rvmodel	00000000 canary_check
000101ac l       .data	00000000 canary_mismatch
00008000 l       .data	00000000 scratch
0000f120 l       .data	00000000 end_failure_scratch
0000f1c0 l       .data	00000000 trap_excpt_name_0
0000f1e0 l       .data	00000000 trap_excpt_name_1
0000f1fa l       .data	00000000 trap_excpt_name_2
0000f20f l       .data	00000000 trap_excpt_name_3
0000f21b l       .data	00000000 trap_excpt_name_4
0000f234 l       .data	00000000 trap_excpt_name_5
0000f247 l       .data	00000000 trap_excpt_name_6
0000f265 l       .data	00000000 trap_excpt_name_7
0000f27d l       .data	00000000 trap_excpt_name_8
0000f29b l       .data	00000000 trap_excpt_name_9
0000f2b9 l       .data	00000000 trap_excpt_name_10
0000f2d8 l       .data	00000000 trap_excpt_name_11
0000f2f6 l       .data	00000000 trap_excpt_name_12
0000f30e l       .data	00000000 trap_excpt_name_13
0000f31f l       .data	00000000 trap_excpt_name_14
0000f32e l       .data	00000000 trap_excpt_name_15
0000f344 l       .data	00000000 trap_excpt_name_16
0000f351 l       .data	00000000 trap_excpt_name_17
0000f360 l       .data	00000000 trap_excpt_name_18
0000f370 l       .data	00000000 trap_excpt_name_19
0000f380 l       .data	00000000 trap_excpt_name_20
0000f39e l       .data	00000000 trap_excpt_name_21
0000f3b5 l       .data	00000000 trap_excpt_name_22
0000f3ca l       .data	00000000 trap_excpt_name_23
0000f3e6 l       .data	00000000 trap_int_name_0
0000f3fe l       .data	00000000 trap_int_name_1
0000f41d l       .data	00000000 trap_int_name_2
0000f444 l       .data	00000000 trap_int_name_3
0000f460 l       .data	00000000 trap_int_name_4
0000f478 l       .data	00000000 trap_int_name_5
0000f494 l       .data	00000000 trap_int_name_6
0000f4b8 l       .data	00000000 trap_int_name_7
0000f4d1 l       .data	00000000 trap_int_name_8
0000f4e9 l       .data	00000000 trap_int_name_9
0000f508 l       .data	00000000 trap_int_name_10
0000f52f l       .data	00000000 trap_int_name_11
0000f54b l       .data	00000000 trap_int_name_12
0000f570 l       .data	00000000 trap_int_name_13
0000f58c l       .data	00000000 trap_int_name_14
0000f5a5 l       .data	00000000 trap_int_name_15
0000f661 l       .data	00000000 abortstr
0000f708 l       .data	00000000 xepcstr
0000fdf3 l       .data	00000000 Mclr_Vext_int_str
0000fe4d l       .data	00000000 Sclr_Mext_int_str
0000feee l       .data	00000000 Sclr_Vext_int_str
0000ff48 l       .data	00000000 Hclr_Mext_int_str
0000ffeb l       .data	00000000 Hclr_Vext_int_str
00010046 l       .data	00000000 Vclr_Mext_int_str
00010096 l       .data	00000000 Vclr_Sext_int_str
000100e9 l       .data	00000000 Vclr_Vext_int_str
00010741 l       .data	00000000 trap_diag_curr_xepc_str
00011220 l       .data	00000000 trap_sigptr
0001fc90 g       .data	00000000 end_signature
0001fc90 g       .data	00000000 rvtest_sig_end
00000000 g       .text.init	00000000 rvtest_entry_point
00010c30 g       .data	00000000 begin_signature
00003458 g       .text.rvtest	00000000 rvtest_code_end
00000040 g       .text.rvtest	00000000 rvtest_code_begin
00010c30 g       .data	00000000 rvtest_sig_begin
00008110 g       .data	00000000 rvtest_data_begin
00010c30 g       .data	00000000 rvtest_data_end
00003458 g       .text.rvtest	00000000 cleanup_epilogs
00021000 g       .text.rvmodel	00000000 _end



Disassembly of section .text.init:

00000000 <rvtest_entry_point>:

// Include framework macros
#include "riscv_arch_test.h"

// Set up test environment and declare main entry point
RVTEST_BEGIN
   0:	00020097          	auipc	x1,0x20
   4:	00008093          	addi	x1,x1,0 # 20000 <rvmodel_boot>
   8:	00000013          	addi	x0,x0,0
   c:	00000013          	addi	x0,x0,0
  10:	00000013          	addi	x0,x0,0
  14:	00000013          	addi	x0,x0,0
  18:	00000013          	addi	x0,x0,0
  1c:	00000013          	addi	x0,x0,0
  20:	000080e7          	jalr	x1,0(x1)
  24:	00000013          	addi	x0,x0,0
  28:	00000013          	addi	x0,x0,0
  2c:	00000013          	addi	x0,x0,0
  30:	00000013          	addi	x0,x0,0
  34:	00000013          	addi	x0,x0,0
  38:	00000013          	addi	x0,x0,0
  3c:	00000013          	addi	x0,x0,0

Disassembly of section .text.rvtest:

00000040 <rvtest_code_begin>:
/////////////////////////////////
// cp_rs1
/////////////////////////////////

# Testcase cp_rs1 (Test source rs1 = x0)
  RVTEST_TESTDATA_LOAD_INT(x3, x0) # load rs1: x0 = 0xa8dbc361
      40:	0001a003          	lw	x0,0(x3)
      44:	00418193          	addi	x3,x3,4

00000048 <I_slti_cg_cp_rs1_b0>:
I_slti_cg_cp_rs1_b0:
  slti x19, x0, -265 # perform operation
      48:	ef702993          	slti	x19,x0,-265
  # Check if x19 contains the expected result. x2 is the signature ptr, x5 is the link ptr, x4 is a temp reg.
  RVTEST_SIGUPD(x2, x5, x4, x19, I_slti_cg_cp_rs1_b0, I_slti_cg_cp_rs1_b0_str)
      4c:	00012203          	lw	x4,0(x2)
      50:	01320863          	beq	x4,x19,60 <I_slti_cg_cp_rs1_b0+0x18>
      54:	448032ef          	jal	x5,349c <failedtest_x5_x4>
      58:	00000048          	.word	0x00000048
      5c:	000086d0          	.word	0x000086d0
      60:	00410113          	addi	x2,x2,4

# Testcase cp_rs1 (Test source rs1 = x1)
  RVTEST_TESTDATA_LOAD_INT(x3, x1) # load rs1: x1 = 0x038b0357
      64:	0001a083          	lw	x1,0(x3)
      68:	00418193          	addi	x3,x3,4

0000006c <I_slti_cg_cp_rs1_b1>:
I_slti_cg_cp_rs1_b1:
  slti x28, x1, 890 # perform operation
      6c:	37a0ae13          	slti	x28,x1,890
  # Check if x28 contains the expected result. x2 is the signature ptr, x5 is the link ptr, x4 is a temp reg.
  RVTEST_SIGUPD(x2, x5, x4, x28, I_slti_cg_cp_rs1_b1, I_slti_cg_cp_rs1_b1_str)
      70:	00012203          	lw	x4,0(x2)
      74:	01c20863          	beq	x4,x28,84 <I_slti_cg_cp_rs1_b1+0x18>
      78:	424032ef          	jal	x5,349c <failedtest_x5_x4>
      7c:	0000006c          	.word	0x0000006c
      80:	000086fe          	.word	0x000086fe
      84:	00410113          	addi	x2,x2,4

  mv x9, x2 # switch signature pointer register to avoid conflict with test
      88:	00010493          	addi	x9,x2,0
# Testcase cp_rs1 (Test source rs1 = x2)
  RVTEST_TESTDATA_LOAD_INT(x3, x2) # load rs1: x2 = 0xf92b4a2c
      8c:	0001a103          	lw	x2,0(x3)
      90:	00418193          	addi	x3,x3,4

00000094 <I_slti_cg_cp_rs1_b2>:
I_slti_cg_cp_rs1_b2:
  slti x16, x2, 237 # perform operation
      94:	0ed12813          	slti	x16,x2,237
  # Check if x16 contains the expected result. x9 is the signature ptr, x5 is the link ptr, x4 is a temp reg.
  RVTEST_SIGUPD(x9, x5, x4, x16, I_slti_cg_cp_rs1_b2, I_slti_cg_cp_rs1_b2_str)
      98:	0004a203          	lw	x4,0(x9)
      9c:	01020863          	beq	x4,x16,ac <I_slti_cg_cp_rs1_b2+0x18>
      a0:	3fc032ef          	jal	x5,349c <failedtest_x5_x4>
      a4:	00000094          	.word	0x00000094
      a8:	0000872c          	.word	0x0000872c
      ac:	00448493          	addi	x9,x9,4

  mv x17, x3 # switch data pointer register to avoid conflict with test
      b0:	00018893          	addi	x17,x3,0
# Testcase cp_rs1 (Test source rs1 = x3)
  RVTEST_TESTDATA_LOAD_INT(x17, x3) # load rs1: x3 = 0xd9015050
      b4:	0008a183          	lw	x3,0(x17)
      b8:	00488893          	addi	x17,x17,4

000000bc <I_slti_cg_cp_rs1_b3>:
I_slti_cg_cp_rs1_b3:
  slti x26, x3, -52 # perform operation
      bc:	fcc1ad13          	slti	x26,x3,-52
  # Check if x26 contains the expected result. x9 is the signature ptr, x5 is the link ptr, x4 is a temp reg.
  RVTEST_SIGUPD(x9, x5, x4, x26, I_slti_cg_cp_rs1_b3, I_slti_cg_cp_rs1_b3_str)
      c0:	0004a203          	lw	x4,0(x9)
      c4:	01a20863          	beq	x4,x26,d4 <I_slti_cg_cp_rs1_b3+0x18>
      c8:	3d4032ef          	jal	x5,349c <failedtest_x5_x4>
      cc:	000000bc          	.word	0x000000bc
      d0:	0000875a          	.word	0x0000875a
      d4:	00448493          	addi	x9,x9,4

  mv x13, x4 # switch temp register to avoid conflict with test
      d8:	00020693          	addi	x13,x4,0 # 0 <rvtest_entry_point>
  mv x14, x5 # switch link pointer register to avoid conflict with test
      dc:	00028713          	addi	x14,x5,0
# Testcase cp_rs1 (Test source rs1 = x4)
  RVTEST_TESTDATA_LOAD_INT(x17, x4) # load rs1: x4 = 0x30911112
      e0:	0008a203          	lw	x4,0(x17)
      e4:	00488893          	addi	x17,x17,4

000000e8 <I_slti_cg_cp_rs1_b4>:
I_slti_cg_cp_rs1_b4:
  slti x23, x4, -1181 # perform operation
      e8:	b6322b93          	slti	x23,x4,-1181
  # Check if x23 contains the expected result. x9 is the signature ptr, x14 is the link ptr, x13 is a temp reg.
  RVTEST_SIGUPD(x9, x14, x13, x23, I_slti_cg_cp_rs1_b4, I_slti_cg_cp_rs1_b4_str)
      ec:	0004a683          	lw	x13,0(x9)
      f0:	01768863          	beq	x13,x23,100 <I_slti_cg_cp_rs1_b4+0x18>
      f4:	3e80376f          	jal	x14,34dc <failedtest_x14_x13>
      f8:	000000e8          	.word	0x000000e8
      fc:	00008788          	.word	0x00008788
     100:	00448493          	addi	x9,x9,4

# Testcase cp_rs1 (Test source rs1 = x5)
  RVTEST_TESTDATA_LOAD_INT(x17, x5) # load rs1: x5 = 0x3686d027
     104:	0008a283          	lw	x5,0(x17)
     108:	00488893          	addi	x17,x17,4

0000010c <I_slti_cg_cp_rs1_b5>:
I_slti_cg_cp_rs1_b5:
  slti x24, x5, 816 # perform operation
     10c:	3302ac13          	slti	x24,x5,816
  # Check if x24 contains the expected result. x9 is the signature ptr, x14 is the link ptr, x13 is a temp reg.
  RVTEST_SIGUPD(x9, x14, x13, x24, I_slti_cg_cp_rs1_b5, I_slti_cg_cp_rs1_b5_str)
     110:	0004a683          	lw	x13,0(x9)
     114:	01868863          	beq	x13,x24,124 <I_slti_cg_cp_rs1_b5+0x18>
     118:	3c40376f          	jal	x14,34dc <failedtest_x14_x13>
     11c:	0000010c          	.word	0x0000010c
     120:	000087b6          	.word	0x000087b6
     124:	00448493          	addi	x9,x9,4

# Testcase cp_rs1 (Test source rs1 = x6)
  RVTEST_TESTDATA_LOAD_INT(x17, x6) # load rs1: x6 = 0x6db1bb0f
     128:	0008a303          	lw	x6,0(x17)
     12c:	00488893          	addi	x17,x17,4

00000130 <I_slti_cg_cp_rs1_b6>:
I_slti_cg_cp_rs1_b6:
  slti x30, x6, 1017 # perform operation
     130:	3f932f13          	slti	x30,x6,1017
  # Check if x30 contains the expected result. x9 is the signature ptr, x14 is the link ptr, x13 is a temp reg.
  RVTEST_SIGUPD(x9, x14, x13, x30, I_slti_cg_cp_rs1_b6, I_slti_cg_cp_rs1_b6_str)
     134:	0004a683          	lw	x13,0(x9)
     138:	01e68863          	beq	x13,x30,148 <I_slti_cg_cp_rs1_b6+0x18>
     13c:	3a00376f          	jal	x14,34dc <failedtest_x14_x13>
     140:	00000130          	.word	0x00000130
     144:	000087e4          	.word	0x000087e4
     148:	00448493          	addi	x9,x9,4

# Testcase cp_rs1 (Test source rs1 = x7)
  RVTEST_TESTDATA_LOAD_INT(x17, x7) # load rs1: x7 = 0xd9fbb93a
     14c:	0008a383          	lw	x7,0(x17)
     150:	00488893          	addi	x17,x17,4

00000154 <I_slti_cg_cp_rs1_b7>:
I_slti_cg_cp_rs1_b7:
  slti x30, x7, 1959 # perform operation
     154:	7a73af13          	slti	x30,x7,1959
  # Check if x30 contains the expected result. x9 is the signature ptr, x14 is the link ptr, x13 is a temp reg.
  RVTEST_SIGUPD(x9, x14, x13, x30, I_slti_cg_cp_rs1_b7, I_slti_cg_cp_rs1_b7_str)
     158:	0004a683          	lw	x13,0(x9)
     15c:	01e68863          	beq	x13,x30,16c <I_slti_cg_cp_rs1_b7+0x18>
     160:	37c0376f          	jal	x14,34dc <failedtest_x14_x13>
     164:	00000154          	.word	0x00000154
     168:	00008812          	.word	0x00008812
     16c:	00448493          	addi	x9,x9,4

# Testcase cp_rs1 (Test source rs1 = x8)
  RVTEST_TESTDATA_LOAD_INT(x17, x8) # load rs1: x8 = 0xfab95fa2
     170:	0008a403          	lw	x8,0(x17)
     174:	00488893          	addi	x17,x17,4

00000178 <I_slti_cg_cp_rs1_b8>:
I_slti_cg_cp_rs1_b8:
  slti x7, x8, 262 # perform operation
     178:	10642393          	slti	x7,x8,262
  # Check if x7 contains the expected result. x9 is the signature ptr, x14 is the link ptr, x13 is a temp reg.
  RVTEST_SIGUPD(x9, x14, x13, x7, I_slti_cg_cp_rs1_b8, I_slti_cg_cp_rs1_b8_str)
     17c:	0004a683          	lw	x13,0(x9)
     180:	00768863          	beq	x13,x7,190 <I_slti_cg_cp_rs1_b8+0x18>
     184:	3580376f          	jal	x14,34dc <failedtest_x14_x13>
     188:	00000178          	.word	0x00000178
     18c:	00008840          	.word	0x00008840
     190:	00448493          	addi	x9,x9,4

  mv x28, x9 # switch signature pointer register to avoid conflict with test
     194:	00048e13          	addi	x28,x9,0
# Testcase cp_rs1 (Test source rs1 = x9)
  RVTEST_TESTDATA_LOAD_INT(x17, x9) # load rs1: x9 = 0x6fe8874f
     198:	0008a483          	lw	x9,0(x17)
     19c:	00488893          	addi	x17,x17,4

000001a0 <I_slti_cg_cp_rs1_b9>:
I_slti_cg_cp_rs1_b9:
  slti x16, x9, -639 # perform operation
     1a0:	d814a813          	slti	x16,x9,-639
  # Check if x16 contains the expected result. x28 is the signature ptr, x14 is the link ptr, x13 is a temp reg.
  RVTEST_SIGUPD(x28, x14, x13, x16, I_slti_cg_cp_rs1_b9, I_slti_cg_cp_rs1_b9_str)
     1a4:	000e2683          	lw	x13,0(x28)
     1a8:	01068863          	beq	x13,x16,1b8 <I_slti_cg_cp_rs1_b9+0x18>
     1ac:	3300376f          	jal	x14,34dc <failedtest_x14_x13>
     1b0:	000001a0          	.word	0x000001a0
     1b4:	0000886e          	.word	0x0000886e
     1b8:	004e0e13          	addi	x28,x28,4

# Testcase cp_rs1 (Test source rs1 = x10)
  RVTEST_TESTDATA_LOAD_INT(x17, x10) # load rs1: x10 = 0xb010a3df
     1bc:	0008a503          	lw	x10,0(x17)
     1c0:	00488893          	addi	x17,x17,4

000001c4 <I_slti_cg_cp_rs1_b10>:
I_slti_cg_cp_rs1_b10:
  slti x25, x10, -1871 # perform operation
     1c4:	8b152c93          	slti	x25,x10,-1871
  # Check if x25 contains the expected result. x28 is the signature ptr, x14 is the link ptr, x13 is a temp reg.
  RVTEST_SIGUPD(x28, x14, x13, x25, I_slti_cg_cp_rs1_b10, I_slti_cg_cp_rs1_b10_str)
     1c8:	000e2683          	lw	x13,0(x28)
     1cc:	01968863          	beq	x13,x25,1dc <I_slti_cg_cp_rs1_b10+0x18>
     1d0:	30c0376f          	jal	x14,34dc <failedtest_x14_x13>
     1d4:	000001c4          	.word	0x000001c4
     1d8:	0000889d          	.word	0x0000889d
     1dc:	004e0e13          	addi	x28,x28,4

# Testcase cp_rs1 (Test source rs1 = x11)
  RVTEST_TESTDATA_LOAD_INT(x17, x11) # load rs1: x11 = 0x4aab7ff9
     1e0:	0008a583          	lw	x11,0(x17)
     1e4:	00488893          	addi	x17,x17,4

000001e8 <I_slti_cg_cp_rs1_b11>:
I_slti_cg_cp_rs1_b11:
  slti x12, x11, 7 # perform operation
     1e8:	0075a613          	slti	x12,x11,7
  # Check if x12 contains the expected result. x28 is the signature ptr, x14 is the link ptr, x13 is a temp reg.
  RVTEST_SIGUPD(x28, x14, x13, x12, I_slti_cg_cp_rs1_b11, I_slti_cg_cp_rs1_b11_str)
     1ec:	000e2683          	lw	x13,0(x28)
     1f0:	00c68863          	beq	x13,x12,200 <I_slti_cg_cp_rs1_b11+0x18>
     1f4:	2e80376f          	jal	x14,34dc <failedtest_x14_x13>
     1f8:	000001e8          	.word	0x000001e8
     1fc:	000088cd          	.word	0x000088cd
     200:	004e0e13          	addi	x28,x28,4

# Testcase cp_rs1 (Test source rs1 = x12)
  RVTEST_TESTDATA_LOAD_INT(x17, x12) # load rs1: x12 = 0x319272f4
     204:	0008a603          	lw	x12,0(x17)
     208:	00488893          	addi	x17,x17,4

0000020c <I_slti_cg_cp_rs1_b12>:
I_slti_cg_cp_rs1_b12:
  slti x21, x12, -897 # perform operation
     20c:	c7f62a93          	slti	x21,x12,-897
  # Check if x21 contains the expected result. x28 is the signature ptr, x14 is the link ptr, x13 is a temp reg.
  RVTEST_SIGUPD(x28, x14, x13, x21, I_slti_cg_cp_rs1_b12, I_slti_cg_cp_rs1_b12_str)
     210:	000e2683          	lw	x13,0(x28)
     214:	01568863          	beq	x13,x21,224 <I_slti_cg_cp_rs1_b12+0x18>
     218:	2c40376f          	jal	x14,34dc <failedtest_x14_x13>
     21c:	0000020c          	.word	0x0000020c
     220:	000088fd          	.word	0x000088fd
     224:	004e0e13          	addi	x28,x28,4

  mv x7, x13 # switch temp register to avoid conflict with test
     228:	00068393          	addi	x7,x13,0
  mv x8, x14 # switch link pointer register to avoid conflict with test
     22c:	00070413          	addi	x8,x14,0
# Testcase cp_rs1 (Test source rs1 = x13)
  RVTEST_TESTDATA_LOAD_INT(x17, x13) # load rs1: x13 = 0x41253505
     230:	0008a683          	lw	x13,0(x17)
     234:	00488893          	addi	x17,x17,4

00000238 <I_slti_cg_cp_rs1_b13>:
I_slti_cg_cp_rs1_b13:
  slti x4, x13, -902 # perform operation
     238:	c7a6a213          	slti	x4,x13,-902
  # Check if x4 contains the expected result. x28 is the signature ptr, x8 is the link ptr, x7 is a temp reg.
  RVTEST_SIGUPD(x28, x8, x7, x4, I_slti_cg_cp_rs1_b13, I_slti_cg_cp_rs1_b13_str)
     23c:	000e2383          	lw	x7,0(x28)
     240:	00438863          	beq	x7,x4,250 <I_slti_cg_cp_rs1_b13+0x18>
     244:	2700346f          	jal	x8,34b4 <failedtest_x8_x7>
     248:	00000238          	.word	0x00000238
     24c:	0000892d          	.word	0x0000892d
     250:	004e0e13          	addi	x28,x28,4

# Testcase cp_rs1 (Test source rs1 = x14)
  RVTEST_TESTDATA_LOAD_INT(x17, x14) # load rs1: x14 = 0x9b6fe231
     254:	0008a703          	lw	x14,0(x17)
     258:	00488893          	addi	x17,x17,4

0000025c <I_slti_cg_cp_rs1_b14>:
I_slti_cg_cp_rs1_b14:
  slti x12, x14, 1475 # perform operation
     25c:	5c372613          	slti	x12,x14,1475
  # Check if x12 contains the expected result. x28 is the signature ptr, x8 is the link ptr, x7 is a temp reg.
  RVTEST_SIGUPD(x28, x8, x7, x12, I_slti_cg_cp_rs1_b14, I_slti_cg_cp_rs1_b14_str)
     260:	000e2383          	lw	x7,0(x28)
     264:	00c38863          	beq	x7,x12,274 <I_slti_cg_cp_rs1_b14+0x18>
     268:	24c0346f          	jal	x8,34b4 <failedtest_x8_x7>
     26c:	0000025c          	.word	0x0000025c
     270:	0000895d          	.word	0x0000895d
     274:	004e0e13          	addi	x28,x28,4

# Testcase cp_rs1 (Test source rs1 = x15)
  RVTEST_TESTDATA_LOAD_INT(x17, x15) # load rs1: x15 = 0xd862b741
     278:	0008a783          	lw	x15,0(x17)
     27c:	00488893          	addi	x17,x17,4

00000280 <I_slti_cg_cp_rs1_b15>:
I_slti_cg_cp_rs1_b15:
  slti x27, x15, 55 # perform operation
     280:	0377ad93          	slti	x27,x15,55
  # Check if x27 contains the expected result. x28 is the signature ptr, x8 is the link ptr, x7 is a temp reg.
  RVTEST_SIGUPD(x28, x8, x7, x27, I_slti_cg_cp_rs1_b15, I_slti_cg_cp_rs1_b15_str)
     284:	000e2383          	lw	x7,0(x28)
     288:	01b38863          	beq	x7,x27,298 <I_slti_cg_cp_rs1_b15+0x18>
     28c:	2280346f          	jal	x8,34b4 <failedtest_x8_x7>
     290:	00000280          	.word	0x00000280
     294:	0000898d          	.word	0x0000898d
     298:	004e0e13          	addi	x28,x28,4

# Testcase cp_rs1 (Test source rs1 = x16)
  RVTEST_TESTDATA_LOAD_INT(x17, x16) # load rs1: x16 = 0x7624a431
     29c:	0008a803          	lw	x16,0(x17)
     2a0:	00488893          	addi	x17,x17,4

000002a4 <I_slti_cg_cp_rs1_b16>:
I_slti_cg_cp_rs1_b16:
  slti x25, x16, -1876 # perform operation
     2a4:	8ac82c93          	slti	x25,x16,-1876
  # Check if x25 contains the expected result. x28 is the signature ptr, x8 is the link ptr, x7 is a temp reg.
  RVTEST_SIGUPD(x28, x8, x7, x25, I_slti_cg_cp_rs1_b16, I_slti_cg_cp_rs1_b16_str)
     2a8:	000e2383          	lw	x7,0(x28)
     2ac:	01938863          	beq	x7,x25,2bc <I_slti_cg_cp_rs1_b16+0x18>
     2b0:	2040346f          	jal	x8,34b4 <failedtest_x8_x7>
     2b4:	000002a4          	.word	0x000002a4
     2b8:	000089bd          	.word	0x000089bd
     2bc:	004e0e13          	addi	x28,x28,4

  mv x11, x17 # switch data pointer register to avoid conflict with test
     2c0:	00088593          	addi	x11,x17,0
# Testcase cp_rs1 (Test source rs1 = x17)
  RVTEST_TESTDATA_LOAD_INT(x11, x17) # load rs1: x17 = 0x7c6adb9d
     2c4:	0005a883          	lw	x17,0(x11)
     2c8:	00458593          	addi	x11,x11,4

000002cc <I_slti_cg_cp_rs1_b17>:
I_slti_cg_cp_rs1_b17:
  slti x0, x17, 489 # perform operation
     2cc:	1e98a013          	slti	x0,x17,489
  # Check if x0 contains the expected result. x28 is the signature ptr, x8 is the link ptr, x7 is a temp reg.
  RVTEST_SIGUPD(x28, x8, x7, x0, I_slti_cg_cp_rs1_b17, I_slti_cg_cp_rs1_b17_str)
     2d0:	000e2383          	lw	x7,0(x28)
     2d4:	00038863          	beq	x7,x0,2e4 <I_slti_cg_cp_rs1_b17+0x18>
     2d8:	1dc0346f          	jal	x8,34b4 <failedtest_x8_x7>
     2dc:	000002cc          	.word	0x000002cc
     2e0:	000089ed          	.word	0x000089ed
     2e4:	004e0e13          	addi	x28,x28,4

# Testcase cp_rs1 (Test source rs1 = x18)
  RVTEST_TESTDATA_LOAD_INT(x11, x18) # load rs1: x18 = 0x7294974f
     2e8:	0005a903          	lw	x18,0(x11)
     2ec:	00458593          	addi	x11,x11,4

000002f0 <I_slti_cg_cp_rs1_b18>:
I_slti_cg_cp_rs1_b18:
  slti x22, x18, 663 # perform operation
     2f0:	29792b13          	slti	x22,x18,663
  # Check if x22 contains the expected result. x28 is the signature ptr, x8 is the link ptr, x7 is a temp reg.
  RVTEST_SIGUPD(x28, x8, x7, x22, I_slti_cg_cp_rs1_b18, I_slti_cg_cp_rs1_b18_str)
     2f4:	000e2383          	lw	x7,0(x28)
     2f8:	01638863          	beq	x7,x22,308 <I_slti_cg_cp_rs1_b18+0x18>
     2fc:	1b80346f          	jal	x8,34b4 <failedtest_x8_x7>
     300:	000002f0          	.word	0x000002f0
     304:	00008a1d          	.word	0x00008a1d
     308:	004e0e13          	addi	x28,x28,4

# Testcase cp_rs1 (Test source rs1 = x19)
  RVTEST_TESTDATA_LOAD_INT(x11, x19) # load rs1: x19 = 0xd09a1d63
     30c:	0005a983          	lw	x19,0(x11)
     310:	00458593          	addi	x11,x11,4

00000314 <I_slti_cg_cp_rs1_b19>:
I_slti_cg_cp_rs1_b19:
  slti x0, x19, 683 # perform operation
     314:	2ab9a013          	slti	x0,x19,683
  # Check if x0 contains the expected result. x28 is the signature ptr, x8 is the link ptr, x7 is a temp reg.
  RVTEST_SIGUPD(x28, x8, x7, x0, I_slti_cg_cp_rs1_b19, I_slti_cg_cp_rs1_b19_str)
     318:	000e2383          	lw	x7,0(x28)
     31c:	00038863          	beq	x7,x0,32c <I_slti_cg_cp_rs1_b19+0x18>
     320:	1940346f          	jal	x8,34b4 <failedtest_x8_x7>
     324:	00000314          	.word	0x00000314
     328:	00008a4d          	.word	0x00008a4d
     32c:	004e0e13          	addi	x28,x28,4

# Testcase cp_rs1 (Test source rs1 = x20)
  RVTEST_TESTDATA_LOAD_INT(x11, x20) # load rs1: x20 = 0x6cab6575
     330:	0005aa03          	lw	x20,0(x11)
     334:	00458593          	addi	x11,x11,4

00000338 <I_slti_cg_cp_rs1_b20>:
I_slti_cg_cp_rs1_b20:
  slti x10, x20, -633 # perform operation
     338:	d87a2513          	slti	x10,x20,-633
  # Check if x10 contains the expected result. x28 is the signature ptr, x8 is the link ptr, x7 is a temp reg.
  RVTEST_SIGUPD(x28, x8, x7, x10, I_slti_cg_cp_rs1_b20, I_slti_cg_cp_rs1_b20_str)
     33c:	000e2383          	lw	x7,0(x28)
     340:	00a38863          	beq	x7,x10,350 <I_slti_cg_cp_rs1_b20+0x18>
     344:	1700346f          	jal	x8,34b4 <failedtest_x8_x7>
     348:	00000338          	.word	0x00000338
     34c:	00008a7d          	.word	0x00008a7d
     350:	004e0e13          	addi	x28,x28,4

# Testcase cp_rs1 (Test source rs1 = x21)
  RVTEST_TESTDATA_LOAD_INT(x11, x21) # load rs1: x21 = 0x8fd2400b
     354:	0005aa83          	lw	x21,0(x11)
     358:	00458593          	addi	x11,x11,4

0000035c <I_slti_cg_cp_rs1_b21>:
I_slti_cg_cp_rs1_b21:
  slti x4, x21, 1203 # perform operation
     35c:	4b3aa213          	slti	x4,x21,1203
  # Check if x4 contains the expected result. x28 is the signature ptr, x8 is the link ptr, x7 is a temp reg.
  RVTEST_SIGUPD(x28, x8, x7, x4, I_slti_cg_cp_rs1_b21, I_slti_cg_cp_rs1_b21_str)
     360:	000e2383          	lw	x7,0(x28)
     364:	00438863          	beq	x7,x4,374 <I_slti_cg_cp_rs1_b21+0x18>
     368:	14c0346f          	jal	x8,34b4 <failedtest_x8_x7>
     36c:	0000035c          	.word	0x0000035c
     370:	00008aad          	.word	0x00008aad
     374:	004e0e13          	addi	x28,x28,4

# Testcase cp_rs1 (Test source rs1 = x22)
  RVTEST_TESTDATA_LOAD_INT(x11, x22) # load rs1: x22 = 0x6170ff2a
     378:	0005ab03          	lw	x22,0(x11)
     37c:	00458593          	addi	x11,x11,4

00000380 <I_slti_cg_cp_rs1_b22>:
I_slti_cg_cp_rs1_b22:
  slti x0, x22, -1559 # perform operation
     380:	9e9b2013          	slti	x0,x22,-1559
  # Check if x0 contains the expected result. x28 is the signature ptr, x8 is the link ptr, x7 is a temp reg.
  RVTEST_SIGUPD(x28, x8, x7, x0, I_slti_cg_cp_rs1_b22, I_slti_cg_cp_rs1_b22_str)
     384:	000e2383          	lw	x7,0(x28)
     388:	00038863          	beq	x7,x0,398 <I_slti_cg_cp_rs1_b22+0x18>
     38c:	1280346f          	jal	x8,34b4 <failedtest_x8_x7>
     390:	00000380          	.word	0x00000380
     394:	00008add          	.word	0x00008add
     398:	004e0e13          	addi	x28,x28,4

# Testcase cp_rs1 (Test source rs1 = x23)
  RVTEST_TESTDATA_LOAD_INT(x11, x23) # load rs1: x23 = 0xdf13dff4
     39c:	0005ab83          	lw	x23,0(x11)
     3a0:	00458593          	addi	x11,x11,4

000003a4 <I_slti_cg_cp_rs1_b23>:
I_slti_cg_cp_rs1_b23:
  slti x18, x23, -204 # perform operation
     3a4:	f34ba913          	slti	x18,x23,-204
  # Check if x18 contains the expected result. x28 is the signature ptr, x8 is the link ptr, x7 is a temp reg.
  RVTEST_SIGUPD(x28, x8, x7, x18, I_slti_cg_cp_rs1_b23, I_slti_cg_cp_rs1_b23_str)
     3a8:	000e2383          	lw	x7,0(x28)
     3ac:	01238863          	beq	x7,x18,3bc <I_slti_cg_cp_rs1_b23+0x18>
     3b0:	1040346f          	jal	x8,34b4 <failedtest_x8_x7>
     3b4:	000003a4          	.word	0x000003a4
     3b8:	00008b0d          	.word	0x00008b0d
     3bc:	004e0e13          	addi	x28,x28,4

# Testcase cp_rs1 (Test source rs1 = x24)
  RVTEST_TESTDATA_LOAD_INT(x11, x24) # load rs1: x24 = 0xaad6edbf
     3c0:	0005ac03          	lw	x24,0(x11)
     3c4:	00458593          	addi	x11,x11,4

000003c8 <I_slti_cg_cp_rs1_b24>:
I_slti_cg_cp_rs1_b24:
  slti x22, x24, 1922 # perform operation
     3c8:	782c2b13          	slti	x22,x24,1922
  # Check if x22 contains the expected result. x28 is the signature ptr, x8 is the link ptr, x7 is a temp reg.
  RVTEST_SIGUPD(x28, x8, x7, x22, I_slti_cg_cp_rs1_b24, I_slti_cg_cp_rs1_b24_str)
     3cc:	000e2383          	lw	x7,0(x28)
     3d0:	01638863          	beq	x7,x22,3e0 <I_slti_cg_cp_rs1_b24+0x18>
     3d4:	0e00346f          	jal	x8,34b4 <failedtest_x8_x7>
     3d8:	000003c8          	.word	0x000003c8
     3dc:	00008b3d          	.word	0x00008b3d
     3e0:	004e0e13          	addi	x28,x28,4

# Testcase cp_rs1 (Test source rs1 = x25)
  RVTEST_TESTDATA_LOAD_INT(x11, x25) # load rs1: x25 = 0xc16c1dee
     3e4:	0005ac83          	lw	x25,0(x11)
     3e8:	00458593          	addi	x11,x11,4

000003ec <I_slti_cg_cp_rs1_b25>:
I_slti_cg_cp_rs1_b25:
  slti x1, x25, 280 # perform operation
     3ec:	118ca093          	slti	x1,x25,280
  # Check if x1 contains the expected result. x28 is the signature ptr, x8 is the link ptr, x7 is a temp reg.
  RVTEST_SIGUPD(x28, x8, x7, x1, I_slti_cg_cp_rs1_b25, I_slti_cg_cp_rs1_b25_str)
     3f0:	000e2383          	lw	x7,0(x28)
     3f4:	00138863          	beq	x7,x1,404 <I_slti_cg_cp_rs1_b25+0x18>
     3f8:	0bc0346f          	jal	x8,34b4 <failedtest_x8_x7>
     3fc:	000003ec          	.word	0x000003ec
     400:	00008b6d          	.word	0x00008b6d
     404:	004e0e13          	addi	x28,x28,4

# Testcase cp_rs1 (Test source rs1 = x26)
  RVTEST_TESTDATA_LOAD_INT(x11, x26) # load rs1: x26 = 0x11a031d5
     408:	0005ad03          	lw	x26,0(x11)
     40c:	00458593          	addi	x11,x11,4

00000410 <I_slti_cg_cp_rs1_b26>:
I_slti_cg_cp_rs1_b26:
  slti x14, x26, 1696 # perform operation
     410:	6a0d2713          	slti	x14,x26,1696
  # Check if x14 contains the expected result. x28 is the signature ptr, x8 is the link ptr, x7 is a temp reg.
  RVTEST_SIGUPD(x28, x8, x7, x14, I_slti_cg_cp_rs1_b26, I_slti_cg_cp_rs1_b26_str)
     414:	000e2383          	lw	x7,0(x28)
     418:	00e38863          	beq	x7,x14,428 <I_slti_cg_cp_rs1_b26+0x18>
     41c:	0980346f          	jal	x8,34b4 <failedtest_x8_x7>
     420:	00000410          	.word	0x00000410
     424:	00008b9d          	.word	0x00008b9d
     428:	004e0e13          	addi	x28,x28,4

# Testcase cp_rs1 (Test source rs1 = x27)
  RVTEST_TESTDATA_LOAD_INT(x11, x27) # load rs1: x27 = 0x47aeafcb
     42c:	0005ad83          	lw	x27,0(x11)
     430:	00458593          	addi	x11,x11,4

00000434 <I_slti_cg_cp_rs1_b27>:
I_slti_cg_cp_rs1_b27:
  slti x3, x27, -864 # perform operation
     434:	ca0da193          	slti	x3,x27,-864
  # Check if x3 contains the expected result. x28 is the signature ptr, x8 is the link ptr, x7 is a temp reg.
  RVTEST_SIGUPD(x28, x8, x7, x3, I_slti_cg_cp_rs1_b27, I_slti_cg_cp_rs1_b27_str)
     438:	000e2383          	lw	x7,0(x28)
     43c:	00338863          	beq	x7,x3,44c <I_slti_cg_cp_rs1_b27+0x18>
     440:	0740346f          	jal	x8,34b4 <failedtest_x8_x7>
     444:	00000434          	.word	0x00000434
     448:	00008bcd          	.word	0x00008bcd
     44c:	004e0e13          	addi	x28,x28,4

  mv x9, x28 # switch signature pointer register to avoid conflict with test
     450:	000e0493          	addi	x9,x28,0
# Testcase cp_rs1 (Test source rs1 = x28)
  RVTEST_TESTDATA_LOAD_INT(x11, x28) # load rs1: x28 = 0x3fedbfec
     454:	0005ae03          	lw	x28,0(x11)
     458:	00458593          	addi	x11,x11,4

0000045c <I_slti_cg_cp_rs1_b28>:
I_slti_cg_cp_rs1_b28:
  slti x17, x28, 383 # perform operation
     45c:	17fe2893          	slti	x17,x28,383
  # Check if x17 contains the expected result. x9 is the signature ptr, x8 is the link ptr, x7 is a temp reg.
  RVTEST_SIGUPD(x9, x8, x7, x17, I_slti_cg_cp_rs1_b28, I_slti_cg_cp_rs1_b28_str)
     460:	0004a383          	lw	x7,0(x9)
     464:	01138863          	beq	x7,x17,474 <I_slti_cg_cp_rs1_b28+0x18>
     468:	04c0346f          	jal	x8,34b4 <failedtest_x8_x7>
     46c:	0000045c          	.word	0x0000045c
     470:	00008bfd          	.word	0x00008bfd
     474:	00448493          	addi	x9,x9,4

# Testcase cp_rs1 (Test source rs1 = x29)
  RVTEST_TESTDATA_LOAD_INT(x11, x29) # load rs1: x29 = 0xf051ebc5
     478:	0005ae83          	lw	x29,0(x11)
     47c:	00458593          	addi	x11,x11,4

00000480 <I_slti_cg_cp_rs1_b29>:
I_slti_cg_cp_rs1_b29:
  slti x25, x29, 125 # perform operation
     480:	07deac93          	slti	x25,x29,125
  # Check if x25 contains the expected result. x9 is the signature ptr, x8 is the link ptr, x7 is a temp reg.
  RVTEST_SIGUPD(x9, x8, x7, x25, I_slti_cg_cp_rs1_b29, I_slti_cg_cp_rs1_b29_str)
     484:	0004a383          	lw	x7,0(x9)
     488:	01938863          	beq	x7,x25,498 <I_slti_cg_cp_rs1_b29+0x18>
     48c:	0280346f          	jal	x8,34b4 <failedtest_x8_x7>
     490:	00000480          	.word	0x00000480
     494:	00008c2d          	.word	0x00008c2d
     498:	00448493          	addi	x9,x9,4

# Testcase cp_rs1 (Test source rs1 = x30)
  RVTEST_TESTDATA_LOAD_INT(x11, x30) # load rs1: x30 = 0x959ed826
     49c:	0005af03          	lw	x30,0(x11)
     4a0:	00458593          	addi	x11,x11,4

000004a4 <I_slti_cg_cp_rs1_b30>:
I_slti_cg_cp_rs1_b30:
  slti x5, x30, -785 # perform operation
     4a4:	ceff2293          	slti	x5,x30,-785
  # Check if x5 contains the expected result. x9 is the signature ptr, x8 is the link ptr, x7 is a temp reg.
  RVTEST_SIGUPD(x9, x8, x7, x5, I_slti_cg_cp_rs1_b30, I_slti_cg_cp_rs1_b30_str)
     4a8:	0004a383          	lw	x7,0(x9)
     4ac:	00538863          	beq	x7,x5,4bc <I_slti_cg_cp_rs1_b30+0x18>
     4b0:	0040346f          	jal	x8,34b4 <failedtest_x8_x7>
     4b4:	000004a4          	.word	0x000004a4
     4b8:	00008c5d          	.word	0x00008c5d
     4bc:	00448493          	addi	x9,x9,4

# Testcase cp_rs1 (Test source rs1 = x31)
  RVTEST_TESTDATA_LOAD_INT(x11, x31) # load rs1: x31 = 0x897533c6
     4c0:	0005af83          	lw	x31,0(x11)
     4c4:	00458593          	addi	x11,x11,4

000004c8 <I_slti_cg_cp_rs1_b31>:
I_slti_cg_cp_rs1_b31:
  slti x29, x31, 783 # perform operation
     4c8:	30ffae93          	slti	x29,x31,783
  # Check if x29 contains the expected result. x9 is the signature ptr, x8 is the link ptr, x7 is a temp reg.
  RVTEST_SIGUPD(x9, x8, x7, x29, I_slti_cg_cp_rs1_b31, I_slti_cg_cp_rs1_b31_str)
     4cc:	0004a383          	lw	x7,0(x9)
     4d0:	01d38863          	beq	x7,x29,4e0 <I_slti_cg_cp_rs1_b31+0x18>
     4d4:	7e10246f          	jal	x8,34b4 <failedtest_x8_x7>
     4d8:	000004c8          	.word	0x000004c8
     4dc:	00008c8d          	.word	0x00008c8d
     4e0:	00448493          	addi	x9,x9,4
/////////////////////////////////
// cp_rd
/////////////////////////////////

# Testcase cp_rd (Test destination rd = x0)
  RVTEST_TESTDATA_LOAD_INT(x11, x26) # load rs1: x26 = 0x1bc590d7
     4e4:	0005ad03          	lw	x26,0(x11)
     4e8:	00458593          	addi	x11,x11,4

000004ec <I_slti_cg_cp_rd_b0>:
I_slti_cg_cp_rd_b0:
  slti x0, x26, 1273 # perform operation
     4ec:	4f9d2013          	slti	x0,x26,1273
  # Check if x0 contains the expected result. x9 is the signature ptr, x8 is the link ptr, x7 is a temp reg.
  RVTEST_SIGUPD(x9, x8, x7, x0, I_slti_cg_cp_rd_b0, I_slti_cg_cp_rd_b0_str)
     4f0:	0004a383          	lw	x7,0(x9)
     4f4:	00038863          	beq	x7,x0,504 <I_slti_cg_cp_rd_b0+0x18>
     4f8:	7bd0246f          	jal	x8,34b4 <failedtest_x8_x7>
     4fc:	000004ec          	.word	0x000004ec
     500:	00008cbd          	.word	0x00008cbd
     504:	00448493          	addi	x9,x9,4

# Testcase cp_rd (Test destination rd = x1)
  RVTEST_TESTDATA_LOAD_INT(x11, x21) # load rs1: x21 = 0x99770380
     508:	0005aa83          	lw	x21,0(x11)
     50c:	00458593          	addi	x11,x11,4

00000510 <I_slti_cg_cp_rd_b1>:
I_slti_cg_cp_rd_b1:
  slti x1, x21, 885 # perform operation
     510:	375aa093          	slti	x1,x21,885
  # Check if x1 contains the expected result. x9 is the signature ptr, x8 is the link ptr, x7 is a temp reg.
  RVTEST_SIGUPD(x9, x8, x7, x1, I_slti_cg_cp_rd_b1, I_slti_cg_cp_rd_b1_str)
     514:	0004a383          	lw	x7,0(x9)
     518:	00138863          	beq	x7,x1,528 <I_slti_cg_cp_rd_b1+0x18>
     51c:	7990246f          	jal	x8,34b4 <failedtest_x8_x7>
     520:	00000510          	.word	0x00000510
     524:	00008ceb          	.word	0x00008ceb
     528:	00448493          	addi	x9,x9,4

# Testcase cp_rd (Test destination rd = x2)
  RVTEST_TESTDATA_LOAD_INT(x11, x16) # load rs1: x16 = 0xb72b5a2b
     52c:	0005a803          	lw	x16,0(x11)
     530:	00458593          	addi	x11,x11,4

00000534 <I_slti_cg_cp_rd_b2>:
I_slti_cg_cp_rd_b2:
  slti x2, x16, 1499 # perform operation
     534:	5db82113          	slti	x2,x16,1499
  # Check if x2 contains the expected result. x9 is the signature ptr, x8 is the link ptr, x7 is a temp reg.
  RVTEST_SIGUPD(x9, x8, x7, x2, I_slti_cg_cp_rd_b2, I_slti_cg_cp_rd_b2_str)
     538:	0004a383          	lw	x7,0(x9)
     53c:	00238863          	beq	x7,x2,54c <I_slti_cg_cp_rd_b2+0x18>
     540:	7750246f          	jal	x8,34b4 <failedtest_x8_x7>
     544:	00000534          	.word	0x00000534
     548:	00008d19          	.word	0x00008d19
     54c:	00448493          	addi	x9,x9,4

# Testcase cp_rd (Test destination rd = x3)
  RVTEST_TESTDATA_LOAD_INT(x11, x22) # load rs1: x22 = 0x0ada218f
     550:	0005ab03          	lw	x22,0(x11)
     554:	00458593          	addi	x11,x11,4

00000558 <I_slti_cg_cp_rd_b3>:
I_slti_cg_cp_rd_b3:
  slti x3, x22, 395 # perform operation
     558:	18bb2193          	slti	x3,x22,395
  # Check if x3 contains the expected result. x9 is the signature ptr, x8 is the link ptr, x7 is a temp reg.
  RVTEST_SIGUPD(x9, x8, x7, x3, I_slti_cg_cp_rd_b3, I_slti_cg_cp_rd_b3_str)
     55c:	0004a383          	lw	x7,0(x9)
     560:	00338863          	beq	x7,x3,570 <I_slti_cg_cp_rd_b3+0x18>
     564:	7510246f          	jal	x8,34b4 <failedtest_x8_x7>
     568:	00000558          	.word	0x00000558
     56c:	00008d47          	.word	0x00008d47
     570:	00448493          	addi	x9,x9,4

# Testcase cp_rd (Test destination rd = x4)
  RVTEST_TESTDATA_LOAD_INT(x11, x28) # load rs1: x28 = 0x798988f6
     574:	0005ae03          	lw	x28,0(x11)
     578:	00458593          	addi	x11,x11,4

0000057c <I_slti_cg_cp_rd_b4>:
I_slti_cg_cp_rd_b4:
  slti x4, x28, 2009 # perform operation
     57c:	7d9e2213          	slti	x4,x28,2009
  # Check if x4 contains the expected result. x9 is the signature ptr, x8 is the link ptr, x7 is a temp reg.
  RVTEST_SIGUPD(x9, x8, x7, x4, I_slti_cg_cp_rd_b4, I_slti_cg_cp_rd_b4_str)
     580:	0004a383          	lw	x7,0(x9)
     584:	00438863          	beq	x7,x4,594 <I_slti_cg_cp_rd_b4+0x18>
     588:	72d0246f          	jal	x8,34b4 <failedtest_x8_x7>
     58c:	0000057c          	.word	0x0000057c
     590:	00008d75          	.word	0x00008d75
     594:	00448493          	addi	x9,x9,4

# Testcase cp_rd (Test destination rd = x5)
  RVTEST_TESTDATA_LOAD_INT(x11, x1) # load rs1: x1 = 0xd2ef1979
     598:	0005a083          	lw	x1,0(x11)
     59c:	00458593          	addi	x11,x11,4

000005a0 <I_slti_cg_cp_rd_b5>:
I_slti_cg_cp_rd_b5:
  slti x5, x1, 1769 # perform operation
     5a0:	6e90a293          	slti	x5,x1,1769
  # Check if x5 contains the expected result. x9 is the signature ptr, x8 is the link ptr, x7 is a temp reg.
  RVTEST_SIGUPD(x9, x8, x7, x5, I_slti_cg_cp_rd_b5, I_slti_cg_cp_rd_b5_str)
     5a4:	0004a383          	lw	x7,0(x9)
     5a8:	00538863          	beq	x7,x5,5b8 <I_slti_cg_cp_rd_b5+0x18>
     5ac:	7090246f          	jal	x8,34b4 <failedtest_x8_x7>
     5b0:	000005a0          	.word	0x000005a0
     5b4:	00008da3          	.word	0x00008da3
     5b8:	00448493          	addi	x9,x9,4

# Testcase cp_rd (Test destination rd = x6)
  RVTEST_TESTDATA_LOAD_INT(x11, x31) # load rs1: x31 = 0x7df4f9c8
     5bc:	0005af83          	lw	x31,0(x11)
     5c0:	00458593          	addi	x11,x11,4

000005c4 <I_slti_cg_cp_rd_b6>:
I_slti_cg_cp_rd_b6:
  slti x6, x31, -933 # perform operation
     5c4:	c5bfa313          	slti	x6,x31,-933
  # Check if x6 contains the expected result. x9 is the signature ptr, x8 is the link ptr, x7 is a temp reg.
  RVTEST_SIGUPD(x9, x8, x7, x6, I_slti_cg_cp_rd_b6, I_slti_cg_cp_rd_b6_str)
     5c8:	0004a383          	lw	x7,0(x9)
     5cc:	00638863          	beq	x7,x6,5dc <I_slti_cg_cp_rd_b6+0x18>
     5d0:	6e50246f          	jal	x8,34b4 <failedtest_x8_x7>
     5d4:	000005c4          	.word	0x000005c4
     5d8:	00008dd1          	.word	0x00008dd1
     5dc:	00448493          	addi	x9,x9,4

  mv x13, x7 # switch temp register to avoid conflict with test
     5e0:	00038693          	addi	x13,x7,0
  mv x14, x8 # switch link pointer register to avoid conflict with test
     5e4:	00040713          	addi	x14,x8,0
# Testcase cp_rd (Test destination rd = x7)
  RVTEST_TESTDATA_LOAD_INT(x11, x22) # load rs1: x22 = 0x11274b95
     5e8:	0005ab03          	lw	x22,0(x11)
     5ec:	00458593          	addi	x11,x11,4

000005f0 <I_slti_cg_cp_rd_b7>:
I_slti_cg_cp_rd_b7:
  slti x7, x22, 1532 # perform operation
     5f0:	5fcb2393          	slti	x7,x22,1532
  # Check if x7 contains the expected result. x9 is the signature ptr, x14 is the link ptr, x13 is a temp reg.
  RVTEST_SIGUPD(x9, x14, x13, x7, I_slti_cg_cp_rd_b7, I_slti_cg_cp_rd_b7_str)
     5f4:	0004a683          	lw	x13,0(x9)
     5f8:	00768863          	beq	x13,x7,608 <I_slti_cg_cp_rd_b7+0x18>
     5fc:	6e10276f          	jal	x14,34dc <failedtest_x14_x13>
     600:	000005f0          	.word	0x000005f0
     604:	00008dff          	.word	0x00008dff
     608:	00448493          	addi	x9,x9,4

# Testcase cp_rd (Test destination rd = x8)
  RVTEST_TESTDATA_LOAD_INT(x11, x6) # load rs1: x6 = 0xc6c3947b
     60c:	0005a303          	lw	x6,0(x11)
     610:	00458593          	addi	x11,x11,4

00000614 <I_slti_cg_cp_rd_b8>:
I_slti_cg_cp_rd_b8:
  slti x8, x6, -1066 # perform operation
     614:	bd632413          	slti	x8,x6,-1066
  # Check if x8 contains the expected result. x9 is the signature ptr, x14 is the link ptr, x13 is a temp reg.
  RVTEST_SIGUPD(x9, x14, x13, x8, I_slti_cg_cp_rd_b8, I_slti_cg_cp_rd_b8_str)
     618:	0004a683          	lw	x13,0(x9)
     61c:	00868863          	beq	x13,x8,62c <I_slti_cg_cp_rd_b8+0x18>
     620:	6bd0276f          	jal	x14,34dc <failedtest_x14_x13>
     624:	00000614          	.word	0x00000614
     628:	00008e2d          	.word	0x00008e2d
     62c:	00448493          	addi	x9,x9,4

  mv x27, x9 # switch signature pointer register to avoid conflict with test
     630:	00048d93          	addi	x27,x9,0
# Testcase cp_rd (Test destination rd = x9)
  RVTEST_TESTDATA_LOAD_INT(x11, x15) # load rs1: x15 = 0x834a79a1
     634:	0005a783          	lw	x15,0(x11)
     638:	00458593          	addi	x11,x11,4

0000063c <I_slti_cg_cp_rd_b9>:
I_slti_cg_cp_rd_b9:
  slti x9, x15, 593 # perform operation
     63c:	2517a493          	slti	x9,x15,593
  # Check if x9 contains the expected result. x27 is the signature ptr, x14 is the link ptr, x13 is a temp reg.
  RVTEST_SIGUPD(x27, x14, x13, x9, I_slti_cg_cp_rd_b9, I_slti_cg_cp_rd_b9_str)
     640:	000da683          	lw	x13,0(x27)
     644:	00968863          	beq	x13,x9,654 <I_slti_cg_cp_rd_b9+0x18>
     648:	6950276f          	jal	x14,34dc <failedtest_x14_x13>
     64c:	0000063c          	.word	0x0000063c
     650:	00008e5b          	.word	0x00008e5b
     654:	004d8d93          	addi	x27,x27,4

# Testcase cp_rd (Test destination rd = x10)
  RVTEST_TESTDATA_LOAD_INT(x11, x28) # load rs1: x28 = 0x22b494ed
     658:	0005ae03          	lw	x28,0(x11)
     65c:	00458593          	addi	x11,x11,4

00000660 <I_slti_cg_cp_rd_b10>:
I_slti_cg_cp_rd_b10:
  slti x10, x28, 474 # perform operation
     660:	1dae2513          	slti	x10,x28,474
  # Check if x10 contains the expected result. x27 is the signature ptr, x14 is the link ptr, x13 is a temp reg.
  RVTEST_SIGUPD(x27, x14, x13, x10, I_slti_cg_cp_rd_b10, I_slti_cg_cp_rd_b10_str)
     664:	000da683          	lw	x13,0(x27)
     668:	00a68863          	beq	x13,x10,678 <I_slti_cg_cp_rd_b10+0x18>
     66c:	6710276f          	jal	x14,34dc <failedtest_x14_x13>
     670:	00000660          	.word	0x00000660
     674:	00008e89          	.word	0x00008e89
     678:	004d8d93          	addi	x27,x27,4

  mv x6, x11 # switch data pointer register to avoid conflict with test
     67c:	00058313          	addi	x6,x11,0
# Testcase cp_rd (Test destination rd = x11)
  RVTEST_TESTDATA_LOAD_INT(x6, x31) # load rs1: x31 = 0xed52f683
     680:	00032f83          	lw	x31,0(x6)
     684:	00430313          	addi	x6,x6,4

00000688 <I_slti_cg_cp_rd_b11>:
I_slti_cg_cp_rd_b11:
  slti x11, x31, -212 # perform operation
     688:	f2cfa593          	slti	x11,x31,-212
  # Check if x11 contains the expected result. x27 is the signature ptr, x14 is the link ptr, x13 is a temp reg.
  RVTEST_SIGUPD(x27, x14, x13, x11, I_slti_cg_cp_rd_b11, I_slti_cg_cp_rd_b11_str)
     68c:	000da683          	lw	x13,0(x27)
     690:	00b68863          	beq	x13,x11,6a0 <I_slti_cg_cp_rd_b11+0x18>
     694:	6490276f          	jal	x14,34dc <failedtest_x14_x13>
     698:	00000688          	.word	0x00000688
     69c:	00008eb8          	.word	0x00008eb8
     6a0:	004d8d93          	addi	x27,x27,4

# Testcase cp_rd (Test destination rd = x12)
  RVTEST_TESTDATA_LOAD_INT(x6, x28) # load rs1: x28 = 0x8c2f6b71
     6a4:	00032e03          	lw	x28,0(x6)
     6a8:	00430313          	addi	x6,x6,4

000006ac <I_slti_cg_cp_rd_b12>:
I_slti_cg_cp_rd_b12:
  slti x12, x28, 967 # perform operation
     6ac:	3c7e2613          	slti	x12,x28,967
  # Check if x12 contains the expected result. x27 is the signature ptr, x14 is the link ptr, x13 is a temp reg.
  RVTEST_SIGUPD(x27, x14, x13, x12, I_slti_cg_cp_rd_b12, I_slti_cg_cp_rd_b12_str)
     6b0:	000da683          	lw	x13,0(x27)
     6b4:	00c68863          	beq	x13,x12,6c4 <I_slti_cg_cp_rd_b12+0x18>
     6b8:	6250276f          	jal	x14,34dc <failedtest_x14_x13>
     6bc:	000006ac          	.word	0x000006ac
     6c0:	00008ee7          	.word	0x00008ee7
     6c4:	004d8d93          	addi	x27,x27,4

  mv x7, x13 # switch temp register to avoid conflict with test
     6c8:	00068393          	addi	x7,x13,0
  mv x8, x14 # switch link pointer register to avoid conflict with test
     6cc:	00070413          	addi	x8,x14,0
# Testcase cp_rd (Test destination rd = x13)
  RVTEST_TESTDATA_LOAD_INT(x6, x3) # load rs1: x3 = 0xb449a808
     6d0:	00032183          	lw	x3,0(x6)
     6d4:	00430313          	addi	x6,x6,4

000006d8 <I_slti_cg_cp_rd_b13>:
I_slti_cg_cp_rd_b13:
  slti x13, x3, 126 # perform operation
     6d8:	07e1a693          	slti	x13,x3,126
  # Check if x13 contains the expected result. x27 is the signature ptr, x8 is the link ptr, x7 is a temp reg.
  RVTEST_SIGUPD(x27, x8, x7, x13, I_slti_cg_cp_rd_b13, I_slti_cg_cp_rd_b13_str)
     6dc:	000da383          	lw	x7,0(x27)
     6e0:	00d38863          	beq	x7,x13,6f0 <I_slti_cg_cp_rd_b13+0x18>
     6e4:	5d10246f          	jal	x8,34b4 <failedtest_x8_x7>
     6e8:	000006d8          	.word	0x000006d8
     6ec:	00008f16          	.word	0x00008f16
     6f0:	004d8d93          	addi	x27,x27,4

# Testcase cp_rd (Test destination rd = x14)
  RVTEST_TESTDATA_LOAD_INT(x6, x30) # load rs1: x30 = 0x0060c0a1
     6f4:	00032f03          	lw	x30,0(x6)
     6f8:	00430313          	addi	x6,x6,4

000006fc <I_slti_cg_cp_rd_b14>:
I_slti_cg_cp_rd_b14:
  slti x14, x30, 1737 # perform operation
     6fc:	6c9f2713          	slti	x14,x30,1737
  # Check if x14 contains the expected result. x27 is the signature ptr, x8 is the link ptr, x7 is a temp reg.
  RVTEST_SIGUPD(x27, x8, x7, x14, I_slti_cg_cp_rd_b14, I_slti_cg_cp_rd_b14_str)
     700:	000da383          	lw	x7,0(x27)
     704:	00e38863          	beq	x7,x14,714 <I_slti_cg_cp_rd_b14+0x18>
     708:	5ad0246f          	jal	x8,34b4 <failedtest_x8_x7>
     70c:	000006fc          	.word	0x000006fc
     710:	00008f45          	.word	0x00008f45
     714:	004d8d93          	addi	x27,x27,4

# Testcase cp_rd (Test destination rd = x15)
  RVTEST_TESTDATA_LOAD_INT(x6, x11) # load rs1: x11 = 0x82be3b59
     718:	00032583          	lw	x11,0(x6)
     71c:	00430313          	addi	x6,x6,4

00000720 <I_slti_cg_cp_rd_b15>:
I_slti_cg_cp_rd_b15:
  slti x15, x11, -102 # perform operation
     720:	f9a5a793          	slti	x15,x11,-102
  # Check if x15 contains the expected result. x27 is the signature ptr, x8 is the link ptr, x7 is a temp reg.
  RVTEST_SIGUPD(x27, x8, x7, x15, I_slti_cg_cp_rd_b15, I_slti_cg_cp_rd_b15_str)
     724:	000da383          	lw	x7,0(x27)
     728:	00f38863          	beq	x7,x15,738 <I_slti_cg_cp_rd_b15+0x18>
     72c:	5890246f          	jal	x8,34b4 <failedtest_x8_x7>
     730:	00000720          	.word	0x00000720
     734:	00008f74          	.word	0x00008f74
     738:	004d8d93          	addi	x27,x27,4

# Testcase cp_rd (Test destination rd = x16)
  RVTEST_TESTDATA_LOAD_INT(x6, x28) # load rs1: x28 = 0x2a3a44e7
     73c:	00032e03          	lw	x28,0(x6)
     740:	00430313          	addi	x6,x6,4

00000744 <I_slti_cg_cp_rd_b16>:
I_slti_cg_cp_rd_b16:
  slti x16, x28, 540 # perform operation
     744:	21ce2813          	slti	x16,x28,540
  # Check if x16 contains the expected result. x27 is the signature ptr, x8 is the link ptr, x7 is a temp reg.
  RVTEST_SIGUPD(x27, x8, x7, x16, I_slti_cg_cp_rd_b16, I_slti_cg_cp_rd_b16_str)
     748:	000da383          	lw	x7,0(x27)
     74c:	01038863          	beq	x7,x16,75c <I_slti_cg_cp_rd_b16+0x18>
     750:	5650246f          	jal	x8,34b4 <failedtest_x8_x7>
     754:	00000744          	.word	0x00000744
     758:	00008fa3          	.word	0x00008fa3
     75c:	004d8d93          	addi	x27,x27,4

# Testcase cp_rd (Test destination rd = x17)
  RVTEST_TESTDATA_LOAD_INT(x6, x13) # load rs1: x13 = 0x683f03e7
     760:	00032683          	lw	x13,0(x6)
     764:	00430313          	addi	x6,x6,4

00000768 <I_slti_cg_cp_rd_b17>:
I_slti_cg_cp_rd_b17:
  slti x17, x13, -607 # perform operation
     768:	da16a893          	slti	x17,x13,-607
  # Check if x17 contains the expected result. x27 is the signature ptr, x8 is the link ptr, x7 is a temp reg.
  RVTEST_SIGUPD(x27, x8, x7, x17, I_slti_cg_cp_rd_b17, I_slti_cg_cp_rd_b17_str)
     76c:	000da383          	lw	x7,0(x27)
     770:	01138863          	beq	x7,x17,780 <I_slti_cg_cp_rd_b17+0x18>
     774:	5410246f          	jal	x8,34b4 <failedtest_x8_x7>
     778:	00000768          	.word	0x00000768
     77c:	00008fd2          	.word	0x00008fd2
     780:	004d8d93          	addi	x27,x27,4

# Testcase cp_rd (Test destination rd = x18)
  RVTEST_TESTDATA_LOAD_INT(x6, x24) # load rs1: x24 = 0xd8baf514
     784:	00032c03          	lw	x24,0(x6)
     788:	00430313          	addi	x6,x6,4

0000078c <I_slti_cg_cp_rd_b18>:
I_slti_cg_cp_rd_b18:
  slti x18, x24, -1932 # perform operation
     78c:	874c2913          	slti	x18,x24,-1932
  # Check if x18 contains the expected result. x27 is the signature ptr, x8 is the link ptr, x7 is a temp reg.
  RVTEST_SIGUPD(x27, x8, x7, x18, I_slti_cg_cp_rd_b18, I_slti_cg_cp_rd_b18_str)
     790:	000da383          	lw	x7,0(x27)
     794:	01238863          	beq	x7,x18,7a4 <I_slti_cg_cp_rd_b18+0x18>
     798:	51d0246f          	jal	x8,34b4 <failedtest_x8_x7>
     79c:	0000078c          	.word	0x0000078c
     7a0:	00009001          	.word	0x00009001
     7a4:	004d8d93          	addi	x27,x27,4

# Testcase cp_rd (Test destination rd = x19)
  RVTEST_TESTDATA_LOAD_INT(x6, x3) # load rs1: x3 = 0xe1f6abfd
     7a8:	00032183          	lw	x3,0(x6)
     7ac:	00430313          	addi	x6,x6,4

000007b0 <I_slti_cg_cp_rd_b19>:
I_slti_cg_cp_rd_b19:
  slti x19, x3, 1577 # perform operation
     7b0:	6291a993          	slti	x19,x3,1577
  # Check if x19 contains the expected result. x27 is the signature ptr, x8 is the link ptr, x7 is a temp reg.
  RVTEST_SIGUPD(x27, x8, x7, x19, I_slti_cg_cp_rd_b19, I_slti_cg_cp_rd_b19_str)
     7b4:	000da383          	lw	x7,0(x27)
     7b8:	01338863          	beq	x7,x19,7c8 <I_slti_cg_cp_rd_b19+0x18>
     7bc:	4f90246f          	jal	x8,34b4 <failedtest_x8_x7>
     7c0:	000007b0          	.word	0x000007b0
     7c4:	00009030          	.word	0x00009030
     7c8:	004d8d93          	addi	x27,x27,4

# Testcase cp_rd (Test destination rd = x20)
  RVTEST_TESTDATA_LOAD_INT(x6, x23) # load rs1: x23 = 0x34ac52dc
     7cc:	00032b83          	lw	x23,0(x6)
     7d0:	00430313          	addi	x6,x6,4

000007d4 <I_slti_cg_cp_rd_b20>:
I_slti_cg_cp_rd_b20:
  slti x20, x23, -1134 # perform operation
     7d4:	b92baa13          	slti	x20,x23,-1134
  # Check if x20 contains the expected result. x27 is the signature ptr, x8 is the link ptr, x7 is a temp reg.
  RVTEST_SIGUPD(x27, x8, x7, x20, I_slti_cg_cp_rd_b20, I_slti_cg_cp_rd_b20_str)
     7d8:	000da383          	lw	x7,0(x27)
     7dc:	01438863          	beq	x7,x20,7ec <I_slti_cg_cp_rd_b20+0x18>
     7e0:	4d50246f          	jal	x8,34b4 <failedtest_x8_x7>
     7e4:	000007d4          	.word	0x000007d4
     7e8:	0000905f          	.word	0x0000905f
     7ec:	004d8d93          	addi	x27,x27,4

# Testcase cp_rd (Test destination rd = x21)
  RVTEST_TESTDATA_LOAD_INT(x6, x5) # load rs1: x5 = 0x72c2fff8
     7f0:	00032283          	lw	x5,0(x6)
     7f4:	00430313          	addi	x6,x6,4

000007f8 <I_slti_cg_cp_rd_b21>:
I_slti_cg_cp_rd_b21:
  slti x21, x5, -589 # perform operation
     7f8:	db32aa93          	slti	x21,x5,-589
  # Check if x21 contains the expected result. x27 is the signature ptr, x8 is the link ptr, x7 is a temp reg.
  RVTEST_SIGUPD(x27, x8, x7, x21, I_slti_cg_cp_rd_b21, I_slti_cg_cp_rd_b21_str)
     7fc:	000da383          	lw	x7,0(x27)
     800:	01538863          	beq	x7,x21,810 <I_slti_cg_cp_rd_b21+0x18>
     804:	4b10246f          	jal	x8,34b4 <failedtest_x8_x7>
     808:	000007f8          	.word	0x000007f8
     80c:	0000908e          	.word	0x0000908e
     810:	004d8d93          	addi	x27,x27,4

# Testcase cp_rd (Test destination rd = x22)
  RVTEST_TESTDATA_LOAD_INT(x6, x17) # load rs1: x17 = 0xd1da150f
     814:	00032883          	lw	x17,0(x6)
     818:	00430313          	addi	x6,x6,4

0000081c <I_slti_cg_cp_rd_b22>:
I_slti_cg_cp_rd_b22:
  slti x22, x17, -76 # perform operation
     81c:	fb48ab13          	slti	x22,x17,-76
  # Check if x22 contains the expected result. x27 is the signature ptr, x8 is the link ptr, x7 is a temp reg.
  RVTEST_SIGUPD(x27, x8, x7, x22, I_slti_cg_cp_rd_b22, I_slti_cg_cp_rd_b22_str)
     820:	000da383          	lw	x7,0(x27)
     824:	01638863          	beq	x7,x22,834 <I_slti_cg_cp_rd_b22+0x18>
     828:	48d0246f          	jal	x8,34b4 <failedtest_x8_x7>
     82c:	0000081c          	.word	0x0000081c
     830:	000090bd          	.word	0x000090bd
     834:	004d8d93          	addi	x27,x27,4

# Testcase cp_rd (Test destination rd = x23)
  RVTEST_TESTDATA_LOAD_INT(x6, x15) # load rs1: x15 = 0x9365a8bf
     838:	00032783          	lw	x15,0(x6)
     83c:	00430313          	addi	x6,x6,4

00000840 <I_slti_cg_cp_rd_b23>:
I_slti_cg_cp_rd_b23:
  slti x23, x15, 1756 # perform operation
     840:	6dc7ab93          	slti	x23,x15,1756
  # Check if x23 contains the expected result. x27 is the signature ptr, x8 is the link ptr, x7 is a temp reg.
  RVTEST_SIGUPD(x27, x8, x7, x23, I_slti_cg_cp_rd_b23, I_slti_cg_cp_rd_b23_str)
     844:	000da383          	lw	x7,0(x27)
     848:	01738863          	beq	x7,x23,858 <I_slti_cg_cp_rd_b23+0x18>
     84c:	4690246f          	jal	x8,34b4 <failedtest_x8_x7>
     850:	00000840          	.word	0x00000840
     854:	000090ec          	.word	0x000090ec
     858:	004d8d93          	addi	x27,x27,4

# Testcase cp_rd (Test destination rd = x24)
  RVTEST_TESTDATA_LOAD_INT(x6, x23) # load rs1: x23 = 0x60b4263d
     85c:	00032b83          	lw	x23,0(x6)
     860:	00430313          	addi	x6,x6,4

00000864 <I_slti_cg_cp_rd_b24>:
I_slti_cg_cp_rd_b24:
  slti x24, x23, 49 # perform operation
     864:	031bac13          	slti	x24,x23,49
  # Check if x24 contains the expected result. x27 is the signature ptr, x8 is the link ptr, x7 is a temp reg.
  RVTEST_SIGUPD(x27, x8, x7, x24, I_slti_cg_cp_rd_b24, I_slti_cg_cp_rd_b24_str)
     868:	000da383          	lw	x7,0(x27)
     86c:	01838863          	beq	x7,x24,87c <I_slti_cg_cp_rd_b24+0x18>
     870:	4450246f          	jal	x8,34b4 <failedtest_x8_x7>
     874:	00000864          	.word	0x00000864
     878:	0000911b          	.word	0x0000911b
     87c:	004d8d93          	addi	x27,x27,4

# Testcase cp_rd (Test destination rd = x25)
  RVTEST_TESTDATA_LOAD_INT(x6, x19) # load rs1: x19 = 0xdd902129
     880:	00032983          	lw	x19,0(x6)
     884:	00430313          	addi	x6,x6,4

00000888 <I_slti_cg_cp_rd_b25>:
I_slti_cg_cp_rd_b25:
  slti x25, x19, 1440 # perform operation
     888:	5a09ac93          	slti	x25,x19,1440
  # Check if x25 contains the expected result. x27 is the signature ptr, x8 is the link ptr, x7 is a temp reg.
  RVTEST_SIGUPD(x27, x8, x7, x25, I_slti_cg_cp_rd_b25, I_slti_cg_cp_rd_b25_str)
     88c:	000da383          	lw	x7,0(x27)
     890:	01938863          	beq	x7,x25,8a0 <I_slti_cg_cp_rd_b25+0x18>
     894:	4210246f          	jal	x8,34b4 <failedtest_x8_x7>
     898:	00000888          	.word	0x00000888
     89c:	0000914a          	.word	0x0000914a
     8a0:	004d8d93          	addi	x27,x27,4

# Testcase cp_rd (Test destination rd = x26)
  RVTEST_TESTDATA_LOAD_INT(x6, x30) # load rs1: x30 = 0x41a5933c
     8a4:	00032f03          	lw	x30,0(x6)
     8a8:	00430313          	addi	x6,x6,4

000008ac <I_slti_cg_cp_rd_b26>:
I_slti_cg_cp_rd_b26:
  slti x26, x30, -161 # perform operation
     8ac:	f5ff2d13          	slti	x26,x30,-161
  # Check if x26 contains the expected result. x27 is the signature ptr, x8 is the link ptr, x7 is a temp reg.
  RVTEST_SIGUPD(x27, x8, x7, x26, I_slti_cg_cp_rd_b26, I_slti_cg_cp_rd_b26_str)
     8b0:	000da383          	lw	x7,0(x27)
     8b4:	01a38863          	beq	x7,x26,8c4 <I_slti_cg_cp_rd_b26+0x18>
     8b8:	3fd0246f          	jal	x8,34b4 <failedtest_x8_x7>
     8bc:	000008ac          	.word	0x000008ac
     8c0:	00009179          	.word	0x00009179
     8c4:	004d8d93          	addi	x27,x27,4

  mv x19, x27 # switch signature pointer register to avoid conflict with test
     8c8:	000d8993          	addi	x19,x27,0
# Testcase cp_rd (Test destination rd = x27)
  RVTEST_TESTDATA_LOAD_INT(x6, x17) # load rs1: x17 = 0x8d14083b
     8cc:	00032883          	lw	x17,0(x6)
     8d0:	00430313          	addi	x6,x6,4

000008d4 <I_slti_cg_cp_rd_b27>:
I_slti_cg_cp_rd_b27:
  slti x27, x17, -1840 # perform operation
     8d4:	8d08ad93          	slti	x27,x17,-1840
  # Check if x27 contains the expected result. x19 is the signature ptr, x8 is the link ptr, x7 is a temp reg.
  RVTEST_SIGUPD(x19, x8, x7, x27, I_slti_cg_cp_rd_b27, I_slti_cg_cp_rd_b27_str)
     8d8:	0009a383          	lw	x7,0(x19)
     8dc:	01b38863          	beq	x7,x27,8ec <I_slti_cg_cp_rd_b27+0x18>
     8e0:	3d50246f          	jal	x8,34b4 <failedtest_x8_x7>
     8e4:	000008d4          	.word	0x000008d4
     8e8:	000091a8          	.word	0x000091a8
     8ec:	00498993          	addi	x19,x19,4

# Testcase cp_rd (Test destination rd = x28)
  RVTEST_TESTDATA_LOAD_INT(x6, x18) # load rs1: x18 = 0x336db868
     8f0:	00032903          	lw	x18,0(x6)
     8f4:	00430313          	addi	x6,x6,4

000008f8 <I_slti_cg_cp_rd_b28>:
I_slti_cg_cp_rd_b28:
  slti x28, x18, 166 # perform operation
     8f8:	0a692e13          	slti	x28,x18,166
  # Check if x28 contains the expected result. x19 is the signature ptr, x8 is the link ptr, x7 is a temp reg.
  RVTEST_SIGUPD(x19, x8, x7, x28, I_slti_cg_cp_rd_b28, I_slti_cg_cp_rd_b28_str)
     8fc:	0009a383          	lw	x7,0(x19)
     900:	01c38863          	beq	x7,x28,910 <I_slti_cg_cp_rd_b28+0x18>
     904:	3b10246f          	jal	x8,34b4 <failedtest_x8_x7>
     908:	000008f8          	.word	0x000008f8
     90c:	000091d7          	.word	0x000091d7
     910:	00498993          	addi	x19,x19,4

# Testcase cp_rd (Test destination rd = x29)
  RVTEST_TESTDATA_LOAD_INT(x6, x1) # load rs1: x1 = 0x91bc4e57
     914:	00032083          	lw	x1,0(x6)
     918:	00430313          	addi	x6,x6,4

0000091c <I_slti_cg_cp_rd_b29>:
I_slti_cg_cp_rd_b29:
  slti x29, x1, 1562 # perform operation
     91c:	61a0ae93          	slti	x29,x1,1562
  # Check if x29 contains the expected result. x19 is the signature ptr, x8 is the link ptr, x7 is a temp reg.
  RVTEST_SIGUPD(x19, x8, x7, x29, I_slti_cg_cp_rd_b29, I_slti_cg_cp_rd_b29_str)
     920:	0009a383          	lw	x7,0(x19)
     924:	01d38863          	beq	x7,x29,934 <I_slti_cg_cp_rd_b29+0x18>
     928:	38d0246f          	jal	x8,34b4 <failedtest_x8_x7>
     92c:	0000091c          	.word	0x0000091c
     930:	00009206          	.word	0x00009206
     934:	00498993          	addi	x19,x19,4

# Testcase cp_rd (Test destination rd = x30)
  RVTEST_TESTDATA_LOAD_INT(x6, x16) # load rs1: x16 = 0xc49ef692
     938:	00032803          	lw	x16,0(x6)
     93c:	00430313          	addi	x6,x6,4

00000940 <I_slti_cg_cp_rd_b30>:
I_slti_cg_cp_rd_b30:
  slti x30, x16, 1750 # perform operation
     940:	6d682f13          	slti	x30,x16,1750
  # Check if x30 contains the expected result. x19 is the signature ptr, x8 is the link ptr, x7 is a temp reg.
  RVTEST_SIGUPD(x19, x8, x7, x30, I_slti_cg_cp_rd_b30, I_slti_cg_cp_rd_b30_str)
     944:	0009a383          	lw	x7,0(x19)
     948:	01e38863          	beq	x7,x30,958 <I_slti_cg_cp_rd_b30+0x18>
     94c:	3690246f          	jal	x8,34b4 <failedtest_x8_x7>
     950:	00000940          	.word	0x00000940
     954:	00009235          	.word	0x00009235
     958:	00498993          	addi	x19,x19,4

# Testcase cp_rd (Test destination rd = x31)
  RVTEST_TESTDATA_LOAD_INT(x6, x4) # load rs1: x4 = 0x9c2375bb
     95c:	00032203          	lw	x4,0(x6)
     960:	00430313          	addi	x6,x6,4

00000964 <I_slti_cg_cp_rd_b31>:
I_slti_cg_cp_rd_b31:
  slti x31, x4, -961 # perform operation
     964:	c3f22f93          	slti	x31,x4,-961
  # Check if x31 contains the expected result. x19 is the signature ptr, x8 is the link ptr, x7 is a temp reg.
  RVTEST_SIGUPD(x19, x8, x7, x31, I_slti_cg_cp_rd_b31, I_slti_cg_cp_rd_b31_str)
     968:	0009a383          	lw	x7,0(x19)
     96c:	01f38863          	beq	x7,x31,97c <I_slti_cg_cp_rd_b31+0x18>
     970:	3450246f          	jal	x8,34b4 <failedtest_x8_x7>
     974:	00000964          	.word	0x00000964
     978:	00009264          	.word	0x00009264
     97c:	00498993          	addi	x19,x19,4
/////////////////////////////////
// cp_rs1_edges
/////////////////////////////////

# Testcase cp_rs1_edges (Test source rs1 value = 0x00000000)
  RVTEST_TESTDATA_LOAD_INT(x6, x23) # load rs1: x23 = 0x00000000
     980:	00032b83          	lw	x23,0(x6)
     984:	00430313          	addi	x6,x6,4

00000988 <I_slti_cg_cp_rs1_edges_0x0>:
I_slti_cg_cp_rs1_edges_0x0:
  slti x18, x23, -1537 # perform operation
     988:	9ffba913          	slti	x18,x23,-1537
  # Check if x18 contains the expected result. x19 is the signature ptr, x8 is the link ptr, x7 is a temp reg.
  RVTEST_SIGUPD(x19, x8, x7, x18, I_slti_cg_cp_rs1_edges_0x0, I_slti_cg_cp_rs1_edges_0x0_str)
     98c:	0009a383          	lw	x7,0(x19)
     990:	01238863          	beq	x7,x18,9a0 <I_slti_cg_cp_rs1_edges_0x0+0x18>
     994:	3210246f          	jal	x8,34b4 <failedtest_x8_x7>
     998:	00000988          	.word	0x00000988
     99c:	00009293          	.word	0x00009293
     9a0:	00498993          	addi	x19,x19,4

# Testcase cp_rs1_edges (Test source rs1 value = 0x00000001)
  RVTEST_TESTDATA_LOAD_INT(x6, x26) # load rs1: x26 = 0x00000001
     9a4:	00032d03          	lw	x26,0(x6)
     9a8:	00430313          	addi	x6,x6,4

000009ac <I_slti_cg_cp_rs1_edges_0x1>:
I_slti_cg_cp_rs1_edges_0x1:
  slti x10, x26, 811 # perform operation
     9ac:	32bd2513          	slti	x10,x26,811
  # Check if x10 contains the expected result. x19 is the signature ptr, x8 is the link ptr, x7 is a temp reg.
  RVTEST_SIGUPD(x19, x8, x7, x10, I_slti_cg_cp_rs1_edges_0x1, I_slti_cg_cp_rs1_edges_0x1_str)
     9b0:	0009a383          	lw	x7,0(x19)
     9b4:	00a38863          	beq	x7,x10,9c4 <I_slti_cg_cp_rs1_edges_0x1+0x18>
     9b8:	2fd0246f          	jal	x8,34b4 <failedtest_x8_x7>
     9bc:	000009ac          	.word	0x000009ac
     9c0:	000092c9          	.word	0x000092c9
     9c4:	00498993          	addi	x19,x19,4

# Testcase cp_rs1_edges (Test source rs1 value = 0x00000002)
  RVTEST_TESTDATA_LOAD_INT(x6, x1) # load rs1: x1 = 0x00000002
     9c8:	00032083          	lw	x1,0(x6)
     9cc:	00430313          	addi	x6,x6,4

000009d0 <I_slti_cg_cp_rs1_edges_0x2>:
I_slti_cg_cp_rs1_edges_0x2:
  slti x15, x1, -3 # perform operation
     9d0:	ffd0a793          	slti	x15,x1,-3
  # Check if x15 contains the expected result. x19 is the signature ptr, x8 is the link ptr, x7 is a temp reg.
  RVTEST_SIGUPD(x19, x8, x7, x15, I_slti_cg_cp_rs1_edges_0x2, I_slti_cg_cp_rs1_edges_0x2_str)
     9d4:	0009a383          	lw	x7,0(x19)
     9d8:	00f38863          	beq	x7,x15,9e8 <I_slti_cg_cp_rs1_edges_0x2+0x18>
     9dc:	2d90246f          	jal	x8,34b4 <failedtest_x8_x7>
     9e0:	000009d0          	.word	0x000009d0
     9e4:	000092ff          	.word	0x000092ff
     9e8:	00498993          	addi	x19,x19,4

# Testcase cp_rs1_edges (Test source rs1 value = 0x80000000)
  RVTEST_TESTDATA_LOAD_INT(x6, x27) # load rs1: x27 = 0x80000000
     9ec:	00032d83          	lw	x27,0(x6)
     9f0:	00430313          	addi	x6,x6,4

000009f4 <I_slti_cg_cp_rs1_edges_0x80000000>:
I_slti_cg_cp_rs1_edges_0x80000000:
  slti x18, x27, 76 # perform operation
     9f4:	04cda913          	slti	x18,x27,76
  # Check if x18 contains the expected result. x19 is the signature ptr, x8 is the link ptr, x7 is a temp reg.
  RVTEST_SIGUPD(x19, x8, x7, x18, I_slti_cg_cp_rs1_edges_0x80000000, I_slti_cg_cp_rs1_edges_0x80000000_str)
     9f8:	0009a383          	lw	x7,0(x19)
     9fc:	01238863          	beq	x7,x18,a0c <I_slti_cg_cp_rs1_edges_0x80000000+0x18>
     a00:	2b50246f          	jal	x8,34b4 <failedtest_x8_x7>
     a04:	000009f4          	.word	0x000009f4
     a08:	00009335          	.word	0x00009335
     a0c:	00498993          	addi	x19,x19,4

# Testcase cp_rs1_edges (Test source rs1 value = 0x80000001)
  RVTEST_TESTDATA_LOAD_INT(x6, x20) # load rs1: x20 = 0x80000001
     a10:	00032a03          	lw	x20,0(x6)
     a14:	00430313          	addi	x6,x6,4

00000a18 <I_slti_cg_cp_rs1_edges_0x80000001>:
I_slti_cg_cp_rs1_edges_0x80000001:
  slti x15, x20, 1043 # perform operation
     a18:	413a2793          	slti	x15,x20,1043
  # Check if x15 contains the expected result. x19 is the signature ptr, x8 is the link ptr, x7 is a temp reg.
  RVTEST_SIGUPD(x19, x8, x7, x15, I_slti_cg_cp_rs1_edges_0x80000001, I_slti_cg_cp_rs1_edges_0x80000001_str)
     a1c:	0009a383          	lw	x7,0(x19)
     a20:	00f38863          	beq	x7,x15,a30 <I_slti_cg_cp_rs1_edges_0x80000001+0x18>
     a24:	2910246f          	jal	x8,34b4 <failedtest_x8_x7>
     a28:	00000a18          	.word	0x00000a18
     a2c:	00009372          	.word	0x00009372
     a30:	00498993          	addi	x19,x19,4

# Testcase cp_rs1_edges (Test source rs1 value = 0x7fffffff)
  RVTEST_TESTDATA_LOAD_INT(x6, x11) # load rs1: x11 = 0x7fffffff
     a34:	00032583          	lw	x11,0(x6)
     a38:	00430313          	addi	x6,x6,4

00000a3c <I_slti_cg_cp_rs1_edges_0x7fffffff>:
I_slti_cg_cp_rs1_edges_0x7fffffff:
  slti x22, x11, 323 # perform operation
     a3c:	1435ab13          	slti	x22,x11,323
  # Check if x22 contains the expected result. x19 is the signature ptr, x8 is the link ptr, x7 is a temp reg.
  RVTEST_SIGUPD(x19, x8, x7, x22, I_slti_cg_cp_rs1_edges_0x7fffffff, I_slti_cg_cp_rs1_edges_0x7fffffff_str)
     a40:	0009a383          	lw	x7,0(x19)
     a44:	01638863          	beq	x7,x22,a54 <I_slti_cg_cp_rs1_edges_0x7fffffff+0x18>
     a48:	26d0246f          	jal	x8,34b4 <failedtest_x8_x7>
     a4c:	00000a3c          	.word	0x00000a3c
     a50:	000093af          	.word	0x000093af
     a54:	00498993          	addi	x19,x19,4

# Testcase cp_rs1_edges (Test source rs1 value = 0x7ffffffe)
  RVTEST_TESTDATA_LOAD_INT(x6, x12) # load rs1: x12 = 0x7ffffffe
     a58:	00032603          	lw	x12,0(x6)
     a5c:	00430313          	addi	x6,x6,4

00000a60 <I_slti_cg_cp_rs1_edges_0x7ffffffe>:
I_slti_cg_cp_rs1_edges_0x7ffffffe:
  slti x14, x12, 1928 # perform operation
     a60:	78862713          	slti	x14,x12,1928
  # Check if x14 contains the expected result. x19 is the signature ptr, x8 is the link ptr, x7 is a temp reg.
  RVTEST_SIGUPD(x19, x8, x7, x14, I_slti_cg_cp_rs1_edges_0x7ffffffe, I_slti_cg_cp_rs1_edges_0x7ffffffe_str)
     a64:	0009a383          	lw	x7,0(x19)
     a68:	00e38863          	beq	x7,x14,a78 <I_slti_cg_cp_rs1_edges_0x7ffffffe+0x18>
     a6c:	2490246f          	jal	x8,34b4 <failedtest_x8_x7>
     a70:	00000a60          	.word	0x00000a60
     a74:	000093ec          	.word	0x000093ec
     a78:	00498993          	addi	x19,x19,4

# Testcase cp_rs1_edges (Test source rs1 value = 0xffffffff)
  RVTEST_TESTDATA_LOAD_INT(x6, x17) # load rs1: x17 = 0xffffffff
     a7c:	00032883          	lw	x17,0(x6)
     a80:	00430313          	addi	x6,x6,4

00000a84 <I_slti_cg_cp_rs1_edges_0xffffffff>:
I_slti_cg_cp_rs1_edges_0xffffffff:
  slti x21, x17, -1698 # perform operation
     a84:	95e8aa93          	slti	x21,x17,-1698
  # Check if x21 contains the expected result. x19 is the signature ptr, x8 is the link ptr, x7 is a temp reg.
  RVTEST_SIGUPD(x19, x8, x7, x21, I_slti_cg_cp_rs1_edges_0xffffffff, I_slti_cg_cp_rs1_edges_0xffffffff_str)
     a88:	0009a383          	lw	x7,0(x19)
     a8c:	01538863          	beq	x7,x21,a9c <I_slti_cg_cp_rs1_edges_0xffffffff+0x18>
     a90:	2250246f          	jal	x8,34b4 <failedtest_x8_x7>
     a94:	00000a84          	.word	0x00000a84
     a98:	00009429          	.word	0x00009429
     a9c:	00498993          	addi	x19,x19,4

# Testcase cp_rs1_edges (Test source rs1 value = 0xfffffffe)
  RVTEST_TESTDATA_LOAD_INT(x6, x14) # load rs1: x14 = 0xfffffffe
     aa0:	00032703          	lw	x14,0(x6)
     aa4:	00430313          	addi	x6,x6,4

00000aa8 <I_slti_cg_cp_rs1_edges_0xfffffffe>:
I_slti_cg_cp_rs1_edges_0xfffffffe:
  slti x27, x14, -1673 # perform operation
     aa8:	97772d93          	slti	x27,x14,-1673
  # Check if x27 contains the expected result. x19 is the signature ptr, x8 is the link ptr, x7 is a temp reg.
  RVTEST_SIGUPD(x19, x8, x7, x27, I_slti_cg_cp_rs1_edges_0xfffffffe, I_slti_cg_cp_rs1_edges_0xfffffffe_str)
     aac:	0009a383          	lw	x7,0(x19)
     ab0:	01b38863          	beq	x7,x27,ac0 <I_slti_cg_cp_rs1_edges_0xfffffffe+0x18>
     ab4:	2010246f          	jal	x8,34b4 <failedtest_x8_x7>
     ab8:	00000aa8          	.word	0x00000aa8
     abc:	00009466          	.word	0x00009466
     ac0:	00498993          	addi	x19,x19,4

# Testcase cp_rs1_edges (Test source rs1 value = 0x5bbc8872)
  RVTEST_TESTDATA_LOAD_INT(x6, x30) # load rs1: x30 = 0x5bbc8872
     ac4:	00032f03          	lw	x30,0(x6)
     ac8:	00430313          	addi	x6,x6,4

00000acc <I_slti_cg_cp_rs1_edges_0x5bbc8872>:
I_slti_cg_cp_rs1_edges_0x5bbc8872:
  slti x18, x30, -268 # perform operation
     acc:	ef4f2913          	slti	x18,x30,-268
  # Check if x18 contains the expected result. x19 is the signature ptr, x8 is the link ptr, x7 is a temp reg.
  RVTEST_SIGUPD(x19, x8, x7, x18, I_slti_cg_cp_rs1_edges_0x5bbc8872, I_slti_cg_cp_rs1_edges_0x5bbc8872_str)
     ad0:	0009a383          	lw	x7,0(x19)
     ad4:	01238863          	beq	x7,x18,ae4 <I_slti_cg_cp_rs1_edges_0x5bbc8872+0x18>
     ad8:	1dd0246f          	jal	x8,34b4 <failedtest_x8_x7>
     adc:	00000acc          	.word	0x00000acc
     ae0:	000094a3          	.word	0x000094a3
     ae4:	00498993          	addi	x19,x19,4

# Testcase cp_rs1_edges (Test source rs1 value = 0xaaaaaaaa)
  RVTEST_TESTDATA_LOAD_INT(x6, x2) # load rs1: x2 = 0xaaaaaaaa
     ae8:	00032103          	lw	x2,0(x6)
     aec:	00430313          	addi	x6,x6,4

00000af0 <I_slti_cg_cp_rs1_edges_0xaaaaaaaa>:
I_slti_cg_cp_rs1_edges_0xaaaaaaaa:
  slti x15, x2, -1041 # perform operation
     af0:	bef12793          	slti	x15,x2,-1041
  # Check if x15 contains the expected result. x19 is the signature ptr, x8 is the link ptr, x7 is a temp reg.
  RVTEST_SIGUPD(x19, x8, x7, x15, I_slti_cg_cp_rs1_edges_0xaaaaaaaa, I_slti_cg_cp_rs1_edges_0xaaaaaaaa_str)
     af4:	0009a383          	lw	x7,0(x19)
     af8:	00f38863          	beq	x7,x15,b08 <I_slti_cg_cp_rs1_edges_0xaaaaaaaa+0x18>
     afc:	1b90246f          	jal	x8,34b4 <failedtest_x8_x7>
     b00:	00000af0          	.word	0x00000af0
     b04:	000094e0          	.word	0x000094e0
     b08:	00498993          	addi	x19,x19,4

# Testcase cp_rs1_edges (Test source rs1 value = 0x55555555)
  RVTEST_TESTDATA_LOAD_INT(x6, x12) # load rs1: x12 = 0x55555555
     b0c:	00032603          	lw	x12,0(x6)
     b10:	00430313          	addi	x6,x6,4

00000b14 <I_slti_cg_cp_rs1_edges_0x55555555>:
I_slti_cg_cp_rs1_edges_0x55555555:
  slti x29, x12, 2014 # perform operation
     b14:	7de62e93          	slti	x29,x12,2014
  # Check if x29 contains the expected result. x19 is the signature ptr, x8 is the link ptr, x7 is a temp reg.
  RVTEST_SIGUPD(x19, x8, x7, x29, I_slti_cg_cp_rs1_edges_0x55555555, I_slti_cg_cp_rs1_edges_0x55555555_str)
     b18:	0009a383          	lw	x7,0(x19)
     b1c:	01d38863          	beq	x7,x29,b2c <I_slti_cg_cp_rs1_edges_0x55555555+0x18>
     b20:	1950246f          	jal	x8,34b4 <failedtest_x8_x7>
     b24:	00000b14          	.word	0x00000b14
     b28:	0000951d          	.word	0x0000951d
     b2c:	00498993          	addi	x19,x19,4
/////////////////////////////////
// cr_rs1_imm_edges
/////////////////////////////////

# Testcase cr_rs1_imm_edges (rs1 = 0x00000000, imm = 0)
  RVTEST_TESTDATA_LOAD_INT(x6, x4) # load rs1: x4 = 0x00000000
     b30:	00032203          	lw	x4,0(x6)
     b34:	00430313          	addi	x6,x6,4

00000b38 <I_slti_cg_cr_rs1_imm_edges_rs1val_0x0_immval_0x0>:
I_slti_cg_cr_rs1_imm_edges_rs1val_0x0_immval_0x0:
  slti x2, x4, 0 # perform operation
     b38:	00022113          	slti	x2,x4,0
  # Check if x2 contains the expected result. x19 is the signature ptr, x8 is the link ptr, x7 is a temp reg.
  RVTEST_SIGUPD(x19, x8, x7, x2, I_slti_cg_cr_rs1_imm_edges_rs1val_0x0_immval_0x0, I_slti_cg_cr_rs1_imm_edges_rs1val_0x0_immval_0x0_str)
     b3c:	0009a383          	lw	x7,0(x19)
     b40:	00238863          	beq	x7,x2,b50 <I_slti_cg_cr_rs1_imm_edges_rs1val_0x0_immval_0x0+0x18>
     b44:	1710246f          	jal	x8,34b4 <failedtest_x8_x7>
     b48:	00000b38          	.word	0x00000b38
     b4c:	0000955a          	.word	0x0000955a
     b50:	00498993          	addi	x19,x19,4

# Testcase cr_rs1_imm_edges (rs1 = 0x00000000, imm = 1)
  RVTEST_TESTDATA_LOAD_INT(x6, x22) # load rs1: x22 = 0x00000000
     b54:	00032b03          	lw	x22,0(x6)
     b58:	00430313          	addi	x6,x6,4

00000b5c <I_slti_cg_cr_rs1_imm_edges_rs1val_0x0_immval_0x1>:
I_slti_cg_cr_rs1_imm_edges_rs1val_0x0_immval_0x1:
  slti x31, x22, 1 # perform operation
     b5c:	001b2f93          	slti	x31,x22,1
  # Check if x31 contains the expected result. x19 is the signature ptr, x8 is the link ptr, x7 is a temp reg.
  RVTEST_SIGUPD(x19, x8, x7, x31, I_slti_cg_cr_rs1_imm_edges_rs1val_0x0_immval_0x1, I_slti_cg_cr_rs1_imm_edges_rs1val_0x0_immval_0x1_str)
     b60:	0009a383          	lw	x7,0(x19)
     b64:	01f38863          	beq	x7,x31,b74 <I_slti_cg_cr_rs1_imm_edges_rs1val_0x0_immval_0x1+0x18>
     b68:	14d0246f          	jal	x8,34b4 <failedtest_x8_x7>
     b6c:	00000b5c          	.word	0x00000b5c
     b70:	000095a7          	.word	0x000095a7
     b74:	00498993          	addi	x19,x19,4

# Testcase cr_rs1_imm_edges (rs1 = 0x00000000, imm = 2)
  RVTEST_TESTDATA_LOAD_INT(x6, x1) # load rs1: x1 = 0x00000000
     b78:	00032083          	lw	x1,0(x6)
     b7c:	00430313          	addi	x6,x6,4

00000b80 <I_slti_cg_cr_rs1_imm_edges_rs1val_0x0_immval_0x2>:
I_slti_cg_cr_rs1_imm_edges_rs1val_0x0_immval_0x2:
  slti x13, x1, 2 # perform operation
     b80:	0020a693          	slti	x13,x1,2
  # Check if x13 contains the expected result. x19 is the signature ptr, x8 is the link ptr, x7 is a temp reg.
  RVTEST_SIGUPD(x19, x8, x7, x13, I_slti_cg_cr_rs1_imm_edges_rs1val_0x0_immval_0x2, I_slti_cg_cr_rs1_imm_edges_rs1val_0x0_immval_0x2_str)
     b84:	0009a383          	lw	x7,0(x19)
     b88:	00d38863          	beq	x7,x13,b98 <I_slti_cg_cr_rs1_imm_edges_rs1val_0x0_immval_0x2+0x18>
     b8c:	1290246f          	jal	x8,34b4 <failedtest_x8_x7>
     b90:	00000b80          	.word	0x00000b80
     b94:	000095f4          	.word	0x000095f4
     b98:	00498993          	addi	x19,x19,4

# Testcase cr_rs1_imm_edges (rs1 = 0x00000000, imm = 3)
  RVTEST_TESTDATA_LOAD_INT(x6, x16) # load rs1: x16 = 0x00000000
     b9c:	00032803          	lw	x16,0(x6)
     ba0:	00430313          	addi	x6,x6,4

00000ba4 <I_slti_cg_cr_rs1_imm_edges_rs1val_0x0_immval_0x3>:
I_slti_cg_cr_rs1_imm_edges_rs1val_0x0_immval_0x3:
  slti x4, x16, 3 # perform operation
     ba4:	00382213          	slti	x4,x16,3
  # Check if x4 contains the expected result. x19 is the signature ptr, x8 is the link ptr, x7 is a temp reg.
  RVTEST_SIGUPD(x19, x8, x7, x4, I_slti_cg_cr_rs1_imm_edges_rs1val_0x0_immval_0x3, I_slti_cg_cr_rs1_imm_edges_rs1val_0x0_immval_0x3_str)
     ba8:	0009a383          	lw	x7,0(x19)
     bac:	00438863          	beq	x7,x4,bbc <I_slti_cg_cr_rs1_imm_edges_rs1val_0x0_immval_0x3+0x18>
     bb0:	1050246f          	jal	x8,34b4 <failedtest_x8_x7>
     bb4:	00000ba4          	.word	0x00000ba4
     bb8:	00009641          	.word	0x00009641
     bbc:	00498993          	addi	x19,x19,4

# Testcase cr_rs1_imm_edges (rs1 = 0x00000000, imm = 4)
  RVTEST_TESTDATA_LOAD_INT(x6, x30) # load rs1: x30 = 0x00000000
     bc0:	00032f03          	lw	x30,0(x6)
     bc4:	00430313          	addi	x6,x6,4

00000bc8 <I_slti_cg_cr_rs1_imm_edges_rs1val_0x0_immval_0x4>:
I_slti_cg_cr_rs1_imm_edges_rs1val_0x0_immval_0x4:
  slti x25, x30, 4 # perform operation
     bc8:	004f2c93          	slti	x25,x30,4
  # Check if x25 contains the expected result. x19 is the signature ptr, x8 is the link ptr, x7 is a temp reg.
  RVTEST_SIGUPD(x19, x8, x7, x25, I_slti_cg_cr_rs1_imm_edges_rs1val_0x0_immval_0x4, I_slti_cg_cr_rs1_imm_edges_rs1val_0x0_immval_0x4_str)
     bcc:	0009a383          	lw	x7,0(x19)
     bd0:	01938863          	beq	x7,x25,be0 <I_slti_cg_cr_rs1_imm_edges_rs1val_0x0_immval_0x4+0x18>
     bd4:	0e10246f          	jal	x8,34b4 <failedtest_x8_x7>
     bd8:	00000bc8          	.word	0x00000bc8
     bdc:	0000968e          	.word	0x0000968e
     be0:	00498993          	addi	x19,x19,4

# Testcase cr_rs1_imm_edges (rs1 = 0x00000000, imm = 8)
  RVTEST_TESTDATA_LOAD_INT(x6, x15) # load rs1: x15 = 0x00000000
     be4:	00032783          	lw	x15,0(x6)
     be8:	00430313          	addi	x6,x6,4

00000bec <I_slti_cg_cr_rs1_imm_edges_rs1val_0x0_immval_0x8>:
I_slti_cg_cr_rs1_imm_edges_rs1val_0x0_immval_0x8:
  slti x31, x15, 8 # perform operation
     bec:	0087af93          	slti	x31,x15,8
  # Check if x31 contains the expected result. x19 is the signature ptr, x8 is the link ptr, x7 is a temp reg.
  RVTEST_SIGUPD(x19, x8, x7, x31, I_slti_cg_cr_rs1_imm_edges_rs1val_0x0_immval_0x8, I_slti_cg_cr_rs1_imm_edges_rs1val_0x0_immval_0x8_str)
     bf0:	0009a383          	lw	x7,0(x19)
     bf4:	01f38863          	beq	x7,x31,c04 <I_slti_cg_cr_rs1_imm_edges_rs1val_0x0_immval_0x8+0x18>
     bf8:	0bd0246f          	jal	x8,34b4 <failedtest_x8_x7>
     bfc:	00000bec          	.word	0x00000bec
     c00:	000096db          	.word	0x000096db
     c04:	00498993          	addi	x19,x19,4

# Testcase cr_rs1_imm_edges (rs1 = 0x00000000, imm = 16)
  RVTEST_TESTDATA_LOAD_INT(x6, x29) # load rs1: x29 = 0x00000000
     c08:	00032e83          	lw	x29,0(x6)
     c0c:	00430313          	addi	x6,x6,4

00000c10 <I_slti_cg_cr_rs1_imm_edges_rs1val_0x0_immval_0x10>:
I_slti_cg_cr_rs1_imm_edges_rs1val_0x0_immval_0x10:
  slti x16, x29, 16 # perform operation
     c10:	010ea813          	slti	x16,x29,16
  # Check if x16 contains the expected result. x19 is the signature ptr, x8 is the link ptr, x7 is a temp reg.
  RVTEST_SIGUPD(x19, x8, x7, x16, I_slti_cg_cr_rs1_imm_edges_rs1val_0x0_immval_0x10, I_slti_cg_cr_rs1_imm_edges_rs1val_0x0_immval_0x10_str)
     c14:	0009a383          	lw	x7,0(x19)
     c18:	01038863          	beq	x7,x16,c28 <I_slti_cg_cr_rs1_imm_edges_rs1val_0x0_immval_0x10+0x18>
     c1c:	0990246f          	jal	x8,34b4 <failedtest_x8_x7>
     c20:	00000c10          	.word	0x00000c10
     c24:	00009728          	.word	0x00009728
     c28:	00498993          	addi	x19,x19,4

# Testcase cr_rs1_imm_edges (rs1 = 0x00000000, imm = 32)
  RVTEST_TESTDATA_LOAD_INT(x6, x12) # load rs1: x12 = 0x00000000
     c2c:	00032603          	lw	x12,0(x6)
     c30:	00430313          	addi	x6,x6,4

00000c34 <I_slti_cg_cr_rs1_imm_edges_rs1val_0x0_immval_0x20>:
I_slti_cg_cr_rs1_imm_edges_rs1val_0x0_immval_0x20:
  slti x5, x12, 32 # perform operation
     c34:	02062293          	slti	x5,x12,32
  # Check if x5 contains the expected result. x19 is the signature ptr, x8 is the link ptr, x7 is a temp reg.
  RVTEST_SIGUPD(x19, x8, x7, x5, I_slti_cg_cr_rs1_imm_edges_rs1val_0x0_immval_0x20, I_slti_cg_cr_rs1_imm_edges_rs1val_0x0_immval_0x20_str)
     c38:	0009a383          	lw	x7,0(x19)
     c3c:	00538863          	beq	x7,x5,c4c <I_slti_cg_cr_rs1_imm_edges_rs1val_0x0_immval_0x20+0x18>
     c40:	0750246f          	jal	x8,34b4 <failedtest_x8_x7>
     c44:	00000c34          	.word	0x00000c34
     c48:	00009776          	.word	0x00009776
     c4c:	00498993          	addi	x19,x19,4

# Testcase cr_rs1_imm_edges (rs1 = 0x00000000, imm = 64)
  RVTEST_TESTDATA_LOAD_INT(x6, x26) # load rs1: x26 = 0x00000000
     c50:	00032d03          	lw	x26,0(x6)
     c54:	00430313          	addi	x6,x6,4

00000c58 <I_slti_cg_cr_rs1_imm_edges_rs1val_0x0_immval_0x40>:
I_slti_cg_cr_rs1_imm_edges_rs1val_0x0_immval_0x40:
  slti x20, x26, 64 # perform operation
     c58:	040d2a13          	slti	x20,x26,64
  # Check if x20 contains the expected result. x19 is the signature ptr, x8 is the link ptr, x7 is a temp reg.
  RVTEST_SIGUPD(x19, x8, x7, x20, I_slti_cg_cr_rs1_imm_edges_rs1val_0x0_immval_0x40, I_slti_cg_cr_rs1_imm_edges_rs1val_0x0_immval_0x40_str)
     c5c:	0009a383          	lw	x7,0(x19)
     c60:	01438863          	beq	x7,x20,c70 <I_slti_cg_cr_rs1_imm_edges_rs1val_0x0_immval_0x40+0x18>
     c64:	0510246f          	jal	x8,34b4 <failedtest_x8_x7>
     c68:	00000c58          	.word	0x00000c58
     c6c:	000097c4          	.word	0x000097c4
     c70:	00498993          	addi	x19,x19,4

# Testcase cr_rs1_imm_edges (rs1 = 0x00000000, imm = 128)
  RVTEST_TESTDATA_LOAD_INT(x6, x20) # load rs1: x20 = 0x00000000
     c74:	00032a03          	lw	x20,0(x6)
     c78:	00430313          	addi	x6,x6,4

00000c7c <I_slti_cg_cr_rs1_imm_edges_rs1val_0x0_immval_0x80>:
I_slti_cg_cr_rs1_imm_edges_rs1val_0x0_immval_0x80:
  slti x17, x20, 128 # perform operation
     c7c:	080a2893          	slti	x17,x20,128
  # Check if x17 contains the expected result. x19 is the signature ptr, x8 is the link ptr, x7 is a temp reg.
  RVTEST_SIGUPD(x19, x8, x7, x17, I_slti_cg_cr_rs1_imm_edges_rs1val_0x0_immval_0x80, I_slti_cg_cr_rs1_imm_edges_rs1val_0x0_immval_0x80_str)
     c80:	0009a383          	lw	x7,0(x19)
     c84:	01138863          	beq	x7,x17,c94 <I_slti_cg_cr_rs1_imm_edges_rs1val_0x0_immval_0x80+0x18>
     c88:	02d0246f          	jal	x8,34b4 <failedtest_x8_x7>
     c8c:	00000c7c          	.word	0x00000c7c
     c90:	00009812          	.word	0x00009812
     c94:	00498993          	addi	x19,x19,4

# Testcase cr_rs1_imm_edges (rs1 = 0x00000000, imm = 256)
  RVTEST_TESTDATA_LOAD_INT(x6, x22) # load rs1: x22 = 0x00000000
     c98:	00032b03          	lw	x22,0(x6)
     c9c:	00430313          	addi	x6,x6,4

00000ca0 <I_slti_cg_cr_rs1_imm_edges_rs1val_0x0_immval_0x100>:
I_slti_cg_cr_rs1_imm_edges_rs1val_0x0_immval_0x100:
  slti x4, x22, 256 # perform operation
     ca0:	100b2213          	slti	x4,x22,256
  # Check if x4 contains the expected result. x19 is the signature ptr, x8 is the link ptr, x7 is a temp reg.
  RVTEST_SIGUPD(x19, x8, x7, x4, I_slti_cg_cr_rs1_imm_edges_rs1val_0x0_immval_0x100, I_slti_cg_cr_rs1_imm_edges_rs1val_0x0_immval_0x100_str)
     ca4:	0009a383          	lw	x7,0(x19)
     ca8:	00438863          	beq	x7,x4,cb8 <I_slti_cg_cr_rs1_imm_edges_rs1val_0x0_immval_0x100+0x18>
     cac:	0090246f          	jal	x8,34b4 <failedtest_x8_x7>
     cb0:	00000ca0          	.word	0x00000ca0
     cb4:	00009860          	.word	0x00009860
     cb8:	00498993          	addi	x19,x19,4

# Testcase cr_rs1_imm_edges (rs1 = 0x00000000, imm = 512)
  RVTEST_TESTDATA_LOAD_INT(x6, x26) # load rs1: x26 = 0x00000000
     cbc:	00032d03          	lw	x26,0(x6)
     cc0:	00430313          	addi	x6,x6,4

00000cc4 <I_slti_cg_cr_rs1_imm_edges_rs1val_0x0_immval_0x200>:
I_slti_cg_cr_rs1_imm_edges_rs1val_0x0_immval_0x200:
  slti x20, x26, 512 # perform operation
     cc4:	200d2a13          	slti	x20,x26,512
  # Check if x20 contains the expected result. x19 is the signature ptr, x8 is the link ptr, x7 is a temp reg.
  RVTEST_SIGUPD(x19, x8, x7, x20, I_slti_cg_cr_rs1_imm_edges_rs1val_0x0_immval_0x200, I_slti_cg_cr_rs1_imm_edges_rs1val_0x0_immval_0x200_str)
     cc8:	0009a383          	lw	x7,0(x19)
     ccc:	01438863          	beq	x7,x20,cdc <I_slti_cg_cr_rs1_imm_edges_rs1val_0x0_immval_0x200+0x18>
     cd0:	7e40246f          	jal	x8,34b4 <failedtest_x8_x7>
     cd4:	00000cc4          	.word	0x00000cc4
     cd8:	000098af          	.word	0x000098af
     cdc:	00498993          	addi	x19,x19,4

# Testcase cr_rs1_imm_edges (rs1 = 0x00000000, imm = 1023)
  RVTEST_TESTDATA_LOAD_INT(x6, x29) # load rs1: x29 = 0x00000000
     ce0:	00032e83          	lw	x29,0(x6)
     ce4:	00430313          	addi	x6,x6,4

00000ce8 <I_slti_cg_cr_rs1_imm_edges_rs1val_0x0_immval_0x3ff>:
I_slti_cg_cr_rs1_imm_edges_rs1val_0x0_immval_0x3ff:
  slti x16, x29, 1023 # perform operation
     ce8:	3ffea813          	slti	x16,x29,1023
  # Check if x16 contains the expected result. x19 is the signature ptr, x8 is the link ptr, x7 is a temp reg.
  RVTEST_SIGUPD(x19, x8, x7, x16, I_slti_cg_cr_rs1_imm_edges_rs1val_0x0_immval_0x3ff, I_slti_cg_cr_rs1_imm_edges_rs1val_0x0_immval_0x3ff_str)
     cec:	0009a383          	lw	x7,0(x19)
     cf0:	01038863          	beq	x7,x16,d00 <I_slti_cg_cr_rs1_imm_edges_rs1val_0x0_immval_0x3ff+0x18>
     cf4:	7c00246f          	jal	x8,34b4 <failedtest_x8_x7>
     cf8:	00000ce8          	.word	0x00000ce8
     cfc:	000098fe          	.word	0x000098fe
     d00:	00498993          	addi	x19,x19,4

# Testcase cr_rs1_imm_edges (rs1 = 0x00000000, imm = 1024)
  RVTEST_TESTDATA_LOAD_INT(x6, x26) # load rs1: x26 = 0x00000000
     d04:	00032d03          	lw	x26,0(x6)
     d08:	00430313          	addi	x6,x6,4

00000d0c <I_slti_cg_cr_rs1_imm_edges_rs1val_0x0_immval_0x400>:
I_slti_cg_cr_rs1_imm_edges_rs1val_0x0_immval_0x400:
  slti x4, x26, 1024 # perform operation
     d0c:	400d2213          	slti	x4,x26,1024
  # Check if x4 contains the expected result. x19 is the signature ptr, x8 is the link ptr, x7 is a temp reg.
  RVTEST_SIGUPD(x19, x8, x7, x4, I_slti_cg_cr_rs1_imm_edges_rs1val_0x0_immval_0x400, I_slti_cg_cr_rs1_imm_edges_rs1val_0x0_immval_0x400_str)
     d10:	0009a383          	lw	x7,0(x19)
     d14:	00438863          	beq	x7,x4,d24 <I_slti_cg_cr_rs1_imm_edges_rs1val_0x0_immval_0x400+0x18>
     d18:	79c0246f          	jal	x8,34b4 <failedtest_x8_x7>
     d1c:	00000d0c          	.word	0x00000d0c
     d20:	0000994d          	.word	0x0000994d
     d24:	00498993          	addi	x19,x19,4

# Testcase cr_rs1_imm_edges (rs1 = 0x00000000, imm = 1795)
  RVTEST_TESTDATA_LOAD_INT(x6, x15) # load rs1: x15 = 0x00000000
     d28:	00032783          	lw	x15,0(x6)
     d2c:	00430313          	addi	x6,x6,4

00000d30 <I_slti_cg_cr_rs1_imm_edges_rs1val_0x0_immval_0x703>:
I_slti_cg_cr_rs1_imm_edges_rs1val_0x0_immval_0x703:
  slti x26, x15, 1795 # perform operation
     d30:	7037ad13          	slti	x26,x15,1795
  # Check if x26 contains the expected result. x19 is the signature ptr, x8 is the link ptr, x7 is a temp reg.
  RVTEST_SIGUPD(x19, x8, x7, x26, I_slti_cg_cr_rs1_imm_edges_rs1val_0x0_immval_0x703, I_slti_cg_cr_rs1_imm_edges_rs1val_0x0_immval_0x703_str)
     d34:	0009a383          	lw	x7,0(x19)
     d38:	01a38863          	beq	x7,x26,d48 <I_slti_cg_cr_rs1_imm_edges_rs1val_0x0_immval_0x703+0x18>
     d3c:	7780246f          	jal	x8,34b4 <failedtest_x8_x7>
     d40:	00000d30          	.word	0x00000d30
     d44:	0000999c          	.word	0x0000999c
     d48:	00498993          	addi	x19,x19,4

# Testcase cr_rs1_imm_edges (rs1 = 0x00000000, imm = 2047)
  RVTEST_TESTDATA_LOAD_INT(x6, x17) # load rs1: x17 = 0x00000000
     d4c:	00032883          	lw	x17,0(x6)
     d50:	00430313          	addi	x6,x6,4

00000d54 <I_slti_cg_cr_rs1_imm_edges_rs1val_0x0_immval_0x7ff>:
I_slti_cg_cr_rs1_imm_edges_rs1val_0x0_immval_0x7ff:
  slti x12, x17, 2047 # perform operation
     d54:	7ff8a613          	slti	x12,x17,2047
  # Check if x12 contains the expected result. x19 is the signature ptr, x8 is the link ptr, x7 is a temp reg.
  RVTEST_SIGUPD(x19, x8, x7, x12, I_slti_cg_cr_rs1_imm_edges_rs1val_0x0_immval_0x7ff, I_slti_cg_cr_rs1_imm_edges_rs1val_0x0_immval_0x7ff_str)
     d58:	0009a383          	lw	x7,0(x19)
     d5c:	00c38863          	beq	x7,x12,d6c <I_slti_cg_cr_rs1_imm_edges_rs1val_0x0_immval_0x7ff+0x18>
     d60:	7540246f          	jal	x8,34b4 <failedtest_x8_x7>
     d64:	00000d54          	.word	0x00000d54
     d68:	000099eb          	.word	0x000099eb
     d6c:	00498993          	addi	x19,x19,4

# Testcase cr_rs1_imm_edges (rs1 = 0x00000000, imm = -2048)
  RVTEST_TESTDATA_LOAD_INT(x6, x13) # load rs1: x13 = 0x00000000
     d70:	00032683          	lw	x13,0(x6)
     d74:	00430313          	addi	x6,x6,4

00000d78 <I_slti_cg_cr_rs1_imm_edges_rs1val_0x0_immval_m0x800>:
I_slti_cg_cr_rs1_imm_edges_rs1val_0x0_immval_m0x800:
  slti x4, x13, -2048 # perform operation
     d78:	8006a213          	slti	x4,x13,-2048
  # Check if x4 contains the expected result. x19 is the signature ptr, x8 is the link ptr, x7 is a temp reg.
  RVTEST_SIGUPD(x19, x8, x7, x4, I_slti_cg_cr_rs1_imm_edges_rs1val_0x0_immval_m0x800, I_slti_cg_cr_rs1_imm_edges_rs1val_0x0_immval_m0x800_str)
     d7c:	0009a383          	lw	x7,0(x19)
     d80:	00438863          	beq	x7,x4,d90 <I_slti_cg_cr_rs1_imm_edges_rs1val_0x0_immval_m0x800+0x18>
     d84:	7300246f          	jal	x8,34b4 <failedtest_x8_x7>
     d88:	00000d78          	.word	0x00000d78
     d8c:	00009a3a          	.word	0x00009a3a
     d90:	00498993          	addi	x19,x19,4

# Testcase cr_rs1_imm_edges (rs1 = 0x00000000, imm = -2047)
  RVTEST_TESTDATA_LOAD_INT(x6, x2) # load rs1: x2 = 0x00000000
     d94:	00032103          	lw	x2,0(x6)
     d98:	00430313          	addi	x6,x6,4

00000d9c <I_slti_cg_cr_rs1_imm_edges_rs1val_0x0_immval_m0x7ff>:
I_slti_cg_cr_rs1_imm_edges_rs1val_0x0_immval_m0x7ff:
  slti x23, x2, -2047 # perform operation
     d9c:	80112b93          	slti	x23,x2,-2047
  # Check if x23 contains the expected result. x19 is the signature ptr, x8 is the link ptr, x7 is a temp reg.
  RVTEST_SIGUPD(x19, x8, x7, x23, I_slti_cg_cr_rs1_imm_edges_rs1val_0x0_immval_m0x7ff, I_slti_cg_cr_rs1_imm_edges_rs1val_0x0_immval_m0x7ff_str)
     da0:	0009a383          	lw	x7,0(x19)
     da4:	01738863          	beq	x7,x23,db4 <I_slti_cg_cr_rs1_imm_edges_rs1val_0x0_immval_m0x7ff+0x18>
     da8:	70c0246f          	jal	x8,34b4 <failedtest_x8_x7>
     dac:	00000d9c          	.word	0x00000d9c
     db0:	00009a8a          	.word	0x00009a8a
     db4:	00498993          	addi	x19,x19,4

# Testcase cr_rs1_imm_edges (rs1 = 0x00000000, imm = -2)
  RVTEST_TESTDATA_LOAD_INT(x6, x23) # load rs1: x23 = 0x00000000
     db8:	00032b83          	lw	x23,0(x6)
     dbc:	00430313          	addi	x6,x6,4

00000dc0 <I_slti_cg_cr_rs1_imm_edges_rs1val_0x0_immval_m0x2>:
I_slti_cg_cr_rs1_imm_edges_rs1val_0x0_immval_m0x2:
  slti x28, x23, -2 # perform operation
     dc0:	ffebae13          	slti	x28,x23,-2
  # Check if x28 contains the expected result. x19 is the signature ptr, x8 is the link ptr, x7 is a temp reg.
  RVTEST_SIGUPD(x19, x8, x7, x28, I_slti_cg_cr_rs1_imm_edges_rs1val_0x0_immval_m0x2, I_slti_cg_cr_rs1_imm_edges_rs1val_0x0_immval_m0x2_str)
     dc4:	0009a383          	lw	x7,0(x19)
     dc8:	01c38863          	beq	x7,x28,dd8 <I_slti_cg_cr_rs1_imm_edges_rs1val_0x0_immval_m0x2+0x18>
     dcc:	6e80246f          	jal	x8,34b4 <failedtest_x8_x7>
     dd0:	00000dc0          	.word	0x00000dc0
     dd4:	00009ada          	.word	0x00009ada
     dd8:	00498993          	addi	x19,x19,4

# Testcase cr_rs1_imm_edges (rs1 = 0x00000000, imm = -1)
  RVTEST_TESTDATA_LOAD_INT(x6, x16) # load rs1: x16 = 0x00000000
     ddc:	00032803          	lw	x16,0(x6)
     de0:	00430313          	addi	x6,x6,4

00000de4 <I_slti_cg_cr_rs1_imm_edges_rs1val_0x0_immval_m0x1>:
I_slti_cg_cr_rs1_imm_edges_rs1val_0x0_immval_m0x1:
  slti x24, x16, -1 # perform operation
     de4:	fff82c13          	slti	x24,x16,-1
  # Check if x24 contains the expected result. x19 is the signature ptr, x8 is the link ptr, x7 is a temp reg.
  RVTEST_SIGUPD(x19, x8, x7, x24, I_slti_cg_cr_rs1_imm_edges_rs1val_0x0_immval_m0x1, I_slti_cg_cr_rs1_imm_edges_rs1val_0x0_immval_m0x1_str)
     de8:	0009a383          	lw	x7,0(x19)
     dec:	01838863          	beq	x7,x24,dfc <I_slti_cg_cr_rs1_imm_edges_rs1val_0x0_immval_m0x1+0x18>
     df0:	6c40246f          	jal	x8,34b4 <failedtest_x8_x7>
     df4:	00000de4          	.word	0x00000de4
     df8:	00009b28          	.word	0x00009b28
     dfc:	00498993          	addi	x19,x19,4

# Testcase cr_rs1_imm_edges (rs1 = 0x00000001, imm = 0)
  RVTEST_TESTDATA_LOAD_INT(x6, x3) # load rs1: x3 = 0x00000001
     e00:	00032183          	lw	x3,0(x6)
     e04:	00430313          	addi	x6,x6,4

00000e08 <I_slti_cg_cr_rs1_imm_edges_rs1val_0x1_immval_0x0>:
I_slti_cg_cr_rs1_imm_edges_rs1val_0x1_immval_0x0:
  slti x22, x3, 0 # perform operation
     e08:	0001ab13          	slti	x22,x3,0
  # Check if x22 contains the expected result. x19 is the signature ptr, x8 is the link ptr, x7 is a temp reg.
  RVTEST_SIGUPD(x19, x8, x7, x22, I_slti_cg_cr_rs1_imm_edges_rs1val_0x1_immval_0x0, I_slti_cg_cr_rs1_imm_edges_rs1val_0x1_immval_0x0_str)
     e0c:	0009a383          	lw	x7,0(x19)
     e10:	01638863          	beq	x7,x22,e20 <I_slti_cg_cr_rs1_imm_edges_rs1val_0x1_immval_0x0+0x18>
     e14:	6a00246f          	jal	x8,34b4 <failedtest_x8_x7>
     e18:	00000e08          	.word	0x00000e08
     e1c:	00009b76          	.word	0x00009b76
     e20:	00498993          	addi	x19,x19,4

# Testcase cr_rs1_imm_edges (rs1 = 0x00000001, imm = 1)
  RVTEST_TESTDATA_LOAD_INT(x6, x22) # load rs1: x22 = 0x00000001
     e24:	00032b03          	lw	x22,0(x6)
     e28:	00430313          	addi	x6,x6,4

00000e2c <I_slti_cg_cr_rs1_imm_edges_rs1val_0x1_immval_0x1>:
I_slti_cg_cr_rs1_imm_edges_rs1val_0x1_immval_0x1:
  slti x23, x22, 1 # perform operation
     e2c:	001b2b93          	slti	x23,x22,1
  # Check if x23 contains the expected result. x19 is the signature ptr, x8 is the link ptr, x7 is a temp reg.
  RVTEST_SIGUPD(x19, x8, x7, x23, I_slti_cg_cr_rs1_imm_edges_rs1val_0x1_immval_0x1, I_slti_cg_cr_rs1_imm_edges_rs1val_0x1_immval_0x1_str)
     e30:	0009a383          	lw	x7,0(x19)
     e34:	01738863          	beq	x7,x23,e44 <I_slti_cg_cr_rs1_imm_edges_rs1val_0x1_immval_0x1+0x18>
     e38:	67c0246f          	jal	x8,34b4 <failedtest_x8_x7>
     e3c:	00000e2c          	.word	0x00000e2c
     e40:	00009bc3          	.word	0x00009bc3
     e44:	00498993          	addi	x19,x19,4

# Testcase cr_rs1_imm_edges (rs1 = 0x00000001, imm = 2)
  RVTEST_TESTDATA_LOAD_INT(x6, x10) # load rs1: x10 = 0x00000001
     e48:	00032503          	lw	x10,0(x6)
     e4c:	00430313          	addi	x6,x6,4

00000e50 <I_slti_cg_cr_rs1_imm_edges_rs1val_0x1_immval_0x2>:
I_slti_cg_cr_rs1_imm_edges_rs1val_0x1_immval_0x2:
  slti x3, x10, 2 # perform operation
     e50:	00252193          	slti	x3,x10,2
  # Check if x3 contains the expected result. x19 is the signature ptr, x8 is the link ptr, x7 is a temp reg.
  RVTEST_SIGUPD(x19, x8, x7, x3, I_slti_cg_cr_rs1_imm_edges_rs1val_0x1_immval_0x2, I_slti_cg_cr_rs1_imm_edges_rs1val_0x1_immval_0x2_str)
     e54:	0009a383          	lw	x7,0(x19)
     e58:	00338863          	beq	x7,x3,e68 <I_slti_cg_cr_rs1_imm_edges_rs1val_0x1_immval_0x2+0x18>
     e5c:	6580246f          	jal	x8,34b4 <failedtest_x8_x7>
     e60:	00000e50          	.word	0x00000e50
     e64:	00009c10          	.word	0x00009c10
     e68:	00498993          	addi	x19,x19,4

# Testcase cr_rs1_imm_edges (rs1 = 0x00000001, imm = 3)
  RVTEST_TESTDATA_LOAD_INT(x6, x2) # load rs1: x2 = 0x00000001
     e6c:	00032103          	lw	x2,0(x6)
     e70:	00430313          	addi	x6,x6,4

00000e74 <I_slti_cg_cr_rs1_imm_edges_rs1val_0x1_immval_0x3>:
I_slti_cg_cr_rs1_imm_edges_rs1val_0x1_immval_0x3:
  slti x12, x2, 3 # perform operation
     e74:	00312613          	slti	x12,x2,3
  # Check if x12 contains the expected result. x19 is the signature ptr, x8 is the link ptr, x7 is a temp reg.
  RVTEST_SIGUPD(x19, x8, x7, x12, I_slti_cg_cr_rs1_imm_edges_rs1val_0x1_immval_0x3, I_slti_cg_cr_rs1_imm_edges_rs1val_0x1_immval_0x3_str)
     e78:	0009a383          	lw	x7,0(x19)
     e7c:	00c38863          	beq	x7,x12,e8c <I_slti_cg_cr_rs1_imm_edges_rs1val_0x1_immval_0x3+0x18>
     e80:	6340246f          	jal	x8,34b4 <failedtest_x8_x7>
     e84:	00000e74          	.word	0x00000e74
     e88:	00009c5d          	.word	0x00009c5d
     e8c:	00498993          	addi	x19,x19,4

# Testcase cr_rs1_imm_edges (rs1 = 0x00000001, imm = 4)
  RVTEST_TESTDATA_LOAD_INT(x6, x15) # load rs1: x15 = 0x00000001
     e90:	00032783          	lw	x15,0(x6)
     e94:	00430313          	addi	x6,x6,4

00000e98 <I_slti_cg_cr_rs1_imm_edges_rs1val_0x1_immval_0x4>:
I_slti_cg_cr_rs1_imm_edges_rs1val_0x1_immval_0x4:
  slti x1, x15, 4 # perform operation
     e98:	0047a093          	slti	x1,x15,4
  # Check if x1 contains the expected result. x19 is the signature ptr, x8 is the link ptr, x7 is a temp reg.
  RVTEST_SIGUPD(x19, x8, x7, x1, I_slti_cg_cr_rs1_imm_edges_rs1val_0x1_immval_0x4, I_slti_cg_cr_rs1_imm_edges_rs1val_0x1_immval_0x4_str)
     e9c:	0009a383          	lw	x7,0(x19)
     ea0:	00138863          	beq	x7,x1,eb0 <I_slti_cg_cr_rs1_imm_edges_rs1val_0x1_immval_0x4+0x18>
     ea4:	6100246f          	jal	x8,34b4 <failedtest_x8_x7>
     ea8:	00000e98          	.word	0x00000e98
     eac:	00009cab          	.word	0x00009cab
     eb0:	00498993          	addi	x19,x19,4

# Testcase cr_rs1_imm_edges (rs1 = 0x00000001, imm = 8)
  RVTEST_TESTDATA_LOAD_INT(x6, x11) # load rs1: x11 = 0x00000001
     eb4:	00032583          	lw	x11,0(x6)
     eb8:	00430313          	addi	x6,x6,4

00000ebc <I_slti_cg_cr_rs1_imm_edges_rs1val_0x1_immval_0x8>:
I_slti_cg_cr_rs1_imm_edges_rs1val_0x1_immval_0x8:
  slti x18, x11, 8 # perform operation
     ebc:	0085a913          	slti	x18,x11,8
  # Check if x18 contains the expected result. x19 is the signature ptr, x8 is the link ptr, x7 is a temp reg.
  RVTEST_SIGUPD(x19, x8, x7, x18, I_slti_cg_cr_rs1_imm_edges_rs1val_0x1_immval_0x8, I_slti_cg_cr_rs1_imm_edges_rs1val_0x1_immval_0x8_str)
     ec0:	0009a383          	lw	x7,0(x19)
     ec4:	01238863          	beq	x7,x18,ed4 <I_slti_cg_cr_rs1_imm_edges_rs1val_0x1_immval_0x8+0x18>
     ec8:	5ec0246f          	jal	x8,34b4 <failedtest_x8_x7>
     ecc:	00000ebc          	.word	0x00000ebc
     ed0:	00009cf9          	.word	0x00009cf9
     ed4:	00498993          	addi	x19,x19,4

# Testcase cr_rs1_imm_edges (rs1 = 0x00000001, imm = 16)
  RVTEST_TESTDATA_LOAD_INT(x6, x23) # load rs1: x23 = 0x00000001
     ed8:	00032b83          	lw	x23,0(x6)
     edc:	00430313          	addi	x6,x6,4

00000ee0 <I_slti_cg_cr_rs1_imm_edges_rs1val_0x1_immval_0x10>:
I_slti_cg_cr_rs1_imm_edges_rs1val_0x1_immval_0x10:
  slti x14, x23, 16 # perform operation
     ee0:	010ba713          	slti	x14,x23,16
  # Check if x14 contains the expected result. x19 is the signature ptr, x8 is the link ptr, x7 is a temp reg.
  RVTEST_SIGUPD(x19, x8, x7, x14, I_slti_cg_cr_rs1_imm_edges_rs1val_0x1_immval_0x10, I_slti_cg_cr_rs1_imm_edges_rs1val_0x1_immval_0x10_str)
     ee4:	0009a383          	lw	x7,0(x19)
     ee8:	00e38863          	beq	x7,x14,ef8 <I_slti_cg_cr_rs1_imm_edges_rs1val_0x1_immval_0x10+0x18>
     eec:	5c80246f          	jal	x8,34b4 <failedtest_x8_x7>
     ef0:	00000ee0          	.word	0x00000ee0
     ef4:	00009d47          	.word	0x00009d47
     ef8:	00498993          	addi	x19,x19,4

# Testcase cr_rs1_imm_edges (rs1 = 0x00000001, imm = 32)
  RVTEST_TESTDATA_LOAD_INT(x6, x16) # load rs1: x16 = 0x00000001
     efc:	00032803          	lw	x16,0(x6)
     f00:	00430313          	addi	x6,x6,4

00000f04 <I_slti_cg_cr_rs1_imm_edges_rs1val_0x1_immval_0x20>:
I_slti_cg_cr_rs1_imm_edges_rs1val_0x1_immval_0x20:
  slti x2, x16, 32 # perform operation
     f04:	02082113          	slti	x2,x16,32
  # Check if x2 contains the expected result. x19 is the signature ptr, x8 is the link ptr, x7 is a temp reg.
  RVTEST_SIGUPD(x19, x8, x7, x2, I_slti_cg_cr_rs1_imm_edges_rs1val_0x1_immval_0x20, I_slti_cg_cr_rs1_imm_edges_rs1val_0x1_immval_0x20_str)
     f08:	0009a383          	lw	x7,0(x19)
     f0c:	00238863          	beq	x7,x2,f1c <I_slti_cg_cr_rs1_imm_edges_rs1val_0x1_immval_0x20+0x18>
     f10:	5a40246f          	jal	x8,34b4 <failedtest_x8_x7>
     f14:	00000f04          	.word	0x00000f04
     f18:	00009d96          	.word	0x00009d96
     f1c:	00498993          	addi	x19,x19,4

# Testcase cr_rs1_imm_edges (rs1 = 0x00000001, imm = 64)
  RVTEST_TESTDATA_LOAD_INT(x6, x4) # load rs1: x4 = 0x00000001
     f20:	00032203          	lw	x4,0(x6)
     f24:	00430313          	addi	x6,x6,4

00000f28 <I_slti_cg_cr_rs1_imm_edges_rs1val_0x1_immval_0x40>:
I_slti_cg_cr_rs1_imm_edges_rs1val_0x1_immval_0x40:
  slti x11, x4, 64 # perform operation
     f28:	04022593          	slti	x11,x4,64
  # Check if x11 contains the expected result. x19 is the signature ptr, x8 is the link ptr, x7 is a temp reg.
  RVTEST_SIGUPD(x19, x8, x7, x11, I_slti_cg_cr_rs1_imm_edges_rs1val_0x1_immval_0x40, I_slti_cg_cr_rs1_imm_edges_rs1val_0x1_immval_0x40_str)
     f2c:	0009a383          	lw	x7,0(x19)
     f30:	00b38863          	beq	x7,x11,f40 <I_slti_cg_cr_rs1_imm_edges_rs1val_0x1_immval_0x40+0x18>
     f34:	5800246f          	jal	x8,34b4 <failedtest_x8_x7>
     f38:	00000f28          	.word	0x00000f28
     f3c:	00009de5          	.word	0x00009de5
     f40:	00498993          	addi	x19,x19,4

# Testcase cr_rs1_imm_edges (rs1 = 0x00000001, imm = 128)
  RVTEST_TESTDATA_LOAD_INT(x6, x4) # load rs1: x4 = 0x00000001
     f44:	00032203          	lw	x4,0(x6)
     f48:	00430313          	addi	x6,x6,4

00000f4c <I_slti_cg_cr_rs1_imm_edges_rs1val_0x1_immval_0x80>:
I_slti_cg_cr_rs1_imm_edges_rs1val_0x1_immval_0x80:
  slti x18, x4, 128 # perform operation
     f4c:	08022913          	slti	x18,x4,128
  # Check if x18 contains the expected result. x19 is the signature ptr, x8 is the link ptr, x7 is a temp reg.
  RVTEST_SIGUPD(x19, x8, x7, x18, I_slti_cg_cr_rs1_imm_edges_rs1val_0x1_immval_0x80, I_slti_cg_cr_rs1_imm_edges_rs1val_0x1_immval_0x80_str)
     f50:	0009a383          	lw	x7,0(x19)
     f54:	01238863          	beq	x7,x18,f64 <I_slti_cg_cr_rs1_imm_edges_rs1val_0x1_immval_0x80+0x18>
     f58:	55c0246f          	jal	x8,34b4 <failedtest_x8_x7>
     f5c:	00000f4c          	.word	0x00000f4c
     f60:	00009e34          	.word	0x00009e34
     f64:	00498993          	addi	x19,x19,4

# Testcase cr_rs1_imm_edges (rs1 = 0x00000001, imm = 256)
  RVTEST_TESTDATA_LOAD_INT(x6, x11) # load rs1: x11 = 0x00000001
     f68:	00032583          	lw	x11,0(x6)
     f6c:	00430313          	addi	x6,x6,4

00000f70 <I_slti_cg_cr_rs1_imm_edges_rs1val_0x1_immval_0x100>:
I_slti_cg_cr_rs1_imm_edges_rs1val_0x1_immval_0x100:
  slti x18, x11, 256 # perform operation
     f70:	1005a913          	slti	x18,x11,256
  # Check if x18 contains the expected result. x19 is the signature ptr, x8 is the link ptr, x7 is a temp reg.
  RVTEST_SIGUPD(x19, x8, x7, x18, I_slti_cg_cr_rs1_imm_edges_rs1val_0x1_immval_0x100, I_slti_cg_cr_rs1_imm_edges_rs1val_0x1_immval_0x100_str)
     f74:	0009a383          	lw	x7,0(x19)
     f78:	01238863          	beq	x7,x18,f88 <I_slti_cg_cr_rs1_imm_edges_rs1val_0x1_immval_0x100+0x18>
     f7c:	5380246f          	jal	x8,34b4 <failedtest_x8_x7>
     f80:	00000f70          	.word	0x00000f70
     f84:	00009e83          	.word	0x00009e83
     f88:	00498993          	addi	x19,x19,4

# Testcase cr_rs1_imm_edges (rs1 = 0x00000001, imm = 512)
  RVTEST_TESTDATA_LOAD_INT(x6, x5) # load rs1: x5 = 0x00000001
     f8c:	00032283          	lw	x5,0(x6)
     f90:	00430313          	addi	x6,x6,4

00000f94 <I_slti_cg_cr_rs1_imm_edges_rs1val_0x1_immval_0x200>:
I_slti_cg_cr_rs1_imm_edges_rs1val_0x1_immval_0x200:
  slti x28, x5, 512 # perform operation
     f94:	2002ae13          	slti	x28,x5,512
  # Check if x28 contains the expected result. x19 is the signature ptr, x8 is the link ptr, x7 is a temp reg.
  RVTEST_SIGUPD(x19, x8, x7, x28, I_slti_cg_cr_rs1_imm_edges_rs1val_0x1_immval_0x200, I_slti_cg_cr_rs1_imm_edges_rs1val_0x1_immval_0x200_str)
     f98:	0009a383          	lw	x7,0(x19)
     f9c:	01c38863          	beq	x7,x28,fac <I_slti_cg_cr_rs1_imm_edges_rs1val_0x1_immval_0x200+0x18>
     fa0:	5140246f          	jal	x8,34b4 <failedtest_x8_x7>
     fa4:	00000f94          	.word	0x00000f94
     fa8:	00009ed3          	.word	0x00009ed3
     fac:	00498993          	addi	x19,x19,4

# Testcase cr_rs1_imm_edges (rs1 = 0x00000001, imm = 1023)
  RVTEST_TESTDATA_LOAD_INT(x6, x22) # load rs1: x22 = 0x00000001
     fb0:	00032b03          	lw	x22,0(x6)
     fb4:	00430313          	addi	x6,x6,4

00000fb8 <I_slti_cg_cr_rs1_imm_edges_rs1val_0x1_immval_0x3ff>:
I_slti_cg_cr_rs1_imm_edges_rs1val_0x1_immval_0x3ff:
  slti x13, x22, 1023 # perform operation
     fb8:	3ffb2693          	slti	x13,x22,1023
  # Check if x13 contains the expected result. x19 is the signature ptr, x8 is the link ptr, x7 is a temp reg.
  RVTEST_SIGUPD(x19, x8, x7, x13, I_slti_cg_cr_rs1_imm_edges_rs1val_0x1_immval_0x3ff, I_slti_cg_cr_rs1_imm_edges_rs1val_0x1_immval_0x3ff_str)
     fbc:	0009a383          	lw	x7,0(x19)
     fc0:	00d38863          	beq	x7,x13,fd0 <I_slti_cg_cr_rs1_imm_edges_rs1val_0x1_immval_0x3ff+0x18>
     fc4:	4f00246f          	jal	x8,34b4 <failedtest_x8_x7>
     fc8:	00000fb8          	.word	0x00000fb8
     fcc:	00009f23          	.word	0x00009f23
     fd0:	00498993          	addi	x19,x19,4

# Testcase cr_rs1_imm_edges (rs1 = 0x00000001, imm = 1024)
  RVTEST_TESTDATA_LOAD_INT(x6, x21) # load rs1: x21 = 0x00000001
     fd4:	00032a83          	lw	x21,0(x6)
     fd8:	00430313          	addi	x6,x6,4

00000fdc <I_slti_cg_cr_rs1_imm_edges_rs1val_0x1_immval_0x400>:
I_slti_cg_cr_rs1_imm_edges_rs1val_0x1_immval_0x400:
  slti x27, x21, 1024 # perform operation
     fdc:	400aad93          	slti	x27,x21,1024
  # Check if x27 contains the expected result. x19 is the signature ptr, x8 is the link ptr, x7 is a temp reg.
  RVTEST_SIGUPD(x19, x8, x7, x27, I_slti_cg_cr_rs1_imm_edges_rs1val_0x1_immval_0x400, I_slti_cg_cr_rs1_imm_edges_rs1val_0x1_immval_0x400_str)
     fe0:	0009a383          	lw	x7,0(x19)
     fe4:	01b38863          	beq	x7,x27,ff4 <I_slti_cg_cr_rs1_imm_edges_rs1val_0x1_immval_0x400+0x18>
     fe8:	4cc0246f          	jal	x8,34b4 <failedtest_x8_x7>
     fec:	00000fdc          	.word	0x00000fdc
     ff0:	00009f73          	.word	0x00009f73
     ff4:	00498993          	addi	x19,x19,4

# Testcase cr_rs1_imm_edges (rs1 = 0x00000001, imm = 1795)
  RVTEST_TESTDATA_LOAD_INT(x6, x16) # load rs1: x16 = 0x00000001
     ff8:	00032803          	lw	x16,0(x6)
     ffc:	00430313          	addi	x6,x6,4

00001000 <I_slti_cg_cr_rs1_imm_edges_rs1val_0x1_immval_0x703>:
I_slti_cg_cr_rs1_imm_edges_rs1val_0x1_immval_0x703:
  slti x3, x16, 1795 # perform operation
    1000:	70382193          	slti	x3,x16,1795
  # Check if x3 contains the expected result. x19 is the signature ptr, x8 is the link ptr, x7 is a temp reg.
  RVTEST_SIGUPD(x19, x8, x7, x3, I_slti_cg_cr_rs1_imm_edges_rs1val_0x1_immval_0x703, I_slti_cg_cr_rs1_imm_edges_rs1val_0x1_immval_0x703_str)
    1004:	0009a383          	lw	x7,0(x19)
    1008:	00338863          	beq	x7,x3,1018 <I_slti_cg_cr_rs1_imm_edges_rs1val_0x1_immval_0x703+0x18>
    100c:	4a80246f          	jal	x8,34b4 <failedtest_x8_x7>
    1010:	00001000          	.word	0x00001000
    1014:	00009fc3          	.word	0x00009fc3
    1018:	00498993          	addi	x19,x19,4

# Testcase cr_rs1_imm_edges (rs1 = 0x00000001, imm = 2047)
  RVTEST_TESTDATA_LOAD_INT(x6, x1) # load rs1: x1 = 0x00000001
    101c:	00032083          	lw	x1,0(x6)
    1020:	00430313          	addi	x6,x6,4

00001024 <I_slti_cg_cr_rs1_imm_edges_rs1val_0x1_immval_0x7ff>:
I_slti_cg_cr_rs1_imm_edges_rs1val_0x1_immval_0x7ff:
  slti x16, x1, 2047 # perform operation
    1024:	7ff0a813          	slti	x16,x1,2047
  # Check if x16 contains the expected result. x19 is the signature ptr, x8 is the link ptr, x7 is a temp reg.
  RVTEST_SIGUPD(x19, x8, x7, x16, I_slti_cg_cr_rs1_imm_edges_rs1val_0x1_immval_0x7ff, I_slti_cg_cr_rs1_imm_edges_rs1val_0x1_immval_0x7ff_str)
    1028:	0009a383          	lw	x7,0(x19)
    102c:	01038863          	beq	x7,x16,103c <I_slti_cg_cr_rs1_imm_edges_rs1val_0x1_immval_0x7ff+0x18>
    1030:	4840246f          	jal	x8,34b4 <failedtest_x8_x7>
    1034:	00001024          	.word	0x00001024
    1038:	0000a013          	.word	0x0000a013
    103c:	00498993          	addi	x19,x19,4

# Testcase cr_rs1_imm_edges (rs1 = 0x00000001, imm = -2048)
  RVTEST_TESTDATA_LOAD_INT(x6, x29) # load rs1: x29 = 0x00000001
    1040:	00032e83          	lw	x29,0(x6)
    1044:	00430313          	addi	x6,x6,4

00001048 <I_slti_cg_cr_rs1_imm_edges_rs1val_0x1_immval_m0x800>:
I_slti_cg_cr_rs1_imm_edges_rs1val_0x1_immval_m0x800:
  slti x20, x29, -2048 # perform operation
    1048:	800eaa13          	slti	x20,x29,-2048
  # Check if x20 contains the expected result. x19 is the signature ptr, x8 is the link ptr, x7 is a temp reg.
  RVTEST_SIGUPD(x19, x8, x7, x20, I_slti_cg_cr_rs1_imm_edges_rs1val_0x1_immval_m0x800, I_slti_cg_cr_rs1_imm_edges_rs1val_0x1_immval_m0x800_str)
    104c:	0009a383          	lw	x7,0(x19)
    1050:	01438863          	beq	x7,x20,1060 <I_slti_cg_cr_rs1_imm_edges_rs1val_0x1_immval_m0x800+0x18>
    1054:	4600246f          	jal	x8,34b4 <failedtest_x8_x7>
    1058:	00001048          	.word	0x00001048
    105c:	0000a063          	.word	0x0000a063
    1060:	00498993          	addi	x19,x19,4

# Testcase cr_rs1_imm_edges (rs1 = 0x00000001, imm = -2047)
  RVTEST_TESTDATA_LOAD_INT(x6, x20) # load rs1: x20 = 0x00000001
    1064:	00032a03          	lw	x20,0(x6)
    1068:	00430313          	addi	x6,x6,4

0000106c <I_slti_cg_cr_rs1_imm_edges_rs1val_0x1_immval_m0x7ff>:
I_slti_cg_cr_rs1_imm_edges_rs1val_0x1_immval_m0x7ff:
  slti x31, x20, -2047 # perform operation
    106c:	801a2f93          	slti	x31,x20,-2047
  # Check if x31 contains the expected result. x19 is the signature ptr, x8 is the link ptr, x7 is a temp reg.
  RVTEST_SIGUPD(x19, x8, x7, x31, I_slti_cg_cr_rs1_imm_edges_rs1val_0x1_immval_m0x7ff, I_slti_cg_cr_rs1_imm_edges_rs1val_0x1_immval_m0x7ff_str)
    1070:	0009a383          	lw	x7,0(x19)
    1074:	01f38863          	beq	x7,x31,1084 <I_slti_cg_cr_rs1_imm_edges_rs1val_0x1_immval_m0x7ff+0x18>
    1078:	43c0246f          	jal	x8,34b4 <failedtest_x8_x7>
    107c:	0000106c          	.word	0x0000106c
    1080:	0000a0b4          	.word	0x0000a0b4
    1084:	00498993          	addi	x19,x19,4

# Testcase cr_rs1_imm_edges (rs1 = 0x00000001, imm = -2)
  RVTEST_TESTDATA_LOAD_INT(x6, x30) # load rs1: x30 = 0x00000001
    1088:	00032f03          	lw	x30,0(x6)
    108c:	00430313          	addi	x6,x6,4

00001090 <I_slti_cg_cr_rs1_imm_edges_rs1val_0x1_immval_m0x2>:
I_slti_cg_cr_rs1_imm_edges_rs1val_0x1_immval_m0x2:
  slti x26, x30, -2 # perform operation
    1090:	ffef2d13          	slti	x26,x30,-2
  # Check if x26 contains the expected result. x19 is the signature ptr, x8 is the link ptr, x7 is a temp reg.
  RVTEST_SIGUPD(x19, x8, x7, x26, I_slti_cg_cr_rs1_imm_edges_rs1val_0x1_immval_m0x2, I_slti_cg_cr_rs1_imm_edges_rs1val_0x1_immval_m0x2_str)
    1094:	0009a383          	lw	x7,0(x19)
    1098:	01a38863          	beq	x7,x26,10a8 <I_slti_cg_cr_rs1_imm_edges_rs1val_0x1_immval_m0x2+0x18>
    109c:	4180246f          	jal	x8,34b4 <failedtest_x8_x7>
    10a0:	00001090          	.word	0x00001090
    10a4:	0000a105          	.word	0x0000a105
    10a8:	00498993          	addi	x19,x19,4

# Testcase cr_rs1_imm_edges (rs1 = 0x00000001, imm = -1)
  RVTEST_TESTDATA_LOAD_INT(x6, x29) # load rs1: x29 = 0x00000001
    10ac:	00032e83          	lw	x29,0(x6)
    10b0:	00430313          	addi	x6,x6,4

000010b4 <I_slti_cg_cr_rs1_imm_edges_rs1val_0x1_immval_m0x1>:
I_slti_cg_cr_rs1_imm_edges_rs1val_0x1_immval_m0x1:
  slti x14, x29, -1 # perform operation
    10b4:	fffea713          	slti	x14,x29,-1
  # Check if x14 contains the expected result. x19 is the signature ptr, x8 is the link ptr, x7 is a temp reg.
  RVTEST_SIGUPD(x19, x8, x7, x14, I_slti_cg_cr_rs1_imm_edges_rs1val_0x1_immval_m0x1, I_slti_cg_cr_rs1_imm_edges_rs1val_0x1_immval_m0x1_str)
    10b8:	0009a383          	lw	x7,0(x19)
    10bc:	00e38863          	beq	x7,x14,10cc <I_slti_cg_cr_rs1_imm_edges_rs1val_0x1_immval_m0x1+0x18>
    10c0:	3f40246f          	jal	x8,34b4 <failedtest_x8_x7>
    10c4:	000010b4          	.word	0x000010b4
    10c8:	0000a154          	.word	0x0000a154
    10cc:	00498993          	addi	x19,x19,4

# Testcase cr_rs1_imm_edges (rs1 = 0x00000002, imm = 0)
  RVTEST_TESTDATA_LOAD_INT(x6, x22) # load rs1: x22 = 0x00000002
    10d0:	00032b03          	lw	x22,0(x6)
    10d4:	00430313          	addi	x6,x6,4

000010d8 <I_slti_cg_cr_rs1_imm_edges_rs1val_0x2_immval_0x0>:
I_slti_cg_cr_rs1_imm_edges_rs1val_0x2_immval_0x0:
  slti x11, x22, 0 # perform operation
    10d8:	000b2593          	slti	x11,x22,0
  # Check if x11 contains the expected result. x19 is the signature ptr, x8 is the link ptr, x7 is a temp reg.
  RVTEST_SIGUPD(x19, x8, x7, x11, I_slti_cg_cr_rs1_imm_edges_rs1val_0x2_immval_0x0, I_slti_cg_cr_rs1_imm_edges_rs1val_0x2_immval_0x0_str)
    10dc:	0009a383          	lw	x7,0(x19)
    10e0:	00b38863          	beq	x7,x11,10f0 <I_slti_cg_cr_rs1_imm_edges_rs1val_0x2_immval_0x0+0x18>
    10e4:	3d00246f          	jal	x8,34b4 <failedtest_x8_x7>
    10e8:	000010d8          	.word	0x000010d8
    10ec:	0000a1a3          	.word	0x0000a1a3
    10f0:	00498993          	addi	x19,x19,4

# Testcase cr_rs1_imm_edges (rs1 = 0x00000002, imm = 1)
  RVTEST_TESTDATA_LOAD_INT(x6, x14) # load rs1: x14 = 0x00000002
    10f4:	00032703          	lw	x14,0(x6)
    10f8:	00430313          	addi	x6,x6,4

000010fc <I_slti_cg_cr_rs1_imm_edges_rs1val_0x2_immval_0x1>:
I_slti_cg_cr_rs1_imm_edges_rs1val_0x2_immval_0x1:
  slti x24, x14, 1 # perform operation
    10fc:	00172c13          	slti	x24,x14,1
  # Check if x24 contains the expected result. x19 is the signature ptr, x8 is the link ptr, x7 is a temp reg.
  RVTEST_SIGUPD(x19, x8, x7, x24, I_slti_cg_cr_rs1_imm_edges_rs1val_0x2_immval_0x1, I_slti_cg_cr_rs1_imm_edges_rs1val_0x2_immval_0x1_str)
    1100:	0009a383          	lw	x7,0(x19)
    1104:	01838863          	beq	x7,x24,1114 <I_slti_cg_cr_rs1_imm_edges_rs1val_0x2_immval_0x1+0x18>
    1108:	3ac0246f          	jal	x8,34b4 <failedtest_x8_x7>
    110c:	000010fc          	.word	0x000010fc
    1110:	0000a1f1          	.word	0x0000a1f1
    1114:	00498993          	addi	x19,x19,4

# Testcase cr_rs1_imm_edges (rs1 = 0x00000002, imm = 2)
  RVTEST_TESTDATA_LOAD_INT(x6, x20) # load rs1: x20 = 0x00000002
    1118:	00032a03          	lw	x20,0(x6)
    111c:	00430313          	addi	x6,x6,4

00001120 <I_slti_cg_cr_rs1_imm_edges_rs1val_0x2_immval_0x2>:
I_slti_cg_cr_rs1_imm_edges_rs1val_0x2_immval_0x2:
  slti x28, x20, 2 # perform operation
    1120:	002a2e13          	slti	x28,x20,2
  # Check if x28 contains the expected result. x19 is the signature ptr, x8 is the link ptr, x7 is a temp reg.
  RVTEST_SIGUPD(x19, x8, x7, x28, I_slti_cg_cr_rs1_imm_edges_rs1val_0x2_immval_0x2, I_slti_cg_cr_rs1_imm_edges_rs1val_0x2_immval_0x2_str)
    1124:	0009a383          	lw	x7,0(x19)
    1128:	01c38863          	beq	x7,x28,1138 <I_slti_cg_cr_rs1_imm_edges_rs1val_0x2_immval_0x2+0x18>
    112c:	3880246f          	jal	x8,34b4 <failedtest_x8_x7>
    1130:	00001120          	.word	0x00001120
    1134:	0000a23f          	.word	0x0000a23f
    1138:	00498993          	addi	x19,x19,4

# Testcase cr_rs1_imm_edges (rs1 = 0x00000002, imm = 3)
  RVTEST_TESTDATA_LOAD_INT(x6, x9) # load rs1: x9 = 0x00000002
    113c:	00032483          	lw	x9,0(x6)
    1140:	00430313          	addi	x6,x6,4

00001144 <I_slti_cg_cr_rs1_imm_edges_rs1val_0x2_immval_0x3>:
I_slti_cg_cr_rs1_imm_edges_rs1val_0x2_immval_0x3:
  slti x29, x9, 3 # perform operation
    1144:	0034ae93          	slti	x29,x9,3
  # Check if x29 contains the expected result. x19 is the signature ptr, x8 is the link ptr, x7 is a temp reg.
  RVTEST_SIGUPD(x19, x8, x7, x29, I_slti_cg_cr_rs1_imm_edges_rs1val_0x2_immval_0x3, I_slti_cg_cr_rs1_imm_edges_rs1val_0x2_immval_0x3_str)
    1148:	0009a383          	lw	x7,0(x19)
    114c:	01d38863          	beq	x7,x29,115c <I_slti_cg_cr_rs1_imm_edges_rs1val_0x2_immval_0x3+0x18>
    1150:	3640246f          	jal	x8,34b4 <failedtest_x8_x7>
    1154:	00001144          	.word	0x00001144
    1158:	0000a28d          	.word	0x0000a28d
    115c:	00498993          	addi	x19,x19,4

# Testcase cr_rs1_imm_edges (rs1 = 0x00000002, imm = 4)
  RVTEST_TESTDATA_LOAD_INT(x6, x17) # load rs1: x17 = 0x00000002
    1160:	00032883          	lw	x17,0(x6)
    1164:	00430313          	addi	x6,x6,4

00001168 <I_slti_cg_cr_rs1_imm_edges_rs1val_0x2_immval_0x4>:
I_slti_cg_cr_rs1_imm_edges_rs1val_0x2_immval_0x4:
  slti x12, x17, 4 # perform operation
    1168:	0048a613          	slti	x12,x17,4
  # Check if x12 contains the expected result. x19 is the signature ptr, x8 is the link ptr, x7 is a temp reg.
  RVTEST_SIGUPD(x19, x8, x7, x12, I_slti_cg_cr_rs1_imm_edges_rs1val_0x2_immval_0x4, I_slti_cg_cr_rs1_imm_edges_rs1val_0x2_immval_0x4_str)
    116c:	0009a383          	lw	x7,0(x19)
    1170:	00c38863          	beq	x7,x12,1180 <I_slti_cg_cr_rs1_imm_edges_rs1val_0x2_immval_0x4+0x18>
    1174:	3400246f          	jal	x8,34b4 <failedtest_x8_x7>
    1178:	00001168          	.word	0x00001168
    117c:	0000a2db          	.word	0x0000a2db
    1180:	00498993          	addi	x19,x19,4

# Testcase cr_rs1_imm_edges (rs1 = 0x00000002, imm = 8)
  RVTEST_TESTDATA_LOAD_INT(x6, x23) # load rs1: x23 = 0x00000002
    1184:	00032b83          	lw	x23,0(x6)
    1188:	00430313          	addi	x6,x6,4

0000118c <I_slti_cg_cr_rs1_imm_edges_rs1val_0x2_immval_0x8>:
I_slti_cg_cr_rs1_imm_edges_rs1val_0x2_immval_0x8:
  slti x22, x23, 8 # perform operation
    118c:	008bab13          	slti	x22,x23,8
  # Check if x22 contains the expected result. x19 is the signature ptr, x8 is the link ptr, x7 is a temp reg.
  RVTEST_SIGUPD(x19, x8, x7, x22, I_slti_cg_cr_rs1_imm_edges_rs1val_0x2_immval_0x8, I_slti_cg_cr_rs1_imm_edges_rs1val_0x2_immval_0x8_str)
    1190:	0009a383          	lw	x7,0(x19)
    1194:	01638863          	beq	x7,x22,11a4 <I_slti_cg_cr_rs1_imm_edges_rs1val_0x2_immval_0x8+0x18>
    1198:	31c0246f          	jal	x8,34b4 <failedtest_x8_x7>
    119c:	0000118c          	.word	0x0000118c
    11a0:	0000a329          	.word	0x0000a329
    11a4:	00498993          	addi	x19,x19,4

# Testcase cr_rs1_imm_edges (rs1 = 0x00000002, imm = 16)
  RVTEST_TESTDATA_LOAD_INT(x6, x2) # load rs1: x2 = 0x00000002
    11a8:	00032103          	lw	x2,0(x6)
    11ac:	00430313          	addi	x6,x6,4

000011b0 <I_slti_cg_cr_rs1_imm_edges_rs1val_0x2_immval_0x10>:
I_slti_cg_cr_rs1_imm_edges_rs1val_0x2_immval_0x10:
  slti x9, x2, 16 # perform operation
    11b0:	01012493          	slti	x9,x2,16
  # Check if x9 contains the expected result. x19 is the signature ptr, x8 is the link ptr, x7 is a temp reg.
  RVTEST_SIGUPD(x19, x8, x7, x9, I_slti_cg_cr_rs1_imm_edges_rs1val_0x2_immval_0x10, I_slti_cg_cr_rs1_imm_edges_rs1val_0x2_immval_0x10_str)
    11b4:	0009a383          	lw	x7,0(x19)
    11b8:	00938863          	beq	x7,x9,11c8 <I_slti_cg_cr_rs1_imm_edges_rs1val_0x2_immval_0x10+0x18>
    11bc:	2f80246f          	jal	x8,34b4 <failedtest_x8_x7>
    11c0:	000011b0          	.word	0x000011b0
    11c4:	0000a377          	.word	0x0000a377
    11c8:	00498993          	addi	x19,x19,4

# Testcase cr_rs1_imm_edges (rs1 = 0x00000002, imm = 32)
  RVTEST_TESTDATA_LOAD_INT(x6, x23) # load rs1: x23 = 0x00000002
    11cc:	00032b83          	lw	x23,0(x6)
    11d0:	00430313          	addi	x6,x6,4

000011d4 <I_slti_cg_cr_rs1_imm_edges_rs1val_0x2_immval_0x20>:
I_slti_cg_cr_rs1_imm_edges_rs1val_0x2_immval_0x20:
  slti x26, x23, 32 # perform operation
    11d4:	020bad13          	slti	x26,x23,32
  # Check if x26 contains the expected result. x19 is the signature ptr, x8 is the link ptr, x7 is a temp reg.
  RVTEST_SIGUPD(x19, x8, x7, x26, I_slti_cg_cr_rs1_imm_edges_rs1val_0x2_immval_0x20, I_slti_cg_cr_rs1_imm_edges_rs1val_0x2_immval_0x20_str)
    11d8:	0009a383          	lw	x7,0(x19)
    11dc:	01a38863          	beq	x7,x26,11ec <I_slti_cg_cr_rs1_imm_edges_rs1val_0x2_immval_0x20+0x18>
    11e0:	2d40246f          	jal	x8,34b4 <failedtest_x8_x7>
    11e4:	000011d4          	.word	0x000011d4
    11e8:	0000a3c6          	.word	0x0000a3c6
    11ec:	00498993          	addi	x19,x19,4

# Testcase cr_rs1_imm_edges (rs1 = 0x00000002, imm = 64)
  RVTEST_TESTDATA_LOAD_INT(x6, x30) # load rs1: x30 = 0x00000002
    11f0:	00032f03          	lw	x30,0(x6)
    11f4:	00430313          	addi	x6,x6,4

000011f8 <I_slti_cg_cr_rs1_imm_edges_rs1val_0x2_immval_0x40>:
I_slti_cg_cr_rs1_imm_edges_rs1val_0x2_immval_0x40:
  slti x2, x30, 64 # perform operation
    11f8:	040f2113          	slti	x2,x30,64
  # Check if x2 contains the expected result. x19 is the signature ptr, x8 is the link ptr, x7 is a temp reg.
  RVTEST_SIGUPD(x19, x8, x7, x2, I_slti_cg_cr_rs1_imm_edges_rs1val_0x2_immval_0x40, I_slti_cg_cr_rs1_imm_edges_rs1val_0x2_immval_0x40_str)
    11fc:	0009a383          	lw	x7,0(x19)
    1200:	00238863          	beq	x7,x2,1210 <I_slti_cg_cr_rs1_imm_edges_rs1val_0x2_immval_0x40+0x18>
    1204:	2b00246f          	jal	x8,34b4 <failedtest_x8_x7>
    1208:	000011f8          	.word	0x000011f8
    120c:	0000a415          	.word	0x0000a415
    1210:	00498993          	addi	x19,x19,4

# Testcase cr_rs1_imm_edges (rs1 = 0x00000002, imm = 128)
  RVTEST_TESTDATA_LOAD_INT(x6, x15) # load rs1: x15 = 0x00000002
    1214:	00032783          	lw	x15,0(x6)
    1218:	00430313          	addi	x6,x6,4

0000121c <I_slti_cg_cr_rs1_imm_edges_rs1val_0x2_immval_0x80>:
I_slti_cg_cr_rs1_imm_edges_rs1val_0x2_immval_0x80:
  slti x3, x15, 128 # perform operation
    121c:	0807a193          	slti	x3,x15,128
  # Check if x3 contains the expected result. x19 is the signature ptr, x8 is the link ptr, x7 is a temp reg.
  RVTEST_SIGUPD(x19, x8, x7, x3, I_slti_cg_cr_rs1_imm_edges_rs1val_0x2_immval_0x80, I_slti_cg_cr_rs1_imm_edges_rs1val_0x2_immval_0x80_str)
    1220:	0009a383          	lw	x7,0(x19)
    1224:	00338863          	beq	x7,x3,1234 <I_slti_cg_cr_rs1_imm_edges_rs1val_0x2_immval_0x80+0x18>
    1228:	28c0246f          	jal	x8,34b4 <failedtest_x8_x7>
    122c:	0000121c          	.word	0x0000121c
    1230:	0000a464          	.word	0x0000a464
    1234:	00498993          	addi	x19,x19,4

# Testcase cr_rs1_imm_edges (rs1 = 0x00000002, imm = 256)
  RVTEST_TESTDATA_LOAD_INT(x6, x3) # load rs1: x3 = 0x00000002
    1238:	00032183          	lw	x3,0(x6)
    123c:	00430313          	addi	x6,x6,4

00001240 <I_slti_cg_cr_rs1_imm_edges_rs1val_0x2_immval_0x100>:
I_slti_cg_cr_rs1_imm_edges_rs1val_0x2_immval_0x100:
  slti x26, x3, 256 # perform operation
    1240:	1001ad13          	slti	x26,x3,256
  # Check if x26 contains the expected result. x19 is the signature ptr, x8 is the link ptr, x7 is a temp reg.
  RVTEST_SIGUPD(x19, x8, x7, x26, I_slti_cg_cr_rs1_imm_edges_rs1val_0x2_immval_0x100, I_slti_cg_cr_rs1_imm_edges_rs1val_0x2_immval_0x100_str)
    1244:	0009a383          	lw	x7,0(x19)
    1248:	01a38863          	beq	x7,x26,1258 <I_slti_cg_cr_rs1_imm_edges_rs1val_0x2_immval_0x100+0x18>
    124c:	2680246f          	jal	x8,34b4 <failedtest_x8_x7>
    1250:	00001240          	.word	0x00001240
    1254:	0000a4b3          	.word	0x0000a4b3
    1258:	00498993          	addi	x19,x19,4

# Testcase cr_rs1_imm_edges (rs1 = 0x00000002, imm = 512)
  RVTEST_TESTDATA_LOAD_INT(x6, x10) # load rs1: x10 = 0x00000002
    125c:	00032503          	lw	x10,0(x6)
    1260:	00430313          	addi	x6,x6,4

00001264 <I_slti_cg_cr_rs1_imm_edges_rs1val_0x2_immval_0x200>:
I_slti_cg_cr_rs1_imm_edges_rs1val_0x2_immval_0x200:
  slti x12, x10, 512 # perform operation
    1264:	20052613          	slti	x12,x10,512
  # Check if x12 contains the expected result. x19 is the signature ptr, x8 is the link ptr, x7 is a temp reg.
  RVTEST_SIGUPD(x19, x8, x7, x12, I_slti_cg_cr_rs1_imm_edges_rs1val_0x2_immval_0x200, I_slti_cg_cr_rs1_imm_edges_rs1val_0x2_immval_0x200_str)
    1268:	0009a383          	lw	x7,0(x19)
    126c:	00c38863          	beq	x7,x12,127c <I_slti_cg_cr_rs1_imm_edges_rs1val_0x2_immval_0x200+0x18>
    1270:	2440246f          	jal	x8,34b4 <failedtest_x8_x7>
    1274:	00001264          	.word	0x00001264
    1278:	0000a503          	.word	0x0000a503
    127c:	00498993          	addi	x19,x19,4

# Testcase cr_rs1_imm_edges (rs1 = 0x00000002, imm = 1023)
  RVTEST_TESTDATA_LOAD_INT(x6, x25) # load rs1: x25 = 0x00000002
    1280:	00032c83          	lw	x25,0(x6)
    1284:	00430313          	addi	x6,x6,4

00001288 <I_slti_cg_cr_rs1_imm_edges_rs1val_0x2_immval_0x3ff>:
I_slti_cg_cr_rs1_imm_edges_rs1val_0x2_immval_0x3ff:
  slti x22, x25, 1023 # perform operation
    1288:	3ffcab13          	slti	x22,x25,1023
  # Check if x22 contains the expected result. x19 is the signature ptr, x8 is the link ptr, x7 is a temp reg.
  RVTEST_SIGUPD(x19, x8, x7, x22, I_slti_cg_cr_rs1_imm_edges_rs1val_0x2_immval_0x3ff, I_slti_cg_cr_rs1_imm_edges_rs1val_0x2_immval_0x3ff_str)
    128c:	0009a383          	lw	x7,0(x19)
    1290:	01638863          	beq	x7,x22,12a0 <I_slti_cg_cr_rs1_imm_edges_rs1val_0x2_immval_0x3ff+0x18>
    1294:	2200246f          	jal	x8,34b4 <failedtest_x8_x7>
    1298:	00001288          	.word	0x00001288
    129c:	0000a553          	.word	0x0000a553
    12a0:	00498993          	addi	x19,x19,4

# Testcase cr_rs1_imm_edges (rs1 = 0x00000002, imm = 1024)
  RVTEST_TESTDATA_LOAD_INT(x6, x12) # load rs1: x12 = 0x00000002
    12a4:	00032603          	lw	x12,0(x6)
    12a8:	00430313          	addi	x6,x6,4

000012ac <I_slti_cg_cr_rs1_imm_edges_rs1val_0x2_immval_0x400>:
I_slti_cg_cr_rs1_imm_edges_rs1val_0x2_immval_0x400:
  slti x10, x12, 1024 # perform operation
    12ac:	40062513          	slti	x10,x12,1024
  # Check if x10 contains the expected result. x19 is the signature ptr, x8 is the link ptr, x7 is a temp reg.
  RVTEST_SIGUPD(x19, x8, x7, x10, I_slti_cg_cr_rs1_imm_edges_rs1val_0x2_immval_0x400, I_slti_cg_cr_rs1_imm_edges_rs1val_0x2_immval_0x400_str)
    12b0:	0009a383          	lw	x7,0(x19)
    12b4:	00a38863          	beq	x7,x10,12c4 <I_slti_cg_cr_rs1_imm_edges_rs1val_0x2_immval_0x400+0x18>
    12b8:	1fc0246f          	jal	x8,34b4 <failedtest_x8_x7>
    12bc:	000012ac          	.word	0x000012ac
    12c0:	0000a5a3          	.word	0x0000a5a3
    12c4:	00498993          	addi	x19,x19,4

# Testcase cr_rs1_imm_edges (rs1 = 0x00000002, imm = 1795)
  RVTEST_TESTDATA_LOAD_INT(x6, x2) # load rs1: x2 = 0x00000002
    12c8:	00032103          	lw	x2,0(x6)
    12cc:	00430313          	addi	x6,x6,4

000012d0 <I_slti_cg_cr_rs1_imm_edges_rs1val_0x2_immval_0x703>:
I_slti_cg_cr_rs1_imm_edges_rs1val_0x2_immval_0x703:
  slti x21, x2, 1795 # perform operation
    12d0:	70312a93          	slti	x21,x2,1795
  # Check if x21 contains the expected result. x19 is the signature ptr, x8 is the link ptr, x7 is a temp reg.
  RVTEST_SIGUPD(x19, x8, x7, x21, I_slti_cg_cr_rs1_imm_edges_rs1val_0x2_immval_0x703, I_slti_cg_cr_rs1_imm_edges_rs1val_0x2_immval_0x703_str)
    12d4:	0009a383          	lw	x7,0(x19)
    12d8:	01538863          	beq	x7,x21,12e8 <I_slti_cg_cr_rs1_imm_edges_rs1val_0x2_immval_0x703+0x18>
    12dc:	1d80246f          	jal	x8,34b4 <failedtest_x8_x7>
    12e0:	000012d0          	.word	0x000012d0
    12e4:	0000a5f3          	.word	0x0000a5f3
    12e8:	00498993          	addi	x19,x19,4

# Testcase cr_rs1_imm_edges (rs1 = 0x00000002, imm = 2047)
  RVTEST_TESTDATA_LOAD_INT(x6, x23) # load rs1: x23 = 0x00000002
    12ec:	00032b83          	lw	x23,0(x6)
    12f0:	00430313          	addi	x6,x6,4

000012f4 <I_slti_cg_cr_rs1_imm_edges_rs1val_0x2_immval_0x7ff>:
I_slti_cg_cr_rs1_imm_edges_rs1val_0x2_immval_0x7ff:
  slti x14, x23, 2047 # perform operation
    12f4:	7ffba713          	slti	x14,x23,2047
  # Check if x14 contains the expected result. x19 is the signature ptr, x8 is the link ptr, x7 is a temp reg.
  RVTEST_SIGUPD(x19, x8, x7, x14, I_slti_cg_cr_rs1_imm_edges_rs1val_0x2_immval_0x7ff, I_slti_cg_cr_rs1_imm_edges_rs1val_0x2_immval_0x7ff_str)
    12f8:	0009a383          	lw	x7,0(x19)
    12fc:	00e38863          	beq	x7,x14,130c <I_slti_cg_cr_rs1_imm_edges_rs1val_0x2_immval_0x7ff+0x18>
    1300:	1b40246f          	jal	x8,34b4 <failedtest_x8_x7>
    1304:	000012f4          	.word	0x000012f4
    1308:	0000a643          	.word	0x0000a643
    130c:	00498993          	addi	x19,x19,4

# Testcase cr_rs1_imm_edges (rs1 = 0x00000002, imm = -2048)
  RVTEST_TESTDATA_LOAD_INT(x6, x27) # load rs1: x27 = 0x00000002
    1310:	00032d83          	lw	x27,0(x6)
    1314:	00430313          	addi	x6,x6,4

00001318 <I_slti_cg_cr_rs1_imm_edges_rs1val_0x2_immval_m0x800>:
I_slti_cg_cr_rs1_imm_edges_rs1val_0x2_immval_m0x800:
  slti x14, x27, -2048 # perform operation
    1318:	800da713          	slti	x14,x27,-2048
  # Check if x14 contains the expected result. x19 is the signature ptr, x8 is the link ptr, x7 is a temp reg.
  RVTEST_SIGUPD(x19, x8, x7, x14, I_slti_cg_cr_rs1_imm_edges_rs1val_0x2_immval_m0x800, I_slti_cg_cr_rs1_imm_edges_rs1val_0x2_immval_m0x800_str)
    131c:	0009a383          	lw	x7,0(x19)
    1320:	00e38863          	beq	x7,x14,1330 <I_slti_cg_cr_rs1_imm_edges_rs1val_0x2_immval_m0x800+0x18>
    1324:	1900246f          	jal	x8,34b4 <failedtest_x8_x7>
    1328:	00001318          	.word	0x00001318
    132c:	0000a693          	.word	0x0000a693
    1330:	00498993          	addi	x19,x19,4

# Testcase cr_rs1_imm_edges (rs1 = 0x00000002, imm = -2047)
  RVTEST_TESTDATA_LOAD_INT(x6, x21) # load rs1: x21 = 0x00000002
    1334:	00032a83          	lw	x21,0(x6)
    1338:	00430313          	addi	x6,x6,4

0000133c <I_slti_cg_cr_rs1_imm_edges_rs1val_0x2_immval_m0x7ff>:
I_slti_cg_cr_rs1_imm_edges_rs1val_0x2_immval_m0x7ff:
  slti x27, x21, -2047 # perform operation
    133c:	801aad93          	slti	x27,x21,-2047
  # Check if x27 contains the expected result. x19 is the signature ptr, x8 is the link ptr, x7 is a temp reg.
  RVTEST_SIGUPD(x19, x8, x7, x27, I_slti_cg_cr_rs1_imm_edges_rs1val_0x2_immval_m0x7ff, I_slti_cg_cr_rs1_imm_edges_rs1val_0x2_immval_m0x7ff_str)
    1340:	0009a383          	lw	x7,0(x19)
    1344:	01b38863          	beq	x7,x27,1354 <I_slti_cg_cr_rs1_imm_edges_rs1val_0x2_immval_m0x7ff+0x18>
    1348:	16c0246f          	jal	x8,34b4 <failedtest_x8_x7>
    134c:	0000133c          	.word	0x0000133c
    1350:	0000a6e4          	.word	0x0000a6e4
    1354:	00498993          	addi	x19,x19,4

# Testcase cr_rs1_imm_edges (rs1 = 0x00000002, imm = -2)
  RVTEST_TESTDATA_LOAD_INT(x6, x22) # load rs1: x22 = 0x00000002
    1358:	00032b03          	lw	x22,0(x6)
    135c:	00430313          	addi	x6,x6,4

00001360 <I_slti_cg_cr_rs1_imm_edges_rs1val_0x2_immval_m0x2>:
I_slti_cg_cr_rs1_imm_edges_rs1val_0x2_immval_m0x2:
  slti x15, x22, -2 # perform operation
    1360:	ffeb2793          	slti	x15,x22,-2
  # Check if x15 contains the expected result. x19 is the signature ptr, x8 is the link ptr, x7 is a temp reg.
  RVTEST_SIGUPD(x19, x8, x7, x15, I_slti_cg_cr_rs1_imm_edges_rs1val_0x2_immval_m0x2, I_slti_cg_cr_rs1_imm_edges_rs1val_0x2_immval_m0x2_str)
    1364:	0009a383          	lw	x7,0(x19)
    1368:	00f38863          	beq	x7,x15,1378 <I_slti_cg_cr_rs1_imm_edges_rs1val_0x2_immval_m0x2+0x18>
    136c:	1480246f          	jal	x8,34b4 <failedtest_x8_x7>
    1370:	00001360          	.word	0x00001360
    1374:	0000a735          	.word	0x0000a735
    1378:	00498993          	addi	x19,x19,4

# Testcase cr_rs1_imm_edges (rs1 = 0x00000002, imm = -1)
  RVTEST_TESTDATA_LOAD_INT(x6, x30) # load rs1: x30 = 0x00000002
    137c:	00032f03          	lw	x30,0(x6)
    1380:	00430313          	addi	x6,x6,4

00001384 <I_slti_cg_cr_rs1_imm_edges_rs1val_0x2_immval_m0x1>:
I_slti_cg_cr_rs1_imm_edges_rs1val_0x2_immval_m0x1:
  slti x24, x30, -1 # perform operation
    1384:	ffff2c13          	slti	x24,x30,-1
  # Check if x24 contains the expected result. x19 is the signature ptr, x8 is the link ptr, x7 is a temp reg.
  RVTEST_SIGUPD(x19, x8, x7, x24, I_slti_cg_cr_rs1_imm_edges_rs1val_0x2_immval_m0x1, I_slti_cg_cr_rs1_imm_edges_rs1val_0x2_immval_m0x1_str)
    1388:	0009a383          	lw	x7,0(x19)
    138c:	01838863          	beq	x7,x24,139c <I_slti_cg_cr_rs1_imm_edges_rs1val_0x2_immval_m0x1+0x18>
    1390:	1240246f          	jal	x8,34b4 <failedtest_x8_x7>
    1394:	00001384          	.word	0x00001384
    1398:	0000a784          	.word	0x0000a784
    139c:	00498993          	addi	x19,x19,4

# Testcase cr_rs1_imm_edges (rs1 = 0x80000000, imm = 0)
  RVTEST_TESTDATA_LOAD_INT(x6, x3) # load rs1: x3 = 0x80000000
    13a0:	00032183          	lw	x3,0(x6)
    13a4:	00430313          	addi	x6,x6,4

000013a8 <I_slti_cg_cr_rs1_imm_edges_rs1val_0x80000000_immval_0x0>:
I_slti_cg_cr_rs1_imm_edges_rs1val_0x80000000_immval_0x0:
  slti x14, x3, 0 # perform operation
    13a8:	0001a713          	slti	x14,x3,0
  # Check if x14 contains the expected result. x19 is the signature ptr, x8 is the link ptr, x7 is a temp reg.
  RVTEST_SIGUPD(x19, x8, x7, x14, I_slti_cg_cr_rs1_imm_edges_rs1val_0x80000000_immval_0x0, I_slti_cg_cr_rs1_imm_edges_rs1val_0x80000000_immval_0x0_str)
    13ac:	0009a383          	lw	x7,0(x19)
    13b0:	00e38863          	beq	x7,x14,13c0 <I_slti_cg_cr_rs1_imm_edges_rs1val_0x80000000_immval_0x0+0x18>
    13b4:	1000246f          	jal	x8,34b4 <failedtest_x8_x7>
    13b8:	000013a8          	.word	0x000013a8
    13bc:	0000a7d3          	.word	0x0000a7d3
    13c0:	00498993          	addi	x19,x19,4

# Testcase cr_rs1_imm_edges (rs1 = 0x80000000, imm = 1)
  RVTEST_TESTDATA_LOAD_INT(x6, x31) # load rs1: x31 = 0x80000000
    13c4:	00032f83          	lw	x31,0(x6)
    13c8:	00430313          	addi	x6,x6,4

000013cc <I_slti_cg_cr_rs1_imm_edges_rs1val_0x80000000_immval_0x1>:
I_slti_cg_cr_rs1_imm_edges_rs1val_0x80000000_immval_0x1:
  slti x23, x31, 1 # perform operation
    13cc:	001fab93          	slti	x23,x31,1
  # Check if x23 contains the expected result. x19 is the signature ptr, x8 is the link ptr, x7 is a temp reg.
  RVTEST_SIGUPD(x19, x8, x7, x23, I_slti_cg_cr_rs1_imm_edges_rs1val_0x80000000_immval_0x1, I_slti_cg_cr_rs1_imm_edges_rs1val_0x80000000_immval_0x1_str)
    13d0:	0009a383          	lw	x7,0(x19)
    13d4:	01738863          	beq	x7,x23,13e4 <I_slti_cg_cr_rs1_imm_edges_rs1val_0x80000000_immval_0x1+0x18>
    13d8:	0dc0246f          	jal	x8,34b4 <failedtest_x8_x7>
    13dc:	000013cc          	.word	0x000013cc
    13e0:	0000a828          	.word	0x0000a828
    13e4:	00498993          	addi	x19,x19,4

# Testcase cr_rs1_imm_edges (rs1 = 0x80000000, imm = 2)
  RVTEST_TESTDATA_LOAD_INT(x6, x30) # load rs1: x30 = 0x80000000
    13e8:	00032f03          	lw	x30,0(x6)
    13ec:	00430313          	addi	x6,x6,4

000013f0 <I_slti_cg_cr_rs1_imm_edges_rs1val_0x80000000_immval_0x2>:
I_slti_cg_cr_rs1_imm_edges_rs1val_0x80000000_immval_0x2:
  slti x25, x30, 2 # perform operation
    13f0:	002f2c93          	slti	x25,x30,2
  # Check if x25 contains the expected result. x19 is the signature ptr, x8 is the link ptr, x7 is a temp reg.
  RVTEST_SIGUPD(x19, x8, x7, x25, I_slti_cg_cr_rs1_imm_edges_rs1val_0x80000000_immval_0x2, I_slti_cg_cr_rs1_imm_edges_rs1val_0x80000000_immval_0x2_str)
    13f4:	0009a383          	lw	x7,0(x19)
    13f8:	01938863          	beq	x7,x25,1408 <I_slti_cg_cr_rs1_imm_edges_rs1val_0x80000000_immval_0x2+0x18>
    13fc:	0b80246f          	jal	x8,34b4 <failedtest_x8_x7>
    1400:	000013f0          	.word	0x000013f0
    1404:	0000a87d          	.word	0x0000a87d
    1408:	00498993          	addi	x19,x19,4

# Testcase cr_rs1_imm_edges (rs1 = 0x80000000, imm = 3)
  RVTEST_TESTDATA_LOAD_INT(x6, x23) # load rs1: x23 = 0x80000000
    140c:	00032b83          	lw	x23,0(x6)
    1410:	00430313          	addi	x6,x6,4

00001414 <I_slti_cg_cr_rs1_imm_edges_rs1val_0x80000000_immval_0x3>:
I_slti_cg_cr_rs1_imm_edges_rs1val_0x80000000_immval_0x3:
  slti x27, x23, 3 # perform operation
    1414:	003bad93          	slti	x27,x23,3
  # Check if x27 contains the expected result. x19 is the signature ptr, x8 is the link ptr, x7 is a temp reg.
  RVTEST_SIGUPD(x19, x8, x7, x27, I_slti_cg_cr_rs1_imm_edges_rs1val_0x80000000_immval_0x3, I_slti_cg_cr_rs1_imm_edges_rs1val_0x80000000_immval_0x3_str)
    1418:	0009a383          	lw	x7,0(x19)
    141c:	01b38863          	beq	x7,x27,142c <I_slti_cg_cr_rs1_imm_edges_rs1val_0x80000000_immval_0x3+0x18>
    1420:	0940246f          	jal	x8,34b4 <failedtest_x8_x7>
    1424:	00001414          	.word	0x00001414
    1428:	0000a8d2          	.word	0x0000a8d2
    142c:	00498993          	addi	x19,x19,4

# Testcase cr_rs1_imm_edges (rs1 = 0x80000000, imm = 4)
  RVTEST_TESTDATA_LOAD_INT(x6, x2) # load rs1: x2 = 0x80000000
    1430:	00032103          	lw	x2,0(x6)
    1434:	00430313          	addi	x6,x6,4

00001438 <I_slti_cg_cr_rs1_imm_edges_rs1val_0x80000000_immval_0x4>:
I_slti_cg_cr_rs1_imm_edges_rs1val_0x80000000_immval_0x4:
  slti x18, x2, 4 # perform operation
    1438:	00412913          	slti	x18,x2,4
  # Check if x18 contains the expected result. x19 is the signature ptr, x8 is the link ptr, x7 is a temp reg.
  RVTEST_SIGUPD(x19, x8, x7, x18, I_slti_cg_cr_rs1_imm_edges_rs1val_0x80000000_immval_0x4, I_slti_cg_cr_rs1_imm_edges_rs1val_0x80000000_immval_0x4_str)
    143c:	0009a383          	lw	x7,0(x19)
    1440:	01238863          	beq	x7,x18,1450 <I_slti_cg_cr_rs1_imm_edges_rs1val_0x80000000_immval_0x4+0x18>
    1444:	0700246f          	jal	x8,34b4 <failedtest_x8_x7>
    1448:	00001438          	.word	0x00001438
    144c:	0000a927          	.word	0x0000a927
    1450:	00498993          	addi	x19,x19,4

# Testcase cr_rs1_imm_edges (rs1 = 0x80000000, imm = 8)
  RVTEST_TESTDATA_LOAD_INT(x6, x31) # load rs1: x31 = 0x80000000
    1454:	00032f83          	lw	x31,0(x6)
    1458:	00430313          	addi	x6,x6,4

0000145c <I_slti_cg_cr_rs1_imm_edges_rs1val_0x80000000_immval_0x8>:
I_slti_cg_cr_rs1_imm_edges_rs1val_0x80000000_immval_0x8:
  slti x9, x31, 8 # perform operation
    145c:	008fa493          	slti	x9,x31,8
  # Check if x9 contains the expected result. x19 is the signature ptr, x8 is the link ptr, x7 is a temp reg.
  RVTEST_SIGUPD(x19, x8, x7, x9, I_slti_cg_cr_rs1_imm_edges_rs1val_0x80000000_immval_0x8, I_slti_cg_cr_rs1_imm_edges_rs1val_0x80000000_immval_0x8_str)
    1460:	0009a383          	lw	x7,0(x19)
    1464:	00938863          	beq	x7,x9,1474 <I_slti_cg_cr_rs1_imm_edges_rs1val_0x80000000_immval_0x8+0x18>
    1468:	04c0246f          	jal	x8,34b4 <failedtest_x8_x7>
    146c:	0000145c          	.word	0x0000145c
    1470:	0000a97c          	.word	0x0000a97c
    1474:	00498993          	addi	x19,x19,4

# Testcase cr_rs1_imm_edges (rs1 = 0x80000000, imm = 16)
  RVTEST_TESTDATA_LOAD_INT(x6, x14) # load rs1: x14 = 0x80000000
    1478:	00032703          	lw	x14,0(x6)
    147c:	00430313          	addi	x6,x6,4

00001480 <I_slti_cg_cr_rs1_imm_edges_rs1val_0x80000000_immval_0x10>:
I_slti_cg_cr_rs1_imm_edges_rs1val_0x80000000_immval_0x10:
  slti x11, x14, 16 # perform operation
    1480:	01072593          	slti	x11,x14,16
  # Check if x11 contains the expected result. x19 is the signature ptr, x8 is the link ptr, x7 is a temp reg.
  RVTEST_SIGUPD(x19, x8, x7, x11, I_slti_cg_cr_rs1_imm_edges_rs1val_0x80000000_immval_0x10, I_slti_cg_cr_rs1_imm_edges_rs1val_0x80000000_immval_0x10_str)
    1484:	0009a383          	lw	x7,0(x19)
    1488:	00b38863          	beq	x7,x11,1498 <I_slti_cg_cr_rs1_imm_edges_rs1val_0x80000000_immval_0x10+0x18>
    148c:	0280246f          	jal	x8,34b4 <failedtest_x8_x7>
    1490:	00001480          	.word	0x00001480
    1494:	0000a9d1          	.word	0x0000a9d1
    1498:	00498993          	addi	x19,x19,4

# Testcase cr_rs1_imm_edges (rs1 = 0x80000000, imm = 32)
  RVTEST_TESTDATA_LOAD_INT(x6, x26) # load rs1: x26 = 0x80000000
    149c:	00032d03          	lw	x26,0(x6)
    14a0:	00430313          	addi	x6,x6,4

000014a4 <I_slti_cg_cr_rs1_imm_edges_rs1val_0x80000000_immval_0x20>:
I_slti_cg_cr_rs1_imm_edges_rs1val_0x80000000_immval_0x20:
  slti x14, x26, 32 # perform operation
    14a4:	020d2713          	slti	x14,x26,32
  # Check if x14 contains the expected result. x19 is the signature ptr, x8 is the link ptr, x7 is a temp reg.
  RVTEST_SIGUPD(x19, x8, x7, x14, I_slti_cg_cr_rs1_imm_edges_rs1val_0x80000000_immval_0x20, I_slti_cg_cr_rs1_imm_edges_rs1val_0x80000000_immval_0x20_str)
    14a8:	0009a383          	lw	x7,0(x19)
    14ac:	00e38863          	beq	x7,x14,14bc <I_slti_cg_cr_rs1_imm_edges_rs1val_0x80000000_immval_0x20+0x18>
    14b0:	0040246f          	jal	x8,34b4 <failedtest_x8_x7>
    14b4:	000014a4          	.word	0x000014a4
    14b8:	0000aa27          	.word	0x0000aa27
    14bc:	00498993          	addi	x19,x19,4

# Testcase cr_rs1_imm_edges (rs1 = 0x80000000, imm = 64)
  RVTEST_TESTDATA_LOAD_INT(x6, x16) # load rs1: x16 = 0x80000000
    14c0:	00032803          	lw	x16,0(x6)
    14c4:	00430313          	addi	x6,x6,4

000014c8 <I_slti_cg_cr_rs1_imm_edges_rs1val_0x80000000_immval_0x40>:
I_slti_cg_cr_rs1_imm_edges_rs1val_0x80000000_immval_0x40:
  slti x24, x16, 64 # perform operation
    14c8:	04082c13          	slti	x24,x16,64
  # Check if x24 contains the expected result. x19 is the signature ptr, x8 is the link ptr, x7 is a temp reg.
  RVTEST_SIGUPD(x19, x8, x7, x24, I_slti_cg_cr_rs1_imm_edges_rs1val_0x80000000_immval_0x40, I_slti_cg_cr_rs1_imm_edges_rs1val_0x80000000_immval_0x40_str)
    14cc:	0009a383          	lw	x7,0(x19)
    14d0:	01838863          	beq	x7,x24,14e0 <I_slti_cg_cr_rs1_imm_edges_rs1val_0x80000000_immval_0x40+0x18>
    14d4:	7e10146f          	jal	x8,34b4 <failedtest_x8_x7>
    14d8:	000014c8          	.word	0x000014c8
    14dc:	0000aa7d          	.word	0x0000aa7d
    14e0:	00498993          	addi	x19,x19,4

# Testcase cr_rs1_imm_edges (rs1 = 0x80000000, imm = 128)
  RVTEST_TESTDATA_LOAD_INT(x6, x11) # load rs1: x11 = 0x80000000
    14e4:	00032583          	lw	x11,0(x6)
    14e8:	00430313          	addi	x6,x6,4

000014ec <I_slti_cg_cr_rs1_imm_edges_rs1val_0x80000000_immval_0x80>:
I_slti_cg_cr_rs1_imm_edges_rs1val_0x80000000_immval_0x80:
  slti x22, x11, 128 # perform operation
    14ec:	0805ab13          	slti	x22,x11,128
  # Check if x22 contains the expected result. x19 is the signature ptr, x8 is the link ptr, x7 is a temp reg.
  RVTEST_SIGUPD(x19, x8, x7, x22, I_slti_cg_cr_rs1_imm_edges_rs1val_0x80000000_immval_0x80, I_slti_cg_cr_rs1_imm_edges_rs1val_0x80000000_immval_0x80_str)
    14f0:	0009a383          	lw	x7,0(x19)
    14f4:	01638863          	beq	x7,x22,1504 <I_slti_cg_cr_rs1_imm_edges_rs1val_0x80000000_immval_0x80+0x18>
    14f8:	7bd0146f          	jal	x8,34b4 <failedtest_x8_x7>
    14fc:	000014ec          	.word	0x000014ec
    1500:	0000aad3          	.word	0x0000aad3
    1504:	00498993          	addi	x19,x19,4

# Testcase cr_rs1_imm_edges (rs1 = 0x80000000, imm = 256)
  RVTEST_TESTDATA_LOAD_INT(x6, x14) # load rs1: x14 = 0x80000000
    1508:	00032703          	lw	x14,0(x6)
    150c:	00430313          	addi	x6,x6,4

00001510 <I_slti_cg_cr_rs1_imm_edges_rs1val_0x80000000_immval_0x100>:
I_slti_cg_cr_rs1_imm_edges_rs1val_0x80000000_immval_0x100:
  slti x22, x14, 256 # perform operation
    1510:	10072b13          	slti	x22,x14,256
  # Check if x22 contains the expected result. x19 is the signature ptr, x8 is the link ptr, x7 is a temp reg.
  RVTEST_SIGUPD(x19, x8, x7, x22, I_slti_cg_cr_rs1_imm_edges_rs1val_0x80000000_immval_0x100, I_slti_cg_cr_rs1_imm_edges_rs1val_0x80000000_immval_0x100_str)
    1514:	0009a383          	lw	x7,0(x19)
    1518:	01638863          	beq	x7,x22,1528 <I_slti_cg_cr_rs1_imm_edges_rs1val_0x80000000_immval_0x100+0x18>
    151c:	7990146f          	jal	x8,34b4 <failedtest_x8_x7>
    1520:	00001510          	.word	0x00001510
    1524:	0000ab29          	.word	0x0000ab29
    1528:	00498993          	addi	x19,x19,4

# Testcase cr_rs1_imm_edges (rs1 = 0x80000000, imm = 512)
  RVTEST_TESTDATA_LOAD_INT(x6, x2) # load rs1: x2 = 0x80000000
    152c:	00032103          	lw	x2,0(x6)
    1530:	00430313          	addi	x6,x6,4

00001534 <I_slti_cg_cr_rs1_imm_edges_rs1val_0x80000000_immval_0x200>:
I_slti_cg_cr_rs1_imm_edges_rs1val_0x80000000_immval_0x200:
  slti x9, x2, 512 # perform operation
    1534:	20012493          	slti	x9,x2,512
  # Check if x9 contains the expected result. x19 is the signature ptr, x8 is the link ptr, x7 is a temp reg.
  RVTEST_SIGUPD(x19, x8, x7, x9, I_slti_cg_cr_rs1_imm_edges_rs1val_0x80000000_immval_0x200, I_slti_cg_cr_rs1_imm_edges_rs1val_0x80000000_immval_0x200_str)
    1538:	0009a383          	lw	x7,0(x19)
    153c:	00938863          	beq	x7,x9,154c <I_slti_cg_cr_rs1_imm_edges_rs1val_0x80000000_immval_0x200+0x18>
    1540:	7750146f          	jal	x8,34b4 <failedtest_x8_x7>
    1544:	00001534          	.word	0x00001534
    1548:	0000ab80          	.word	0x0000ab80
    154c:	00498993          	addi	x19,x19,4

# Testcase cr_rs1_imm_edges (rs1 = 0x80000000, imm = 1023)
  RVTEST_TESTDATA_LOAD_INT(x6, x17) # load rs1: x17 = 0x80000000
    1550:	00032883          	lw	x17,0(x6)
    1554:	00430313          	addi	x6,x6,4

00001558 <I_slti_cg_cr_rs1_imm_edges_rs1val_0x80000000_immval_0x3ff>:
I_slti_cg_cr_rs1_imm_edges_rs1val_0x80000000_immval_0x3ff:
  slti x2, x17, 1023 # perform operation
    1558:	3ff8a113          	slti	x2,x17,1023
  # Check if x2 contains the expected result. x19 is the signature ptr, x8 is the link ptr, x7 is a temp reg.
  RVTEST_SIGUPD(x19, x8, x7, x2, I_slti_cg_cr_rs1_imm_edges_rs1val_0x80000000_immval_0x3ff, I_slti_cg_cr_rs1_imm_edges_rs1val_0x80000000_immval_0x3ff_str)
    155c:	0009a383          	lw	x7,0(x19)
    1560:	00238863          	beq	x7,x2,1570 <I_slti_cg_cr_rs1_imm_edges_rs1val_0x80000000_immval_0x3ff+0x18>
    1564:	7510146f          	jal	x8,34b4 <failedtest_x8_x7>
    1568:	00001558          	.word	0x00001558
    156c:	0000abd7          	.word	0x0000abd7
    1570:	00498993          	addi	x19,x19,4

# Testcase cr_rs1_imm_edges (rs1 = 0x80000000, imm = 1024)
  RVTEST_TESTDATA_LOAD_INT(x6, x31) # load rs1: x31 = 0x80000000
    1574:	00032f83          	lw	x31,0(x6)
    1578:	00430313          	addi	x6,x6,4

0000157c <I_slti_cg_cr_rs1_imm_edges_rs1val_0x80000000_immval_0x400>:
I_slti_cg_cr_rs1_imm_edges_rs1val_0x80000000_immval_0x400:
  slti x5, x31, 1024 # perform operation
    157c:	400fa293          	slti	x5,x31,1024
  # Check if x5 contains the expected result. x19 is the signature ptr, x8 is the link ptr, x7 is a temp reg.
  RVTEST_SIGUPD(x19, x8, x7, x5, I_slti_cg_cr_rs1_imm_edges_rs1val_0x80000000_immval_0x400, I_slti_cg_cr_rs1_imm_edges_rs1val_0x80000000_immval_0x400_str)
    1580:	0009a383          	lw	x7,0(x19)
    1584:	00538863          	beq	x7,x5,1594 <I_slti_cg_cr_rs1_imm_edges_rs1val_0x80000000_immval_0x400+0x18>
    1588:	72d0146f          	jal	x8,34b4 <failedtest_x8_x7>
    158c:	0000157c          	.word	0x0000157c
    1590:	0000ac2e          	.word	0x0000ac2e
    1594:	00498993          	addi	x19,x19,4

# Testcase cr_rs1_imm_edges (rs1 = 0x80000000, imm = 1795)
  RVTEST_TESTDATA_LOAD_INT(x6, x21) # load rs1: x21 = 0x80000000
    1598:	00032a83          	lw	x21,0(x6)
    159c:	00430313          	addi	x6,x6,4

000015a0 <I_slti_cg_cr_rs1_imm_edges_rs1val_0x80000000_immval_0x703>:
I_slti_cg_cr_rs1_imm_edges_rs1val_0x80000000_immval_0x703:
  slti x11, x21, 1795 # perform operation
    15a0:	703aa593          	slti	x11,x21,1795
  # Check if x11 contains the expected result. x19 is the signature ptr, x8 is the link ptr, x7 is a temp reg.
  RVTEST_SIGUPD(x19, x8, x7, x11, I_slti_cg_cr_rs1_imm_edges_rs1val_0x80000000_immval_0x703, I_slti_cg_cr_rs1_imm_edges_rs1val_0x80000000_immval_0x703_str)
    15a4:	0009a383          	lw	x7,0(x19)
    15a8:	00b38863          	beq	x7,x11,15b8 <I_slti_cg_cr_rs1_imm_edges_rs1val_0x80000000_immval_0x703+0x18>
    15ac:	7090146f          	jal	x8,34b4 <failedtest_x8_x7>
    15b0:	000015a0          	.word	0x000015a0
    15b4:	0000ac85          	.word	0x0000ac85
    15b8:	00498993          	addi	x19,x19,4

# Testcase cr_rs1_imm_edges (rs1 = 0x80000000, imm = 2047)
  RVTEST_TESTDATA_LOAD_INT(x6, x1) # load rs1: x1 = 0x80000000
    15bc:	00032083          	lw	x1,0(x6)
    15c0:	00430313          	addi	x6,x6,4

000015c4 <I_slti_cg_cr_rs1_imm_edges_rs1val_0x80000000_immval_0x7ff>:
I_slti_cg_cr_rs1_imm_edges_rs1val_0x80000000_immval_0x7ff:
  slti x20, x1, 2047 # perform operation
    15c4:	7ff0aa13          	slti	x20,x1,2047
  # Check if x20 contains the expected result. x19 is the signature ptr, x8 is the link ptr, x7 is a temp reg.
  RVTEST_SIGUPD(x19, x8, x7, x20, I_slti_cg_cr_rs1_imm_edges_rs1val_0x80000000_immval_0x7ff, I_slti_cg_cr_rs1_imm_edges_rs1val_0x80000000_immval_0x7ff_str)
    15c8:	0009a383          	lw	x7,0(x19)
    15cc:	01438863          	beq	x7,x20,15dc <I_slti_cg_cr_rs1_imm_edges_rs1val_0x80000000_immval_0x7ff+0x18>
    15d0:	6e50146f          	jal	x8,34b4 <failedtest_x8_x7>
    15d4:	000015c4          	.word	0x000015c4
    15d8:	0000acdc          	.word	0x0000acdc
    15dc:	00498993          	addi	x19,x19,4

# Testcase cr_rs1_imm_edges (rs1 = 0x80000000, imm = -2048)
  RVTEST_TESTDATA_LOAD_INT(x6, x29) # load rs1: x29 = 0x80000000
    15e0:	00032e83          	lw	x29,0(x6)
    15e4:	00430313          	addi	x6,x6,4

000015e8 <I_slti_cg_cr_rs1_imm_edges_rs1val_0x80000000_immval_m0x800>:
I_slti_cg_cr_rs1_imm_edges_rs1val_0x80000000_immval_m0x800:
  slti x22, x29, -2048 # perform operation
    15e8:	800eab13          	slti	x22,x29,-2048
  # Check if x22 contains the expected result. x19 is the signature ptr, x8 is the link ptr, x7 is a temp reg.
  RVTEST_SIGUPD(x19, x8, x7, x22, I_slti_cg_cr_rs1_imm_edges_rs1val_0x80000000_immval_m0x800, I_slti_cg_cr_rs1_imm_edges_rs1val_0x80000000_immval_m0x800_str)
    15ec:	0009a383          	lw	x7,0(x19)
    15f0:	01638863          	beq	x7,x22,1600 <I_slti_cg_cr_rs1_imm_edges_rs1val_0x80000000_immval_m0x800+0x18>
    15f4:	6c10146f          	jal	x8,34b4 <failedtest_x8_x7>
    15f8:	000015e8          	.word	0x000015e8
    15fc:	0000ad33          	.word	0x0000ad33
    1600:	00498993          	addi	x19,x19,4

# Testcase cr_rs1_imm_edges (rs1 = 0x80000000, imm = -2047)
  RVTEST_TESTDATA_LOAD_INT(x6, x21) # load rs1: x21 = 0x80000000
    1604:	00032a83          	lw	x21,0(x6)
    1608:	00430313          	addi	x6,x6,4

0000160c <I_slti_cg_cr_rs1_imm_edges_rs1val_0x80000000_immval_m0x7ff>:
I_slti_cg_cr_rs1_imm_edges_rs1val_0x80000000_immval_m0x7ff:
  slti x22, x21, -2047 # perform operation
    160c:	801aab13          	slti	x22,x21,-2047
  # Check if x22 contains the expected result. x19 is the signature ptr, x8 is the link ptr, x7 is a temp reg.
  RVTEST_SIGUPD(x19, x8, x7, x22, I_slti_cg_cr_rs1_imm_edges_rs1val_0x80000000_immval_m0x7ff, I_slti_cg_cr_rs1_imm_edges_rs1val_0x80000000_immval_m0x7ff_str)
    1610:	0009a383          	lw	x7,0(x19)
    1614:	01638863          	beq	x7,x22,1624 <I_slti_cg_cr_rs1_imm_edges_rs1val_0x80000000_immval_m0x7ff+0x18>
    1618:	69d0146f          	jal	x8,34b4 <failedtest_x8_x7>
    161c:	0000160c          	.word	0x0000160c
    1620:	0000ad8b          	.word	0x0000ad8b
    1624:	00498993          	addi	x19,x19,4

# Testcase cr_rs1_imm_edges (rs1 = 0x80000000, imm = -2)
  RVTEST_TESTDATA_LOAD_INT(x6, x29) # load rs1: x29 = 0x80000000
    1628:	00032e83          	lw	x29,0(x6)
    162c:	00430313          	addi	x6,x6,4

00001630 <I_slti_cg_cr_rs1_imm_edges_rs1val_0x80000000_immval_m0x2>:
I_slti_cg_cr_rs1_imm_edges_rs1val_0x80000000_immval_m0x2:
  slti x26, x29, -2 # perform operation
    1630:	ffeead13          	slti	x26,x29,-2
  # Check if x26 contains the expected result. x19 is the signature ptr, x8 is the link ptr, x7 is a temp reg.
  RVTEST_SIGUPD(x19, x8, x7, x26, I_slti_cg_cr_rs1_imm_edges_rs1val_0x80000000_immval_m0x2, I_slti_cg_cr_rs1_imm_edges_rs1val_0x80000000_immval_m0x2_str)
    1634:	0009a383          	lw	x7,0(x19)
    1638:	01a38863          	beq	x7,x26,1648 <I_slti_cg_cr_rs1_imm_edges_rs1val_0x80000000_immval_m0x2+0x18>
    163c:	6790146f          	jal	x8,34b4 <failedtest_x8_x7>
    1640:	00001630          	.word	0x00001630
    1644:	0000ade3          	.word	0x0000ade3
    1648:	00498993          	addi	x19,x19,4

# Testcase cr_rs1_imm_edges (rs1 = 0x80000000, imm = -1)
  RVTEST_TESTDATA_LOAD_INT(x6, x10) # load rs1: x10 = 0x80000000
    164c:	00032503          	lw	x10,0(x6)
    1650:	00430313          	addi	x6,x6,4

00001654 <I_slti_cg_cr_rs1_imm_edges_rs1val_0x80000000_immval_m0x1>:
I_slti_cg_cr_rs1_imm_edges_rs1val_0x80000000_immval_m0x1:
  slti x25, x10, -1 # perform operation
    1654:	fff52c93          	slti	x25,x10,-1
  # Check if x25 contains the expected result. x19 is the signature ptr, x8 is the link ptr, x7 is a temp reg.
  RVTEST_SIGUPD(x19, x8, x7, x25, I_slti_cg_cr_rs1_imm_edges_rs1val_0x80000000_immval_m0x1, I_slti_cg_cr_rs1_imm_edges_rs1val_0x80000000_immval_m0x1_str)
    1658:	0009a383          	lw	x7,0(x19)
    165c:	01938863          	beq	x7,x25,166c <I_slti_cg_cr_rs1_imm_edges_rs1val_0x80000000_immval_m0x1+0x18>
    1660:	6550146f          	jal	x8,34b4 <failedtest_x8_x7>
    1664:	00001654          	.word	0x00001654
    1668:	0000ae39          	.word	0x0000ae39
    166c:	00498993          	addi	x19,x19,4

# Testcase cr_rs1_imm_edges (rs1 = 0x80000001, imm = 0)
  RVTEST_TESTDATA_LOAD_INT(x6, x21) # load rs1: x21 = 0x80000001
    1670:	00032a83          	lw	x21,0(x6)
    1674:	00430313          	addi	x6,x6,4

00001678 <I_slti_cg_cr_rs1_imm_edges_rs1val_0x80000001_immval_0x0>:
I_slti_cg_cr_rs1_imm_edges_rs1val_0x80000001_immval_0x0:
  slti x4, x21, 0 # perform operation
    1678:	000aa213          	slti	x4,x21,0
  # Check if x4 contains the expected result. x19 is the signature ptr, x8 is the link ptr, x7 is a temp reg.
  RVTEST_SIGUPD(x19, x8, x7, x4, I_slti_cg_cr_rs1_imm_edges_rs1val_0x80000001_immval_0x0, I_slti_cg_cr_rs1_imm_edges_rs1val_0x80000001_immval_0x0_str)
    167c:	0009a383          	lw	x7,0(x19)
    1680:	00438863          	beq	x7,x4,1690 <I_slti_cg_cr_rs1_imm_edges_rs1val_0x80000001_immval_0x0+0x18>
    1684:	6310146f          	jal	x8,34b4 <failedtest_x8_x7>
    1688:	00001678          	.word	0x00001678
    168c:	0000ae8f          	.word	0x0000ae8f
    1690:	00498993          	addi	x19,x19,4

# Testcase cr_rs1_imm_edges (rs1 = 0x80000001, imm = 1)
  RVTEST_TESTDATA_LOAD_INT(x6, x29) # load rs1: x29 = 0x80000001
    1694:	00032e83          	lw	x29,0(x6)
    1698:	00430313          	addi	x6,x6,4

0000169c <I_slti_cg_cr_rs1_imm_edges_rs1val_0x80000001_immval_0x1>:
I_slti_cg_cr_rs1_imm_edges_rs1val_0x80000001_immval_0x1:
  slti x18, x29, 1 # perform operation
    169c:	001ea913          	slti	x18,x29,1
  # Check if x18 contains the expected result. x19 is the signature ptr, x8 is the link ptr, x7 is a temp reg.
  RVTEST_SIGUPD(x19, x8, x7, x18, I_slti_cg_cr_rs1_imm_edges_rs1val_0x80000001_immval_0x1, I_slti_cg_cr_rs1_imm_edges_rs1val_0x80000001_immval_0x1_str)
    16a0:	0009a383          	lw	x7,0(x19)
    16a4:	01238863          	beq	x7,x18,16b4 <I_slti_cg_cr_rs1_imm_edges_rs1val_0x80000001_immval_0x1+0x18>
    16a8:	60d0146f          	jal	x8,34b4 <failedtest_x8_x7>
    16ac:	0000169c          	.word	0x0000169c
    16b0:	0000aee4          	.word	0x0000aee4
    16b4:	00498993          	addi	x19,x19,4

# Testcase cr_rs1_imm_edges (rs1 = 0x80000001, imm = 2)
  RVTEST_TESTDATA_LOAD_INT(x6, x9) # load rs1: x9 = 0x80000001
    16b8:	00032483          	lw	x9,0(x6)
    16bc:	00430313          	addi	x6,x6,4

000016c0 <I_slti_cg_cr_rs1_imm_edges_rs1val_0x80000001_immval_0x2>:
I_slti_cg_cr_rs1_imm_edges_rs1val_0x80000001_immval_0x2:
  slti x30, x9, 2 # perform operation
    16c0:	0024af13          	slti	x30,x9,2
  # Check if x30 contains the expected result. x19 is the signature ptr, x8 is the link ptr, x7 is a temp reg.
  RVTEST_SIGUPD(x19, x8, x7, x30, I_slti_cg_cr_rs1_imm_edges_rs1val_0x80000001_immval_0x2, I_slti_cg_cr_rs1_imm_edges_rs1val_0x80000001_immval_0x2_str)
    16c4:	0009a383          	lw	x7,0(x19)
    16c8:	01e38863          	beq	x7,x30,16d8 <I_slti_cg_cr_rs1_imm_edges_rs1val_0x80000001_immval_0x2+0x18>
    16cc:	5e90146f          	jal	x8,34b4 <failedtest_x8_x7>
    16d0:	000016c0          	.word	0x000016c0
    16d4:	0000af39          	.word	0x0000af39
    16d8:	00498993          	addi	x19,x19,4

# Testcase cr_rs1_imm_edges (rs1 = 0x80000001, imm = 3)
  RVTEST_TESTDATA_LOAD_INT(x6, x24) # load rs1: x24 = 0x80000001
    16dc:	00032c03          	lw	x24,0(x6)
    16e0:	00430313          	addi	x6,x6,4

000016e4 <I_slti_cg_cr_rs1_imm_edges_rs1val_0x80000001_immval_0x3>:
I_slti_cg_cr_rs1_imm_edges_rs1val_0x80000001_immval_0x3:
  slti x27, x24, 3 # perform operation
    16e4:	003c2d93          	slti	x27,x24,3
  # Check if x27 contains the expected result. x19 is the signature ptr, x8 is the link ptr, x7 is a temp reg.
  RVTEST_SIGUPD(x19, x8, x7, x27, I_slti_cg_cr_rs1_imm_edges_rs1val_0x80000001_immval_0x3, I_slti_cg_cr_rs1_imm_edges_rs1val_0x80000001_immval_0x3_str)
    16e8:	0009a383          	lw	x7,0(x19)
    16ec:	01b38863          	beq	x7,x27,16fc <I_slti_cg_cr_rs1_imm_edges_rs1val_0x80000001_immval_0x3+0x18>
    16f0:	5c50146f          	jal	x8,34b4 <failedtest_x8_x7>
    16f4:	000016e4          	.word	0x000016e4
    16f8:	0000af8e          	.word	0x0000af8e
    16fc:	00498993          	addi	x19,x19,4

# Testcase cr_rs1_imm_edges (rs1 = 0x80000001, imm = 4)
  RVTEST_TESTDATA_LOAD_INT(x6, x22) # load rs1: x22 = 0x80000001
    1700:	00032b03          	lw	x22,0(x6)
    1704:	00430313          	addi	x6,x6,4

00001708 <I_slti_cg_cr_rs1_imm_edges_rs1val_0x80000001_immval_0x4>:
I_slti_cg_cr_rs1_imm_edges_rs1val_0x80000001_immval_0x4:
  slti x21, x22, 4 # perform operation
    1708:	004b2a93          	slti	x21,x22,4
  # Check if x21 contains the expected result. x19 is the signature ptr, x8 is the link ptr, x7 is a temp reg.
  RVTEST_SIGUPD(x19, x8, x7, x21, I_slti_cg_cr_rs1_imm_edges_rs1val_0x80000001_immval_0x4, I_slti_cg_cr_rs1_imm_edges_rs1val_0x80000001_immval_0x4_str)
    170c:	0009a383          	lw	x7,0(x19)
    1710:	01538863          	beq	x7,x21,1720 <I_slti_cg_cr_rs1_imm_edges_rs1val_0x80000001_immval_0x4+0x18>
    1714:	5a10146f          	jal	x8,34b4 <failedtest_x8_x7>
    1718:	00001708          	.word	0x00001708
    171c:	0000afe3          	.word	0x0000afe3
    1720:	00498993          	addi	x19,x19,4

# Testcase cr_rs1_imm_edges (rs1 = 0x80000001, imm = 8)
  RVTEST_TESTDATA_LOAD_INT(x6, x28) # load rs1: x28 = 0x80000001
    1724:	00032e03          	lw	x28,0(x6)
    1728:	00430313          	addi	x6,x6,4

0000172c <I_slti_cg_cr_rs1_imm_edges_rs1val_0x80000001_immval_0x8>:
I_slti_cg_cr_rs1_imm_edges_rs1val_0x80000001_immval_0x8:
  slti x2, x28, 8 # perform operation
    172c:	008e2113          	slti	x2,x28,8
  # Check if x2 contains the expected result. x19 is the signature ptr, x8 is the link ptr, x7 is a temp reg.
  RVTEST_SIGUPD(x19, x8, x7, x2, I_slti_cg_cr_rs1_imm_edges_rs1val_0x80000001_immval_0x8, I_slti_cg_cr_rs1_imm_edges_rs1val_0x80000001_immval_0x8_str)
    1730:	0009a383          	lw	x7,0(x19)
    1734:	00238863          	beq	x7,x2,1744 <I_slti_cg_cr_rs1_imm_edges_rs1val_0x80000001_immval_0x8+0x18>
    1738:	57d0146f          	jal	x8,34b4 <failedtest_x8_x7>
    173c:	0000172c          	.word	0x0000172c
    1740:	0000b038          	.word	0x0000b038
    1744:	00498993          	addi	x19,x19,4

# Testcase cr_rs1_imm_edges (rs1 = 0x80000001, imm = 16)
  RVTEST_TESTDATA_LOAD_INT(x6, x25) # load rs1: x25 = 0x80000001
    1748:	00032c83          	lw	x25,0(x6)
    174c:	00430313          	addi	x6,x6,4

00001750 <I_slti_cg_cr_rs1_imm_edges_rs1val_0x80000001_immval_0x10>:
I_slti_cg_cr_rs1_imm_edges_rs1val_0x80000001_immval_0x10:
  slti x2, x25, 16 # perform operation
    1750:	010ca113          	slti	x2,x25,16
  # Check if x2 contains the expected result. x19 is the signature ptr, x8 is the link ptr, x7 is a temp reg.
  RVTEST_SIGUPD(x19, x8, x7, x2, I_slti_cg_cr_rs1_imm_edges_rs1val_0x80000001_immval_0x10, I_slti_cg_cr_rs1_imm_edges_rs1val_0x80000001_immval_0x10_str)
    1754:	0009a383          	lw	x7,0(x19)
    1758:	00238863          	beq	x7,x2,1768 <I_slti_cg_cr_rs1_imm_edges_rs1val_0x80000001_immval_0x10+0x18>
    175c:	5590146f          	jal	x8,34b4 <failedtest_x8_x7>
    1760:	00001750          	.word	0x00001750
    1764:	0000b08d          	.word	0x0000b08d
    1768:	00498993          	addi	x19,x19,4

# Testcase cr_rs1_imm_edges (rs1 = 0x80000001, imm = 32)
  RVTEST_TESTDATA_LOAD_INT(x6, x24) # load rs1: x24 = 0x80000001
    176c:	00032c03          	lw	x24,0(x6)
    1770:	00430313          	addi	x6,x6,4

00001774 <I_slti_cg_cr_rs1_imm_edges_rs1val_0x80000001_immval_0x20>:
I_slti_cg_cr_rs1_imm_edges_rs1val_0x80000001_immval_0x20:
  slti x26, x24, 32 # perform operation
    1774:	020c2d13          	slti	x26,x24,32
  # Check if x26 contains the expected result. x19 is the signature ptr, x8 is the link ptr, x7 is a temp reg.
  RVTEST_SIGUPD(x19, x8, x7, x26, I_slti_cg_cr_rs1_imm_edges_rs1val_0x80000001_immval_0x20, I_slti_cg_cr_rs1_imm_edges_rs1val_0x80000001_immval_0x20_str)
    1778:	0009a383          	lw	x7,0(x19)
    177c:	01a38863          	beq	x7,x26,178c <I_slti_cg_cr_rs1_imm_edges_rs1val_0x80000001_immval_0x20+0x18>
    1780:	5350146f          	jal	x8,34b4 <failedtest_x8_x7>
    1784:	00001774          	.word	0x00001774
    1788:	0000b0e3          	.word	0x0000b0e3
    178c:	00498993          	addi	x19,x19,4

# Testcase cr_rs1_imm_edges (rs1 = 0x80000001, imm = 64)
  RVTEST_TESTDATA_LOAD_INT(x6, x30) # load rs1: x30 = 0x80000001
    1790:	00032f03          	lw	x30,0(x6)
    1794:	00430313          	addi	x6,x6,4

00001798 <I_slti_cg_cr_rs1_imm_edges_rs1val_0x80000001_immval_0x40>:
I_slti_cg_cr_rs1_imm_edges_rs1val_0x80000001_immval_0x40:
  slti x27, x30, 64 # perform operation
    1798:	040f2d93          	slti	x27,x30,64
  # Check if x27 contains the expected result. x19 is the signature ptr, x8 is the link ptr, x7 is a temp reg.
  RVTEST_SIGUPD(x19, x8, x7, x27, I_slti_cg_cr_rs1_imm_edges_rs1val_0x80000001_immval_0x40, I_slti_cg_cr_rs1_imm_edges_rs1val_0x80000001_immval_0x40_str)
    179c:	0009a383          	lw	x7,0(x19)
    17a0:	01b38863          	beq	x7,x27,17b0 <I_slti_cg_cr_rs1_imm_edges_rs1val_0x80000001_immval_0x40+0x18>
    17a4:	5110146f          	jal	x8,34b4 <failedtest_x8_x7>
    17a8:	00001798          	.word	0x00001798
    17ac:	0000b139          	.word	0x0000b139
    17b0:	00498993          	addi	x19,x19,4

# Testcase cr_rs1_imm_edges (rs1 = 0x80000001, imm = 128)
  RVTEST_TESTDATA_LOAD_INT(x6, x28) # load rs1: x28 = 0x80000001
    17b4:	00032e03          	lw	x28,0(x6)
    17b8:	00430313          	addi	x6,x6,4

000017bc <I_slti_cg_cr_rs1_imm_edges_rs1val_0x80000001_immval_0x80>:
I_slti_cg_cr_rs1_imm_edges_rs1val_0x80000001_immval_0x80:
  slti x10, x28, 128 # perform operation
    17bc:	080e2513          	slti	x10,x28,128
  # Check if x10 contains the expected result. x19 is the signature ptr, x8 is the link ptr, x7 is a temp reg.
  RVTEST_SIGUPD(x19, x8, x7, x10, I_slti_cg_cr_rs1_imm_edges_rs1val_0x80000001_immval_0x80, I_slti_cg_cr_rs1_imm_edges_rs1val_0x80000001_immval_0x80_str)
    17c0:	0009a383          	lw	x7,0(x19)
    17c4:	00a38863          	beq	x7,x10,17d4 <I_slti_cg_cr_rs1_imm_edges_rs1val_0x80000001_immval_0x80+0x18>
    17c8:	4ed0146f          	jal	x8,34b4 <failedtest_x8_x7>
    17cc:	000017bc          	.word	0x000017bc
    17d0:	0000b18f          	.word	0x0000b18f
    17d4:	00498993          	addi	x19,x19,4

# Testcase cr_rs1_imm_edges (rs1 = 0x80000001, imm = 256)
  RVTEST_TESTDATA_LOAD_INT(x6, x15) # load rs1: x15 = 0x80000001
    17d8:	00032783          	lw	x15,0(x6)
    17dc:	00430313          	addi	x6,x6,4

000017e0 <I_slti_cg_cr_rs1_imm_edges_rs1val_0x80000001_immval_0x100>:
I_slti_cg_cr_rs1_imm_edges_rs1val_0x80000001_immval_0x100:
  slti x3, x15, 256 # perform operation
    17e0:	1007a193          	slti	x3,x15,256
  # Check if x3 contains the expected result. x19 is the signature ptr, x8 is the link ptr, x7 is a temp reg.
  RVTEST_SIGUPD(x19, x8, x7, x3, I_slti_cg_cr_rs1_imm_edges_rs1val_0x80000001_immval_0x100, I_slti_cg_cr_rs1_imm_edges_rs1val_0x80000001_immval_0x100_str)
    17e4:	0009a383          	lw	x7,0(x19)
    17e8:	00338863          	beq	x7,x3,17f8 <I_slti_cg_cr_rs1_imm_edges_rs1val_0x80000001_immval_0x100+0x18>
    17ec:	4c90146f          	jal	x8,34b4 <failedtest_x8_x7>
    17f0:	000017e0          	.word	0x000017e0
    17f4:	0000b1e5          	.word	0x0000b1e5
    17f8:	00498993          	addi	x19,x19,4

# Testcase cr_rs1_imm_edges (rs1 = 0x80000001, imm = 512)
  RVTEST_TESTDATA_LOAD_INT(x6, x9) # load rs1: x9 = 0x80000001
    17fc:	00032483          	lw	x9,0(x6)
    1800:	00430313          	addi	x6,x6,4

00001804 <I_slti_cg_cr_rs1_imm_edges_rs1val_0x80000001_immval_0x200>:
I_slti_cg_cr_rs1_imm_edges_rs1val_0x80000001_immval_0x200:
  slti x29, x9, 512 # perform operation
    1804:	2004ae93          	slti	x29,x9,512
  # Check if x29 contains the expected result. x19 is the signature ptr, x8 is the link ptr, x7 is a temp reg.
  RVTEST_SIGUPD(x19, x8, x7, x29, I_slti_cg_cr_rs1_imm_edges_rs1val_0x80000001_immval_0x200, I_slti_cg_cr_rs1_imm_edges_rs1val_0x80000001_immval_0x200_str)
    1808:	0009a383          	lw	x7,0(x19)
    180c:	01d38863          	beq	x7,x29,181c <I_slti_cg_cr_rs1_imm_edges_rs1val_0x80000001_immval_0x200+0x18>
    1810:	4a50146f          	jal	x8,34b4 <failedtest_x8_x7>
    1814:	00001804          	.word	0x00001804
    1818:	0000b23c          	.word	0x0000b23c
    181c:	00498993          	addi	x19,x19,4

# Testcase cr_rs1_imm_edges (rs1 = 0x80000001, imm = 1023)
  RVTEST_TESTDATA_LOAD_INT(x6, x1) # load rs1: x1 = 0x80000001
    1820:	00032083          	lw	x1,0(x6)
    1824:	00430313          	addi	x6,x6,4

00001828 <I_slti_cg_cr_rs1_imm_edges_rs1val_0x80000001_immval_0x3ff>:
I_slti_cg_cr_rs1_imm_edges_rs1val_0x80000001_immval_0x3ff:
  slti x27, x1, 1023 # perform operation
    1828:	3ff0ad93          	slti	x27,x1,1023
  # Check if x27 contains the expected result. x19 is the signature ptr, x8 is the link ptr, x7 is a temp reg.
  RVTEST_SIGUPD(x19, x8, x7, x27, I_slti_cg_cr_rs1_imm_edges_rs1val_0x80000001_immval_0x3ff, I_slti_cg_cr_rs1_imm_edges_rs1val_0x80000001_immval_0x3ff_str)
    182c:	0009a383          	lw	x7,0(x19)
    1830:	01b38863          	beq	x7,x27,1840 <I_slti_cg_cr_rs1_imm_edges_rs1val_0x80000001_immval_0x3ff+0x18>
    1834:	4810146f          	jal	x8,34b4 <failedtest_x8_x7>
    1838:	00001828          	.word	0x00001828
    183c:	0000b293          	.word	0x0000b293
    1840:	00498993          	addi	x19,x19,4

# Testcase cr_rs1_imm_edges (rs1 = 0x80000001, imm = 1024)
  RVTEST_TESTDATA_LOAD_INT(x6, x3) # load rs1: x3 = 0x80000001
    1844:	00032183          	lw	x3,0(x6)
    1848:	00430313          	addi	x6,x6,4

0000184c <I_slti_cg_cr_rs1_imm_edges_rs1val_0x80000001_immval_0x400>:
I_slti_cg_cr_rs1_imm_edges_rs1val_0x80000001_immval_0x400:
  slti x18, x3, 1024 # perform operation
    184c:	4001a913          	slti	x18,x3,1024
  # Check if x18 contains the expected result. x19 is the signature ptr, x8 is the link ptr, x7 is a temp reg.
  RVTEST_SIGUPD(x19, x8, x7, x18, I_slti_cg_cr_rs1_imm_edges_rs1val_0x80000001_immval_0x400, I_slti_cg_cr_rs1_imm_edges_rs1val_0x80000001_immval_0x400_str)
    1850:	0009a383          	lw	x7,0(x19)
    1854:	01238863          	beq	x7,x18,1864 <I_slti_cg_cr_rs1_imm_edges_rs1val_0x80000001_immval_0x400+0x18>
    1858:	45d0146f          	jal	x8,34b4 <failedtest_x8_x7>
    185c:	0000184c          	.word	0x0000184c
    1860:	0000b2ea          	.word	0x0000b2ea
    1864:	00498993          	addi	x19,x19,4

# Testcase cr_rs1_imm_edges (rs1 = 0x80000001, imm = 1795)
  RVTEST_TESTDATA_LOAD_INT(x6, x24) # load rs1: x24 = 0x80000001
    1868:	00032c03          	lw	x24,0(x6)
    186c:	00430313          	addi	x6,x6,4

00001870 <I_slti_cg_cr_rs1_imm_edges_rs1val_0x80000001_immval_0x703>:
I_slti_cg_cr_rs1_imm_edges_rs1val_0x80000001_immval_0x703:
  slti x29, x24, 1795 # perform operation
    1870:	703c2e93          	slti	x29,x24,1795
  # Check if x29 contains the expected result. x19 is the signature ptr, x8 is the link ptr, x7 is a temp reg.
  RVTEST_SIGUPD(x19, x8, x7, x29, I_slti_cg_cr_rs1_imm_edges_rs1val_0x80000001_immval_0x703, I_slti_cg_cr_rs1_imm_edges_rs1val_0x80000001_immval_0x703_str)
    1874:	0009a383          	lw	x7,0(x19)
    1878:	01d38863          	beq	x7,x29,1888 <I_slti_cg_cr_rs1_imm_edges_rs1val_0x80000001_immval_0x703+0x18>
    187c:	4390146f          	jal	x8,34b4 <failedtest_x8_x7>
    1880:	00001870          	.word	0x00001870
    1884:	0000b341          	.word	0x0000b341
    1888:	00498993          	addi	x19,x19,4

# Testcase cr_rs1_imm_edges (rs1 = 0x80000001, imm = 2047)
  RVTEST_TESTDATA_LOAD_INT(x6, x11) # load rs1: x11 = 0x80000001
    188c:	00032583          	lw	x11,0(x6)
    1890:	00430313          	addi	x6,x6,4

00001894 <I_slti_cg_cr_rs1_imm_edges_rs1val_0x80000001_immval_0x7ff>:
I_slti_cg_cr_rs1_imm_edges_rs1val_0x80000001_immval_0x7ff:
  slti x25, x11, 2047 # perform operation
    1894:	7ff5ac93          	slti	x25,x11,2047
  # Check if x25 contains the expected result. x19 is the signature ptr, x8 is the link ptr, x7 is a temp reg.
  RVTEST_SIGUPD(x19, x8, x7, x25, I_slti_cg_cr_rs1_imm_edges_rs1val_0x80000001_immval_0x7ff, I_slti_cg_cr_rs1_imm_edges_rs1val_0x80000001_immval_0x7ff_str)
    1898:	0009a383          	lw	x7,0(x19)
    189c:	01938863          	beq	x7,x25,18ac <I_slti_cg_cr_rs1_imm_edges_rs1val_0x80000001_immval_0x7ff+0x18>
    18a0:	4150146f          	jal	x8,34b4 <failedtest_x8_x7>
    18a4:	00001894          	.word	0x00001894
    18a8:	0000b398          	.word	0x0000b398
    18ac:	00498993          	addi	x19,x19,4

# Testcase cr_rs1_imm_edges (rs1 = 0x80000001, imm = -2048)
  RVTEST_TESTDATA_LOAD_INT(x6, x13) # load rs1: x13 = 0x80000001
    18b0:	00032683          	lw	x13,0(x6)
    18b4:	00430313          	addi	x6,x6,4

000018b8 <I_slti_cg_cr_rs1_imm_edges_rs1val_0x80000001_immval_m0x800>:
I_slti_cg_cr_rs1_imm_edges_rs1val_0x80000001_immval_m0x800:
  slti x16, x13, -2048 # perform operation
    18b8:	8006a813          	slti	x16,x13,-2048
  # Check if x16 contains the expected result. x19 is the signature ptr, x8 is the link ptr, x7 is a temp reg.
  RVTEST_SIGUPD(x19, x8, x7, x16, I_slti_cg_cr_rs1_imm_edges_rs1val_0x80000001_immval_m0x800, I_slti_cg_cr_rs1_imm_edges_rs1val_0x80000001_immval_m0x800_str)
    18bc:	0009a383          	lw	x7,0(x19)
    18c0:	01038863          	beq	x7,x16,18d0 <I_slti_cg_cr_rs1_imm_edges_rs1val_0x80000001_immval_m0x800+0x18>
    18c4:	3f10146f          	jal	x8,34b4 <failedtest_x8_x7>
    18c8:	000018b8          	.word	0x000018b8
    18cc:	0000b3ef          	.word	0x0000b3ef
    18d0:	00498993          	addi	x19,x19,4

# Testcase cr_rs1_imm_edges (rs1 = 0x80000001, imm = -2047)
  RVTEST_TESTDATA_LOAD_INT(x6, x30) # load rs1: x30 = 0x80000001
    18d4:	00032f03          	lw	x30,0(x6)
    18d8:	00430313          	addi	x6,x6,4

000018dc <I_slti_cg_cr_rs1_imm_edges_rs1val_0x80000001_immval_m0x7ff>:
I_slti_cg_cr_rs1_imm_edges_rs1val_0x80000001_immval_m0x7ff:
  slti x29, x30, -2047 # perform operation
    18dc:	801f2e93          	slti	x29,x30,-2047
  # Check if x29 contains the expected result. x19 is the signature ptr, x8 is the link ptr, x7 is a temp reg.
  RVTEST_SIGUPD(x19, x8, x7, x29, I_slti_cg_cr_rs1_imm_edges_rs1val_0x80000001_immval_m0x7ff, I_slti_cg_cr_rs1_imm_edges_rs1val_0x80000001_immval_m0x7ff_str)
    18e0:	0009a383          	lw	x7,0(x19)
    18e4:	01d38863          	beq	x7,x29,18f4 <I_slti_cg_cr_rs1_imm_edges_rs1val_0x80000001_immval_m0x7ff+0x18>
    18e8:	3cd0146f          	jal	x8,34b4 <failedtest_x8_x7>
    18ec:	000018dc          	.word	0x000018dc
    18f0:	0000b447          	.word	0x0000b447
    18f4:	00498993          	addi	x19,x19,4

# Testcase cr_rs1_imm_edges (rs1 = 0x80000001, imm = -2)
  RVTEST_TESTDATA_LOAD_INT(x6, x9) # load rs1: x9 = 0x80000001
    18f8:	00032483          	lw	x9,0(x6)
    18fc:	00430313          	addi	x6,x6,4

00001900 <I_slti_cg_cr_rs1_imm_edges_rs1val_0x80000001_immval_m0x2>:
I_slti_cg_cr_rs1_imm_edges_rs1val_0x80000001_immval_m0x2:
  slti x18, x9, -2 # perform operation
    1900:	ffe4a913          	slti	x18,x9,-2
  # Check if x18 contains the expected result. x19 is the signature ptr, x8 is the link ptr, x7 is a temp reg.
  RVTEST_SIGUPD(x19, x8, x7, x18, I_slti_cg_cr_rs1_imm_edges_rs1val_0x80000001_immval_m0x2, I_slti_cg_cr_rs1_imm_edges_rs1val_0x80000001_immval_m0x2_str)
    1904:	0009a383          	lw	x7,0(x19)
    1908:	01238863          	beq	x7,x18,1918 <I_slti_cg_cr_rs1_imm_edges_rs1val_0x80000001_immval_m0x2+0x18>
    190c:	3a90146f          	jal	x8,34b4 <failedtest_x8_x7>
    1910:	00001900          	.word	0x00001900
    1914:	0000b49f          	.word	0x0000b49f
    1918:	00498993          	addi	x19,x19,4

# Testcase cr_rs1_imm_edges (rs1 = 0x80000001, imm = -1)
  RVTEST_TESTDATA_LOAD_INT(x6, x29) # load rs1: x29 = 0x80000001
    191c:	00032e83          	lw	x29,0(x6)
    1920:	00430313          	addi	x6,x6,4

00001924 <I_slti_cg_cr_rs1_imm_edges_rs1val_0x80000001_immval_m0x1>:
I_slti_cg_cr_rs1_imm_edges_rs1val_0x80000001_immval_m0x1:
  slti x5, x29, -1 # perform operation
    1924:	fffea293          	slti	x5,x29,-1
  # Check if x5 contains the expected result. x19 is the signature ptr, x8 is the link ptr, x7 is a temp reg.
  RVTEST_SIGUPD(x19, x8, x7, x5, I_slti_cg_cr_rs1_imm_edges_rs1val_0x80000001_immval_m0x1, I_slti_cg_cr_rs1_imm_edges_rs1val_0x80000001_immval_m0x1_str)
    1928:	0009a383          	lw	x7,0(x19)
    192c:	00538863          	beq	x7,x5,193c <I_slti_cg_cr_rs1_imm_edges_rs1val_0x80000001_immval_m0x1+0x18>
    1930:	3850146f          	jal	x8,34b4 <failedtest_x8_x7>
    1934:	00001924          	.word	0x00001924
    1938:	0000b4f5          	.word	0x0000b4f5
    193c:	00498993          	addi	x19,x19,4

# Testcase cr_rs1_imm_edges (rs1 = 0x7fffffff, imm = 0)
  RVTEST_TESTDATA_LOAD_INT(x6, x15) # load rs1: x15 = 0x7fffffff
    1940:	00032783          	lw	x15,0(x6)
    1944:	00430313          	addi	x6,x6,4

00001948 <I_slti_cg_cr_rs1_imm_edges_rs1val_0x7fffffff_immval_0x0>:
I_slti_cg_cr_rs1_imm_edges_rs1val_0x7fffffff_immval_0x0:
  slti x9, x15, 0 # perform operation
    1948:	0007a493          	slti	x9,x15,0
  # Check if x9 contains the expected result. x19 is the signature ptr, x8 is the link ptr, x7 is a temp reg.
  RVTEST_SIGUPD(x19, x8, x7, x9, I_slti_cg_cr_rs1_imm_edges_rs1val_0x7fffffff_immval_0x0, I_slti_cg_cr_rs1_imm_edges_rs1val_0x7fffffff_immval_0x0_str)
    194c:	0009a383          	lw	x7,0(x19)
    1950:	00938863          	beq	x7,x9,1960 <I_slti_cg_cr_rs1_imm_edges_rs1val_0x7fffffff_immval_0x0+0x18>
    1954:	3610146f          	jal	x8,34b4 <failedtest_x8_x7>
    1958:	00001948          	.word	0x00001948
    195c:	0000b54b          	.word	0x0000b54b
    1960:	00498993          	addi	x19,x19,4

# Testcase cr_rs1_imm_edges (rs1 = 0x7fffffff, imm = 1)
  RVTEST_TESTDATA_LOAD_INT(x6, x2) # load rs1: x2 = 0x7fffffff
    1964:	00032103          	lw	x2,0(x6)
    1968:	00430313          	addi	x6,x6,4

0000196c <I_slti_cg_cr_rs1_imm_edges_rs1val_0x7fffffff_immval_0x1>:
I_slti_cg_cr_rs1_imm_edges_rs1val_0x7fffffff_immval_0x1:
  slti x22, x2, 1 # perform operation
    196c:	00112b13          	slti	x22,x2,1
  # Check if x22 contains the expected result. x19 is the signature ptr, x8 is the link ptr, x7 is a temp reg.
  RVTEST_SIGUPD(x19, x8, x7, x22, I_slti_cg_cr_rs1_imm_edges_rs1val_0x7fffffff_immval_0x1, I_slti_cg_cr_rs1_imm_edges_rs1val_0x7fffffff_immval_0x1_str)
    1970:	0009a383          	lw	x7,0(x19)
    1974:	01638863          	beq	x7,x22,1984 <I_slti_cg_cr_rs1_imm_edges_rs1val_0x7fffffff_immval_0x1+0x18>
    1978:	33d0146f          	jal	x8,34b4 <failedtest_x8_x7>
    197c:	0000196c          	.word	0x0000196c
    1980:	0000b5a0          	.word	0x0000b5a0
    1984:	00498993          	addi	x19,x19,4

# Testcase cr_rs1_imm_edges (rs1 = 0x7fffffff, imm = 2)
  RVTEST_TESTDATA_LOAD_INT(x6, x22) # load rs1: x22 = 0x7fffffff
    1988:	00032b03          	lw	x22,0(x6)
    198c:	00430313          	addi	x6,x6,4

00001990 <I_slti_cg_cr_rs1_imm_edges_rs1val_0x7fffffff_immval_0x2>:
I_slti_cg_cr_rs1_imm_edges_rs1val_0x7fffffff_immval_0x2:
  slti x9, x22, 2 # perform operation
    1990:	002b2493          	slti	x9,x22,2
  # Check if x9 contains the expected result. x19 is the signature ptr, x8 is the link ptr, x7 is a temp reg.
  RVTEST_SIGUPD(x19, x8, x7, x9, I_slti_cg_cr_rs1_imm_edges_rs1val_0x7fffffff_immval_0x2, I_slti_cg_cr_rs1_imm_edges_rs1val_0x7fffffff_immval_0x2_str)
    1994:	0009a383          	lw	x7,0(x19)
    1998:	00938863          	beq	x7,x9,19a8 <I_slti_cg_cr_rs1_imm_edges_rs1val_0x7fffffff_immval_0x2+0x18>
    199c:	3190146f          	jal	x8,34b4 <failedtest_x8_x7>
    19a0:	00001990          	.word	0x00001990
    19a4:	0000b5f5          	.word	0x0000b5f5
    19a8:	00498993          	addi	x19,x19,4

# Testcase cr_rs1_imm_edges (rs1 = 0x7fffffff, imm = 3)
  RVTEST_TESTDATA_LOAD_INT(x6, x4) # load rs1: x4 = 0x7fffffff
    19ac:	00032203          	lw	x4,0(x6)
    19b0:	00430313          	addi	x6,x6,4

000019b4 <I_slti_cg_cr_rs1_imm_edges_rs1val_0x7fffffff_immval_0x3>:
I_slti_cg_cr_rs1_imm_edges_rs1val_0x7fffffff_immval_0x3:
  slti x18, x4, 3 # perform operation
    19b4:	00322913          	slti	x18,x4,3
  # Check if x18 contains the expected result. x19 is the signature ptr, x8 is the link ptr, x7 is a temp reg.
  RVTEST_SIGUPD(x19, x8, x7, x18, I_slti_cg_cr_rs1_imm_edges_rs1val_0x7fffffff_immval_0x3, I_slti_cg_cr_rs1_imm_edges_rs1val_0x7fffffff_immval_0x3_str)
    19b8:	0009a383          	lw	x7,0(x19)
    19bc:	01238863          	beq	x7,x18,19cc <I_slti_cg_cr_rs1_imm_edges_rs1val_0x7fffffff_immval_0x3+0x18>
    19c0:	2f50146f          	jal	x8,34b4 <failedtest_x8_x7>
    19c4:	000019b4          	.word	0x000019b4
    19c8:	0000b64a          	.word	0x0000b64a
    19cc:	00498993          	addi	x19,x19,4

# Testcase cr_rs1_imm_edges (rs1 = 0x7fffffff, imm = 4)
  RVTEST_TESTDATA_LOAD_INT(x6, x31) # load rs1: x31 = 0x7fffffff
    19d0:	00032f83          	lw	x31,0(x6)
    19d4:	00430313          	addi	x6,x6,4

000019d8 <I_slti_cg_cr_rs1_imm_edges_rs1val_0x7fffffff_immval_0x4>:
I_slti_cg_cr_rs1_imm_edges_rs1val_0x7fffffff_immval_0x4:
  slti x28, x31, 4 # perform operation
    19d8:	004fae13          	slti	x28,x31,4
  # Check if x28 contains the expected result. x19 is the signature ptr, x8 is the link ptr, x7 is a temp reg.
  RVTEST_SIGUPD(x19, x8, x7, x28, I_slti_cg_cr_rs1_imm_edges_rs1val_0x7fffffff_immval_0x4, I_slti_cg_cr_rs1_imm_edges_rs1val_0x7fffffff_immval_0x4_str)
    19dc:	0009a383          	lw	x7,0(x19)
    19e0:	01c38863          	beq	x7,x28,19f0 <I_slti_cg_cr_rs1_imm_edges_rs1val_0x7fffffff_immval_0x4+0x18>
    19e4:	2d10146f          	jal	x8,34b4 <failedtest_x8_x7>
    19e8:	000019d8          	.word	0x000019d8
    19ec:	0000b69f          	.word	0x0000b69f
    19f0:	00498993          	addi	x19,x19,4

# Testcase cr_rs1_imm_edges (rs1 = 0x7fffffff, imm = 8)
