
/home/dev/github/clones/riscv-arch-test/work/rv32i-core/elfs/rv32i/I/I-sltu-00.elf:     file format elf32-littleriscv
/home/dev/github/clones/riscv-arch-test/work/rv32i-core/elfs/rv32i/I/I-sltu-00.elf
architecture: riscv:rv32, flags 0x00000112:
EXEC_P, HAS_SYMS, D_PAGED
start address 0x00000000

Program Header:
0x70000003 off    0x0001f240 vaddr 0x00000000 paddr 0x00000000 align 2**0
         filesz 0x00000033 memsz 0x00000000 flags r--
    LOAD off    0x00001000 vaddr 0x00000000 paddr 0x00000000 align 2**12
         filesz 0x00005f80 memsz 0x00005f80 flags r-x
    LOAD off    0x00007000 vaddr 0x00008000 paddr 0x00008000 align 2**12
         filesz 0x00018240 memsz 0x00018240 flags rwx

Sections:
Idx Name          Size      VMA       LMA       File off  Algn
  0 .text.init    00000040  00000000  00000000  00001000  2**5
                  CONTENTS, ALLOC, LOAD, READONLY, CODE
  1 .text.rvtest  00005f40  00000040  00000040  00001040  2**5
                  CONTENTS, ALLOC, LOAD, READONLY, CODE
  2 .data         00017ef0  00008000  00008000  00007000  2**8
                  CONTENTS, ALLOC, LOAD, DATA
  3 .text.rvmodel 00000240  00020000  00020000  0001f000  2**5
                  CONTENTS, ALLOC, LOAD, READONLY, CODE
  4 .riscv.attributes 00000033  00000000  00000000  0001f240  2**0
                  CONTENTS, READONLY
  5 .debug_line   000026a0  00000000  00000000  0001f273  2**0
                  CONTENTS, READONLY, DEBUGGING, OCTETS
  6 .debug_line_str 0000006a  00000000  00000000  00021913  2**0
                  CONTENTS, READONLY, DEBUGGING, OCTETS
  7 .debug_info   00000023  00000000  00000000  0002197d  2**0
                  CONTENTS, READONLY, DEBUGGING, OCTETS
  8 .debug_abbrev 00000012  00000000  00000000  000219a0  2**0
                  CONTENTS, READONLY, DEBUGGING, OCTETS
  9 .debug_aranges 00000028  00000000  00000000  000219b8  2**3
                  CONTENTS, READONLY, DEBUGGING, OCTETS
 10 .debug_str    00000076  00000000  00000000  000219e0  2**0
                  CONTENTS, READONLY, DEBUGGING, OCTETS
 11 .debug_rnglists 0000001b  00000000  00000000  00021a56  2**0
                  CONTENTS, READONLY, DEBUGGING, OCTETS
SYMBOL TABLE:
00000000 l    d  .text.init	00000000 .text.init
00000040 l    d  .text.rvtest	00000000 .text.rvtest
00008000 l    d  .data	00000000 .data
00020000 l    d  .text.rvmodel	00000000 .text.rvmodel
00000000 l    d  .riscv.attributes	00000000 .riscv.attributes
00000000 l    d  .debug_line	00000000 .debug_line
00000000 l    d  .debug_line_str	00000000 .debug_line_str
00000000 l    d  .debug_info	00000000 .debug_info
00000000 l    d  .debug_abbrev	00000000 .debug_abbrev
00000000 l    d  .debug_aranges	00000000 .debug_aranges
00000000 l    d  .debug_str	00000000 .debug_str
00000000 l    d  .debug_rnglists	00000000 .debug_rnglists
00000000 l    df *ABS*	00000000 cczpu5HX.o
00000003 l       *ABS*	00000000 MMODE_SIG
00000001 l       *ABS*	00000000 SMODE_SIG
00000001 l       *ABS*	00000000 HMODE_SIG
00000002 l       *ABS*	00000000 VMODE_SIG
00020000 l       .text.rvmodel	00000000 rvmodel_boot
00000050 l       .text.rvtest	00000000 I_sltu_cg_cp_rs1_b0
000044fc l       .text.rvtest	00000000 failedtest_x5_x4
00008d50 l       .data	00000000 I_sltu_cg_cp_rs1_b0_str
0000007c l       .text.rvtest	00000000 I_sltu_cg_cp_rs1_b1
00008d7e l       .data	00000000 I_sltu_cg_cp_rs1_b1_str
000000ac l       .text.rvtest	00000000 I_sltu_cg_cp_rs1_b2
00008dac l       .data	00000000 I_sltu_cg_cp_rs1_b2_str
000000dc l       .text.rvtest	00000000 I_sltu_cg_cp_rs1_b3
00008dda l       .data	00000000 I_sltu_cg_cp_rs1_b3_str
00000110 l       .text.rvtest	00000000 I_sltu_cg_cp_rs1_b4
0000453c l       .text.rvtest	00000000 failedtest_x14_x13
00008e08 l       .data	00000000 I_sltu_cg_cp_rs1_b4_str
0000013c l       .text.rvtest	00000000 I_sltu_cg_cp_rs1_b5
00008e36 l       .data	00000000 I_sltu_cg_cp_rs1_b5_str
00000168 l       .text.rvtest	00000000 I_sltu_cg_cp_rs1_b6
00008e64 l       .data	00000000 I_sltu_cg_cp_rs1_b6_str
00000194 l       .text.rvtest	00000000 I_sltu_cg_cp_rs1_b7
00008e92 l       .data	00000000 I_sltu_cg_cp_rs1_b7_str
000001c0 l       .text.rvtest	00000000 I_sltu_cg_cp_rs1_b8
00008ec0 l       .data	00000000 I_sltu_cg_cp_rs1_b8_str
000001f0 l       .text.rvtest	00000000 I_sltu_cg_cp_rs1_b9
00008eee l       .data	00000000 I_sltu_cg_cp_rs1_b9_str
00000220 l       .text.rvtest	00000000 I_sltu_cg_cp_rs1_b10
00008f1d l       .data	00000000 I_sltu_cg_cp_rs1_b10_str
0000024c l       .text.rvtest	00000000 I_sltu_cg_cp_rs1_b11
00008f4d l       .data	00000000 I_sltu_cg_cp_rs1_b11_str
00000278 l       .text.rvtest	00000000 I_sltu_cg_cp_rs1_b12
00008f7d l       .data	00000000 I_sltu_cg_cp_rs1_b12_str
000002ac l       .text.rvtest	00000000 I_sltu_cg_cp_rs1_b13
00004514 l       .text.rvtest	00000000 failedtest_x8_x7
00008fad l       .data	00000000 I_sltu_cg_cp_rs1_b13_str
000002d8 l       .text.rvtest	00000000 I_sltu_cg_cp_rs1_b14
00008fdd l       .data	00000000 I_sltu_cg_cp_rs1_b14_str
00000304 l       .text.rvtest	00000000 I_sltu_cg_cp_rs1_b15
0000900d l       .data	00000000 I_sltu_cg_cp_rs1_b15_str
00000334 l       .text.rvtest	00000000 I_sltu_cg_cp_rs1_b16
0000903d l       .data	00000000 I_sltu_cg_cp_rs1_b16_str
00000360 l       .text.rvtest	00000000 I_sltu_cg_cp_rs1_b17
0000906d l       .data	00000000 I_sltu_cg_cp_rs1_b17_str
0000038c l       .text.rvtest	00000000 I_sltu_cg_cp_rs1_b18
0000909d l       .data	00000000 I_sltu_cg_cp_rs1_b18_str
000003b8 l       .text.rvtest	00000000 I_sltu_cg_cp_rs1_b19
000090cd l       .data	00000000 I_sltu_cg_cp_rs1_b19_str
000003e4 l       .text.rvtest	00000000 I_sltu_cg_cp_rs1_b20
000090fd l       .data	00000000 I_sltu_cg_cp_rs1_b20_str
00000410 l       .text.rvtest	00000000 I_sltu_cg_cp_rs1_b21
0000912d l       .data	00000000 I_sltu_cg_cp_rs1_b21_str
0000043c l       .text.rvtest	00000000 I_sltu_cg_cp_rs1_b22
0000915d l       .data	00000000 I_sltu_cg_cp_rs1_b22_str
0000046c l       .text.rvtest	00000000 I_sltu_cg_cp_rs1_b23
0000918d l       .data	00000000 I_sltu_cg_cp_rs1_b23_str
00000498 l       .text.rvtest	00000000 I_sltu_cg_cp_rs1_b24
000091bd l       .data	00000000 I_sltu_cg_cp_rs1_b24_str
000004c4 l       .text.rvtest	00000000 I_sltu_cg_cp_rs1_b25
000091ed l       .data	00000000 I_sltu_cg_cp_rs1_b25_str
000004f0 l       .text.rvtest	00000000 I_sltu_cg_cp_rs1_b26
0000921d l       .data	00000000 I_sltu_cg_cp_rs1_b26_str
0000051c l       .text.rvtest	00000000 I_sltu_cg_cp_rs1_b27
0000924d l       .data	00000000 I_sltu_cg_cp_rs1_b27_str
0000054c l       .text.rvtest	00000000 I_sltu_cg_cp_rs1_b28
0000927d l       .data	00000000 I_sltu_cg_cp_rs1_b28_str
00000578 l       .text.rvtest	00000000 I_sltu_cg_cp_rs1_b29
000092ad l       .data	00000000 I_sltu_cg_cp_rs1_b29_str
000005a4 l       .text.rvtest	00000000 I_sltu_cg_cp_rs1_b30
000092dd l       .data	00000000 I_sltu_cg_cp_rs1_b30_str
000005d0 l       .text.rvtest	00000000 I_sltu_cg_cp_rs1_b31
0000930d l       .data	00000000 I_sltu_cg_cp_rs1_b31_str
000005fc l       .text.rvtest	00000000 I_sltu_cg_cp_rs2_b0
0000933d l       .data	00000000 I_sltu_cg_cp_rs2_b0_str
00000628 l       .text.rvtest	00000000 I_sltu_cg_cp_rs2_b1
0000936c l       .data	00000000 I_sltu_cg_cp_rs2_b1_str
00000654 l       .text.rvtest	00000000 I_sltu_cg_cp_rs2_b2
0000939b l       .data	00000000 I_sltu_cg_cp_rs2_b2_str
00000680 l       .text.rvtest	00000000 I_sltu_cg_cp_rs2_b3
000093ca l       .data	00000000 I_sltu_cg_cp_rs2_b3_str
000006ac l       .text.rvtest	00000000 I_sltu_cg_cp_rs2_b4
000093f9 l       .data	00000000 I_sltu_cg_cp_rs2_b4_str
000006d8 l       .text.rvtest	00000000 I_sltu_cg_cp_rs2_b5
00009428 l       .data	00000000 I_sltu_cg_cp_rs2_b5_str
00000708 l       .text.rvtest	00000000 I_sltu_cg_cp_rs2_b6
00009457 l       .data	00000000 I_sltu_cg_cp_rs2_b6_str
0000073c l       .text.rvtest	00000000 I_sltu_cg_cp_rs2_b7
00009486 l       .data	00000000 I_sltu_cg_cp_rs2_b7_str
00000768 l       .text.rvtest	00000000 I_sltu_cg_cp_rs2_b8
000094b5 l       .data	00000000 I_sltu_cg_cp_rs2_b8_str
00000794 l       .text.rvtest	00000000 I_sltu_cg_cp_rs2_b9
000094e4 l       .data	00000000 I_sltu_cg_cp_rs2_b9_str
000007c0 l       .text.rvtest	00000000 I_sltu_cg_cp_rs2_b10
00009513 l       .data	00000000 I_sltu_cg_cp_rs2_b10_str
000007ec l       .text.rvtest	00000000 I_sltu_cg_cp_rs2_b11
00009543 l       .data	00000000 I_sltu_cg_cp_rs2_b11_str
00000818 l       .text.rvtest	00000000 I_sltu_cg_cp_rs2_b12
00009573 l       .data	00000000 I_sltu_cg_cp_rs2_b12_str
0000084c l       .text.rvtest	00000000 I_sltu_cg_cp_rs2_b13
000095a3 l       .data	00000000 I_sltu_cg_cp_rs2_b13_str
00000878 l       .text.rvtest	00000000 I_sltu_cg_cp_rs2_b14
000095d3 l       .data	00000000 I_sltu_cg_cp_rs2_b14_str
000008a4 l       .text.rvtest	00000000 I_sltu_cg_cp_rs2_b15
00009603 l       .data	00000000 I_sltu_cg_cp_rs2_b15_str
000008d4 l       .text.rvtest	00000000 I_sltu_cg_cp_rs2_b16
00009633 l       .data	00000000 I_sltu_cg_cp_rs2_b16_str
00000900 l       .text.rvtest	00000000 I_sltu_cg_cp_rs2_b17
00009663 l       .data	00000000 I_sltu_cg_cp_rs2_b17_str
0000092c l       .text.rvtest	00000000 I_sltu_cg_cp_rs2_b18
00009693 l       .data	00000000 I_sltu_cg_cp_rs2_b18_str
00000958 l       .text.rvtest	00000000 I_sltu_cg_cp_rs2_b19
000096c3 l       .data	00000000 I_sltu_cg_cp_rs2_b19_str
00000984 l       .text.rvtest	00000000 I_sltu_cg_cp_rs2_b20
000096f3 l       .data	00000000 I_sltu_cg_cp_rs2_b20_str
000009b4 l       .text.rvtest	00000000 I_sltu_cg_cp_rs2_b21
00009723 l       .data	00000000 I_sltu_cg_cp_rs2_b21_str
000009e4 l       .text.rvtest	00000000 I_sltu_cg_cp_rs2_b22
00009753 l       .data	00000000 I_sltu_cg_cp_rs2_b22_str
00000a10 l       .text.rvtest	00000000 I_sltu_cg_cp_rs2_b23
00009783 l       .data	00000000 I_sltu_cg_cp_rs2_b23_str
00000a3c l       .text.rvtest	00000000 I_sltu_cg_cp_rs2_b24
000097b3 l       .data	00000000 I_sltu_cg_cp_rs2_b24_str
00000a68 l       .text.rvtest	00000000 I_sltu_cg_cp_rs2_b25
000097e3 l       .data	00000000 I_sltu_cg_cp_rs2_b25_str
00000a94 l       .text.rvtest	00000000 I_sltu_cg_cp_rs2_b26
00009813 l       .data	00000000 I_sltu_cg_cp_rs2_b26_str
00000ac4 l       .text.rvtest	00000000 I_sltu_cg_cp_rs2_b27
00009843 l       .data	00000000 I_sltu_cg_cp_rs2_b27_str
00000af0 l       .text.rvtest	00000000 I_sltu_cg_cp_rs2_b28
00009873 l       .data	00000000 I_sltu_cg_cp_rs2_b28_str
00000b1c l       .text.rvtest	00000000 I_sltu_cg_cp_rs2_b29
000098a3 l       .data	00000000 I_sltu_cg_cp_rs2_b29_str
00000b48 l       .text.rvtest	00000000 I_sltu_cg_cp_rs2_b30
000098d3 l       .data	00000000 I_sltu_cg_cp_rs2_b30_str
00000b74 l       .text.rvtest	00000000 I_sltu_cg_cp_rs2_b31
00009903 l       .data	00000000 I_sltu_cg_cp_rs2_b31_str
00000ba0 l       .text.rvtest	00000000 I_sltu_cg_cp_rd_b0
00009933 l       .data	00000000 I_sltu_cg_cp_rd_b0_str
00000bcc l       .text.rvtest	00000000 I_sltu_cg_cp_rd_b1
00009961 l       .data	00000000 I_sltu_cg_cp_rd_b1_str
00000bfc l       .text.rvtest	00000000 I_sltu_cg_cp_rd_b2
0000998f l       .data	00000000 I_sltu_cg_cp_rd_b2_str
00000c28 l       .text.rvtest	00000000 I_sltu_cg_cp_rd_b3
000099bd l       .data	00000000 I_sltu_cg_cp_rd_b3_str
00000c54 l       .text.rvtest	00000000 I_sltu_cg_cp_rd_b4
000099eb l       .data	00000000 I_sltu_cg_cp_rd_b4_str
00000c80 l       .text.rvtest	00000000 I_sltu_cg_cp_rd_b5
00009a19 l       .data	00000000 I_sltu_cg_cp_rd_b5_str
00000cac l       .text.rvtest	00000000 I_sltu_cg_cp_rd_b6
00009a47 l       .data	00000000 I_sltu_cg_cp_rd_b6_str
00000ce0 l       .text.rvtest	00000000 I_sltu_cg_cp_rd_b7
00009a75 l       .data	00000000 I_sltu_cg_cp_rd_b7_str
00000d0c l       .text.rvtest	00000000 I_sltu_cg_cp_rd_b8
00009aa3 l       .data	00000000 I_sltu_cg_cp_rd_b8_str
00000d38 l       .text.rvtest	00000000 I_sltu_cg_cp_rd_b9
00009ad1 l       .data	00000000 I_sltu_cg_cp_rd_b9_str
00000d64 l       .text.rvtest	00000000 I_sltu_cg_cp_rd_b10
00009aff l       .data	00000000 I_sltu_cg_cp_rd_b10_str
00000d90 l       .text.rvtest	00000000 I_sltu_cg_cp_rd_b11
00009b2e l       .data	00000000 I_sltu_cg_cp_rd_b11_str
00000dc0 l       .text.rvtest	00000000 I_sltu_cg_cp_rd_b12
00009b5d l       .data	00000000 I_sltu_cg_cp_rd_b12_str
00000dec l       .text.rvtest	00000000 I_sltu_cg_cp_rd_b13
00009b8c l       .data	00000000 I_sltu_cg_cp_rd_b13_str
00000e18 l       .text.rvtest	00000000 I_sltu_cg_cp_rd_b14
00009bbb l       .data	00000000 I_sltu_cg_cp_rd_b14_str
00000e44 l       .text.rvtest	00000000 I_sltu_cg_cp_rd_b15
00009bea l       .data	00000000 I_sltu_cg_cp_rd_b15_str
00000e70 l       .text.rvtest	00000000 I_sltu_cg_cp_rd_b16
00009c19 l       .data	00000000 I_sltu_cg_cp_rd_b16_str
00000e9c l       .text.rvtest	00000000 I_sltu_cg_cp_rd_b17
00009c48 l       .data	00000000 I_sltu_cg_cp_rd_b17_str
00000ec8 l       .text.rvtest	00000000 I_sltu_cg_cp_rd_b18
00009c77 l       .data	00000000 I_sltu_cg_cp_rd_b18_str
00000ef4 l       .text.rvtest	00000000 I_sltu_cg_cp_rd_b19
00009ca6 l       .data	00000000 I_sltu_cg_cp_rd_b19_str
00000f20 l       .text.rvtest	00000000 I_sltu_cg_cp_rd_b20
00009cd5 l       .data	00000000 I_sltu_cg_cp_rd_b20_str
00000f4c l       .text.rvtest	00000000 I_sltu_cg_cp_rd_b21
00009d04 l       .data	00000000 I_sltu_cg_cp_rd_b21_str
00000f78 l       .text.rvtest	00000000 I_sltu_cg_cp_rd_b22
00009d33 l       .data	00000000 I_sltu_cg_cp_rd_b22_str
00000fa8 l       .text.rvtest	00000000 I_sltu_cg_cp_rd_b23
00009d62 l       .data	00000000 I_sltu_cg_cp_rd_b23_str
00000fd4 l       .text.rvtest	00000000 I_sltu_cg_cp_rd_b24
00009d91 l       .data	00000000 I_sltu_cg_cp_rd_b24_str
00001004 l       .text.rvtest	00000000 I_sltu_cg_cp_rd_b25
00009dc0 l       .data	00000000 I_sltu_cg_cp_rd_b25_str
00001034 l       .text.rvtest	00000000 I_sltu_cg_cp_rd_b26
00009def l       .data	00000000 I_sltu_cg_cp_rd_b26_str
00001060 l       .text.rvtest	00000000 I_sltu_cg_cp_rd_b27
00009e1e l       .data	00000000 I_sltu_cg_cp_rd_b27_str
0000108c l       .text.rvtest	00000000 I_sltu_cg_cp_rd_b28
00009e4d l       .data	00000000 I_sltu_cg_cp_rd_b28_str
000010b8 l       .text.rvtest	00000000 I_sltu_cg_cp_rd_b29
00009e7c l       .data	00000000 I_sltu_cg_cp_rd_b29_str
000010e4 l       .text.rvtest	00000000 I_sltu_cg_cp_rd_b30
00009eab l       .data	00000000 I_sltu_cg_cp_rd_b30_str
00001110 l       .text.rvtest	00000000 I_sltu_cg_cp_rd_b31
00009eda l       .data	00000000 I_sltu_cg_cp_rd_b31_str
0000113c l       .text.rvtest	00000000 I_sltu_cg_cp_rs1_edges_0x0
00009f09 l       .data	00000000 I_sltu_cg_cp_rs1_edges_0x0_str
00001168 l       .text.rvtest	00000000 I_sltu_cg_cp_rs1_edges_0x1
00009f3f l       .data	00000000 I_sltu_cg_cp_rs1_edges_0x1_str
00001194 l       .text.rvtest	00000000 I_sltu_cg_cp_rs1_edges_0x2
00009f75 l       .data	00000000 I_sltu_cg_cp_rs1_edges_0x2_str
000011c0 l       .text.rvtest	00000000 I_sltu_cg_cp_rs1_edges_0x80000000
00009fab l       .data	00000000 I_sltu_cg_cp_rs1_edges_0x80000000_str
000011ec l       .text.rvtest	00000000 I_sltu_cg_cp_rs1_edges_0x80000001
00009fe9 l       .data	00000000 I_sltu_cg_cp_rs1_edges_0x80000001_str
00001218 l       .text.rvtest	00000000 I_sltu_cg_cp_rs1_edges_0x7fffffff
0000a027 l       .data	00000000 I_sltu_cg_cp_rs1_edges_0x7fffffff_str
00001244 l       .text.rvtest	00000000 I_sltu_cg_cp_rs1_edges_0x7ffffffe
0000a065 l       .data	00000000 I_sltu_cg_cp_rs1_edges_0x7ffffffe_str
00001270 l       .text.rvtest	00000000 I_sltu_cg_cp_rs1_edges_0xffffffff
0000a0a3 l       .data	00000000 I_sltu_cg_cp_rs1_edges_0xffffffff_str
0000129c l       .text.rvtest	00000000 I_sltu_cg_cp_rs1_edges_0xfffffffe
0000a0e1 l       .data	00000000 I_sltu_cg_cp_rs1_edges_0xfffffffe_str
000012c8 l       .text.rvtest	00000000 I_sltu_cg_cp_rs1_edges_0x5bbc8872
0000a11f l       .data	00000000 I_sltu_cg_cp_rs1_edges_0x5bbc8872_str
000012f4 l       .text.rvtest	00000000 I_sltu_cg_cp_rs1_edges_0xaaaaaaaa
0000a15d l       .data	00000000 I_sltu_cg_cp_rs1_edges_0xaaaaaaaa_str
00001320 l       .text.rvtest	00000000 I_sltu_cg_cp_rs1_edges_0x55555555
0000a19b l       .data	00000000 I_sltu_cg_cp_rs1_edges_0x55555555_str
0000134c l       .text.rvtest	00000000 I_sltu_cg_cp_rs2_edges_0x0
0000a1d9 l       .data	00000000 I_sltu_cg_cp_rs2_edges_0x0_str
00001378 l       .text.rvtest	00000000 I_sltu_cg_cp_rs2_edges_0x1
0000a210 l       .data	00000000 I_sltu_cg_cp_rs2_edges_0x1_str
000013a4 l       .text.rvtest	00000000 I_sltu_cg_cp_rs2_edges_0x2
0000a247 l       .data	00000000 I_sltu_cg_cp_rs2_edges_0x2_str
000013d0 l       .text.rvtest	00000000 I_sltu_cg_cp_rs2_edges_0x80000000
0000a27e l       .data	00000000 I_sltu_cg_cp_rs2_edges_0x80000000_str
000013fc l       .text.rvtest	00000000 I_sltu_cg_cp_rs2_edges_0x80000001
0000a2bc l       .data	00000000 I_sltu_cg_cp_rs2_edges_0x80000001_str
00001428 l       .text.rvtest	00000000 I_sltu_cg_cp_rs2_edges_0x7fffffff
0000a2fa l       .data	00000000 I_sltu_cg_cp_rs2_edges_0x7fffffff_str
00001454 l       .text.rvtest	00000000 I_sltu_cg_cp_rs2_edges_0x7ffffffe
0000a338 l       .data	00000000 I_sltu_cg_cp_rs2_edges_0x7ffffffe_str
00001480 l       .text.rvtest	00000000 I_sltu_cg_cp_rs2_edges_0xffffffff
0000a376 l       .data	00000000 I_sltu_cg_cp_rs2_edges_0xffffffff_str
000014ac l       .text.rvtest	00000000 I_sltu_cg_cp_rs2_edges_0xfffffffe
0000a3b4 l       .data	00000000 I_sltu_cg_cp_rs2_edges_0xfffffffe_str
000014d8 l       .text.rvtest	00000000 I_sltu_cg_cp_rs2_edges_0x5bbc8872
0000a3f2 l       .data	00000000 I_sltu_cg_cp_rs2_edges_0x5bbc8872_str
00001504 l       .text.rvtest	00000000 I_sltu_cg_cp_rs2_edges_0xaaaaaaaa
0000a430 l       .data	00000000 I_sltu_cg_cp_rs2_edges_0xaaaaaaaa_str
00001530 l       .text.rvtest	00000000 I_sltu_cg_cp_rs2_edges_0x55555555
0000a46e l       .data	00000000 I_sltu_cg_cp_rs2_edges_0x55555555_str
0000155c l       .text.rvtest	00000000 I_sltu_cg_cr_rs1_rs2_edges_rs1val_0x0_rs2val_0x0
0000a4ac l       .data	00000000 I_sltu_cg_cr_rs1_rs2_edges_rs1val_0x0_rs2val_0x0_str
00001588 l       .text.rvtest	00000000 I_sltu_cg_cr_rs1_rs2_edges_rs1val_0x0_rs2val_0x1
0000a4fa l       .data	00000000 I_sltu_cg_cr_rs1_rs2_edges_rs1val_0x0_rs2val_0x1_str
000015b4 l       .text.rvtest	00000000 I_sltu_cg_cr_rs1_rs2_edges_rs1val_0x0_rs2val_0x2
0000a548 l       .data	00000000 I_sltu_cg_cr_rs1_rs2_edges_rs1val_0x0_rs2val_0x2_str
000015e0 l       .text.rvtest	00000000 I_sltu_cg_cr_rs1_rs2_edges_rs1val_0x0_rs2val_0x80000000
0000a596 l       .data	00000000 I_sltu_cg_cr_rs1_rs2_edges_rs1val_0x0_rs2val_0x80000000_str
0000160c l       .text.rvtest	00000000 I_sltu_cg_cr_rs1_rs2_edges_rs1val_0x0_rs2val_0x80000001
0000a5eb l       .data	00000000 I_sltu_cg_cr_rs1_rs2_edges_rs1val_0x0_rs2val_0x80000001_str
00001638 l       .text.rvtest	00000000 I_sltu_cg_cr_rs1_rs2_edges_rs1val_0x0_rs2val_0x7fffffff
0000a640 l       .data	00000000 I_sltu_cg_cr_rs1_rs2_edges_rs1val_0x0_rs2val_0x7fffffff_str
00001664 l       .text.rvtest	00000000 I_sltu_cg_cr_rs1_rs2_edges_rs1val_0x0_rs2val_0x7ffffffe
0000a695 l       .data	00000000 I_sltu_cg_cr_rs1_rs2_edges_rs1val_0x0_rs2val_0x7ffffffe_str
00001690 l       .text.rvtest	00000000 I_sltu_cg_cr_rs1_rs2_edges_rs1val_0x0_rs2val_0xffffffff
0000a6ea l       .data	00000000 I_sltu_cg_cr_rs1_rs2_edges_rs1val_0x0_rs2val_0xffffffff_str
000016bc l       .text.rvtest	00000000 I_sltu_cg_cr_rs1_rs2_edges_rs1val_0x0_rs2val_0xfffffffe
0000a73f l       .data	00000000 I_sltu_cg_cr_rs1_rs2_edges_rs1val_0x0_rs2val_0xfffffffe_str
000016e8 l       .text.rvtest	00000000 I_sltu_cg_cr_rs1_rs2_edges_rs1val_0x0_rs2val_0x5bbc8872
0000a794 l       .data	00000000 I_sltu_cg_cr_rs1_rs2_edges_rs1val_0x0_rs2val_0x5bbc8872_str
00001714 l       .text.rvtest	00000000 I_sltu_cg_cr_rs1_rs2_edges_rs1val_0x0_rs2val_0xaaaaaaaa
0000a7e9 l       .data	00000000 I_sltu_cg_cr_rs1_rs2_edges_rs1val_0x0_rs2val_0xaaaaaaaa_str
00001740 l       .text.rvtest	00000000 I_sltu_cg_cr_rs1_rs2_edges_rs1val_0x0_rs2val_0x55555555
0000a83e l       .data	00000000 I_sltu_cg_cr_rs1_rs2_edges_rs1val_0x0_rs2val_0x55555555_str
0000176c l       .text.rvtest	00000000 I_sltu_cg_cr_rs1_rs2_edges_rs1val_0x1_rs2val_0x0
0000a893 l       .data	00000000 I_sltu_cg_cr_rs1_rs2_edges_rs1val_0x1_rs2val_0x0_str
00001798 l       .text.rvtest	00000000 I_sltu_cg_cr_rs1_rs2_edges_rs1val_0x1_rs2val_0x1
0000a8e1 l       .data	00000000 I_sltu_cg_cr_rs1_rs2_edges_rs1val_0x1_rs2val_0x1_str
000017c4 l       .text.rvtest	00000000 I_sltu_cg_cr_rs1_rs2_edges_rs1val_0x1_rs2val_0x2
0000a92f l       .data	00000000 I_sltu_cg_cr_rs1_rs2_edges_rs1val_0x1_rs2val_0x2_str
000017f0 l       .text.rvtest	00000000 I_sltu_cg_cr_rs1_rs2_edges_rs1val_0x1_rs2val_0x80000000
0000a97d l       .data	00000000 I_sltu_cg_cr_rs1_rs2_edges_rs1val_0x1_rs2val_0x80000000_str
0000181c l       .text.rvtest	00000000 I_sltu_cg_cr_rs1_rs2_edges_rs1val_0x1_rs2val_0x80000001
0000a9d2 l       .data	00000000 I_sltu_cg_cr_rs1_rs2_edges_rs1val_0x1_rs2val_0x80000001_str
00001848 l       .text.rvtest	00000000 I_sltu_cg_cr_rs1_rs2_edges_rs1val_0x1_rs2val_0x7fffffff
0000aa27 l       .data	00000000 I_sltu_cg_cr_rs1_rs2_edges_rs1val_0x1_rs2val_0x7fffffff_str
00001874 l       .text.rvtest	00000000 I_sltu_cg_cr_rs1_rs2_edges_rs1val_0x1_rs2val_0x7ffffffe
0000aa7c l       .data	00000000 I_sltu_cg_cr_rs1_rs2_edges_rs1val_0x1_rs2val_0x7ffffffe_str
000018a0 l       .text.rvtest	00000000 I_sltu_cg_cr_rs1_rs2_edges_rs1val_0x1_rs2val_0xffffffff
0000aad1 l       .data	00000000 I_sltu_cg_cr_rs1_rs2_edges_rs1val_0x1_rs2val_0xffffffff_str
000018cc l       .text.rvtest	00000000 I_sltu_cg_cr_rs1_rs2_edges_rs1val_0x1_rs2val_0xfffffffe
0000ab26 l       .data	00000000 I_sltu_cg_cr_rs1_rs2_edges_rs1val_0x1_rs2val_0xfffffffe_str
000018f8 l       .text.rvtest	00000000 I_sltu_cg_cr_rs1_rs2_edges_rs1val_0x1_rs2val_0x5bbc8872
0000ab7b l       .data	00000000 I_sltu_cg_cr_rs1_rs2_edges_rs1val_0x1_rs2val_0x5bbc8872_str
00001924 l       .text.rvtest	00000000 I_sltu_cg_cr_rs1_rs2_edges_rs1val_0x1_rs2val_0xaaaaaaaa
0000abd0 l       .data	00000000 I_sltu_cg_cr_rs1_rs2_edges_rs1val_0x1_rs2val_0xaaaaaaaa_str
00001950 l       .text.rvtest	00000000 I_sltu_cg_cr_rs1_rs2_edges_rs1val_0x1_rs2val_0x55555555
0000ac25 l       .data	00000000 I_sltu_cg_cr_rs1_rs2_edges_rs1val_0x1_rs2val_0x55555555_str
0000197c l       .text.rvtest	00000000 I_sltu_cg_cr_rs1_rs2_edges_rs1val_0x2_rs2val_0x0
0000ac7a l       .data	00000000 I_sltu_cg_cr_rs1_rs2_edges_rs1val_0x2_rs2val_0x0_str
000019a8 l       .text.rvtest	00000000 I_sltu_cg_cr_rs1_rs2_edges_rs1val_0x2_rs2val_0x1
0000acc8 l       .data	00000000 I_sltu_cg_cr_rs1_rs2_edges_rs1val_0x2_rs2val_0x1_str
000019d4 l       .text.rvtest	00000000 I_sltu_cg_cr_rs1_rs2_edges_rs1val_0x2_rs2val_0x2
0000ad16 l       .data	00000000 I_sltu_cg_cr_rs1_rs2_edges_rs1val_0x2_rs2val_0x2_str
00001a00 l       .text.rvtest	00000000 I_sltu_cg_cr_rs1_rs2_edges_rs1val_0x2_rs2val_0x80000000
0000ad64 l       .data	00000000 I_sltu_cg_cr_rs1_rs2_edges_rs1val_0x2_rs2val_0x80000000_str
00001a2c l       .text.rvtest	00000000 I_sltu_cg_cr_rs1_rs2_edges_rs1val_0x2_rs2val_0x80000001
0000adb9 l       .data	00000000 I_sltu_cg_cr_rs1_rs2_edges_rs1val_0x2_rs2val_0x80000001_str
00001a58 l       .text.rvtest	00000000 I_sltu_cg_cr_rs1_rs2_edges_rs1val_0x2_rs2val_0x7fffffff
0000ae0e l       .data	00000000 I_sltu_cg_cr_rs1_rs2_edges_rs1val_0x2_rs2val_0x7fffffff_str
00001a84 l       .text.rvtest	00000000 I_sltu_cg_cr_rs1_rs2_edges_rs1val_0x2_rs2val_0x7ffffffe
0000ae63 l       .data	00000000 I_sltu_cg_cr_rs1_rs2_edges_rs1val_0x2_rs2val_0x7ffffffe_str
00001ab0 l       .text.rvtest	00000000 I_sltu_cg_cr_rs1_rs2_edges_rs1val_0x2_rs2val_0xffffffff
0000aeb8 l       .data	00000000 I_sltu_cg_cr_rs1_rs2_edges_rs1val_0x2_rs2val_0xffffffff_str
00001adc l       .text.rvtest	00000000 I_sltu_cg_cr_rs1_rs2_edges_rs1val_0x2_rs2val_0xfffffffe
0000af0d l       .data	00000000 I_sltu_cg_cr_rs1_rs2_edges_rs1val_0x2_rs2val_0xfffffffe_str
00001b08 l       .text.rvtest	00000000 I_sltu_cg_cr_rs1_rs2_edges_rs1val_0x2_rs2val_0x5bbc8872
0000af62 l       .data	00000000 I_sltu_cg_cr_rs1_rs2_edges_rs1val_0x2_rs2val_0x5bbc8872_str
00001b34 l       .text.rvtest	00000000 I_sltu_cg_cr_rs1_rs2_edges_rs1val_0x2_rs2val_0xaaaaaaaa
0000afb7 l       .data	00000000 I_sltu_cg_cr_rs1_rs2_edges_rs1val_0x2_rs2val_0xaaaaaaaa_str
00001b60 l       .text.rvtest	00000000 I_sltu_cg_cr_rs1_rs2_edges_rs1val_0x2_rs2val_0x55555555
0000b00c l       .data	00000000 I_sltu_cg_cr_rs1_rs2_edges_rs1val_0x2_rs2val_0x55555555_str
00001b8c l       .text.rvtest	00000000 I_sltu_cg_cr_rs1_rs2_edges_rs1val_0x80000000_rs2val_0x0
0000b061 l       .data	00000000 I_sltu_cg_cr_rs1_rs2_edges_rs1val_0x80000000_rs2val_0x0_str
00001bb8 l       .text.rvtest	00000000 I_sltu_cg_cr_rs1_rs2_edges_rs1val_0x80000000_rs2val_0x1
0000b0b6 l       .data	00000000 I_sltu_cg_cr_rs1_rs2_edges_rs1val_0x80000000_rs2val_0x1_str
00001be4 l       .text.rvtest	00000000 I_sltu_cg_cr_rs1_rs2_edges_rs1val_0x80000000_rs2val_0x2
0000b10b l       .data	00000000 I_sltu_cg_cr_rs1_rs2_edges_rs1val_0x80000000_rs2val_0x2_str
00001c10 l       .text.rvtest	00000000 I_sltu_cg_cr_rs1_rs2_edges_rs1val_0x80000000_rs2val_0x80000000
0000b160 l       .data	00000000 I_sltu_cg_cr_rs1_rs2_edges_rs1val_0x80000000_rs2val_0x80000000_str
00001c3c l       .text.rvtest	00000000 I_sltu_cg_cr_rs1_rs2_edges_rs1val_0x80000000_rs2val_0x80000001
0000b1bc l       .data	00000000 I_sltu_cg_cr_rs1_rs2_edges_rs1val_0x80000000_rs2val_0x80000001_str
00001c68 l       .text.rvtest	00000000 I_sltu_cg_cr_rs1_rs2_edges_rs1val_0x80000000_rs2val_0x7fffffff
0000b218 l       .data	00000000 I_sltu_cg_cr_rs1_rs2_edges_rs1val_0x80000000_rs2val_0x7fffffff_str
00001c94 l       .text.rvtest	00000000 I_sltu_cg_cr_rs1_rs2_edges_rs1val_0x80000000_rs2val_0x7ffffffe
0000b274 l       .data	00000000 I_sltu_cg_cr_rs1_rs2_edges_rs1val_0x80000000_rs2val_0x7ffffffe_str
00001cc0 l       .text.rvtest	00000000 I_sltu_cg_cr_rs1_rs2_edges_rs1val_0x80000000_rs2val_0xffffffff
0000b2d0 l       .data	00000000 I_sltu_cg_cr_rs1_rs2_edges_rs1val_0x80000000_rs2val_0xffffffff_str
00001cec l       .text.rvtest	00000000 I_sltu_cg_cr_rs1_rs2_edges_rs1val_0x80000000_rs2val_0xfffffffe
0000b32c l       .data	00000000 I_sltu_cg_cr_rs1_rs2_edges_rs1val_0x80000000_rs2val_0xfffffffe_str
00001d18 l       .text.rvtest	00000000 I_sltu_cg_cr_rs1_rs2_edges_rs1val_0x80000000_rs2val_0x5bbc8872
0000b388 l       .data	00000000 I_sltu_cg_cr_rs1_rs2_edges_rs1val_0x80000000_rs2val_0x5bbc8872_str
00001d44 l       .text.rvtest	00000000 I_sltu_cg_cr_rs1_rs2_edges_rs1val_0x80000000_rs2val_0xaaaaaaaa
0000b3e4 l       .data	00000000 I_sltu_cg_cr_rs1_rs2_edges_rs1val_0x80000000_rs2val_0xaaaaaaaa_str
00001d70 l       .text.rvtest	00000000 I_sltu_cg_cr_rs1_rs2_edges_rs1val_0x80000000_rs2val_0x55555555
0000b440 l       .data	00000000 I_sltu_cg_cr_rs1_rs2_edges_rs1val_0x80000000_rs2val_0x55555555_str
00001d9c l       .text.rvtest	00000000 I_sltu_cg_cr_rs1_rs2_edges_rs1val_0x80000001_rs2val_0x0
0000b49c l       .data	00000000 I_sltu_cg_cr_rs1_rs2_edges_rs1val_0x80000001_rs2val_0x0_str
00001dc8 l       .text.rvtest	00000000 I_sltu_cg_cr_rs1_rs2_edges_rs1val_0x80000001_rs2val_0x1
0000b4f1 l       .data	00000000 I_sltu_cg_cr_rs1_rs2_edges_rs1val_0x80000001_rs2val_0x1_str
00001df4 l       .text.rvtest	00000000 I_sltu_cg_cr_rs1_rs2_edges_rs1val_0x80000001_rs2val_0x2
0000b546 l       .data	00000000 I_sltu_cg_cr_rs1_rs2_edges_rs1val_0x80000001_rs2val_0x2_str
00001e20 l       .text.rvtest	00000000 I_sltu_cg_cr_rs1_rs2_edges_rs1val_0x80000001_rs2val_0x80000000
0000b59b l       .data	00000000 I_sltu_cg_cr_rs1_rs2_edges_rs1val_0x80000001_rs2val_0x80000000_str
00001e4c l       .text.rvtest	00000000 I_sltu_cg_cr_rs1_rs2_edges_rs1val_0x80000001_rs2val_0x80000001
0000b5f7 l       .data	00000000 I_sltu_cg_cr_rs1_rs2_edges_rs1val_0x80000001_rs2val_0x80000001_str
00001e78 l       .text.rvtest	00000000 I_sltu_cg_cr_rs1_rs2_edges_rs1val_0x80000001_rs2val_0x7fffffff
0000b653 l       .data	00000000 I_sltu_cg_cr_rs1_rs2_edges_rs1val_0x80000001_rs2val_0x7fffffff_str
00001ea4 l       .text.rvtest	00000000 I_sltu_cg_cr_rs1_rs2_edges_rs1val_0x80000001_rs2val_0x7ffffffe
0000b6af l       .data	00000000 I_sltu_cg_cr_rs1_rs2_edges_rs1val_0x80000001_rs2val_0x7ffffffe_str
00001ed0 l       .text.rvtest	00000000 I_sltu_cg_cr_rs1_rs2_edges_rs1val_0x80000001_rs2val_0xffffffff
0000b70b l       .data	00000000 I_sltu_cg_cr_rs1_rs2_edges_rs1val_0x80000001_rs2val_0xffffffff_str
00001efc l       .text.rvtest	00000000 I_sltu_cg_cr_rs1_rs2_edges_rs1val_0x80000001_rs2val_0xfffffffe
0000b767 l       .data	00000000 I_sltu_cg_cr_rs1_rs2_edges_rs1val_0x80000001_rs2val_0xfffffffe_str
00001f28 l       .text.rvtest	00000000 I_sltu_cg_cr_rs1_rs2_edges_rs1val_0x80000001_rs2val_0x5bbc8872
0000b7c3 l       .data	00000000 I_sltu_cg_cr_rs1_rs2_edges_rs1val_0x80000001_rs2val_0x5bbc8872_str
00001f54 l       .text.rvtest	00000000 I_sltu_cg_cr_rs1_rs2_edges_rs1val_0x80000001_rs2val_0xaaaaaaaa
0000b81f l       .data	00000000 I_sltu_cg_cr_rs1_rs2_edges_rs1val_0x80000001_rs2val_0xaaaaaaaa_str
00001f80 l       .text.rvtest	00000000 I_sltu_cg_cr_rs1_rs2_edges_rs1val_0x80000001_rs2val_0x55555555
0000b87b l       .data	00000000 I_sltu_cg_cr_rs1_rs2_edges_rs1val_0x80000001_rs2val_0x55555555_str
00001fac l       .text.rvtest	00000000 I_sltu_cg_cr_rs1_rs2_edges_rs1val_0x7fffffff_rs2val_0x0
0000b8d7 l       .data	00000000 I_sltu_cg_cr_rs1_rs2_edges_rs1val_0x7fffffff_rs2val_0x0_str
00001fd8 l       .text.rvtest	00000000 I_sltu_cg_cr_rs1_rs2_edges_rs1val_0x7fffffff_rs2val_0x1
0000b92c l       .data	00000000 I_sltu_cg_cr_rs1_rs2_edges_rs1val_0x7fffffff_rs2val_0x1_str
00002004 l       .text.rvtest	00000000 I_sltu_cg_cr_rs1_rs2_edges_rs1val_0x7fffffff_rs2val_0x2
0000b981 l       .data	00000000 I_sltu_cg_cr_rs1_rs2_edges_rs1val_0x7fffffff_rs2val_0x2_str
00002030 l       .text.rvtest	00000000 I_sltu_cg_cr_rs1_rs2_edges_rs1val_0x7fffffff_rs2val_0x80000000
0000b9d6 l       .data	00000000 I_sltu_cg_cr_rs1_rs2_edges_rs1val_0x7fffffff_rs2val_0x80000000_str
0000205c l       .text.rvtest	00000000 I_sltu_cg_cr_rs1_rs2_edges_rs1val_0x7fffffff_rs2val_0x80000001
0000ba32 l       .data	00000000 I_sltu_cg_cr_rs1_rs2_edges_rs1val_0x7fffffff_rs2val_0x80000001_str
00002088 l       .text.rvtest	00000000 I_sltu_cg_cr_rs1_rs2_edges_rs1val_0x7fffffff_rs2val_0x7fffffff
0000ba8e l       .data	00000000 I_sltu_cg_cr_rs1_rs2_edges_rs1val_0x7fffffff_rs2val_0x7fffffff_str
000020b4 l       .text.rvtest	00000000 I_sltu_cg_cr_rs1_rs2_edges_rs1val_0x7fffffff_rs2val_0x7ffffffe
0000baea l       .data	00000000 I_sltu_cg_cr_rs1_rs2_edges_rs1val_0x7fffffff_rs2val_0x7ffffffe_str
000020e0 l       .text.rvtest	00000000 I_sltu_cg_cr_rs1_rs2_edges_rs1val_0x7fffffff_rs2val_0xffffffff
0000bb46 l       .data	00000000 I_sltu_cg_cr_rs1_rs2_edges_rs1val_0x7fffffff_rs2val_0xffffffff_str
0000210c l       .text.rvtest	00000000 I_sltu_cg_cr_rs1_rs2_edges_rs1val_0x7fffffff_rs2val_0xfffffffe
0000bba2 l       .data	00000000 I_sltu_cg_cr_rs1_rs2_edges_rs1val_0x7fffffff_rs2val_0xfffffffe_str
00002138 l       .text.rvtest	00000000 I_sltu_cg_cr_rs1_rs2_edges_rs1val_0x7fffffff_rs2val_0x5bbc8872
0000bbfe l       .data	00000000 I_sltu_cg_cr_rs1_rs2_edges_rs1val_0x7fffffff_rs2val_0x5bbc8872_str
00002164 l       .text.rvtest	00000000 I_sltu_cg_cr_rs1_rs2_edges_rs1val_0x7fffffff_rs2val_0xaaaaaaaa
0000bc5a l       .data	00000000 I_sltu_cg_cr_rs1_rs2_edges_rs1val_0x7fffffff_rs2val_0xaaaaaaaa_str
00002190 l       .text.rvtest	00000000 I_sltu_cg_cr_rs1_rs2_edges_rs1val_0x7fffffff_rs2val_0x55555555
0000bcb6 l       .data	00000000 I_sltu_cg_cr_rs1_rs2_edges_rs1val_0x7fffffff_rs2val_0x55555555_str
000021bc l       .text.rvtest	00000000 I_sltu_cg_cr_rs1_rs2_edges_rs1val_0x7ffffffe_rs2val_0x0
0000bd12 l       .data	00000000 I_sltu_cg_cr_rs1_rs2_edges_rs1val_0x7ffffffe_rs2val_0x0_str
000021e8 l       .text.rvtest	00000000 I_sltu_cg_cr_rs1_rs2_edges_rs1val_0x7ffffffe_rs2val_0x1
0000bd67 l       .data	00000000 I_sltu_cg_cr_rs1_rs2_edges_rs1val_0x7ffffffe_rs2val_0x1_str
00002214 l       .text.rvtest	00000000 I_sltu_cg_cr_rs1_rs2_edges_rs1val_0x7ffffffe_rs2val_0x2
0000bdbc l       .data	00000000 I_sltu_cg_cr_rs1_rs2_edges_rs1val_0x7ffffffe_rs2val_0x2_str
00002240 l       .text.rvtest	00000000 I_sltu_cg_cr_rs1_rs2_edges_rs1val_0x7ffffffe_rs2val_0x80000000
0000be11 l       .data	00000000 I_sltu_cg_cr_rs1_rs2_edges_rs1val_0x7ffffffe_rs2val_0x80000000_str
0000226c l       .text.rvtest	00000000 I_sltu_cg_cr_rs1_rs2_edges_rs1val_0x7ffffffe_rs2val_0x80000001
0000be6d l       .data	00000000 I_sltu_cg_cr_rs1_rs2_edges_rs1val_0x7ffffffe_rs2val_0x80000001_str
00002298 l       .text.rvtest	00000000 I_sltu_cg_cr_rs1_rs2_edges_rs1val_0x7ffffffe_rs2val_0x7fffffff
0000bec9 l       .data	00000000 I_sltu_cg_cr_rs1_rs2_edges_rs1val_0x7ffffffe_rs2val_0x7fffffff_str
000022c4 l       .text.rvtest	00000000 I_sltu_cg_cr_rs1_rs2_edges_rs1val_0x7ffffffe_rs2val_0x7ffffffe
0000bf25 l       .data	00000000 I_sltu_cg_cr_rs1_rs2_edges_rs1val_0x7ffffffe_rs2val_0x7ffffffe_str
000022f0 l       .text.rvtest	00000000 I_sltu_cg_cr_rs1_rs2_edges_rs1val_0x7ffffffe_rs2val_0xffffffff
0000bf81 l       .data	00000000 I_sltu_cg_cr_rs1_rs2_edges_rs1val_0x7ffffffe_rs2val_0xffffffff_str
0000231c l       .text.rvtest	00000000 I_sltu_cg_cr_rs1_rs2_edges_rs1val_0x7ffffffe_rs2val_0xfffffffe
0000bfdd l       .data	00000000 I_sltu_cg_cr_rs1_rs2_edges_rs1val_0x7ffffffe_rs2val_0xfffffffe_str
00002348 l       .text.rvtest	00000000 I_sltu_cg_cr_rs1_rs2_edges_rs1val_0x7ffffffe_rs2val_0x5bbc8872
0000c039 l       .data	00000000 I_sltu_cg_cr_rs1_rs2_edges_rs1val_0x7ffffffe_rs2val_0x5bbc8872_str
00002374 l       .text.rvtest	00000000 I_sltu_cg_cr_rs1_rs2_edges_rs1val_0x7ffffffe_rs2val_0xaaaaaaaa
0000c095 l       .data	00000000 I_sltu_cg_cr_rs1_rs2_edges_rs1val_0x7ffffffe_rs2val_0xaaaaaaaa_str
000023a0 l       .text.rvtest	00000000 I_sltu_cg_cr_rs1_rs2_edges_rs1val_0x7ffffffe_rs2val_0x55555555
0000c0f1 l       .data	00000000 I_sltu_cg_cr_rs1_rs2_edges_rs1val_0x7ffffffe_rs2val_0x55555555_str
000023cc l       .text.rvtest	00000000 I_sltu_cg_cr_rs1_rs2_edges_rs1val_0xffffffff_rs2val_0x0
0000c14d l       .data	00000000 I_sltu_cg_cr_rs1_rs2_edges_rs1val_0xffffffff_rs2val_0x0_str
000023f8 l       .text.rvtest	00000000 I_sltu_cg_cr_rs1_rs2_edges_rs1val_0xffffffff_rs2val_0x1
0000c1a2 l       .data	00000000 I_sltu_cg_cr_rs1_rs2_edges_rs1val_0xffffffff_rs2val_0x1_str
00002424 l       .text.rvtest	00000000 I_sltu_cg_cr_rs1_rs2_edges_rs1val_0xffffffff_rs2val_0x2
0000c1f7 l       .data	00000000 I_sltu_cg_cr_rs1_rs2_edges_rs1val_0xffffffff_rs2val_0x2_str
00002450 l       .text.rvtest	00000000 I_sltu_cg_cr_rs1_rs2_edges_rs1val_0xffffffff_rs2val_0x80000000
0000c24c l       .data	00000000 I_sltu_cg_cr_rs1_rs2_edges_rs1val_0xffffffff_rs2val_0x80000000_str
0000247c l       .text.rvtest	00000000 I_sltu_cg_cr_rs1_rs2_edges_rs1val_0xffffffff_rs2val_0x80000001
0000c2a8 l       .data	00000000 I_sltu_cg_cr_rs1_rs2_edges_rs1val_0xffffffff_rs2val_0x80000001_str
000024a8 l       .text.rvtest	00000000 I_sltu_cg_cr_rs1_rs2_edges_rs1val_0xffffffff_rs2val_0x7fffffff
0000c304 l       .data	00000000 I_sltu_cg_cr_rs1_rs2_edges_rs1val_0xffffffff_rs2val_0x7fffffff_str
000024d4 l       .text.rvtest	00000000 I_sltu_cg_cr_rs1_rs2_edges_rs1val_0xffffffff_rs2val_0x7ffffffe
0000c360 l       .data	00000000 I_sltu_cg_cr_rs1_rs2_edges_rs1val_0xffffffff_rs2val_0x7ffffffe_str
00002500 l       .text.rvtest	00000000 I_sltu_cg_cr_rs1_rs2_edges_rs1val_0xffffffff_rs2val_0xffffffff
0000c3bc l       .data	00000000 I_sltu_cg_cr_rs1_rs2_edges_rs1val_0xffffffff_rs2val_0xffffffff_str
0000252c l       .text.rvtest	00000000 I_sltu_cg_cr_rs1_rs2_edges_rs1val_0xffffffff_rs2val_0xfffffffe
0000c418 l       .data	00000000 I_sltu_cg_cr_rs1_rs2_edges_rs1val_0xffffffff_rs2val_0xfffffffe_str
00002558 l       .text.rvtest	00000000 I_sltu_cg_cr_rs1_rs2_edges_rs1val_0xffffffff_rs2val_0x5bbc8872
0000c474 l       .data	00000000 I_sltu_cg_cr_rs1_rs2_edges_rs1val_0xffffffff_rs2val_0x5bbc8872_str
00002584 l       .text.rvtest	00000000 I_sltu_cg_cr_rs1_rs2_edges_rs1val_0xffffffff_rs2val_0xaaaaaaaa
0000c4d0 l       .data	00000000 I_sltu_cg_cr_rs1_rs2_edges_rs1val_0xffffffff_rs2val_0xaaaaaaaa_str
000025b0 l       .text.rvtest	00000000 I_sltu_cg_cr_rs1_rs2_edges_rs1val_0xffffffff_rs2val_0x55555555
0000c52c l       .data	00000000 I_sltu_cg_cr_rs1_rs2_edges_rs1val_0xffffffff_rs2val_0x55555555_str
000025dc l       .text.rvtest	00000000 I_sltu_cg_cr_rs1_rs2_edges_rs1val_0xfffffffe_rs2val_0x0
0000c588 l       .data	00000000 I_sltu_cg_cr_rs1_rs2_edges_rs1val_0xfffffffe_rs2val_0x0_str
00002608 l       .text.rvtest	00000000 I_sltu_cg_cr_rs1_rs2_edges_rs1val_0xfffffffe_rs2val_0x1
0000c5dd l       .data	00000000 I_sltu_cg_cr_rs1_rs2_edges_rs1val_0xfffffffe_rs2val_0x1_str
00002634 l       .text.rvtest	00000000 I_sltu_cg_cr_rs1_rs2_edges_rs1val_0xfffffffe_rs2val_0x2
0000c632 l       .data	00000000 I_sltu_cg_cr_rs1_rs2_edges_rs1val_0xfffffffe_rs2val_0x2_str
00002660 l       .text.rvtest	00000000 I_sltu_cg_cr_rs1_rs2_edges_rs1val_0xfffffffe_rs2val_0x80000000
0000c687 l       .data	00000000 I_sltu_cg_cr_rs1_rs2_edges_rs1val_0xfffffffe_rs2val_0x80000000_str
0000268c l       .text.rvtest	00000000 I_sltu_cg_cr_rs1_rs2_edges_rs1val_0xfffffffe_rs2val_0x80000001
0000c6e3 l       .data	00000000 I_sltu_cg_cr_rs1_rs2_edges_rs1val_0xfffffffe_rs2val_0x80000001_str
000026b8 l       .text.rvtest	00000000 I_sltu_cg_cr_rs1_rs2_edges_rs1val_0xfffffffe_rs2val_0x7fffffff
0000c73f l       .data	00000000 I_sltu_cg_cr_rs1_rs2_edges_rs1val_0xfffffffe_rs2val_0x7fffffff_str
000026e4 l       .text.rvtest	00000000 I_sltu_cg_cr_rs1_rs2_edges_rs1val_0xfffffffe_rs2val_0x7ffffffe
0000c79b l       .data	00000000 I_sltu_cg_cr_rs1_rs2_edges_rs1val_0xfffffffe_rs2val_0x7ffffffe_str
00002710 l       .text.rvtest	00000000 I_sltu_cg_cr_rs1_rs2_edges_rs1val_0xfffffffe_rs2val_0xffffffff
0000c7f7 l       .data	00000000 I_sltu_cg_cr_rs1_rs2_edges_rs1val_0xfffffffe_rs2val_0xffffffff_str
0000273c l       .text.rvtest	00000000 I_sltu_cg_cr_rs1_rs2_edges_rs1val_0xfffffffe_rs2val_0xfffffffe
0000c853 l       .data	00000000 I_sltu_cg_cr_rs1_rs2_edges_rs1val_0xfffffffe_rs2val_0xfffffffe_str
00002768 l       .text.rvtest	00000000 I_sltu_cg_cr_rs1_rs2_edges_rs1val_0xfffffffe_rs2val_0x5bbc8872
0000c8af l       .data	00000000 I_sltu_cg_cr_rs1_rs2_edges_rs1val_0xfffffffe_rs2val_0x5bbc8872_str
00002794 l       .text.rvtest	00000000 I_sltu_cg_cr_rs1_rs2_edges_rs1val_0xfffffffe_rs2val_0xaaaaaaaa
0000c90b l       .data	00000000 I_sltu_cg_cr_rs1_rs2_edges_rs1val_0xfffffffe_rs2val_0xaaaaaaaa_str
000027c0 l       .text.rvtest	00000000 I_sltu_cg_cr_rs1_rs2_edges_rs1val_0xfffffffe_rs2val_0x55555555
0000c967 l       .data	00000000 I_sltu_cg_cr_rs1_rs2_edges_rs1val_0xfffffffe_rs2val_0x55555555_str
000027ec l       .text.rvtest	00000000 I_sltu_cg_cr_rs1_rs2_edges_rs1val_0x5bbc8872_rs2val_0x0
0000c9c3 l       .data	00000000 I_sltu_cg_cr_rs1_rs2_edges_rs1val_0x5bbc8872_rs2val_0x0_str
00002818 l       .text.rvtest	00000000 I_sltu_cg_cr_rs1_rs2_edges_rs1val_0x5bbc8872_rs2val_0x1
0000ca18 l       .data	00000000 I_sltu_cg_cr_rs1_rs2_edges_rs1val_0x5bbc8872_rs2val_0x1_str
00002844 l       .text.rvtest	00000000 I_sltu_cg_cr_rs1_rs2_edges_rs1val_0x5bbc8872_rs2val_0x2
0000ca6d l       .data	00000000 I_sltu_cg_cr_rs1_rs2_edges_rs1val_0x5bbc8872_rs2val_0x2_str
00002870 l       .text.rvtest	00000000 I_sltu_cg_cr_rs1_rs2_edges_rs1val_0x5bbc8872_rs2val_0x80000000
0000cac2 l       .data	00000000 I_sltu_cg_cr_rs1_rs2_edges_rs1val_0x5bbc8872_rs2val_0x80000000_str
0000289c l       .text.rvtest	00000000 I_sltu_cg_cr_rs1_rs2_edges_rs1val_0x5bbc8872_rs2val_0x80000001
0000cb1e l       .data	00000000 I_sltu_cg_cr_rs1_rs2_edges_rs1val_0x5bbc8872_rs2val_0x80000001_str
000028c8 l       .text.rvtest	00000000 I_sltu_cg_cr_rs1_rs2_edges_rs1val_0x5bbc8872_rs2val_0x7fffffff
0000cb7a l       .data	00000000 I_sltu_cg_cr_rs1_rs2_edges_rs1val_0x5bbc8872_rs2val_0x7fffffff_str
000028f4 l       .text.rvtest	00000000 I_sltu_cg_cr_rs1_rs2_edges_rs1val_0x5bbc8872_rs2val_0x7ffffffe
0000cbd6 l       .data	00000000 I_sltu_cg_cr_rs1_rs2_edges_rs1val_0x5bbc8872_rs2val_0x7ffffffe_str
00002920 l       .text.rvtest	00000000 I_sltu_cg_cr_rs1_rs2_edges_rs1val_0x5bbc8872_rs2val_0xffffffff
0000cc32 l       .data	00000000 I_sltu_cg_cr_rs1_rs2_edges_rs1val_0x5bbc8872_rs2val_0xffffffff_str
0000294c l       .text.rvtest	00000000 I_sltu_cg_cr_rs1_rs2_edges_rs1val_0x5bbc8872_rs2val_0xfffffffe
0000cc8e l       .data	00000000 I_sltu_cg_cr_rs1_rs2_edges_rs1val_0x5bbc8872_rs2val_0xfffffffe_str
00002978 l       .text.rvtest	00000000 I_sltu_cg_cr_rs1_rs2_edges_rs1val_0x5bbc8872_rs2val_0x5bbc8872
0000ccea l       .data	00000000 I_sltu_cg_cr_rs1_rs2_edges_rs1val_0x5bbc8872_rs2val_0x5bbc8872_str
000029a4 l       .text.rvtest	00000000 I_sltu_cg_cr_rs1_rs2_edges_rs1val_0x5bbc8872_rs2val_0xaaaaaaaa
0000cd46 l       .data	00000000 I_sltu_cg_cr_rs1_rs2_edges_rs1val_0x5bbc8872_rs2val_0xaaaaaaaa_str
000029d0 l       .text.rvtest	00000000 I_sltu_cg_cr_rs1_rs2_edges_rs1val_0x5bbc8872_rs2val_0x55555555
0000cda2 l       .data	00000000 I_sltu_cg_cr_rs1_rs2_edges_rs1val_0x5bbc8872_rs2val_0x55555555_str
000029fc l       .text.rvtest	00000000 I_sltu_cg_cr_rs1_rs2_edges_rs1val_0xaaaaaaaa_rs2val_0x0
0000cdfe l       .data	00000000 I_sltu_cg_cr_rs1_rs2_edges_rs1val_0xaaaaaaaa_rs2val_0x0_str
00002a28 l       .text.rvtest	00000000 I_sltu_cg_cr_rs1_rs2_edges_rs1val_0xaaaaaaaa_rs2val_0x1
0000ce53 l       .data	00000000 I_sltu_cg_cr_rs1_rs2_edges_rs1val_0xaaaaaaaa_rs2val_0x1_str
00002a54 l       .text.rvtest	00000000 I_sltu_cg_cr_rs1_rs2_edges_rs1val_0xaaaaaaaa_rs2val_0x2
0000cea8 l       .data	00000000 I_sltu_cg_cr_rs1_rs2_edges_rs1val_0xaaaaaaaa_rs2val_0x2_str
00002a80 l       .text.rvtest	00000000 I_sltu_cg_cr_rs1_rs2_edges_rs1val_0xaaaaaaaa_rs2val_0x80000000
0000cefd l       .data	00000000 I_sltu_cg_cr_rs1_rs2_edges_rs1val_0xaaaaaaaa_rs2val_0x80000000_str
00002aac l       .text.rvtest	00000000 I_sltu_cg_cr_rs1_rs2_edges_rs1val_0xaaaaaaaa_rs2val_0x80000001
0000cf59 l       .data	00000000 I_sltu_cg_cr_rs1_rs2_edges_rs1val_0xaaaaaaaa_rs2val_0x80000001_str
00002ad8 l       .text.rvtest	00000000 I_sltu_cg_cr_rs1_rs2_edges_rs1val_0xaaaaaaaa_rs2val_0x7fffffff
0000cfb5 l       .data	00000000 I_sltu_cg_cr_rs1_rs2_edges_rs1val_0xaaaaaaaa_rs2val_0x7fffffff_str
00002b04 l       .text.rvtest	00000000 I_sltu_cg_cr_rs1_rs2_edges_rs1val_0xaaaaaaaa_rs2val_0x7ffffffe
0000d011 l       .data	00000000 I_sltu_cg_cr_rs1_rs2_edges_rs1val_0xaaaaaaaa_rs2val_0x7ffffffe_str
00002b30 l       .text.rvtest	00000000 I_sltu_cg_cr_rs1_rs2_edges_rs1val_0xaaaaaaaa_rs2val_0xffffffff
0000d06d l       .data	00000000 I_sltu_cg_cr_rs1_rs2_edges_rs1val_0xaaaaaaaa_rs2val_0xffffffff_str
00002b5c l       .text.rvtest	00000000 I_sltu_cg_cr_rs1_rs2_edges_rs1val_0xaaaaaaaa_rs2val_0xfffffffe
0000d0c9 l       .data	00000000 I_sltu_cg_cr_rs1_rs2_edges_rs1val_0xaaaaaaaa_rs2val_0xfffffffe_str
00002b88 l       .text.rvtest	00000000 I_sltu_cg_cr_rs1_rs2_edges_rs1val_0xaaaaaaaa_rs2val_0x5bbc8872
0000d125 l       .data	00000000 I_sltu_cg_cr_rs1_rs2_edges_rs1val_0xaaaaaaaa_rs2val_0x5bbc8872_str
00002bb4 l       .text.rvtest	00000000 I_sltu_cg_cr_rs1_rs2_edges_rs1val_0xaaaaaaaa_rs2val_0xaaaaaaaa
0000d181 l       .data	00000000 I_sltu_cg_cr_rs1_rs2_edges_rs1val_0xaaaaaaaa_rs2val_0xaaaaaaaa_str
00002be0 l       .text.rvtest	00000000 I_sltu_cg_cr_rs1_rs2_edges_rs1val_0xaaaaaaaa_rs2val_0x55555555
0000d1dd l       .data	00000000 I_sltu_cg_cr_rs1_rs2_edges_rs1val_0xaaaaaaaa_rs2val_0x55555555_str
00002c0c l       .text.rvtest	00000000 I_sltu_cg_cr_rs1_rs2_edges_rs1val_0x55555555_rs2val_0x0
0000d239 l       .data	00000000 I_sltu_cg_cr_rs1_rs2_edges_rs1val_0x55555555_rs2val_0x0_str
00002c38 l       .text.rvtest	00000000 I_sltu_cg_cr_rs1_rs2_edges_rs1val_0x55555555_rs2val_0x1
0000d28e l       .data	00000000 I_sltu_cg_cr_rs1_rs2_edges_rs1val_0x55555555_rs2val_0x1_str
00002c64 l       .text.rvtest	00000000 I_sltu_cg_cr_rs1_rs2_edges_rs1val_0x55555555_rs2val_0x2
0000d2e3 l       .data	00000000 I_sltu_cg_cr_rs1_rs2_edges_rs1val_0x55555555_rs2val_0x2_str
00002c90 l       .text.rvtest	00000000 I_sltu_cg_cr_rs1_rs2_edges_rs1val_0x55555555_rs2val_0x80000000
0000d338 l       .data	00000000 I_sltu_cg_cr_rs1_rs2_edges_rs1val_0x55555555_rs2val_0x80000000_str
00002cbc l       .text.rvtest	00000000 I_sltu_cg_cr_rs1_rs2_edges_rs1val_0x55555555_rs2val_0x80000001
0000d394 l       .data	00000000 I_sltu_cg_cr_rs1_rs2_edges_rs1val_0x55555555_rs2val_0x80000001_str
00002ce8 l       .text.rvtest	00000000 I_sltu_cg_cr_rs1_rs2_edges_rs1val_0x55555555_rs2val_0x7fffffff
0000d3f0 l       .data	00000000 I_sltu_cg_cr_rs1_rs2_edges_rs1val_0x55555555_rs2val_0x7fffffff_str
00002d14 l       .text.rvtest	00000000 I_sltu_cg_cr_rs1_rs2_edges_rs1val_0x55555555_rs2val_0x7ffffffe
0000d44c l       .data	00000000 I_sltu_cg_cr_rs1_rs2_edges_rs1val_0x55555555_rs2val_0x7ffffffe_str
00002d40 l       .text.rvtest	00000000 I_sltu_cg_cr_rs1_rs2_edges_rs1val_0x55555555_rs2val_0xffffffff
0000d4a8 l       .data	00000000 I_sltu_cg_cr_rs1_rs2_edges_rs1val_0x55555555_rs2val_0xffffffff_str
00002d6c l       .text.rvtest	00000000 I_sltu_cg_cr_rs1_rs2_edges_rs1val_0x55555555_rs2val_0xfffffffe
0000d504 l       .data	00000000 I_sltu_cg_cr_rs1_rs2_edges_rs1val_0x55555555_rs2val_0xfffffffe_str
00002d98 l       .text.rvtest	00000000 I_sltu_cg_cr_rs1_rs2_edges_rs1val_0x55555555_rs2val_0x5bbc8872
0000d560 l       .data	00000000 I_sltu_cg_cr_rs1_rs2_edges_rs1val_0x55555555_rs2val_0x5bbc8872_str
00002dc4 l       .text.rvtest	00000000 I_sltu_cg_cr_rs1_rs2_edges_rs1val_0x55555555_rs2val_0xaaaaaaaa
0000d5bc l       .data	00000000 I_sltu_cg_cr_rs1_rs2_edges_rs1val_0x55555555_rs2val_0xaaaaaaaa_str
00002df0 l       .text.rvtest	00000000 I_sltu_cg_cr_rs1_rs2_edges_rs1val_0x55555555_rs2val_0x55555555
0000d618 l       .data	00000000 I_sltu_cg_cr_rs1_rs2_edges_rs1val_0x55555555_rs2val_0x55555555_str
00002e1c l       .text.rvtest	00000000 I_sltu_cg_cmp_rs1_rs2_b0
0000d674 l       .data	00000000 I_sltu_cg_cmp_rs1_rs2_b0_str
00002e48 l       .text.rvtest	00000000 I_sltu_cg_cmp_rs1_rs2_b1
0000d6a9 l       .data	00000000 I_sltu_cg_cmp_rs1_rs2_b1_str
00002e74 l       .text.rvtest	00000000 I_sltu_cg_cmp_rs1_rs2_b2
0000d6de l       .data	00000000 I_sltu_cg_cmp_rs1_rs2_b2_str
00002ea0 l       .text.rvtest	00000000 I_sltu_cg_cmp_rs1_rs2_b3
0000d713 l       .data	00000000 I_sltu_cg_cmp_rs1_rs2_b3_str
00002ed4 l       .text.rvtest	00000000 I_sltu_cg_cmp_rs1_rs2_b4
0000d748 l       .data	00000000 I_sltu_cg_cmp_rs1_rs2_b4_str
00002f00 l       .text.rvtest	00000000 I_sltu_cg_cmp_rs1_rs2_b5
0000d77d l       .data	00000000 I_sltu_cg_cmp_rs1_rs2_b5_str
00002f30 l       .text.rvtest	00000000 I_sltu_cg_cmp_rs1_rs2_b6
0000d7b2 l       .data	00000000 I_sltu_cg_cmp_rs1_rs2_b6_str
00002f64 l       .text.rvtest	00000000 I_sltu_cg_cmp_rs1_rs2_b7
0000d7e7 l       .data	00000000 I_sltu_cg_cmp_rs1_rs2_b7_str
00002f90 l       .text.rvtest	00000000 I_sltu_cg_cmp_rs1_rs2_b8
0000d81c l       .data	00000000 I_sltu_cg_cmp_rs1_rs2_b8_str
00002fbc l       .text.rvtest	00000000 I_sltu_cg_cmp_rs1_rs2_b9
0000d851 l       .data	00000000 I_sltu_cg_cmp_rs1_rs2_b9_str
00002fe8 l       .text.rvtest	00000000 I_sltu_cg_cmp_rs1_rs2_b10
0000d886 l       .data	00000000 I_sltu_cg_cmp_rs1_rs2_b10_str
00003018 l       .text.rvtest	00000000 I_sltu_cg_cmp_rs1_rs2_b11
0000d8bc l       .data	00000000 I_sltu_cg_cmp_rs1_rs2_b11_str
00003044 l       .text.rvtest	00000000 I_sltu_cg_cmp_rs1_rs2_b12
0000d8f2 l       .data	00000000 I_sltu_cg_cmp_rs1_rs2_b12_str
00003078 l       .text.rvtest	00000000 I_sltu_cg_cmp_rs1_rs2_b13
0000d928 l       .data	00000000 I_sltu_cg_cmp_rs1_rs2_b13_str
000030a4 l       .text.rvtest	00000000 I_sltu_cg_cmp_rs1_rs2_b14
0000d95e l       .data	00000000 I_sltu_cg_cmp_rs1_rs2_b14_str
000030d0 l       .text.rvtest	00000000 I_sltu_cg_cmp_rs1_rs2_b15
0000d994 l       .data	00000000 I_sltu_cg_cmp_rs1_rs2_b15_str
000030fc l       .text.rvtest	00000000 I_sltu_cg_cmp_rs1_rs2_b16
0000d9ca l       .data	00000000 I_sltu_cg_cmp_rs1_rs2_b16_str
00003128 l       .text.rvtest	00000000 I_sltu_cg_cmp_rs1_rs2_b17
0000da00 l       .data	00000000 I_sltu_cg_cmp_rs1_rs2_b17_str
00003154 l       .text.rvtest	00000000 I_sltu_cg_cmp_rs1_rs2_b18
0000da36 l       .data	00000000 I_sltu_cg_cmp_rs1_rs2_b18_str
00003184 l       .text.rvtest	00000000 I_sltu_cg_cmp_rs1_rs2_b19
0000da6c l       .data	00000000 I_sltu_cg_cmp_rs1_rs2_b19_str
000031b0 l       .text.rvtest	00000000 I_sltu_cg_cmp_rs1_rs2_b20
0000daa2 l       .data	00000000 I_sltu_cg_cmp_rs1_rs2_b20_str
000031dc l       .text.rvtest	00000000 I_sltu_cg_cmp_rs1_rs2_b21
0000dad8 l       .data	00000000 I_sltu_cg_cmp_rs1_rs2_b21_str
00003208 l       .text.rvtest	00000000 I_sltu_cg_cmp_rs1_rs2_b22
0000db0e l       .data	00000000 I_sltu_cg_cmp_rs1_rs2_b22_str
00003234 l       .text.rvtest	00000000 I_sltu_cg_cmp_rs1_rs2_b23
0000db44 l       .data	00000000 I_sltu_cg_cmp_rs1_rs2_b23_str
00003260 l       .text.rvtest	00000000 I_sltu_cg_cmp_rs1_rs2_b24
0000db7a l       .data	00000000 I_sltu_cg_cmp_rs1_rs2_b24_str
0000328c l       .text.rvtest	00000000 I_sltu_cg_cmp_rs1_rs2_b25
0000dbb0 l       .data	00000000 I_sltu_cg_cmp_rs1_rs2_b25_str
000032b8 l       .text.rvtest	00000000 I_sltu_cg_cmp_rs1_rs2_b26
0000dbe6 l       .data	00000000 I_sltu_cg_cmp_rs1_rs2_b26_str
000032e4 l       .text.rvtest	00000000 I_sltu_cg_cmp_rs1_rs2_b27
0000dc1c l       .data	00000000 I_sltu_cg_cmp_rs1_rs2_b27_str
00003310 l       .text.rvtest	00000000 I_sltu_cg_cmp_rs1_rs2_b28
0000dc52 l       .data	00000000 I_sltu_cg_cmp_rs1_rs2_b28_str
00003340 l       .text.rvtest	00000000 I_sltu_cg_cmp_rs1_rs2_b29
0000dc88 l       .data	00000000 I_sltu_cg_cmp_rs1_rs2_b29_str
00003370 l       .text.rvtest	00000000 I_sltu_cg_cmp_rs1_rs2_b30
0000dcbe l       .data	00000000 I_sltu_cg_cmp_rs1_rs2_b30_str
0000339c l       .text.rvtest	00000000 I_sltu_cg_cmp_rs1_rs2_b31
0000dcf4 l       .data	00000000 I_sltu_cg_cmp_rs1_rs2_b31_str
000033c8 l       .text.rvtest	00000000 I_sltu_cg_cmp_rd_rs1_b0
0000dd2a l       .data	00000000 I_sltu_cg_cmp_rd_rs1_b0_str
000033f8 l       .text.rvtest	00000000 I_sltu_cg_cmp_rd_rs1_b1
0000dd5e l       .data	00000000 I_sltu_cg_cmp_rd_rs1_b1_str
00003424 l       .text.rvtest	00000000 I_sltu_cg_cmp_rd_rs1_b2
0000dd92 l       .data	00000000 I_sltu_cg_cmp_rd_rs1_b2_str
00003450 l       .text.rvtest	00000000 I_sltu_cg_cmp_rd_rs1_b3
0000ddc6 l       .data	00000000 I_sltu_cg_cmp_rd_rs1_b3_str
00003484 l       .text.rvtest	00000000 I_sltu_cg_cmp_rd_rs1_b4
0000ddfa l       .data	00000000 I_sltu_cg_cmp_rd_rs1_b4_str
000034b0 l       .text.rvtest	00000000 I_sltu_cg_cmp_rd_rs1_b5
0000de2e l       .data	00000000 I_sltu_cg_cmp_rd_rs1_b5_str
000034dc l       .text.rvtest	00000000 I_sltu_cg_cmp_rd_rs1_b6
0000de62 l       .data	00000000 I_sltu_cg_cmp_rd_rs1_b6_str
00003510 l       .text.rvtest	00000000 I_sltu_cg_cmp_rd_rs1_b7
0000de96 l       .data	00000000 I_sltu_cg_cmp_rd_rs1_b7_str
0000353c l       .text.rvtest	00000000 I_sltu_cg_cmp_rd_rs1_b8
0000deca l       .data	00000000 I_sltu_cg_cmp_rd_rs1_b8_str
00003568 l       .text.rvtest	00000000 I_sltu_cg_cmp_rd_rs1_b9
0000defe l       .data	00000000 I_sltu_cg_cmp_rd_rs1_b9_str
00003594 l       .text.rvtest	00000000 I_sltu_cg_cmp_rd_rs1_b10
0000df32 l       .data	00000000 I_sltu_cg_cmp_rd_rs1_b10_str
000035c0 l       .text.rvtest	00000000 I_sltu_cg_cmp_rd_rs1_b11
0000df67 l       .data	00000000 I_sltu_cg_cmp_rd_rs1_b11_str
000035ec l       .text.rvtest	00000000 I_sltu_cg_cmp_rd_rs1_b12
0000df9c l       .data	00000000 I_sltu_cg_cmp_rd_rs1_b12_str
00003618 l       .text.rvtest	00000000 I_sltu_cg_cmp_rd_rs1_b13
0000dfd1 l       .data	00000000 I_sltu_cg_cmp_rd_rs1_b13_str
00003644 l       .text.rvtest	00000000 I_sltu_cg_cmp_rd_rs1_b14
0000e006 l       .data	00000000 I_sltu_cg_cmp_rd_rs1_b14_str
00003670 l       .text.rvtest	00000000 I_sltu_cg_cmp_rd_rs1_b15
0000e03b l       .data	00000000 I_sltu_cg_cmp_rd_rs1_b15_str
0000369c l       .text.rvtest	00000000 I_sltu_cg_cmp_rd_rs1_b16
0000e070 l       .data	00000000 I_sltu_cg_cmp_rd_rs1_b16_str
000036c8 l       .text.rvtest	00000000 I_sltu_cg_cmp_rd_rs1_b17
0000e0a5 l       .data	00000000 I_sltu_cg_cmp_rd_rs1_b17_str
000036f4 l       .text.rvtest	00000000 I_sltu_cg_cmp_rd_rs1_b18
0000e0da l       .data	00000000 I_sltu_cg_cmp_rd_rs1_b18_str
00003720 l       .text.rvtest	00000000 I_sltu_cg_cmp_rd_rs1_b19
0000e10f l       .data	00000000 I_sltu_cg_cmp_rd_rs1_b19_str
00003750 l       .text.rvtest	00000000 I_sltu_cg_cmp_rd_rs1_b20
0000e144 l       .data	00000000 I_sltu_cg_cmp_rd_rs1_b20_str
0000377c l       .text.rvtest	00000000 I_sltu_cg_cmp_rd_rs1_b21
0000e179 l       .data	00000000 I_sltu_cg_cmp_rd_rs1_b21_str
000037a8 l       .text.rvtest	00000000 I_sltu_cg_cmp_rd_rs1_b22
0000e1ae l       .data	00000000 I_sltu_cg_cmp_rd_rs1_b22_str
000037d4 l       .text.rvtest	00000000 I_sltu_cg_cmp_rd_rs1_b23
0000e1e3 l       .data	00000000 I_sltu_cg_cmp_rd_rs1_b23_str
00003800 l       .text.rvtest	00000000 I_sltu_cg_cmp_rd_rs1_b24
0000e218 l       .data	00000000 I_sltu_cg_cmp_rd_rs1_b24_str
0000382c l       .text.rvtest	00000000 I_sltu_cg_cmp_rd_rs1_b25
0000e24d l       .data	00000000 I_sltu_cg_cmp_rd_rs1_b25_str
00003858 l       .text.rvtest	00000000 I_sltu_cg_cmp_rd_rs1_b26
0000e282 l       .data	00000000 I_sltu_cg_cmp_rd_rs1_b26_str
00003884 l       .text.rvtest	00000000 I_sltu_cg_cmp_rd_rs1_b27
0000e2b7 l       .data	00000000 I_sltu_cg_cmp_rd_rs1_b27_str
000038b0 l       .text.rvtest	00000000 I_sltu_cg_cmp_rd_rs1_b28
0000e2ec l       .data	00000000 I_sltu_cg_cmp_rd_rs1_b28_str
000038dc l       .text.rvtest	00000000 I_sltu_cg_cmp_rd_rs1_b29
0000e321 l       .data	00000000 I_sltu_cg_cmp_rd_rs1_b29_str
0000390c l       .text.rvtest	00000000 I_sltu_cg_cmp_rd_rs1_b30
0000e356 l       .data	00000000 I_sltu_cg_cmp_rd_rs1_b30_str
0000393c l       .text.rvtest	00000000 I_sltu_cg_cmp_rd_rs1_b31
0000e38b l       .data	00000000 I_sltu_cg_cmp_rd_rs1_b31_str
00003968 l       .text.rvtest	00000000 I_sltu_cg_cmp_rd_rs2_b0
0000e3c0 l       .data	00000000 I_sltu_cg_cmp_rd_rs2_b0_str
00003994 l       .text.rvtest	00000000 I_sltu_cg_cmp_rd_rs2_b1
0000e3f4 l       .data	00000000 I_sltu_cg_cmp_rd_rs2_b1_str
000039c0 l       .text.rvtest	00000000 I_sltu_cg_cmp_rd_rs2_b2
0000e428 l       .data	00000000 I_sltu_cg_cmp_rd_rs2_b2_str
000039ec l       .text.rvtest	00000000 I_sltu_cg_cmp_rd_rs2_b3
0000e45c l       .data	00000000 I_sltu_cg_cmp_rd_rs2_b3_str
00003a20 l       .text.rvtest	00000000 I_sltu_cg_cmp_rd_rs2_b4
0000e490 l       .data	00000000 I_sltu_cg_cmp_rd_rs2_b4_str
00003a4c l       .text.rvtest	00000000 I_sltu_cg_cmp_rd_rs2_b5
0000e4c4 l       .data	00000000 I_sltu_cg_cmp_rd_rs2_b5_str
00003a78 l       .text.rvtest	00000000 I_sltu_cg_cmp_rd_rs2_b6
0000e4f8 l       .data	00000000 I_sltu_cg_cmp_rd_rs2_b6_str
00003aac l       .text.rvtest	00000000 I_sltu_cg_cmp_rd_rs2_b7
0000e52c l       .data	00000000 I_sltu_cg_cmp_rd_rs2_b7_str
00003ad8 l       .text.rvtest	00000000 I_sltu_cg_cmp_rd_rs2_b8
0000e560 l       .data	00000000 I_sltu_cg_cmp_rd_rs2_b8_str
00003b04 l       .text.rvtest	00000000 I_sltu_cg_cmp_rd_rs2_b9
0000e594 l       .data	00000000 I_sltu_cg_cmp_rd_rs2_b9_str
00003b34 l       .text.rvtest	00000000 I_sltu_cg_cmp_rd_rs2_b10
0000e5c8 l       .data	00000000 I_sltu_cg_cmp_rd_rs2_b10_str
00003b60 l       .text.rvtest	00000000 I_sltu_cg_cmp_rd_rs2_b11
0000e5fd l       .data	00000000 I_sltu_cg_cmp_rd_rs2_b11_str
00003b8c l       .text.rvtest	00000000 I_sltu_cg_cmp_rd_rs2_b12
0000e632 l       .data	00000000 I_sltu_cg_cmp_rd_rs2_b12_str
00003bc0 l       .text.rvtest	00000000 I_sltu_cg_cmp_rd_rs2_b13
0000e667 l       .data	00000000 I_sltu_cg_cmp_rd_rs2_b13_str
00003bec l       .text.rvtest	00000000 I_sltu_cg_cmp_rd_rs2_b14
0000e69c l       .data	00000000 I_sltu_cg_cmp_rd_rs2_b14_str
00003c18 l       .text.rvtest	00000000 I_sltu_cg_cmp_rd_rs2_b15
0000e6d1 l       .data	00000000 I_sltu_cg_cmp_rd_rs2_b15_str
00003c44 l       .text.rvtest	00000000 I_sltu_cg_cmp_rd_rs2_b16
0000e706 l       .data	00000000 I_sltu_cg_cmp_rd_rs2_b16_str
00003c74 l       .text.rvtest	00000000 I_sltu_cg_cmp_rd_rs2_b17
0000e73b l       .data	00000000 I_sltu_cg_cmp_rd_rs2_b17_str
00003ca4 l       .text.rvtest	00000000 I_sltu_cg_cmp_rd_rs2_b18
0000e770 l       .data	00000000 I_sltu_cg_cmp_rd_rs2_b18_str
00003cd0 l       .text.rvtest	00000000 I_sltu_cg_cmp_rd_rs2_b19
0000e7a5 l       .data	00000000 I_sltu_cg_cmp_rd_rs2_b19_str
00003cfc l       .text.rvtest	00000000 I_sltu_cg_cmp_rd_rs2_b20
0000e7da l       .data	00000000 I_sltu_cg_cmp_rd_rs2_b20_str
00003d28 l       .text.rvtest	00000000 I_sltu_cg_cmp_rd_rs2_b21
0000e80f l       .data	00000000 I_sltu_cg_cmp_rd_rs2_b21_str
00003d54 l       .text.rvtest	00000000 I_sltu_cg_cmp_rd_rs2_b22
0000e844 l       .data	00000000 I_sltu_cg_cmp_rd_rs2_b22_str
00003d80 l       .text.rvtest	00000000 I_sltu_cg_cmp_rd_rs2_b23
0000e879 l       .data	00000000 I_sltu_cg_cmp_rd_rs2_b23_str
00003dac l       .text.rvtest	00000000 I_sltu_cg_cmp_rd_rs2_b24
0000e8ae l       .data	00000000 I_sltu_cg_cmp_rd_rs2_b24_str
00003dd8 l       .text.rvtest	00000000 I_sltu_cg_cmp_rd_rs2_b25
0000e8e3 l       .data	00000000 I_sltu_cg_cmp_rd_rs2_b25_str
00003e04 l       .text.rvtest	00000000 I_sltu_cg_cmp_rd_rs2_b26
0000e918 l       .data	00000000 I_sltu_cg_cmp_rd_rs2_b26_str
00003e30 l       .text.rvtest	00000000 I_sltu_cg_cmp_rd_rs2_b27
0000e94d l       .data	00000000 I_sltu_cg_cmp_rd_rs2_b27_str
00003e5c l       .text.rvtest	00000000 I_sltu_cg_cmp_rd_rs2_b28
0000e982 l       .data	00000000 I_sltu_cg_cmp_rd_rs2_b28_str
00003e88 l       .text.rvtest	00000000 I_sltu_cg_cmp_rd_rs2_b29
0000e9b7 l       .data	00000000 I_sltu_cg_cmp_rd_rs2_b29_str
00003eb4 l       .text.rvtest	00000000 I_sltu_cg_cmp_rd_rs2_b30
0000e9ec l       .data	00000000 I_sltu_cg_cmp_rd_rs2_b30_str
00003ee4 l       .text.rvtest	00000000 I_sltu_cg_cmp_rd_rs2_b31
0000ea21 l       .data	00000000 I_sltu_cg_cmp_rd_rs2_b31_str
00003f10 l       .text.rvtest	00000000 I_sltu_cg_cmp_rd_rs1_rs2_b0
0000ea56 l       .data	00000000 I_sltu_cg_cmp_rd_rs1_rs2_b0_str
00003f3c l       .text.rvtest	00000000 I_sltu_cg_cmp_rd_rs1_rs2_b1
0000ea8e l       .data	00000000 I_sltu_cg_cmp_rd_rs1_rs2_b1_str
00003f68 l       .text.rvtest	00000000 I_sltu_cg_cmp_rd_rs1_rs2_b2
0000eac6 l       .data	00000000 I_sltu_cg_cmp_rd_rs1_rs2_b2_str
00003f94 l       .text.rvtest	00000000 I_sltu_cg_cmp_rd_rs1_rs2_b3
0000eafe l       .data	00000000 I_sltu_cg_cmp_rd_rs1_rs2_b3_str
00003fc8 l       .text.rvtest	00000000 I_sltu_cg_cmp_rd_rs1_rs2_b4
0000eb36 l       .data	00000000 I_sltu_cg_cmp_rd_rs1_rs2_b4_str
00003ff4 l       .text.rvtest	00000000 I_sltu_cg_cmp_rd_rs1_rs2_b5
0000eb6e l       .data	00000000 I_sltu_cg_cmp_rd_rs1_rs2_b5_str
00004020 l       .text.rvtest	00000000 I_sltu_cg_cmp_rd_rs1_rs2_b6
0000eba6 l       .data	00000000 I_sltu_cg_cmp_rd_rs1_rs2_b6_str
0000404c l       .text.rvtest	00000000 I_sltu_cg_cmp_rd_rs1_rs2_b7
0000ebde l       .data	00000000 I_sltu_cg_cmp_rd_rs1_rs2_b7_str
00004078 l       .text.rvtest	00000000 I_sltu_cg_cmp_rd_rs1_rs2_b8
0000ec16 l       .data	00000000 I_sltu_cg_cmp_rd_rs1_rs2_b8_str
000040a4 l       .text.rvtest	00000000 I_sltu_cg_cmp_rd_rs1_rs2_b9
0000ec4e l       .data	00000000 I_sltu_cg_cmp_rd_rs1_rs2_b9_str
000040d0 l       .text.rvtest	00000000 I_sltu_cg_cmp_rd_rs1_rs2_b10
0000ec86 l       .data	00000000 I_sltu_cg_cmp_rd_rs1_rs2_b10_str
00004100 l       .text.rvtest	00000000 I_sltu_cg_cmp_rd_rs1_rs2_b11
0000ecbf l       .data	00000000 I_sltu_cg_cmp_rd_rs1_rs2_b11_str
00004130 l       .text.rvtest	00000000 I_sltu_cg_cmp_rd_rs1_rs2_b12
0000ecf8 l       .data	00000000 I_sltu_cg_cmp_rd_rs1_rs2_b12_str
00004164 l       .text.rvtest	00000000 I_sltu_cg_cmp_rd_rs1_rs2_b13
0000ed31 l       .data	00000000 I_sltu_cg_cmp_rd_rs1_rs2_b13_str
00004190 l       .text.rvtest	00000000 I_sltu_cg_cmp_rd_rs1_rs2_b14
0000ed6a l       .data	00000000 I_sltu_cg_cmp_rd_rs1_rs2_b14_str
000041bc l       .text.rvtest	00000000 I_sltu_cg_cmp_rd_rs1_rs2_b15
0000eda3 l       .data	00000000 I_sltu_cg_cmp_rd_rs1_rs2_b15_str
000041e8 l       .text.rvtest	00000000 I_sltu_cg_cmp_rd_rs1_rs2_b16
0000eddc l       .data	00000000 I_sltu_cg_cmp_rd_rs1_rs2_b16_str
00004214 l       .text.rvtest	00000000 I_sltu_cg_cmp_rd_rs1_rs2_b17
0000ee15 l       .data	00000000 I_sltu_cg_cmp_rd_rs1_rs2_b17_str
00004240 l       .text.rvtest	00000000 I_sltu_cg_cmp_rd_rs1_rs2_b18
0000ee4e l       .data	00000000 I_sltu_cg_cmp_rd_rs1_rs2_b18_str
0000426c l       .text.rvtest	00000000 I_sltu_cg_cmp_rd_rs1_rs2_b19
0000ee87 l       .data	00000000 I_sltu_cg_cmp_rd_rs1_rs2_b19_str
0000429c l       .text.rvtest	00000000 I_sltu_cg_cmp_rd_rs1_rs2_b20
0000eec0 l       .data	00000000 I_sltu_cg_cmp_rd_rs1_rs2_b20_str
000042c8 l       .text.rvtest	00000000 I_sltu_cg_cmp_rd_rs1_rs2_b21
0000eef9 l       .data	00000000 I_sltu_cg_cmp_rd_rs1_rs2_b21_str
000042f4 l       .text.rvtest	00000000 I_sltu_cg_cmp_rd_rs1_rs2_b22
0000ef32 l       .data	00000000 I_sltu_cg_cmp_rd_rs1_rs2_b22_str
00004320 l       .text.rvtest	00000000 I_sltu_cg_cmp_rd_rs1_rs2_b23
0000ef6b l       .data	00000000 I_sltu_cg_cmp_rd_rs1_rs2_b23_str
0000434c l       .text.rvtest	00000000 I_sltu_cg_cmp_rd_rs1_rs2_b24
0000efa4 l       .data	00000000 I_sltu_cg_cmp_rd_rs1_rs2_b24_str
00004378 l       .text.rvtest	00000000 I_sltu_cg_cmp_rd_rs1_rs2_b25
0000efdd l       .data	00000000 I_sltu_cg_cmp_rd_rs1_rs2_b25_str
000043a4 l       .text.rvtest	00000000 I_sltu_cg_cmp_rd_rs1_rs2_b26
0000f016 l       .data	00000000 I_sltu_cg_cmp_rd_rs1_rs2_b26_str
000043d0 l       .text.rvtest	00000000 I_sltu_cg_cmp_rd_rs1_rs2_b27
0000f04f l       .data	00000000 I_sltu_cg_cmp_rd_rs1_rs2_b27_str
000043fc l       .text.rvtest	00000000 I_sltu_cg_cmp_rd_rs1_rs2_b28
0000f088 l       .data	00000000 I_sltu_cg_cmp_rd_rs1_rs2_b28_str
00004428 l       .text.rvtest	00000000 I_sltu_cg_cmp_rd_rs1_rs2_b29
0000f0c1 l       .data	00000000 I_sltu_cg_cmp_rd_rs1_rs2_b29_str
00004454 l       .text.rvtest	00000000 I_sltu_cg_cmp_rd_rs1_rs2_b30
0000f0fa l       .data	00000000 I_sltu_cg_cmp_rd_rs1_rs2_b30_str
00004484 l       .text.rvtest	00000000 I_sltu_cg_cmp_rd_rs1_rs2_b31
0000f133 l       .data	00000000 I_sltu_cg_cmp_rd_rs1_rs2_b31_str
000044a4 l       .text.rvtest	00000000 exit_cleanup
0000f7d4 l       .data	00000000 successstr
00020204 l       .text.rvmodel	00000000 rvmodel_io_write_str
00020208 l       .text.rvmodel	00000000 rvmodel_halt_pass
000044f0 l       .text.rvtest	00000000 abort_test
6f5ca309 l       *ABS*	00000000 immx
6f5ca309 l       *ABS*	00000000 absimm
00000000 l       *ABS*	00000000 cry
00000309 l       *ABS*	00000000 imm12
0000f170 l       .data	00000000 begin_failure_scratch
000045c0 l       .text.rvtest	00000000 failedtest_saveregs
00004564 l       .text.rvtest	00000000 failedtest_trap_x7_x9
0000f2e0 l       .data	00000000 saved_mcause
0000f2e8 l       .data	00000000 saved_mtval
0000f2f0 l       .data	00000000 saved_mstatus
00004630 l       .text.rvtest	00000000 failedtest_saveresults
0000f170 l       .data	00000000 failure_type
000046ac l       .text.rvtest	00000000 failedtest_saveresults_trap
00004640 l       .text.rvtest	00000000 failedtest_saveresults_int
00004a80 l       .text.rvtest	00000000 failedtest_saveresults_common
0000f2c8 l       .data	00000000 trap_diag_fail_str_ptr
0000f99c l       .data	00000000 trap_sig_offset_mismatch
00004960 l       .text.rvtest	00000000 trap_diag_offset_mismatch
0000f2a0 l       .data	00000000 trap_diag_subtype
0000fa00 l       .data	00000000 sv_Mvect_str
000049e0 l       .text.rvtest	00000000 trap_diag_field_identified
0000fb02 l       .data	00000000 sv_Mcause_str
0000fbfd l       .data	00000000 sv_Mepc_str
0000fcf0 l       .data	00000000 sv_Mtval_str
0000fe63 l       .data	00000000 sv_Mip_str
0000fde7 l       .data	00000000 sv_Mtval2_str
0000fe25 l       .data	00000000 sv_Mtinst_str
0000fa40 l       .data	00000000 sv_Svect_str
0000fb40 l       .data	00000000 sv_Scause_str
0000fc39 l       .data	00000000 sv_Sepc_str
0000fd2d l       .data	00000000 sv_Stval_str
0000fe9e l       .data	00000000 sv_Sip_str
0000fa80 l       .data	00000000 sv_Hvect_str
0000fb7e l       .data	00000000 sv_Hcause_str
0000fc75 l       .data	00000000 sv_Hepc_str
0000fd6a l       .data	00000000 sv_Htval_str
0000fed9 l       .data	00000000 sv_Hip_str
0000fac1 l       .data	00000000 sv_Vvect_str
0000fbbd l       .data	00000000 sv_Vcause_str
0000fcb2 l       .data	00000000 sv_Vepc_str
0000fda8 l       .data	00000000 sv_Vtval_str
0000ff15 l       .data	00000000 sv_Vip_str
0000ff52 l       .data	00000000 Mclr_Mext_int_str
0000ffa1 l       .data	00000000 Mclr_Sext_int_str
0001009c l       .data	00000000 Sclr_Sext_int_str
00010198 l       .data	00000000 Hclr_Sext_int_str
00004a70 l       .text.rvtest	00000000 trap_diag_generic_report
0000f2b8 l       .data	00000000 trap_diag_actual_offset
0000f2c0 l       .data	00000000 trap_diag_expected_offset
0000f2a4 l       .data	00000000 trap_diag_mode
0000f2a8 l       .data	00000000 trap_diag_actual_value
0000f2b0 l       .data	00000000 trap_diag_expected_value
00004ab0 l       .text.rvtest	00000000 failedtest_report
00004ab0 l       .text.rvtest	00000000 print_failstr
0000f80b l       .data	00000000 failstr
00004ae8 l       .text.rvtest	00000000 print_testnamestr
0000f89f l       .data	00000000 testnamestr
00004b28 l       .text.rvtest	00000000 print_failure_test_name_str
0000f290 l       .data	00000000 failure_string_ptr
00004b38 l       .text.rvtest	00000000 print_newline_str
0000f8b1 l       .data	00000000 newlinestr
00004f6c l       .text.rvtest	00000000 failedtest_report_trap_detailed
0000f8b3 l       .data	00000000 inststr
0000f270 l       .data	00000000 failing_instruction
00005eb8 l       .text.rvtest	00000000 failedtest_hex_to_str
0000f2f8 l       .data	00000000 ascii_buffer
0000f8c7 l       .data	00000000 addrstr
0000f278 l       .data	00000000 failing_addr
00010344 l       .data	00000000 regstr
00004d18 l       .text.rvtest	00000000 failedtest_report_not_intreg
0000f274 l       .data	00000000 failing_reg
00005f34 l       .text.rvtest	00000000 failedtest_dec_to_str
00004df4 l       .text.rvtest	00000000 failedtest_report_print_regstr
00004d6c l       .text.rvtest	00000000 failedtest_report_fpreg
00004db8 l       .text.rvtest	00000000 failedtest_report_vecreg
000103a4 l       .data	00000000 fflagsstr
00004e28 l       .text.rvtest	00000000 failedtest_report_after_reg
00010355 l       .data	00000000 badvalstr
00004e8c l       .text.rvtest	00000000 failedtest_report_badval_not_fp
0000f280 l       .data	00000000 failing_value
00004e9c l       .text.rvtest	00000000 failedtest_report_badval_done
0001036c l       .data	00000000 expvalstr
00004f2c l       .text.rvtest	00000000 failedtest_report_expval_not_fp
0000f288 l       .data	00000000 expected_value
00004f3c l       .text.rvtest	00000000 failedtest_report_expval_done
00005c64 l       .text.rvtest	00000000 failedtest_report_end
000103d0 l       .data	00000000 trap_diag_header_str
000103fc l       .data	00000000 trap_diag_origstr_label
00005040 l       .text.rvtest	00000000 trap_report_offset_mismatch
00005af0 l       .text.rvtest	00000000 trap_report_generic
000053b4 l       .text.rvtest	00000000 trap_report_field_mismatch
0001040c l       .data	00000000 trap_diag_count_mismatch_str
0001046d l       .data	00000000 trap_diag_expected_offset_str
00010494 l       .data	00000000 trap_diag_actual_offset_str
00005294 l       .text.rvtest	00000000 trap_report_missing_traps
0000517c l       .text.rvtest	00000000 trap_report_extra_traps
000104bb l       .data	00000000 trap_diag_extra_traps_str
00010540 l       .data	00000000 trap_diag_extra_bytes_str
0001056b l       .data	00000000 trap_diag_extra_hint_str
00005cb0 l       .text.rvtest	00000000 failedtest_print_csr_context
000104f5 l       .data	00000000 trap_diag_missing_traps_str
00010653 l       .data	00000000 trap_diag_missing_hint_str
0001073a l       .data	00000000 trap_diag_handler_mode_str
00005444 l       .text.rvtest	00000000 trap_mode_m
00005484 l       .text.rvtest	00000000 trap_mode_s
000054c4 l       .text.rvtest	00000000 trap_mode_h
00005504 l       .text.rvtest	00000000 trap_mode_v
00010776 l       .data	00000000 trap_diag_mode_unknown_str
00005540 l       .text.rvtest	00000000 trap_mode_print
00010754 l       .data	00000000 trap_diag_mode_m_str
0001075c l       .data	00000000 trap_diag_mode_s_str
00010764 l       .data	00000000 trap_diag_mode_hs_str
0001076d l       .data	00000000 trap_diag_mode_vs_str
0001077f l       .data	00000000 trap_diag_field_str
00005604 l       .text.rvtest	00000000 trap_field_vect
00005644 l       .text.rvtest	00000000 trap_field_cause
00005684 l       .text.rvtest	00000000 trap_field_epc
000056c4 l       .text.rvtest	00000000 trap_field_tval
00005704 l       .text.rvtest	00000000 trap_field_ip
00005744 l       .text.rvtest	00000000 trap_field_tval2
00005784 l       .text.rvtest	00000000 trap_field_tinst
000057c4 l       .text.rvtest	00000000 trap_field_intid
000108d6 l       .data	00000000 trap_diag_field_unknown_str
00005800 l       .text.rvtest	00000000 trap_field_print
00010799 l       .data	00000000 trap_diag_field_vect_str
000107ca l       .data	00000000 trap_diag_field_cause_str
000107ea l       .data	00000000 trap_diag_field_epc_str
00010808 l       .data	00000000 trap_diag_field_tval_str
00010827 l       .data	00000000 trap_diag_field_ip_str
0001084f l       .data	00000000 trap_diag_field_tval2_str
0001087b l       .data	00000000 trap_diag_field_tinst_str
000108a7 l       .data	00000000 trap_diag_field_intid_str
000108e5 l       .data	00000000 trap_diag_expected_str
000108fc l       .data	00000000 trap_diag_actual_str
0000599c l       .text.rvtest	00000000 trap_field_not_cause
00010913 l       .data	00000000 trap_diag_expected_cause_name_str
00005bd4 l       .text.rvtest	00000000 trap_cause_to_str
0001092a l       .data	00000000 trap_diag_actual_cause_name_str
0000599c l       .text.rvtest	00000000 trap_field_not_epc
000109a0 l       .data	00000000 trap_diag_hint_vect_str
00010a76 l       .data	00000000 trap_diag_hint_cause_str
00010b69 l       .data	00000000 trap_diag_hint_epc_str
00010c64 l       .data	00000000 trap_diag_hint_tval_str
00010d4b l       .data	00000000 trap_diag_hint_ip_str
00010958 l       .data	00000000 trap_diag_generic_str
0000f2d8 l       .data	00000000 saved_mepc
0000f93b l       .data	00000000 xepcinstrstr
00005bf8 l       .text.rvtest	00000000 trap_cause_interrupt
00005bd8 l       .text.rvtest	00000000 trap_cause_exception
00005c24 l       .text.rvtest	00000000 trap_cause_unknown
0000f320 l       .data	00000000 trap_excpt_name_tbl
0000f380 l       .data	00000000 trap_int_name_tbl
0000f7be l       .data	00000000 trap_cause_unknown_str
00010383 l       .data	00000000 endstr
00005ca8 l       .text.rvtest	00000000 failedtest_terminate
00020214 l       .text.rvmodel	00000000 rvmodel_halt_fail
0000f2d0 l       .data	00000000 csr_context_ret_addr
0000f95c l       .data	00000000 mepcstr
0000f96c l       .data	00000000 mcausestr
0000f97c l       .data	00000000 mtvalstr
0000f98c l       .data	00000000 mstatusstr
00005ef8 l       .text.rvtest	00000000 failedtest_hex_to_str_loop
00005f14 l       .text.rvtest	00000000 failedtest_hex_to_str_digit
00005f18 l       .text.rvtest	00000000 failedtest_hex_to_str_write
00020000 l       .text.rvmodel	00000000 rvtest_boot_to_mmode
00020000 l       .text.rvmodel	00000000 rvtest_init_regs
00010e30 l       .data	00000000 signature_base
000201a0 l       .text.rvmodel	00000000 canary_check
000103ac l       .data	00000000 canary_mismatch
00008000 l       .data	00000000 scratch
0000f320 l       .data	00000000 end_failure_scratch
0000f3c0 l       .data	00000000 trap_excpt_name_0
0000f3e0 l       .data	00000000 trap_excpt_name_1
0000f3fa l       .data	00000000 trap_excpt_name_2
0000f40f l       .data	00000000 trap_excpt_name_3
0000f41b l       .data	00000000 trap_excpt_name_4
0000f434 l       .data	00000000 trap_excpt_name_5
0000f447 l       .data	00000000 trap_excpt_name_6
0000f465 l       .data	00000000 trap_excpt_name_7
0000f47d l       .data	00000000 trap_excpt_name_8
0000f49b l       .data	00000000 trap_excpt_name_9
0000f4b9 l       .data	00000000 trap_excpt_name_10
0000f4d8 l       .data	00000000 trap_excpt_name_11
0000f4f6 l       .data	00000000 trap_excpt_name_12
0000f50e l       .data	00000000 trap_excpt_name_13
0000f51f l       .data	00000000 trap_excpt_name_14
0000f52e l       .data	00000000 trap_excpt_name_15
0000f544 l       .data	00000000 trap_excpt_name_16
0000f551 l       .data	00000000 trap_excpt_name_17
0000f560 l       .data	00000000 trap_excpt_name_18
0000f570 l       .data	00000000 trap_excpt_name_19
0000f580 l       .data	00000000 trap_excpt_name_20
0000f59e l       .data	00000000 trap_excpt_name_21
0000f5b5 l       .data	00000000 trap_excpt_name_22
0000f5ca l       .data	00000000 trap_excpt_name_23
0000f5e6 l       .data	00000000 trap_int_name_0
0000f5fe l       .data	00000000 trap_int_name_1
0000f61d l       .data	00000000 trap_int_name_2
0000f644 l       .data	00000000 trap_int_name_3
0000f660 l       .data	00000000 trap_int_name_4
0000f678 l       .data	00000000 trap_int_name_5
0000f694 l       .data	00000000 trap_int_name_6
0000f6b8 l       .data	00000000 trap_int_name_7
0000f6d1 l       .data	00000000 trap_int_name_8
0000f6e9 l       .data	00000000 trap_int_name_9
0000f708 l       .data	00000000 trap_int_name_10
0000f72f l       .data	00000000 trap_int_name_11
0000f74b l       .data	00000000 trap_int_name_12
0000f770 l       .data	00000000 trap_int_name_13
0000f78c l       .data	00000000 trap_int_name_14
0000f7a5 l       .data	00000000 trap_int_name_15
0000f861 l       .data	00000000 abortstr
0000f908 l       .data	00000000 xepcstr
0000fff3 l       .data	00000000 Mclr_Vext_int_str
0001004d l       .data	00000000 Sclr_Mext_int_str
000100ee l       .data	00000000 Sclr_Vext_int_str
00010148 l       .data	00000000 Hclr_Mext_int_str
000101eb l       .data	00000000 Hclr_Vext_int_str
00010246 l       .data	00000000 Vclr_Mext_int_str
00010296 l       .data	00000000 Vclr_Sext_int_str
000102e9 l       .data	00000000 Vclr_Vext_int_str
00010941 l       .data	00000000 trap_diag_curr_xepc_str
00011480 l       .data	00000000 trap_sigptr
0001fef0 g       .data	00000000 end_signature
0001fef0 g       .data	00000000 rvtest_sig_end
00000000 g       .text.init	00000000 rvtest_entry_point
00010e30 g       .data	00000000 begin_signature
000044a4 g       .text.rvtest	00000000 rvtest_code_end
00000040 g       .text.rvtest	00000000 rvtest_code_begin
00010e30 g       .data	00000000 rvtest_sig_begin
00008110 g       .data	00000000 rvtest_data_begin
00010e30 g       .data	00000000 rvtest_data_end
000044a4 g       .text.rvtest	00000000 cleanup_epilogs
00021000 g       .text.rvmodel	00000000 _end



Disassembly of section .text.init:

00000000 <rvtest_entry_point>:

// Include framework macros
#include "riscv_arch_test.h"

// Set up test environment and declare main entry point
RVTEST_BEGIN
   0:	00020097          	auipc	x1,0x20
   4:	00008093          	addi	x1,x1,0 # 20000 <rvmodel_boot>
   8:	00000013          	addi	x0,x0,0
   c:	00000013          	addi	x0,x0,0
  10:	00000013          	addi	x0,x0,0
  14:	00000013          	addi	x0,x0,0
  18:	00000013          	addi	x0,x0,0
  1c:	00000013          	addi	x0,x0,0
  20:	000080e7          	jalr	x1,0(x1)
  24:	00000013          	addi	x0,x0,0
  28:	00000013          	addi	x0,x0,0
  2c:	00000013          	addi	x0,x0,0
  30:	00000013          	addi	x0,x0,0
  34:	00000013          	addi	x0,x0,0
  38:	00000013          	addi	x0,x0,0
  3c:	00000013          	addi	x0,x0,0

Disassembly of section .text.rvtest:

00000040 <rvtest_code_begin>:
/////////////////////////////////
// cp_rs1
/////////////////////////////////

# Testcase cp_rs1 (Test source rs1 = x0)
  RVTEST_TESTDATA_LOAD_INT(x3, x0) # load rs1: x0 = 0x285372ab
      40:	0001a003          	lw	x0,0(x3)
      44:	00418193          	addi	x3,x3,4
  RVTEST_TESTDATA_LOAD_INT(x3, x31) # load rs2: x31 = 0x6e6f3f5f
      48:	0001af83          	lw	x31,0(x3)
      4c:	00418193          	addi	x3,x3,4

00000050 <I_sltu_cg_cp_rs1_b0>:
I_sltu_cg_cp_rs1_b0:
  sltu x8, x0, x31 # perform operation
      50:	01f03433          	sltu	x8,x0,x31
  # Check if x8 contains the expected result. x2 is the signature ptr, x5 is the link ptr, x4 is a temp reg.
  RVTEST_SIGUPD(x2, x5, x4, x8, I_sltu_cg_cp_rs1_b0, I_sltu_cg_cp_rs1_b0_str)
      54:	00012203          	lw	x4,0(x2)
      58:	00820863          	beq	x4,x8,68 <I_sltu_cg_cp_rs1_b0+0x18>
      5c:	4a0042ef          	jal	x5,44fc <failedtest_x5_x4>
      60:	00000050          	.word	0x00000050
      64:	00008d50          	.word	0x00008d50
      68:	00410113          	addi	x2,x2,4

# Testcase cp_rs1 (Test source rs1 = x1)
  RVTEST_TESTDATA_LOAD_INT(x3, x1) # load rs1: x1 = 0xc4fb0733
      6c:	0001a083          	lw	x1,0(x3)
      70:	00418193          	addi	x3,x3,4
  RVTEST_TESTDATA_LOAD_INT(x3, x15) # load rs2: x15 = 0xd294b2d2
      74:	0001a783          	lw	x15,0(x3)
      78:	00418193          	addi	x3,x3,4

0000007c <I_sltu_cg_cp_rs1_b1>:
I_sltu_cg_cp_rs1_b1:
  sltu x31, x1, x15 # perform operation
      7c:	00f0bfb3          	sltu	x31,x1,x15
  # Check if x31 contains the expected result. x2 is the signature ptr, x5 is the link ptr, x4 is a temp reg.
  RVTEST_SIGUPD(x2, x5, x4, x31, I_sltu_cg_cp_rs1_b1, I_sltu_cg_cp_rs1_b1_str)
      80:	00012203          	lw	x4,0(x2)
      84:	01f20863          	beq	x4,x31,94 <I_sltu_cg_cp_rs1_b1+0x18>
      88:	474042ef          	jal	x5,44fc <failedtest_x5_x4>
      8c:	0000007c          	.word	0x0000007c
      90:	00008d7e          	.word	0x00008d7e
      94:	00410113          	addi	x2,x2,4

  mv x10, x2 # switch signature pointer register to avoid conflict with test
      98:	00010513          	addi	x10,x2,0
# Testcase cp_rs1 (Test source rs1 = x2)
  RVTEST_TESTDATA_LOAD_INT(x3, x2) # load rs1: x2 = 0x764db6b2
      9c:	0001a103          	lw	x2,0(x3)
      a0:	00418193          	addi	x3,x3,4
  RVTEST_TESTDATA_LOAD_INT(x3, x15) # load rs2: x15 = 0x3b62f598
      a4:	0001a783          	lw	x15,0(x3)
      a8:	00418193          	addi	x3,x3,4

000000ac <I_sltu_cg_cp_rs1_b2>:
I_sltu_cg_cp_rs1_b2:
  sltu x26, x2, x15 # perform operation
      ac:	00f13d33          	sltu	x26,x2,x15
  # Check if x26 contains the expected result. x10 is the signature ptr, x5 is the link ptr, x4 is a temp reg.
  RVTEST_SIGUPD(x10, x5, x4, x26, I_sltu_cg_cp_rs1_b2, I_sltu_cg_cp_rs1_b2_str)
      b0:	00052203          	lw	x4,0(x10)
      b4:	01a20863          	beq	x4,x26,c4 <I_sltu_cg_cp_rs1_b2+0x18>
      b8:	444042ef          	jal	x5,44fc <failedtest_x5_x4>
      bc:	000000ac          	.word	0x000000ac
      c0:	00008dac          	.word	0x00008dac
      c4:	00450513          	addi	x10,x10,4

  mv x9, x3 # switch data pointer register to avoid conflict with test
      c8:	00018493          	addi	x9,x3,0
# Testcase cp_rs1 (Test source rs1 = x3)
  RVTEST_TESTDATA_LOAD_INT(x9, x3) # load rs1: x3 = 0xe27f2a68
      cc:	0004a183          	lw	x3,0(x9)
      d0:	00448493          	addi	x9,x9,4
  RVTEST_TESTDATA_LOAD_INT(x9, x14) # load rs2: x14 = 0xec4caaff
      d4:	0004a703          	lw	x14,0(x9)
      d8:	00448493          	addi	x9,x9,4

000000dc <I_sltu_cg_cp_rs1_b3>:
I_sltu_cg_cp_rs1_b3:
  sltu x27, x3, x14 # perform operation
      dc:	00e1bdb3          	sltu	x27,x3,x14
  # Check if x27 contains the expected result. x10 is the signature ptr, x5 is the link ptr, x4 is a temp reg.
  RVTEST_SIGUPD(x10, x5, x4, x27, I_sltu_cg_cp_rs1_b3, I_sltu_cg_cp_rs1_b3_str)
      e0:	00052203          	lw	x4,0(x10)
      e4:	01b20863          	beq	x4,x27,f4 <I_sltu_cg_cp_rs1_b3+0x18>
      e8:	414042ef          	jal	x5,44fc <failedtest_x5_x4>
      ec:	000000dc          	.word	0x000000dc
      f0:	00008dda          	.word	0x00008dda
      f4:	00450513          	addi	x10,x10,4

  mv x13, x4 # switch temp register to avoid conflict with test
      f8:	00020693          	addi	x13,x4,0 # 0 <rvtest_entry_point>
  mv x14, x5 # switch link pointer register to avoid conflict with test
      fc:	00028713          	addi	x14,x5,0
# Testcase cp_rs1 (Test source rs1 = x4)
  RVTEST_TESTDATA_LOAD_INT(x9, x4) # load rs1: x4 = 0x7a6e1d68
     100:	0004a203          	lw	x4,0(x9)
     104:	00448493          	addi	x9,x9,4
  RVTEST_TESTDATA_LOAD_INT(x9, x17) # load rs2: x17 = 0xe1e7469e
     108:	0004a883          	lw	x17,0(x9)
     10c:	00448493          	addi	x9,x9,4

00000110 <I_sltu_cg_cp_rs1_b4>:
I_sltu_cg_cp_rs1_b4:
  sltu x27, x4, x17 # perform operation
     110:	01123db3          	sltu	x27,x4,x17
  # Check if x27 contains the expected result. x10 is the signature ptr, x14 is the link ptr, x13 is a temp reg.
  RVTEST_SIGUPD(x10, x14, x13, x27, I_sltu_cg_cp_rs1_b4, I_sltu_cg_cp_rs1_b4_str)
     114:	00052683          	lw	x13,0(x10)
     118:	01b68863          	beq	x13,x27,128 <I_sltu_cg_cp_rs1_b4+0x18>
     11c:	4200476f          	jal	x14,453c <failedtest_x14_x13>
     120:	00000110          	.word	0x00000110
     124:	00008e08          	.word	0x00008e08
     128:	00450513          	addi	x10,x10,4

# Testcase cp_rs1 (Test source rs1 = x5)
  RVTEST_TESTDATA_LOAD_INT(x9, x5) # load rs1: x5 = 0x7d4f54ac
     12c:	0004a283          	lw	x5,0(x9)
     130:	00448493          	addi	x9,x9,4
  RVTEST_TESTDATA_LOAD_INT(x9, x16) # load rs2: x16 = 0x00fe690c
     134:	0004a803          	lw	x16,0(x9)
     138:	00448493          	addi	x9,x9,4

0000013c <I_sltu_cg_cp_rs1_b5>:
I_sltu_cg_cp_rs1_b5:
  sltu x25, x5, x16 # perform operation
     13c:	0102bcb3          	sltu	x25,x5,x16
  # Check if x25 contains the expected result. x10 is the signature ptr, x14 is the link ptr, x13 is a temp reg.
  RVTEST_SIGUPD(x10, x14, x13, x25, I_sltu_cg_cp_rs1_b5, I_sltu_cg_cp_rs1_b5_str)
     140:	00052683          	lw	x13,0(x10)
     144:	01968863          	beq	x13,x25,154 <I_sltu_cg_cp_rs1_b5+0x18>
     148:	3f40476f          	jal	x14,453c <failedtest_x14_x13>
     14c:	0000013c          	.word	0x0000013c
     150:	00008e36          	.word	0x00008e36
     154:	00450513          	addi	x10,x10,4

# Testcase cp_rs1 (Test source rs1 = x6)
  RVTEST_TESTDATA_LOAD_INT(x9, x6) # load rs1: x6 = 0x7b70f30c
     158:	0004a303          	lw	x6,0(x9)
     15c:	00448493          	addi	x9,x9,4
  RVTEST_TESTDATA_LOAD_INT(x9, x5) # load rs2: x5 = 0x574aa154
     160:	0004a283          	lw	x5,0(x9)
     164:	00448493          	addi	x9,x9,4

00000168 <I_sltu_cg_cp_rs1_b6>:
I_sltu_cg_cp_rs1_b6:
  sltu x24, x6, x5 # perform operation
     168:	00533c33          	sltu	x24,x6,x5
  # Check if x24 contains the expected result. x10 is the signature ptr, x14 is the link ptr, x13 is a temp reg.
  RVTEST_SIGUPD(x10, x14, x13, x24, I_sltu_cg_cp_rs1_b6, I_sltu_cg_cp_rs1_b6_str)
     16c:	00052683          	lw	x13,0(x10)
     170:	01868863          	beq	x13,x24,180 <I_sltu_cg_cp_rs1_b6+0x18>
     174:	3c80476f          	jal	x14,453c <failedtest_x14_x13>
     178:	00000168          	.word	0x00000168
     17c:	00008e64          	.word	0x00008e64
     180:	00450513          	addi	x10,x10,4

# Testcase cp_rs1 (Test source rs1 = x7)
  RVTEST_TESTDATA_LOAD_INT(x9, x7) # load rs1: x7 = 0x61839ad4
     184:	0004a383          	lw	x7,0(x9)
     188:	00448493          	addi	x9,x9,4
  RVTEST_TESTDATA_LOAD_INT(x9, x28) # load rs2: x28 = 0xf99543c1
     18c:	0004ae03          	lw	x28,0(x9)
     190:	00448493          	addi	x9,x9,4

00000194 <I_sltu_cg_cp_rs1_b7>:
I_sltu_cg_cp_rs1_b7:
  sltu x27, x7, x28 # perform operation
     194:	01c3bdb3          	sltu	x27,x7,x28
  # Check if x27 contains the expected result. x10 is the signature ptr, x14 is the link ptr, x13 is a temp reg.
  RVTEST_SIGUPD(x10, x14, x13, x27, I_sltu_cg_cp_rs1_b7, I_sltu_cg_cp_rs1_b7_str)
     198:	00052683          	lw	x13,0(x10)
     19c:	01b68863          	beq	x13,x27,1ac <I_sltu_cg_cp_rs1_b7+0x18>
     1a0:	39c0476f          	jal	x14,453c <failedtest_x14_x13>
     1a4:	00000194          	.word	0x00000194
     1a8:	00008e92          	.word	0x00008e92
     1ac:	00450513          	addi	x10,x10,4

# Testcase cp_rs1 (Test source rs1 = x8)
  RVTEST_TESTDATA_LOAD_INT(x9, x8) # load rs1: x8 = 0x67730351
     1b0:	0004a403          	lw	x8,0(x9)
     1b4:	00448493          	addi	x9,x9,4
  RVTEST_TESTDATA_LOAD_INT(x9, x30) # load rs2: x30 = 0x4bd59f0e
     1b8:	0004af03          	lw	x30,0(x9)
     1bc:	00448493          	addi	x9,x9,4

000001c0 <I_sltu_cg_cp_rs1_b8>:
I_sltu_cg_cp_rs1_b8:
  sltu x5, x8, x30 # perform operation
     1c0:	01e432b3          	sltu	x5,x8,x30
  # Check if x5 contains the expected result. x10 is the signature ptr, x14 is the link ptr, x13 is a temp reg.
  RVTEST_SIGUPD(x10, x14, x13, x5, I_sltu_cg_cp_rs1_b8, I_sltu_cg_cp_rs1_b8_str)
     1c4:	00052683          	lw	x13,0(x10)
     1c8:	00568863          	beq	x13,x5,1d8 <I_sltu_cg_cp_rs1_b8+0x18>
     1cc:	3700476f          	jal	x14,453c <failedtest_x14_x13>
     1d0:	000001c0          	.word	0x000001c0
     1d4:	00008ec0          	.word	0x00008ec0
     1d8:	00450513          	addi	x10,x10,4

  mv x16, x9 # switch data pointer register to avoid conflict with test
     1dc:	00048813          	addi	x16,x9,0
# Testcase cp_rs1 (Test source rs1 = x9)
  RVTEST_TESTDATA_LOAD_INT(x16, x9) # load rs1: x9 = 0x26716f6a
     1e0:	00082483          	lw	x9,0(x16)
     1e4:	00480813          	addi	x16,x16,4
  RVTEST_TESTDATA_LOAD_INT(x16, x18) # load rs2: x18 = 0xe7105809
     1e8:	00082903          	lw	x18,0(x16)
     1ec:	00480813          	addi	x16,x16,4

000001f0 <I_sltu_cg_cp_rs1_b9>:
I_sltu_cg_cp_rs1_b9:
  sltu x25, x9, x18 # perform operation
     1f0:	0124bcb3          	sltu	x25,x9,x18
  # Check if x25 contains the expected result. x10 is the signature ptr, x14 is the link ptr, x13 is a temp reg.
  RVTEST_SIGUPD(x10, x14, x13, x25, I_sltu_cg_cp_rs1_b9, I_sltu_cg_cp_rs1_b9_str)
     1f4:	00052683          	lw	x13,0(x10)
     1f8:	01968863          	beq	x13,x25,208 <I_sltu_cg_cp_rs1_b9+0x18>
     1fc:	3400476f          	jal	x14,453c <failedtest_x14_x13>
     200:	000001f0          	.word	0x000001f0
     204:	00008eee          	.word	0x00008eee
     208:	00450513          	addi	x10,x10,4

  mv x23, x10 # switch signature pointer register to avoid conflict with test
     20c:	00050b93          	addi	x23,x10,0
# Testcase cp_rs1 (Test source rs1 = x10)
  RVTEST_TESTDATA_LOAD_INT(x16, x10) # load rs1: x10 = 0x551a0b4e
     210:	00082503          	lw	x10,0(x16)
     214:	00480813          	addi	x16,x16,4
  RVTEST_TESTDATA_LOAD_INT(x16, x12) # load rs2: x12 = 0x21e0ac99
     218:	00082603          	lw	x12,0(x16)
     21c:	00480813          	addi	x16,x16,4

00000220 <I_sltu_cg_cp_rs1_b10>:
I_sltu_cg_cp_rs1_b10:
  sltu x24, x10, x12 # perform operation
     220:	00c53c33          	sltu	x24,x10,x12
  # Check if x24 contains the expected result. x23 is the signature ptr, x14 is the link ptr, x13 is a temp reg.
  RVTEST_SIGUPD(x23, x14, x13, x24, I_sltu_cg_cp_rs1_b10, I_sltu_cg_cp_rs1_b10_str)
     224:	000ba683          	lw	x13,0(x23)
     228:	01868863          	beq	x13,x24,238 <I_sltu_cg_cp_rs1_b10+0x18>
     22c:	3100476f          	jal	x14,453c <failedtest_x14_x13>
     230:	00000220          	.word	0x00000220
     234:	00008f1d          	.word	0x00008f1d
     238:	004b8b93          	addi	x23,x23,4

# Testcase cp_rs1 (Test source rs1 = x11)
  RVTEST_TESTDATA_LOAD_INT(x16, x11) # load rs1: x11 = 0x2e017717
     23c:	00082583          	lw	x11,0(x16)
     240:	00480813          	addi	x16,x16,4
  RVTEST_TESTDATA_LOAD_INT(x16, x7) # load rs2: x7 = 0x02d7696e
     244:	00082383          	lw	x7,0(x16)
     248:	00480813          	addi	x16,x16,4

0000024c <I_sltu_cg_cp_rs1_b11>:
I_sltu_cg_cp_rs1_b11:
  sltu x9, x11, x7 # perform operation
     24c:	0075b4b3          	sltu	x9,x11,x7
  # Check if x9 contains the expected result. x23 is the signature ptr, x14 is the link ptr, x13 is a temp reg.
  RVTEST_SIGUPD(x23, x14, x13, x9, I_sltu_cg_cp_rs1_b11, I_sltu_cg_cp_rs1_b11_str)
     250:	000ba683          	lw	x13,0(x23)
     254:	00968863          	beq	x13,x9,264 <I_sltu_cg_cp_rs1_b11+0x18>
     258:	2e40476f          	jal	x14,453c <failedtest_x14_x13>
     25c:	0000024c          	.word	0x0000024c
     260:	00008f4d          	.word	0x00008f4d
     264:	004b8b93          	addi	x23,x23,4

# Testcase cp_rs1 (Test source rs1 = x12)
  RVTEST_TESTDATA_LOAD_INT(x16, x12) # load rs1: x12 = 0xdd56e6d8
     268:	00082603          	lw	x12,0(x16)
     26c:	00480813          	addi	x16,x16,4
  RVTEST_TESTDATA_LOAD_INT(x16, x30) # load rs2: x30 = 0x05688d0e
     270:	00082f03          	lw	x30,0(x16)
     274:	00480813          	addi	x16,x16,4

00000278 <I_sltu_cg_cp_rs1_b12>:
I_sltu_cg_cp_rs1_b12:
  sltu x25, x12, x30 # perform operation
     278:	01e63cb3          	sltu	x25,x12,x30
  # Check if x25 contains the expected result. x23 is the signature ptr, x14 is the link ptr, x13 is a temp reg.
  RVTEST_SIGUPD(x23, x14, x13, x25, I_sltu_cg_cp_rs1_b12, I_sltu_cg_cp_rs1_b12_str)
     27c:	000ba683          	lw	x13,0(x23)
     280:	01968863          	beq	x13,x25,290 <I_sltu_cg_cp_rs1_b12+0x18>
     284:	2b80476f          	jal	x14,453c <failedtest_x14_x13>
     288:	00000278          	.word	0x00000278
     28c:	00008f7d          	.word	0x00008f7d
     290:	004b8b93          	addi	x23,x23,4

  mv x7, x13 # switch temp register to avoid conflict with test
     294:	00068393          	addi	x7,x13,0
  mv x8, x14 # switch link pointer register to avoid conflict with test
     298:	00070413          	addi	x8,x14,0
# Testcase cp_rs1 (Test source rs1 = x13)
  RVTEST_TESTDATA_LOAD_INT(x16, x13) # load rs1: x13 = 0x6e7fffe5
     29c:	00082683          	lw	x13,0(x16)
     2a0:	00480813          	addi	x16,x16,4
  RVTEST_TESTDATA_LOAD_INT(x16, x15) # load rs2: x15 = 0xa51a018f
     2a4:	00082783          	lw	x15,0(x16)
     2a8:	00480813          	addi	x16,x16,4

000002ac <I_sltu_cg_cp_rs1_b13>:
I_sltu_cg_cp_rs1_b13:
  sltu x2, x13, x15 # perform operation
     2ac:	00f6b133          	sltu	x2,x13,x15
  # Check if x2 contains the expected result. x23 is the signature ptr, x8 is the link ptr, x7 is a temp reg.
  RVTEST_SIGUPD(x23, x8, x7, x2, I_sltu_cg_cp_rs1_b13, I_sltu_cg_cp_rs1_b13_str)
     2b0:	000ba383          	lw	x7,0(x23)
     2b4:	00238863          	beq	x7,x2,2c4 <I_sltu_cg_cp_rs1_b13+0x18>
     2b8:	25c0446f          	jal	x8,4514 <failedtest_x8_x7>
     2bc:	000002ac          	.word	0x000002ac
     2c0:	00008fad          	.word	0x00008fad
     2c4:	004b8b93          	addi	x23,x23,4

# Testcase cp_rs1 (Test source rs1 = x14)
  RVTEST_TESTDATA_LOAD_INT(x16, x14) # load rs1: x14 = 0x5bc84684
     2c8:	00082703          	lw	x14,0(x16)
     2cc:	00480813          	addi	x16,x16,4
  RVTEST_TESTDATA_LOAD_INT(x16, x4) # load rs2: x4 = 0xf154afc1
     2d0:	00082203          	lw	x4,0(x16)
     2d4:	00480813          	addi	x16,x16,4

000002d8 <I_sltu_cg_cp_rs1_b14>:
I_sltu_cg_cp_rs1_b14:
  sltu x10, x14, x4 # perform operation
     2d8:	00473533          	sltu	x10,x14,x4
  # Check if x10 contains the expected result. x23 is the signature ptr, x8 is the link ptr, x7 is a temp reg.
  RVTEST_SIGUPD(x23, x8, x7, x10, I_sltu_cg_cp_rs1_b14, I_sltu_cg_cp_rs1_b14_str)
     2dc:	000ba383          	lw	x7,0(x23)
     2e0:	00a38863          	beq	x7,x10,2f0 <I_sltu_cg_cp_rs1_b14+0x18>
     2e4:	2300446f          	jal	x8,4514 <failedtest_x8_x7>
     2e8:	000002d8          	.word	0x000002d8
     2ec:	00008fdd          	.word	0x00008fdd
     2f0:	004b8b93          	addi	x23,x23,4

# Testcase cp_rs1 (Test source rs1 = x15)
  RVTEST_TESTDATA_LOAD_INT(x16, x15) # load rs1: x15 = 0xb4f6be9b
     2f4:	00082783          	lw	x15,0(x16)
     2f8:	00480813          	addi	x16,x16,4
  RVTEST_TESTDATA_LOAD_INT(x16, x25) # load rs2: x25 = 0x426c648c
     2fc:	00082c83          	lw	x25,0(x16)
     300:	00480813          	addi	x16,x16,4

00000304 <I_sltu_cg_cp_rs1_b15>:
I_sltu_cg_cp_rs1_b15:
  sltu x3, x15, x25 # perform operation
     304:	0197b1b3          	sltu	x3,x15,x25
  # Check if x3 contains the expected result. x23 is the signature ptr, x8 is the link ptr, x7 is a temp reg.
  RVTEST_SIGUPD(x23, x8, x7, x3, I_sltu_cg_cp_rs1_b15, I_sltu_cg_cp_rs1_b15_str)
     308:	000ba383          	lw	x7,0(x23)
     30c:	00338863          	beq	x7,x3,31c <imm12+0x13>
     310:	2040446f          	jal	x8,4514 <failedtest_x8_x7>
     314:	00000304          	.word	0x00000304
     318:	0000900d          	.word	0x0000900d
     31c:	004b8b93          	addi	x23,x23,4

  mv x28, x16 # switch data pointer register to avoid conflict with test
     320:	00080e13          	addi	x28,x16,0
# Testcase cp_rs1 (Test source rs1 = x16)
  RVTEST_TESTDATA_LOAD_INT(x28, x16) # load rs1: x16 = 0x2fb87e4a
     324:	000e2803          	lw	x16,0(x28)
     328:	004e0e13          	addi	x28,x28,4
  RVTEST_TESTDATA_LOAD_INT(x28, x18) # load rs2: x18 = 0xb626be09
     32c:	000e2903          	lw	x18,0(x28)
     330:	004e0e13          	addi	x28,x28,4

00000334 <I_sltu_cg_cp_rs1_b16>:
I_sltu_cg_cp_rs1_b16:
  sltu x29, x16, x18 # perform operation
     334:	01283eb3          	sltu	x29,x16,x18
  # Check if x29 contains the expected result. x23 is the signature ptr, x8 is the link ptr, x7 is a temp reg.
  RVTEST_SIGUPD(x23, x8, x7, x29, I_sltu_cg_cp_rs1_b16, I_sltu_cg_cp_rs1_b16_str)
     338:	000ba383          	lw	x7,0(x23)
     33c:	01d38863          	beq	x7,x29,34c <I_sltu_cg_cp_rs1_b16+0x18>
     340:	1d40446f          	jal	x8,4514 <failedtest_x8_x7>
     344:	00000334          	.word	0x00000334
     348:	0000903d          	.word	0x0000903d
     34c:	004b8b93          	addi	x23,x23,4

# Testcase cp_rs1 (Test source rs1 = x17)
  RVTEST_TESTDATA_LOAD_INT(x28, x17) # load rs1: x17 = 0xc4b476d7
     350:	000e2883          	lw	x17,0(x28)
     354:	004e0e13          	addi	x28,x28,4
  RVTEST_TESTDATA_LOAD_INT(x28, x26) # load rs2: x26 = 0x50ec5171
     358:	000e2d03          	lw	x26,0(x28)
     35c:	004e0e13          	addi	x28,x28,4

00000360 <I_sltu_cg_cp_rs1_b17>:
I_sltu_cg_cp_rs1_b17:
  sltu x0, x17, x26 # perform operation
     360:	01a8b033          	sltu	x0,x17,x26
  # Check if x0 contains the expected result. x23 is the signature ptr, x8 is the link ptr, x7 is a temp reg.
  RVTEST_SIGUPD(x23, x8, x7, x0, I_sltu_cg_cp_rs1_b17, I_sltu_cg_cp_rs1_b17_str)
     364:	000ba383          	lw	x7,0(x23)
     368:	00038863          	beq	x7,x0,378 <I_sltu_cg_cp_rs1_b17+0x18>
     36c:	1a80446f          	jal	x8,4514 <failedtest_x8_x7>
     370:	00000360          	.word	0x00000360
     374:	0000906d          	.word	0x0000906d
     378:	004b8b93          	addi	x23,x23,4

# Testcase cp_rs1 (Test source rs1 = x18)
  RVTEST_TESTDATA_LOAD_INT(x28, x18) # load rs1: x18 = 0x03357a27
     37c:	000e2903          	lw	x18,0(x28)
     380:	004e0e13          	addi	x28,x28,4
  RVTEST_TESTDATA_LOAD_INT(x28, x13) # load rs2: x13 = 0x5d65e199
     384:	000e2683          	lw	x13,0(x28)
     388:	004e0e13          	addi	x28,x28,4

0000038c <I_sltu_cg_cp_rs1_b18>:
I_sltu_cg_cp_rs1_b18:
  sltu x0, x18, x13 # perform operation
     38c:	00d93033          	sltu	x0,x18,x13
  # Check if x0 contains the expected result. x23 is the signature ptr, x8 is the link ptr, x7 is a temp reg.
  RVTEST_SIGUPD(x23, x8, x7, x0, I_sltu_cg_cp_rs1_b18, I_sltu_cg_cp_rs1_b18_str)
     390:	000ba383          	lw	x7,0(x23)
     394:	00038863          	beq	x7,x0,3a4 <I_sltu_cg_cp_rs1_b18+0x18>
     398:	17c0446f          	jal	x8,4514 <failedtest_x8_x7>
     39c:	0000038c          	.word	0x0000038c
     3a0:	0000909d          	.word	0x0000909d
     3a4:	004b8b93          	addi	x23,x23,4

# Testcase cp_rs1 (Test source rs1 = x19)
  RVTEST_TESTDATA_LOAD_INT(x28, x19) # load rs1: x19 = 0x65745bf5
     3a8:	000e2983          	lw	x19,0(x28)
     3ac:	004e0e13          	addi	x28,x28,4
  RVTEST_TESTDATA_LOAD_INT(x28, x10) # load rs2: x10 = 0x959cbfa0
     3b0:	000e2503          	lw	x10,0(x28)
     3b4:	004e0e13          	addi	x28,x28,4

000003b8 <I_sltu_cg_cp_rs1_b19>:
I_sltu_cg_cp_rs1_b19:
  sltu x1, x19, x10 # perform operation
     3b8:	00a9b0b3          	sltu	x1,x19,x10
  # Check if x1 contains the expected result. x23 is the signature ptr, x8 is the link ptr, x7 is a temp reg.
  RVTEST_SIGUPD(x23, x8, x7, x1, I_sltu_cg_cp_rs1_b19, I_sltu_cg_cp_rs1_b19_str)
     3bc:	000ba383          	lw	x7,0(x23)
     3c0:	00138863          	beq	x7,x1,3d0 <I_sltu_cg_cp_rs1_b19+0x18>
     3c4:	1500446f          	jal	x8,4514 <failedtest_x8_x7>
     3c8:	000003b8          	.word	0x000003b8
     3cc:	000090cd          	.word	0x000090cd
     3d0:	004b8b93          	addi	x23,x23,4

# Testcase cp_rs1 (Test source rs1 = x20)
  RVTEST_TESTDATA_LOAD_INT(x28, x20) # load rs1: x20 = 0x379e860c
     3d4:	000e2a03          	lw	x20,0(x28)
     3d8:	004e0e13          	addi	x28,x28,4
  RVTEST_TESTDATA_LOAD_INT(x28, x15) # load rs2: x15 = 0x6c0b505f
     3dc:	000e2783          	lw	x15,0(x28)
     3e0:	004e0e13          	addi	x28,x28,4

000003e4 <I_sltu_cg_cp_rs1_b20>:
I_sltu_cg_cp_rs1_b20:
  sltu x11, x20, x15 # perform operation
     3e4:	00fa35b3          	sltu	x11,x20,x15
  # Check if x11 contains the expected result. x23 is the signature ptr, x8 is the link ptr, x7 is a temp reg.
  RVTEST_SIGUPD(x23, x8, x7, x11, I_sltu_cg_cp_rs1_b20, I_sltu_cg_cp_rs1_b20_str)
     3e8:	000ba383          	lw	x7,0(x23)
     3ec:	00b38863          	beq	x7,x11,3fc <I_sltu_cg_cp_rs1_b20+0x18>
     3f0:	1240446f          	jal	x8,4514 <failedtest_x8_x7>
     3f4:	000003e4          	.word	0x000003e4
     3f8:	000090fd          	.word	0x000090fd
     3fc:	004b8b93          	addi	x23,x23,4

# Testcase cp_rs1 (Test source rs1 = x21)
  RVTEST_TESTDATA_LOAD_INT(x28, x21) # load rs1: x21 = 0x2ca26578
     400:	000e2a83          	lw	x21,0(x28)
     404:	004e0e13          	addi	x28,x28,4
  RVTEST_TESTDATA_LOAD_INT(x28, x3) # load rs2: x3 = 0xb5ac2b69
     408:	000e2183          	lw	x3,0(x28)
     40c:	004e0e13          	addi	x28,x28,4

00000410 <I_sltu_cg_cp_rs1_b21>:
I_sltu_cg_cp_rs1_b21:
  sltu x10, x21, x3 # perform operation
     410:	003ab533          	sltu	x10,x21,x3
  # Check if x10 contains the expected result. x23 is the signature ptr, x8 is the link ptr, x7 is a temp reg.
  RVTEST_SIGUPD(x23, x8, x7, x10, I_sltu_cg_cp_rs1_b21, I_sltu_cg_cp_rs1_b21_str)
     414:	000ba383          	lw	x7,0(x23)
     418:	00a38863          	beq	x7,x10,428 <I_sltu_cg_cp_rs1_b21+0x18>
     41c:	0f80446f          	jal	x8,4514 <failedtest_x8_x7>
     420:	00000410          	.word	0x00000410
     424:	0000912d          	.word	0x0000912d
     428:	004b8b93          	addi	x23,x23,4

# Testcase cp_rs1 (Test source rs1 = x22)
  RVTEST_TESTDATA_LOAD_INT(x28, x22) # load rs1: x22 = 0x8485ad1c
     42c:	000e2b03          	lw	x22,0(x28)
     430:	004e0e13          	addi	x28,x28,4
  RVTEST_TESTDATA_LOAD_INT(x28, x30) # load rs2: x30 = 0xbd084f43
     434:	000e2f03          	lw	x30,0(x28)
     438:	004e0e13          	addi	x28,x28,4

0000043c <I_sltu_cg_cp_rs1_b22>:
I_sltu_cg_cp_rs1_b22:
  sltu x31, x22, x30 # perform operation
     43c:	01eb3fb3          	sltu	x31,x22,x30
  # Check if x31 contains the expected result. x23 is the signature ptr, x8 is the link ptr, x7 is a temp reg.
  RVTEST_SIGUPD(x23, x8, x7, x31, I_sltu_cg_cp_rs1_b22, I_sltu_cg_cp_rs1_b22_str)
     440:	000ba383          	lw	x7,0(x23)
     444:	01f38863          	beq	x7,x31,454 <I_sltu_cg_cp_rs1_b22+0x18>
     448:	0cc0446f          	jal	x8,4514 <failedtest_x8_x7>
     44c:	0000043c          	.word	0x0000043c
     450:	0000915d          	.word	0x0000915d
     454:	004b8b93          	addi	x23,x23,4

  mv x6, x23 # switch signature pointer register to avoid conflict with test
     458:	000b8313          	addi	x6,x23,0
# Testcase cp_rs1 (Test source rs1 = x23)
  RVTEST_TESTDATA_LOAD_INT(x28, x23) # load rs1: x23 = 0x8f40d55d
     45c:	000e2b83          	lw	x23,0(x28)
     460:	004e0e13          	addi	x28,x28,4
  RVTEST_TESTDATA_LOAD_INT(x28, x30) # load rs2: x30 = 0x25ad807a
     464:	000e2f03          	lw	x30,0(x28)
     468:	004e0e13          	addi	x28,x28,4

0000046c <I_sltu_cg_cp_rs1_b23>:
I_sltu_cg_cp_rs1_b23:
  sltu x15, x23, x30 # perform operation
     46c:	01ebb7b3          	sltu	x15,x23,x30
  # Check if x15 contains the expected result. x6 is the signature ptr, x8 is the link ptr, x7 is a temp reg.
  RVTEST_SIGUPD(x6, x8, x7, x15, I_sltu_cg_cp_rs1_b23, I_sltu_cg_cp_rs1_b23_str)
     470:	00032383          	lw	x7,0(x6)
     474:	00f38863          	beq	x7,x15,484 <I_sltu_cg_cp_rs1_b23+0x18>
     478:	09c0446f          	jal	x8,4514 <failedtest_x8_x7>
     47c:	0000046c          	.word	0x0000046c
     480:	0000918d          	.word	0x0000918d
     484:	00430313          	addi	x6,x6,4

# Testcase cp_rs1 (Test source rs1 = x24)
  RVTEST_TESTDATA_LOAD_INT(x28, x24) # load rs1: x24 = 0xb2cf1d2a
     488:	000e2c03          	lw	x24,0(x28)
     48c:	004e0e13          	addi	x28,x28,4
  RVTEST_TESTDATA_LOAD_INT(x28, x5) # load rs2: x5 = 0x166dacd0
     490:	000e2283          	lw	x5,0(x28)
     494:	004e0e13          	addi	x28,x28,4

00000498 <I_sltu_cg_cp_rs1_b24>:
I_sltu_cg_cp_rs1_b24:
  sltu x20, x24, x5 # perform operation
     498:	005c3a33          	sltu	x20,x24,x5
  # Check if x20 contains the expected result. x6 is the signature ptr, x8 is the link ptr, x7 is a temp reg.
  RVTEST_SIGUPD(x6, x8, x7, x20, I_sltu_cg_cp_rs1_b24, I_sltu_cg_cp_rs1_b24_str)
     49c:	00032383          	lw	x7,0(x6)
     4a0:	01438863          	beq	x7,x20,4b0 <I_sltu_cg_cp_rs1_b24+0x18>
     4a4:	0700446f          	jal	x8,4514 <failedtest_x8_x7>
     4a8:	00000498          	.word	0x00000498
     4ac:	000091bd          	.word	0x000091bd
     4b0:	00430313          	addi	x6,x6,4

# Testcase cp_rs1 (Test source rs1 = x25)
  RVTEST_TESTDATA_LOAD_INT(x28, x25) # load rs1: x25 = 0x3de73289
     4b4:	000e2c83          	lw	x25,0(x28)
     4b8:	004e0e13          	addi	x28,x28,4
  RVTEST_TESTDATA_LOAD_INT(x28, x27) # load rs2: x27 = 0xb3474463
     4bc:	000e2d83          	lw	x27,0(x28)
     4c0:	004e0e13          	addi	x28,x28,4

000004c4 <I_sltu_cg_cp_rs1_b25>:
I_sltu_cg_cp_rs1_b25:
  sltu x16, x25, x27 # perform operation
     4c4:	01bcb833          	sltu	x16,x25,x27
  # Check if x16 contains the expected result. x6 is the signature ptr, x8 is the link ptr, x7 is a temp reg.
  RVTEST_SIGUPD(x6, x8, x7, x16, I_sltu_cg_cp_rs1_b25, I_sltu_cg_cp_rs1_b25_str)
     4c8:	00032383          	lw	x7,0(x6)
     4cc:	01038863          	beq	x7,x16,4dc <I_sltu_cg_cp_rs1_b25+0x18>
     4d0:	0440446f          	jal	x8,4514 <failedtest_x8_x7>
     4d4:	000004c4          	.word	0x000004c4
     4d8:	000091ed          	.word	0x000091ed
     4dc:	00430313          	addi	x6,x6,4

# Testcase cp_rs1 (Test source rs1 = x26)
  RVTEST_TESTDATA_LOAD_INT(x28, x26) # load rs1: x26 = 0x388bc7b0
     4e0:	000e2d03          	lw	x26,0(x28)
     4e4:	004e0e13          	addi	x28,x28,4
  RVTEST_TESTDATA_LOAD_INT(x28, x4) # load rs2: x4 = 0xd3d0a350
     4e8:	000e2203          	lw	x4,0(x28)
     4ec:	004e0e13          	addi	x28,x28,4

000004f0 <I_sltu_cg_cp_rs1_b26>:
I_sltu_cg_cp_rs1_b26:
  sltu x11, x26, x4 # perform operation
     4f0:	004d35b3          	sltu	x11,x26,x4
  # Check if x11 contains the expected result. x6 is the signature ptr, x8 is the link ptr, x7 is a temp reg.
  RVTEST_SIGUPD(x6, x8, x7, x11, I_sltu_cg_cp_rs1_b26, I_sltu_cg_cp_rs1_b26_str)
     4f4:	00032383          	lw	x7,0(x6)
     4f8:	00b38863          	beq	x7,x11,508 <I_sltu_cg_cp_rs1_b26+0x18>
     4fc:	0180446f          	jal	x8,4514 <failedtest_x8_x7>
     500:	000004f0          	.word	0x000004f0
     504:	0000921d          	.word	0x0000921d
     508:	00430313          	addi	x6,x6,4

# Testcase cp_rs1 (Test source rs1 = x27)
  RVTEST_TESTDATA_LOAD_INT(x28, x27) # load rs1: x27 = 0x49a579a8
     50c:	000e2d83          	lw	x27,0(x28)
     510:	004e0e13          	addi	x28,x28,4
  RVTEST_TESTDATA_LOAD_INT(x28, x4) # load rs2: x4 = 0x161f9456
     514:	000e2203          	lw	x4,0(x28)
     518:	004e0e13          	addi	x28,x28,4

0000051c <I_sltu_cg_cp_rs1_b27>:
I_sltu_cg_cp_rs1_b27:
  sltu x31, x27, x4 # perform operation
     51c:	004dbfb3          	sltu	x31,x27,x4
  # Check if x31 contains the expected result. x6 is the signature ptr, x8 is the link ptr, x7 is a temp reg.
  RVTEST_SIGUPD(x6, x8, x7, x31, I_sltu_cg_cp_rs1_b27, I_sltu_cg_cp_rs1_b27_str)
     520:	00032383          	lw	x7,0(x6)
     524:	01f38863          	beq	x7,x31,534 <I_sltu_cg_cp_rs1_b27+0x18>
     528:	7ed0346f          	jal	x8,4514 <failedtest_x8_x7>
     52c:	0000051c          	.word	0x0000051c
     530:	0000924d          	.word	0x0000924d
     534:	00430313          	addi	x6,x6,4

  mv x27, x28 # switch data pointer register to avoid conflict with test
     538:	000e0d93          	addi	x27,x28,0
# Testcase cp_rs1 (Test source rs1 = x28)
  RVTEST_TESTDATA_LOAD_INT(x27, x28) # load rs1: x28 = 0xddd0fd7d
     53c:	000dae03          	lw	x28,0(x27)
     540:	004d8d93          	addi	x27,x27,4
  RVTEST_TESTDATA_LOAD_INT(x27, x15) # load rs2: x15 = 0x683969d5
     544:	000da783          	lw	x15,0(x27)
     548:	004d8d93          	addi	x27,x27,4

0000054c <I_sltu_cg_cp_rs1_b28>:
I_sltu_cg_cp_rs1_b28:
  sltu x22, x28, x15 # perform operation
     54c:	00fe3b33          	sltu	x22,x28,x15
  # Check if x22 contains the expected result. x6 is the signature ptr, x8 is the link ptr, x7 is a temp reg.
  RVTEST_SIGUPD(x6, x8, x7, x22, I_sltu_cg_cp_rs1_b28, I_sltu_cg_cp_rs1_b28_str)
     550:	00032383          	lw	x7,0(x6)
     554:	01638863          	beq	x7,x22,564 <I_sltu_cg_cp_rs1_b28+0x18>
     558:	7bd0346f          	jal	x8,4514 <failedtest_x8_x7>
     55c:	0000054c          	.word	0x0000054c
     560:	0000927d          	.word	0x0000927d
     564:	00430313          	addi	x6,x6,4

# Testcase cp_rs1 (Test source rs1 = x29)
  RVTEST_TESTDATA_LOAD_INT(x27, x29) # load rs1: x29 = 0x3bad9497
     568:	000dae83          	lw	x29,0(x27)
     56c:	004d8d93          	addi	x27,x27,4
  RVTEST_TESTDATA_LOAD_INT(x27, x1) # load rs2: x1 = 0x42712f19
     570:	000da083          	lw	x1,0(x27)
     574:	004d8d93          	addi	x27,x27,4

00000578 <I_sltu_cg_cp_rs1_b29>:
I_sltu_cg_cp_rs1_b29:
  sltu x17, x29, x1 # perform operation
     578:	001eb8b3          	sltu	x17,x29,x1
  # Check if x17 contains the expected result. x6 is the signature ptr, x8 is the link ptr, x7 is a temp reg.
  RVTEST_SIGUPD(x6, x8, x7, x17, I_sltu_cg_cp_rs1_b29, I_sltu_cg_cp_rs1_b29_str)
     57c:	00032383          	lw	x7,0(x6)
     580:	01138863          	beq	x7,x17,590 <I_sltu_cg_cp_rs1_b29+0x18>
     584:	7910346f          	jal	x8,4514 <failedtest_x8_x7>
     588:	00000578          	.word	0x00000578
     58c:	000092ad          	.word	0x000092ad
     590:	00430313          	addi	x6,x6,4

# Testcase cp_rs1 (Test source rs1 = x30)
  RVTEST_TESTDATA_LOAD_INT(x27, x30) # load rs1: x30 = 0xc2b1056f
     594:	000daf03          	lw	x30,0(x27)
     598:	004d8d93          	addi	x27,x27,4
  RVTEST_TESTDATA_LOAD_INT(x27, x31) # load rs2: x31 = 0x3e10329d
     59c:	000daf83          	lw	x31,0(x27)
     5a0:	004d8d93          	addi	x27,x27,4

000005a4 <I_sltu_cg_cp_rs1_b30>:
I_sltu_cg_cp_rs1_b30:
  sltu x11, x30, x31 # perform operation
     5a4:	01ff35b3          	sltu	x11,x30,x31
  # Check if x11 contains the expected result. x6 is the signature ptr, x8 is the link ptr, x7 is a temp reg.
  RVTEST_SIGUPD(x6, x8, x7, x11, I_sltu_cg_cp_rs1_b30, I_sltu_cg_cp_rs1_b30_str)
     5a8:	00032383          	lw	x7,0(x6)
     5ac:	00b38863          	beq	x7,x11,5bc <I_sltu_cg_cp_rs1_b30+0x18>
     5b0:	7650346f          	jal	x8,4514 <failedtest_x8_x7>
     5b4:	000005a4          	.word	0x000005a4
     5b8:	000092dd          	.word	0x000092dd
     5bc:	00430313          	addi	x6,x6,4

# Testcase cp_rs1 (Test source rs1 = x31)
  RVTEST_TESTDATA_LOAD_INT(x27, x31) # load rs1: x31 = 0x24a5a838
     5c0:	000daf83          	lw	x31,0(x27)
     5c4:	004d8d93          	addi	x27,x27,4
  RVTEST_TESTDATA_LOAD_INT(x27, x30) # load rs2: x30 = 0x478b7993
     5c8:	000daf03          	lw	x30,0(x27)
     5cc:	004d8d93          	addi	x27,x27,4

000005d0 <I_sltu_cg_cp_rs1_b31>:
I_sltu_cg_cp_rs1_b31:
  sltu x11, x31, x30 # perform operation
     5d0:	01efb5b3          	sltu	x11,x31,x30
  # Check if x11 contains the expected result. x6 is the signature ptr, x8 is the link ptr, x7 is a temp reg.
  RVTEST_SIGUPD(x6, x8, x7, x11, I_sltu_cg_cp_rs1_b31, I_sltu_cg_cp_rs1_b31_str)
     5d4:	00032383          	lw	x7,0(x6)
     5d8:	00b38863          	beq	x7,x11,5e8 <I_sltu_cg_cp_rs1_b31+0x18>
     5dc:	7390346f          	jal	x8,4514 <failedtest_x8_x7>
     5e0:	000005d0          	.word	0x000005d0
     5e4:	0000930d          	.word	0x0000930d
     5e8:	00430313          	addi	x6,x6,4
/////////////////////////////////
// cp_rs2
/////////////////////////////////

# Testcase cp_rs2 (Test source rs2 = x0)
  RVTEST_TESTDATA_LOAD_INT(x27, x1) # load rs1: x1 = 0x41fc3c36
     5ec:	000da083          	lw	x1,0(x27)
     5f0:	004d8d93          	addi	x27,x27,4
  RVTEST_TESTDATA_LOAD_INT(x27, x0) # load rs2: x0 = 0xf2d8368b
     5f4:	000da003          	lw	x0,0(x27)
     5f8:	004d8d93          	addi	x27,x27,4

000005fc <I_sltu_cg_cp_rs2_b0>:
I_sltu_cg_cp_rs2_b0:
  sltu x30, x1, x0 # perform operation
     5fc:	0000bf33          	sltu	x30,x1,x0
  # Check if x30 contains the expected result. x6 is the signature ptr, x8 is the link ptr, x7 is a temp reg.
  RVTEST_SIGUPD(x6, x8, x7, x30, I_sltu_cg_cp_rs2_b0, I_sltu_cg_cp_rs2_b0_str)
     600:	00032383          	lw	x7,0(x6)
     604:	01e38863          	beq	x7,x30,614 <I_sltu_cg_cp_rs2_b0+0x18>
     608:	70d0346f          	jal	x8,4514 <failedtest_x8_x7>
     60c:	000005fc          	.word	0x000005fc
     610:	0000933d          	.word	0x0000933d
     614:	00430313          	addi	x6,x6,4

# Testcase cp_rs2 (Test source rs2 = x1)
  RVTEST_TESTDATA_LOAD_INT(x27, x21) # load rs1: x21 = 0xc7458881
     618:	000daa83          	lw	x21,0(x27)
     61c:	004d8d93          	addi	x27,x27,4
  RVTEST_TESTDATA_LOAD_INT(x27, x1) # load rs2: x1 = 0xdeea0ea3
     620:	000da083          	lw	x1,0(x27)
     624:	004d8d93          	addi	x27,x27,4

00000628 <I_sltu_cg_cp_rs2_b1>:
I_sltu_cg_cp_rs2_b1:
  sltu x19, x21, x1 # perform operation
     628:	001ab9b3          	sltu	x19,x21,x1
  # Check if x19 contains the expected result. x6 is the signature ptr, x8 is the link ptr, x7 is a temp reg.
  RVTEST_SIGUPD(x6, x8, x7, x19, I_sltu_cg_cp_rs2_b1, I_sltu_cg_cp_rs2_b1_str)
     62c:	00032383          	lw	x7,0(x6)
     630:	01338863          	beq	x7,x19,640 <I_sltu_cg_cp_rs2_b1+0x18>
     634:	6e10346f          	jal	x8,4514 <failedtest_x8_x7>
     638:	00000628          	.word	0x00000628
     63c:	0000936c          	.word	0x0000936c
     640:	00430313          	addi	x6,x6,4

# Testcase cp_rs2 (Test source rs2 = x2)
  RVTEST_TESTDATA_LOAD_INT(x27, x10) # load rs1: x10 = 0x6d86305e
     644:	000da503          	lw	x10,0(x27)
     648:	004d8d93          	addi	x27,x27,4
  RVTEST_TESTDATA_LOAD_INT(x27, x2) # load rs2: x2 = 0x868a5c46
     64c:	000da103          	lw	x2,0(x27)
     650:	004d8d93          	addi	x27,x27,4

00000654 <I_sltu_cg_cp_rs2_b2>:
I_sltu_cg_cp_rs2_b2:
  sltu x4, x10, x2 # perform operation
     654:	00253233          	sltu	x4,x10,x2
  # Check if x4 contains the expected result. x6 is the signature ptr, x8 is the link ptr, x7 is a temp reg.
  RVTEST_SIGUPD(x6, x8, x7, x4, I_sltu_cg_cp_rs2_b2, I_sltu_cg_cp_rs2_b2_str)
     658:	00032383          	lw	x7,0(x6)
     65c:	00438863          	beq	x7,x4,66c <I_sltu_cg_cp_rs2_b2+0x18>
     660:	6b50346f          	jal	x8,4514 <failedtest_x8_x7>
     664:	00000654          	.word	0x00000654
     668:	0000939b          	.word	0x0000939b
     66c:	00430313          	addi	x6,x6,4

# Testcase cp_rs2 (Test source rs2 = x3)
  RVTEST_TESTDATA_LOAD_INT(x27, x28) # load rs1: x28 = 0xe236c81e
     670:	000dae03          	lw	x28,0(x27)
     674:	004d8d93          	addi	x27,x27,4
  RVTEST_TESTDATA_LOAD_INT(x27, x3) # load rs2: x3 = 0xbdd35f25
     678:	000da183          	lw	x3,0(x27)
     67c:	004d8d93          	addi	x27,x27,4

00000680 <I_sltu_cg_cp_rs2_b3>:
I_sltu_cg_cp_rs2_b3:
  sltu x2, x28, x3 # perform operation
     680:	003e3133          	sltu	x2,x28,x3
  # Check if x2 contains the expected result. x6 is the signature ptr, x8 is the link ptr, x7 is a temp reg.
  RVTEST_SIGUPD(x6, x8, x7, x2, I_sltu_cg_cp_rs2_b3, I_sltu_cg_cp_rs2_b3_str)
     684:	00032383          	lw	x7,0(x6)
     688:	00238863          	beq	x7,x2,698 <I_sltu_cg_cp_rs2_b3+0x18>
     68c:	6890346f          	jal	x8,4514 <failedtest_x8_x7>
     690:	00000680          	.word	0x00000680
     694:	000093ca          	.word	0x000093ca
     698:	00430313          	addi	x6,x6,4

# Testcase cp_rs2 (Test source rs2 = x4)
  RVTEST_TESTDATA_LOAD_INT(x27, x13) # load rs1: x13 = 0xb1c5fd9b
     69c:	000da683          	lw	x13,0(x27)
     6a0:	004d8d93          	addi	x27,x27,4
  RVTEST_TESTDATA_LOAD_INT(x27, x4) # load rs2: x4 = 0xab606479
     6a4:	000da203          	lw	x4,0(x27)
     6a8:	004d8d93          	addi	x27,x27,4

000006ac <I_sltu_cg_cp_rs2_b4>:
I_sltu_cg_cp_rs2_b4:
  sltu x3, x13, x4 # perform operation
     6ac:	0046b1b3          	sltu	x3,x13,x4
  # Check if x3 contains the expected result. x6 is the signature ptr, x8 is the link ptr, x7 is a temp reg.
  RVTEST_SIGUPD(x6, x8, x7, x3, I_sltu_cg_cp_rs2_b4, I_sltu_cg_cp_rs2_b4_str)
     6b0:	00032383          	lw	x7,0(x6)
     6b4:	00338863          	beq	x7,x3,6c4 <I_sltu_cg_cp_rs2_b4+0x18>
     6b8:	65d0346f          	jal	x8,4514 <failedtest_x8_x7>
     6bc:	000006ac          	.word	0x000006ac
     6c0:	000093f9          	.word	0x000093f9
     6c4:	00430313          	addi	x6,x6,4

# Testcase cp_rs2 (Test source rs2 = x5)
  RVTEST_TESTDATA_LOAD_INT(x27, x29) # load rs1: x29 = 0xae94e26f
     6c8:	000dae83          	lw	x29,0(x27)
     6cc:	004d8d93          	addi	x27,x27,4
  RVTEST_TESTDATA_LOAD_INT(x27, x5) # load rs2: x5 = 0x479d7e70
     6d0:	000da283          	lw	x5,0(x27)
     6d4:	004d8d93          	addi	x27,x27,4

000006d8 <I_sltu_cg_cp_rs2_b5>:
I_sltu_cg_cp_rs2_b5:
  sltu x10, x29, x5 # perform operation
     6d8:	005eb533          	sltu	x10,x29,x5
  # Check if x10 contains the expected result. x6 is the signature ptr, x8 is the link ptr, x7 is a temp reg.
  RVTEST_SIGUPD(x6, x8, x7, x10, I_sltu_cg_cp_rs2_b5, I_sltu_cg_cp_rs2_b5_str)
     6dc:	00032383          	lw	x7,0(x6)
     6e0:	00a38863          	beq	x7,x10,6f0 <I_sltu_cg_cp_rs2_b5+0x18>
     6e4:	6310346f          	jal	x8,4514 <failedtest_x8_x7>
     6e8:	000006d8          	.word	0x000006d8
     6ec:	00009428          	.word	0x00009428
     6f0:	00430313          	addi	x6,x6,4

  mv x16, x6 # switch signature pointer register to avoid conflict with test
     6f4:	00030813          	addi	x16,x6,0
# Testcase cp_rs2 (Test source rs2 = x6)
  RVTEST_TESTDATA_LOAD_INT(x27, x26) # load rs1: x26 = 0xccfb9530
     6f8:	000dad03          	lw	x26,0(x27)
     6fc:	004d8d93          	addi	x27,x27,4
  RVTEST_TESTDATA_LOAD_INT(x27, x6) # load rs2: x6 = 0x4498ef67
     700:	000da303          	lw	x6,0(x27)
     704:	004d8d93          	addi	x27,x27,4

00000708 <I_sltu_cg_cp_rs2_b6>:
I_sltu_cg_cp_rs2_b6:
  sltu x18, x26, x6 # perform operation
     708:	006d3933          	sltu	x18,x26,x6
  # Check if x18 contains the expected result. x16 is the signature ptr, x8 is the link ptr, x7 is a temp reg.
  RVTEST_SIGUPD(x16, x8, x7, x18, I_sltu_cg_cp_rs2_b6, I_sltu_cg_cp_rs2_b6_str)
     70c:	00082383          	lw	x7,0(x16)
     710:	01238863          	beq	x7,x18,720 <I_sltu_cg_cp_rs2_b6+0x18>
     714:	6010346f          	jal	x8,4514 <failedtest_x8_x7>
     718:	00000708          	.word	0x00000708
     71c:	00009457          	.word	0x00009457
     720:	00480813          	addi	x16,x16,4

  mv x13, x7 # switch temp register to avoid conflict with test
     724:	00038693          	addi	x13,x7,0
  mv x14, x8 # switch link pointer register to avoid conflict with test
     728:	00040713          	addi	x14,x8,0
# Testcase cp_rs2 (Test source rs2 = x7)
  RVTEST_TESTDATA_LOAD_INT(x27, x23) # load rs1: x23 = 0x77234f21
     72c:	000dab83          	lw	x23,0(x27)
     730:	004d8d93          	addi	x27,x27,4
  RVTEST_TESTDATA_LOAD_INT(x27, x7) # load rs2: x7 = 0x71e1c825
     734:	000da383          	lw	x7,0(x27)
     738:	004d8d93          	addi	x27,x27,4

0000073c <I_sltu_cg_cp_rs2_b7>:
I_sltu_cg_cp_rs2_b7:
  sltu x28, x23, x7 # perform operation
     73c:	007bbe33          	sltu	x28,x23,x7
  # Check if x28 contains the expected result. x16 is the signature ptr, x14 is the link ptr, x13 is a temp reg.
  RVTEST_SIGUPD(x16, x14, x13, x28, I_sltu_cg_cp_rs2_b7, I_sltu_cg_cp_rs2_b7_str)
     740:	00082683          	lw	x13,0(x16)
     744:	01c68863          	beq	x13,x28,754 <I_sltu_cg_cp_rs2_b7+0x18>
     748:	5f50376f          	jal	x14,453c <failedtest_x14_x13>
     74c:	0000073c          	.word	0x0000073c
     750:	00009486          	.word	0x00009486
     754:	00480813          	addi	x16,x16,4

# Testcase cp_rs2 (Test source rs2 = x8)
  RVTEST_TESTDATA_LOAD_INT(x27, x22) # load rs1: x22 = 0x291d6451
     758:	000dab03          	lw	x22,0(x27)
     75c:	004d8d93          	addi	x27,x27,4
  RVTEST_TESTDATA_LOAD_INT(x27, x8) # load rs2: x8 = 0xb4c35511
     760:	000da403          	lw	x8,0(x27)
     764:	004d8d93          	addi	x27,x27,4

00000768 <I_sltu_cg_cp_rs2_b8>:
I_sltu_cg_cp_rs2_b8:
  sltu x6, x22, x8 # perform operation
     768:	008b3333          	sltu	x6,x22,x8
  # Check if x6 contains the expected result. x16 is the signature ptr, x14 is the link ptr, x13 is a temp reg.
  RVTEST_SIGUPD(x16, x14, x13, x6, I_sltu_cg_cp_rs2_b8, I_sltu_cg_cp_rs2_b8_str)
     76c:	00082683          	lw	x13,0(x16)
     770:	00668863          	beq	x13,x6,780 <I_sltu_cg_cp_rs2_b8+0x18>
     774:	5c90376f          	jal	x14,453c <failedtest_x14_x13>
     778:	00000768          	.word	0x00000768
     77c:	000094b5          	.word	0x000094b5
     780:	00480813          	addi	x16,x16,4

# Testcase cp_rs2 (Test source rs2 = x9)
  RVTEST_TESTDATA_LOAD_INT(x27, x19) # load rs1: x19 = 0xfa2f3b2e
     784:	000da983          	lw	x19,0(x27)
     788:	004d8d93          	addi	x27,x27,4
  RVTEST_TESTDATA_LOAD_INT(x27, x9) # load rs2: x9 = 0xab4fc974
     78c:	000da483          	lw	x9,0(x27)
     790:	004d8d93          	addi	x27,x27,4

00000794 <I_sltu_cg_cp_rs2_b9>:
I_sltu_cg_cp_rs2_b9:
  sltu x30, x19, x9 # perform operation
     794:	0099bf33          	sltu	x30,x19,x9
  # Check if x30 contains the expected result. x16 is the signature ptr, x14 is the link ptr, x13 is a temp reg.
  RVTEST_SIGUPD(x16, x14, x13, x30, I_sltu_cg_cp_rs2_b9, I_sltu_cg_cp_rs2_b9_str)
     798:	00082683          	lw	x13,0(x16)
     79c:	01e68863          	beq	x13,x30,7ac <I_sltu_cg_cp_rs2_b9+0x18>
     7a0:	59d0376f          	jal	x14,453c <failedtest_x14_x13>
     7a4:	00000794          	.word	0x00000794
     7a8:	000094e4          	.word	0x000094e4
     7ac:	00480813          	addi	x16,x16,4

# Testcase cp_rs2 (Test source rs2 = x10)
  RVTEST_TESTDATA_LOAD_INT(x27, x15) # load rs1: x15 = 0x4dad6d72
     7b0:	000da783          	lw	x15,0(x27)
     7b4:	004d8d93          	addi	x27,x27,4
  RVTEST_TESTDATA_LOAD_INT(x27, x10) # load rs2: x10 = 0xff0ecec9
     7b8:	000da503          	lw	x10,0(x27)
     7bc:	004d8d93          	addi	x27,x27,4

000007c0 <I_sltu_cg_cp_rs2_b10>:
I_sltu_cg_cp_rs2_b10:
  sltu x25, x15, x10 # perform operation
     7c0:	00a7bcb3          	sltu	x25,x15,x10
  # Check if x25 contains the expected result. x16 is the signature ptr, x14 is the link ptr, x13 is a temp reg.
  RVTEST_SIGUPD(x16, x14, x13, x25, I_sltu_cg_cp_rs2_b10, I_sltu_cg_cp_rs2_b10_str)
     7c4:	00082683          	lw	x13,0(x16)
     7c8:	01968863          	beq	x13,x25,7d8 <I_sltu_cg_cp_rs2_b10+0x18>
     7cc:	5710376f          	jal	x14,453c <failedtest_x14_x13>
     7d0:	000007c0          	.word	0x000007c0
     7d4:	00009513          	.word	0x00009513
     7d8:	00480813          	addi	x16,x16,4

# Testcase cp_rs2 (Test source rs2 = x11)
  RVTEST_TESTDATA_LOAD_INT(x27, x20) # load rs1: x20 = 0x69a0b071
     7dc:	000daa03          	lw	x20,0(x27)
     7e0:	004d8d93          	addi	x27,x27,4
  RVTEST_TESTDATA_LOAD_INT(x27, x11) # load rs2: x11 = 0x9ee2a3ad
     7e4:	000da583          	lw	x11,0(x27)
     7e8:	004d8d93          	addi	x27,x27,4

000007ec <I_sltu_cg_cp_rs2_b11>:
I_sltu_cg_cp_rs2_b11:
  sltu x26, x20, x11 # perform operation
     7ec:	00ba3d33          	sltu	x26,x20,x11
  # Check if x26 contains the expected result. x16 is the signature ptr, x14 is the link ptr, x13 is a temp reg.
  RVTEST_SIGUPD(x16, x14, x13, x26, I_sltu_cg_cp_rs2_b11, I_sltu_cg_cp_rs2_b11_str)
     7f0:	00082683          	lw	x13,0(x16)
     7f4:	01a68863          	beq	x13,x26,804 <I_sltu_cg_cp_rs2_b11+0x18>
     7f8:	5450376f          	jal	x14,453c <failedtest_x14_x13>
     7fc:	000007ec          	.word	0x000007ec
     800:	00009543          	.word	0x00009543
     804:	00480813          	addi	x16,x16,4

# Testcase cp_rs2 (Test source rs2 = x12)
  RVTEST_TESTDATA_LOAD_INT(x27, x10) # load rs1: x10 = 0x99ac6fd7
     808:	000da503          	lw	x10,0(x27)
     80c:	004d8d93          	addi	x27,x27,4
  RVTEST_TESTDATA_LOAD_INT(x27, x12) # load rs2: x12 = 0x78bf1cfb
     810:	000da603          	lw	x12,0(x27)
     814:	004d8d93          	addi	x27,x27,4

00000818 <I_sltu_cg_cp_rs2_b12>:
I_sltu_cg_cp_rs2_b12:
  sltu x19, x10, x12 # perform operation
     818:	00c539b3          	sltu	x19,x10,x12
  # Check if x19 contains the expected result. x16 is the signature ptr, x14 is the link ptr, x13 is a temp reg.
  RVTEST_SIGUPD(x16, x14, x13, x19, I_sltu_cg_cp_rs2_b12, I_sltu_cg_cp_rs2_b12_str)
     81c:	00082683          	lw	x13,0(x16)
     820:	01368863          	beq	x13,x19,830 <I_sltu_cg_cp_rs2_b12+0x18>
     824:	5190376f          	jal	x14,453c <failedtest_x14_x13>
     828:	00000818          	.word	0x00000818
     82c:	00009573          	.word	0x00009573
     830:	00480813          	addi	x16,x16,4

  mv x7, x13 # switch temp register to avoid conflict with test
     834:	00068393          	addi	x7,x13,0
  mv x8, x14 # switch link pointer register to avoid conflict with test
     838:	00070413          	addi	x8,x14,0
# Testcase cp_rs2 (Test source rs2 = x13)
  RVTEST_TESTDATA_LOAD_INT(x27, x14) # load rs1: x14 = 0xd79539b9
     83c:	000da703          	lw	x14,0(x27)
     840:	004d8d93          	addi	x27,x27,4
  RVTEST_TESTDATA_LOAD_INT(x27, x13) # load rs2: x13 = 0x5dcf363b
     844:	000da683          	lw	x13,0(x27)
     848:	004d8d93          	addi	x27,x27,4

0000084c <I_sltu_cg_cp_rs2_b13>:
I_sltu_cg_cp_rs2_b13:
  sltu x0, x14, x13 # perform operation
     84c:	00d73033          	sltu	x0,x14,x13
  # Check if x0 contains the expected result. x16 is the signature ptr, x8 is the link ptr, x7 is a temp reg.
  RVTEST_SIGUPD(x16, x8, x7, x0, I_sltu_cg_cp_rs2_b13, I_sltu_cg_cp_rs2_b13_str)
     850:	00082383          	lw	x7,0(x16)
     854:	00038863          	beq	x7,x0,864 <I_sltu_cg_cp_rs2_b13+0x18>
     858:	4bd0346f          	jal	x8,4514 <failedtest_x8_x7>
     85c:	0000084c          	.word	0x0000084c
     860:	000095a3          	.word	0x000095a3
     864:	00480813          	addi	x16,x16,4

# Testcase cp_rs2 (Test source rs2 = x14)
  RVTEST_TESTDATA_LOAD_INT(x27, x10) # load rs1: x10 = 0xe3184cdc
     868:	000da503          	lw	x10,0(x27)
     86c:	004d8d93          	addi	x27,x27,4
  RVTEST_TESTDATA_LOAD_INT(x27, x14) # load rs2: x14 = 0x8b178a38
     870:	000da703          	lw	x14,0(x27)
     874:	004d8d93          	addi	x27,x27,4

00000878 <I_sltu_cg_cp_rs2_b14>:
I_sltu_cg_cp_rs2_b14:
  sltu x22, x10, x14 # perform operation
     878:	00e53b33          	sltu	x22,x10,x14
  # Check if x22 contains the expected result. x16 is the signature ptr, x8 is the link ptr, x7 is a temp reg.
  RVTEST_SIGUPD(x16, x8, x7, x22, I_sltu_cg_cp_rs2_b14, I_sltu_cg_cp_rs2_b14_str)
     87c:	00082383          	lw	x7,0(x16)
     880:	01638863          	beq	x7,x22,890 <I_sltu_cg_cp_rs2_b14+0x18>
     884:	4910346f          	jal	x8,4514 <failedtest_x8_x7>
     888:	00000878          	.word	0x00000878
     88c:	000095d3          	.word	0x000095d3
     890:	00480813          	addi	x16,x16,4

# Testcase cp_rs2 (Test source rs2 = x15)
  RVTEST_TESTDATA_LOAD_INT(x27, x4) # load rs1: x4 = 0xfaf3f1d5
     894:	000da203          	lw	x4,0(x27)
     898:	004d8d93          	addi	x27,x27,4
  RVTEST_TESTDATA_LOAD_INT(x27, x15) # load rs2: x15 = 0x30335bfe
     89c:	000da783          	lw	x15,0(x27)
     8a0:	004d8d93          	addi	x27,x27,4

000008a4 <I_sltu_cg_cp_rs2_b15>:
I_sltu_cg_cp_rs2_b15:
  sltu x12, x4, x15 # perform operation
     8a4:	00f23633          	sltu	x12,x4,x15
  # Check if x12 contains the expected result. x16 is the signature ptr, x8 is the link ptr, x7 is a temp reg.
  RVTEST_SIGUPD(x16, x8, x7, x12, I_sltu_cg_cp_rs2_b15, I_sltu_cg_cp_rs2_b15_str)
     8a8:	00082383          	lw	x7,0(x16)
     8ac:	00c38863          	beq	x7,x12,8bc <I_sltu_cg_cp_rs2_b15+0x18>
     8b0:	4650346f          	jal	x8,4514 <failedtest_x8_x7>
     8b4:	000008a4          	.word	0x000008a4
     8b8:	00009603          	.word	0x00009603
     8bc:	00480813          	addi	x16,x16,4

  mv x21, x16 # switch signature pointer register to avoid conflict with test
     8c0:	00080a93          	addi	x21,x16,0
# Testcase cp_rs2 (Test source rs2 = x16)
  RVTEST_TESTDATA_LOAD_INT(x27, x25) # load rs1: x25 = 0x11794d88
     8c4:	000dac83          	lw	x25,0(x27)
     8c8:	004d8d93          	addi	x27,x27,4
  RVTEST_TESTDATA_LOAD_INT(x27, x16) # load rs2: x16 = 0x9791ae5c
     8cc:	000da803          	lw	x16,0(x27)
     8d0:	004d8d93          	addi	x27,x27,4

000008d4 <I_sltu_cg_cp_rs2_b16>:
I_sltu_cg_cp_rs2_b16:
  sltu x28, x25, x16 # perform operation
     8d4:	010cbe33          	sltu	x28,x25,x16
  # Check if x28 contains the expected result. x21 is the signature ptr, x8 is the link ptr, x7 is a temp reg.
  RVTEST_SIGUPD(x21, x8, x7, x28, I_sltu_cg_cp_rs2_b16, I_sltu_cg_cp_rs2_b16_str)
     8d8:	000aa383          	lw	x7,0(x21)
     8dc:	01c38863          	beq	x7,x28,8ec <I_sltu_cg_cp_rs2_b16+0x18>
     8e0:	4350346f          	jal	x8,4514 <failedtest_x8_x7>
     8e4:	000008d4          	.word	0x000008d4
     8e8:	00009633          	.word	0x00009633
     8ec:	004a8a93          	addi	x21,x21,4

# Testcase cp_rs2 (Test source rs2 = x17)
  RVTEST_TESTDATA_LOAD_INT(x27, x31) # load rs1: x31 = 0x3711d718
     8f0:	000daf83          	lw	x31,0(x27)
     8f4:	004d8d93          	addi	x27,x27,4
  RVTEST_TESTDATA_LOAD_INT(x27, x17) # load rs2: x17 = 0x704cea39
     8f8:	000da883          	lw	x17,0(x27)
     8fc:	004d8d93          	addi	x27,x27,4

00000900 <I_sltu_cg_cp_rs2_b17>:
I_sltu_cg_cp_rs2_b17:
  sltu x30, x31, x17 # perform operation
     900:	011fbf33          	sltu	x30,x31,x17
  # Check if x30 contains the expected result. x21 is the signature ptr, x8 is the link ptr, x7 is a temp reg.
  RVTEST_SIGUPD(x21, x8, x7, x30, I_sltu_cg_cp_rs2_b17, I_sltu_cg_cp_rs2_b17_str)
     904:	000aa383          	lw	x7,0(x21)
     908:	01e38863          	beq	x7,x30,918 <I_sltu_cg_cp_rs2_b17+0x18>
     90c:	4090346f          	jal	x8,4514 <failedtest_x8_x7>
     910:	00000900          	.word	0x00000900
     914:	00009663          	.word	0x00009663
     918:	004a8a93          	addi	x21,x21,4

# Testcase cp_rs2 (Test source rs2 = x18)
  RVTEST_TESTDATA_LOAD_INT(x27, x0) # load rs1: x0 = 0x711e3df3
     91c:	000da003          	lw	x0,0(x27)
     920:	004d8d93          	addi	x27,x27,4
  RVTEST_TESTDATA_LOAD_INT(x27, x18) # load rs2: x18 = 0xd94d62a3
     924:	000da903          	lw	x18,0(x27)
     928:	004d8d93          	addi	x27,x27,4

0000092c <I_sltu_cg_cp_rs2_b18>:
I_sltu_cg_cp_rs2_b18:
  sltu x2, x0, x18 # perform operation
     92c:	01203133          	sltu	x2,x0,x18
  # Check if x2 contains the expected result. x21 is the signature ptr, x8 is the link ptr, x7 is a temp reg.
  RVTEST_SIGUPD(x21, x8, x7, x2, I_sltu_cg_cp_rs2_b18, I_sltu_cg_cp_rs2_b18_str)
     930:	000aa383          	lw	x7,0(x21)
     934:	00238863          	beq	x7,x2,944 <I_sltu_cg_cp_rs2_b18+0x18>
     938:	3dd0346f          	jal	x8,4514 <failedtest_x8_x7>
     93c:	0000092c          	.word	0x0000092c
     940:	00009693          	.word	0x00009693
     944:	004a8a93          	addi	x21,x21,4

# Testcase cp_rs2 (Test source rs2 = x19)
  RVTEST_TESTDATA_LOAD_INT(x27, x12) # load rs1: x12 = 0x6bb33778
     948:	000da603          	lw	x12,0(x27)
     94c:	004d8d93          	addi	x27,x27,4
  RVTEST_TESTDATA_LOAD_INT(x27, x19) # load rs2: x19 = 0xb00ef0dd
     950:	000da983          	lw	x19,0(x27)
     954:	004d8d93          	addi	x27,x27,4

00000958 <I_sltu_cg_cp_rs2_b19>:
I_sltu_cg_cp_rs2_b19:
  sltu x13, x12, x19 # perform operation
     958:	013636b3          	sltu	x13,x12,x19
  # Check if x13 contains the expected result. x21 is the signature ptr, x8 is the link ptr, x7 is a temp reg.
  RVTEST_SIGUPD(x21, x8, x7, x13, I_sltu_cg_cp_rs2_b19, I_sltu_cg_cp_rs2_b19_str)
     95c:	000aa383          	lw	x7,0(x21)
     960:	00d38863          	beq	x7,x13,970 <I_sltu_cg_cp_rs2_b19+0x18>
     964:	3b10346f          	jal	x8,4514 <failedtest_x8_x7>
     968:	00000958          	.word	0x00000958
     96c:	000096c3          	.word	0x000096c3
     970:	004a8a93          	addi	x21,x21,4

# Testcase cp_rs2 (Test source rs2 = x20)
  RVTEST_TESTDATA_LOAD_INT(x27, x31) # load rs1: x31 = 0xaaef4d82
     974:	000daf83          	lw	x31,0(x27)
     978:	004d8d93          	addi	x27,x27,4
  RVTEST_TESTDATA_LOAD_INT(x27, x20) # load rs2: x20 = 0x45d16db7
     97c:	000daa03          	lw	x20,0(x27)
     980:	004d8d93          	addi	x27,x27,4

00000984 <I_sltu_cg_cp_rs2_b20>:
I_sltu_cg_cp_rs2_b20:
  sltu x14, x31, x20 # perform operation
     984:	014fb733          	sltu	x14,x31,x20
  # Check if x14 contains the expected result. x21 is the signature ptr, x8 is the link ptr, x7 is a temp reg.
  RVTEST_SIGUPD(x21, x8, x7, x14, I_sltu_cg_cp_rs2_b20, I_sltu_cg_cp_rs2_b20_str)
     988:	000aa383          	lw	x7,0(x21)
     98c:	00e38863          	beq	x7,x14,99c <I_sltu_cg_cp_rs2_b20+0x18>
     990:	3850346f          	jal	x8,4514 <failedtest_x8_x7>
     994:	00000984          	.word	0x00000984
     998:	000096f3          	.word	0x000096f3
     99c:	004a8a93          	addi	x21,x21,4

  mv x22, x21 # switch signature pointer register to avoid conflict with test
     9a0:	000a8b13          	addi	x22,x21,0
# Testcase cp_rs2 (Test source rs2 = x21)
  RVTEST_TESTDATA_LOAD_INT(x27, x0) # load rs1: x0 = 0x4ac68c09
     9a4:	000da003          	lw	x0,0(x27)
     9a8:	004d8d93          	addi	x27,x27,4
  RVTEST_TESTDATA_LOAD_INT(x27, x21) # load rs2: x21 = 0x14b630db
     9ac:	000daa83          	lw	x21,0(x27)
     9b0:	004d8d93          	addi	x27,x27,4

000009b4 <I_sltu_cg_cp_rs2_b21>:
I_sltu_cg_cp_rs2_b21:
  sltu x18, x0, x21 # perform operation
     9b4:	01503933          	sltu	x18,x0,x21
  # Check if x18 contains the expected result. x22 is the signature ptr, x8 is the link ptr, x7 is a temp reg.
  RVTEST_SIGUPD(x22, x8, x7, x18, I_sltu_cg_cp_rs2_b21, I_sltu_cg_cp_rs2_b21_str)
     9b8:	000b2383          	lw	x7,0(x22)
     9bc:	01238863          	beq	x7,x18,9cc <I_sltu_cg_cp_rs2_b21+0x18>
     9c0:	3550346f          	jal	x8,4514 <failedtest_x8_x7>
     9c4:	000009b4          	.word	0x000009b4
     9c8:	00009723          	.word	0x00009723
     9cc:	004b0b13          	addi	x22,x22,4

  mv x2, x22 # switch signature pointer register to avoid conflict with test
     9d0:	000b0113          	addi	x2,x22,0
# Testcase cp_rs2 (Test source rs2 = x22)
  RVTEST_TESTDATA_LOAD_INT(x27, x10) # load rs1: x10 = 0x01857c4c
     9d4:	000da503          	lw	x10,0(x27)
     9d8:	004d8d93          	addi	x27,x27,4
  RVTEST_TESTDATA_LOAD_INT(x27, x22) # load rs2: x22 = 0xb4f9b0e0
     9dc:	000dab03          	lw	x22,0(x27)
     9e0:	004d8d93          	addi	x27,x27,4

000009e4 <I_sltu_cg_cp_rs2_b22>:
I_sltu_cg_cp_rs2_b22:
  sltu x25, x10, x22 # perform operation
     9e4:	01653cb3          	sltu	x25,x10,x22
  # Check if x25 contains the expected result. x2 is the signature ptr, x8 is the link ptr, x7 is a temp reg.
  RVTEST_SIGUPD(x2, x8, x7, x25, I_sltu_cg_cp_rs2_b22, I_sltu_cg_cp_rs2_b22_str)
     9e8:	00012383          	lw	x7,0(x2)
     9ec:	01938863          	beq	x7,x25,9fc <I_sltu_cg_cp_rs2_b22+0x18>
     9f0:	3250346f          	jal	x8,4514 <failedtest_x8_x7>
     9f4:	000009e4          	.word	0x000009e4
     9f8:	00009753          	.word	0x00009753
     9fc:	00410113          	addi	x2,x2,4

# Testcase cp_rs2 (Test source rs2 = x23)
  RVTEST_TESTDATA_LOAD_INT(x27, x26) # load rs1: x26 = 0x4e4ba269
     a00:	000dad03          	lw	x26,0(x27)
     a04:	004d8d93          	addi	x27,x27,4
  RVTEST_TESTDATA_LOAD_INT(x27, x23) # load rs2: x23 = 0xf6bba723
     a08:	000dab83          	lw	x23,0(x27)
     a0c:	004d8d93          	addi	x27,x27,4

00000a10 <I_sltu_cg_cp_rs2_b23>:
I_sltu_cg_cp_rs2_b23:
  sltu x22, x26, x23 # perform operation
     a10:	017d3b33          	sltu	x22,x26,x23
  # Check if x22 contains the expected result. x2 is the signature ptr, x8 is the link ptr, x7 is a temp reg.
  RVTEST_SIGUPD(x2, x8, x7, x22, I_sltu_cg_cp_rs2_b23, I_sltu_cg_cp_rs2_b23_str)
     a14:	00012383          	lw	x7,0(x2)
     a18:	01638863          	beq	x7,x22,a28 <I_sltu_cg_cp_rs2_b23+0x18>
     a1c:	2f90346f          	jal	x8,4514 <failedtest_x8_x7>
     a20:	00000a10          	.word	0x00000a10
     a24:	00009783          	.word	0x00009783
     a28:	00410113          	addi	x2,x2,4

# Testcase cp_rs2 (Test source rs2 = x24)
  RVTEST_TESTDATA_LOAD_INT(x27, x20) # load rs1: x20 = 0x98314aff
     a2c:	000daa03          	lw	x20,0(x27)
     a30:	004d8d93          	addi	x27,x27,4
  RVTEST_TESTDATA_LOAD_INT(x27, x24) # load rs2: x24 = 0xede01e48
     a34:	000dac03          	lw	x24,0(x27)
     a38:	004d8d93          	addi	x27,x27,4

00000a3c <I_sltu_cg_cp_rs2_b24>:
I_sltu_cg_cp_rs2_b24:
  sltu x6, x20, x24 # perform operation
     a3c:	018a3333          	sltu	x6,x20,x24
  # Check if x6 contains the expected result. x2 is the signature ptr, x8 is the link ptr, x7 is a temp reg.
  RVTEST_SIGUPD(x2, x8, x7, x6, I_sltu_cg_cp_rs2_b24, I_sltu_cg_cp_rs2_b24_str)
     a40:	00012383          	lw	x7,0(x2)
     a44:	00638863          	beq	x7,x6,a54 <I_sltu_cg_cp_rs2_b24+0x18>
     a48:	2cd0346f          	jal	x8,4514 <failedtest_x8_x7>
     a4c:	00000a3c          	.word	0x00000a3c
     a50:	000097b3          	.word	0x000097b3
     a54:	00410113          	addi	x2,x2,4

# Testcase cp_rs2 (Test source rs2 = x25)
  RVTEST_TESTDATA_LOAD_INT(x27, x9) # load rs1: x9 = 0xf60521b8
     a58:	000da483          	lw	x9,0(x27)
     a5c:	004d8d93          	addi	x27,x27,4
  RVTEST_TESTDATA_LOAD_INT(x27, x25) # load rs2: x25 = 0x27016c8b
     a60:	000dac83          	lw	x25,0(x27)
     a64:	004d8d93          	addi	x27,x27,4

00000a68 <I_sltu_cg_cp_rs2_b25>:
I_sltu_cg_cp_rs2_b25:
  sltu x6, x9, x25 # perform operation
     a68:	0194b333          	sltu	x6,x9,x25
  # Check if x6 contains the expected result. x2 is the signature ptr, x8 is the link ptr, x7 is a temp reg.
  RVTEST_SIGUPD(x2, x8, x7, x6, I_sltu_cg_cp_rs2_b25, I_sltu_cg_cp_rs2_b25_str)
     a6c:	00012383          	lw	x7,0(x2)
     a70:	00638863          	beq	x7,x6,a80 <I_sltu_cg_cp_rs2_b25+0x18>
     a74:	2a10346f          	jal	x8,4514 <failedtest_x8_x7>
     a78:	00000a68          	.word	0x00000a68
     a7c:	000097e3          	.word	0x000097e3
     a80:	00410113          	addi	x2,x2,4

# Testcase cp_rs2 (Test source rs2 = x26)
  RVTEST_TESTDATA_LOAD_INT(x27, x5) # load rs1: x5 = 0x7e22aac0
     a84:	000da283          	lw	x5,0(x27)
     a88:	004d8d93          	addi	x27,x27,4
  RVTEST_TESTDATA_LOAD_INT(x27, x26) # load rs2: x26 = 0xea1849c5
     a8c:	000dad03          	lw	x26,0(x27)
     a90:	004d8d93          	addi	x27,x27,4

00000a94 <I_sltu_cg_cp_rs2_b26>:
I_sltu_cg_cp_rs2_b26:
  sltu x28, x5, x26 # perform operation
     a94:	01a2be33          	sltu	x28,x5,x26
  # Check if x28 contains the expected result. x2 is the signature ptr, x8 is the link ptr, x7 is a temp reg.
  RVTEST_SIGUPD(x2, x8, x7, x28, I_sltu_cg_cp_rs2_b26, I_sltu_cg_cp_rs2_b26_str)
     a98:	00012383          	lw	x7,0(x2)
     a9c:	01c38863          	beq	x7,x28,aac <I_sltu_cg_cp_rs2_b26+0x18>
     aa0:	2750346f          	jal	x8,4514 <failedtest_x8_x7>
     aa4:	00000a94          	.word	0x00000a94
     aa8:	00009813          	.word	0x00009813
     aac:	00410113          	addi	x2,x2,4

  mv x12, x27 # switch data pointer register to avoid conflict with test
     ab0:	000d8613          	addi	x12,x27,0
# Testcase cp_rs2 (Test source rs2 = x27)
  RVTEST_TESTDATA_LOAD_INT(x12, x22) # load rs1: x22 = 0x6aa0909e
     ab4:	00062b03          	lw	x22,0(x12)
     ab8:	00460613          	addi	x12,x12,4
  RVTEST_TESTDATA_LOAD_INT(x12, x27) # load rs2: x27 = 0x9dda2d5a
     abc:	00062d83          	lw	x27,0(x12)
     ac0:	00460613          	addi	x12,x12,4

00000ac4 <I_sltu_cg_cp_rs2_b27>:
I_sltu_cg_cp_rs2_b27:
  sltu x5, x22, x27 # perform operation
     ac4:	01bb32b3          	sltu	x5,x22,x27
  # Check if x5 contains the expected result. x2 is the signature ptr, x8 is the link ptr, x7 is a temp reg.
  RVTEST_SIGUPD(x2, x8, x7, x5, I_sltu_cg_cp_rs2_b27, I_sltu_cg_cp_rs2_b27_str)
     ac8:	00012383          	lw	x7,0(x2)
     acc:	00538863          	beq	x7,x5,adc <I_sltu_cg_cp_rs2_b27+0x18>
     ad0:	2450346f          	jal	x8,4514 <failedtest_x8_x7>
     ad4:	00000ac4          	.word	0x00000ac4
     ad8:	00009843          	.word	0x00009843
     adc:	00410113          	addi	x2,x2,4

# Testcase cp_rs2 (Test source rs2 = x28)
  RVTEST_TESTDATA_LOAD_INT(x12, x24) # load rs1: x24 = 0x898bd1bb
     ae0:	00062c03          	lw	x24,0(x12)
     ae4:	00460613          	addi	x12,x12,4
  RVTEST_TESTDATA_LOAD_INT(x12, x28) # load rs2: x28 = 0x657ed28e
     ae8:	00062e03          	lw	x28,0(x12)
     aec:	00460613          	addi	x12,x12,4

00000af0 <I_sltu_cg_cp_rs2_b28>:
I_sltu_cg_cp_rs2_b28:
  sltu x1, x24, x28 # perform operation
     af0:	01cc30b3          	sltu	x1,x24,x28
  # Check if x1 contains the expected result. x2 is the signature ptr, x8 is the link ptr, x7 is a temp reg.
  RVTEST_SIGUPD(x2, x8, x7, x1, I_sltu_cg_cp_rs2_b28, I_sltu_cg_cp_rs2_b28_str)
     af4:	00012383          	lw	x7,0(x2)
     af8:	00138863          	beq	x7,x1,b08 <I_sltu_cg_cp_rs2_b28+0x18>
     afc:	2190346f          	jal	x8,4514 <failedtest_x8_x7>
     b00:	00000af0          	.word	0x00000af0
     b04:	00009873          	.word	0x00009873
     b08:	00410113          	addi	x2,x2,4

# Testcase cp_rs2 (Test source rs2 = x29)
  RVTEST_TESTDATA_LOAD_INT(x12, x17) # load rs1: x17 = 0xf4cfd67c
     b0c:	00062883          	lw	x17,0(x12)
     b10:	00460613          	addi	x12,x12,4
  RVTEST_TESTDATA_LOAD_INT(x12, x29) # load rs2: x29 = 0x334d3f45
     b14:	00062e83          	lw	x29,0(x12)
     b18:	00460613          	addi	x12,x12,4

00000b1c <I_sltu_cg_cp_rs2_b29>:
I_sltu_cg_cp_rs2_b29:
  sltu x23, x17, x29 # perform operation
     b1c:	01d8bbb3          	sltu	x23,x17,x29
  # Check if x23 contains the expected result. x2 is the signature ptr, x8 is the link ptr, x7 is a temp reg.
  RVTEST_SIGUPD(x2, x8, x7, x23, I_sltu_cg_cp_rs2_b29, I_sltu_cg_cp_rs2_b29_str)
     b20:	00012383          	lw	x7,0(x2)
     b24:	01738863          	beq	x7,x23,b34 <I_sltu_cg_cp_rs2_b29+0x18>
     b28:	1ed0346f          	jal	x8,4514 <failedtest_x8_x7>
     b2c:	00000b1c          	.word	0x00000b1c
     b30:	000098a3          	.word	0x000098a3
     b34:	00410113          	addi	x2,x2,4

# Testcase cp_rs2 (Test source rs2 = x30)
  RVTEST_TESTDATA_LOAD_INT(x12, x13) # load rs1: x13 = 0xd98212fc
     b38:	00062683          	lw	x13,0(x12)
     b3c:	00460613          	addi	x12,x12,4
  RVTEST_TESTDATA_LOAD_INT(x12, x30) # load rs2: x30 = 0xad440daa
     b40:	00062f03          	lw	x30,0(x12)
     b44:	00460613          	addi	x12,x12,4

00000b48 <I_sltu_cg_cp_rs2_b30>:
I_sltu_cg_cp_rs2_b30:
  sltu x6, x13, x30 # perform operation
     b48:	01e6b333          	sltu	x6,x13,x30
  # Check if x6 contains the expected result. x2 is the signature ptr, x8 is the link ptr, x7 is a temp reg.
  RVTEST_SIGUPD(x2, x8, x7, x6, I_sltu_cg_cp_rs2_b30, I_sltu_cg_cp_rs2_b30_str)
     b4c:	00012383          	lw	x7,0(x2)
     b50:	00638863          	beq	x7,x6,b60 <I_sltu_cg_cp_rs2_b30+0x18>
     b54:	1c10346f          	jal	x8,4514 <failedtest_x8_x7>
     b58:	00000b48          	.word	0x00000b48
     b5c:	000098d3          	.word	0x000098d3
     b60:	00410113          	addi	x2,x2,4

# Testcase cp_rs2 (Test source rs2 = x31)
  RVTEST_TESTDATA_LOAD_INT(x12, x27) # load rs1: x27 = 0xd2de87d0
     b64:	00062d83          	lw	x27,0(x12)
     b68:	00460613          	addi	x12,x12,4
  RVTEST_TESTDATA_LOAD_INT(x12, x31) # load rs2: x31 = 0x8e8ae63f
     b6c:	00062f83          	lw	x31,0(x12)
     b70:	00460613          	addi	x12,x12,4

00000b74 <I_sltu_cg_cp_rs2_b31>:
I_sltu_cg_cp_rs2_b31:
  sltu x5, x27, x31 # perform operation
     b74:	01fdb2b3          	sltu	x5,x27,x31
  # Check if x5 contains the expected result. x2 is the signature ptr, x8 is the link ptr, x7 is a temp reg.
  RVTEST_SIGUPD(x2, x8, x7, x5, I_sltu_cg_cp_rs2_b31, I_sltu_cg_cp_rs2_b31_str)
     b78:	00012383          	lw	x7,0(x2)
     b7c:	00538863          	beq	x7,x5,b8c <I_sltu_cg_cp_rs2_b31+0x18>
     b80:	1950346f          	jal	x8,4514 <failedtest_x8_x7>
     b84:	00000b74          	.word	0x00000b74
     b88:	00009903          	.word	0x00009903
     b8c:	00410113          	addi	x2,x2,4
/////////////////////////////////
// cp_rd
/////////////////////////////////

# Testcase cp_rd (Test destination rd = x0)
  RVTEST_TESTDATA_LOAD_INT(x12, x3) # load rs1: x3 = 0xee611d70
     b90:	00062183          	lw	x3,0(x12)
     b94:	00460613          	addi	x12,x12,4
  RVTEST_TESTDATA_LOAD_INT(x12, x28) # load rs2: x28 = 0xb4ad5641
     b98:	00062e03          	lw	x28,0(x12)
     b9c:	00460613          	addi	x12,x12,4

00000ba0 <I_sltu_cg_cp_rd_b0>:
I_sltu_cg_cp_rd_b0:
  sltu x0, x3, x28 # perform operation
     ba0:	01c1b033          	sltu	x0,x3,x28
  # Check if x0 contains the expected result. x2 is the signature ptr, x8 is the link ptr, x7 is a temp reg.
  RVTEST_SIGUPD(x2, x8, x7, x0, I_sltu_cg_cp_rd_b0, I_sltu_cg_cp_rd_b0_str)
     ba4:	00012383          	lw	x7,0(x2)
     ba8:	00038863          	beq	x7,x0,bb8 <I_sltu_cg_cp_rd_b0+0x18>
     bac:	1690346f          	jal	x8,4514 <failedtest_x8_x7>
     bb0:	00000ba0          	.word	0x00000ba0
     bb4:	00009933          	.word	0x00009933
     bb8:	00410113          	addi	x2,x2,4

# Testcase cp_rd (Test destination rd = x1)
  RVTEST_TESTDATA_LOAD_INT(x12, x23) # load rs1: x23 = 0x19875f54
     bbc:	00062b83          	lw	x23,0(x12)
     bc0:	00460613          	addi	x12,x12,4
  RVTEST_TESTDATA_LOAD_INT(x12, x21) # load rs2: x21 = 0xb515a725
     bc4:	00062a83          	lw	x21,0(x12)
     bc8:	00460613          	addi	x12,x12,4

00000bcc <I_sltu_cg_cp_rd_b1>:
I_sltu_cg_cp_rd_b1:
  sltu x1, x23, x21 # perform operation
     bcc:	015bb0b3          	sltu	x1,x23,x21
  # Check if x1 contains the expected result. x2 is the signature ptr, x8 is the link ptr, x7 is a temp reg.
  RVTEST_SIGUPD(x2, x8, x7, x1, I_sltu_cg_cp_rd_b1, I_sltu_cg_cp_rd_b1_str)
     bd0:	00012383          	lw	x7,0(x2)
     bd4:	00138863          	beq	x7,x1,be4 <I_sltu_cg_cp_rd_b1+0x18>
     bd8:	13d0346f          	jal	x8,4514 <failedtest_x8_x7>
     bdc:	00000bcc          	.word	0x00000bcc
     be0:	00009961          	.word	0x00009961
     be4:	00410113          	addi	x2,x2,4

  mv x23, x2 # switch signature pointer register to avoid conflict with test
     be8:	00010b93          	addi	x23,x2,0
# Testcase cp_rd (Test destination rd = x2)
  RVTEST_TESTDATA_LOAD_INT(x12, x16) # load rs1: x16 = 0x13aa469e
     bec:	00062803          	lw	x16,0(x12)
     bf0:	00460613          	addi	x12,x12,4
  RVTEST_TESTDATA_LOAD_INT(x12, x10) # load rs2: x10 = 0x97ae0b34
     bf4:	00062503          	lw	x10,0(x12)
     bf8:	00460613          	addi	x12,x12,4

00000bfc <I_sltu_cg_cp_rd_b2>:
I_sltu_cg_cp_rd_b2:
  sltu x2, x16, x10 # perform operation
     bfc:	00a83133          	sltu	x2,x16,x10
  # Check if x2 contains the expected result. x23 is the signature ptr, x8 is the link ptr, x7 is a temp reg.
  RVTEST_SIGUPD(x23, x8, x7, x2, I_sltu_cg_cp_rd_b2, I_sltu_cg_cp_rd_b2_str)
     c00:	000ba383          	lw	x7,0(x23)
     c04:	00238863          	beq	x7,x2,c14 <I_sltu_cg_cp_rd_b2+0x18>
     c08:	10d0346f          	jal	x8,4514 <failedtest_x8_x7>
     c0c:	00000bfc          	.word	0x00000bfc
     c10:	0000998f          	.word	0x0000998f
     c14:	004b8b93          	addi	x23,x23,4

# Testcase cp_rd (Test destination rd = x3)
  RVTEST_TESTDATA_LOAD_INT(x12, x25) # load rs1: x25 = 0x44e84390
     c18:	00062c83          	lw	x25,0(x12)
     c1c:	00460613          	addi	x12,x12,4
  RVTEST_TESTDATA_LOAD_INT(x12, x22) # load rs2: x22 = 0xc27df722
     c20:	00062b03          	lw	x22,0(x12)
     c24:	00460613          	addi	x12,x12,4

00000c28 <I_sltu_cg_cp_rd_b3>:
I_sltu_cg_cp_rd_b3:
  sltu x3, x25, x22 # perform operation
     c28:	016cb1b3          	sltu	x3,x25,x22
  # Check if x3 contains the expected result. x23 is the signature ptr, x8 is the link ptr, x7 is a temp reg.
  RVTEST_SIGUPD(x23, x8, x7, x3, I_sltu_cg_cp_rd_b3, I_sltu_cg_cp_rd_b3_str)
     c2c:	000ba383          	lw	x7,0(x23)
     c30:	00338863          	beq	x7,x3,c40 <I_sltu_cg_cp_rd_b3+0x18>
     c34:	0e10346f          	jal	x8,4514 <failedtest_x8_x7>
     c38:	00000c28          	.word	0x00000c28
     c3c:	000099bd          	.word	0x000099bd
     c40:	004b8b93          	addi	x23,x23,4

# Testcase cp_rd (Test destination rd = x4)
  RVTEST_TESTDATA_LOAD_INT(x12, x30) # load rs1: x30 = 0x93a4be3b
     c44:	00062f03          	lw	x30,0(x12)
     c48:	00460613          	addi	x12,x12,4
  RVTEST_TESTDATA_LOAD_INT(x12, x14) # load rs2: x14 = 0xaa9c9640
     c4c:	00062703          	lw	x14,0(x12)
     c50:	00460613          	addi	x12,x12,4

00000c54 <I_sltu_cg_cp_rd_b4>:
I_sltu_cg_cp_rd_b4:
  sltu x4, x30, x14 # perform operation
     c54:	00ef3233          	sltu	x4,x30,x14
  # Check if x4 contains the expected result. x23 is the signature ptr, x8 is the link ptr, x7 is a temp reg.
  RVTEST_SIGUPD(x23, x8, x7, x4, I_sltu_cg_cp_rd_b4, I_sltu_cg_cp_rd_b4_str)
     c58:	000ba383          	lw	x7,0(x23)
     c5c:	00438863          	beq	x7,x4,c6c <I_sltu_cg_cp_rd_b4+0x18>
     c60:	0b50346f          	jal	x8,4514 <failedtest_x8_x7>
     c64:	00000c54          	.word	0x00000c54
     c68:	000099eb          	.word	0x000099eb
     c6c:	004b8b93          	addi	x23,x23,4

# Testcase cp_rd (Test destination rd = x5)
  RVTEST_TESTDATA_LOAD_INT(x12, x17) # load rs1: x17 = 0x9020ac93
     c70:	00062883          	lw	x17,0(x12)
     c74:	00460613          	addi	x12,x12,4
  RVTEST_TESTDATA_LOAD_INT(x12, x2) # load rs2: x2 = 0xd05827c2
     c78:	00062103          	lw	x2,0(x12)
     c7c:	00460613          	addi	x12,x12,4

00000c80 <I_sltu_cg_cp_rd_b5>:
I_sltu_cg_cp_rd_b5:
  sltu x5, x17, x2 # perform operation
     c80:	0028b2b3          	sltu	x5,x17,x2
  # Check if x5 contains the expected result. x23 is the signature ptr, x8 is the link ptr, x7 is a temp reg.
  RVTEST_SIGUPD(x23, x8, x7, x5, I_sltu_cg_cp_rd_b5, I_sltu_cg_cp_rd_b5_str)
     c84:	000ba383          	lw	x7,0(x23)
     c88:	00538863          	beq	x7,x5,c98 <I_sltu_cg_cp_rd_b5+0x18>
     c8c:	0890346f          	jal	x8,4514 <failedtest_x8_x7>
     c90:	00000c80          	.word	0x00000c80
     c94:	00009a19          	.word	0x00009a19
     c98:	004b8b93          	addi	x23,x23,4

# Testcase cp_rd (Test destination rd = x6)
  RVTEST_TESTDATA_LOAD_INT(x12, x20) # load rs1: x20 = 0x8330bae4
     c9c:	00062a03          	lw	x20,0(x12)
     ca0:	00460613          	addi	x12,x12,4
  RVTEST_TESTDATA_LOAD_INT(x12, x4) # load rs2: x4 = 0x25054d0d
     ca4:	00062203          	lw	x4,0(x12)
     ca8:	00460613          	addi	x12,x12,4

00000cac <I_sltu_cg_cp_rd_b6>:
I_sltu_cg_cp_rd_b6:
  sltu x6, x20, x4 # perform operation
     cac:	004a3333          	sltu	x6,x20,x4
  # Check if x6 contains the expected result. x23 is the signature ptr, x8 is the link ptr, x7 is a temp reg.
  RVTEST_SIGUPD(x23, x8, x7, x6, I_sltu_cg_cp_rd_b6, I_sltu_cg_cp_rd_b6_str)
     cb0:	000ba383          	lw	x7,0(x23)
     cb4:	00638863          	beq	x7,x6,cc4 <I_sltu_cg_cp_rd_b6+0x18>
     cb8:	05d0346f          	jal	x8,4514 <failedtest_x8_x7>
     cbc:	00000cac          	.word	0x00000cac
     cc0:	00009a47          	.word	0x00009a47
     cc4:	004b8b93          	addi	x23,x23,4

  mv x4, x7 # switch temp register to avoid conflict with test
     cc8:	00038213          	addi	x4,x7,0
  mv x5, x8 # switch link pointer register to avoid conflict with test
     ccc:	00040293          	addi	x5,x8,0
# Testcase cp_rd (Test destination rd = x7)
  RVTEST_TESTDATA_LOAD_INT(x12, x0) # load rs1: x0 = 0x6f536bee
     cd0:	00062003          	lw	x0,0(x12)
     cd4:	00460613          	addi	x12,x12,4
  RVTEST_TESTDATA_LOAD_INT(x12, x28) # load rs2: x28 = 0x65a3ab60
     cd8:	00062e03          	lw	x28,0(x12)
     cdc:	00460613          	addi	x12,x12,4

00000ce0 <I_sltu_cg_cp_rd_b7>:
I_sltu_cg_cp_rd_b7:
  sltu x7, x0, x28 # perform operation
     ce0:	01c033b3          	sltu	x7,x0,x28
  # Check if x7 contains the expected result. x23 is the signature ptr, x5 is the link ptr, x4 is a temp reg.
  RVTEST_SIGUPD(x23, x5, x4, x7, I_sltu_cg_cp_rd_b7, I_sltu_cg_cp_rd_b7_str)
     ce4:	000ba203          	lw	x4,0(x23)
     ce8:	00720863          	beq	x4,x7,cf8 <I_sltu_cg_cp_rd_b7+0x18>
     cec:	011032ef          	jal	x5,44fc <failedtest_x5_x4>
     cf0:	00000ce0          	.word	0x00000ce0
     cf4:	00009a75          	.word	0x00009a75
     cf8:	004b8b93          	addi	x23,x23,4

# Testcase cp_rd (Test destination rd = x8)
  RVTEST_TESTDATA_LOAD_INT(x12, x31) # load rs1: x31 = 0x68c9e3fc
     cfc:	00062f83          	lw	x31,0(x12)
     d00:	00460613          	addi	x12,x12,4
  RVTEST_TESTDATA_LOAD_INT(x12, x7) # load rs2: x7 = 0x79596b9c
     d04:	00062383          	lw	x7,0(x12)
     d08:	00460613          	addi	x12,x12,4

00000d0c <I_sltu_cg_cp_rd_b8>:
I_sltu_cg_cp_rd_b8:
  sltu x8, x31, x7 # perform operation
     d0c:	007fb433          	sltu	x8,x31,x7
  # Check if x8 contains the expected result. x23 is the signature ptr, x5 is the link ptr, x4 is a temp reg.
  RVTEST_SIGUPD(x23, x5, x4, x8, I_sltu_cg_cp_rd_b8, I_sltu_cg_cp_rd_b8_str)
     d10:	000ba203          	lw	x4,0(x23)
     d14:	00820863          	beq	x4,x8,d24 <I_sltu_cg_cp_rd_b8+0x18>
     d18:	7e4032ef          	jal	x5,44fc <failedtest_x5_x4>
     d1c:	00000d0c          	.word	0x00000d0c
     d20:	00009aa3          	.word	0x00009aa3
     d24:	004b8b93          	addi	x23,x23,4

# Testcase cp_rd (Test destination rd = x9)
  RVTEST_TESTDATA_LOAD_INT(x12, x30) # load rs1: x30 = 0x3d8a8b27
     d28:	00062f03          	lw	x30,0(x12)
     d2c:	00460613          	addi	x12,x12,4
  RVTEST_TESTDATA_LOAD_INT(x12, x0) # load rs2: x0 = 0xf58265cf
     d30:	00062003          	lw	x0,0(x12)
     d34:	00460613          	addi	x12,x12,4

00000d38 <I_sltu_cg_cp_rd_b9>:
I_sltu_cg_cp_rd_b9:
  sltu x9, x30, x0 # perform operation
     d38:	000f34b3          	sltu	x9,x30,x0
  # Check if x9 contains the expected result. x23 is the signature ptr, x5 is the link ptr, x4 is a temp reg.
  RVTEST_SIGUPD(x23, x5, x4, x9, I_sltu_cg_cp_rd_b9, I_sltu_cg_cp_rd_b9_str)
     d3c:	000ba203          	lw	x4,0(x23)
     d40:	00920863          	beq	x4,x9,d50 <I_sltu_cg_cp_rd_b9+0x18>
     d44:	7b8032ef          	jal	x5,44fc <failedtest_x5_x4>
     d48:	00000d38          	.word	0x00000d38
     d4c:	00009ad1          	.word	0x00009ad1
     d50:	004b8b93          	addi	x23,x23,4

# Testcase cp_rd (Test destination rd = x10)
  RVTEST_TESTDATA_LOAD_INT(x12, x29) # load rs1: x29 = 0x1d72e89f
     d54:	00062e83          	lw	x29,0(x12)
     d58:	00460613          	addi	x12,x12,4
  RVTEST_TESTDATA_LOAD_INT(x12, x24) # load rs2: x24 = 0xdeb1e429
     d5c:	00062c03          	lw	x24,0(x12)
     d60:	00460613          	addi	x12,x12,4

00000d64 <I_sltu_cg_cp_rd_b10>:
I_sltu_cg_cp_rd_b10:
  sltu x10, x29, x24 # perform operation
     d64:	018eb533          	sltu	x10,x29,x24
  # Check if x10 contains the expected result. x23 is the signature ptr, x5 is the link ptr, x4 is a temp reg.
  RVTEST_SIGUPD(x23, x5, x4, x10, I_sltu_cg_cp_rd_b10, I_sltu_cg_cp_rd_b10_str)
     d68:	000ba203          	lw	x4,0(x23)
     d6c:	00a20863          	beq	x4,x10,d7c <I_sltu_cg_cp_rd_b10+0x18>
     d70:	78c032ef          	jal	x5,44fc <failedtest_x5_x4>
     d74:	00000d64          	.word	0x00000d64
     d78:	00009aff          	.word	0x00009aff
     d7c:	004b8b93          	addi	x23,x23,4

# Testcase cp_rd (Test destination rd = x11)
  RVTEST_TESTDATA_LOAD_INT(x12, x31) # load rs1: x31 = 0x5d668a24
     d80:	00062f83          	lw	x31,0(x12)
     d84:	00460613          	addi	x12,x12,4
  RVTEST_TESTDATA_LOAD_INT(x12, x16) # load rs2: x16 = 0x1a026009
     d88:	00062803          	lw	x16,0(x12)
     d8c:	00460613          	addi	x12,x12,4

00000d90 <I_sltu_cg_cp_rd_b11>:
I_sltu_cg_cp_rd_b11:
  sltu x11, x31, x16 # perform operation
     d90:	010fb5b3          	sltu	x11,x31,x16
  # Check if x11 contains the expected result. x23 is the signature ptr, x5 is the link ptr, x4 is a temp reg.
  RVTEST_SIGUPD(x23, x5, x4, x11, I_sltu_cg_cp_rd_b11, I_sltu_cg_cp_rd_b11_str)
     d94:	000ba203          	lw	x4,0(x23)
     d98:	00b20863          	beq	x4,x11,da8 <I_sltu_cg_cp_rd_b11+0x18>
     d9c:	760032ef          	jal	x5,44fc <failedtest_x5_x4>
     da0:	00000d90          	.word	0x00000d90
     da4:	00009b2e          	.word	0x00009b2e
     da8:	004b8b93          	addi	x23,x23,4

  mv x26, x12 # switch data pointer register to avoid conflict with test
     dac:	00060d13          	addi	x26,x12,0
# Testcase cp_rd (Test destination rd = x12)
  RVTEST_TESTDATA_LOAD_INT(x26, x7) # load rs1: x7 = 0xa92650b2
     db0:	000d2383          	lw	x7,0(x26)
     db4:	004d0d13          	addi	x26,x26,4
  RVTEST_TESTDATA_LOAD_INT(x26, x9) # load rs2: x9 = 0x7f6a0142
     db8:	000d2483          	lw	x9,0(x26)
     dbc:	004d0d13          	addi	x26,x26,4

00000dc0 <I_sltu_cg_cp_rd_b12>:
I_sltu_cg_cp_rd_b12:
  sltu x12, x7, x9 # perform operation
     dc0:	0093b633          	sltu	x12,x7,x9
  # Check if x12 contains the expected result. x23 is the signature ptr, x5 is the link ptr, x4 is a temp reg.
  RVTEST_SIGUPD(x23, x5, x4, x12, I_sltu_cg_cp_rd_b12, I_sltu_cg_cp_rd_b12_str)
     dc4:	000ba203          	lw	x4,0(x23)
     dc8:	00c20863          	beq	x4,x12,dd8 <I_sltu_cg_cp_rd_b12+0x18>
     dcc:	730032ef          	jal	x5,44fc <failedtest_x5_x4>
     dd0:	00000dc0          	.word	0x00000dc0
     dd4:	00009b5d          	.word	0x00009b5d
     dd8:	004b8b93          	addi	x23,x23,4

# Testcase cp_rd (Test destination rd = x13)
  RVTEST_TESTDATA_LOAD_INT(x26, x16) # load rs1: x16 = 0xe40bfdf7
     ddc:	000d2803          	lw	x16,0(x26)
     de0:	004d0d13          	addi	x26,x26,4
  RVTEST_TESTDATA_LOAD_INT(x26, x20) # load rs2: x20 = 0x537e0b62
     de4:	000d2a03          	lw	x20,0(x26)
     de8:	004d0d13          	addi	x26,x26,4

00000dec <I_sltu_cg_cp_rd_b13>:
I_sltu_cg_cp_rd_b13:
  sltu x13, x16, x20 # perform operation
     dec:	014836b3          	sltu	x13,x16,x20
  # Check if x13 contains the expected result. x23 is the signature ptr, x5 is the link ptr, x4 is a temp reg.
  RVTEST_SIGUPD(x23, x5, x4, x13, I_sltu_cg_cp_rd_b13, I_sltu_cg_cp_rd_b13_str)
     df0:	000ba203          	lw	x4,0(x23)
     df4:	00d20863          	beq	x4,x13,e04 <I_sltu_cg_cp_rd_b13+0x18>
     df8:	704032ef          	jal	x5,44fc <failedtest_x5_x4>
     dfc:	00000dec          	.word	0x00000dec
     e00:	00009b8c          	.word	0x00009b8c
     e04:	004b8b93          	addi	x23,x23,4

# Testcase cp_rd (Test destination rd = x14)
  RVTEST_TESTDATA_LOAD_INT(x26, x21) # load rs1: x21 = 0xd31beaf8
     e08:	000d2a83          	lw	x21,0(x26)
     e0c:	004d0d13          	addi	x26,x26,4
  RVTEST_TESTDATA_LOAD_INT(x26, x9) # load rs2: x9 = 0x49b97ecf
     e10:	000d2483          	lw	x9,0(x26)
     e14:	004d0d13          	addi	x26,x26,4

00000e18 <I_sltu_cg_cp_rd_b14>:
I_sltu_cg_cp_rd_b14:
  sltu x14, x21, x9 # perform operation
     e18:	009ab733          	sltu	x14,x21,x9
  # Check if x14 contains the expected result. x23 is the signature ptr, x5 is the link ptr, x4 is a temp reg.
  RVTEST_SIGUPD(x23, x5, x4, x14, I_sltu_cg_cp_rd_b14, I_sltu_cg_cp_rd_b14_str)
     e1c:	000ba203          	lw	x4,0(x23)
     e20:	00e20863          	beq	x4,x14,e30 <I_sltu_cg_cp_rd_b14+0x18>
     e24:	6d8032ef          	jal	x5,44fc <failedtest_x5_x4>
     e28:	00000e18          	.word	0x00000e18
     e2c:	00009bbb          	.word	0x00009bbb
     e30:	004b8b93          	addi	x23,x23,4

# Testcase cp_rd (Test destination rd = x15)
  RVTEST_TESTDATA_LOAD_INT(x26, x8) # load rs1: x8 = 0xf4846ab5
     e34:	000d2403          	lw	x8,0(x26)
     e38:	004d0d13          	addi	x26,x26,4
  RVTEST_TESTDATA_LOAD_INT(x26, x21) # load rs2: x21 = 0xa7913e2a
     e3c:	000d2a83          	lw	x21,0(x26)
     e40:	004d0d13          	addi	x26,x26,4

00000e44 <I_sltu_cg_cp_rd_b15>:
I_sltu_cg_cp_rd_b15:
  sltu x15, x8, x21 # perform operation
     e44:	015437b3          	sltu	x15,x8,x21
  # Check if x15 contains the expected result. x23 is the signature ptr, x5 is the link ptr, x4 is a temp reg.
  RVTEST_SIGUPD(x23, x5, x4, x15, I_sltu_cg_cp_rd_b15, I_sltu_cg_cp_rd_b15_str)
     e48:	000ba203          	lw	x4,0(x23)
     e4c:	00f20863          	beq	x4,x15,e5c <I_sltu_cg_cp_rd_b15+0x18>
     e50:	6ac032ef          	jal	x5,44fc <failedtest_x5_x4>
     e54:	00000e44          	.word	0x00000e44
     e58:	00009bea          	.word	0x00009bea
     e5c:	004b8b93          	addi	x23,x23,4

# Testcase cp_rd (Test destination rd = x16)
  RVTEST_TESTDATA_LOAD_INT(x26, x28) # load rs1: x28 = 0x7fbba524
     e60:	000d2e03          	lw	x28,0(x26)
     e64:	004d0d13          	addi	x26,x26,4
  RVTEST_TESTDATA_LOAD_INT(x26, x22) # load rs2: x22 = 0x67c620b3
     e68:	000d2b03          	lw	x22,0(x26)
     e6c:	004d0d13          	addi	x26,x26,4

00000e70 <I_sltu_cg_cp_rd_b16>:
I_sltu_cg_cp_rd_b16:
  sltu x16, x28, x22 # perform operation
     e70:	016e3833          	sltu	x16,x28,x22
  # Check if x16 contains the expected result. x23 is the signature ptr, x5 is the link ptr, x4 is a temp reg.
  RVTEST_SIGUPD(x23, x5, x4, x16, I_sltu_cg_cp_rd_b16, I_sltu_cg_cp_rd_b16_str)
     e74:	000ba203          	lw	x4,0(x23)
     e78:	01020863          	beq	x4,x16,e88 <I_sltu_cg_cp_rd_b16+0x18>
     e7c:	680032ef          	jal	x5,44fc <failedtest_x5_x4>
     e80:	00000e70          	.word	0x00000e70
     e84:	00009c19          	.word	0x00009c19
     e88:	004b8b93          	addi	x23,x23,4

# Testcase cp_rd (Test destination rd = x17)
  RVTEST_TESTDATA_LOAD_INT(x26, x10) # load rs1: x10 = 0xafe806d6
     e8c:	000d2503          	lw	x10,0(x26)
     e90:	004d0d13          	addi	x26,x26,4
  RVTEST_TESTDATA_LOAD_INT(x26, x7) # load rs2: x7 = 0xdee0d371
     e94:	000d2383          	lw	x7,0(x26)
     e98:	004d0d13          	addi	x26,x26,4

00000e9c <I_sltu_cg_cp_rd_b17>:
I_sltu_cg_cp_rd_b17:
  sltu x17, x10, x7 # perform operation
     e9c:	007538b3          	sltu	x17,x10,x7
  # Check if x17 contains the expected result. x23 is the signature ptr, x5 is the link ptr, x4 is a temp reg.
  RVTEST_SIGUPD(x23, x5, x4, x17, I_sltu_cg_cp_rd_b17, I_sltu_cg_cp_rd_b17_str)
     ea0:	000ba203          	lw	x4,0(x23)
     ea4:	01120863          	beq	x4,x17,eb4 <I_sltu_cg_cp_rd_b17+0x18>
     ea8:	654032ef          	jal	x5,44fc <failedtest_x5_x4>
     eac:	00000e9c          	.word	0x00000e9c
     eb0:	00009c48          	.word	0x00009c48
     eb4:	004b8b93          	addi	x23,x23,4

# Testcase cp_rd (Test destination rd = x18)
  RVTEST_TESTDATA_LOAD_INT(x26, x22) # load rs1: x22 = 0xc877e58c
     eb8:	000d2b03          	lw	x22,0(x26)
     ebc:	004d0d13          	addi	x26,x26,4
  RVTEST_TESTDATA_LOAD_INT(x26, x28) # load rs2: x28 = 0x5105ff2d
     ec0:	000d2e03          	lw	x28,0(x26)
     ec4:	004d0d13          	addi	x26,x26,4

00000ec8 <I_sltu_cg_cp_rd_b18>:
I_sltu_cg_cp_rd_b18:
  sltu x18, x22, x28 # perform operation
     ec8:	01cb3933          	sltu	x18,x22,x28
  # Check if x18 contains the expected result. x23 is the signature ptr, x5 is the link ptr, x4 is a temp reg.
  RVTEST_SIGUPD(x23, x5, x4, x18, I_sltu_cg_cp_rd_b18, I_sltu_cg_cp_rd_b18_str)
     ecc:	000ba203          	lw	x4,0(x23)
     ed0:	01220863          	beq	x4,x18,ee0 <I_sltu_cg_cp_rd_b18+0x18>
     ed4:	628032ef          	jal	x5,44fc <failedtest_x5_x4>
     ed8:	00000ec8          	.word	0x00000ec8
     edc:	00009c77          	.word	0x00009c77
     ee0:	004b8b93          	addi	x23,x23,4

# Testcase cp_rd (Test destination rd = x19)
  RVTEST_TESTDATA_LOAD_INT(x26, x2) # load rs1: x2 = 0x906fe7b3
     ee4:	000d2103          	lw	x2,0(x26)
     ee8:	004d0d13          	addi	x26,x26,4
  RVTEST_TESTDATA_LOAD_INT(x26, x18) # load rs2: x18 = 0x59dd9fd7
     eec:	000d2903          	lw	x18,0(x26)
     ef0:	004d0d13          	addi	x26,x26,4

00000ef4 <I_sltu_cg_cp_rd_b19>:
I_sltu_cg_cp_rd_b19:
  sltu x19, x2, x18 # perform operation
     ef4:	012139b3          	sltu	x19,x2,x18
  # Check if x19 contains the expected result. x23 is the signature ptr, x5 is the link ptr, x4 is a temp reg.
  RVTEST_SIGUPD(x23, x5, x4, x19, I_sltu_cg_cp_rd_b19, I_sltu_cg_cp_rd_b19_str)
     ef8:	000ba203          	lw	x4,0(x23)
     efc:	01320863          	beq	x4,x19,f0c <I_sltu_cg_cp_rd_b19+0x18>
     f00:	5fc032ef          	jal	x5,44fc <failedtest_x5_x4>
     f04:	00000ef4          	.word	0x00000ef4
     f08:	00009ca6          	.word	0x00009ca6
     f0c:	004b8b93          	addi	x23,x23,4

# Testcase cp_rd (Test destination rd = x20)
  RVTEST_TESTDATA_LOAD_INT(x26, x2) # load rs1: x2 = 0xa1aa656f
     f10:	000d2103          	lw	x2,0(x26)
     f14:	004d0d13          	addi	x26,x26,4
  RVTEST_TESTDATA_LOAD_INT(x26, x7) # load rs2: x7 = 0x824363a3
     f18:	000d2383          	lw	x7,0(x26)
     f1c:	004d0d13          	addi	x26,x26,4

00000f20 <I_sltu_cg_cp_rd_b20>:
I_sltu_cg_cp_rd_b20:
  sltu x20, x2, x7 # perform operation
     f20:	00713a33          	sltu	x20,x2,x7
  # Check if x20 contains the expected result. x23 is the signature ptr, x5 is the link ptr, x4 is a temp reg.
  RVTEST_SIGUPD(x23, x5, x4, x20, I_sltu_cg_cp_rd_b20, I_sltu_cg_cp_rd_b20_str)
     f24:	000ba203          	lw	x4,0(x23)
     f28:	01420863          	beq	x4,x20,f38 <I_sltu_cg_cp_rd_b20+0x18>
     f2c:	5d0032ef          	jal	x5,44fc <failedtest_x5_x4>
     f30:	00000f20          	.word	0x00000f20
     f34:	00009cd5          	.word	0x00009cd5
     f38:	004b8b93          	addi	x23,x23,4

# Testcase cp_rd (Test destination rd = x21)
  RVTEST_TESTDATA_LOAD_INT(x26, x14) # load rs1: x14 = 0x97776987
     f3c:	000d2703          	lw	x14,0(x26)
     f40:	004d0d13          	addi	x26,x26,4
  RVTEST_TESTDATA_LOAD_INT(x26, x3) # load rs2: x3 = 0x38c0a376
     f44:	000d2183          	lw	x3,0(x26)
     f48:	004d0d13          	addi	x26,x26,4

00000f4c <I_sltu_cg_cp_rd_b21>:
I_sltu_cg_cp_rd_b21:
  sltu x21, x14, x3 # perform operation
     f4c:	00373ab3          	sltu	x21,x14,x3
  # Check if x21 contains the expected result. x23 is the signature ptr, x5 is the link ptr, x4 is a temp reg.
  RVTEST_SIGUPD(x23, x5, x4, x21, I_sltu_cg_cp_rd_b21, I_sltu_cg_cp_rd_b21_str)
     f50:	000ba203          	lw	x4,0(x23)
     f54:	01520863          	beq	x4,x21,f64 <I_sltu_cg_cp_rd_b21+0x18>
     f58:	5a4032ef          	jal	x5,44fc <failedtest_x5_x4>
     f5c:	00000f4c          	.word	0x00000f4c
     f60:	00009d04          	.word	0x00009d04
     f64:	004b8b93          	addi	x23,x23,4

# Testcase cp_rd (Test destination rd = x22)
  RVTEST_TESTDATA_LOAD_INT(x26, x24) # load rs1: x24 = 0xe914b3e9
     f68:	000d2c03          	lw	x24,0(x26)
     f6c:	004d0d13          	addi	x26,x26,4
  RVTEST_TESTDATA_LOAD_INT(x26, x1) # load rs2: x1 = 0xb2b97887
     f70:	000d2083          	lw	x1,0(x26)
     f74:	004d0d13          	addi	x26,x26,4

00000f78 <I_sltu_cg_cp_rd_b22>:
I_sltu_cg_cp_rd_b22:
  sltu x22, x24, x1 # perform operation
     f78:	001c3b33          	sltu	x22,x24,x1
  # Check if x22 contains the expected result. x23 is the signature ptr, x5 is the link ptr, x4 is a temp reg.
  RVTEST_SIGUPD(x23, x5, x4, x22, I_sltu_cg_cp_rd_b22, I_sltu_cg_cp_rd_b22_str)
     f7c:	000ba203          	lw	x4,0(x23)
     f80:	01620863          	beq	x4,x22,f90 <I_sltu_cg_cp_rd_b22+0x18>
     f84:	578032ef          	jal	x5,44fc <failedtest_x5_x4>
     f88:	00000f78          	.word	0x00000f78
     f8c:	00009d33          	.word	0x00009d33
     f90:	004b8b93          	addi	x23,x23,4

  mv x25, x23 # switch signature pointer register to avoid conflict with test
     f94:	000b8c93          	addi	x25,x23,0
# Testcase cp_rd (Test destination rd = x23)
  RVTEST_TESTDATA_LOAD_INT(x26, x17) # load rs1: x17 = 0xd37ff329
     f98:	000d2883          	lw	x17,0(x26)
     f9c:	004d0d13          	addi	x26,x26,4
  RVTEST_TESTDATA_LOAD_INT(x26, x14) # load rs2: x14 = 0xf6c4177d
     fa0:	000d2703          	lw	x14,0(x26)
     fa4:	004d0d13          	addi	x26,x26,4

00000fa8 <I_sltu_cg_cp_rd_b23>:
I_sltu_cg_cp_rd_b23:
  sltu x23, x17, x14 # perform operation
     fa8:	00e8bbb3          	sltu	x23,x17,x14
  # Check if x23 contains the expected result. x25 is the signature ptr, x5 is the link ptr, x4 is a temp reg.
  RVTEST_SIGUPD(x25, x5, x4, x23, I_sltu_cg_cp_rd_b23, I_sltu_cg_cp_rd_b23_str)
     fac:	000ca203          	lw	x4,0(x25)
     fb0:	01720863          	beq	x4,x23,fc0 <I_sltu_cg_cp_rd_b23+0x18>
     fb4:	548032ef          	jal	x5,44fc <failedtest_x5_x4>
     fb8:	00000fa8          	.word	0x00000fa8
     fbc:	00009d62          	.word	0x00009d62
     fc0:	004c8c93          	addi	x25,x25,4

# Testcase cp_rd (Test destination rd = x24)
  RVTEST_TESTDATA_LOAD_INT(x26, x19) # load rs1: x19 = 0x2db84c2d
     fc4:	000d2983          	lw	x19,0(x26)
     fc8:	004d0d13          	addi	x26,x26,4
  RVTEST_TESTDATA_LOAD_INT(x26, x13) # load rs2: x13 = 0x84d97ac8
     fcc:	000d2683          	lw	x13,0(x26)
     fd0:	004d0d13          	addi	x26,x26,4

00000fd4 <I_sltu_cg_cp_rd_b24>:
I_sltu_cg_cp_rd_b24:
  sltu x24, x19, x13 # perform operation
     fd4:	00d9bc33          	sltu	x24,x19,x13
  # Check if x24 contains the expected result. x25 is the signature ptr, x5 is the link ptr, x4 is a temp reg.
  RVTEST_SIGUPD(x25, x5, x4, x24, I_sltu_cg_cp_rd_b24, I_sltu_cg_cp_rd_b24_str)
     fd8:	000ca203          	lw	x4,0(x25)
     fdc:	01820863          	beq	x4,x24,fec <I_sltu_cg_cp_rd_b24+0x18>
     fe0:	51c032ef          	jal	x5,44fc <failedtest_x5_x4>
     fe4:	00000fd4          	.word	0x00000fd4
     fe8:	00009d91          	.word	0x00009d91
     fec:	004c8c93          	addi	x25,x25,4

  mv x6, x25 # switch signature pointer register to avoid conflict with test
     ff0:	000c8313          	addi	x6,x25,0
# Testcase cp_rd (Test destination rd = x25)
  RVTEST_TESTDATA_LOAD_INT(x26, x11) # load rs1: x11 = 0xc418ec7e
     ff4:	000d2583          	lw	x11,0(x26)
     ff8:	004d0d13          	addi	x26,x26,4
  RVTEST_TESTDATA_LOAD_INT(x26, x29) # load rs2: x29 = 0x07bf9f8f
     ffc:	000d2e83          	lw	x29,0(x26)
    1000:	004d0d13          	addi	x26,x26,4

00001004 <I_sltu_cg_cp_rd_b25>:
I_sltu_cg_cp_rd_b25:
  sltu x25, x11, x29 # perform operation
    1004:	01d5bcb3          	sltu	x25,x11,x29
  # Check if x25 contains the expected result. x6 is the signature ptr, x5 is the link ptr, x4 is a temp reg.
  RVTEST_SIGUPD(x6, x5, x4, x25, I_sltu_cg_cp_rd_b25, I_sltu_cg_cp_rd_b25_str)
    1008:	00032203          	lw	x4,0(x6)
    100c:	01920863          	beq	x4,x25,101c <I_sltu_cg_cp_rd_b25+0x18>
    1010:	4ec032ef          	jal	x5,44fc <failedtest_x5_x4>
    1014:	00001004          	.word	0x00001004
    1018:	00009dc0          	.word	0x00009dc0
    101c:	00430313          	addi	x6,x6,4

  mv x11, x26 # switch data pointer register to avoid conflict with test
    1020:	000d0593          	addi	x11,x26,0
# Testcase cp_rd (Test destination rd = x26)
  RVTEST_TESTDATA_LOAD_INT(x11, x0) # load rs1: x0 = 0x098daddb
    1024:	0005a003          	lw	x0,0(x11)
    1028:	00458593          	addi	x11,x11,4
  RVTEST_TESTDATA_LOAD_INT(x11, x16) # load rs2: x16 = 0xcec64416
    102c:	0005a803          	lw	x16,0(x11)
    1030:	00458593          	addi	x11,x11,4

00001034 <I_sltu_cg_cp_rd_b26>:
I_sltu_cg_cp_rd_b26:
  sltu x26, x0, x16 # perform operation
    1034:	01003d33          	sltu	x26,x0,x16
  # Check if x26 contains the expected result. x6 is the signature ptr, x5 is the link ptr, x4 is a temp reg.
  RVTEST_SIGUPD(x6, x5, x4, x26, I_sltu_cg_cp_rd_b26, I_sltu_cg_cp_rd_b26_str)
    1038:	00032203          	lw	x4,0(x6)
    103c:	01a20863          	beq	x4,x26,104c <I_sltu_cg_cp_rd_b26+0x18>
    1040:	4bc032ef          	jal	x5,44fc <failedtest_x5_x4>
    1044:	00001034          	.word	0x00001034
    1048:	00009def          	.word	0x00009def
    104c:	00430313          	addi	x6,x6,4

# Testcase cp_rd (Test destination rd = x27)
  RVTEST_TESTDATA_LOAD_INT(x11, x10) # load rs1: x10 = 0x595e2416
    1050:	0005a503          	lw	x10,0(x11)
    1054:	00458593          	addi	x11,x11,4
  RVTEST_TESTDATA_LOAD_INT(x11, x29) # load rs2: x29 = 0xa59f4474
    1058:	0005ae83          	lw	x29,0(x11)
    105c:	00458593          	addi	x11,x11,4

00001060 <I_sltu_cg_cp_rd_b27>:
I_sltu_cg_cp_rd_b27:
  sltu x27, x10, x29 # perform operation
    1060:	01d53db3          	sltu	x27,x10,x29
  # Check if x27 contains the expected result. x6 is the signature ptr, x5 is the link ptr, x4 is a temp reg.
  RVTEST_SIGUPD(x6, x5, x4, x27, I_sltu_cg_cp_rd_b27, I_sltu_cg_cp_rd_b27_str)
    1064:	00032203          	lw	x4,0(x6)
    1068:	01b20863          	beq	x4,x27,1078 <I_sltu_cg_cp_rd_b27+0x18>
    106c:	490032ef          	jal	x5,44fc <failedtest_x5_x4>
    1070:	00001060          	.word	0x00001060
    1074:	00009e1e          	.word	0x00009e1e
    1078:	00430313          	addi	x6,x6,4

# Testcase cp_rd (Test destination rd = x28)
  RVTEST_TESTDATA_LOAD_INT(x11, x25) # load rs1: x25 = 0xb917966d
    107c:	0005ac83          	lw	x25,0(x11)
    1080:	00458593          	addi	x11,x11,4
  RVTEST_TESTDATA_LOAD_INT(x11, x13) # load rs2: x13 = 0x0e37af08
    1084:	0005a683          	lw	x13,0(x11)
    1088:	00458593          	addi	x11,x11,4

0000108c <I_sltu_cg_cp_rd_b28>:
I_sltu_cg_cp_rd_b28:
  sltu x28, x25, x13 # perform operation
    108c:	00dcbe33          	sltu	x28,x25,x13
  # Check if x28 contains the expected result. x6 is the signature ptr, x5 is the link ptr, x4 is a temp reg.
  RVTEST_SIGUPD(x6, x5, x4, x28, I_sltu_cg_cp_rd_b28, I_sltu_cg_cp_rd_b28_str)
    1090:	00032203          	lw	x4,0(x6)
    1094:	01c20863          	beq	x4,x28,10a4 <I_sltu_cg_cp_rd_b28+0x18>
    1098:	464032ef          	jal	x5,44fc <failedtest_x5_x4>
    109c:	0000108c          	.word	0x0000108c
    10a0:	00009e4d          	.word	0x00009e4d
    10a4:	00430313          	addi	x6,x6,4

# Testcase cp_rd (Test destination rd = x29)
  RVTEST_TESTDATA_LOAD_INT(x11, x9) # load rs1: x9 = 0x3ef7471b
    10a8:	0005a483          	lw	x9,0(x11)
    10ac:	00458593          	addi	x11,x11,4
  RVTEST_TESTDATA_LOAD_INT(x11, x0) # load rs2: x0 = 0xcbb33c0d
    10b0:	0005a003          	lw	x0,0(x11)
    10b4:	00458593          	addi	x11,x11,4

000010b8 <I_sltu_cg_cp_rd_b29>:
I_sltu_cg_cp_rd_b29:
  sltu x29, x9, x0 # perform operation
    10b8:	0004beb3          	sltu	x29,x9,x0
  # Check if x29 contains the expected result. x6 is the signature ptr, x5 is the link ptr, x4 is a temp reg.
  RVTEST_SIGUPD(x6, x5, x4, x29, I_sltu_cg_cp_rd_b29, I_sltu_cg_cp_rd_b29_str)
    10bc:	00032203          	lw	x4,0(x6)
    10c0:	01d20863          	beq	x4,x29,10d0 <I_sltu_cg_cp_rd_b29+0x18>
    10c4:	438032ef          	jal	x5,44fc <failedtest_x5_x4>
    10c8:	000010b8          	.word	0x000010b8
    10cc:	00009e7c          	.word	0x00009e7c
    10d0:	00430313          	addi	x6,x6,4

# Testcase cp_rd (Test destination rd = x30)
  RVTEST_TESTDATA_LOAD_INT(x11, x25) # load rs1: x25 = 0x48fc8b07
    10d4:	0005ac83          	lw	x25,0(x11)
    10d8:	00458593          	addi	x11,x11,4
  RVTEST_TESTDATA_LOAD_INT(x11, x19) # load rs2: x19 = 0x3fbcde93
    10dc:	0005a983          	lw	x19,0(x11)
    10e0:	00458593          	addi	x11,x11,4

000010e4 <I_sltu_cg_cp_rd_b30>:
I_sltu_cg_cp_rd_b30:
  sltu x30, x25, x19 # perform operation
    10e4:	013cbf33          	sltu	x30,x25,x19
  # Check if x30 contains the expected result. x6 is the signature ptr, x5 is the link ptr, x4 is a temp reg.
  RVTEST_SIGUPD(x6, x5, x4, x30, I_sltu_cg_cp_rd_b30, I_sltu_cg_cp_rd_b30_str)
    10e8:	00032203          	lw	x4,0(x6)
    10ec:	01e20863          	beq	x4,x30,10fc <I_sltu_cg_cp_rd_b30+0x18>
    10f0:	40c032ef          	jal	x5,44fc <failedtest_x5_x4>
    10f4:	000010e4          	.word	0x000010e4
    10f8:	00009eab          	.word	0x00009eab
    10fc:	00430313          	addi	x6,x6,4

# Testcase cp_rd (Test destination rd = x31)
  RVTEST_TESTDATA_LOAD_INT(x11, x19) # load rs1: x19 = 0x6f359fbb
    1100:	0005a983          	lw	x19,0(x11)
    1104:	00458593          	addi	x11,x11,4
  RVTEST_TESTDATA_LOAD_INT(x11, x0) # load rs2: x0 = 0x066fb5c5
    1108:	0005a003          	lw	x0,0(x11)
    110c:	00458593          	addi	x11,x11,4

00001110 <I_sltu_cg_cp_rd_b31>:
I_sltu_cg_cp_rd_b31:
  sltu x31, x19, x0 # perform operation
    1110:	0009bfb3          	sltu	x31,x19,x0
  # Check if x31 contains the expected result. x6 is the signature ptr, x5 is the link ptr, x4 is a temp reg.
  RVTEST_SIGUPD(x6, x5, x4, x31, I_sltu_cg_cp_rd_b31, I_sltu_cg_cp_rd_b31_str)
    1114:	00032203          	lw	x4,0(x6)
    1118:	01f20863          	beq	x4,x31,1128 <I_sltu_cg_cp_rd_b31+0x18>
    111c:	3e0032ef          	jal	x5,44fc <failedtest_x5_x4>
    1120:	00001110          	.word	0x00001110
    1124:	00009eda          	.word	0x00009eda
    1128:	00430313          	addi	x6,x6,4
/////////////////////////////////
// cp_rs1_edges
/////////////////////////////////

# Testcase cp_rs1_edges (Test source rs1 value = 0x00000000)
  RVTEST_TESTDATA_LOAD_INT(x11, x10) # load rs1: x10 = 0x00000000
    112c:	0005a503          	lw	x10,0(x11)
    1130:	00458593          	addi	x11,x11,4
  RVTEST_TESTDATA_LOAD_INT(x11, x3) # load rs2: x3 = 0xe156eb36
    1134:	0005a183          	lw	x3,0(x11)
    1138:	00458593          	addi	x11,x11,4

0000113c <I_sltu_cg_cp_rs1_edges_0x0>:
I_sltu_cg_cp_rs1_edges_0x0:
  sltu x28, x10, x3 # perform operation
    113c:	00353e33          	sltu	x28,x10,x3
  # Check if x28 contains the expected result. x6 is the signature ptr, x5 is the link ptr, x4 is a temp reg.
  RVTEST_SIGUPD(x6, x5, x4, x28, I_sltu_cg_cp_rs1_edges_0x0, I_sltu_cg_cp_rs1_edges_0x0_str)
    1140:	00032203          	lw	x4,0(x6)
    1144:	01c20863          	beq	x4,x28,1154 <I_sltu_cg_cp_rs1_edges_0x0+0x18>
    1148:	3b4032ef          	jal	x5,44fc <failedtest_x5_x4>
    114c:	0000113c          	.word	0x0000113c
    1150:	00009f09          	.word	0x00009f09
    1154:	00430313          	addi	x6,x6,4

# Testcase cp_rs1_edges (Test source rs1 value = 0x00000001)
  RVTEST_TESTDATA_LOAD_INT(x11, x27) # load rs1: x27 = 0x00000001
    1158:	0005ad83          	lw	x27,0(x11)
    115c:	00458593          	addi	x11,x11,4
  RVTEST_TESTDATA_LOAD_INT(x11, x22) # load rs2: x22 = 0x11842147
    1160:	0005ab03          	lw	x22,0(x11)
    1164:	00458593          	addi	x11,x11,4

00001168 <I_sltu_cg_cp_rs1_edges_0x1>:
I_sltu_cg_cp_rs1_edges_0x1:
  sltu x29, x27, x22 # perform operation
    1168:	016dbeb3          	sltu	x29,x27,x22
  # Check if x29 contains the expected result. x6 is the signature ptr, x5 is the link ptr, x4 is a temp reg.
  RVTEST_SIGUPD(x6, x5, x4, x29, I_sltu_cg_cp_rs1_edges_0x1, I_sltu_cg_cp_rs1_edges_0x1_str)
    116c:	00032203          	lw	x4,0(x6)
    1170:	01d20863          	beq	x4,x29,1180 <I_sltu_cg_cp_rs1_edges_0x1+0x18>
    1174:	388032ef          	jal	x5,44fc <failedtest_x5_x4>
    1178:	00001168          	.word	0x00001168
    117c:	00009f3f          	.word	0x00009f3f
    1180:	00430313          	addi	x6,x6,4

# Testcase cp_rs1_edges (Test source rs1 value = 0x00000002)
  RVTEST_TESTDATA_LOAD_INT(x11, x31) # load rs1: x31 = 0x00000002
    1184:	0005af83          	lw	x31,0(x11)
    1188:	00458593          	addi	x11,x11,4
  RVTEST_TESTDATA_LOAD_INT(x11, x13) # load rs2: x13 = 0x87fd8256
    118c:	0005a683          	lw	x13,0(x11)
    1190:	00458593          	addi	x11,x11,4

00001194 <I_sltu_cg_cp_rs1_edges_0x2>:
I_sltu_cg_cp_rs1_edges_0x2:
  sltu x29, x31, x13 # perform operation
    1194:	00dfbeb3          	sltu	x29,x31,x13
  # Check if x29 contains the expected result. x6 is the signature ptr, x5 is the link ptr, x4 is a temp reg.
  RVTEST_SIGUPD(x6, x5, x4, x29, I_sltu_cg_cp_rs1_edges_0x2, I_sltu_cg_cp_rs1_edges_0x2_str)
    1198:	00032203          	lw	x4,0(x6)
    119c:	01d20863          	beq	x4,x29,11ac <I_sltu_cg_cp_rs1_edges_0x2+0x18>
    11a0:	35c032ef          	jal	x5,44fc <failedtest_x5_x4>
    11a4:	00001194          	.word	0x00001194
    11a8:	00009f75          	.word	0x00009f75
    11ac:	00430313          	addi	x6,x6,4

# Testcase cp_rs1_edges (Test source rs1 value = 0x80000000)
  RVTEST_TESTDATA_LOAD_INT(x11, x8) # load rs1: x8 = 0x80000000
    11b0:	0005a403          	lw	x8,0(x11)
    11b4:	00458593          	addi	x11,x11,4
  RVTEST_TESTDATA_LOAD_INT(x11, x10) # load rs2: x10 = 0x958bd2a7
    11b8:	0005a503          	lw	x10,0(x11)
    11bc:	00458593          	addi	x11,x11,4

000011c0 <I_sltu_cg_cp_rs1_edges_0x80000000>:
I_sltu_cg_cp_rs1_edges_0x80000000:
  sltu x21, x8, x10 # perform operation
    11c0:	00a43ab3          	sltu	x21,x8,x10
  # Check if x21 contains the expected result. x6 is the signature ptr, x5 is the link ptr, x4 is a temp reg.
  RVTEST_SIGUPD(x6, x5, x4, x21, I_sltu_cg_cp_rs1_edges_0x80000000, I_sltu_cg_cp_rs1_edges_0x80000000_str)
    11c4:	00032203          	lw	x4,0(x6)
    11c8:	01520863          	beq	x4,x21,11d8 <I_sltu_cg_cp_rs1_edges_0x80000000+0x18>
    11cc:	330032ef          	jal	x5,44fc <failedtest_x5_x4>
    11d0:	000011c0          	.word	0x000011c0
    11d4:	00009fab          	.word	0x00009fab
    11d8:	00430313          	addi	x6,x6,4

# Testcase cp_rs1_edges (Test source rs1 value = 0x80000001)
  RVTEST_TESTDATA_LOAD_INT(x11, x25) # load rs1: x25 = 0x80000001
    11dc:	0005ac83          	lw	x25,0(x11)
    11e0:	00458593          	addi	x11,x11,4
  RVTEST_TESTDATA_LOAD_INT(x11, x14) # load rs2: x14 = 0xa70f1a60
    11e4:	0005a703          	lw	x14,0(x11)
    11e8:	00458593          	addi	x11,x11,4

000011ec <I_sltu_cg_cp_rs1_edges_0x80000001>:
I_sltu_cg_cp_rs1_edges_0x80000001:
  sltu x27, x25, x14 # perform operation
    11ec:	00ecbdb3          	sltu	x27,x25,x14
  # Check if x27 contains the expected result. x6 is the signature ptr, x5 is the link ptr, x4 is a temp reg.
  RVTEST_SIGUPD(x6, x5, x4, x27, I_sltu_cg_cp_rs1_edges_0x80000001, I_sltu_cg_cp_rs1_edges_0x80000001_str)
    11f0:	00032203          	lw	x4,0(x6)
    11f4:	01b20863          	beq	x4,x27,1204 <I_sltu_cg_cp_rs1_edges_0x80000001+0x18>
    11f8:	304032ef          	jal	x5,44fc <failedtest_x5_x4>
    11fc:	000011ec          	.word	0x000011ec
    1200:	00009fe9          	.word	0x00009fe9
    1204:	00430313          	addi	x6,x6,4

# Testcase cp_rs1_edges (Test source rs1 value = 0x7fffffff)
  RVTEST_TESTDATA_LOAD_INT(x11, x24) # load rs1: x24 = 0x7fffffff
    1208:	0005ac03          	lw	x24,0(x11)
    120c:	00458593          	addi	x11,x11,4
  RVTEST_TESTDATA_LOAD_INT(x11, x22) # load rs2: x22 = 0xe950985d
    1210:	0005ab03          	lw	x22,0(x11)
    1214:	00458593          	addi	x11,x11,4

00001218 <I_sltu_cg_cp_rs1_edges_0x7fffffff>:
I_sltu_cg_cp_rs1_edges_0x7fffffff:
  sltu x30, x24, x22 # perform operation
    1218:	016c3f33          	sltu	x30,x24,x22
  # Check if x30 contains the expected result. x6 is the signature ptr, x5 is the link ptr, x4 is a temp reg.
  RVTEST_SIGUPD(x6, x5, x4, x30, I_sltu_cg_cp_rs1_edges_0x7fffffff, I_sltu_cg_cp_rs1_edges_0x7fffffff_str)
    121c:	00032203          	lw	x4,0(x6)
    1220:	01e20863          	beq	x4,x30,1230 <I_sltu_cg_cp_rs1_edges_0x7fffffff+0x18>
    1224:	2d8032ef          	jal	x5,44fc <failedtest_x5_x4>
    1228:	00001218          	.word	0x00001218
    122c:	0000a027          	.word	0x0000a027
    1230:	00430313          	addi	x6,x6,4

# Testcase cp_rs1_edges (Test source rs1 value = 0x7ffffffe)
  RVTEST_TESTDATA_LOAD_INT(x11, x25) # load rs1: x25 = 0x7ffffffe
    1234:	0005ac83          	lw	x25,0(x11)
    1238:	00458593          	addi	x11,x11,4
  RVTEST_TESTDATA_LOAD_INT(x11, x21) # load rs2: x21 = 0x4c3892ea
    123c:	0005aa83          	lw	x21,0(x11)
    1240:	00458593          	addi	x11,x11,4

00001244 <I_sltu_cg_cp_rs1_edges_0x7ffffffe>:
I_sltu_cg_cp_rs1_edges_0x7ffffffe:
  sltu x3, x25, x21 # perform operation
    1244:	015cb1b3          	sltu	x3,x25,x21
  # Check if x3 contains the expected result. x6 is the signature ptr, x5 is the link ptr, x4 is a temp reg.
  RVTEST_SIGUPD(x6, x5, x4, x3, I_sltu_cg_cp_rs1_edges_0x7ffffffe, I_sltu_cg_cp_rs1_edges_0x7ffffffe_str)
    1248:	00032203          	lw	x4,0(x6)
    124c:	00320863          	beq	x4,x3,125c <I_sltu_cg_cp_rs1_edges_0x7ffffffe+0x18>
    1250:	2ac032ef          	jal	x5,44fc <failedtest_x5_x4>
    1254:	00001244          	.word	0x00001244
    1258:	0000a065          	.word	0x0000a065
    125c:	00430313          	addi	x6,x6,4

# Testcase cp_rs1_edges (Test source rs1 value = 0xffffffff)
  RVTEST_TESTDATA_LOAD_INT(x11, x19) # load rs1: x19 = 0xffffffff
    1260:	0005a983          	lw	x19,0(x11)
    1264:	00458593          	addi	x11,x11,4
  RVTEST_TESTDATA_LOAD_INT(x11, x17) # load rs2: x17 = 0x0fa3821f
    1268:	0005a883          	lw	x17,0(x11)
    126c:	00458593          	addi	x11,x11,4

00001270 <I_sltu_cg_cp_rs1_edges_0xffffffff>:
I_sltu_cg_cp_rs1_edges_0xffffffff:
  sltu x24, x19, x17 # perform operation
    1270:	0119bc33          	sltu	x24,x19,x17
  # Check if x24 contains the expected result. x6 is the signature ptr, x5 is the link ptr, x4 is a temp reg.
  RVTEST_SIGUPD(x6, x5, x4, x24, I_sltu_cg_cp_rs1_edges_0xffffffff, I_sltu_cg_cp_rs1_edges_0xffffffff_str)
    1274:	00032203          	lw	x4,0(x6)
    1278:	01820863          	beq	x4,x24,1288 <I_sltu_cg_cp_rs1_edges_0xffffffff+0x18>
    127c:	280032ef          	jal	x5,44fc <failedtest_x5_x4>
    1280:	00001270          	.word	0x00001270
    1284:	0000a0a3          	.word	0x0000a0a3
    1288:	00430313          	addi	x6,x6,4

# Testcase cp_rs1_edges (Test source rs1 value = 0xfffffffe)
  RVTEST_TESTDATA_LOAD_INT(x11, x16) # load rs1: x16 = 0xfffffffe
    128c:	0005a803          	lw	x16,0(x11)
    1290:	00458593          	addi	x11,x11,4
  RVTEST_TESTDATA_LOAD_INT(x11, x17) # load rs2: x17 = 0x1d8b5e69
    1294:	0005a883          	lw	x17,0(x11)
    1298:	00458593          	addi	x11,x11,4

0000129c <I_sltu_cg_cp_rs1_edges_0xfffffffe>:
I_sltu_cg_cp_rs1_edges_0xfffffffe:
  sltu x28, x16, x17 # perform operation
    129c:	01183e33          	sltu	x28,x16,x17
  # Check if x28 contains the expected result. x6 is the signature ptr, x5 is the link ptr, x4 is a temp reg.
  RVTEST_SIGUPD(x6, x5, x4, x28, I_sltu_cg_cp_rs1_edges_0xfffffffe, I_sltu_cg_cp_rs1_edges_0xfffffffe_str)
    12a0:	00032203          	lw	x4,0(x6)
    12a4:	01c20863          	beq	x4,x28,12b4 <I_sltu_cg_cp_rs1_edges_0xfffffffe+0x18>
    12a8:	254032ef          	jal	x5,44fc <failedtest_x5_x4>
    12ac:	0000129c          	.word	0x0000129c
    12b0:	0000a0e1          	.word	0x0000a0e1
    12b4:	00430313          	addi	x6,x6,4

# Testcase cp_rs1_edges (Test source rs1 value = 0x5bbc8872)
  RVTEST_TESTDATA_LOAD_INT(x11, x20) # load rs1: x20 = 0x5bbc8872
    12b8:	0005aa03          	lw	x20,0(x11)
    12bc:	00458593          	addi	x11,x11,4
  RVTEST_TESTDATA_LOAD_INT(x11, x13) # load rs2: x13 = 0xdcd33e27
    12c0:	0005a683          	lw	x13,0(x11)
    12c4:	00458593          	addi	x11,x11,4

000012c8 <I_sltu_cg_cp_rs1_edges_0x5bbc8872>:
I_sltu_cg_cp_rs1_edges_0x5bbc8872:
  sltu x1, x20, x13 # perform operation
    12c8:	00da30b3          	sltu	x1,x20,x13
  # Check if x1 contains the expected result. x6 is the signature ptr, x5 is the link ptr, x4 is a temp reg.
  RVTEST_SIGUPD(x6, x5, x4, x1, I_sltu_cg_cp_rs1_edges_0x5bbc8872, I_sltu_cg_cp_rs1_edges_0x5bbc8872_str)
    12cc:	00032203          	lw	x4,0(x6)
    12d0:	00120863          	beq	x4,x1,12e0 <I_sltu_cg_cp_rs1_edges_0x5bbc8872+0x18>
    12d4:	228032ef          	jal	x5,44fc <failedtest_x5_x4>
    12d8:	000012c8          	.word	0x000012c8
    12dc:	0000a11f          	.word	0x0000a11f
    12e0:	00430313          	addi	x6,x6,4

# Testcase cp_rs1_edges (Test source rs1 value = 0xaaaaaaaa)
  RVTEST_TESTDATA_LOAD_INT(x11, x7) # load rs1: x7 = 0xaaaaaaaa
    12e4:	0005a383          	lw	x7,0(x11)
    12e8:	00458593          	addi	x11,x11,4
  RVTEST_TESTDATA_LOAD_INT(x11, x20) # load rs2: x20 = 0x48349acb
    12ec:	0005aa03          	lw	x20,0(x11)
    12f0:	00458593          	addi	x11,x11,4

000012f4 <I_sltu_cg_cp_rs1_edges_0xaaaaaaaa>:
I_sltu_cg_cp_rs1_edges_0xaaaaaaaa:
  sltu x1, x7, x20 # perform operation
    12f4:	0143b0b3          	sltu	x1,x7,x20
  # Check if x1 contains the expected result. x6 is the signature ptr, x5 is the link ptr, x4 is a temp reg.
  RVTEST_SIGUPD(x6, x5, x4, x1, I_sltu_cg_cp_rs1_edges_0xaaaaaaaa, I_sltu_cg_cp_rs1_edges_0xaaaaaaaa_str)
    12f8:	00032203          	lw	x4,0(x6)
    12fc:	00120863          	beq	x4,x1,130c <I_sltu_cg_cp_rs1_edges_0xaaaaaaaa+0x18>
    1300:	1fc032ef          	jal	x5,44fc <failedtest_x5_x4>
    1304:	000012f4          	.word	0x000012f4
    1308:	0000a15d          	.word	0x0000a15d
    130c:	00430313          	addi	x6,x6,4

# Testcase cp_rs1_edges (Test source rs1 value = 0x55555555)
  RVTEST_TESTDATA_LOAD_INT(x11, x17) # load rs1: x17 = 0x55555555
    1310:	0005a883          	lw	x17,0(x11)
    1314:	00458593          	addi	x11,x11,4
  RVTEST_TESTDATA_LOAD_INT(x11, x25) # load rs2: x25 = 0xc387ee26
    1318:	0005ac83          	lw	x25,0(x11)
    131c:	00458593          	addi	x11,x11,4

00001320 <I_sltu_cg_cp_rs1_edges_0x55555555>:
I_sltu_cg_cp_rs1_edges_0x55555555:
  sltu x31, x17, x25 # perform operation
    1320:	0198bfb3          	sltu	x31,x17,x25
  # Check if x31 contains the expected result. x6 is the signature ptr, x5 is the link ptr, x4 is a temp reg.
  RVTEST_SIGUPD(x6, x5, x4, x31, I_sltu_cg_cp_rs1_edges_0x55555555, I_sltu_cg_cp_rs1_edges_0x55555555_str)
    1324:	00032203          	lw	x4,0(x6)
    1328:	01f20863          	beq	x4,x31,1338 <I_sltu_cg_cp_rs1_edges_0x55555555+0x18>
    132c:	1d0032ef          	jal	x5,44fc <failedtest_x5_x4>
    1330:	00001320          	.word	0x00001320
    1334:	0000a19b          	.word	0x0000a19b
    1338:	00430313          	addi	x6,x6,4
/////////////////////////////////
// cp_rs2_edges
/////////////////////////////////

# Testcase cp_rs2_edges (Test source rs2 value = 0x00000000)
  RVTEST_TESTDATA_LOAD_INT(x11, x29) # load rs1: x29 = 0x82121678
    133c:	0005ae83          	lw	x29,0(x11)
    1340:	00458593          	addi	x11,x11,4
  RVTEST_TESTDATA_LOAD_INT(x11, x3) # load rs2: x3 = 0x00000000
    1344:	0005a183          	lw	x3,0(x11)
    1348:	00458593          	addi	x11,x11,4

0000134c <I_sltu_cg_cp_rs2_edges_0x0>:
I_sltu_cg_cp_rs2_edges_0x0:
  sltu x1, x29, x3 # perform operation
    134c:	003eb0b3          	sltu	x1,x29,x3
  # Check if x1 contains the expected result. x6 is the signature ptr, x5 is the link ptr, x4 is a temp reg.
  RVTEST_SIGUPD(x6, x5, x4, x1, I_sltu_cg_cp_rs2_edges_0x0, I_sltu_cg_cp_rs2_edges_0x0_str)
    1350:	00032203          	lw	x4,0(x6)
    1354:	00120863          	beq	x4,x1,1364 <I_sltu_cg_cp_rs2_edges_0x0+0x18>
    1358:	1a4032ef          	jal	x5,44fc <failedtest_x5_x4>
    135c:	0000134c          	.word	0x0000134c
    1360:	0000a1d9          	.word	0x0000a1d9
    1364:	00430313          	addi	x6,x6,4

# Testcase cp_rs2_edges (Test source rs2 value = 0x00000001)
  RVTEST_TESTDATA_LOAD_INT(x11, x24) # load rs1: x24 = 0x98fbabea
    1368:	0005ac03          	lw	x24,0(x11)
    136c:	00458593          	addi	x11,x11,4
  RVTEST_TESTDATA_LOAD_INT(x11, x29) # load rs2: x29 = 0x00000001
    1370:	0005ae83          	lw	x29,0(x11)
    1374:	00458593          	addi	x11,x11,4

00001378 <I_sltu_cg_cp_rs2_edges_0x1>:
I_sltu_cg_cp_rs2_edges_0x1:
  sltu x3, x24, x29 # perform operation
    1378:	01dc31b3          	sltu	x3,x24,x29
  # Check if x3 contains the expected result. x6 is the signature ptr, x5 is the link ptr, x4 is a temp reg.
  RVTEST_SIGUPD(x6, x5, x4, x3, I_sltu_cg_cp_rs2_edges_0x1, I_sltu_cg_cp_rs2_edges_0x1_str)
    137c:	00032203          	lw	x4,0(x6)
    1380:	00320863          	beq	x4,x3,1390 <I_sltu_cg_cp_rs2_edges_0x1+0x18>
    1384:	178032ef          	jal	x5,44fc <failedtest_x5_x4>
    1388:	00001378          	.word	0x00001378
    138c:	0000a210          	.word	0x0000a210
    1390:	00430313          	addi	x6,x6,4

# Testcase cp_rs2_edges (Test source rs2 value = 0x00000002)
  RVTEST_TESTDATA_LOAD_INT(x11, x13) # load rs1: x13 = 0x8296dedc
    1394:	0005a683          	lw	x13,0(x11)
    1398:	00458593          	addi	x11,x11,4
  RVTEST_TESTDATA_LOAD_INT(x11, x23) # load rs2: x23 = 0x00000002
    139c:	0005ab83          	lw	x23,0(x11)
    13a0:	00458593          	addi	x11,x11,4

000013a4 <I_sltu_cg_cp_rs2_edges_0x2>:
I_sltu_cg_cp_rs2_edges_0x2:
  sltu x18, x13, x23 # perform operation
    13a4:	0176b933          	sltu	x18,x13,x23
  # Check if x18 contains the expected result. x6 is the signature ptr, x5 is the link ptr, x4 is a temp reg.
  RVTEST_SIGUPD(x6, x5, x4, x18, I_sltu_cg_cp_rs2_edges_0x2, I_sltu_cg_cp_rs2_edges_0x2_str)
    13a8:	00032203          	lw	x4,0(x6)
    13ac:	01220863          	beq	x4,x18,13bc <I_sltu_cg_cp_rs2_edges_0x2+0x18>
    13b0:	14c032ef          	jal	x5,44fc <failedtest_x5_x4>
    13b4:	000013a4          	.word	0x000013a4
    13b8:	0000a247          	.word	0x0000a247
    13bc:	00430313          	addi	x6,x6,4

# Testcase cp_rs2_edges (Test source rs2 value = 0x80000000)
  RVTEST_TESTDATA_LOAD_INT(x11, x2) # load rs1: x2 = 0x65ed62df
    13c0:	0005a103          	lw	x2,0(x11)
    13c4:	00458593          	addi	x11,x11,4
  RVTEST_TESTDATA_LOAD_INT(x11, x16) # load rs2: x16 = 0x80000000
    13c8:	0005a803          	lw	x16,0(x11)
    13cc:	00458593          	addi	x11,x11,4

000013d0 <I_sltu_cg_cp_rs2_edges_0x80000000>:
I_sltu_cg_cp_rs2_edges_0x80000000:
  sltu x9, x2, x16 # perform operation
    13d0:	010134b3          	sltu	x9,x2,x16
  # Check if x9 contains the expected result. x6 is the signature ptr, x5 is the link ptr, x4 is a temp reg.
  RVTEST_SIGUPD(x6, x5, x4, x9, I_sltu_cg_cp_rs2_edges_0x80000000, I_sltu_cg_cp_rs2_edges_0x80000000_str)
    13d4:	00032203          	lw	x4,0(x6)
    13d8:	00920863          	beq	x4,x9,13e8 <I_sltu_cg_cp_rs2_edges_0x80000000+0x18>
    13dc:	120032ef          	jal	x5,44fc <failedtest_x5_x4>
    13e0:	000013d0          	.word	0x000013d0
    13e4:	0000a27e          	.word	0x0000a27e
    13e8:	00430313          	addi	x6,x6,4

# Testcase cp_rs2_edges (Test source rs2 value = 0x80000001)
  RVTEST_TESTDATA_LOAD_INT(x11, x28) # load rs1: x28 = 0xb0394fdb
    13ec:	0005ae03          	lw	x28,0(x11)
    13f0:	00458593          	addi	x11,x11,4
  RVTEST_TESTDATA_LOAD_INT(x11, x9) # load rs2: x9 = 0x80000001
    13f4:	0005a483          	lw	x9,0(x11)
    13f8:	00458593          	addi	x11,x11,4

000013fc <I_sltu_cg_cp_rs2_edges_0x80000001>:
I_sltu_cg_cp_rs2_edges_0x80000001:
  sltu x24, x28, x9 # perform operation
    13fc:	009e3c33          	sltu	x24,x28,x9
  # Check if x24 contains the expected result. x6 is the signature ptr, x5 is the link ptr, x4 is a temp reg.
  RVTEST_SIGUPD(x6, x5, x4, x24, I_sltu_cg_cp_rs2_edges_0x80000001, I_sltu_cg_cp_rs2_edges_0x80000001_str)
    1400:	00032203          	lw	x4,0(x6)
    1404:	01820863          	beq	x4,x24,1414 <I_sltu_cg_cp_rs2_edges_0x80000001+0x18>
    1408:	0f4032ef          	jal	x5,44fc <failedtest_x5_x4>
    140c:	000013fc          	.word	0x000013fc
    1410:	0000a2bc          	.word	0x0000a2bc
    1414:	00430313          	addi	x6,x6,4

# Testcase cp_rs2_edges (Test source rs2 value = 0x7fffffff)
  RVTEST_TESTDATA_LOAD_INT(x11, x16) # load rs1: x16 = 0xacdbc2d4
    1418:	0005a803          	lw	x16,0(x11)
    141c:	00458593          	addi	x11,x11,4
  RVTEST_TESTDATA_LOAD_INT(x11, x18) # load rs2: x18 = 0x7fffffff
    1420:	0005a903          	lw	x18,0(x11)
    1424:	00458593          	addi	x11,x11,4

00001428 <I_sltu_cg_cp_rs2_edges_0x7fffffff>:
I_sltu_cg_cp_rs2_edges_0x7fffffff:
  sltu x14, x16, x18 # perform operation
    1428:	01283733          	sltu	x14,x16,x18
  # Check if x14 contains the expected result. x6 is the signature ptr, x5 is the link ptr, x4 is a temp reg.
  RVTEST_SIGUPD(x6, x5, x4, x14, I_sltu_cg_cp_rs2_edges_0x7fffffff, I_sltu_cg_cp_rs2_edges_0x7fffffff_str)
    142c:	00032203          	lw	x4,0(x6)
    1430:	00e20863          	beq	x4,x14,1440 <I_sltu_cg_cp_rs2_edges_0x7fffffff+0x18>
    1434:	0c8032ef          	jal	x5,44fc <failedtest_x5_x4>
    1438:	00001428          	.word	0x00001428
    143c:	0000a2fa          	.word	0x0000a2fa
    1440:	00430313          	addi	x6,x6,4

# Testcase cp_rs2_edges (Test source rs2 value = 0x7ffffffe)
  RVTEST_TESTDATA_LOAD_INT(x11, x31) # load rs1: x31 = 0x3c9e76d8
    1444:	0005af83          	lw	x31,0(x11)
    1448:	00458593          	addi	x11,x11,4
  RVTEST_TESTDATA_LOAD_INT(x11, x15) # load rs2: x15 = 0x7ffffffe
    144c:	0005a783          	lw	x15,0(x11)
    1450:	00458593          	addi	x11,x11,4

00001454 <I_sltu_cg_cp_rs2_edges_0x7ffffffe>:
I_sltu_cg_cp_rs2_edges_0x7ffffffe:
  sltu x12, x31, x15 # perform operation
    1454:	00ffb633          	sltu	x12,x31,x15
  # Check if x12 contains the expected result. x6 is the signature ptr, x5 is the link ptr, x4 is a temp reg.
  RVTEST_SIGUPD(x6, x5, x4, x12, I_sltu_cg_cp_rs2_edges_0x7ffffffe, I_sltu_cg_cp_rs2_edges_0x7ffffffe_str)
    1458:	00032203          	lw	x4,0(x6)
    145c:	00c20863          	beq	x4,x12,146c <I_sltu_cg_cp_rs2_edges_0x7ffffffe+0x18>
    1460:	09c032ef          	jal	x5,44fc <failedtest_x5_x4>
    1464:	00001454          	.word	0x00001454
    1468:	0000a338          	.word	0x0000a338
    146c:	00430313          	addi	x6,x6,4

# Testcase cp_rs2_edges (Test source rs2 value = 0xffffffff)
  RVTEST_TESTDATA_LOAD_INT(x11, x15) # load rs1: x15 = 0xab1e4206
    1470:	0005a783          	lw	x15,0(x11)
    1474:	00458593          	addi	x11,x11,4
  RVTEST_TESTDATA_LOAD_INT(x11, x21) # load rs2: x21 = 0xffffffff
    1478:	0005aa83          	lw	x21,0(x11)
    147c:	00458593          	addi	x11,x11,4

00001480 <I_sltu_cg_cp_rs2_edges_0xffffffff>:
I_sltu_cg_cp_rs2_edges_0xffffffff:
  sltu x28, x15, x21 # perform operation
    1480:	0157be33          	sltu	x28,x15,x21
  # Check if x28 contains the expected result. x6 is the signature ptr, x5 is the link ptr, x4 is a temp reg.
  RVTEST_SIGUPD(x6, x5, x4, x28, I_sltu_cg_cp_rs2_edges_0xffffffff, I_sltu_cg_cp_rs2_edges_0xffffffff_str)
    1484:	00032203          	lw	x4,0(x6)
    1488:	01c20863          	beq	x4,x28,1498 <I_sltu_cg_cp_rs2_edges_0xffffffff+0x18>
    148c:	070032ef          	jal	x5,44fc <failedtest_x5_x4>
    1490:	00001480          	.word	0x00001480
    1494:	0000a376          	.word	0x0000a376
    1498:	00430313          	addi	x6,x6,4

# Testcase cp_rs2_edges (Test source rs2 value = 0xfffffffe)
  RVTEST_TESTDATA_LOAD_INT(x11, x22) # load rs1: x22 = 0x8c0f826f
    149c:	0005ab03          	lw	x22,0(x11)
    14a0:	00458593          	addi	x11,x11,4
  RVTEST_TESTDATA_LOAD_INT(x11, x1) # load rs2: x1 = 0xfffffffe
    14a4:	0005a083          	lw	x1,0(x11)
    14a8:	00458593          	addi	x11,x11,4

000014ac <I_sltu_cg_cp_rs2_edges_0xfffffffe>:
I_sltu_cg_cp_rs2_edges_0xfffffffe:
  sltu x31, x22, x1 # perform operation
    14ac:	001b3fb3          	sltu	x31,x22,x1
  # Check if x31 contains the expected result. x6 is the signature ptr, x5 is the link ptr, x4 is a temp reg.
  RVTEST_SIGUPD(x6, x5, x4, x31, I_sltu_cg_cp_rs2_edges_0xfffffffe, I_sltu_cg_cp_rs2_edges_0xfffffffe_str)
    14b0:	00032203          	lw	x4,0(x6)
    14b4:	01f20863          	beq	x4,x31,14c4 <I_sltu_cg_cp_rs2_edges_0xfffffffe+0x18>
    14b8:	044032ef          	jal	x5,44fc <failedtest_x5_x4>
    14bc:	000014ac          	.word	0x000014ac
    14c0:	0000a3b4          	.word	0x0000a3b4
    14c4:	00430313          	addi	x6,x6,4

# Testcase cp_rs2_edges (Test source rs2 value = 0x5bbc8872)
  RVTEST_TESTDATA_LOAD_INT(x11, x29) # load rs1: x29 = 0xf52b9fca
    14c8:	0005ae83          	lw	x29,0(x11)
    14cc:	00458593          	addi	x11,x11,4
  RVTEST_TESTDATA_LOAD_INT(x11, x2) # load rs2: x2 = 0x5bbc8872
    14d0:	0005a103          	lw	x2,0(x11)
    14d4:	00458593          	addi	x11,x11,4

000014d8 <I_sltu_cg_cp_rs2_edges_0x5bbc8872>:
I_sltu_cg_cp_rs2_edges_0x5bbc8872:
  sltu x30, x29, x2 # perform operation
    14d8:	002ebf33          	sltu	x30,x29,x2
  # Check if x30 contains the expected result. x6 is the signature ptr, x5 is the link ptr, x4 is a temp reg.
  RVTEST_SIGUPD(x6, x5, x4, x30, I_sltu_cg_cp_rs2_edges_0x5bbc8872, I_sltu_cg_cp_rs2_edges_0x5bbc8872_str)
    14dc:	00032203          	lw	x4,0(x6)
    14e0:	01e20863          	beq	x4,x30,14f0 <I_sltu_cg_cp_rs2_edges_0x5bbc8872+0x18>
    14e4:	018032ef          	jal	x5,44fc <failedtest_x5_x4>
    14e8:	000014d8          	.word	0x000014d8
    14ec:	0000a3f2          	.word	0x0000a3f2
    14f0:	00430313          	addi	x6,x6,4

# Testcase cp_rs2_edges (Test source rs2 value = 0xaaaaaaaa)
  RVTEST_TESTDATA_LOAD_INT(x11, x1) # load rs1: x1 = 0x3a259c35
    14f4:	0005a083          	lw	x1,0(x11)
    14f8:	00458593          	addi	x11,x11,4
  RVTEST_TESTDATA_LOAD_INT(x11, x27) # load rs2: x27 = 0xaaaaaaaa
    14fc:	0005ad83          	lw	x27,0(x11)
    1500:	00458593          	addi	x11,x11,4

00001504 <I_sltu_cg_cp_rs2_edges_0xaaaaaaaa>:
I_sltu_cg_cp_rs2_edges_0xaaaaaaaa:
  sltu x2, x1, x27 # perform operation
    1504:	01b0b133          	sltu	x2,x1,x27
  # Check if x2 contains the expected result. x6 is the signature ptr, x5 is the link ptr, x4 is a temp reg.
  RVTEST_SIGUPD(x6, x5, x4, x2, I_sltu_cg_cp_rs2_edges_0xaaaaaaaa, I_sltu_cg_cp_rs2_edges_0xaaaaaaaa_str)
    1508:	00032203          	lw	x4,0(x6)
    150c:	00220863          	beq	x4,x2,151c <I_sltu_cg_cp_rs2_edges_0xaaaaaaaa+0x18>
    1510:	7ed022ef          	jal	x5,44fc <failedtest_x5_x4>
    1514:	00001504          	.word	0x00001504
    1518:	0000a430          	.word	0x0000a430
    151c:	00430313          	addi	x6,x6,4

# Testcase cp_rs2_edges (Test source rs2 value = 0x55555555)
  RVTEST_TESTDATA_LOAD_INT(x11, x9) # load rs1: x9 = 0x0b54445b
    1520:	0005a483          	lw	x9,0(x11)
    1524:	00458593          	addi	x11,x11,4
  RVTEST_TESTDATA_LOAD_INT(x11, x21) # load rs2: x21 = 0x55555555
    1528:	0005aa83          	lw	x21,0(x11)
    152c:	00458593          	addi	x11,x11,4

00001530 <I_sltu_cg_cp_rs2_edges_0x55555555>:
I_sltu_cg_cp_rs2_edges_0x55555555:
  sltu x30, x9, x21 # perform operation
    1530:	0154bf33          	sltu	x30,x9,x21
  # Check if x30 contains the expected result. x6 is the signature ptr, x5 is the link ptr, x4 is a temp reg.
  RVTEST_SIGUPD(x6, x5, x4, x30, I_sltu_cg_cp_rs2_edges_0x55555555, I_sltu_cg_cp_rs2_edges_0x55555555_str)
    1534:	00032203          	lw	x4,0(x6)
    1538:	01e20863          	beq	x4,x30,1548 <I_sltu_cg_cp_rs2_edges_0x55555555+0x18>
    153c:	7c1022ef          	jal	x5,44fc <failedtest_x5_x4>
    1540:	00001530          	.word	0x00001530
    1544:	0000a46e          	.word	0x0000a46e
    1548:	00430313          	addi	x6,x6,4
/////////////////////////////////
// cr_rs1_rs2_edges
/////////////////////////////////

# Testcase cr_rs1_rs2_edges (Test source rs1 = 0x00000000 rs2 = 0x00000000)
  RVTEST_TESTDATA_LOAD_INT(x11, x25) # load rs1: x25 = 0x00000000
    154c:	0005ac83          	lw	x25,0(x11)
    1550:	00458593          	addi	x11,x11,4
  RVTEST_TESTDATA_LOAD_INT(x11, x28) # load rs2: x28 = 0x00000000
    1554:	0005ae03          	lw	x28,0(x11)
    1558:	00458593          	addi	x11,x11,4

0000155c <I_sltu_cg_cr_rs1_rs2_edges_rs1val_0x0_rs2val_0x0>:
I_sltu_cg_cr_rs1_rs2_edges_rs1val_0x0_rs2val_0x0:
  sltu x31, x25, x28 # perform operation
    155c:	01ccbfb3          	sltu	x31,x25,x28
  # Check if x31 contains the expected result. x6 is the signature ptr, x5 is the link ptr, x4 is a temp reg.
  RVTEST_SIGUPD(x6, x5, x4, x31, I_sltu_cg_cr_rs1_rs2_edges_rs1val_0x0_rs2val_0x0, I_sltu_cg_cr_rs1_rs2_edges_rs1val_0x0_rs2val_0x0_str)
    1560:	00032203          	lw	x4,0(x6)
    1564:	01f20863          	beq	x4,x31,1574 <I_sltu_cg_cr_rs1_rs2_edges_rs1val_0x0_rs2val_0x0+0x18>
    1568:	795022ef          	jal	x5,44fc <failedtest_x5_x4>
    156c:	0000155c          	.word	0x0000155c
    1570:	0000a4ac          	.word	0x0000a4ac
    1574:	00430313          	addi	x6,x6,4

# Testcase cr_rs1_rs2_edges (Test source rs1 = 0x00000000 rs2 = 0x00000001)
  RVTEST_TESTDATA_LOAD_INT(x11, x29) # load rs1: x29 = 0x00000000
    1578:	0005ae83          	lw	x29,0(x11)
    157c:	00458593          	addi	x11,x11,4
  RVTEST_TESTDATA_LOAD_INT(x11, x22) # load rs2: x22 = 0x00000001
    1580:	0005ab03          	lw	x22,0(x11)
    1584:	00458593          	addi	x11,x11,4

00001588 <I_sltu_cg_cr_rs1_rs2_edges_rs1val_0x0_rs2val_0x1>:
I_sltu_cg_cr_rs1_rs2_edges_rs1val_0x0_rs2val_0x1:
  sltu x9, x29, x22 # perform operation
    1588:	016eb4b3          	sltu	x9,x29,x22
  # Check if x9 contains the expected result. x6 is the signature ptr, x5 is the link ptr, x4 is a temp reg.
  RVTEST_SIGUPD(x6, x5, x4, x9, I_sltu_cg_cr_rs1_rs2_edges_rs1val_0x0_rs2val_0x1, I_sltu_cg_cr_rs1_rs2_edges_rs1val_0x0_rs2val_0x1_str)
    158c:	00032203          	lw	x4,0(x6)
    1590:	00920863          	beq	x4,x9,15a0 <I_sltu_cg_cr_rs1_rs2_edges_rs1val_0x0_rs2val_0x1+0x18>
    1594:	769022ef          	jal	x5,44fc <failedtest_x5_x4>
    1598:	00001588          	.word	0x00001588
    159c:	0000a4fa          	.word	0x0000a4fa
    15a0:	00430313          	addi	x6,x6,4

# Testcase cr_rs1_rs2_edges (Test source rs1 = 0x00000000 rs2 = 0x00000002)
  RVTEST_TESTDATA_LOAD_INT(x11, x1) # load rs1: x1 = 0x00000000
    15a4:	0005a083          	lw	x1,0(x11)
    15a8:	00458593          	addi	x11,x11,4
  RVTEST_TESTDATA_LOAD_INT(x11, x23) # load rs2: x23 = 0x00000002
    15ac:	0005ab83          	lw	x23,0(x11)
    15b0:	00458593          	addi	x11,x11,4

000015b4 <I_sltu_cg_cr_rs1_rs2_edges_rs1val_0x0_rs2val_0x2>:
I_sltu_cg_cr_rs1_rs2_edges_rs1val_0x0_rs2val_0x2:
  sltu x27, x1, x23 # perform operation
    15b4:	0170bdb3          	sltu	x27,x1,x23
  # Check if x27 contains the expected result. x6 is the signature ptr, x5 is the link ptr, x4 is a temp reg.
  RVTEST_SIGUPD(x6, x5, x4, x27, I_sltu_cg_cr_rs1_rs2_edges_rs1val_0x0_rs2val_0x2, I_sltu_cg_cr_rs1_rs2_edges_rs1val_0x0_rs2val_0x2_str)
    15b8:	00032203          	lw	x4,0(x6)
    15bc:	01b20863          	beq	x4,x27,15cc <I_sltu_cg_cr_rs1_rs2_edges_rs1val_0x0_rs2val_0x2+0x18>
    15c0:	73d022ef          	jal	x5,44fc <failedtest_x5_x4>
    15c4:	000015b4          	.word	0x000015b4
    15c8:	0000a548          	.word	0x0000a548
    15cc:	00430313          	addi	x6,x6,4

# Testcase cr_rs1_rs2_edges (Test source rs1 = 0x00000000 rs2 = 0x80000000)
  RVTEST_TESTDATA_LOAD_INT(x11, x28) # load rs1: x28 = 0x00000000
    15d0:	0005ae03          	lw	x28,0(x11)
    15d4:	00458593          	addi	x11,x11,4
  RVTEST_TESTDATA_LOAD_INT(x11, x13) # load rs2: x13 = 0x80000000
    15d8:	0005a683          	lw	x13,0(x11)
    15dc:	00458593          	addi	x11,x11,4

000015e0 <I_sltu_cg_cr_rs1_rs2_edges_rs1val_0x0_rs2val_0x80000000>:
I_sltu_cg_cr_rs1_rs2_edges_rs1val_0x0_rs2val_0x80000000:
  sltu x9, x28, x13 # perform operation
    15e0:	00de34b3          	sltu	x9,x28,x13
  # Check if x9 contains the expected result. x6 is the signature ptr, x5 is the link ptr, x4 is a temp reg.
  RVTEST_SIGUPD(x6, x5, x4, x9, I_sltu_cg_cr_rs1_rs2_edges_rs1val_0x0_rs2val_0x80000000, I_sltu_cg_cr_rs1_rs2_edges_rs1val_0x0_rs2val_0x80000000_str)
    15e4:	00032203          	lw	x4,0(x6)
    15e8:	00920863          	beq	x4,x9,15f8 <I_sltu_cg_cr_rs1_rs2_edges_rs1val_0x0_rs2val_0x80000000+0x18>
    15ec:	711022ef          	jal	x5,44fc <failedtest_x5_x4>
    15f0:	000015e0          	.word	0x000015e0
    15f4:	0000a596          	.word	0x0000a596
    15f8:	00430313          	addi	x6,x6,4

# Testcase cr_rs1_rs2_edges (Test source rs1 = 0x00000000 rs2 = 0x80000001)
  RVTEST_TESTDATA_LOAD_INT(x11, x21) # load rs1: x21 = 0x00000000
    15fc:	0005aa83          	lw	x21,0(x11)
    1600:	00458593          	addi	x11,x11,4
  RVTEST_TESTDATA_LOAD_INT(x11, x29) # load rs2: x29 = 0x80000001
    1604:	0005ae83          	lw	x29,0(x11)
    1608:	00458593          	addi	x11,x11,4

0000160c <I_sltu_cg_cr_rs1_rs2_edges_rs1val_0x0_rs2val_0x80000001>:
I_sltu_cg_cr_rs1_rs2_edges_rs1val_0x0_rs2val_0x80000001:
  sltu x10, x21, x29 # perform operation
    160c:	01dab533          	sltu	x10,x21,x29
  # Check if x10 contains the expected result. x6 is the signature ptr, x5 is the link ptr, x4 is a temp reg.
  RVTEST_SIGUPD(x6, x5, x4, x10, I_sltu_cg_cr_rs1_rs2_edges_rs1val_0x0_rs2val_0x80000001, I_sltu_cg_cr_rs1_rs2_edges_rs1val_0x0_rs2val_0x80000001_str)
    1610:	00032203          	lw	x4,0(x6)
    1614:	00a20863          	beq	x4,x10,1624 <I_sltu_cg_cr_rs1_rs2_edges_rs1val_0x0_rs2val_0x80000001+0x18>
    1618:	6e5022ef          	jal	x5,44fc <failedtest_x5_x4>
    161c:	0000160c          	.word	0x0000160c
    1620:	0000a5eb          	.word	0x0000a5eb
    1624:	00430313          	addi	x6,x6,4

# Testcase cr_rs1_rs2_edges (Test source rs1 = 0x00000000 rs2 = 0x7fffffff)
  RVTEST_TESTDATA_LOAD_INT(x11, x1) # load rs1: x1 = 0x00000000
    1628:	0005a083          	lw	x1,0(x11)
    162c:	00458593          	addi	x11,x11,4
  RVTEST_TESTDATA_LOAD_INT(x11, x15) # load rs2: x15 = 0x7fffffff
    1630:	0005a783          	lw	x15,0(x11)
    1634:	00458593          	addi	x11,x11,4

00001638 <I_sltu_cg_cr_rs1_rs2_edges_rs1val_0x0_rs2val_0x7fffffff>:
I_sltu_cg_cr_rs1_rs2_edges_rs1val_0x0_rs2val_0x7fffffff:
  sltu x28, x1, x15 # perform operation
    1638:	00f0be33          	sltu	x28,x1,x15
  # Check if x28 contains the expected result. x6 is the signature ptr, x5 is the link ptr, x4 is a temp reg.
  RVTEST_SIGUPD(x6, x5, x4, x28, I_sltu_cg_cr_rs1_rs2_edges_rs1val_0x0_rs2val_0x7fffffff, I_sltu_cg_cr_rs1_rs2_edges_rs1val_0x0_rs2val_0x7fffffff_str)
    163c:	00032203          	lw	x4,0(x6)
    1640:	01c20863          	beq	x4,x28,1650 <I_sltu_cg_cr_rs1_rs2_edges_rs1val_0x0_rs2val_0x7fffffff+0x18>
    1644:	6b9022ef          	jal	x5,44fc <failedtest_x5_x4>
    1648:	00001638          	.word	0x00001638
    164c:	0000a640          	.word	0x0000a640
    1650:	00430313          	addi	x6,x6,4

# Testcase cr_rs1_rs2_edges (Test source rs1 = 0x00000000 rs2 = 0x7ffffffe)
  RVTEST_TESTDATA_LOAD_INT(x11, x18) # load rs1: x18 = 0x00000000
    1654:	0005a903          	lw	x18,0(x11)
    1658:	00458593          	addi	x11,x11,4
  RVTEST_TESTDATA_LOAD_INT(x11, x13) # load rs2: x13 = 0x7ffffffe
    165c:	0005a683          	lw	x13,0(x11)
    1660:	00458593          	addi	x11,x11,4

00001664 <I_sltu_cg_cr_rs1_rs2_edges_rs1val_0x0_rs2val_0x7ffffffe>:
I_sltu_cg_cr_rs1_rs2_edges_rs1val_0x0_rs2val_0x7ffffffe:
  sltu x22, x18, x13 # perform operation
    1664:	00d93b33          	sltu	x22,x18,x13
  # Check if x22 contains the expected result. x6 is the signature ptr, x5 is the link ptr, x4 is a temp reg.
  RVTEST_SIGUPD(x6, x5, x4, x22, I_sltu_cg_cr_rs1_rs2_edges_rs1val_0x0_rs2val_0x7ffffffe, I_sltu_cg_cr_rs1_rs2_edges_rs1val_0x0_rs2val_0x7ffffffe_str)
    1668:	00032203          	lw	x4,0(x6)
    166c:	01620863          	beq	x4,x22,167c <I_sltu_cg_cr_rs1_rs2_edges_rs1val_0x0_rs2val_0x7ffffffe+0x18>
    1670:	68d022ef          	jal	x5,44fc <failedtest_x5_x4>
    1674:	00001664          	.word	0x00001664
    1678:	0000a695          	.word	0x0000a695
    167c:	00430313          	addi	x6,x6,4

# Testcase cr_rs1_rs2_edges (Test source rs1 = 0x00000000 rs2 = 0xffffffff)
  RVTEST_TESTDATA_LOAD_INT(x11, x13) # load rs1: x13 = 0x00000000
    1680:	0005a683          	lw	x13,0(x11)
    1684:	00458593          	addi	x11,x11,4
  RVTEST_TESTDATA_LOAD_INT(x11, x31) # load rs2: x31 = 0xffffffff
    1688:	0005af83          	lw	x31,0(x11)
    168c:	00458593          	addi	x11,x11,4

00001690 <I_sltu_cg_cr_rs1_rs2_edges_rs1val_0x0_rs2val_0xffffffff>:
I_sltu_cg_cr_rs1_rs2_edges_rs1val_0x0_rs2val_0xffffffff:
  sltu x9, x13, x31 # perform operation
    1690:	01f6b4b3          	sltu	x9,x13,x31
  # Check if x9 contains the expected result. x6 is the signature ptr, x5 is the link ptr, x4 is a temp reg.
  RVTEST_SIGUPD(x6, x5, x4, x9, I_sltu_cg_cr_rs1_rs2_edges_rs1val_0x0_rs2val_0xffffffff, I_sltu_cg_cr_rs1_rs2_edges_rs1val_0x0_rs2val_0xffffffff_str)
    1694:	00032203          	lw	x4,0(x6)
    1698:	00920863          	beq	x4,x9,16a8 <I_sltu_cg_cr_rs1_rs2_edges_rs1val_0x0_rs2val_0xffffffff+0x18>
    169c:	661022ef          	jal	x5,44fc <failedtest_x5_x4>
    16a0:	00001690          	.word	0x00001690
    16a4:	0000a6ea          	.word	0x0000a6ea
    16a8:	00430313          	addi	x6,x6,4

# Testcase cr_rs1_rs2_edges (Test source rs1 = 0x00000000 rs2 = 0xfffffffe)
  RVTEST_TESTDATA_LOAD_INT(x11, x9) # load rs1: x9 = 0x00000000
    16ac:	0005a483          	lw	x9,0(x11)
    16b0:	00458593          	addi	x11,x11,4
  RVTEST_TESTDATA_LOAD_INT(x11, x2) # load rs2: x2 = 0xfffffffe
    16b4:	0005a103          	lw	x2,0(x11)
    16b8:	00458593          	addi	x11,x11,4

000016bc <I_sltu_cg_cr_rs1_rs2_edges_rs1val_0x0_rs2val_0xfffffffe>:
I_sltu_cg_cr_rs1_rs2_edges_rs1val_0x0_rs2val_0xfffffffe:
  sltu x18, x9, x2 # perform operation
    16bc:	0024b933          	sltu	x18,x9,x2
  # Check if x18 contains the expected result. x6 is the signature ptr, x5 is the link ptr, x4 is a temp reg.
  RVTEST_SIGUPD(x6, x5, x4, x18, I_sltu_cg_cr_rs1_rs2_edges_rs1val_0x0_rs2val_0xfffffffe, I_sltu_cg_cr_rs1_rs2_edges_rs1val_0x0_rs2val_0xfffffffe_str)
    16c0:	00032203          	lw	x4,0(x6)
    16c4:	01220863          	beq	x4,x18,16d4 <I_sltu_cg_cr_rs1_rs2_edges_rs1val_0x0_rs2val_0xfffffffe+0x18>
    16c8:	635022ef          	jal	x5,44fc <failedtest_x5_x4>
    16cc:	000016bc          	.word	0x000016bc
    16d0:	0000a73f          	.word	0x0000a73f
    16d4:	00430313          	addi	x6,x6,4

# Testcase cr_rs1_rs2_edges (Test source rs1 = 0x00000000 rs2 = 0x5bbc8872)
  RVTEST_TESTDATA_LOAD_INT(x11, x14) # load rs1: x14 = 0x00000000
    16d8:	0005a703          	lw	x14,0(x11)
    16dc:	00458593          	addi	x11,x11,4
  RVTEST_TESTDATA_LOAD_INT(x11, x22) # load rs2: x22 = 0x5bbc8872
    16e0:	0005ab03          	lw	x22,0(x11)
    16e4:	00458593          	addi	x11,x11,4

000016e8 <I_sltu_cg_cr_rs1_rs2_edges_rs1val_0x0_rs2val_0x5bbc8872>:
I_sltu_cg_cr_rs1_rs2_edges_rs1val_0x0_rs2val_0x5bbc8872:
  sltu x3, x14, x22 # perform operation
    16e8:	016731b3          	sltu	x3,x14,x22
  # Check if x3 contains the expected result. x6 is the signature ptr, x5 is the link ptr, x4 is a temp reg.
  RVTEST_SIGUPD(x6, x5, x4, x3, I_sltu_cg_cr_rs1_rs2_edges_rs1val_0x0_rs2val_0x5bbc8872, I_sltu_cg_cr_rs1_rs2_edges_rs1val_0x0_rs2val_0x5bbc8872_str)
    16ec:	00032203          	lw	x4,0(x6)
    16f0:	00320863          	beq	x4,x3,1700 <I_sltu_cg_cr_rs1_rs2_edges_rs1val_0x0_rs2val_0x5bbc8872+0x18>
    16f4:	609022ef          	jal	x5,44fc <failedtest_x5_x4>
    16f8:	000016e8          	.word	0x000016e8
    16fc:	0000a794          	.word	0x0000a794
    1700:	00430313          	addi	x6,x6,4

# Testcase cr_rs1_rs2_edges (Test source rs1 = 0x00000000 rs2 = 0xaaaaaaaa)
  RVTEST_TESTDATA_LOAD_INT(x11, x27) # load rs1: x27 = 0x00000000
    1704:	0005ad83          	lw	x27,0(x11)
    1708:	00458593          	addi	x11,x11,4
  RVTEST_TESTDATA_LOAD_INT(x11, x8) # load rs2: x8 = 0xaaaaaaaa
    170c:	0005a403          	lw	x8,0(x11)
    1710:	00458593          	addi	x11,x11,4

00001714 <I_sltu_cg_cr_rs1_rs2_edges_rs1val_0x0_rs2val_0xaaaaaaaa>:
I_sltu_cg_cr_rs1_rs2_edges_rs1val_0x0_rs2val_0xaaaaaaaa:
  sltu x1, x27, x8 # perform operation
    1714:	008db0b3          	sltu	x1,x27,x8
  # Check if x1 contains the expected result. x6 is the signature ptr, x5 is the link ptr, x4 is a temp reg.
  RVTEST_SIGUPD(x6, x5, x4, x1, I_sltu_cg_cr_rs1_rs2_edges_rs1val_0x0_rs2val_0xaaaaaaaa, I_sltu_cg_cr_rs1_rs2_edges_rs1val_0x0_rs2val_0xaaaaaaaa_str)
    1718:	00032203          	lw	x4,0(x6)
    171c:	00120863          	beq	x4,x1,172c <I_sltu_cg_cr_rs1_rs2_edges_rs1val_0x0_rs2val_0xaaaaaaaa+0x18>
    1720:	5dd022ef          	jal	x5,44fc <failedtest_x5_x4>
    1724:	00001714          	.word	0x00001714
    1728:	0000a7e9          	.word	0x0000a7e9
    172c:	00430313          	addi	x6,x6,4

# Testcase cr_rs1_rs2_edges (Test source rs1 = 0x00000000 rs2 = 0x55555555)
  RVTEST_TESTDATA_LOAD_INT(x11, x10) # load rs1: x10 = 0x00000000
    1730:	0005a503          	lw	x10,0(x11)
    1734:	00458593          	addi	x11,x11,4
  RVTEST_TESTDATA_LOAD_INT(x11, x29) # load rs2: x29 = 0x55555555
    1738:	0005ae83          	lw	x29,0(x11)
    173c:	00458593          	addi	x11,x11,4

00001740 <I_sltu_cg_cr_rs1_rs2_edges_rs1val_0x0_rs2val_0x55555555>:
I_sltu_cg_cr_rs1_rs2_edges_rs1val_0x0_rs2val_0x55555555:
  sltu x26, x10, x29 # perform operation
    1740:	01d53d33          	sltu	x26,x10,x29
  # Check if x26 contains the expected result. x6 is the signature ptr, x5 is the link ptr, x4 is a temp reg.
  RVTEST_SIGUPD(x6, x5, x4, x26, I_sltu_cg_cr_rs1_rs2_edges_rs1val_0x0_rs2val_0x55555555, I_sltu_cg_cr_rs1_rs2_edges_rs1val_0x0_rs2val_0x55555555_str)
    1744:	00032203          	lw	x4,0(x6)
    1748:	01a20863          	beq	x4,x26,1758 <I_sltu_cg_cr_rs1_rs2_edges_rs1val_0x0_rs2val_0x55555555+0x18>
    174c:	5b1022ef          	jal	x5,44fc <failedtest_x5_x4>
    1750:	00001740          	.word	0x00001740
    1754:	0000a83e          	.word	0x0000a83e
    1758:	00430313          	addi	x6,x6,4

# Testcase cr_rs1_rs2_edges (Test source rs1 = 0x00000001 rs2 = 0x00000000)
  RVTEST_TESTDATA_LOAD_INT(x11, x16) # load rs1: x16 = 0x00000001
    175c:	0005a803          	lw	x16,0(x11)
    1760:	00458593          	addi	x11,x11,4
  RVTEST_TESTDATA_LOAD_INT(x11, x21) # load rs2: x21 = 0x00000000
    1764:	0005aa83          	lw	x21,0(x11)
    1768:	00458593          	addi	x11,x11,4

0000176c <I_sltu_cg_cr_rs1_rs2_edges_rs1val_0x1_rs2val_0x0>:
I_sltu_cg_cr_rs1_rs2_edges_rs1val_0x1_rs2val_0x0:
  sltu x14, x16, x21 # perform operation
    176c:	01583733          	sltu	x14,x16,x21
  # Check if x14 contains the expected result. x6 is the signature ptr, x5 is the link ptr, x4 is a temp reg.
  RVTEST_SIGUPD(x6, x5, x4, x14, I_sltu_cg_cr_rs1_rs2_edges_rs1val_0x1_rs2val_0x0, I_sltu_cg_cr_rs1_rs2_edges_rs1val_0x1_rs2val_0x0_str)
    1770:	00032203          	lw	x4,0(x6)
    1774:	00e20863          	beq	x4,x14,1784 <I_sltu_cg_cr_rs1_rs2_edges_rs1val_0x1_rs2val_0x0+0x18>
    1778:	585022ef          	jal	x5,44fc <failedtest_x5_x4>
    177c:	0000176c          	.word	0x0000176c
    1780:	0000a893          	.word	0x0000a893
    1784:	00430313          	addi	x6,x6,4

# Testcase cr_rs1_rs2_edges (Test source rs1 = 0x00000001 rs2 = 0x00000001)
  RVTEST_TESTDATA_LOAD_INT(x11, x29) # load rs1: x29 = 0x00000001
    1788:	0005ae83          	lw	x29,0(x11)
    178c:	00458593          	addi	x11,x11,4
  RVTEST_TESTDATA_LOAD_INT(x11, x2) # load rs2: x2 = 0x00000001
    1790:	0005a103          	lw	x2,0(x11)
    1794:	00458593          	addi	x11,x11,4

00001798 <I_sltu_cg_cr_rs1_rs2_edges_rs1val_0x1_rs2val_0x1>:
I_sltu_cg_cr_rs1_rs2_edges_rs1val_0x1_rs2val_0x1:
  sltu x18, x29, x2 # perform operation
    1798:	002eb933          	sltu	x18,x29,x2
  # Check if x18 contains the expected result. x6 is the signature ptr, x5 is the link ptr, x4 is a temp reg.
  RVTEST_SIGUPD(x6, x5, x4, x18, I_sltu_cg_cr_rs1_rs2_edges_rs1val_0x1_rs2val_0x1, I_sltu_cg_cr_rs1_rs2_edges_rs1val_0x1_rs2val_0x1_str)
    179c:	00032203          	lw	x4,0(x6)
    17a0:	01220863          	beq	x4,x18,17b0 <I_sltu_cg_cr_rs1_rs2_edges_rs1val_0x1_rs2val_0x1+0x18>
    17a4:	559022ef          	jal	x5,44fc <failedtest_x5_x4>
    17a8:	00001798          	.word	0x00001798
    17ac:	0000a8e1          	.word	0x0000a8e1
    17b0:	00430313          	addi	x6,x6,4

# Testcase cr_rs1_rs2_edges (Test source rs1 = 0x00000001 rs2 = 0x00000002)
  RVTEST_TESTDATA_LOAD_INT(x11, x3) # load rs1: x3 = 0x00000001
    17b4:	0005a183          	lw	x3,0(x11)
    17b8:	00458593          	addi	x11,x11,4
  RVTEST_TESTDATA_LOAD_INT(x11, x1) # load rs2: x1 = 0x00000002
    17bc:	0005a083          	lw	x1,0(x11)
    17c0:	00458593          	addi	x11,x11,4

000017c4 <I_sltu_cg_cr_rs1_rs2_edges_rs1val_0x1_rs2val_0x2>:
I_sltu_cg_cr_rs1_rs2_edges_rs1val_0x1_rs2val_0x2:
  sltu x27, x3, x1 # perform operation
    17c4:	0011bdb3          	sltu	x27,x3,x1
  # Check if x27 contains the expected result. x6 is the signature ptr, x5 is the link ptr, x4 is a temp reg.
  RVTEST_SIGUPD(x6, x5, x4, x27, I_sltu_cg_cr_rs1_rs2_edges_rs1val_0x1_rs2val_0x2, I_sltu_cg_cr_rs1_rs2_edges_rs1val_0x1_rs2val_0x2_str)
    17c8:	00032203          	lw	x4,0(x6)
    17cc:	01b20863          	beq	x4,x27,17dc <I_sltu_cg_cr_rs1_rs2_edges_rs1val_0x1_rs2val_0x2+0x18>
    17d0:	52d022ef          	jal	x5,44fc <failedtest_x5_x4>
    17d4:	000017c4          	.word	0x000017c4
    17d8:	0000a92f          	.word	0x0000a92f
    17dc:	00430313          	addi	x6,x6,4

# Testcase cr_rs1_rs2_edges (Test source rs1 = 0x00000001 rs2 = 0x80000000)
  RVTEST_TESTDATA_LOAD_INT(x11, x29) # load rs1: x29 = 0x00000001
    17e0:	0005ae83          	lw	x29,0(x11)
    17e4:	00458593          	addi	x11,x11,4
  RVTEST_TESTDATA_LOAD_INT(x11, x2) # load rs2: x2 = 0x80000000
    17e8:	0005a103          	lw	x2,0(x11)
    17ec:	00458593          	addi	x11,x11,4

000017f0 <I_sltu_cg_cr_rs1_rs2_edges_rs1val_0x1_rs2val_0x80000000>:
I_sltu_cg_cr_rs1_rs2_edges_rs1val_0x1_rs2val_0x80000000:
  sltu x24, x29, x2 # perform operation
    17f0:	002ebc33          	sltu	x24,x29,x2
  # Check if x24 contains the expected result. x6 is the signature ptr, x5 is the link ptr, x4 is a temp reg.
  RVTEST_SIGUPD(x6, x5, x4, x24, I_sltu_cg_cr_rs1_rs2_edges_rs1val_0x1_rs2val_0x80000000, I_sltu_cg_cr_rs1_rs2_edges_rs1val_0x1_rs2val_0x80000000_str)
    17f4:	00032203          	lw	x4,0(x6)
    17f8:	01820863          	beq	x4,x24,1808 <I_sltu_cg_cr_rs1_rs2_edges_rs1val_0x1_rs2val_0x80000000+0x18>
    17fc:	501022ef          	jal	x5,44fc <failedtest_x5_x4>
    1800:	000017f0          	.word	0x000017f0
    1804:	0000a97d          	.word	0x0000a97d
    1808:	00430313          	addi	x6,x6,4

# Testcase cr_rs1_rs2_edges (Test source rs1 = 0x00000001 rs2 = 0x80000001)
  RVTEST_TESTDATA_LOAD_INT(x11, x30) # load rs1: x30 = 0x00000001
    180c:	0005af03          	lw	x30,0(x11)
    1810:	00458593          	addi	x11,x11,4
  RVTEST_TESTDATA_LOAD_INT(x11, x17) # load rs2: x17 = 0x80000001
    1814:	0005a883          	lw	x17,0(x11)
    1818:	00458593          	addi	x11,x11,4

0000181c <I_sltu_cg_cr_rs1_rs2_edges_rs1val_0x1_rs2val_0x80000001>:
I_sltu_cg_cr_rs1_rs2_edges_rs1val_0x1_rs2val_0x80000001:
  sltu x25, x30, x17 # perform operation
    181c:	011f3cb3          	sltu	x25,x30,x17
  # Check if x25 contains the expected result. x6 is the signature ptr, x5 is the link ptr, x4 is a temp reg.
  RVTEST_SIGUPD(x6, x5, x4, x25, I_sltu_cg_cr_rs1_rs2_edges_rs1val_0x1_rs2val_0x80000001, I_sltu_cg_cr_rs1_rs2_edges_rs1val_0x1_rs2val_0x80000001_str)
    1820:	00032203          	lw	x4,0(x6)
    1824:	01920863          	beq	x4,x25,1834 <I_sltu_cg_cr_rs1_rs2_edges_rs1val_0x1_rs2val_0x80000001+0x18>
    1828:	4d5022ef          	jal	x5,44fc <failedtest_x5_x4>
    182c:	0000181c          	.word	0x0000181c
    1830:	0000a9d2          	.word	0x0000a9d2
    1834:	00430313          	addi	x6,x6,4

# Testcase cr_rs1_rs2_edges (Test source rs1 = 0x00000001 rs2 = 0x7fffffff)
  RVTEST_TESTDATA_LOAD_INT(x11, x22) # load rs1: x22 = 0x00000001
    1838:	0005ab03          	lw	x22,0(x11)
    183c:	00458593          	addi	x11,x11,4
  RVTEST_TESTDATA_LOAD_INT(x11, x17) # load rs2: x17 = 0x7fffffff
    1840:	0005a883          	lw	x17,0(x11)
    1844:	00458593          	addi	x11,x11,4

00001848 <I_sltu_cg_cr_rs1_rs2_edges_rs1val_0x1_rs2val_0x7fffffff>:
I_sltu_cg_cr_rs1_rs2_edges_rs1val_0x1_rs2val_0x7fffffff:
  sltu x9, x22, x17 # perform operation
    1848:	011b34b3          	sltu	x9,x22,x17
  # Check if x9 contains the expected result. x6 is the signature ptr, x5 is the link ptr, x4 is a temp reg.
  RVTEST_SIGUPD(x6, x5, x4, x9, I_sltu_cg_cr_rs1_rs2_edges_rs1val_0x1_rs2val_0x7fffffff, I_sltu_cg_cr_rs1_rs2_edges_rs1val_0x1_rs2val_0x7fffffff_str)
    184c:	00032203          	lw	x4,0(x6)
    1850:	00920863          	beq	x4,x9,1860 <I_sltu_cg_cr_rs1_rs2_edges_rs1val_0x1_rs2val_0x7fffffff+0x18>
    1854:	4a9022ef          	jal	x5,44fc <failedtest_x5_x4>
    1858:	00001848          	.word	0x00001848
    185c:	0000aa27          	.word	0x0000aa27
    1860:	00430313          	addi	x6,x6,4

# Testcase cr_rs1_rs2_edges (Test source rs1 = 0x00000001 rs2 = 0x7ffffffe)
  RVTEST_TESTDATA_LOAD_INT(x11, x23) # load rs1: x23 = 0x00000001
    1864:	0005ab83          	lw	x23,0(x11)
    1868:	00458593          	addi	x11,x11,4
  RVTEST_TESTDATA_LOAD_INT(x11, x2) # load rs2: x2 = 0x7ffffffe
    186c:	0005a103          	lw	x2,0(x11)
    1870:	00458593          	addi	x11,x11,4

00001874 <I_sltu_cg_cr_rs1_rs2_edges_rs1val_0x1_rs2val_0x7ffffffe>:
I_sltu_cg_cr_rs1_rs2_edges_rs1val_0x1_rs2val_0x7ffffffe:
  sltu x29, x23, x2 # perform operation
    1874:	002bbeb3          	sltu	x29,x23,x2
  # Check if x29 contains the expected result. x6 is the signature ptr, x5 is the link ptr, x4 is a temp reg.
  RVTEST_SIGUPD(x6, x5, x4, x29, I_sltu_cg_cr_rs1_rs2_edges_rs1val_0x1_rs2val_0x7ffffffe, I_sltu_cg_cr_rs1_rs2_edges_rs1val_0x1_rs2val_0x7ffffffe_str)
    1878:	00032203          	lw	x4,0(x6)
    187c:	01d20863          	beq	x4,x29,188c <I_sltu_cg_cr_rs1_rs2_edges_rs1val_0x1_rs2val_0x7ffffffe+0x18>
    1880:	47d022ef          	jal	x5,44fc <failedtest_x5_x4>
    1884:	00001874          	.word	0x00001874
    1888:	0000aa7c          	.word	0x0000aa7c
    188c:	00430313          	addi	x6,x6,4

# Testcase cr_rs1_rs2_edges (Test source rs1 = 0x00000001 rs2 = 0xffffffff)
  RVTEST_TESTDATA_LOAD_INT(x11, x9) # load rs1: x9 = 0x00000001
    1890:	0005a483          	lw	x9,0(x11)
    1894:	00458593          	addi	x11,x11,4
  RVTEST_TESTDATA_LOAD_INT(x11, x23) # load rs2: x23 = 0xffffffff
    1898:	0005ab83          	lw	x23,0(x11)
    189c:	00458593          	addi	x11,x11,4

000018a0 <I_sltu_cg_cr_rs1_rs2_edges_rs1val_0x1_rs2val_0xffffffff>:
I_sltu_cg_cr_rs1_rs2_edges_rs1val_0x1_rs2val_0xffffffff:
  sltu x14, x9, x23 # perform operation
    18a0:	0174b733          	sltu	x14,x9,x23
  # Check if x14 contains the expected result. x6 is the signature ptr, x5 is the link ptr, x4 is a temp reg.
  RVTEST_SIGUPD(x6, x5, x4, x14, I_sltu_cg_cr_rs1_rs2_edges_rs1val_0x1_rs2val_0xffffffff, I_sltu_cg_cr_rs1_rs2_edges_rs1val_0x1_rs2val_0xffffffff_str)
    18a4:	00032203          	lw	x4,0(x6)
    18a8:	00e20863          	beq	x4,x14,18b8 <I_sltu_cg_cr_rs1_rs2_edges_rs1val_0x1_rs2val_0xffffffff+0x18>
    18ac:	451022ef          	jal	x5,44fc <failedtest_x5_x4>
    18b0:	000018a0          	.word	0x000018a0
    18b4:	0000aad1          	.word	0x0000aad1
    18b8:	00430313          	addi	x6,x6,4

# Testcase cr_rs1_rs2_edges (Test source rs1 = 0x00000001 rs2 = 0xfffffffe)
  RVTEST_TESTDATA_LOAD_INT(x11, x17) # load rs1: x17 = 0x00000001
    18bc:	0005a883          	lw	x17,0(x11)
    18c0:	00458593          	addi	x11,x11,4
  RVTEST_TESTDATA_LOAD_INT(x11, x7) # load rs2: x7 = 0xfffffffe
    18c4:	0005a383          	lw	x7,0(x11)
    18c8:	00458593          	addi	x11,x11,4

000018cc <I_sltu_cg_cr_rs1_rs2_edges_rs1val_0x1_rs2val_0xfffffffe>:
I_sltu_cg_cr_rs1_rs2_edges_rs1val_0x1_rs2val_0xfffffffe:
  sltu x3, x17, x7 # perform operation
    18cc:	0078b1b3          	sltu	x3,x17,x7
  # Check if x3 contains the expected result. x6 is the signature ptr, x5 is the link ptr, x4 is a temp reg.
  RVTEST_SIGUPD(x6, x5, x4, x3, I_sltu_cg_cr_rs1_rs2_edges_rs1val_0x1_rs2val_0xfffffffe, I_sltu_cg_cr_rs1_rs2_edges_rs1val_0x1_rs2val_0xfffffffe_str)
    18d0:	00032203          	lw	x4,0(x6)
    18d4:	00320863          	beq	x4,x3,18e4 <I_sltu_cg_cr_rs1_rs2_edges_rs1val_0x1_rs2val_0xfffffffe+0x18>
    18d8:	425022ef          	jal	x5,44fc <failedtest_x5_x4>
    18dc:	000018cc          	.word	0x000018cc
    18e0:	0000ab26          	.word	0x0000ab26
    18e4:	00430313          	addi	x6,x6,4

# Testcase cr_rs1_rs2_edges (Test source rs1 = 0x00000001 rs2 = 0x5bbc8872)
  RVTEST_TESTDATA_LOAD_INT(x11, x12) # load rs1: x12 = 0x00000001
    18e8:	0005a603          	lw	x12,0(x11)
    18ec:	00458593          	addi	x11,x11,4
  RVTEST_TESTDATA_LOAD_INT(x11, x9) # load rs2: x9 = 0x5bbc8872
    18f0:	0005a483          	lw	x9,0(x11)
    18f4:	00458593          	addi	x11,x11,4

000018f8 <I_sltu_cg_cr_rs1_rs2_edges_rs1val_0x1_rs2val_0x5bbc8872>:
I_sltu_cg_cr_rs1_rs2_edges_rs1val_0x1_rs2val_0x5bbc8872:
  sltu x7, x12, x9 # perform operation
    18f8:	009633b3          	sltu	x7,x12,x9
  # Check if x7 contains the expected result. x6 is the signature ptr, x5 is the link ptr, x4 is a temp reg.
  RVTEST_SIGUPD(x6, x5, x4, x7, I_sltu_cg_cr_rs1_rs2_edges_rs1val_0x1_rs2val_0x5bbc8872, I_sltu_cg_cr_rs1_rs2_edges_rs1val_0x1_rs2val_0x5bbc8872_str)
    18fc:	00032203          	lw	x4,0(x6)
    1900:	00720863          	beq	x4,x7,1910 <I_sltu_cg_cr_rs1_rs2_edges_rs1val_0x1_rs2val_0x5bbc8872+0x18>
    1904:	3f9022ef          	jal	x5,44fc <failedtest_x5_x4>
    1908:	000018f8          	.word	0x000018f8
    190c:	0000ab7b          	.word	0x0000ab7b
    1910:	00430313          	addi	x6,x6,4

# Testcase cr_rs1_rs2_edges (Test source rs1 = 0x00000001 rs2 = 0xaaaaaaaa)
  RVTEST_TESTDATA_LOAD_INT(x11, x18) # load rs1: x18 = 0x00000001
    1914:	0005a903          	lw	x18,0(x11)
    1918:	00458593          	addi	x11,x11,4
  RVTEST_TESTDATA_LOAD_INT(x11, x26) # load rs2: x26 = 0xaaaaaaaa
    191c:	0005ad03          	lw	x26,0(x11)
    1920:	00458593          	addi	x11,x11,4

00001924 <I_sltu_cg_cr_rs1_rs2_edges_rs1val_0x1_rs2val_0xaaaaaaaa>:
I_sltu_cg_cr_rs1_rs2_edges_rs1val_0x1_rs2val_0xaaaaaaaa:
  sltu x22, x18, x26 # perform operation
    1924:	01a93b33          	sltu	x22,x18,x26
  # Check if x22 contains the expected result. x6 is the signature ptr, x5 is the link ptr, x4 is a temp reg.
  RVTEST_SIGUPD(x6, x5, x4, x22, I_sltu_cg_cr_rs1_rs2_edges_rs1val_0x1_rs2val_0xaaaaaaaa, I_sltu_cg_cr_rs1_rs2_edges_rs1val_0x1_rs2val_0xaaaaaaaa_str)
    1928:	00032203          	lw	x4,0(x6)
    192c:	01620863          	beq	x4,x22,193c <I_sltu_cg_cr_rs1_rs2_edges_rs1val_0x1_rs2val_0xaaaaaaaa+0x18>
    1930:	3cd022ef          	jal	x5,44fc <failedtest_x5_x4>
    1934:	00001924          	.word	0x00001924
    1938:	0000abd0          	.word	0x0000abd0
    193c:	00430313          	addi	x6,x6,4

# Testcase cr_rs1_rs2_edges (Test source rs1 = 0x00000001 rs2 = 0x55555555)
  RVTEST_TESTDATA_LOAD_INT(x11, x2) # load rs1: x2 = 0x00000001
    1940:	0005a103          	lw	x2,0(x11)
    1944:	00458593          	addi	x11,x11,4
  RVTEST_TESTDATA_LOAD_INT(x11, x17) # load rs2: x17 = 0x55555555
    1948:	0005a883          	lw	x17,0(x11)
    194c:	00458593          	addi	x11,x11,4

00001950 <I_sltu_cg_cr_rs1_rs2_edges_rs1val_0x1_rs2val_0x55555555>:
I_sltu_cg_cr_rs1_rs2_edges_rs1val_0x1_rs2val_0x55555555:
  sltu x24, x2, x17 # perform operation
    1950:	01113c33          	sltu	x24,x2,x17
  # Check if x24 contains the expected result. x6 is the signature ptr, x5 is the link ptr, x4 is a temp reg.
  RVTEST_SIGUPD(x6, x5, x4, x24, I_sltu_cg_cr_rs1_rs2_edges_rs1val_0x1_rs2val_0x55555555, I_sltu_cg_cr_rs1_rs2_edges_rs1val_0x1_rs2val_0x55555555_str)
    1954:	00032203          	lw	x4,0(x6)
    1958:	01820863          	beq	x4,x24,1968 <I_sltu_cg_cr_rs1_rs2_edges_rs1val_0x1_rs2val_0x55555555+0x18>
    195c:	3a1022ef          	jal	x5,44fc <failedtest_x5_x4>
    1960:	00001950          	.word	0x00001950
    1964:	0000ac25          	.word	0x0000ac25
    1968:	00430313          	addi	x6,x6,4

# Testcase cr_rs1_rs2_edges (Test source rs1 = 0x00000002 rs2 = 0x00000000)
  RVTEST_TESTDATA_LOAD_INT(x11, x12) # load rs1: x12 = 0x00000002
    196c:	0005a603          	lw	x12,0(x11)
    1970:	00458593          	addi	x11,x11,4
  RVTEST_TESTDATA_LOAD_INT(x11, x3) # load rs2: x3 = 0x00000000
    1974:	0005a183          	lw	x3,0(x11)
    1978:	00458593          	addi	x11,x11,4

0000197c <I_sltu_cg_cr_rs1_rs2_edges_rs1val_0x2_rs2val_0x0>:
I_sltu_cg_cr_rs1_rs2_edges_rs1val_0x2_rs2val_0x0:
  sltu x13, x12, x3 # perform operation
    197c:	003636b3          	sltu	x13,x12,x3
  # Check if x13 contains the expected result. x6 is the signature ptr, x5 is the link ptr, x4 is a temp reg.
  RVTEST_SIGUPD(x6, x5, x4, x13, I_sltu_cg_cr_rs1_rs2_edges_rs1val_0x2_rs2val_0x0, I_sltu_cg_cr_rs1_rs2_edges_rs1val_0x2_rs2val_0x0_str)
    1980:	00032203          	lw	x4,0(x6)
    1984:	00d20863          	beq	x4,x13,1994 <I_sltu_cg_cr_rs1_rs2_edges_rs1val_0x2_rs2val_0x0+0x18>
    1988:	375022ef          	jal	x5,44fc <failedtest_x5_x4>
    198c:	0000197c          	.word	0x0000197c
    1990:	0000ac7a          	.word	0x0000ac7a
    1994:	00430313          	addi	x6,x6,4

# Testcase cr_rs1_rs2_edges (Test source rs1 = 0x00000002 rs2 = 0x00000001)
  RVTEST_TESTDATA_LOAD_INT(x11, x31) # load rs1: x31 = 0x00000002
    1998:	0005af83          	lw	x31,0(x11)
    199c:	00458593          	addi	x11,x11,4
  RVTEST_TESTDATA_LOAD_INT(x11, x7) # load rs2: x7 = 0x00000001
    19a0:	0005a383          	lw	x7,0(x11)
    19a4:	00458593          	addi	x11,x11,4

000019a8 <I_sltu_cg_cr_rs1_rs2_edges_rs1val_0x2_rs2val_0x1>:
I_sltu_cg_cr_rs1_rs2_edges_rs1val_0x2_rs2val_0x1:
  sltu x29, x31, x7 # perform operation
    19a8:	007fbeb3          	sltu	x29,x31,x7
  # Check if x29 contains the expected result. x6 is the signature ptr, x5 is the link ptr, x4 is a temp reg.
  RVTEST_SIGUPD(x6, x5, x4, x29, I_sltu_cg_cr_rs1_rs2_edges_rs1val_0x2_rs2val_0x1, I_sltu_cg_cr_rs1_rs2_edges_rs1val_0x2_rs2val_0x1_str)
    19ac:	00032203          	lw	x4,0(x6)
    19b0:	01d20863          	beq	x4,x29,19c0 <I_sltu_cg_cr_rs1_rs2_edges_rs1val_0x2_rs2val_0x1+0x18>
    19b4:	349022ef          	jal	x5,44fc <failedtest_x5_x4>
    19b8:	000019a8          	.word	0x000019a8
    19bc:	0000acc8          	.word	0x0000acc8
    19c0:	00430313          	addi	x6,x6,4

# Testcase cr_rs1_rs2_edges (Test source rs1 = 0x00000002 rs2 = 0x00000002)
  RVTEST_TESTDATA_LOAD_INT(x11, x13) # load rs1: x13 = 0x00000002
    19c4:	0005a683          	lw	x13,0(x11)
    19c8:	00458593          	addi	x11,x11,4
  RVTEST_TESTDATA_LOAD_INT(x11, x26) # load rs2: x26 = 0x00000002
    19cc:	0005ad03          	lw	x26,0(x11)
    19d0:	00458593          	addi	x11,x11,4

000019d4 <I_sltu_cg_cr_rs1_rs2_edges_rs1val_0x2_rs2val_0x2>:
I_sltu_cg_cr_rs1_rs2_edges_rs1val_0x2_rs2val_0x2:
  sltu x21, x13, x26 # perform operation
    19d4:	01a6bab3          	sltu	x21,x13,x26
  # Check if x21 contains the expected result. x6 is the signature ptr, x5 is the link ptr, x4 is a temp reg.
  RVTEST_SIGUPD(x6, x5, x4, x21, I_sltu_cg_cr_rs1_rs2_edges_rs1val_0x2_rs2val_0x2, I_sltu_cg_cr_rs1_rs2_edges_rs1val_0x2_rs2val_0x2_str)
    19d8:	00032203          	lw	x4,0(x6)
    19dc:	01520863          	beq	x4,x21,19ec <I_sltu_cg_cr_rs1_rs2_edges_rs1val_0x2_rs2val_0x2+0x18>
    19e0:	31d022ef          	jal	x5,44fc <failedtest_x5_x4>
    19e4:	000019d4          	.word	0x000019d4
    19e8:	0000ad16          	.word	0x0000ad16
    19ec:	00430313          	addi	x6,x6,4

# Testcase cr_rs1_rs2_edges (Test source rs1 = 0x00000002 rs2 = 0x80000000)
  RVTEST_TESTDATA_LOAD_INT(x11, x13) # load rs1: x13 = 0x00000002
    19f0:	0005a683          	lw	x13,0(x11)
    19f4:	00458593          	addi	x11,x11,4
  RVTEST_TESTDATA_LOAD_INT(x11, x31) # load rs2: x31 = 0x80000000
    19f8:	0005af83          	lw	x31,0(x11)
    19fc:	00458593          	addi	x11,x11,4

00001a00 <I_sltu_cg_cr_rs1_rs2_edges_rs1val_0x2_rs2val_0x80000000>:
I_sltu_cg_cr_rs1_rs2_edges_rs1val_0x2_rs2val_0x80000000:
  sltu x3, x13, x31 # perform operation
    1a00:	01f6b1b3          	sltu	x3,x13,x31
  # Check if x3 contains the expected result. x6 is the signature ptr, x5 is the link ptr, x4 is a temp reg.
  RVTEST_SIGUPD(x6, x5, x4, x3, I_sltu_cg_cr_rs1_rs2_edges_rs1val_0x2_rs2val_0x80000000, I_sltu_cg_cr_rs1_rs2_edges_rs1val_0x2_rs2val_0x80000000_str)
    1a04:	00032203          	lw	x4,0(x6)
    1a08:	00320863          	beq	x4,x3,1a18 <I_sltu_cg_cr_rs1_rs2_edges_rs1val_0x2_rs2val_0x80000000+0x18>
    1a0c:	2f1022ef          	jal	x5,44fc <failedtest_x5_x4>
    1a10:	00001a00          	.word	0x00001a00
    1a14:	0000ad64          	.word	0x0000ad64
    1a18:	00430313          	addi	x6,x6,4

# Testcase cr_rs1_rs2_edges (Test source rs1 = 0x00000002 rs2 = 0x80000001)
  RVTEST_TESTDATA_LOAD_INT(x11, x16) # load rs1: x16 = 0x00000002
    1a1c:	0005a803          	lw	x16,0(x11)
    1a20:	00458593          	addi	x11,x11,4
  RVTEST_TESTDATA_LOAD_INT(x11, x27) # load rs2: x27 = 0x80000001
    1a24:	0005ad83          	lw	x27,0(x11)
    1a28:	00458593          	addi	x11,x11,4

00001a2c <I_sltu_cg_cr_rs1_rs2_edges_rs1val_0x2_rs2val_0x80000001>:
I_sltu_cg_cr_rs1_rs2_edges_rs1val_0x2_rs2val_0x80000001:
  sltu x19, x16, x27 # perform operation
    1a2c:	01b839b3          	sltu	x19,x16,x27
  # Check if x19 contains the expected result. x6 is the signature ptr, x5 is the link ptr, x4 is a temp reg.
  RVTEST_SIGUPD(x6, x5, x4, x19, I_sltu_cg_cr_rs1_rs2_edges_rs1val_0x2_rs2val_0x80000001, I_sltu_cg_cr_rs1_rs2_edges_rs1val_0x2_rs2val_0x80000001_str)
    1a30:	00032203          	lw	x4,0(x6)
    1a34:	01320863          	beq	x4,x19,1a44 <I_sltu_cg_cr_rs1_rs2_edges_rs1val_0x2_rs2val_0x80000001+0x18>
    1a38:	2c5022ef          	jal	x5,44fc <failedtest_x5_x4>
    1a3c:	00001a2c          	.word	0x00001a2c
    1a40:	0000adb9          	.word	0x0000adb9
    1a44:	00430313          	addi	x6,x6,4

# Testcase cr_rs1_rs2_edges (Test source rs1 = 0x00000002 rs2 = 0x7fffffff)
  RVTEST_TESTDATA_LOAD_INT(x11, x30) # load rs1: x30 = 0x00000002
    1a48:	0005af03          	lw	x30,0(x11)
    1a4c:	00458593          	addi	x11,x11,4
  RVTEST_TESTDATA_LOAD_INT(x11, x28) # load rs2: x28 = 0x7fffffff
    1a50:	0005ae03          	lw	x28,0(x11)
    1a54:	00458593          	addi	x11,x11,4

00001a58 <I_sltu_cg_cr_rs1_rs2_edges_rs1val_0x2_rs2val_0x7fffffff>:
I_sltu_cg_cr_rs1_rs2_edges_rs1val_0x2_rs2val_0x7fffffff:
  sltu x8, x30, x28 # perform operation
    1a58:	01cf3433          	sltu	x8,x30,x28
  # Check if x8 contains the expected result. x6 is the signature ptr, x5 is the link ptr, x4 is a temp reg.
  RVTEST_SIGUPD(x6, x5, x4, x8, I_sltu_cg_cr_rs1_rs2_edges_rs1val_0x2_rs2val_0x7fffffff, I_sltu_cg_cr_rs1_rs2_edges_rs1val_0x2_rs2val_0x7fffffff_str)
    1a5c:	00032203          	lw	x4,0(x6)
    1a60:	00820863          	beq	x4,x8,1a70 <I_sltu_cg_cr_rs1_rs2_edges_rs1val_0x2_rs2val_0x7fffffff+0x18>
    1a64:	299022ef          	jal	x5,44fc <failedtest_x5_x4>
    1a68:	00001a58          	.word	0x00001a58
    1a6c:	0000ae0e          	.word	0x0000ae0e
    1a70:	00430313          	addi	x6,x6,4

# Testcase cr_rs1_rs2_edges (Test source rs1 = 0x00000002 rs2 = 0x7ffffffe)
  RVTEST_TESTDATA_LOAD_INT(x11, x22) # load rs1: x22 = 0x00000002
    1a74:	0005ab03          	lw	x22,0(x11)
    1a78:	00458593          	addi	x11,x11,4
  RVTEST_TESTDATA_LOAD_INT(x11, x12) # load rs2: x12 = 0x7ffffffe
    1a7c:	0005a603          	lw	x12,0(x11)
    1a80:	00458593          	addi	x11,x11,4

00001a84 <I_sltu_cg_cr_rs1_rs2_edges_rs1val_0x2_rs2val_0x7ffffffe>:
I_sltu_cg_cr_rs1_rs2_edges_rs1val_0x2_rs2val_0x7ffffffe:
  sltu x1, x22, x12 # perform operation
    1a84:	00cb30b3          	sltu	x1,x22,x12
  # Check if x1 contains the expected result. x6 is the signature ptr, x5 is the link ptr, x4 is a temp reg.
  RVTEST_SIGUPD(x6, x5, x4, x1, I_sltu_cg_cr_rs1_rs2_edges_rs1val_0x2_rs2val_0x7ffffffe, I_sltu_cg_cr_rs1_rs2_edges_rs1val_0x2_rs2val_0x7ffffffe_str)
    1a88:	00032203          	lw	x4,0(x6)
    1a8c:	00120863          	beq	x4,x1,1a9c <I_sltu_cg_cr_rs1_rs2_edges_rs1val_0x2_rs2val_0x7ffffffe+0x18>
    1a90:	26d022ef          	jal	x5,44fc <failedtest_x5_x4>
    1a94:	00001a84          	.word	0x00001a84
    1a98:	0000ae63          	.word	0x0000ae63
    1a9c:	00430313          	addi	x6,x6,4

# Testcase cr_rs1_rs2_edges (Test source rs1 = 0x00000002 rs2 = 0xffffffff)
  RVTEST_TESTDATA_LOAD_INT(x11, x14) # load rs1: x14 = 0x00000002
    1aa0:	0005a703          	lw	x14,0(x11)
    1aa4:	00458593          	addi	x11,x11,4
  RVTEST_TESTDATA_LOAD_INT(x11, x20) # load rs2: x20 = 0xffffffff
    1aa8:	0005aa03          	lw	x20,0(x11)
    1aac:	00458593          	addi	x11,x11,4

00001ab0 <I_sltu_cg_cr_rs1_rs2_edges_rs1val_0x2_rs2val_0xffffffff>:
I_sltu_cg_cr_rs1_rs2_edges_rs1val_0x2_rs2val_0xffffffff:
  sltu x13, x14, x20 # perform operation
    1ab0:	014736b3          	sltu	x13,x14,x20
  # Check if x13 contains the expected result. x6 is the signature ptr, x5 is the link ptr, x4 is a temp reg.
  RVTEST_SIGUPD(x6, x5, x4, x13, I_sltu_cg_cr_rs1_rs2_edges_rs1val_0x2_rs2val_0xffffffff, I_sltu_cg_cr_rs1_rs2_edges_rs1val_0x2_rs2val_0xffffffff_str)
    1ab4:	00032203          	lw	x4,0(x6)
    1ab8:	00d20863          	beq	x4,x13,1ac8 <I_sltu_cg_cr_rs1_rs2_edges_rs1val_0x2_rs2val_0xffffffff+0x18>
    1abc:	241022ef          	jal	x5,44fc <failedtest_x5_x4>
    1ac0:	00001ab0          	.word	0x00001ab0
    1ac4:	0000aeb8          	.word	0x0000aeb8
    1ac8:	00430313          	addi	x6,x6,4

# Testcase cr_rs1_rs2_edges (Test source rs1 = 0x00000002 rs2 = 0xfffffffe)
  RVTEST_TESTDATA_LOAD_INT(x11, x23) # load rs1: x23 = 0x00000002
    1acc:	0005ab83          	lw	x23,0(x11)
    1ad0:	00458593          	addi	x11,x11,4
  RVTEST_TESTDATA_LOAD_INT(x11, x7) # load rs2: x7 = 0xfffffffe
    1ad4:	0005a383          	lw	x7,0(x11)
    1ad8:	00458593          	addi	x11,x11,4

00001adc <I_sltu_cg_cr_rs1_rs2_edges_rs1val_0x2_rs2val_0xfffffffe>:
I_sltu_cg_cr_rs1_rs2_edges_rs1val_0x2_rs2val_0xfffffffe:
  sltu x28, x23, x7 # perform operation
    1adc:	007bbe33          	sltu	x28,x23,x7
  # Check if x28 contains the expected result. x6 is the signature ptr, x5 is the link ptr, x4 is a temp reg.
  RVTEST_SIGUPD(x6, x5, x4, x28, I_sltu_cg_cr_rs1_rs2_edges_rs1val_0x2_rs2val_0xfffffffe, I_sltu_cg_cr_rs1_rs2_edges_rs1val_0x2_rs2val_0xfffffffe_str)
    1ae0:	00032203          	lw	x4,0(x6)
    1ae4:	01c20863          	beq	x4,x28,1af4 <I_sltu_cg_cr_rs1_rs2_edges_rs1val_0x2_rs2val_0xfffffffe+0x18>
    1ae8:	215022ef          	jal	x5,44fc <failedtest_x5_x4>
    1aec:	00001adc          	.word	0x00001adc
    1af0:	0000af0d          	.word	0x0000af0d
    1af4:	00430313          	addi	x6,x6,4

# Testcase cr_rs1_rs2_edges (Test source rs1 = 0x00000002 rs2 = 0x5bbc8872)
  RVTEST_TESTDATA_LOAD_INT(x11, x23) # load rs1: x23 = 0x00000002
    1af8:	0005ab83          	lw	x23,0(x11)
    1afc:	00458593          	addi	x11,x11,4
  RVTEST_TESTDATA_LOAD_INT(x11, x20) # load rs2: x20 = 0x5bbc8872
    1b00:	0005aa03          	lw	x20,0(x11)
    1b04:	00458593          	addi	x11,x11,4

00001b08 <I_sltu_cg_cr_rs1_rs2_edges_rs1val_0x2_rs2val_0x5bbc8872>:
I_sltu_cg_cr_rs1_rs2_edges_rs1val_0x2_rs2val_0x5bbc8872:
  sltu x9, x23, x20 # perform operation
    1b08:	014bb4b3          	sltu	x9,x23,x20
  # Check if x9 contains the expected result. x6 is the signature ptr, x5 is the link ptr, x4 is a temp reg.
  RVTEST_SIGUPD(x6, x5, x4, x9, I_sltu_cg_cr_rs1_rs2_edges_rs1val_0x2_rs2val_0x5bbc8872, I_sltu_cg_cr_rs1_rs2_edges_rs1val_0x2_rs2val_0x5bbc8872_str)
    1b0c:	00032203          	lw	x4,0(x6)
    1b10:	00920863          	beq	x4,x9,1b20 <I_sltu_cg_cr_rs1_rs2_edges_rs1val_0x2_rs2val_0x5bbc8872+0x18>
    1b14:	1e9022ef          	jal	x5,44fc <failedtest_x5_x4>
    1b18:	00001b08          	.word	0x00001b08
    1b1c:	0000af62          	.word	0x0000af62
    1b20:	00430313          	addi	x6,x6,4

# Testcase cr_rs1_rs2_edges (Test source rs1 = 0x00000002 rs2 = 0xaaaaaaaa)
  RVTEST_TESTDATA_LOAD_INT(x11, x25) # load rs1: x25 = 0x00000002
    1b24:	0005ac83          	lw	x25,0(x11)
    1b28:	00458593          	addi	x11,x11,4
  RVTEST_TESTDATA_LOAD_INT(x11, x7) # load rs2: x7 = 0xaaaaaaaa
    1b2c:	0005a383          	lw	x7,0(x11)
    1b30:	00458593          	addi	x11,x11,4

00001b34 <I_sltu_cg_cr_rs1_rs2_edges_rs1val_0x2_rs2val_0xaaaaaaaa>:
I_sltu_cg_cr_rs1_rs2_edges_rs1val_0x2_rs2val_0xaaaaaaaa:
  sltu x29, x25, x7 # perform operation
    1b34:	007cbeb3          	sltu	x29,x25,x7
  # Check if x29 contains the expected result. x6 is the signature ptr, x5 is the link ptr, x4 is a temp reg.
  RVTEST_SIGUPD(x6, x5, x4, x29, I_sltu_cg_cr_rs1_rs2_edges_rs1val_0x2_rs2val_0xaaaaaaaa, I_sltu_cg_cr_rs1_rs2_edges_rs1val_0x2_rs2val_0xaaaaaaaa_str)
    1b38:	00032203          	lw	x4,0(x6)
    1b3c:	01d20863          	beq	x4,x29,1b4c <I_sltu_cg_cr_rs1_rs2_edges_rs1val_0x2_rs2val_0xaaaaaaaa+0x18>
    1b40:	1bd022ef          	jal	x5,44fc <failedtest_x5_x4>
    1b44:	00001b34          	.word	0x00001b34
    1b48:	0000afb7          	.word	0x0000afb7
    1b4c:	00430313          	addi	x6,x6,4

# Testcase cr_rs1_rs2_edges (Test source rs1 = 0x00000002 rs2 = 0x55555555)
  RVTEST_TESTDATA_LOAD_INT(x11, x22) # load rs1: x22 = 0x00000002
    1b50:	0005ab03          	lw	x22,0(x11)
    1b54:	00458593          	addi	x11,x11,4
  RVTEST_TESTDATA_LOAD_INT(x11, x16) # load rs2: x16 = 0x55555555
    1b58:	0005a803          	lw	x16,0(x11)
    1b5c:	00458593          	addi	x11,x11,4

00001b60 <I_sltu_cg_cr_rs1_rs2_edges_rs1val_0x2_rs2val_0x55555555>:
I_sltu_cg_cr_rs1_rs2_edges_rs1val_0x2_rs2val_0x55555555:
  sltu x27, x22, x16 # perform operation
    1b60:	010b3db3          	sltu	x27,x22,x16
  # Check if x27 contains the expected result. x6 is the signature ptr, x5 is the link ptr, x4 is a temp reg.
  RVTEST_SIGUPD(x6, x5, x4, x27, I_sltu_cg_cr_rs1_rs2_edges_rs1val_0x2_rs2val_0x55555555, I_sltu_cg_cr_rs1_rs2_edges_rs1val_0x2_rs2val_0x55555555_str)
    1b64:	00032203          	lw	x4,0(x6)
    1b68:	01b20863          	beq	x4,x27,1b78 <I_sltu_cg_cr_rs1_rs2_edges_rs1val_0x2_rs2val_0x55555555+0x18>
    1b6c:	191022ef          	jal	x5,44fc <failedtest_x5_x4>
    1b70:	00001b60          	.word	0x00001b60
    1b74:	0000b00c          	.word	0x0000b00c
    1b78:	00430313          	addi	x6,x6,4

# Testcase cr_rs1_rs2_edges (Test source rs1 = 0x80000000 rs2 = 0x00000000)
  RVTEST_TESTDATA_LOAD_INT(x11, x30) # load rs1: x30 = 0x80000000
    1b7c:	0005af03          	lw	x30,0(x11)
    1b80:	00458593          	addi	x11,x11,4
  RVTEST_TESTDATA_LOAD_INT(x11, x19) # load rs2: x19 = 0x00000000
    1b84:	0005a983          	lw	x19,0(x11)
    1b88:	00458593          	addi	x11,x11,4

00001b8c <I_sltu_cg_cr_rs1_rs2_edges_rs1val_0x80000000_rs2val_0x0>:
I_sltu_cg_cr_rs1_rs2_edges_rs1val_0x80000000_rs2val_0x0:
  sltu x21, x30, x19 # perform operation
    1b8c:	013f3ab3          	sltu	x21,x30,x19
  # Check if x21 contains the expected result. x6 is the signature ptr, x5 is the link ptr, x4 is a temp reg.
  RVTEST_SIGUPD(x6, x5, x4, x21, I_sltu_cg_cr_rs1_rs2_edges_rs1val_0x80000000_rs2val_0x0, I_sltu_cg_cr_rs1_rs2_edges_rs1val_0x80000000_rs2val_0x0_str)
    1b90:	00032203          	lw	x4,0(x6)
    1b94:	01520863          	beq	x4,x21,1ba4 <I_sltu_cg_cr_rs1_rs2_edges_rs1val_0x80000000_rs2val_0x0+0x18>
    1b98:	165022ef          	jal	x5,44fc <failedtest_x5_x4>
    1b9c:	00001b8c          	.word	0x00001b8c
    1ba0:	0000b061          	.word	0x0000b061
    1ba4:	00430313          	addi	x6,x6,4

# Testcase cr_rs1_rs2_edges (Test source rs1 = 0x80000000 rs2 = 0x00000001)
  RVTEST_TESTDATA_LOAD_INT(x11, x19) # load rs1: x19 = 0x80000000
    1ba8:	0005a983          	lw	x19,0(x11)
    1bac:	00458593          	addi	x11,x11,4
  RVTEST_TESTDATA_LOAD_INT(x11, x22) # load rs2: x22 = 0x00000001
    1bb0:	0005ab03          	lw	x22,0(x11)
    1bb4:	00458593          	addi	x11,x11,4

00001bb8 <I_sltu_cg_cr_rs1_rs2_edges_rs1val_0x80000000_rs2val_0x1>:
I_sltu_cg_cr_rs1_rs2_edges_rs1val_0x80000000_rs2val_0x1:
  sltu x10, x19, x22 # perform operation
    1bb8:	0169b533          	sltu	x10,x19,x22
  # Check if x10 contains the expected result. x6 is the signature ptr, x5 is the link ptr, x4 is a temp reg.
  RVTEST_SIGUPD(x6, x5, x4, x10, I_sltu_cg_cr_rs1_rs2_edges_rs1val_0x80000000_rs2val_0x1, I_sltu_cg_cr_rs1_rs2_edges_rs1val_0x80000000_rs2val_0x1_str)
    1bbc:	00032203          	lw	x4,0(x6)
    1bc0:	00a20863          	beq	x4,x10,1bd0 <I_sltu_cg_cr_rs1_rs2_edges_rs1val_0x80000000_rs2val_0x1+0x18>
    1bc4:	139022ef          	jal	x5,44fc <failedtest_x5_x4>
    1bc8:	00001bb8          	.word	0x00001bb8
    1bcc:	0000b0b6          	.word	0x0000b0b6
    1bd0:	00430313          	addi	x6,x6,4

# Testcase cr_rs1_rs2_edges (Test source rs1 = 0x80000000 rs2 = 0x00000002)
  RVTEST_TESTDATA_LOAD_INT(x11, x3) # load rs1: x3 = 0x80000000
    1bd4:	0005a183          	lw	x3,0(x11)
    1bd8:	00458593          	addi	x11,x11,4
  RVTEST_TESTDATA_LOAD_INT(x11, x26) # load rs2: x26 = 0x00000002
    1bdc:	0005ad03          	lw	x26,0(x11)
    1be0:	00458593          	addi	x11,x11,4

00001be4 <I_sltu_cg_cr_rs1_rs2_edges_rs1val_0x80000000_rs2val_0x2>:
I_sltu_cg_cr_rs1_rs2_edges_rs1val_0x80000000_rs2val_0x2:
  sltu x20, x3, x26 # perform operation
    1be4:	01a1ba33          	sltu	x20,x3,x26
  # Check if x20 contains the expected result. x6 is the signature ptr, x5 is the link ptr, x4 is a temp reg.
  RVTEST_SIGUPD(x6, x5, x4, x20, I_sltu_cg_cr_rs1_rs2_edges_rs1val_0x80000000_rs2val_0x2, I_sltu_cg_cr_rs1_rs2_edges_rs1val_0x80000000_rs2val_0x2_str)
    1be8:	00032203          	lw	x4,0(x6)
    1bec:	01420863          	beq	x4,x20,1bfc <I_sltu_cg_cr_rs1_rs2_edges_rs1val_0x80000000_rs2val_0x2+0x18>
    1bf0:	10d022ef          	jal	x5,44fc <failedtest_x5_x4>
    1bf4:	00001be4          	.word	0x00001be4
    1bf8:	0000b10b          	.word	0x0000b10b
    1bfc:	00430313          	addi	x6,x6,4

# Testcase cr_rs1_rs2_edges (Test source rs1 = 0x80000000 rs2 = 0x80000000)
  RVTEST_TESTDATA_LOAD_INT(x11, x8) # load rs1: x8 = 0x80000000
    1c00:	0005a403          	lw	x8,0(x11)
    1c04:	00458593          	addi	x11,x11,4
  RVTEST_TESTDATA_LOAD_INT(x11, x20) # load rs2: x20 = 0x80000000
    1c08:	0005aa03          	lw	x20,0(x11)
    1c0c:	00458593          	addi	x11,x11,4

00001c10 <I_sltu_cg_cr_rs1_rs2_edges_rs1val_0x80000000_rs2val_0x80000000>:
I_sltu_cg_cr_rs1_rs2_edges_rs1val_0x80000000_rs2val_0x80000000:
  sltu x14, x8, x20 # perform operation
    1c10:	01443733          	sltu	x14,x8,x20
  # Check if x14 contains the expected result. x6 is the signature ptr, x5 is the link ptr, x4 is a temp reg.
  RVTEST_SIGUPD(x6, x5, x4, x14, I_sltu_cg_cr_rs1_rs2_edges_rs1val_0x80000000_rs2val_0x80000000, I_sltu_cg_cr_rs1_rs2_edges_rs1val_0x80000000_rs2val_0x80000000_str)
    1c14:	00032203          	lw	x4,0(x6)
    1c18:	00e20863          	beq	x4,x14,1c28 <I_sltu_cg_cr_rs1_rs2_edges_rs1val_0x80000000_rs2val_0x80000000+0x18>
    1c1c:	0e1022ef          	jal	x5,44fc <failedtest_x5_x4>
    1c20:	00001c10          	.word	0x00001c10
    1c24:	0000b160          	.word	0x0000b160
    1c28:	00430313          	addi	x6,x6,4

# Testcase cr_rs1_rs2_edges (Test source rs1 = 0x80000000 rs2 = 0x80000001)
  RVTEST_TESTDATA_LOAD_INT(x11, x22) # load rs1: x22 = 0x80000000
    1c2c:	0005ab03          	lw	x22,0(x11)
    1c30:	00458593          	addi	x11,x11,4
  RVTEST_TESTDATA_LOAD_INT(x11, x31) # load rs2: x31 = 0x80000001
    1c34:	0005af83          	lw	x31,0(x11)
    1c38:	00458593          	addi	x11,x11,4

00001c3c <I_sltu_cg_cr_rs1_rs2_edges_rs1val_0x80000000_rs2val_0x80000001>:
I_sltu_cg_cr_rs1_rs2_edges_rs1val_0x80000000_rs2val_0x80000001:
  sltu x28, x22, x31 # perform operation
    1c3c:	01fb3e33          	sltu	x28,x22,x31
  # Check if x28 contains the expected result. x6 is the signature ptr, x5 is the link ptr, x4 is a temp reg.
  RVTEST_SIGUPD(x6, x5, x4, x28, I_sltu_cg_cr_rs1_rs2_edges_rs1val_0x80000000_rs2val_0x80000001, I_sltu_cg_cr_rs1_rs2_edges_rs1val_0x80000000_rs2val_0x80000001_str)
    1c40:	00032203          	lw	x4,0(x6)
    1c44:	01c20863          	beq	x4,x28,1c54 <I_sltu_cg_cr_rs1_rs2_edges_rs1val_0x80000000_rs2val_0x80000001+0x18>
    1c48:	0b5022ef          	jal	x5,44fc <failedtest_x5_x4>
    1c4c:	00001c3c          	.word	0x00001c3c
    1c50:	0000b1bc          	.word	0x0000b1bc
    1c54:	00430313          	addi	x6,x6,4

# Testcase cr_rs1_rs2_edges (Test source rs1 = 0x80000000 rs2 = 0x7fffffff)
  RVTEST_TESTDATA_LOAD_INT(x11, x21) # load rs1: x21 = 0x80000000
    1c58:	0005aa83          	lw	x21,0(x11)
    1c5c:	00458593          	addi	x11,x11,4
  RVTEST_TESTDATA_LOAD_INT(x11, x12) # load rs2: x12 = 0x7fffffff
    1c60:	0005a603          	lw	x12,0(x11)
    1c64:	00458593          	addi	x11,x11,4

00001c68 <I_sltu_cg_cr_rs1_rs2_edges_rs1val_0x80000000_rs2val_0x7fffffff>:
I_sltu_cg_cr_rs1_rs2_edges_rs1val_0x80000000_rs2val_0x7fffffff:
  sltu x19, x21, x12 # perform operation
    1c68:	00cab9b3          	sltu	x19,x21,x12
  # Check if x19 contains the expected result. x6 is the signature ptr, x5 is the link ptr, x4 is a temp reg.
  RVTEST_SIGUPD(x6, x5, x4, x19, I_sltu_cg_cr_rs1_rs2_edges_rs1val_0x80000000_rs2val_0x7fffffff, I_sltu_cg_cr_rs1_rs2_edges_rs1val_0x80000000_rs2val_0x7fffffff_str)
    1c6c:	00032203          	lw	x4,0(x6)
    1c70:	01320863          	beq	x4,x19,1c80 <I_sltu_cg_cr_rs1_rs2_edges_rs1val_0x80000000_rs2val_0x7fffffff+0x18>
    1c74:	089022ef          	jal	x5,44fc <failedtest_x5_x4>
    1c78:	00001c68          	.word	0x00001c68
    1c7c:	0000b218          	.word	0x0000b218
    1c80:	00430313          	addi	x6,x6,4

# Testcase cr_rs1_rs2_edges (Test source rs1 = 0x80000000 rs2 = 0x7ffffffe)
  RVTEST_TESTDATA_LOAD_INT(x11, x18) # load rs1: x18 = 0x80000000
    1c84:	0005a903          	lw	x18,0(x11)
    1c88:	00458593          	addi	x11,x11,4
  RVTEST_TESTDATA_LOAD_INT(x11, x21) # load rs2: x21 = 0x7ffffffe
    1c8c:	0005aa83          	lw	x21,0(x11)
    1c90:	00458593          	addi	x11,x11,4

00001c94 <I_sltu_cg_cr_rs1_rs2_edges_rs1val_0x80000000_rs2val_0x7ffffffe>:
I_sltu_cg_cr_rs1_rs2_edges_rs1val_0x80000000_rs2val_0x7ffffffe:
  sltu x1, x18, x21 # perform operation
    1c94:	015930b3          	sltu	x1,x18,x21
  # Check if x1 contains the expected result. x6 is the signature ptr, x5 is the link ptr, x4 is a temp reg.
