
/home/dev/github/clones/riscv-arch-test/work/rv32i-core/elfs/rv32i/I/I-sltiu-00.elf:     file format elf32-littleriscv
/home/dev/github/clones/riscv-arch-test/work/rv32i-core/elfs/rv32i/I/I-sltiu-00.elf
architecture: riscv:rv32, flags 0x00000112:
EXEC_P, HAS_SYMS, D_PAGED
start address 0x00000000

Program Header:
0x70000003 off    0x0001e240 vaddr 0x00000000 paddr 0x00000000 align 2**0
         filesz 0x00000033 memsz 0x00000000 flags r--
    LOAD off    0x00001000 vaddr 0x00000000 paddr 0x00000000 align 2**12
         filesz 0x00004f20 memsz 0x00004f20 flags r-x
    LOAD off    0x00006000 vaddr 0x00008000 paddr 0x00008000 align 2**12
         filesz 0x00018240 memsz 0x00018240 flags rwx

Sections:
Idx Name          Size      VMA       LMA       File off  Algn
  0 .text.init    00000040  00000000  00000000  00001000  2**5
                  CONTENTS, ALLOC, LOAD, READONLY, CODE
  1 .text.rvtest  00004ee0  00000040  00000040  00001040  2**5
                  CONTENTS, ALLOC, LOAD, READONLY, CODE
  2 .data         00017e10  00008000  00008000  00006000  2**8
                  CONTENTS, ALLOC, LOAD, DATA
  3 .text.rvmodel 00000240  00020000  00020000  0001e000  2**5
                  CONTENTS, ALLOC, LOAD, READONLY, CODE
  4 .riscv.attributes 00000033  00000000  00000000  0001e240  2**0
                  CONTENTS, READONLY
  5 .debug_line   00001abe  00000000  00000000  0001e273  2**0
                  CONTENTS, READONLY, DEBUGGING, OCTETS
  6 .debug_line_str 0000006b  00000000  00000000  0001fd31  2**0
                  CONTENTS, READONLY, DEBUGGING, OCTETS
  7 .debug_info   00000023  00000000  00000000  0001fd9c  2**0
                  CONTENTS, READONLY, DEBUGGING, OCTETS
  8 .debug_abbrev 00000012  00000000  00000000  0001fdbf  2**0
                  CONTENTS, READONLY, DEBUGGING, OCTETS
  9 .debug_aranges 00000028  00000000  00000000  0001fdd8  2**3
                  CONTENTS, READONLY, DEBUGGING, OCTETS
 10 .debug_str    00000077  00000000  00000000  0001fe00  2**0
                  CONTENTS, READONLY, DEBUGGING, OCTETS
 11 .debug_rnglists 0000001b  00000000  00000000  0001fe77  2**0
                  CONTENTS, READONLY, DEBUGGING, OCTETS
SYMBOL TABLE:
00000000 l    d  .text.init	00000000 .text.init
00000040 l    d  .text.rvtest	00000000 .text.rvtest
00008000 l    d  .data	00000000 .data
00020000 l    d  .text.rvmodel	00000000 .text.rvmodel
00000000 l    d  .riscv.attributes	00000000 .riscv.attributes
00000000 l    d  .debug_line	00000000 .debug_line
00000000 l    d  .debug_line_str	00000000 .debug_line_str
00000000 l    d  .debug_info	00000000 .debug_info
00000000 l    d  .debug_abbrev	00000000 .debug_abbrev
00000000 l    d  .debug_aranges	00000000 .debug_aranges
00000000 l    d  .debug_str	00000000 .debug_str
00000000 l    d  .debug_rnglists	00000000 .debug_rnglists
00000000 l    df *ABS*	00000000 ccDN8dMa.o
00000003 l       *ABS*	00000000 MMODE_SIG
00000001 l       *ABS*	00000000 SMODE_SIG
00000001 l       *ABS*	00000000 HMODE_SIG
00000002 l       *ABS*	00000000 VMODE_SIG
00020000 l       .text.rvmodel	00000000 rvmodel_boot
00000048 l       .text.rvtest	00000000 I_sltiu_cg_cp_rs1_b0
0000349c l       .text.rvtest	00000000 failedtest_x5_x4
000086d0 l       .data	00000000 I_sltiu_cg_cp_rs1_b0_str
0000006c l       .text.rvtest	00000000 I_sltiu_cg_cp_rs1_b1
000086ff l       .data	00000000 I_sltiu_cg_cp_rs1_b1_str
00000094 l       .text.rvtest	00000000 I_sltiu_cg_cp_rs1_b2
0000872e l       .data	00000000 I_sltiu_cg_cp_rs1_b2_str
000000bc l       .text.rvtest	00000000 I_sltiu_cg_cp_rs1_b3
0000875d l       .data	00000000 I_sltiu_cg_cp_rs1_b3_str
000000e8 l       .text.rvtest	00000000 I_sltiu_cg_cp_rs1_b4
000034b4 l       .text.rvtest	00000000 failedtest_x8_x7
0000878c l       .data	00000000 I_sltiu_cg_cp_rs1_b4_str
0000010c l       .text.rvtest	00000000 I_sltiu_cg_cp_rs1_b5
000087bb l       .data	00000000 I_sltiu_cg_cp_rs1_b5_str
00000130 l       .text.rvtest	00000000 I_sltiu_cg_cp_rs1_b6
000087ea l       .data	00000000 I_sltiu_cg_cp_rs1_b6_str
0000015c l       .text.rvtest	00000000 I_sltiu_cg_cp_rs1_b7
00008819 l       .data	00000000 I_sltiu_cg_cp_rs1_b7_str
00000180 l       .text.rvtest	00000000 I_sltiu_cg_cp_rs1_b8
00008848 l       .data	00000000 I_sltiu_cg_cp_rs1_b8_str
000001a4 l       .text.rvtest	00000000 I_sltiu_cg_cp_rs1_b9
00008877 l       .data	00000000 I_sltiu_cg_cp_rs1_b9_str
000001c8 l       .text.rvtest	00000000 I_sltiu_cg_cp_rs1_b10
000088a7 l       .data	00000000 I_sltiu_cg_cp_rs1_b10_str
000001ec l       .text.rvtest	00000000 I_sltiu_cg_cp_rs1_b11
000088d8 l       .data	00000000 I_sltiu_cg_cp_rs1_b11_str
00000210 l       .text.rvtest	00000000 I_sltiu_cg_cp_rs1_b12
00008909 l       .data	00000000 I_sltiu_cg_cp_rs1_b12_str
00000234 l       .text.rvtest	00000000 I_sltiu_cg_cp_rs1_b13
0000893a l       .data	00000000 I_sltiu_cg_cp_rs1_b13_str
00000258 l       .text.rvtest	00000000 I_sltiu_cg_cp_rs1_b14
0000896b l       .data	00000000 I_sltiu_cg_cp_rs1_b14_str
0000027c l       .text.rvtest	00000000 I_sltiu_cg_cp_rs1_b15
0000899c l       .data	00000000 I_sltiu_cg_cp_rs1_b15_str
000002a0 l       .text.rvtest	00000000 I_sltiu_cg_cp_rs1_b16
000089cd l       .data	00000000 I_sltiu_cg_cp_rs1_b16_str
000002c4 l       .text.rvtest	00000000 I_sltiu_cg_cp_rs1_b17
000089fe l       .data	00000000 I_sltiu_cg_cp_rs1_b17_str
000002e8 l       .text.rvtest	00000000 I_sltiu_cg_cp_rs1_b18
00008a2f l       .data	00000000 I_sltiu_cg_cp_rs1_b18_str
0000030c l       .text.rvtest	00000000 I_sltiu_cg_cp_rs1_b19
00008a60 l       .data	00000000 I_sltiu_cg_cp_rs1_b19_str
00000334 l       .text.rvtest	00000000 I_sltiu_cg_cp_rs1_b20
00008a91 l       .data	00000000 I_sltiu_cg_cp_rs1_b20_str
00000358 l       .text.rvtest	00000000 I_sltiu_cg_cp_rs1_b21
00008ac2 l       .data	00000000 I_sltiu_cg_cp_rs1_b21_str
0000037c l       .text.rvtest	00000000 I_sltiu_cg_cp_rs1_b22
00008af3 l       .data	00000000 I_sltiu_cg_cp_rs1_b22_str
000003a0 l       .text.rvtest	00000000 I_sltiu_cg_cp_rs1_b23
00008b24 l       .data	00000000 I_sltiu_cg_cp_rs1_b23_str
000003c4 l       .text.rvtest	00000000 I_sltiu_cg_cp_rs1_b24
00008b55 l       .data	00000000 I_sltiu_cg_cp_rs1_b24_str
000003e8 l       .text.rvtest	00000000 I_sltiu_cg_cp_rs1_b25
00008b86 l       .data	00000000 I_sltiu_cg_cp_rs1_b25_str
0000040c l       .text.rvtest	00000000 I_sltiu_cg_cp_rs1_b26
00008bb7 l       .data	00000000 I_sltiu_cg_cp_rs1_b26_str
00000430 l       .text.rvtest	00000000 I_sltiu_cg_cp_rs1_b27
00008be8 l       .data	00000000 I_sltiu_cg_cp_rs1_b27_str
00000454 l       .text.rvtest	00000000 I_sltiu_cg_cp_rs1_b28
00008c19 l       .data	00000000 I_sltiu_cg_cp_rs1_b28_str
00000478 l       .text.rvtest	00000000 I_sltiu_cg_cp_rs1_b29
00008c4a l       .data	00000000 I_sltiu_cg_cp_rs1_b29_str
0000049c l       .text.rvtest	00000000 I_sltiu_cg_cp_rs1_b30
00008c7b l       .data	00000000 I_sltiu_cg_cp_rs1_b30_str
000004c0 l       .text.rvtest	00000000 I_sltiu_cg_cp_rs1_b31
00008cac l       .data	00000000 I_sltiu_cg_cp_rs1_b31_str
000004e4 l       .text.rvtest	00000000 I_sltiu_cg_cp_rd_b0
00008cdd l       .data	00000000 I_sltiu_cg_cp_rd_b0_str
0000050c l       .text.rvtest	00000000 I_sltiu_cg_cp_rd_b1
00008d0c l       .data	00000000 I_sltiu_cg_cp_rd_b1_str
00000530 l       .text.rvtest	00000000 I_sltiu_cg_cp_rd_b2
00008d3b l       .data	00000000 I_sltiu_cg_cp_rd_b2_str
00000554 l       .text.rvtest	00000000 I_sltiu_cg_cp_rd_b3
00008d6a l       .data	00000000 I_sltiu_cg_cp_rd_b3_str
00000580 l       .text.rvtest	00000000 I_sltiu_cg_cp_rd_b4
000034dc l       .text.rvtest	00000000 failedtest_x14_x13
00008d99 l       .data	00000000 I_sltiu_cg_cp_rd_b4_str
000005a4 l       .text.rvtest	00000000 I_sltiu_cg_cp_rd_b5
00008dc8 l       .data	00000000 I_sltiu_cg_cp_rd_b5_str
000005c8 l       .text.rvtest	00000000 I_sltiu_cg_cp_rd_b6
00008df7 l       .data	00000000 I_sltiu_cg_cp_rd_b6_str
000005ec l       .text.rvtest	00000000 I_sltiu_cg_cp_rd_b7
00008e26 l       .data	00000000 I_sltiu_cg_cp_rd_b7_str
00000610 l       .text.rvtest	00000000 I_sltiu_cg_cp_rd_b8
00008e55 l       .data	00000000 I_sltiu_cg_cp_rd_b8_str
00000638 l       .text.rvtest	00000000 I_sltiu_cg_cp_rd_b9
00008e84 l       .data	00000000 I_sltiu_cg_cp_rd_b9_str
0000065c l       .text.rvtest	00000000 I_sltiu_cg_cp_rd_b10
00008eb3 l       .data	00000000 I_sltiu_cg_cp_rd_b10_str
00000680 l       .text.rvtest	00000000 I_sltiu_cg_cp_rd_b11
00008ee3 l       .data	00000000 I_sltiu_cg_cp_rd_b11_str
000006a4 l       .text.rvtest	00000000 I_sltiu_cg_cp_rd_b12
00008f13 l       .data	00000000 I_sltiu_cg_cp_rd_b12_str
000006d0 l       .text.rvtest	00000000 I_sltiu_cg_cp_rd_b13
00008f43 l       .data	00000000 I_sltiu_cg_cp_rd_b13_str
000006f4 l       .text.rvtest	00000000 I_sltiu_cg_cp_rd_b14
00008f73 l       .data	00000000 I_sltiu_cg_cp_rd_b14_str
00000718 l       .text.rvtest	00000000 I_sltiu_cg_cp_rd_b15
00008fa3 l       .data	00000000 I_sltiu_cg_cp_rd_b15_str
0000073c l       .text.rvtest	00000000 I_sltiu_cg_cp_rd_b16
00008fd3 l       .data	00000000 I_sltiu_cg_cp_rd_b16_str
00000760 l       .text.rvtest	00000000 I_sltiu_cg_cp_rd_b17
00009003 l       .data	00000000 I_sltiu_cg_cp_rd_b17_str
00000784 l       .text.rvtest	00000000 I_sltiu_cg_cp_rd_b18
00009033 l       .data	00000000 I_sltiu_cg_cp_rd_b18_str
000007ac l       .text.rvtest	00000000 I_sltiu_cg_cp_rd_b19
00009063 l       .data	00000000 I_sltiu_cg_cp_rd_b19_str
000007d0 l       .text.rvtest	00000000 I_sltiu_cg_cp_rd_b20
00009093 l       .data	00000000 I_sltiu_cg_cp_rd_b20_str
000007f4 l       .text.rvtest	00000000 I_sltiu_cg_cp_rd_b21
000090c3 l       .data	00000000 I_sltiu_cg_cp_rd_b21_str
00000818 l       .text.rvtest	00000000 I_sltiu_cg_cp_rd_b22
000090f3 l       .data	00000000 I_sltiu_cg_cp_rd_b22_str
0000083c l       .text.rvtest	00000000 I_sltiu_cg_cp_rd_b23
00009123 l       .data	00000000 I_sltiu_cg_cp_rd_b23_str
00000860 l       .text.rvtest	00000000 I_sltiu_cg_cp_rd_b24
00009153 l       .data	00000000 I_sltiu_cg_cp_rd_b24_str
00000884 l       .text.rvtest	00000000 I_sltiu_cg_cp_rd_b25
00009183 l       .data	00000000 I_sltiu_cg_cp_rd_b25_str
000008a8 l       .text.rvtest	00000000 I_sltiu_cg_cp_rd_b26
000091b3 l       .data	00000000 I_sltiu_cg_cp_rd_b26_str
000008cc l       .text.rvtest	00000000 I_sltiu_cg_cp_rd_b27
000091e3 l       .data	00000000 I_sltiu_cg_cp_rd_b27_str
000008f0 l       .text.rvtest	00000000 I_sltiu_cg_cp_rd_b28
00009213 l       .data	00000000 I_sltiu_cg_cp_rd_b28_str
00000914 l       .text.rvtest	00000000 I_sltiu_cg_cp_rd_b29
00009243 l       .data	00000000 I_sltiu_cg_cp_rd_b29_str
00000938 l       .text.rvtest	00000000 I_sltiu_cg_cp_rd_b30
00009273 l       .data	00000000 I_sltiu_cg_cp_rd_b30_str
0000095c l       .text.rvtest	00000000 I_sltiu_cg_cp_rd_b31
000092a3 l       .data	00000000 I_sltiu_cg_cp_rd_b31_str
00000980 l       .text.rvtest	00000000 I_sltiu_cg_cp_rs1_edges_0x0
000092d3 l       .data	00000000 I_sltiu_cg_cp_rs1_edges_0x0_str
000009a4 l       .text.rvtest	00000000 I_sltiu_cg_cp_rs1_edges_0x1
0000930a l       .data	00000000 I_sltiu_cg_cp_rs1_edges_0x1_str
000009c8 l       .text.rvtest	00000000 I_sltiu_cg_cp_rs1_edges_0x2
00009341 l       .data	00000000 I_sltiu_cg_cp_rs1_edges_0x2_str
000009ec l       .text.rvtest	00000000 I_sltiu_cg_cp_rs1_edges_0x80000000
00009378 l       .data	00000000 I_sltiu_cg_cp_rs1_edges_0x80000000_str
00000a10 l       .text.rvtest	00000000 I_sltiu_cg_cp_rs1_edges_0x80000001
000093b6 l       .data	00000000 I_sltiu_cg_cp_rs1_edges_0x80000001_str
00000a34 l       .text.rvtest	00000000 I_sltiu_cg_cp_rs1_edges_0x7fffffff
000093f4 l       .data	00000000 I_sltiu_cg_cp_rs1_edges_0x7fffffff_str
00000a58 l       .text.rvtest	00000000 I_sltiu_cg_cp_rs1_edges_0x7ffffffe
00009432 l       .data	00000000 I_sltiu_cg_cp_rs1_edges_0x7ffffffe_str
00000a7c l       .text.rvtest	00000000 I_sltiu_cg_cp_rs1_edges_0xffffffff
00009470 l       .data	00000000 I_sltiu_cg_cp_rs1_edges_0xffffffff_str
00000aa0 l       .text.rvtest	00000000 I_sltiu_cg_cp_rs1_edges_0xfffffffe
000094ae l       .data	00000000 I_sltiu_cg_cp_rs1_edges_0xfffffffe_str
00000ac4 l       .text.rvtest	00000000 I_sltiu_cg_cp_rs1_edges_0x5bbc8872
000094ec l       .data	00000000 I_sltiu_cg_cp_rs1_edges_0x5bbc8872_str
00000ae8 l       .text.rvtest	00000000 I_sltiu_cg_cp_rs1_edges_0xaaaaaaaa
0000952a l       .data	00000000 I_sltiu_cg_cp_rs1_edges_0xaaaaaaaa_str
00000b0c l       .text.rvtest	00000000 I_sltiu_cg_cp_rs1_edges_0x55555555
00009568 l       .data	00000000 I_sltiu_cg_cp_rs1_edges_0x55555555_str
00000b30 l       .text.rvtest	00000000 I_sltiu_cg_cr_rs1_imm_edges_rs1val_0x0_immval_0x0
000095a6 l       .data	00000000 I_sltiu_cg_cr_rs1_imm_edges_rs1val_0x0_immval_0x0_str
00000b54 l       .text.rvtest	00000000 I_sltiu_cg_cr_rs1_imm_edges_rs1val_0x0_immval_0x1
000095f4 l       .data	00000000 I_sltiu_cg_cr_rs1_imm_edges_rs1val_0x0_immval_0x1_str
00000b78 l       .text.rvtest	00000000 I_sltiu_cg_cr_rs1_imm_edges_rs1val_0x0_immval_0x2
00009642 l       .data	00000000 I_sltiu_cg_cr_rs1_imm_edges_rs1val_0x0_immval_0x2_str
00000b9c l       .text.rvtest	00000000 I_sltiu_cg_cr_rs1_imm_edges_rs1val_0x0_immval_0x3
00009690 l       .data	00000000 I_sltiu_cg_cr_rs1_imm_edges_rs1val_0x0_immval_0x3_str
00000bc0 l       .text.rvtest	00000000 I_sltiu_cg_cr_rs1_imm_edges_rs1val_0x0_immval_0x4
000096de l       .data	00000000 I_sltiu_cg_cr_rs1_imm_edges_rs1val_0x0_immval_0x4_str
00000be4 l       .text.rvtest	00000000 I_sltiu_cg_cr_rs1_imm_edges_rs1val_0x0_immval_0x8
0000972c l       .data	00000000 I_sltiu_cg_cr_rs1_imm_edges_rs1val_0x0_immval_0x8_str
00000c08 l       .text.rvtest	00000000 I_sltiu_cg_cr_rs1_imm_edges_rs1val_0x0_immval_0x10
0000977a l       .data	00000000 I_sltiu_cg_cr_rs1_imm_edges_rs1val_0x0_immval_0x10_str
00000c2c l       .text.rvtest	00000000 I_sltiu_cg_cr_rs1_imm_edges_rs1val_0x0_immval_0x20
000097c9 l       .data	00000000 I_sltiu_cg_cr_rs1_imm_edges_rs1val_0x0_immval_0x20_str
00000c50 l       .text.rvtest	00000000 I_sltiu_cg_cr_rs1_imm_edges_rs1val_0x0_immval_0x40
00009818 l       .data	00000000 I_sltiu_cg_cr_rs1_imm_edges_rs1val_0x0_immval_0x40_str
00000c74 l       .text.rvtest	00000000 I_sltiu_cg_cr_rs1_imm_edges_rs1val_0x0_immval_0x80
00009867 l       .data	00000000 I_sltiu_cg_cr_rs1_imm_edges_rs1val_0x0_immval_0x80_str
00000c98 l       .text.rvtest	00000000 I_sltiu_cg_cr_rs1_imm_edges_rs1val_0x0_immval_0x100
000098b6 l       .data	00000000 I_sltiu_cg_cr_rs1_imm_edges_rs1val_0x0_immval_0x100_str
00000cbc l       .text.rvtest	00000000 I_sltiu_cg_cr_rs1_imm_edges_rs1val_0x0_immval_0x200
00009906 l       .data	00000000 I_sltiu_cg_cr_rs1_imm_edges_rs1val_0x0_immval_0x200_str
00000ce0 l       .text.rvtest	00000000 I_sltiu_cg_cr_rs1_imm_edges_rs1val_0x0_immval_0x3ff
00009956 l       .data	00000000 I_sltiu_cg_cr_rs1_imm_edges_rs1val_0x0_immval_0x3ff_str
00000d04 l       .text.rvtest	00000000 I_sltiu_cg_cr_rs1_imm_edges_rs1val_0x0_immval_0x400
000099a6 l       .data	00000000 I_sltiu_cg_cr_rs1_imm_edges_rs1val_0x0_immval_0x400_str
00000d28 l       .text.rvtest	00000000 I_sltiu_cg_cr_rs1_imm_edges_rs1val_0x0_immval_0x703
000099f6 l       .data	00000000 I_sltiu_cg_cr_rs1_imm_edges_rs1val_0x0_immval_0x703_str
00000d4c l       .text.rvtest	00000000 I_sltiu_cg_cr_rs1_imm_edges_rs1val_0x0_immval_0x7ff
00009a46 l       .data	00000000 I_sltiu_cg_cr_rs1_imm_edges_rs1val_0x0_immval_0x7ff_str
00000d70 l       .text.rvtest	00000000 I_sltiu_cg_cr_rs1_imm_edges_rs1val_0x0_immval_m0x800
00009a96 l       .data	00000000 I_sltiu_cg_cr_rs1_imm_edges_rs1val_0x0_immval_m0x800_str
00000d94 l       .text.rvtest	00000000 I_sltiu_cg_cr_rs1_imm_edges_rs1val_0x0_immval_m0x7ff
00009ae7 l       .data	00000000 I_sltiu_cg_cr_rs1_imm_edges_rs1val_0x0_immval_m0x7ff_str
00000db8 l       .text.rvtest	00000000 I_sltiu_cg_cr_rs1_imm_edges_rs1val_0x0_immval_m0x2
00009b38 l       .data	00000000 I_sltiu_cg_cr_rs1_imm_edges_rs1val_0x0_immval_m0x2_str
00000ddc l       .text.rvtest	00000000 I_sltiu_cg_cr_rs1_imm_edges_rs1val_0x0_immval_m0x1
00009b87 l       .data	00000000 I_sltiu_cg_cr_rs1_imm_edges_rs1val_0x0_immval_m0x1_str
00000e00 l       .text.rvtest	00000000 I_sltiu_cg_cr_rs1_imm_edges_rs1val_0x1_immval_0x0
00009bd6 l       .data	00000000 I_sltiu_cg_cr_rs1_imm_edges_rs1val_0x1_immval_0x0_str
00000e24 l       .text.rvtest	00000000 I_sltiu_cg_cr_rs1_imm_edges_rs1val_0x1_immval_0x1
00009c24 l       .data	00000000 I_sltiu_cg_cr_rs1_imm_edges_rs1val_0x1_immval_0x1_str
00000e48 l       .text.rvtest	00000000 I_sltiu_cg_cr_rs1_imm_edges_rs1val_0x1_immval_0x2
00009c72 l       .data	00000000 I_sltiu_cg_cr_rs1_imm_edges_rs1val_0x1_immval_0x2_str
00000e6c l       .text.rvtest	00000000 I_sltiu_cg_cr_rs1_imm_edges_rs1val_0x1_immval_0x3
00009cc0 l       .data	00000000 I_sltiu_cg_cr_rs1_imm_edges_rs1val_0x1_immval_0x3_str
00000e90 l       .text.rvtest	00000000 I_sltiu_cg_cr_rs1_imm_edges_rs1val_0x1_immval_0x4
00009d0f l       .data	00000000 I_sltiu_cg_cr_rs1_imm_edges_rs1val_0x1_immval_0x4_str
00000eb4 l       .text.rvtest	00000000 I_sltiu_cg_cr_rs1_imm_edges_rs1val_0x1_immval_0x8
00009d5e l       .data	00000000 I_sltiu_cg_cr_rs1_imm_edges_rs1val_0x1_immval_0x8_str
00000ed8 l       .text.rvtest	00000000 I_sltiu_cg_cr_rs1_imm_edges_rs1val_0x1_immval_0x10
00009dad l       .data	00000000 I_sltiu_cg_cr_rs1_imm_edges_rs1val_0x1_immval_0x10_str
00000efc l       .text.rvtest	00000000 I_sltiu_cg_cr_rs1_imm_edges_rs1val_0x1_immval_0x20
00009dfd l       .data	00000000 I_sltiu_cg_cr_rs1_imm_edges_rs1val_0x1_immval_0x20_str
00000f20 l       .text.rvtest	00000000 I_sltiu_cg_cr_rs1_imm_edges_rs1val_0x1_immval_0x40
00009e4d l       .data	00000000 I_sltiu_cg_cr_rs1_imm_edges_rs1val_0x1_immval_0x40_str
00000f44 l       .text.rvtest	00000000 I_sltiu_cg_cr_rs1_imm_edges_rs1val_0x1_immval_0x80
00009e9d l       .data	00000000 I_sltiu_cg_cr_rs1_imm_edges_rs1val_0x1_immval_0x80_str
00000f68 l       .text.rvtest	00000000 I_sltiu_cg_cr_rs1_imm_edges_rs1val_0x1_immval_0x100
00009eed l       .data	00000000 I_sltiu_cg_cr_rs1_imm_edges_rs1val_0x1_immval_0x100_str
00000f8c l       .text.rvtest	00000000 I_sltiu_cg_cr_rs1_imm_edges_rs1val_0x1_immval_0x200
00009f3e l       .data	00000000 I_sltiu_cg_cr_rs1_imm_edges_rs1val_0x1_immval_0x200_str
00000fb0 l       .text.rvtest	00000000 I_sltiu_cg_cr_rs1_imm_edges_rs1val_0x1_immval_0x3ff
00009f8f l       .data	00000000 I_sltiu_cg_cr_rs1_imm_edges_rs1val_0x1_immval_0x3ff_str
00000fd4 l       .text.rvtest	00000000 I_sltiu_cg_cr_rs1_imm_edges_rs1val_0x1_immval_0x400
00009fe0 l       .data	00000000 I_sltiu_cg_cr_rs1_imm_edges_rs1val_0x1_immval_0x400_str
00000ff8 l       .text.rvtest	00000000 I_sltiu_cg_cr_rs1_imm_edges_rs1val_0x1_immval_0x703
0000a031 l       .data	00000000 I_sltiu_cg_cr_rs1_imm_edges_rs1val_0x1_immval_0x703_str
0000101c l       .text.rvtest	00000000 I_sltiu_cg_cr_rs1_imm_edges_rs1val_0x1_immval_0x7ff
0000a082 l       .data	00000000 I_sltiu_cg_cr_rs1_imm_edges_rs1val_0x1_immval_0x7ff_str
00001040 l       .text.rvtest	00000000 I_sltiu_cg_cr_rs1_imm_edges_rs1val_0x1_immval_m0x800
0000a0d3 l       .data	00000000 I_sltiu_cg_cr_rs1_imm_edges_rs1val_0x1_immval_m0x800_str
00001064 l       .text.rvtest	00000000 I_sltiu_cg_cr_rs1_imm_edges_rs1val_0x1_immval_m0x7ff
0000a125 l       .data	00000000 I_sltiu_cg_cr_rs1_imm_edges_rs1val_0x1_immval_m0x7ff_str
00001088 l       .text.rvtest	00000000 I_sltiu_cg_cr_rs1_imm_edges_rs1val_0x1_immval_m0x2
0000a177 l       .data	00000000 I_sltiu_cg_cr_rs1_imm_edges_rs1val_0x1_immval_m0x2_str
000010ac l       .text.rvtest	00000000 I_sltiu_cg_cr_rs1_imm_edges_rs1val_0x1_immval_m0x1
0000a1c7 l       .data	00000000 I_sltiu_cg_cr_rs1_imm_edges_rs1val_0x1_immval_m0x1_str
000010d0 l       .text.rvtest	00000000 I_sltiu_cg_cr_rs1_imm_edges_rs1val_0x2_immval_0x0
0000a217 l       .data	00000000 I_sltiu_cg_cr_rs1_imm_edges_rs1val_0x2_immval_0x0_str
000010f4 l       .text.rvtest	00000000 I_sltiu_cg_cr_rs1_imm_edges_rs1val_0x2_immval_0x1
0000a266 l       .data	00000000 I_sltiu_cg_cr_rs1_imm_edges_rs1val_0x2_immval_0x1_str
00001118 l       .text.rvtest	00000000 I_sltiu_cg_cr_rs1_imm_edges_rs1val_0x2_immval_0x2
0000a2b5 l       .data	00000000 I_sltiu_cg_cr_rs1_imm_edges_rs1val_0x2_immval_0x2_str
0000113c l       .text.rvtest	00000000 I_sltiu_cg_cr_rs1_imm_edges_rs1val_0x2_immval_0x3
0000a304 l       .data	00000000 I_sltiu_cg_cr_rs1_imm_edges_rs1val_0x2_immval_0x3_str
00001160 l       .text.rvtest	00000000 I_sltiu_cg_cr_rs1_imm_edges_rs1val_0x2_immval_0x4
0000a353 l       .data	00000000 I_sltiu_cg_cr_rs1_imm_edges_rs1val_0x2_immval_0x4_str
00001184 l       .text.rvtest	00000000 I_sltiu_cg_cr_rs1_imm_edges_rs1val_0x2_immval_0x8
0000a3a2 l       .data	00000000 I_sltiu_cg_cr_rs1_imm_edges_rs1val_0x2_immval_0x8_str
000011a8 l       .text.rvtest	00000000 I_sltiu_cg_cr_rs1_imm_edges_rs1val_0x2_immval_0x10
0000a3f1 l       .data	00000000 I_sltiu_cg_cr_rs1_imm_edges_rs1val_0x2_immval_0x10_str
000011cc l       .text.rvtest	00000000 I_sltiu_cg_cr_rs1_imm_edges_rs1val_0x2_immval_0x20
0000a441 l       .data	00000000 I_sltiu_cg_cr_rs1_imm_edges_rs1val_0x2_immval_0x20_str
000011f0 l       .text.rvtest	00000000 I_sltiu_cg_cr_rs1_imm_edges_rs1val_0x2_immval_0x40
0000a491 l       .data	00000000 I_sltiu_cg_cr_rs1_imm_edges_rs1val_0x2_immval_0x40_str
00001214 l       .text.rvtest	00000000 I_sltiu_cg_cr_rs1_imm_edges_rs1val_0x2_immval_0x80
0000a4e1 l       .data	00000000 I_sltiu_cg_cr_rs1_imm_edges_rs1val_0x2_immval_0x80_str
00001238 l       .text.rvtest	00000000 I_sltiu_cg_cr_rs1_imm_edges_rs1val_0x2_immval_0x100
0000a531 l       .data	00000000 I_sltiu_cg_cr_rs1_imm_edges_rs1val_0x2_immval_0x100_str
0000125c l       .text.rvtest	00000000 I_sltiu_cg_cr_rs1_imm_edges_rs1val_0x2_immval_0x200
0000a582 l       .data	00000000 I_sltiu_cg_cr_rs1_imm_edges_rs1val_0x2_immval_0x200_str
00001280 l       .text.rvtest	00000000 I_sltiu_cg_cr_rs1_imm_edges_rs1val_0x2_immval_0x3ff
0000a5d3 l       .data	00000000 I_sltiu_cg_cr_rs1_imm_edges_rs1val_0x2_immval_0x3ff_str
000012a4 l       .text.rvtest	00000000 I_sltiu_cg_cr_rs1_imm_edges_rs1val_0x2_immval_0x400
0000a624 l       .data	00000000 I_sltiu_cg_cr_rs1_imm_edges_rs1val_0x2_immval_0x400_str
000012c8 l       .text.rvtest	00000000 I_sltiu_cg_cr_rs1_imm_edges_rs1val_0x2_immval_0x703
0000a675 l       .data	00000000 I_sltiu_cg_cr_rs1_imm_edges_rs1val_0x2_immval_0x703_str
000012ec l       .text.rvtest	00000000 I_sltiu_cg_cr_rs1_imm_edges_rs1val_0x2_immval_0x7ff
0000a6c6 l       .data	00000000 I_sltiu_cg_cr_rs1_imm_edges_rs1val_0x2_immval_0x7ff_str
00001310 l       .text.rvtest	00000000 I_sltiu_cg_cr_rs1_imm_edges_rs1val_0x2_immval_m0x800
0000a717 l       .data	00000000 I_sltiu_cg_cr_rs1_imm_edges_rs1val_0x2_immval_m0x800_str
00001334 l       .text.rvtest	00000000 I_sltiu_cg_cr_rs1_imm_edges_rs1val_0x2_immval_m0x7ff
0000a769 l       .data	00000000 I_sltiu_cg_cr_rs1_imm_edges_rs1val_0x2_immval_m0x7ff_str
00001358 l       .text.rvtest	00000000 I_sltiu_cg_cr_rs1_imm_edges_rs1val_0x2_immval_m0x2
0000a7bb l       .data	00000000 I_sltiu_cg_cr_rs1_imm_edges_rs1val_0x2_immval_m0x2_str
0000137c l       .text.rvtest	00000000 I_sltiu_cg_cr_rs1_imm_edges_rs1val_0x2_immval_m0x1
0000a80b l       .data	00000000 I_sltiu_cg_cr_rs1_imm_edges_rs1val_0x2_immval_m0x1_str
000013a0 l       .text.rvtest	00000000 I_sltiu_cg_cr_rs1_imm_edges_rs1val_0x80000000_immval_0x0
0000a85b l       .data	00000000 I_sltiu_cg_cr_rs1_imm_edges_rs1val_0x80000000_immval_0x0_str
000013c4 l       .text.rvtest	00000000 I_sltiu_cg_cr_rs1_imm_edges_rs1val_0x80000000_immval_0x1
0000a8b1 l       .data	00000000 I_sltiu_cg_cr_rs1_imm_edges_rs1val_0x80000000_immval_0x1_str
000013e8 l       .text.rvtest	00000000 I_sltiu_cg_cr_rs1_imm_edges_rs1val_0x80000000_immval_0x2
0000a907 l       .data	00000000 I_sltiu_cg_cr_rs1_imm_edges_rs1val_0x80000000_immval_0x2_str
0000140c l       .text.rvtest	00000000 I_sltiu_cg_cr_rs1_imm_edges_rs1val_0x80000000_immval_0x3
0000a95d l       .data	00000000 I_sltiu_cg_cr_rs1_imm_edges_rs1val_0x80000000_immval_0x3_str
00001430 l       .text.rvtest	00000000 I_sltiu_cg_cr_rs1_imm_edges_rs1val_0x80000000_immval_0x4
0000a9b3 l       .data	00000000 I_sltiu_cg_cr_rs1_imm_edges_rs1val_0x80000000_immval_0x4_str
00001454 l       .text.rvtest	00000000 I_sltiu_cg_cr_rs1_imm_edges_rs1val_0x80000000_immval_0x8
0000aa09 l       .data	00000000 I_sltiu_cg_cr_rs1_imm_edges_rs1val_0x80000000_immval_0x8_str
00001478 l       .text.rvtest	00000000 I_sltiu_cg_cr_rs1_imm_edges_rs1val_0x80000000_immval_0x10
0000aa5f l       .data	00000000 I_sltiu_cg_cr_rs1_imm_edges_rs1val_0x80000000_immval_0x10_str
0000149c l       .text.rvtest	00000000 I_sltiu_cg_cr_rs1_imm_edges_rs1val_0x80000000_immval_0x20
0000aab6 l       .data	00000000 I_sltiu_cg_cr_rs1_imm_edges_rs1val_0x80000000_immval_0x20_str
000014c0 l       .text.rvtest	00000000 I_sltiu_cg_cr_rs1_imm_edges_rs1val_0x80000000_immval_0x40
0000ab0d l       .data	00000000 I_sltiu_cg_cr_rs1_imm_edges_rs1val_0x80000000_immval_0x40_str
000014e4 l       .text.rvtest	00000000 I_sltiu_cg_cr_rs1_imm_edges_rs1val_0x80000000_immval_0x80
0000ab64 l       .data	00000000 I_sltiu_cg_cr_rs1_imm_edges_rs1val_0x80000000_immval_0x80_str
00001508 l       .text.rvtest	00000000 I_sltiu_cg_cr_rs1_imm_edges_rs1val_0x80000000_immval_0x100
0000abbb l       .data	00000000 I_sltiu_cg_cr_rs1_imm_edges_rs1val_0x80000000_immval_0x100_str
0000152c l       .text.rvtest	00000000 I_sltiu_cg_cr_rs1_imm_edges_rs1val_0x80000000_immval_0x200
0000ac13 l       .data	00000000 I_sltiu_cg_cr_rs1_imm_edges_rs1val_0x80000000_immval_0x200_str
00001550 l       .text.rvtest	00000000 I_sltiu_cg_cr_rs1_imm_edges_rs1val_0x80000000_immval_0x3ff
0000ac6b l       .data	00000000 I_sltiu_cg_cr_rs1_imm_edges_rs1val_0x80000000_immval_0x3ff_str
00001574 l       .text.rvtest	00000000 I_sltiu_cg_cr_rs1_imm_edges_rs1val_0x80000000_immval_0x400
0000acc3 l       .data	00000000 I_sltiu_cg_cr_rs1_imm_edges_rs1val_0x80000000_immval_0x400_str
00001598 l       .text.rvtest	00000000 I_sltiu_cg_cr_rs1_imm_edges_rs1val_0x80000000_immval_0x703
0000ad1b l       .data	00000000 I_sltiu_cg_cr_rs1_imm_edges_rs1val_0x80000000_immval_0x703_str
000015bc l       .text.rvtest	00000000 I_sltiu_cg_cr_rs1_imm_edges_rs1val_0x80000000_immval_0x7ff
0000ad73 l       .data	00000000 I_sltiu_cg_cr_rs1_imm_edges_rs1val_0x80000000_immval_0x7ff_str
000015e0 l       .text.rvtest	00000000 I_sltiu_cg_cr_rs1_imm_edges_rs1val_0x80000000_immval_m0x800
0000adcb l       .data	00000000 I_sltiu_cg_cr_rs1_imm_edges_rs1val_0x80000000_immval_m0x800_str
00001604 l       .text.rvtest	00000000 I_sltiu_cg_cr_rs1_imm_edges_rs1val_0x80000000_immval_m0x7ff
0000ae24 l       .data	00000000 I_sltiu_cg_cr_rs1_imm_edges_rs1val_0x80000000_immval_m0x7ff_str
00001628 l       .text.rvtest	00000000 I_sltiu_cg_cr_rs1_imm_edges_rs1val_0x80000000_immval_m0x2
0000ae7d l       .data	00000000 I_sltiu_cg_cr_rs1_imm_edges_rs1val_0x80000000_immval_m0x2_str
0000164c l       .text.rvtest	00000000 I_sltiu_cg_cr_rs1_imm_edges_rs1val_0x80000000_immval_m0x1
0000aed4 l       .data	00000000 I_sltiu_cg_cr_rs1_imm_edges_rs1val_0x80000000_immval_m0x1_str
00001670 l       .text.rvtest	00000000 I_sltiu_cg_cr_rs1_imm_edges_rs1val_0x80000001_immval_0x0
0000af2b l       .data	00000000 I_sltiu_cg_cr_rs1_imm_edges_rs1val_0x80000001_immval_0x0_str
00001694 l       .text.rvtest	00000000 I_sltiu_cg_cr_rs1_imm_edges_rs1val_0x80000001_immval_0x1
0000af81 l       .data	00000000 I_sltiu_cg_cr_rs1_imm_edges_rs1val_0x80000001_immval_0x1_str
000016b8 l       .text.rvtest	00000000 I_sltiu_cg_cr_rs1_imm_edges_rs1val_0x80000001_immval_0x2
0000afd7 l       .data	00000000 I_sltiu_cg_cr_rs1_imm_edges_rs1val_0x80000001_immval_0x2_str
000016dc l       .text.rvtest	00000000 I_sltiu_cg_cr_rs1_imm_edges_rs1val_0x80000001_immval_0x3
0000b02d l       .data	00000000 I_sltiu_cg_cr_rs1_imm_edges_rs1val_0x80000001_immval_0x3_str
00001700 l       .text.rvtest	00000000 I_sltiu_cg_cr_rs1_imm_edges_rs1val_0x80000001_immval_0x4
0000b083 l       .data	00000000 I_sltiu_cg_cr_rs1_imm_edges_rs1val_0x80000001_immval_0x4_str
00001724 l       .text.rvtest	00000000 I_sltiu_cg_cr_rs1_imm_edges_rs1val_0x80000001_immval_0x8
0000b0d9 l       .data	00000000 I_sltiu_cg_cr_rs1_imm_edges_rs1val_0x80000001_immval_0x8_str
00001748 l       .text.rvtest	00000000 I_sltiu_cg_cr_rs1_imm_edges_rs1val_0x80000001_immval_0x10
0000b12f l       .data	00000000 I_sltiu_cg_cr_rs1_imm_edges_rs1val_0x80000001_immval_0x10_str
0000176c l       .text.rvtest	00000000 I_sltiu_cg_cr_rs1_imm_edges_rs1val_0x80000001_immval_0x20
0000b186 l       .data	00000000 I_sltiu_cg_cr_rs1_imm_edges_rs1val_0x80000001_immval_0x20_str
00001790 l       .text.rvtest	00000000 I_sltiu_cg_cr_rs1_imm_edges_rs1val_0x80000001_immval_0x40
0000b1dd l       .data	00000000 I_sltiu_cg_cr_rs1_imm_edges_rs1val_0x80000001_immval_0x40_str
000017b4 l       .text.rvtest	00000000 I_sltiu_cg_cr_rs1_imm_edges_rs1val_0x80000001_immval_0x80
0000b234 l       .data	00000000 I_sltiu_cg_cr_rs1_imm_edges_rs1val_0x80000001_immval_0x80_str
000017d8 l       .text.rvtest	00000000 I_sltiu_cg_cr_rs1_imm_edges_rs1val_0x80000001_immval_0x100
0000b28b l       .data	00000000 I_sltiu_cg_cr_rs1_imm_edges_rs1val_0x80000001_immval_0x100_str
000017fc l       .text.rvtest	00000000 I_sltiu_cg_cr_rs1_imm_edges_rs1val_0x80000001_immval_0x200
0000b2e3 l       .data	00000000 I_sltiu_cg_cr_rs1_imm_edges_rs1val_0x80000001_immval_0x200_str
00001820 l       .text.rvtest	00000000 I_sltiu_cg_cr_rs1_imm_edges_rs1val_0x80000001_immval_0x3ff
0000b33b l       .data	00000000 I_sltiu_cg_cr_rs1_imm_edges_rs1val_0x80000001_immval_0x3ff_str
00001844 l       .text.rvtest	00000000 I_sltiu_cg_cr_rs1_imm_edges_rs1val_0x80000001_immval_0x400
0000b393 l       .data	00000000 I_sltiu_cg_cr_rs1_imm_edges_rs1val_0x80000001_immval_0x400_str
00001868 l       .text.rvtest	00000000 I_sltiu_cg_cr_rs1_imm_edges_rs1val_0x80000001_immval_0x703
0000b3eb l       .data	00000000 I_sltiu_cg_cr_rs1_imm_edges_rs1val_0x80000001_immval_0x703_str
0000188c l       .text.rvtest	00000000 I_sltiu_cg_cr_rs1_imm_edges_rs1val_0x80000001_immval_0x7ff
0000b443 l       .data	00000000 I_sltiu_cg_cr_rs1_imm_edges_rs1val_0x80000001_immval_0x7ff_str
000018b0 l       .text.rvtest	00000000 I_sltiu_cg_cr_rs1_imm_edges_rs1val_0x80000001_immval_m0x800
0000b49b l       .data	00000000 I_sltiu_cg_cr_rs1_imm_edges_rs1val_0x80000001_immval_m0x800_str
000018d4 l       .text.rvtest	00000000 I_sltiu_cg_cr_rs1_imm_edges_rs1val_0x80000001_immval_m0x7ff
0000b4f4 l       .data	00000000 I_sltiu_cg_cr_rs1_imm_edges_rs1val_0x80000001_immval_m0x7ff_str
000018f8 l       .text.rvtest	00000000 I_sltiu_cg_cr_rs1_imm_edges_rs1val_0x80000001_immval_m0x2
0000b54d l       .data	00000000 I_sltiu_cg_cr_rs1_imm_edges_rs1val_0x80000001_immval_m0x2_str
0000191c l       .text.rvtest	00000000 I_sltiu_cg_cr_rs1_imm_edges_rs1val_0x80000001_immval_m0x1
0000b5a4 l       .data	00000000 I_sltiu_cg_cr_rs1_imm_edges_rs1val_0x80000001_immval_m0x1_str
00001940 l       .text.rvtest	00000000 I_sltiu_cg_cr_rs1_imm_edges_rs1val_0x7fffffff_immval_0x0
0000b5fb l       .data	00000000 I_sltiu_cg_cr_rs1_imm_edges_rs1val_0x7fffffff_immval_0x0_str
00001964 l       .text.rvtest	00000000 I_sltiu_cg_cr_rs1_imm_edges_rs1val_0x7fffffff_immval_0x1
0000b651 l       .data	00000000 I_sltiu_cg_cr_rs1_imm_edges_rs1val_0x7fffffff_immval_0x1_str
00001988 l       .text.rvtest	00000000 I_sltiu_cg_cr_rs1_imm_edges_rs1val_0x7fffffff_immval_0x2
0000b6a7 l       .data	00000000 I_sltiu_cg_cr_rs1_imm_edges_rs1val_0x7fffffff_immval_0x2_str
000019ac l       .text.rvtest	00000000 I_sltiu_cg_cr_rs1_imm_edges_rs1val_0x7fffffff_immval_0x3
0000b6fd l       .data	00000000 I_sltiu_cg_cr_rs1_imm_edges_rs1val_0x7fffffff_immval_0x3_str
000019d0 l       .text.rvtest	00000000 I_sltiu_cg_cr_rs1_imm_edges_rs1val_0x7fffffff_immval_0x4
0000b753 l       .data	00000000 I_sltiu_cg_cr_rs1_imm_edges_rs1val_0x7fffffff_immval_0x4_str
000019f4 l       .text.rvtest	00000000 I_sltiu_cg_cr_rs1_imm_edges_rs1val_0x7fffffff_immval_0x8
0000b7a9 l       .data	00000000 I_sltiu_cg_cr_rs1_imm_edges_rs1val_0x7fffffff_immval_0x8_str
00001a18 l       .text.rvtest	00000000 I_sltiu_cg_cr_rs1_imm_edges_rs1val_0x7fffffff_immval_0x10
0000b7ff l       .data	00000000 I_sltiu_cg_cr_rs1_imm_edges_rs1val_0x7fffffff_immval_0x10_str
00001a3c l       .text.rvtest	00000000 I_sltiu_cg_cr_rs1_imm_edges_rs1val_0x7fffffff_immval_0x20
0000b856 l       .data	00000000 I_sltiu_cg_cr_rs1_imm_edges_rs1val_0x7fffffff_immval_0x20_str
00001a60 l       .text.rvtest	00000000 I_sltiu_cg_cr_rs1_imm_edges_rs1val_0x7fffffff_immval_0x40
0000b8ad l       .data	00000000 I_sltiu_cg_cr_rs1_imm_edges_rs1val_0x7fffffff_immval_0x40_str
00001a84 l       .text.rvtest	00000000 I_sltiu_cg_cr_rs1_imm_edges_rs1val_0x7fffffff_immval_0x80
0000b904 l       .data	00000000 I_sltiu_cg_cr_rs1_imm_edges_rs1val_0x7fffffff_immval_0x80_str
00001aa8 l       .text.rvtest	00000000 I_sltiu_cg_cr_rs1_imm_edges_rs1val_0x7fffffff_immval_0x100
0000b95b l       .data	00000000 I_sltiu_cg_cr_rs1_imm_edges_rs1val_0x7fffffff_immval_0x100_str
00001acc l       .text.rvtest	00000000 I_sltiu_cg_cr_rs1_imm_edges_rs1val_0x7fffffff_immval_0x200
0000b9b3 l       .data	00000000 I_sltiu_cg_cr_rs1_imm_edges_rs1val_0x7fffffff_immval_0x200_str
00001af0 l       .text.rvtest	00000000 I_sltiu_cg_cr_rs1_imm_edges_rs1val_0x7fffffff_immval_0x3ff
0000ba0b l       .data	00000000 I_sltiu_cg_cr_rs1_imm_edges_rs1val_0x7fffffff_immval_0x3ff_str
00001b14 l       .text.rvtest	00000000 I_sltiu_cg_cr_rs1_imm_edges_rs1val_0x7fffffff_immval_0x400
0000ba63 l       .data	00000000 I_sltiu_cg_cr_rs1_imm_edges_rs1val_0x7fffffff_immval_0x400_str
00001b38 l       .text.rvtest	00000000 I_sltiu_cg_cr_rs1_imm_edges_rs1val_0x7fffffff_immval_0x703
0000babb l       .data	00000000 I_sltiu_cg_cr_rs1_imm_edges_rs1val_0x7fffffff_immval_0x703_str
00001b5c l       .text.rvtest	00000000 I_sltiu_cg_cr_rs1_imm_edges_rs1val_0x7fffffff_immval_0x7ff
0000bb13 l       .data	00000000 I_sltiu_cg_cr_rs1_imm_edges_rs1val_0x7fffffff_immval_0x7ff_str
00001b80 l       .text.rvtest	00000000 I_sltiu_cg_cr_rs1_imm_edges_rs1val_0x7fffffff_immval_m0x800
0000bb6b l       .data	00000000 I_sltiu_cg_cr_rs1_imm_edges_rs1val_0x7fffffff_immval_m0x800_str
00001ba4 l       .text.rvtest	00000000 I_sltiu_cg_cr_rs1_imm_edges_rs1val_0x7fffffff_immval_m0x7ff
0000bbc4 l       .data	00000000 I_sltiu_cg_cr_rs1_imm_edges_rs1val_0x7fffffff_immval_m0x7ff_str
00001bc8 l       .text.rvtest	00000000 I_sltiu_cg_cr_rs1_imm_edges_rs1val_0x7fffffff_immval_m0x2
0000bc1d l       .data	00000000 I_sltiu_cg_cr_rs1_imm_edges_rs1val_0x7fffffff_immval_m0x2_str
00001bec l       .text.rvtest	00000000 I_sltiu_cg_cr_rs1_imm_edges_rs1val_0x7fffffff_immval_m0x1
0000bc74 l       .data	00000000 I_sltiu_cg_cr_rs1_imm_edges_rs1val_0x7fffffff_immval_m0x1_str
00001c10 l       .text.rvtest	00000000 I_sltiu_cg_cr_rs1_imm_edges_rs1val_0x7ffffffe_immval_0x0
0000bccb l       .data	00000000 I_sltiu_cg_cr_rs1_imm_edges_rs1val_0x7ffffffe_immval_0x0_str
00001c34 l       .text.rvtest	00000000 I_sltiu_cg_cr_rs1_imm_edges_rs1val_0x7ffffffe_immval_0x1
0000bd21 l       .data	00000000 I_sltiu_cg_cr_rs1_imm_edges_rs1val_0x7ffffffe_immval_0x1_str
00001c58 l       .text.rvtest	00000000 I_sltiu_cg_cr_rs1_imm_edges_rs1val_0x7ffffffe_immval_0x2
0000bd77 l       .data	00000000 I_sltiu_cg_cr_rs1_imm_edges_rs1val_0x7ffffffe_immval_0x2_str
00001c7c l       .text.rvtest	00000000 I_sltiu_cg_cr_rs1_imm_edges_rs1val_0x7ffffffe_immval_0x3
0000bdcd l       .data	00000000 I_sltiu_cg_cr_rs1_imm_edges_rs1val_0x7ffffffe_immval_0x3_str
00001ca0 l       .text.rvtest	00000000 I_sltiu_cg_cr_rs1_imm_edges_rs1val_0x7ffffffe_immval_0x4
0000be23 l       .data	00000000 I_sltiu_cg_cr_rs1_imm_edges_rs1val_0x7ffffffe_immval_0x4_str
00001cc4 l       .text.rvtest	00000000 I_sltiu_cg_cr_rs1_imm_edges_rs1val_0x7ffffffe_immval_0x8
0000be79 l       .data	00000000 I_sltiu_cg_cr_rs1_imm_edges_rs1val_0x7ffffffe_immval_0x8_str
00001ce8 l       .text.rvtest	00000000 I_sltiu_cg_cr_rs1_imm_edges_rs1val_0x7ffffffe_immval_0x10
0000becf l       .data	00000000 I_sltiu_cg_cr_rs1_imm_edges_rs1val_0x7ffffffe_immval_0x10_str
00001d0c l       .text.rvtest	00000000 I_sltiu_cg_cr_rs1_imm_edges_rs1val_0x7ffffffe_immval_0x20
0000bf26 l       .data	00000000 I_sltiu_cg_cr_rs1_imm_edges_rs1val_0x7ffffffe_immval_0x20_str
00001d30 l       .text.rvtest	00000000 I_sltiu_cg_cr_rs1_imm_edges_rs1val_0x7ffffffe_immval_0x40
0000bf7d l       .data	00000000 I_sltiu_cg_cr_rs1_imm_edges_rs1val_0x7ffffffe_immval_0x40_str
00001d54 l       .text.rvtest	00000000 I_sltiu_cg_cr_rs1_imm_edges_rs1val_0x7ffffffe_immval_0x80
0000bfd4 l       .data	00000000 I_sltiu_cg_cr_rs1_imm_edges_rs1val_0x7ffffffe_immval_0x80_str
00001d78 l       .text.rvtest	00000000 I_sltiu_cg_cr_rs1_imm_edges_rs1val_0x7ffffffe_immval_0x100
0000c02b l       .data	00000000 I_sltiu_cg_cr_rs1_imm_edges_rs1val_0x7ffffffe_immval_0x100_str
00001d9c l       .text.rvtest	00000000 I_sltiu_cg_cr_rs1_imm_edges_rs1val_0x7ffffffe_immval_0x200
0000c083 l       .data	00000000 I_sltiu_cg_cr_rs1_imm_edges_rs1val_0x7ffffffe_immval_0x200_str
00001dc0 l       .text.rvtest	00000000 I_sltiu_cg_cr_rs1_imm_edges_rs1val_0x7ffffffe_immval_0x3ff
0000c0db l       .data	00000000 I_sltiu_cg_cr_rs1_imm_edges_rs1val_0x7ffffffe_immval_0x3ff_str
00001de4 l       .text.rvtest	00000000 I_sltiu_cg_cr_rs1_imm_edges_rs1val_0x7ffffffe_immval_0x400
0000c133 l       .data	00000000 I_sltiu_cg_cr_rs1_imm_edges_rs1val_0x7ffffffe_immval_0x400_str
00001e08 l       .text.rvtest	00000000 I_sltiu_cg_cr_rs1_imm_edges_rs1val_0x7ffffffe_immval_0x703
0000c18b l       .data	00000000 I_sltiu_cg_cr_rs1_imm_edges_rs1val_0x7ffffffe_immval_0x703_str
00001e2c l       .text.rvtest	00000000 I_sltiu_cg_cr_rs1_imm_edges_rs1val_0x7ffffffe_immval_0x7ff
0000c1e3 l       .data	00000000 I_sltiu_cg_cr_rs1_imm_edges_rs1val_0x7ffffffe_immval_0x7ff_str
00001e50 l       .text.rvtest	00000000 I_sltiu_cg_cr_rs1_imm_edges_rs1val_0x7ffffffe_immval_m0x800
0000c23b l       .data	00000000 I_sltiu_cg_cr_rs1_imm_edges_rs1val_0x7ffffffe_immval_m0x800_str
00001e74 l       .text.rvtest	00000000 I_sltiu_cg_cr_rs1_imm_edges_rs1val_0x7ffffffe_immval_m0x7ff
0000c294 l       .data	00000000 I_sltiu_cg_cr_rs1_imm_edges_rs1val_0x7ffffffe_immval_m0x7ff_str
00001e98 l       .text.rvtest	00000000 I_sltiu_cg_cr_rs1_imm_edges_rs1val_0x7ffffffe_immval_m0x2
0000c2ed l       .data	00000000 I_sltiu_cg_cr_rs1_imm_edges_rs1val_0x7ffffffe_immval_m0x2_str
00001ebc l       .text.rvtest	00000000 I_sltiu_cg_cr_rs1_imm_edges_rs1val_0x7ffffffe_immval_m0x1
0000c344 l       .data	00000000 I_sltiu_cg_cr_rs1_imm_edges_rs1val_0x7ffffffe_immval_m0x1_str
00001ee0 l       .text.rvtest	00000000 I_sltiu_cg_cr_rs1_imm_edges_rs1val_0xffffffff_immval_0x0
0000c39b l       .data	00000000 I_sltiu_cg_cr_rs1_imm_edges_rs1val_0xffffffff_immval_0x0_str
00001f04 l       .text.rvtest	00000000 I_sltiu_cg_cr_rs1_imm_edges_rs1val_0xffffffff_immval_0x1
0000c3f1 l       .data	00000000 I_sltiu_cg_cr_rs1_imm_edges_rs1val_0xffffffff_immval_0x1_str
00001f28 l       .text.rvtest	00000000 I_sltiu_cg_cr_rs1_imm_edges_rs1val_0xffffffff_immval_0x2
0000c447 l       .data	00000000 I_sltiu_cg_cr_rs1_imm_edges_rs1val_0xffffffff_immval_0x2_str
00001f4c l       .text.rvtest	00000000 I_sltiu_cg_cr_rs1_imm_edges_rs1val_0xffffffff_immval_0x3
0000c49d l       .data	00000000 I_sltiu_cg_cr_rs1_imm_edges_rs1val_0xffffffff_immval_0x3_str
00001f70 l       .text.rvtest	00000000 I_sltiu_cg_cr_rs1_imm_edges_rs1val_0xffffffff_immval_0x4
0000c4f3 l       .data	00000000 I_sltiu_cg_cr_rs1_imm_edges_rs1val_0xffffffff_immval_0x4_str
00001f94 l       .text.rvtest	00000000 I_sltiu_cg_cr_rs1_imm_edges_rs1val_0xffffffff_immval_0x8
0000c549 l       .data	00000000 I_sltiu_cg_cr_rs1_imm_edges_rs1val_0xffffffff_immval_0x8_str
00001fb8 l       .text.rvtest	00000000 I_sltiu_cg_cr_rs1_imm_edges_rs1val_0xffffffff_immval_0x10
0000c59f l       .data	00000000 I_sltiu_cg_cr_rs1_imm_edges_rs1val_0xffffffff_immval_0x10_str
00001fdc l       .text.rvtest	00000000 I_sltiu_cg_cr_rs1_imm_edges_rs1val_0xffffffff_immval_0x20
0000c5f6 l       .data	00000000 I_sltiu_cg_cr_rs1_imm_edges_rs1val_0xffffffff_immval_0x20_str
00002000 l       .text.rvtest	00000000 I_sltiu_cg_cr_rs1_imm_edges_rs1val_0xffffffff_immval_0x40
0000c64d l       .data	00000000 I_sltiu_cg_cr_rs1_imm_edges_rs1val_0xffffffff_immval_0x40_str
00002024 l       .text.rvtest	00000000 I_sltiu_cg_cr_rs1_imm_edges_rs1val_0xffffffff_immval_0x80
0000c6a4 l       .data	00000000 I_sltiu_cg_cr_rs1_imm_edges_rs1val_0xffffffff_immval_0x80_str
00002048 l       .text.rvtest	00000000 I_sltiu_cg_cr_rs1_imm_edges_rs1val_0xffffffff_immval_0x100
0000c6fb l       .data	00000000 I_sltiu_cg_cr_rs1_imm_edges_rs1val_0xffffffff_immval_0x100_str
0000206c l       .text.rvtest	00000000 I_sltiu_cg_cr_rs1_imm_edges_rs1val_0xffffffff_immval_0x200
0000c753 l       .data	00000000 I_sltiu_cg_cr_rs1_imm_edges_rs1val_0xffffffff_immval_0x200_str
00002090 l       .text.rvtest	00000000 I_sltiu_cg_cr_rs1_imm_edges_rs1val_0xffffffff_immval_0x3ff
0000c7ab l       .data	00000000 I_sltiu_cg_cr_rs1_imm_edges_rs1val_0xffffffff_immval_0x3ff_str
000020b4 l       .text.rvtest	00000000 I_sltiu_cg_cr_rs1_imm_edges_rs1val_0xffffffff_immval_0x400
0000c803 l       .data	00000000 I_sltiu_cg_cr_rs1_imm_edges_rs1val_0xffffffff_immval_0x400_str
000020d8 l       .text.rvtest	00000000 I_sltiu_cg_cr_rs1_imm_edges_rs1val_0xffffffff_immval_0x703
0000c85b l       .data	00000000 I_sltiu_cg_cr_rs1_imm_edges_rs1val_0xffffffff_immval_0x703_str
000020fc l       .text.rvtest	00000000 I_sltiu_cg_cr_rs1_imm_edges_rs1val_0xffffffff_immval_0x7ff
0000c8b3 l       .data	00000000 I_sltiu_cg_cr_rs1_imm_edges_rs1val_0xffffffff_immval_0x7ff_str
00002120 l       .text.rvtest	00000000 I_sltiu_cg_cr_rs1_imm_edges_rs1val_0xffffffff_immval_m0x800
0000c90b l       .data	00000000 I_sltiu_cg_cr_rs1_imm_edges_rs1val_0xffffffff_immval_m0x800_str
00002144 l       .text.rvtest	00000000 I_sltiu_cg_cr_rs1_imm_edges_rs1val_0xffffffff_immval_m0x7ff
0000c964 l       .data	00000000 I_sltiu_cg_cr_rs1_imm_edges_rs1val_0xffffffff_immval_m0x7ff_str
00002168 l       .text.rvtest	00000000 I_sltiu_cg_cr_rs1_imm_edges_rs1val_0xffffffff_immval_m0x2
0000c9bd l       .data	00000000 I_sltiu_cg_cr_rs1_imm_edges_rs1val_0xffffffff_immval_m0x2_str
0000218c l       .text.rvtest	00000000 I_sltiu_cg_cr_rs1_imm_edges_rs1val_0xffffffff_immval_m0x1
0000ca14 l       .data	00000000 I_sltiu_cg_cr_rs1_imm_edges_rs1val_0xffffffff_immval_m0x1_str
000021b0 l       .text.rvtest	00000000 I_sltiu_cg_cr_rs1_imm_edges_rs1val_0xfffffffe_immval_0x0
0000ca6b l       .data	00000000 I_sltiu_cg_cr_rs1_imm_edges_rs1val_0xfffffffe_immval_0x0_str
000021d4 l       .text.rvtest	00000000 I_sltiu_cg_cr_rs1_imm_edges_rs1val_0xfffffffe_immval_0x1
0000cac1 l       .data	00000000 I_sltiu_cg_cr_rs1_imm_edges_rs1val_0xfffffffe_immval_0x1_str
000021f8 l       .text.rvtest	00000000 I_sltiu_cg_cr_rs1_imm_edges_rs1val_0xfffffffe_immval_0x2
0000cb17 l       .data	00000000 I_sltiu_cg_cr_rs1_imm_edges_rs1val_0xfffffffe_immval_0x2_str
0000221c l       .text.rvtest	00000000 I_sltiu_cg_cr_rs1_imm_edges_rs1val_0xfffffffe_immval_0x3
0000cb6d l       .data	00000000 I_sltiu_cg_cr_rs1_imm_edges_rs1val_0xfffffffe_immval_0x3_str
00002240 l       .text.rvtest	00000000 I_sltiu_cg_cr_rs1_imm_edges_rs1val_0xfffffffe_immval_0x4
0000cbc3 l       .data	00000000 I_sltiu_cg_cr_rs1_imm_edges_rs1val_0xfffffffe_immval_0x4_str
00002264 l       .text.rvtest	00000000 I_sltiu_cg_cr_rs1_imm_edges_rs1val_0xfffffffe_immval_0x8
0000cc19 l       .data	00000000 I_sltiu_cg_cr_rs1_imm_edges_rs1val_0xfffffffe_immval_0x8_str
00002288 l       .text.rvtest	00000000 I_sltiu_cg_cr_rs1_imm_edges_rs1val_0xfffffffe_immval_0x10
0000cc6f l       .data	00000000 I_sltiu_cg_cr_rs1_imm_edges_rs1val_0xfffffffe_immval_0x10_str
000022ac l       .text.rvtest	00000000 I_sltiu_cg_cr_rs1_imm_edges_rs1val_0xfffffffe_immval_0x20
0000ccc6 l       .data	00000000 I_sltiu_cg_cr_rs1_imm_edges_rs1val_0xfffffffe_immval_0x20_str
000022d0 l       .text.rvtest	00000000 I_sltiu_cg_cr_rs1_imm_edges_rs1val_0xfffffffe_immval_0x40
0000cd1d l       .data	00000000 I_sltiu_cg_cr_rs1_imm_edges_rs1val_0xfffffffe_immval_0x40_str
000022f4 l       .text.rvtest	00000000 I_sltiu_cg_cr_rs1_imm_edges_rs1val_0xfffffffe_immval_0x80
0000cd74 l       .data	00000000 I_sltiu_cg_cr_rs1_imm_edges_rs1val_0xfffffffe_immval_0x80_str
00002318 l       .text.rvtest	00000000 I_sltiu_cg_cr_rs1_imm_edges_rs1val_0xfffffffe_immval_0x100
0000cdcb l       .data	00000000 I_sltiu_cg_cr_rs1_imm_edges_rs1val_0xfffffffe_immval_0x100_str
0000233c l       .text.rvtest	00000000 I_sltiu_cg_cr_rs1_imm_edges_rs1val_0xfffffffe_immval_0x200
0000ce23 l       .data	00000000 I_sltiu_cg_cr_rs1_imm_edges_rs1val_0xfffffffe_immval_0x200_str
00002360 l       .text.rvtest	00000000 I_sltiu_cg_cr_rs1_imm_edges_rs1val_0xfffffffe_immval_0x3ff
0000ce7b l       .data	00000000 I_sltiu_cg_cr_rs1_imm_edges_rs1val_0xfffffffe_immval_0x3ff_str
00002384 l       .text.rvtest	00000000 I_sltiu_cg_cr_rs1_imm_edges_rs1val_0xfffffffe_immval_0x400
0000ced3 l       .data	00000000 I_sltiu_cg_cr_rs1_imm_edges_rs1val_0xfffffffe_immval_0x400_str
000023a8 l       .text.rvtest	00000000 I_sltiu_cg_cr_rs1_imm_edges_rs1val_0xfffffffe_immval_0x703
0000cf2b l       .data	00000000 I_sltiu_cg_cr_rs1_imm_edges_rs1val_0xfffffffe_immval_0x703_str
000023cc l       .text.rvtest	00000000 I_sltiu_cg_cr_rs1_imm_edges_rs1val_0xfffffffe_immval_0x7ff
0000cf83 l       .data	00000000 I_sltiu_cg_cr_rs1_imm_edges_rs1val_0xfffffffe_immval_0x7ff_str
000023f0 l       .text.rvtest	00000000 I_sltiu_cg_cr_rs1_imm_edges_rs1val_0xfffffffe_immval_m0x800
0000cfdb l       .data	00000000 I_sltiu_cg_cr_rs1_imm_edges_rs1val_0xfffffffe_immval_m0x800_str
00002414 l       .text.rvtest	00000000 I_sltiu_cg_cr_rs1_imm_edges_rs1val_0xfffffffe_immval_m0x7ff
0000d034 l       .data	00000000 I_sltiu_cg_cr_rs1_imm_edges_rs1val_0xfffffffe_immval_m0x7ff_str
00002438 l       .text.rvtest	00000000 I_sltiu_cg_cr_rs1_imm_edges_rs1val_0xfffffffe_immval_m0x2
0000d08d l       .data	00000000 I_sltiu_cg_cr_rs1_imm_edges_rs1val_0xfffffffe_immval_m0x2_str
0000245c l       .text.rvtest	00000000 I_sltiu_cg_cr_rs1_imm_edges_rs1val_0xfffffffe_immval_m0x1
0000d0e4 l       .data	00000000 I_sltiu_cg_cr_rs1_imm_edges_rs1val_0xfffffffe_immval_m0x1_str
00002480 l       .text.rvtest	00000000 I_sltiu_cg_cr_rs1_imm_edges_rs1val_0x5bbc8872_immval_0x0
0000d13b l       .data	00000000 I_sltiu_cg_cr_rs1_imm_edges_rs1val_0x5bbc8872_immval_0x0_str
000024a4 l       .text.rvtest	00000000 I_sltiu_cg_cr_rs1_imm_edges_rs1val_0x5bbc8872_immval_0x1
0000d191 l       .data	00000000 I_sltiu_cg_cr_rs1_imm_edges_rs1val_0x5bbc8872_immval_0x1_str
000024c8 l       .text.rvtest	00000000 I_sltiu_cg_cr_rs1_imm_edges_rs1val_0x5bbc8872_immval_0x2
0000d1e7 l       .data	00000000 I_sltiu_cg_cr_rs1_imm_edges_rs1val_0x5bbc8872_immval_0x2_str
000024ec l       .text.rvtest	00000000 I_sltiu_cg_cr_rs1_imm_edges_rs1val_0x5bbc8872_immval_0x3
0000d23d l       .data	00000000 I_sltiu_cg_cr_rs1_imm_edges_rs1val_0x5bbc8872_immval_0x3_str
00002510 l       .text.rvtest	00000000 I_sltiu_cg_cr_rs1_imm_edges_rs1val_0x5bbc8872_immval_0x4
0000d293 l       .data	00000000 I_sltiu_cg_cr_rs1_imm_edges_rs1val_0x5bbc8872_immval_0x4_str
00002534 l       .text.rvtest	00000000 I_sltiu_cg_cr_rs1_imm_edges_rs1val_0x5bbc8872_immval_0x8
0000d2e9 l       .data	00000000 I_sltiu_cg_cr_rs1_imm_edges_rs1val_0x5bbc8872_immval_0x8_str
00002558 l       .text.rvtest	00000000 I_sltiu_cg_cr_rs1_imm_edges_rs1val_0x5bbc8872_immval_0x10
0000d33f l       .data	00000000 I_sltiu_cg_cr_rs1_imm_edges_rs1val_0x5bbc8872_immval_0x10_str
0000257c l       .text.rvtest	00000000 I_sltiu_cg_cr_rs1_imm_edges_rs1val_0x5bbc8872_immval_0x20
0000d396 l       .data	00000000 I_sltiu_cg_cr_rs1_imm_edges_rs1val_0x5bbc8872_immval_0x20_str
000025a0 l       .text.rvtest	00000000 I_sltiu_cg_cr_rs1_imm_edges_rs1val_0x5bbc8872_immval_0x40
0000d3ed l       .data	00000000 I_sltiu_cg_cr_rs1_imm_edges_rs1val_0x5bbc8872_immval_0x40_str
000025c4 l       .text.rvtest	00000000 I_sltiu_cg_cr_rs1_imm_edges_rs1val_0x5bbc8872_immval_0x80
0000d444 l       .data	00000000 I_sltiu_cg_cr_rs1_imm_edges_rs1val_0x5bbc8872_immval_0x80_str
000025e8 l       .text.rvtest	00000000 I_sltiu_cg_cr_rs1_imm_edges_rs1val_0x5bbc8872_immval_0x100
0000d49b l       .data	00000000 I_sltiu_cg_cr_rs1_imm_edges_rs1val_0x5bbc8872_immval_0x100_str
0000260c l       .text.rvtest	00000000 I_sltiu_cg_cr_rs1_imm_edges_rs1val_0x5bbc8872_immval_0x200
0000d4f3 l       .data	00000000 I_sltiu_cg_cr_rs1_imm_edges_rs1val_0x5bbc8872_immval_0x200_str
00002630 l       .text.rvtest	00000000 I_sltiu_cg_cr_rs1_imm_edges_rs1val_0x5bbc8872_immval_0x3ff
0000d54b l       .data	00000000 I_sltiu_cg_cr_rs1_imm_edges_rs1val_0x5bbc8872_immval_0x3ff_str
00002654 l       .text.rvtest	00000000 I_sltiu_cg_cr_rs1_imm_edges_rs1val_0x5bbc8872_immval_0x400
0000d5a3 l       .data	00000000 I_sltiu_cg_cr_rs1_imm_edges_rs1val_0x5bbc8872_immval_0x400_str
00002678 l       .text.rvtest	00000000 I_sltiu_cg_cr_rs1_imm_edges_rs1val_0x5bbc8872_immval_0x703
0000d5fb l       .data	00000000 I_sltiu_cg_cr_rs1_imm_edges_rs1val_0x5bbc8872_immval_0x703_str
0000269c l       .text.rvtest	00000000 I_sltiu_cg_cr_rs1_imm_edges_rs1val_0x5bbc8872_immval_0x7ff
0000d653 l       .data	00000000 I_sltiu_cg_cr_rs1_imm_edges_rs1val_0x5bbc8872_immval_0x7ff_str
000026c0 l       .text.rvtest	00000000 I_sltiu_cg_cr_rs1_imm_edges_rs1val_0x5bbc8872_immval_m0x800
0000d6ab l       .data	00000000 I_sltiu_cg_cr_rs1_imm_edges_rs1val_0x5bbc8872_immval_m0x800_str
000026e4 l       .text.rvtest	00000000 I_sltiu_cg_cr_rs1_imm_edges_rs1val_0x5bbc8872_immval_m0x7ff
0000d704 l       .data	00000000 I_sltiu_cg_cr_rs1_imm_edges_rs1val_0x5bbc8872_immval_m0x7ff_str
00002708 l       .text.rvtest	00000000 I_sltiu_cg_cr_rs1_imm_edges_rs1val_0x5bbc8872_immval_m0x2
0000d75d l       .data	00000000 I_sltiu_cg_cr_rs1_imm_edges_rs1val_0x5bbc8872_immval_m0x2_str
0000272c l       .text.rvtest	00000000 I_sltiu_cg_cr_rs1_imm_edges_rs1val_0x5bbc8872_immval_m0x1
0000d7b4 l       .data	00000000 I_sltiu_cg_cr_rs1_imm_edges_rs1val_0x5bbc8872_immval_m0x1_str
00002750 l       .text.rvtest	00000000 I_sltiu_cg_cr_rs1_imm_edges_rs1val_0xaaaaaaaa_immval_0x0
0000d80b l       .data	00000000 I_sltiu_cg_cr_rs1_imm_edges_rs1val_0xaaaaaaaa_immval_0x0_str
00002774 l       .text.rvtest	00000000 I_sltiu_cg_cr_rs1_imm_edges_rs1val_0xaaaaaaaa_immval_0x1
0000d861 l       .data	00000000 I_sltiu_cg_cr_rs1_imm_edges_rs1val_0xaaaaaaaa_immval_0x1_str
00002798 l       .text.rvtest	00000000 I_sltiu_cg_cr_rs1_imm_edges_rs1val_0xaaaaaaaa_immval_0x2
0000d8b7 l       .data	00000000 I_sltiu_cg_cr_rs1_imm_edges_rs1val_0xaaaaaaaa_immval_0x2_str
000027bc l       .text.rvtest	00000000 I_sltiu_cg_cr_rs1_imm_edges_rs1val_0xaaaaaaaa_immval_0x3
0000d90d l       .data	00000000 I_sltiu_cg_cr_rs1_imm_edges_rs1val_0xaaaaaaaa_immval_0x3_str
000027e0 l       .text.rvtest	00000000 I_sltiu_cg_cr_rs1_imm_edges_rs1val_0xaaaaaaaa_immval_0x4
0000d963 l       .data	00000000 I_sltiu_cg_cr_rs1_imm_edges_rs1val_0xaaaaaaaa_immval_0x4_str
00002804 l       .text.rvtest	00000000 I_sltiu_cg_cr_rs1_imm_edges_rs1val_0xaaaaaaaa_immval_0x8
0000d9b9 l       .data	00000000 I_sltiu_cg_cr_rs1_imm_edges_rs1val_0xaaaaaaaa_immval_0x8_str
00002828 l       .text.rvtest	00000000 I_sltiu_cg_cr_rs1_imm_edges_rs1val_0xaaaaaaaa_immval_0x10
0000da0f l       .data	00000000 I_sltiu_cg_cr_rs1_imm_edges_rs1val_0xaaaaaaaa_immval_0x10_str
0000284c l       .text.rvtest	00000000 I_sltiu_cg_cr_rs1_imm_edges_rs1val_0xaaaaaaaa_immval_0x20
0000da66 l       .data	00000000 I_sltiu_cg_cr_rs1_imm_edges_rs1val_0xaaaaaaaa_immval_0x20_str
00002870 l       .text.rvtest	00000000 I_sltiu_cg_cr_rs1_imm_edges_rs1val_0xaaaaaaaa_immval_0x40
0000dabd l       .data	00000000 I_sltiu_cg_cr_rs1_imm_edges_rs1val_0xaaaaaaaa_immval_0x40_str
00002894 l       .text.rvtest	00000000 I_sltiu_cg_cr_rs1_imm_edges_rs1val_0xaaaaaaaa_immval_0x80
0000db14 l       .data	00000000 I_sltiu_cg_cr_rs1_imm_edges_rs1val_0xaaaaaaaa_immval_0x80_str
000028b8 l       .text.rvtest	00000000 I_sltiu_cg_cr_rs1_imm_edges_rs1val_0xaaaaaaaa_immval_0x100
0000db6b l       .data	00000000 I_sltiu_cg_cr_rs1_imm_edges_rs1val_0xaaaaaaaa_immval_0x100_str
000028dc l       .text.rvtest	00000000 I_sltiu_cg_cr_rs1_imm_edges_rs1val_0xaaaaaaaa_immval_0x200
0000dbc3 l       .data	00000000 I_sltiu_cg_cr_rs1_imm_edges_rs1val_0xaaaaaaaa_immval_0x200_str
00002900 l       .text.rvtest	00000000 I_sltiu_cg_cr_rs1_imm_edges_rs1val_0xaaaaaaaa_immval_0x3ff
0000dc1b l       .data	00000000 I_sltiu_cg_cr_rs1_imm_edges_rs1val_0xaaaaaaaa_immval_0x3ff_str
00002924 l       .text.rvtest	00000000 I_sltiu_cg_cr_rs1_imm_edges_rs1val_0xaaaaaaaa_immval_0x400
0000dc73 l       .data	00000000 I_sltiu_cg_cr_rs1_imm_edges_rs1val_0xaaaaaaaa_immval_0x400_str
00002948 l       .text.rvtest	00000000 I_sltiu_cg_cr_rs1_imm_edges_rs1val_0xaaaaaaaa_immval_0x703
0000dccb l       .data	00000000 I_sltiu_cg_cr_rs1_imm_edges_rs1val_0xaaaaaaaa_immval_0x703_str
0000296c l       .text.rvtest	00000000 I_sltiu_cg_cr_rs1_imm_edges_rs1val_0xaaaaaaaa_immval_0x7ff
0000dd23 l       .data	00000000 I_sltiu_cg_cr_rs1_imm_edges_rs1val_0xaaaaaaaa_immval_0x7ff_str
00002990 l       .text.rvtest	00000000 I_sltiu_cg_cr_rs1_imm_edges_rs1val_0xaaaaaaaa_immval_m0x800
0000dd7b l       .data	00000000 I_sltiu_cg_cr_rs1_imm_edges_rs1val_0xaaaaaaaa_immval_m0x800_str
000029b4 l       .text.rvtest	00000000 I_sltiu_cg_cr_rs1_imm_edges_rs1val_0xaaaaaaaa_immval_m0x7ff
0000ddd4 l       .data	00000000 I_sltiu_cg_cr_rs1_imm_edges_rs1val_0xaaaaaaaa_immval_m0x7ff_str
000029d8 l       .text.rvtest	00000000 I_sltiu_cg_cr_rs1_imm_edges_rs1val_0xaaaaaaaa_immval_m0x2
0000de2d l       .data	00000000 I_sltiu_cg_cr_rs1_imm_edges_rs1val_0xaaaaaaaa_immval_m0x2_str
000029fc l       .text.rvtest	00000000 I_sltiu_cg_cr_rs1_imm_edges_rs1val_0xaaaaaaaa_immval_m0x1
0000de84 l       .data	00000000 I_sltiu_cg_cr_rs1_imm_edges_rs1val_0xaaaaaaaa_immval_m0x1_str
00002a20 l       .text.rvtest	00000000 I_sltiu_cg_cr_rs1_imm_edges_rs1val_0x55555555_immval_0x0
0000dedb l       .data	00000000 I_sltiu_cg_cr_rs1_imm_edges_rs1val_0x55555555_immval_0x0_str
00002a44 l       .text.rvtest	00000000 I_sltiu_cg_cr_rs1_imm_edges_rs1val_0x55555555_immval_0x1
0000df31 l       .data	00000000 I_sltiu_cg_cr_rs1_imm_edges_rs1val_0x55555555_immval_0x1_str
00002a68 l       .text.rvtest	00000000 I_sltiu_cg_cr_rs1_imm_edges_rs1val_0x55555555_immval_0x2
0000df87 l       .data	00000000 I_sltiu_cg_cr_rs1_imm_edges_rs1val_0x55555555_immval_0x2_str
00002a8c l       .text.rvtest	00000000 I_sltiu_cg_cr_rs1_imm_edges_rs1val_0x55555555_immval_0x3
0000dfdd l       .data	00000000 I_sltiu_cg_cr_rs1_imm_edges_rs1val_0x55555555_immval_0x3_str
00002ab0 l       .text.rvtest	00000000 I_sltiu_cg_cr_rs1_imm_edges_rs1val_0x55555555_immval_0x4
0000e033 l       .data	00000000 I_sltiu_cg_cr_rs1_imm_edges_rs1val_0x55555555_immval_0x4_str
00002ad4 l       .text.rvtest	00000000 I_sltiu_cg_cr_rs1_imm_edges_rs1val_0x55555555_immval_0x8
0000e089 l       .data	00000000 I_sltiu_cg_cr_rs1_imm_edges_rs1val_0x55555555_immval_0x8_str
00002af8 l       .text.rvtest	00000000 I_sltiu_cg_cr_rs1_imm_edges_rs1val_0x55555555_immval_0x10
0000e0df l       .data	00000000 I_sltiu_cg_cr_rs1_imm_edges_rs1val_0x55555555_immval_0x10_str
00002b1c l       .text.rvtest	00000000 I_sltiu_cg_cr_rs1_imm_edges_rs1val_0x55555555_immval_0x20
0000e136 l       .data	00000000 I_sltiu_cg_cr_rs1_imm_edges_rs1val_0x55555555_immval_0x20_str
00002b40 l       .text.rvtest	00000000 I_sltiu_cg_cr_rs1_imm_edges_rs1val_0x55555555_immval_0x40
0000e18d l       .data	00000000 I_sltiu_cg_cr_rs1_imm_edges_rs1val_0x55555555_immval_0x40_str
00002b64 l       .text.rvtest	00000000 I_sltiu_cg_cr_rs1_imm_edges_rs1val_0x55555555_immval_0x80
0000e1e4 l       .data	00000000 I_sltiu_cg_cr_rs1_imm_edges_rs1val_0x55555555_immval_0x80_str
00002b88 l       .text.rvtest	00000000 I_sltiu_cg_cr_rs1_imm_edges_rs1val_0x55555555_immval_0x100
0000e23b l       .data	00000000 I_sltiu_cg_cr_rs1_imm_edges_rs1val_0x55555555_immval_0x100_str
00002bac l       .text.rvtest	00000000 I_sltiu_cg_cr_rs1_imm_edges_rs1val_0x55555555_immval_0x200
0000e293 l       .data	00000000 I_sltiu_cg_cr_rs1_imm_edges_rs1val_0x55555555_immval_0x200_str
00002bd0 l       .text.rvtest	00000000 I_sltiu_cg_cr_rs1_imm_edges_rs1val_0x55555555_immval_0x3ff
0000e2eb l       .data	00000000 I_sltiu_cg_cr_rs1_imm_edges_rs1val_0x55555555_immval_0x3ff_str
00002bf4 l       .text.rvtest	00000000 I_sltiu_cg_cr_rs1_imm_edges_rs1val_0x55555555_immval_0x400
0000e343 l       .data	00000000 I_sltiu_cg_cr_rs1_imm_edges_rs1val_0x55555555_immval_0x400_str
00002c18 l       .text.rvtest	00000000 I_sltiu_cg_cr_rs1_imm_edges_rs1val_0x55555555_immval_0x703
0000e39b l       .data	00000000 I_sltiu_cg_cr_rs1_imm_edges_rs1val_0x55555555_immval_0x703_str
00002c3c l       .text.rvtest	00000000 I_sltiu_cg_cr_rs1_imm_edges_rs1val_0x55555555_immval_0x7ff
0000e3f3 l       .data	00000000 I_sltiu_cg_cr_rs1_imm_edges_rs1val_0x55555555_immval_0x7ff_str
00002c60 l       .text.rvtest	00000000 I_sltiu_cg_cr_rs1_imm_edges_rs1val_0x55555555_immval_m0x800
0000e44b l       .data	00000000 I_sltiu_cg_cr_rs1_imm_edges_rs1val_0x55555555_immval_m0x800_str
00002c84 l       .text.rvtest	00000000 I_sltiu_cg_cr_rs1_imm_edges_rs1val_0x55555555_immval_m0x7ff
0000e4a4 l       .data	00000000 I_sltiu_cg_cr_rs1_imm_edges_rs1val_0x55555555_immval_m0x7ff_str
00002ca8 l       .text.rvtest	00000000 I_sltiu_cg_cr_rs1_imm_edges_rs1val_0x55555555_immval_m0x2
0000e4fd l       .data	00000000 I_sltiu_cg_cr_rs1_imm_edges_rs1val_0x55555555_immval_m0x2_str
00002ccc l       .text.rvtest	00000000 I_sltiu_cg_cr_rs1_imm_edges_rs1val_0x55555555_immval_m0x1
0000e554 l       .data	00000000 I_sltiu_cg_cr_rs1_imm_edges_rs1val_0x55555555_immval_m0x1_str
00002cf0 l       .text.rvtest	00000000 I_sltiu_cg_cmp_rd_rs1_b0
0000e5ab l       .data	00000000 I_sltiu_cg_cmp_rd_rs1_b0_str
00002d18 l       .text.rvtest	00000000 I_sltiu_cg_cmp_rd_rs1_b1
0000e5e0 l       .data	00000000 I_sltiu_cg_cmp_rd_rs1_b1_str
00002d3c l       .text.rvtest	00000000 I_sltiu_cg_cmp_rd_rs1_b2
0000e615 l       .data	00000000 I_sltiu_cg_cmp_rd_rs1_b2_str
00002d60 l       .text.rvtest	00000000 I_sltiu_cg_cmp_rd_rs1_b3
0000e64a l       .data	00000000 I_sltiu_cg_cmp_rd_rs1_b3_str
00002d84 l       .text.rvtest	00000000 I_sltiu_cg_cmp_rd_rs1_b4
0000e67f l       .data	00000000 I_sltiu_cg_cmp_rd_rs1_b4_str
00002da8 l       .text.rvtest	00000000 I_sltiu_cg_cmp_rd_rs1_b5
0000e6b4 l       .data	00000000 I_sltiu_cg_cmp_rd_rs1_b5_str
00002dcc l       .text.rvtest	00000000 I_sltiu_cg_cmp_rd_rs1_b6
0000e6e9 l       .data	00000000 I_sltiu_cg_cmp_rd_rs1_b6_str
00002df8 l       .text.rvtest	00000000 I_sltiu_cg_cmp_rd_rs1_b7
0000e71e l       .data	00000000 I_sltiu_cg_cmp_rd_rs1_b7_str
00002e1c l       .text.rvtest	00000000 I_sltiu_cg_cmp_rd_rs1_b8
0000e753 l       .data	00000000 I_sltiu_cg_cmp_rd_rs1_b8_str
00002e44 l       .text.rvtest	00000000 I_sltiu_cg_cmp_rd_rs1_b9
0000e788 l       .data	00000000 I_sltiu_cg_cmp_rd_rs1_b9_str
00002e68 l       .text.rvtest	00000000 I_sltiu_cg_cmp_rd_rs1_b10
0000e7bd l       .data	00000000 I_sltiu_cg_cmp_rd_rs1_b10_str
00002e8c l       .text.rvtest	00000000 I_sltiu_cg_cmp_rd_rs1_b11
0000e7f3 l       .data	00000000 I_sltiu_cg_cmp_rd_rs1_b11_str
00002eb4 l       .text.rvtest	00000000 I_sltiu_cg_cmp_rd_rs1_b12
0000e829 l       .data	00000000 I_sltiu_cg_cmp_rd_rs1_b12_str
00002ee0 l       .text.rvtest	00000000 I_sltiu_cg_cmp_rd_rs1_b13
0000e85f l       .data	00000000 I_sltiu_cg_cmp_rd_rs1_b13_str
00002f04 l       .text.rvtest	00000000 I_sltiu_cg_cmp_rd_rs1_b14
0000e895 l       .data	00000000 I_sltiu_cg_cmp_rd_rs1_b14_str
00002f28 l       .text.rvtest	00000000 I_sltiu_cg_cmp_rd_rs1_b15
0000e8cb l       .data	00000000 I_sltiu_cg_cmp_rd_rs1_b15_str
00002f4c l       .text.rvtest	00000000 I_sltiu_cg_cmp_rd_rs1_b16
0000e901 l       .data	00000000 I_sltiu_cg_cmp_rd_rs1_b16_str
00002f70 l       .text.rvtest	00000000 I_sltiu_cg_cmp_rd_rs1_b17
0000e937 l       .data	00000000 I_sltiu_cg_cmp_rd_rs1_b17_str
00002f98 l       .text.rvtest	00000000 I_sltiu_cg_cmp_rd_rs1_b18
0000e96d l       .data	00000000 I_sltiu_cg_cmp_rd_rs1_b18_str
00002fbc l       .text.rvtest	00000000 I_sltiu_cg_cmp_rd_rs1_b19
0000e9a3 l       .data	00000000 I_sltiu_cg_cmp_rd_rs1_b19_str
00002fe0 l       .text.rvtest	00000000 I_sltiu_cg_cmp_rd_rs1_b20
0000e9d9 l       .data	00000000 I_sltiu_cg_cmp_rd_rs1_b20_str
00003004 l       .text.rvtest	00000000 I_sltiu_cg_cmp_rd_rs1_b21
0000ea0f l       .data	00000000 I_sltiu_cg_cmp_rd_rs1_b21_str
00003028 l       .text.rvtest	00000000 I_sltiu_cg_cmp_rd_rs1_b22
0000ea45 l       .data	00000000 I_sltiu_cg_cmp_rd_rs1_b22_str
0000304c l       .text.rvtest	00000000 I_sltiu_cg_cmp_rd_rs1_b23
0000ea7b l       .data	00000000 I_sltiu_cg_cmp_rd_rs1_b23_str
00003070 l       .text.rvtest	00000000 I_sltiu_cg_cmp_rd_rs1_b24
0000eab1 l       .data	00000000 I_sltiu_cg_cmp_rd_rs1_b24_str
00003094 l       .text.rvtest	00000000 I_sltiu_cg_cmp_rd_rs1_b25
0000eae7 l       .data	00000000 I_sltiu_cg_cmp_rd_rs1_b25_str
000030b8 l       .text.rvtest	00000000 I_sltiu_cg_cmp_rd_rs1_b26
0000eb1d l       .data	00000000 I_sltiu_cg_cmp_rd_rs1_b26_str
000030dc l       .text.rvtest	00000000 I_sltiu_cg_cmp_rd_rs1_b27
0000eb53 l       .data	00000000 I_sltiu_cg_cmp_rd_rs1_b27_str
00003100 l       .text.rvtest	00000000 I_sltiu_cg_cmp_rd_rs1_b28
0000eb89 l       .data	00000000 I_sltiu_cg_cmp_rd_rs1_b28_str
00003124 l       .text.rvtest	00000000 I_sltiu_cg_cmp_rd_rs1_b29
0000ebbf l       .data	00000000 I_sltiu_cg_cmp_rd_rs1_b29_str
00003148 l       .text.rvtest	00000000 I_sltiu_cg_cmp_rd_rs1_b30
0000ebf5 l       .data	00000000 I_sltiu_cg_cmp_rd_rs1_b30_str
0000316c l       .text.rvtest	00000000 I_sltiu_cg_cmp_rd_rs1_b31
0000ec2b l       .data	00000000 I_sltiu_cg_cmp_rd_rs1_b31_str
00003190 l       .text.rvtest	00000000 I_sltiu_cg_cp_imm_edges_0x0
0000ec61 l       .data	00000000 I_sltiu_cg_cp_imm_edges_0x0_str
000031b4 l       .text.rvtest	00000000 I_sltiu_cg_cp_imm_edges_0x1
0000ec99 l       .data	00000000 I_sltiu_cg_cp_imm_edges_0x1_str
000031d8 l       .text.rvtest	00000000 I_sltiu_cg_cp_imm_edges_0x2
0000ecd1 l       .data	00000000 I_sltiu_cg_cp_imm_edges_0x2_str
000031fc l       .text.rvtest	00000000 I_sltiu_cg_cp_imm_edges_0x3
0000ed09 l       .data	00000000 I_sltiu_cg_cp_imm_edges_0x3_str
00003220 l       .text.rvtest	00000000 I_sltiu_cg_cp_imm_edges_0x4
0000ed41 l       .data	00000000 I_sltiu_cg_cp_imm_edges_0x4_str
00003244 l       .text.rvtest	00000000 I_sltiu_cg_cp_imm_edges_0x8
0000ed79 l       .data	00000000 I_sltiu_cg_cp_imm_edges_0x8_str
00003268 l       .text.rvtest	00000000 I_sltiu_cg_cp_imm_edges_0x10
0000edb1 l       .data	00000000 I_sltiu_cg_cp_imm_edges_0x10_str
0000328c l       .text.rvtest	00000000 I_sltiu_cg_cp_imm_edges_0x20
0000edea l       .data	00000000 I_sltiu_cg_cp_imm_edges_0x20_str
000032b0 l       .text.rvtest	00000000 I_sltiu_cg_cp_imm_edges_0x40
0000ee23 l       .data	00000000 I_sltiu_cg_cp_imm_edges_0x40_str
000032d4 l       .text.rvtest	00000000 I_sltiu_cg_cp_imm_edges_0x80
0000ee5c l       .data	00000000 I_sltiu_cg_cp_imm_edges_0x80_str
000032f8 l       .text.rvtest	00000000 I_sltiu_cg_cp_imm_edges_0x100
0000ee95 l       .data	00000000 I_sltiu_cg_cp_imm_edges_0x100_str
0000331c l       .text.rvtest	00000000 I_sltiu_cg_cp_imm_edges_0x200
0000eecf l       .data	00000000 I_sltiu_cg_cp_imm_edges_0x200_str
00003340 l       .text.rvtest	00000000 I_sltiu_cg_cp_imm_edges_0x3ff
0000ef09 l       .data	00000000 I_sltiu_cg_cp_imm_edges_0x3ff_str
00003364 l       .text.rvtest	00000000 I_sltiu_cg_cp_imm_edges_0x400
0000ef43 l       .data	00000000 I_sltiu_cg_cp_imm_edges_0x400_str
00003388 l       .text.rvtest	00000000 I_sltiu_cg_cp_imm_edges_0x703
0000ef7d l       .data	00000000 I_sltiu_cg_cp_imm_edges_0x703_str
000033ac l       .text.rvtest	00000000 I_sltiu_cg_cp_imm_edges_0x7ff
0000efb7 l       .data	00000000 I_sltiu_cg_cp_imm_edges_0x7ff_str
000033d0 l       .text.rvtest	00000000 I_sltiu_cg_cp_imm_edges_m0x800
0000eff1 l       .data	00000000 I_sltiu_cg_cp_imm_edges_m0x800_str
000033f4 l       .text.rvtest	00000000 I_sltiu_cg_cp_imm_edges_m0x7ff
0000f02c l       .data	00000000 I_sltiu_cg_cp_imm_edges_m0x7ff_str
00003418 l       .text.rvtest	00000000 I_sltiu_cg_cp_imm_edges_m0x2
0000f067 l       .data	00000000 I_sltiu_cg_cp_imm_edges_m0x2_str
0000343c l       .text.rvtest	00000000 I_sltiu_cg_cp_imm_edges_m0x1
0000f0a0 l       .data	00000000 I_sltiu_cg_cp_imm_edges_m0x1_str
00003458 l       .text.rvtest	00000000 exit_cleanup
0000f744 l       .data	00000000 successstr
00020204 l       .text.rvmodel	00000000 rvmodel_io_write_str
00020208 l       .text.rvmodel	00000000 rvmodel_halt_pass
00003490 l       .text.rvtest	00000000 abort_test
6f5ca309 l       *ABS*	00000000 immx
6f5ca309 l       *ABS*	00000000 absimm
00000000 l       *ABS*	00000000 cry
00000309 l       *ABS*	00000000 imm12
0000f0e0 l       .data	00000000 begin_failure_scratch
00003560 l       .text.rvtest	00000000 failedtest_saveregs
00003504 l       .text.rvtest	00000000 failedtest_trap_x7_x9
0000f250 l       .data	00000000 saved_mcause
0000f258 l       .data	00000000 saved_mtval
0000f260 l       .data	00000000 saved_mstatus
000035d0 l       .text.rvtest	00000000 failedtest_saveresults
0000f0e0 l       .data	00000000 failure_type
0000364c l       .text.rvtest	00000000 failedtest_saveresults_trap
000035e0 l       .text.rvtest	00000000 failedtest_saveresults_int
00003a20 l       .text.rvtest	00000000 failedtest_saveresults_common
0000f238 l       .data	00000000 trap_diag_fail_str_ptr
0000f90e l       .data	00000000 trap_sig_offset_mismatch
00003900 l       .text.rvtest	00000000 trap_diag_offset_mismatch
0000f210 l       .data	00000000 trap_diag_subtype
0000f972 l       .data	00000000 sv_Mvect_str
00003980 l       .text.rvtest	00000000 trap_diag_field_identified
0000fa74 l       .data	00000000 sv_Mcause_str
0000fb6f l       .data	00000000 sv_Mepc_str
0000fc62 l       .data	00000000 sv_Mtval_str
0000fdd5 l       .data	00000000 sv_Mip_str
0000fd59 l       .data	00000000 sv_Mtval2_str
0000fd97 l       .data	00000000 sv_Mtinst_str
0000f9b2 l       .data	00000000 sv_Svect_str
0000fab2 l       .data	00000000 sv_Scause_str
0000fbab l       .data	00000000 sv_Sepc_str
0000fc9f l       .data	00000000 sv_Stval_str
0000fe10 l       .data	00000000 sv_Sip_str
0000f9f2 l       .data	00000000 sv_Hvect_str
0000faf0 l       .data	00000000 sv_Hcause_str
0000fbe7 l       .data	00000000 sv_Hepc_str
0000fcdc l       .data	00000000 sv_Htval_str
0000fe4b l       .data	00000000 sv_Hip_str
0000fa33 l       .data	00000000 sv_Vvect_str
0000fb2f l       .data	00000000 sv_Vcause_str
0000fc24 l       .data	00000000 sv_Vepc_str
0000fd1a l       .data	00000000 sv_Vtval_str
0000fe87 l       .data	00000000 sv_Vip_str
0000fec4 l       .data	00000000 Mclr_Mext_int_str
0000ff13 l       .data	00000000 Mclr_Sext_int_str
0001000e l       .data	00000000 Sclr_Sext_int_str
0001010a l       .data	00000000 Hclr_Sext_int_str
00003a10 l       .text.rvtest	00000000 trap_diag_generic_report
0000f228 l       .data	00000000 trap_diag_actual_offset
0000f230 l       .data	00000000 trap_diag_expected_offset
0000f214 l       .data	00000000 trap_diag_mode
0000f218 l       .data	00000000 trap_diag_actual_value
0000f220 l       .data	00000000 trap_diag_expected_value
00003a50 l       .text.rvtest	00000000 failedtest_report
00003a50 l       .text.rvtest	00000000 print_failstr
0000f77c l       .data	00000000 failstr
00003a88 l       .text.rvtest	00000000 print_testnamestr
0000f811 l       .data	00000000 testnamestr
00003ac8 l       .text.rvtest	00000000 print_failure_test_name_str
0000f200 l       .data	00000000 failure_string_ptr
00003ad8 l       .text.rvtest	00000000 print_newline_str
0000f823 l       .data	00000000 newlinestr
00003f0c l       .text.rvtest	00000000 failedtest_report_trap_detailed
0000f825 l       .data	00000000 inststr
0000f1e0 l       .data	00000000 failing_instruction
00004e58 l       .text.rvtest	00000000 failedtest_hex_to_str
0000f268 l       .data	00000000 ascii_buffer
0000f839 l       .data	00000000 addrstr
0000f1e8 l       .data	00000000 failing_addr
000102b6 l       .data	00000000 regstr
00003cb8 l       .text.rvtest	00000000 failedtest_report_not_intreg
0000f1e4 l       .data	00000000 failing_reg
00004ed4 l       .text.rvtest	00000000 failedtest_dec_to_str
00003d94 l       .text.rvtest	00000000 failedtest_report_print_regstr
00003d0c l       .text.rvtest	00000000 failedtest_report_fpreg
00003d58 l       .text.rvtest	00000000 failedtest_report_vecreg
00010316 l       .data	00000000 fflagsstr
00003dc8 l       .text.rvtest	00000000 failedtest_report_after_reg
000102c7 l       .data	00000000 badvalstr
00003e2c l       .text.rvtest	00000000 failedtest_report_badval_not_fp
0000f1f0 l       .data	00000000 failing_value
00003e3c l       .text.rvtest	00000000 failedtest_report_badval_done
000102de l       .data	00000000 expvalstr
00003ecc l       .text.rvtest	00000000 failedtest_report_expval_not_fp
0000f1f8 l       .data	00000000 expected_value
00003edc l       .text.rvtest	00000000 failedtest_report_expval_done
00004c04 l       .text.rvtest	00000000 failedtest_report_end
00010342 l       .data	00000000 trap_diag_header_str
0001036e l       .data	00000000 trap_diag_origstr_label
00003fe0 l       .text.rvtest	00000000 trap_report_offset_mismatch
00004a90 l       .text.rvtest	00000000 trap_report_generic
00004354 l       .text.rvtest	00000000 trap_report_field_mismatch
0001037e l       .data	00000000 trap_diag_count_mismatch_str
000103df l       .data	00000000 trap_diag_expected_offset_str
00010406 l       .data	00000000 trap_diag_actual_offset_str
00004234 l       .text.rvtest	00000000 trap_report_missing_traps
0000411c l       .text.rvtest	00000000 trap_report_extra_traps
0001042d l       .data	00000000 trap_diag_extra_traps_str
000104b2 l       .data	00000000 trap_diag_extra_bytes_str
000104dd l       .data	00000000 trap_diag_extra_hint_str
00004c50 l       .text.rvtest	00000000 failedtest_print_csr_context
00010467 l       .data	00000000 trap_diag_missing_traps_str
000105c5 l       .data	00000000 trap_diag_missing_hint_str
000106ac l       .data	00000000 trap_diag_handler_mode_str
000043e4 l       .text.rvtest	00000000 trap_mode_m
00004424 l       .text.rvtest	00000000 trap_mode_s
00004464 l       .text.rvtest	00000000 trap_mode_h
000044a4 l       .text.rvtest	00000000 trap_mode_v
000106e8 l       .data	00000000 trap_diag_mode_unknown_str
000044e0 l       .text.rvtest	00000000 trap_mode_print
000106c6 l       .data	00000000 trap_diag_mode_m_str
000106ce l       .data	00000000 trap_diag_mode_s_str
000106d6 l       .data	00000000 trap_diag_mode_hs_str
000106df l       .data	00000000 trap_diag_mode_vs_str
000106f1 l       .data	00000000 trap_diag_field_str
000045a4 l       .text.rvtest	00000000 trap_field_vect
000045e4 l       .text.rvtest	00000000 trap_field_cause
00004624 l       .text.rvtest	00000000 trap_field_epc
00004664 l       .text.rvtest	00000000 trap_field_tval
000046a4 l       .text.rvtest	00000000 trap_field_ip
000046e4 l       .text.rvtest	00000000 trap_field_tval2
00004724 l       .text.rvtest	00000000 trap_field_tinst
00004764 l       .text.rvtest	00000000 trap_field_intid
00010848 l       .data	00000000 trap_diag_field_unknown_str
000047a0 l       .text.rvtest	00000000 trap_field_print
0001070b l       .data	00000000 trap_diag_field_vect_str
0001073c l       .data	00000000 trap_diag_field_cause_str
0001075c l       .data	00000000 trap_diag_field_epc_str
0001077a l       .data	00000000 trap_diag_field_tval_str
00010799 l       .data	00000000 trap_diag_field_ip_str
000107c1 l       .data	00000000 trap_diag_field_tval2_str
000107ed l       .data	00000000 trap_diag_field_tinst_str
00010819 l       .data	00000000 trap_diag_field_intid_str
00010857 l       .data	00000000 trap_diag_expected_str
0001086e l       .data	00000000 trap_diag_actual_str
0000493c l       .text.rvtest	00000000 trap_field_not_cause
00010885 l       .data	00000000 trap_diag_expected_cause_name_str
00004b74 l       .text.rvtest	00000000 trap_cause_to_str
0001089c l       .data	00000000 trap_diag_actual_cause_name_str
0000493c l       .text.rvtest	00000000 trap_field_not_epc
00010912 l       .data	00000000 trap_diag_hint_vect_str
000109e8 l       .data	00000000 trap_diag_hint_cause_str
00010adb l       .data	00000000 trap_diag_hint_epc_str
00010bd6 l       .data	00000000 trap_diag_hint_tval_str
00010cbd l       .data	00000000 trap_diag_hint_ip_str
000108ca l       .data	00000000 trap_diag_generic_str
0000f248 l       .data	00000000 saved_mepc
0000f8ad l       .data	00000000 xepcinstrstr
00004b98 l       .text.rvtest	00000000 trap_cause_interrupt
00004b78 l       .text.rvtest	00000000 trap_cause_exception
00004bc4 l       .text.rvtest	00000000 trap_cause_unknown
0000f290 l       .data	00000000 trap_excpt_name_tbl
0000f2f0 l       .data	00000000 trap_int_name_tbl
0000f72e l       .data	00000000 trap_cause_unknown_str
000102f5 l       .data	00000000 endstr
00004c48 l       .text.rvtest	00000000 failedtest_terminate
00020214 l       .text.rvmodel	00000000 rvmodel_halt_fail
0000f240 l       .data	00000000 csr_context_ret_addr
0000f8ce l       .data	00000000 mepcstr
0000f8de l       .data	00000000 mcausestr
0000f8ee l       .data	00000000 mtvalstr
0000f8fe l       .data	00000000 mstatusstr
00004e98 l       .text.rvtest	00000000 failedtest_hex_to_str_loop
00004eb4 l       .text.rvtest	00000000 failedtest_hex_to_str_digit
00004eb8 l       .text.rvtest	00000000 failedtest_hex_to_str_write
00020000 l       .text.rvmodel	00000000 rvtest_boot_to_mmode
00020000 l       .text.rvmodel	00000000 rvtest_init_regs
00010db0 l       .data	00000000 signature_base
000201a0 l       .text.rvmodel	00000000 canary_check
0001031e l       .data	00000000 canary_mismatch
00008000 l       .data	00000000 scratch
0000f290 l       .data	00000000 end_failure_scratch
0000f330 l       .data	00000000 trap_excpt_name_0
0000f350 l       .data	00000000 trap_excpt_name_1
0000f36a l       .data	00000000 trap_excpt_name_2
0000f37f l       .data	00000000 trap_excpt_name_3
0000f38b l       .data	00000000 trap_excpt_name_4
0000f3a4 l       .data	00000000 trap_excpt_name_5
0000f3b7 l       .data	00000000 trap_excpt_name_6
0000f3d5 l       .data	00000000 trap_excpt_name_7
0000f3ed l       .data	00000000 trap_excpt_name_8
0000f40b l       .data	00000000 trap_excpt_name_9
0000f429 l       .data	00000000 trap_excpt_name_10
0000f448 l       .data	00000000 trap_excpt_name_11
0000f466 l       .data	00000000 trap_excpt_name_12
0000f47e l       .data	00000000 trap_excpt_name_13
0000f48f l       .data	00000000 trap_excpt_name_14
0000f49e l       .data	00000000 trap_excpt_name_15
0000f4b4 l       .data	00000000 trap_excpt_name_16
0000f4c1 l       .data	00000000 trap_excpt_name_17
0000f4d0 l       .data	00000000 trap_excpt_name_18
0000f4e0 l       .data	00000000 trap_excpt_name_19
0000f4f0 l       .data	00000000 trap_excpt_name_20
0000f50e l       .data	00000000 trap_excpt_name_21
0000f525 l       .data	00000000 trap_excpt_name_22
0000f53a l       .data	00000000 trap_excpt_name_23
0000f556 l       .data	00000000 trap_int_name_0
0000f56e l       .data	00000000 trap_int_name_1
0000f58d l       .data	00000000 trap_int_name_2
0000f5b4 l       .data	00000000 trap_int_name_3
0000f5d0 l       .data	00000000 trap_int_name_4
0000f5e8 l       .data	00000000 trap_int_name_5
0000f604 l       .data	00000000 trap_int_name_6
0000f628 l       .data	00000000 trap_int_name_7
0000f641 l       .data	00000000 trap_int_name_8
0000f659 l       .data	00000000 trap_int_name_9
0000f678 l       .data	00000000 trap_int_name_10
0000f69f l       .data	00000000 trap_int_name_11
0000f6bb l       .data	00000000 trap_int_name_12
0000f6e0 l       .data	00000000 trap_int_name_13
0000f6fc l       .data	00000000 trap_int_name_14
0000f715 l       .data	00000000 trap_int_name_15
0000f7d3 l       .data	00000000 abortstr
0000f87a l       .data	00000000 xepcstr
0000ff65 l       .data	00000000 Mclr_Vext_int_str
0000ffbf l       .data	00000000 Sclr_Mext_int_str
00010060 l       .data	00000000 Sclr_Vext_int_str
000100ba l       .data	00000000 Hclr_Mext_int_str
0001015d l       .data	00000000 Hclr_Vext_int_str
000101b8 l       .data	00000000 Vclr_Mext_int_str
00010208 l       .data	00000000 Vclr_Sext_int_str
0001025b l       .data	00000000 Vclr_Vext_int_str
000108b3 l       .data	00000000 trap_diag_curr_xepc_str
000113a0 l       .data	00000000 trap_sigptr
0001fe10 g       .data	00000000 end_signature
0001fe10 g       .data	00000000 rvtest_sig_end
00000000 g       .text.init	00000000 rvtest_entry_point
00010db0 g       .data	00000000 begin_signature
00003458 g       .text.rvtest	00000000 rvtest_code_end
00000040 g       .text.rvtest	00000000 rvtest_code_begin
00010db0 g       .data	00000000 rvtest_sig_begin
00008110 g       .data	00000000 rvtest_data_begin
00010da2 g       .data	00000000 rvtest_data_end
00003458 g       .text.rvtest	00000000 cleanup_epilogs
00021000 g       .text.rvmodel	00000000 _end



Disassembly of section .text.init:

00000000 <rvtest_entry_point>:

// Include framework macros
#include "riscv_arch_test.h"

// Set up test environment and declare main entry point
RVTEST_BEGIN
   0:	00020097          	auipc	x1,0x20
   4:	00008093          	addi	x1,x1,0 # 20000 <rvmodel_boot>
   8:	00000013          	addi	x0,x0,0
   c:	00000013          	addi	x0,x0,0
  10:	00000013          	addi	x0,x0,0
  14:	00000013          	addi	x0,x0,0
  18:	00000013          	addi	x0,x0,0
  1c:	00000013          	addi	x0,x0,0
  20:	000080e7          	jalr	x1,0(x1)
  24:	00000013          	addi	x0,x0,0
  28:	00000013          	addi	x0,x0,0
  2c:	00000013          	addi	x0,x0,0
  30:	00000013          	addi	x0,x0,0
  34:	00000013          	addi	x0,x0,0
  38:	00000013          	addi	x0,x0,0
  3c:	00000013          	addi	x0,x0,0

Disassembly of section .text.rvtest:

00000040 <rvtest_code_begin>:
/////////////////////////////////
// cp_rs1
/////////////////////////////////

# Testcase cp_rs1 (Test source rs1 = x0)
  RVTEST_TESTDATA_LOAD_INT(x3, x0) # load rs1: x0 = 0xca1d6ea7
      40:	0001a003          	lw	x0,0(x3)
      44:	00418193          	addi	x3,x3,4

00000048 <I_sltiu_cg_cp_rs1_b0>:
I_sltiu_cg_cp_rs1_b0:
  sltiu x24, x0, -176 # perform operation
      48:	f5003c13          	sltiu	x24,x0,-176
  # Check if x24 contains the expected result. x2 is the signature ptr, x5 is the link ptr, x4 is a temp reg.
  RVTEST_SIGUPD(x2, x5, x4, x24, I_sltiu_cg_cp_rs1_b0, I_sltiu_cg_cp_rs1_b0_str)
      4c:	00012203          	lw	x4,0(x2)
      50:	01820863          	beq	x4,x24,60 <I_sltiu_cg_cp_rs1_b0+0x18>
      54:	448032ef          	jal	x5,349c <failedtest_x5_x4>
      58:	00000048          	.word	0x00000048
      5c:	000086d0          	.word	0x000086d0
      60:	00410113          	addi	x2,x2,4

# Testcase cp_rs1 (Test source rs1 = x1)
  RVTEST_TESTDATA_LOAD_INT(x3, x1) # load rs1: x1 = 0xc1e796a9
      64:	0001a083          	lw	x1,0(x3)
      68:	00418193          	addi	x3,x3,4

0000006c <I_sltiu_cg_cp_rs1_b1>:
I_sltiu_cg_cp_rs1_b1:
  sltiu x23, x1, 759 # perform operation
      6c:	2f70bb93          	sltiu	x23,x1,759
  # Check if x23 contains the expected result. x2 is the signature ptr, x5 is the link ptr, x4 is a temp reg.
  RVTEST_SIGUPD(x2, x5, x4, x23, I_sltiu_cg_cp_rs1_b1, I_sltiu_cg_cp_rs1_b1_str)
      70:	00012203          	lw	x4,0(x2)
      74:	01720863          	beq	x4,x23,84 <I_sltiu_cg_cp_rs1_b1+0x18>
      78:	424032ef          	jal	x5,349c <failedtest_x5_x4>
      7c:	0000006c          	.word	0x0000006c
      80:	000086ff          	.word	0x000086ff
      84:	00410113          	addi	x2,x2,4

  mv x20, x2 # switch signature pointer register to avoid conflict with test
      88:	00010a13          	addi	x20,x2,0
# Testcase cp_rs1 (Test source rs1 = x2)
  RVTEST_TESTDATA_LOAD_INT(x3, x2) # load rs1: x2 = 0x298259d3
      8c:	0001a103          	lw	x2,0(x3)
      90:	00418193          	addi	x3,x3,4

00000094 <I_sltiu_cg_cp_rs1_b2>:
I_sltiu_cg_cp_rs1_b2:
  sltiu x27, x2, 1238 # perform operation
      94:	4d613d93          	sltiu	x27,x2,1238
  # Check if x27 contains the expected result. x20 is the signature ptr, x5 is the link ptr, x4 is a temp reg.
  RVTEST_SIGUPD(x20, x5, x4, x27, I_sltiu_cg_cp_rs1_b2, I_sltiu_cg_cp_rs1_b2_str)
      98:	000a2203          	lw	x4,0(x20)
      9c:	01b20863          	beq	x4,x27,ac <I_sltiu_cg_cp_rs1_b2+0x18>
      a0:	3fc032ef          	jal	x5,349c <failedtest_x5_x4>
      a4:	00000094          	.word	0x00000094
      a8:	0000872e          	.word	0x0000872e
      ac:	004a0a13          	addi	x20,x20,4

  mv x1, x3 # switch data pointer register to avoid conflict with test
      b0:	00018093          	addi	x1,x3,0
# Testcase cp_rs1 (Test source rs1 = x3)
  RVTEST_TESTDATA_LOAD_INT(x1, x3) # load rs1: x3 = 0xd518127c
      b4:	0000a183          	lw	x3,0(x1)
      b8:	00408093          	addi	x1,x1,4

000000bc <I_sltiu_cg_cp_rs1_b3>:
I_sltiu_cg_cp_rs1_b3:
  sltiu x9, x3, -676 # perform operation
      bc:	d5c1b493          	sltiu	x9,x3,-676
  # Check if x9 contains the expected result. x20 is the signature ptr, x5 is the link ptr, x4 is a temp reg.
  RVTEST_SIGUPD(x20, x5, x4, x9, I_sltiu_cg_cp_rs1_b3, I_sltiu_cg_cp_rs1_b3_str)
      c0:	000a2203          	lw	x4,0(x20)
      c4:	00920863          	beq	x4,x9,d4 <I_sltiu_cg_cp_rs1_b3+0x18>
      c8:	3d4032ef          	jal	x5,349c <failedtest_x5_x4>
      cc:	000000bc          	.word	0x000000bc
      d0:	0000875d          	.word	0x0000875d
      d4:	004a0a13          	addi	x20,x20,4

  mv x7, x4 # switch temp register to avoid conflict with test
      d8:	00020393          	addi	x7,x4,0 # 0 <rvtest_entry_point>
  mv x8, x5 # switch link pointer register to avoid conflict with test
      dc:	00028413          	addi	x8,x5,0
# Testcase cp_rs1 (Test source rs1 = x4)
  RVTEST_TESTDATA_LOAD_INT(x1, x4) # load rs1: x4 = 0x254c4a76
      e0:	0000a203          	lw	x4,0(x1)
      e4:	00408093          	addi	x1,x1,4

000000e8 <I_sltiu_cg_cp_rs1_b4>:
I_sltiu_cg_cp_rs1_b4:
  sltiu x29, x4, 999 # perform operation
      e8:	3e723e93          	sltiu	x29,x4,999
  # Check if x29 contains the expected result. x20 is the signature ptr, x8 is the link ptr, x7 is a temp reg.
  RVTEST_SIGUPD(x20, x8, x7, x29, I_sltiu_cg_cp_rs1_b4, I_sltiu_cg_cp_rs1_b4_str)
      ec:	000a2383          	lw	x7,0(x20)
      f0:	01d38863          	beq	x7,x29,100 <I_sltiu_cg_cp_rs1_b4+0x18>
      f4:	3c00346f          	jal	x8,34b4 <failedtest_x8_x7>
      f8:	000000e8          	.word	0x000000e8
      fc:	0000878c          	.word	0x0000878c
     100:	004a0a13          	addi	x20,x20,4

# Testcase cp_rs1 (Test source rs1 = x5)
  RVTEST_TESTDATA_LOAD_INT(x1, x5) # load rs1: x5 = 0x883a6091
     104:	0000a283          	lw	x5,0(x1)
     108:	00408093          	addi	x1,x1,4

0000010c <I_sltiu_cg_cp_rs1_b5>:
I_sltiu_cg_cp_rs1_b5:
  sltiu x14, x5, -1053 # perform operation
     10c:	be32b713          	sltiu	x14,x5,-1053
  # Check if x14 contains the expected result. x20 is the signature ptr, x8 is the link ptr, x7 is a temp reg.
  RVTEST_SIGUPD(x20, x8, x7, x14, I_sltiu_cg_cp_rs1_b5, I_sltiu_cg_cp_rs1_b5_str)
     110:	000a2383          	lw	x7,0(x20)
     114:	00e38863          	beq	x7,x14,124 <I_sltiu_cg_cp_rs1_b5+0x18>
     118:	39c0346f          	jal	x8,34b4 <failedtest_x8_x7>
     11c:	0000010c          	.word	0x0000010c
     120:	000087bb          	.word	0x000087bb
     124:	004a0a13          	addi	x20,x20,4

# Testcase cp_rs1 (Test source rs1 = x6)
  RVTEST_TESTDATA_LOAD_INT(x1, x6) # load rs1: x6 = 0x42dc77c0
     128:	0000a303          	lw	x6,0(x1)
     12c:	00408093          	addi	x1,x1,4

00000130 <I_sltiu_cg_cp_rs1_b6>:
I_sltiu_cg_cp_rs1_b6:
  sltiu x21, x6, 1675 # perform operation
     130:	68b33a93          	sltiu	x21,x6,1675
  # Check if x21 contains the expected result. x20 is the signature ptr, x8 is the link ptr, x7 is a temp reg.
  RVTEST_SIGUPD(x20, x8, x7, x21, I_sltiu_cg_cp_rs1_b6, I_sltiu_cg_cp_rs1_b6_str)
     134:	000a2383          	lw	x7,0(x20)
     138:	01538863          	beq	x7,x21,148 <I_sltiu_cg_cp_rs1_b6+0x18>
     13c:	3780346f          	jal	x8,34b4 <failedtest_x8_x7>
     140:	00000130          	.word	0x00000130
     144:	000087ea          	.word	0x000087ea
     148:	004a0a13          	addi	x20,x20,4

  mv x4, x7 # switch temp register to avoid conflict with test
     14c:	00038213          	addi	x4,x7,0
  mv x5, x8 # switch link pointer register to avoid conflict with test
     150:	00040293          	addi	x5,x8,0
# Testcase cp_rs1 (Test source rs1 = x7)
  RVTEST_TESTDATA_LOAD_INT(x1, x7) # load rs1: x7 = 0x7fa51180
     154:	0000a383          	lw	x7,0(x1)
     158:	00408093          	addi	x1,x1,4

0000015c <I_sltiu_cg_cp_rs1_b7>:
I_sltiu_cg_cp_rs1_b7:
  sltiu x23, x7, -1138 # perform operation
     15c:	b8e3bb93          	sltiu	x23,x7,-1138
  # Check if x23 contains the expected result. x20 is the signature ptr, x5 is the link ptr, x4 is a temp reg.
  RVTEST_SIGUPD(x20, x5, x4, x23, I_sltiu_cg_cp_rs1_b7, I_sltiu_cg_cp_rs1_b7_str)
     160:	000a2203          	lw	x4,0(x20)
     164:	01720863          	beq	x4,x23,174 <I_sltiu_cg_cp_rs1_b7+0x18>
     168:	334032ef          	jal	x5,349c <failedtest_x5_x4>
     16c:	0000015c          	.word	0x0000015c
     170:	00008819          	.word	0x00008819
     174:	004a0a13          	addi	x20,x20,4

# Testcase cp_rs1 (Test source rs1 = x8)
  RVTEST_TESTDATA_LOAD_INT(x1, x8) # load rs1: x8 = 0xc49996bc
     178:	0000a403          	lw	x8,0(x1)
     17c:	00408093          	addi	x1,x1,4

00000180 <I_sltiu_cg_cp_rs1_b8>:
I_sltiu_cg_cp_rs1_b8:
  sltiu x26, x8, -1001 # perform operation
     180:	c1743d13          	sltiu	x26,x8,-1001
  # Check if x26 contains the expected result. x20 is the signature ptr, x5 is the link ptr, x4 is a temp reg.
  RVTEST_SIGUPD(x20, x5, x4, x26, I_sltiu_cg_cp_rs1_b8, I_sltiu_cg_cp_rs1_b8_str)
     184:	000a2203          	lw	x4,0(x20)
     188:	01a20863          	beq	x4,x26,198 <I_sltiu_cg_cp_rs1_b8+0x18>
     18c:	310032ef          	jal	x5,349c <failedtest_x5_x4>
     190:	00000180          	.word	0x00000180
     194:	00008848          	.word	0x00008848
     198:	004a0a13          	addi	x20,x20,4

# Testcase cp_rs1 (Test source rs1 = x9)
  RVTEST_TESTDATA_LOAD_INT(x1, x9) # load rs1: x9 = 0xfb9efb75
     19c:	0000a483          	lw	x9,0(x1)
     1a0:	00408093          	addi	x1,x1,4

000001a4 <I_sltiu_cg_cp_rs1_b9>:
I_sltiu_cg_cp_rs1_b9:
  sltiu x27, x9, 368 # perform operation
     1a4:	1704bd93          	sltiu	x27,x9,368
  # Check if x27 contains the expected result. x20 is the signature ptr, x5 is the link ptr, x4 is a temp reg.
  RVTEST_SIGUPD(x20, x5, x4, x27, I_sltiu_cg_cp_rs1_b9, I_sltiu_cg_cp_rs1_b9_str)
     1a8:	000a2203          	lw	x4,0(x20)
     1ac:	01b20863          	beq	x4,x27,1bc <I_sltiu_cg_cp_rs1_b9+0x18>
     1b0:	2ec032ef          	jal	x5,349c <failedtest_x5_x4>
     1b4:	000001a4          	.word	0x000001a4
     1b8:	00008877          	.word	0x00008877
     1bc:	004a0a13          	addi	x20,x20,4

# Testcase cp_rs1 (Test source rs1 = x10)
  RVTEST_TESTDATA_LOAD_INT(x1, x10) # load rs1: x10 = 0xeef6c945
     1c0:	0000a503          	lw	x10,0(x1)
     1c4:	00408093          	addi	x1,x1,4

000001c8 <I_sltiu_cg_cp_rs1_b10>:
I_sltiu_cg_cp_rs1_b10:
  sltiu x23, x10, 1308 # perform operation
     1c8:	51c53b93          	sltiu	x23,x10,1308
  # Check if x23 contains the expected result. x20 is the signature ptr, x5 is the link ptr, x4 is a temp reg.
  RVTEST_SIGUPD(x20, x5, x4, x23, I_sltiu_cg_cp_rs1_b10, I_sltiu_cg_cp_rs1_b10_str)
     1cc:	000a2203          	lw	x4,0(x20)
     1d0:	01720863          	beq	x4,x23,1e0 <I_sltiu_cg_cp_rs1_b10+0x18>
     1d4:	2c8032ef          	jal	x5,349c <failedtest_x5_x4>
     1d8:	000001c8          	.word	0x000001c8
     1dc:	000088a7          	.word	0x000088a7
     1e0:	004a0a13          	addi	x20,x20,4

# Testcase cp_rs1 (Test source rs1 = x11)
  RVTEST_TESTDATA_LOAD_INT(x1, x11) # load rs1: x11 = 0xda459775
     1e4:	0000a583          	lw	x11,0(x1)
     1e8:	00408093          	addi	x1,x1,4

000001ec <I_sltiu_cg_cp_rs1_b11>:
I_sltiu_cg_cp_rs1_b11:
  sltiu x29, x11, 1078 # perform operation
     1ec:	4365be93          	sltiu	x29,x11,1078
  # Check if x29 contains the expected result. x20 is the signature ptr, x5 is the link ptr, x4 is a temp reg.
  RVTEST_SIGUPD(x20, x5, x4, x29, I_sltiu_cg_cp_rs1_b11, I_sltiu_cg_cp_rs1_b11_str)
     1f0:	000a2203          	lw	x4,0(x20)
     1f4:	01d20863          	beq	x4,x29,204 <I_sltiu_cg_cp_rs1_b11+0x18>
     1f8:	2a4032ef          	jal	x5,349c <failedtest_x5_x4>
     1fc:	000001ec          	.word	0x000001ec
     200:	000088d8          	.word	0x000088d8
     204:	004a0a13          	addi	x20,x20,4

# Testcase cp_rs1 (Test source rs1 = x12)
  RVTEST_TESTDATA_LOAD_INT(x1, x12) # load rs1: x12 = 0x56fda1f0
     208:	0000a603          	lw	x12,0(x1)
     20c:	00408093          	addi	x1,x1,4

00000210 <I_sltiu_cg_cp_rs1_b12>:
I_sltiu_cg_cp_rs1_b12:
  sltiu x18, x12, -636 # perform operation
     210:	d8463913          	sltiu	x18,x12,-636
  # Check if x18 contains the expected result. x20 is the signature ptr, x5 is the link ptr, x4 is a temp reg.
  RVTEST_SIGUPD(x20, x5, x4, x18, I_sltiu_cg_cp_rs1_b12, I_sltiu_cg_cp_rs1_b12_str)
     214:	000a2203          	lw	x4,0(x20)
     218:	01220863          	beq	x4,x18,228 <I_sltiu_cg_cp_rs1_b12+0x18>
     21c:	280032ef          	jal	x5,349c <failedtest_x5_x4>
     220:	00000210          	.word	0x00000210
     224:	00008909          	.word	0x00008909
     228:	004a0a13          	addi	x20,x20,4

# Testcase cp_rs1 (Test source rs1 = x13)
  RVTEST_TESTDATA_LOAD_INT(x1, x13) # load rs1: x13 = 0x7796bc7b
     22c:	0000a683          	lw	x13,0(x1)
     230:	00408093          	addi	x1,x1,4

00000234 <I_sltiu_cg_cp_rs1_b13>:
I_sltiu_cg_cp_rs1_b13:
  sltiu x16, x13, -1602 # perform operation
     234:	9be6b813          	sltiu	x16,x13,-1602
  # Check if x16 contains the expected result. x20 is the signature ptr, x5 is the link ptr, x4 is a temp reg.
  RVTEST_SIGUPD(x20, x5, x4, x16, I_sltiu_cg_cp_rs1_b13, I_sltiu_cg_cp_rs1_b13_str)
     238:	000a2203          	lw	x4,0(x20)
     23c:	01020863          	beq	x4,x16,24c <I_sltiu_cg_cp_rs1_b13+0x18>
     240:	25c032ef          	jal	x5,349c <failedtest_x5_x4>
     244:	00000234          	.word	0x00000234
     248:	0000893a          	.word	0x0000893a
     24c:	004a0a13          	addi	x20,x20,4

# Testcase cp_rs1 (Test source rs1 = x14)
  RVTEST_TESTDATA_LOAD_INT(x1, x14) # load rs1: x14 = 0xaa604d53
     250:	0000a703          	lw	x14,0(x1)
     254:	00408093          	addi	x1,x1,4

00000258 <I_sltiu_cg_cp_rs1_b14>:
I_sltiu_cg_cp_rs1_b14:
  sltiu x6, x14, 288 # perform operation
     258:	12073313          	sltiu	x6,x14,288
  # Check if x6 contains the expected result. x20 is the signature ptr, x5 is the link ptr, x4 is a temp reg.
  RVTEST_SIGUPD(x20, x5, x4, x6, I_sltiu_cg_cp_rs1_b14, I_sltiu_cg_cp_rs1_b14_str)
     25c:	000a2203          	lw	x4,0(x20)
     260:	00620863          	beq	x4,x6,270 <I_sltiu_cg_cp_rs1_b14+0x18>
     264:	238032ef          	jal	x5,349c <failedtest_x5_x4>
     268:	00000258          	.word	0x00000258
     26c:	0000896b          	.word	0x0000896b
     270:	004a0a13          	addi	x20,x20,4

# Testcase cp_rs1 (Test source rs1 = x15)
  RVTEST_TESTDATA_LOAD_INT(x1, x15) # load rs1: x15 = 0xe02e2995
     274:	0000a783          	lw	x15,0(x1)
     278:	00408093          	addi	x1,x1,4

0000027c <I_sltiu_cg_cp_rs1_b15>:
I_sltiu_cg_cp_rs1_b15:
  sltiu x27, x15, -236 # perform operation
     27c:	f147bd93          	sltiu	x27,x15,-236
  # Check if x27 contains the expected result. x20 is the signature ptr, x5 is the link ptr, x4 is a temp reg.
  RVTEST_SIGUPD(x20, x5, x4, x27, I_sltiu_cg_cp_rs1_b15, I_sltiu_cg_cp_rs1_b15_str)
     280:	000a2203          	lw	x4,0(x20)
     284:	01b20863          	beq	x4,x27,294 <I_sltiu_cg_cp_rs1_b15+0x18>
     288:	214032ef          	jal	x5,349c <failedtest_x5_x4>
     28c:	0000027c          	.word	0x0000027c
     290:	0000899c          	.word	0x0000899c
     294:	004a0a13          	addi	x20,x20,4

# Testcase cp_rs1 (Test source rs1 = x16)
  RVTEST_TESTDATA_LOAD_INT(x1, x16) # load rs1: x16 = 0x4ec1e5bc
     298:	0000a803          	lw	x16,0(x1)
     29c:	00408093          	addi	x1,x1,4

000002a0 <I_sltiu_cg_cp_rs1_b16>:
I_sltiu_cg_cp_rs1_b16:
  sltiu x14, x16, -1679 # perform operation
     2a0:	97183713          	sltiu	x14,x16,-1679
  # Check if x14 contains the expected result. x20 is the signature ptr, x5 is the link ptr, x4 is a temp reg.
  RVTEST_SIGUPD(x20, x5, x4, x14, I_sltiu_cg_cp_rs1_b16, I_sltiu_cg_cp_rs1_b16_str)
     2a4:	000a2203          	lw	x4,0(x20)
     2a8:	00e20863          	beq	x4,x14,2b8 <I_sltiu_cg_cp_rs1_b16+0x18>
     2ac:	1f0032ef          	jal	x5,349c <failedtest_x5_x4>
     2b0:	000002a0          	.word	0x000002a0
     2b4:	000089cd          	.word	0x000089cd
     2b8:	004a0a13          	addi	x20,x20,4

# Testcase cp_rs1 (Test source rs1 = x17)
  RVTEST_TESTDATA_LOAD_INT(x1, x17) # load rs1: x17 = 0x79d6e4ed
     2bc:	0000a883          	lw	x17,0(x1)
     2c0:	00408093          	addi	x1,x1,4

000002c4 <I_sltiu_cg_cp_rs1_b17>:
I_sltiu_cg_cp_rs1_b17:
  sltiu x7, x17, -1635 # perform operation
     2c4:	99d8b393          	sltiu	x7,x17,-1635
  # Check if x7 contains the expected result. x20 is the signature ptr, x5 is the link ptr, x4 is a temp reg.
  RVTEST_SIGUPD(x20, x5, x4, x7, I_sltiu_cg_cp_rs1_b17, I_sltiu_cg_cp_rs1_b17_str)
     2c8:	000a2203          	lw	x4,0(x20)
     2cc:	00720863          	beq	x4,x7,2dc <I_sltiu_cg_cp_rs1_b17+0x18>
     2d0:	1cc032ef          	jal	x5,349c <failedtest_x5_x4>
     2d4:	000002c4          	.word	0x000002c4
     2d8:	000089fe          	.word	0x000089fe
     2dc:	004a0a13          	addi	x20,x20,4

# Testcase cp_rs1 (Test source rs1 = x18)
  RVTEST_TESTDATA_LOAD_INT(x1, x18) # load rs1: x18 = 0xcca2d58a
     2e0:	0000a903          	lw	x18,0(x1)
     2e4:	00408093          	addi	x1,x1,4

000002e8 <I_sltiu_cg_cp_rs1_b18>:
I_sltiu_cg_cp_rs1_b18:
  sltiu x26, x18, 1648 # perform operation
     2e8:	67093d13          	sltiu	x26,x18,1648
  # Check if x26 contains the expected result. x20 is the signature ptr, x5 is the link ptr, x4 is a temp reg.
  RVTEST_SIGUPD(x20, x5, x4, x26, I_sltiu_cg_cp_rs1_b18, I_sltiu_cg_cp_rs1_b18_str)
     2ec:	000a2203          	lw	x4,0(x20)
     2f0:	01a20863          	beq	x4,x26,300 <I_sltiu_cg_cp_rs1_b18+0x18>
     2f4:	1a8032ef          	jal	x5,349c <failedtest_x5_x4>
     2f8:	000002e8          	.word	0x000002e8
     2fc:	00008a2f          	.word	0x00008a2f
     300:	004a0a13          	addi	x20,x20,4

# Testcase cp_rs1 (Test source rs1 = x19)
  RVTEST_TESTDATA_LOAD_INT(x1, x19) # load rs1: x19 = 0xea3e0fe6
     304:	0000a983          	lw	x19,0(x1)
     308:	00408093          	addi	x1,x1,4

0000030c <I_sltiu_cg_cp_rs1_b19>:
I_sltiu_cg_cp_rs1_b19:
  sltiu x26, x19, -701 # perform operation
     30c:	d439bd13          	sltiu	x26,x19,-701
  # Check if x26 contains the expected result. x20 is the signature ptr, x5 is the link ptr, x4 is a temp reg.
  RVTEST_SIGUPD(x20, x5, x4, x26, I_sltiu_cg_cp_rs1_b19, I_sltiu_cg_cp_rs1_b19_str)
     310:	000a2203          	lw	x4,0(x20)
     314:	01a20863          	beq	x4,x26,324 <I_sltiu_cg_cp_rs1_b19+0x18>
     318:	184032ef          	jal	x5,349c <failedtest_x5_x4>
     31c:	0000030c          	.word	0x0000030c
     320:	00008a60          	.word	0x00008a60
     324:	004a0a13          	addi	x20,x20,4

  mv x19, x20 # switch signature pointer register to avoid conflict with test
     328:	000a0993          	addi	x19,x20,0
# Testcase cp_rs1 (Test source rs1 = x20)
  RVTEST_TESTDATA_LOAD_INT(x1, x20) # load rs1: x20 = 0x8be1a001
     32c:	0000aa03          	lw	x20,0(x1)
     330:	00408093          	addi	x1,x1,4

00000334 <I_sltiu_cg_cp_rs1_b20>:
I_sltiu_cg_cp_rs1_b20:
  sltiu x9, x20, -574 # perform operation
     334:	dc2a3493          	sltiu	x9,x20,-574
  # Check if x9 contains the expected result. x19 is the signature ptr, x5 is the link ptr, x4 is a temp reg.
  RVTEST_SIGUPD(x19, x5, x4, x9, I_sltiu_cg_cp_rs1_b20, I_sltiu_cg_cp_rs1_b20_str)
     338:	0009a203          	lw	x4,0(x19)
     33c:	00920863          	beq	x4,x9,34c <I_sltiu_cg_cp_rs1_b20+0x18>
     340:	15c032ef          	jal	x5,349c <failedtest_x5_x4>
     344:	00000334          	.word	0x00000334
     348:	00008a91          	.word	0x00008a91
     34c:	00498993          	addi	x19,x19,4

# Testcase cp_rs1 (Test source rs1 = x21)
  RVTEST_TESTDATA_LOAD_INT(x1, x21) # load rs1: x21 = 0x50451747
     350:	0000aa83          	lw	x21,0(x1)
     354:	00408093          	addi	x1,x1,4

00000358 <I_sltiu_cg_cp_rs1_b21>:
I_sltiu_cg_cp_rs1_b21:
  sltiu x17, x21, 237 # perform operation
     358:	0edab893          	sltiu	x17,x21,237
  # Check if x17 contains the expected result. x19 is the signature ptr, x5 is the link ptr, x4 is a temp reg.
  RVTEST_SIGUPD(x19, x5, x4, x17, I_sltiu_cg_cp_rs1_b21, I_sltiu_cg_cp_rs1_b21_str)
     35c:	0009a203          	lw	x4,0(x19)
     360:	01120863          	beq	x4,x17,370 <I_sltiu_cg_cp_rs1_b21+0x18>
     364:	138032ef          	jal	x5,349c <failedtest_x5_x4>
     368:	00000358          	.word	0x00000358
     36c:	00008ac2          	.word	0x00008ac2
     370:	00498993          	addi	x19,x19,4

# Testcase cp_rs1 (Test source rs1 = x22)
  RVTEST_TESTDATA_LOAD_INT(x1, x22) # load rs1: x22 = 0xf80dbb4a
     374:	0000ab03          	lw	x22,0(x1)
     378:	00408093          	addi	x1,x1,4

0000037c <I_sltiu_cg_cp_rs1_b22>:
I_sltiu_cg_cp_rs1_b22:
  sltiu x16, x22, -33 # perform operation
     37c:	fdfb3813          	sltiu	x16,x22,-33
  # Check if x16 contains the expected result. x19 is the signature ptr, x5 is the link ptr, x4 is a temp reg.
  RVTEST_SIGUPD(x19, x5, x4, x16, I_sltiu_cg_cp_rs1_b22, I_sltiu_cg_cp_rs1_b22_str)
     380:	0009a203          	lw	x4,0(x19)
     384:	01020863          	beq	x4,x16,394 <I_sltiu_cg_cp_rs1_b22+0x18>
     388:	114032ef          	jal	x5,349c <failedtest_x5_x4>
     38c:	0000037c          	.word	0x0000037c
     390:	00008af3          	.word	0x00008af3
     394:	00498993          	addi	x19,x19,4

# Testcase cp_rs1 (Test source rs1 = x23)
  RVTEST_TESTDATA_LOAD_INT(x1, x23) # load rs1: x23 = 0xf8f39a1a
     398:	0000ab83          	lw	x23,0(x1)
     39c:	00408093          	addi	x1,x1,4

000003a0 <I_sltiu_cg_cp_rs1_b23>:
I_sltiu_cg_cp_rs1_b23:
  sltiu x18, x23, -1738 # perform operation
     3a0:	936bb913          	sltiu	x18,x23,-1738
  # Check if x18 contains the expected result. x19 is the signature ptr, x5 is the link ptr, x4 is a temp reg.
  RVTEST_SIGUPD(x19, x5, x4, x18, I_sltiu_cg_cp_rs1_b23, I_sltiu_cg_cp_rs1_b23_str)
     3a4:	0009a203          	lw	x4,0(x19)
     3a8:	01220863          	beq	x4,x18,3b8 <I_sltiu_cg_cp_rs1_b23+0x18>
     3ac:	0f0032ef          	jal	x5,349c <failedtest_x5_x4>
     3b0:	000003a0          	.word	0x000003a0
     3b4:	00008b24          	.word	0x00008b24
     3b8:	00498993          	addi	x19,x19,4

# Testcase cp_rs1 (Test source rs1 = x24)
  RVTEST_TESTDATA_LOAD_INT(x1, x24) # load rs1: x24 = 0xcbababed
     3bc:	0000ac03          	lw	x24,0(x1)
     3c0:	00408093          	addi	x1,x1,4

000003c4 <I_sltiu_cg_cp_rs1_b24>:
I_sltiu_cg_cp_rs1_b24:
  sltiu x25, x24, -1877 # perform operation
     3c4:	8abc3c93          	sltiu	x25,x24,-1877
  # Check if x25 contains the expected result. x19 is the signature ptr, x5 is the link ptr, x4 is a temp reg.
  RVTEST_SIGUPD(x19, x5, x4, x25, I_sltiu_cg_cp_rs1_b24, I_sltiu_cg_cp_rs1_b24_str)
     3c8:	0009a203          	lw	x4,0(x19)
     3cc:	01920863          	beq	x4,x25,3dc <I_sltiu_cg_cp_rs1_b24+0x18>
     3d0:	0cc032ef          	jal	x5,349c <failedtest_x5_x4>
     3d4:	000003c4          	.word	0x000003c4
     3d8:	00008b55          	.word	0x00008b55
     3dc:	00498993          	addi	x19,x19,4

# Testcase cp_rs1 (Test source rs1 = x25)
  RVTEST_TESTDATA_LOAD_INT(x1, x25) # load rs1: x25 = 0x01418510
     3e0:	0000ac83          	lw	x25,0(x1)
     3e4:	00408093          	addi	x1,x1,4

000003e8 <I_sltiu_cg_cp_rs1_b25>:
I_sltiu_cg_cp_rs1_b25:
  sltiu x16, x25, 1159 # perform operation
     3e8:	487cb813          	sltiu	x16,x25,1159
  # Check if x16 contains the expected result. x19 is the signature ptr, x5 is the link ptr, x4 is a temp reg.
  RVTEST_SIGUPD(x19, x5, x4, x16, I_sltiu_cg_cp_rs1_b25, I_sltiu_cg_cp_rs1_b25_str)
     3ec:	0009a203          	lw	x4,0(x19)
     3f0:	01020863          	beq	x4,x16,400 <I_sltiu_cg_cp_rs1_b25+0x18>
     3f4:	0a8032ef          	jal	x5,349c <failedtest_x5_x4>
     3f8:	000003e8          	.word	0x000003e8
     3fc:	00008b86          	.word	0x00008b86
     400:	00498993          	addi	x19,x19,4

# Testcase cp_rs1 (Test source rs1 = x26)
  RVTEST_TESTDATA_LOAD_INT(x1, x26) # load rs1: x26 = 0x93b91cd0
     404:	0000ad03          	lw	x26,0(x1)
     408:	00408093          	addi	x1,x1,4

0000040c <I_sltiu_cg_cp_rs1_b26>:
I_sltiu_cg_cp_rs1_b26:
  sltiu x12, x26, -954 # perform operation
     40c:	c46d3613          	sltiu	x12,x26,-954
  # Check if x12 contains the expected result. x19 is the signature ptr, x5 is the link ptr, x4 is a temp reg.
  RVTEST_SIGUPD(x19, x5, x4, x12, I_sltiu_cg_cp_rs1_b26, I_sltiu_cg_cp_rs1_b26_str)
     410:	0009a203          	lw	x4,0(x19)
     414:	00c20863          	beq	x4,x12,424 <I_sltiu_cg_cp_rs1_b26+0x18>
     418:	084032ef          	jal	x5,349c <failedtest_x5_x4>
     41c:	0000040c          	.word	0x0000040c
     420:	00008bb7          	.word	0x00008bb7
     424:	00498993          	addi	x19,x19,4

# Testcase cp_rs1 (Test source rs1 = x27)
  RVTEST_TESTDATA_LOAD_INT(x1, x27) # load rs1: x27 = 0x1edd43cd
     428:	0000ad83          	lw	x27,0(x1)
     42c:	00408093          	addi	x1,x1,4

00000430 <I_sltiu_cg_cp_rs1_b27>:
I_sltiu_cg_cp_rs1_b27:
  sltiu x9, x27, -871 # perform operation
     430:	c99db493          	sltiu	x9,x27,-871
  # Check if x9 contains the expected result. x19 is the signature ptr, x5 is the link ptr, x4 is a temp reg.
  RVTEST_SIGUPD(x19, x5, x4, x9, I_sltiu_cg_cp_rs1_b27, I_sltiu_cg_cp_rs1_b27_str)
     434:	0009a203          	lw	x4,0(x19)
     438:	00920863          	beq	x4,x9,448 <I_sltiu_cg_cp_rs1_b27+0x18>
     43c:	060032ef          	jal	x5,349c <failedtest_x5_x4>
     440:	00000430          	.word	0x00000430
     444:	00008be8          	.word	0x00008be8
     448:	00498993          	addi	x19,x19,4

# Testcase cp_rs1 (Test source rs1 = x28)
  RVTEST_TESTDATA_LOAD_INT(x1, x28) # load rs1: x28 = 0xf36da2c7
     44c:	0000ae03          	lw	x28,0(x1)
     450:	00408093          	addi	x1,x1,4

00000454 <I_sltiu_cg_cp_rs1_b28>:
I_sltiu_cg_cp_rs1_b28:
  sltiu x13, x28, 1473 # perform operation
     454:	5c1e3693          	sltiu	x13,x28,1473
  # Check if x13 contains the expected result. x19 is the signature ptr, x5 is the link ptr, x4 is a temp reg.
  RVTEST_SIGUPD(x19, x5, x4, x13, I_sltiu_cg_cp_rs1_b28, I_sltiu_cg_cp_rs1_b28_str)
     458:	0009a203          	lw	x4,0(x19)
     45c:	00d20863          	beq	x4,x13,46c <I_sltiu_cg_cp_rs1_b28+0x18>
     460:	03c032ef          	jal	x5,349c <failedtest_x5_x4>
     464:	00000454          	.word	0x00000454
     468:	00008c19          	.word	0x00008c19
     46c:	00498993          	addi	x19,x19,4

# Testcase cp_rs1 (Test source rs1 = x29)
  RVTEST_TESTDATA_LOAD_INT(x1, x29) # load rs1: x29 = 0x6f89140b
     470:	0000ae83          	lw	x29,0(x1)
     474:	00408093          	addi	x1,x1,4

00000478 <I_sltiu_cg_cp_rs1_b29>:
I_sltiu_cg_cp_rs1_b29:
  sltiu x23, x29, 671 # perform operation
     478:	29febb93          	sltiu	x23,x29,671
  # Check if x23 contains the expected result. x19 is the signature ptr, x5 is the link ptr, x4 is a temp reg.
  RVTEST_SIGUPD(x19, x5, x4, x23, I_sltiu_cg_cp_rs1_b29, I_sltiu_cg_cp_rs1_b29_str)
     47c:	0009a203          	lw	x4,0(x19)
     480:	01720863          	beq	x4,x23,490 <I_sltiu_cg_cp_rs1_b29+0x18>
     484:	018032ef          	jal	x5,349c <failedtest_x5_x4>
     488:	00000478          	.word	0x00000478
     48c:	00008c4a          	.word	0x00008c4a
     490:	00498993          	addi	x19,x19,4

# Testcase cp_rs1 (Test source rs1 = x30)
  RVTEST_TESTDATA_LOAD_INT(x1, x30) # load rs1: x30 = 0x935500f3
     494:	0000af03          	lw	x30,0(x1)
     498:	00408093          	addi	x1,x1,4

0000049c <I_sltiu_cg_cp_rs1_b30>:
I_sltiu_cg_cp_rs1_b30:
  sltiu x20, x30, -1416 # perform operation
     49c:	a78f3a13          	sltiu	x20,x30,-1416
  # Check if x20 contains the expected result. x19 is the signature ptr, x5 is the link ptr, x4 is a temp reg.
  RVTEST_SIGUPD(x19, x5, x4, x20, I_sltiu_cg_cp_rs1_b30, I_sltiu_cg_cp_rs1_b30_str)
     4a0:	0009a203          	lw	x4,0(x19)
     4a4:	01420863          	beq	x4,x20,4b4 <I_sltiu_cg_cp_rs1_b30+0x18>
     4a8:	7f5022ef          	jal	x5,349c <failedtest_x5_x4>
     4ac:	0000049c          	.word	0x0000049c
     4b0:	00008c7b          	.word	0x00008c7b
     4b4:	00498993          	addi	x19,x19,4

# Testcase cp_rs1 (Test source rs1 = x31)
  RVTEST_TESTDATA_LOAD_INT(x1, x31) # load rs1: x31 = 0x647a2819
     4b8:	0000af83          	lw	x31,0(x1)
     4bc:	00408093          	addi	x1,x1,4

000004c0 <I_sltiu_cg_cp_rs1_b31>:
I_sltiu_cg_cp_rs1_b31:
  sltiu x14, x31, -1798 # perform operation
     4c0:	8fafb713          	sltiu	x14,x31,-1798
  # Check if x14 contains the expected result. x19 is the signature ptr, x5 is the link ptr, x4 is a temp reg.
  RVTEST_SIGUPD(x19, x5, x4, x14, I_sltiu_cg_cp_rs1_b31, I_sltiu_cg_cp_rs1_b31_str)
     4c4:	0009a203          	lw	x4,0(x19)
     4c8:	00e20863          	beq	x4,x14,4d8 <I_sltiu_cg_cp_rs1_b31+0x18>
     4cc:	7d1022ef          	jal	x5,349c <failedtest_x5_x4>
     4d0:	000004c0          	.word	0x000004c0
     4d4:	00008cac          	.word	0x00008cac
     4d8:	00498993          	addi	x19,x19,4
/////////////////////////////////
// cp_rd
/////////////////////////////////

# Testcase cp_rd (Test destination rd = x0)
  RVTEST_TESTDATA_LOAD_INT(x1, x3) # load rs1: x3 = 0x3d42acb8
     4dc:	0000a183          	lw	x3,0(x1)
     4e0:	00408093          	addi	x1,x1,4

000004e4 <I_sltiu_cg_cp_rd_b0>:
I_sltiu_cg_cp_rd_b0:
  sltiu x0, x3, 1048 # perform operation
     4e4:	4181b013          	sltiu	x0,x3,1048
  # Check if x0 contains the expected result. x19 is the signature ptr, x5 is the link ptr, x4 is a temp reg.
  RVTEST_SIGUPD(x19, x5, x4, x0, I_sltiu_cg_cp_rd_b0, I_sltiu_cg_cp_rd_b0_str)
     4e8:	0009a203          	lw	x4,0(x19)
     4ec:	00020863          	beq	x4,x0,4fc <I_sltiu_cg_cp_rd_b0+0x18>
     4f0:	7ad022ef          	jal	x5,349c <failedtest_x5_x4>
     4f4:	000004e4          	.word	0x000004e4
     4f8:	00008cdd          	.word	0x00008cdd
     4fc:	00498993          	addi	x19,x19,4

  mv x9, x1 # switch data pointer register to avoid conflict with test
     500:	00008493          	addi	x9,x1,0
# Testcase cp_rd (Test destination rd = x1)
  RVTEST_TESTDATA_LOAD_INT(x9, x22) # load rs1: x22 = 0x8110d4df
     504:	0004ab03          	lw	x22,0(x9)
     508:	00448493          	addi	x9,x9,4

0000050c <I_sltiu_cg_cp_rd_b1>:
I_sltiu_cg_cp_rd_b1:
  sltiu x1, x22, -1770 # perform operation
     50c:	916b3093          	sltiu	x1,x22,-1770
  # Check if x1 contains the expected result. x19 is the signature ptr, x5 is the link ptr, x4 is a temp reg.
  RVTEST_SIGUPD(x19, x5, x4, x1, I_sltiu_cg_cp_rd_b1, I_sltiu_cg_cp_rd_b1_str)
     510:	0009a203          	lw	x4,0(x19)
     514:	00120863          	beq	x4,x1,524 <I_sltiu_cg_cp_rd_b1+0x18>
     518:	785022ef          	jal	x5,349c <failedtest_x5_x4>
     51c:	0000050c          	.word	0x0000050c
     520:	00008d0c          	.word	0x00008d0c
     524:	00498993          	addi	x19,x19,4

# Testcase cp_rd (Test destination rd = x2)
  RVTEST_TESTDATA_LOAD_INT(x9, x28) # load rs1: x28 = 0xbc132aab
     528:	0004ae03          	lw	x28,0(x9)
     52c:	00448493          	addi	x9,x9,4

00000530 <I_sltiu_cg_cp_rd_b2>:
I_sltiu_cg_cp_rd_b2:
  sltiu x2, x28, 1471 # perform operation
     530:	5bfe3113          	sltiu	x2,x28,1471
  # Check if x2 contains the expected result. x19 is the signature ptr, x5 is the link ptr, x4 is a temp reg.
  RVTEST_SIGUPD(x19, x5, x4, x2, I_sltiu_cg_cp_rd_b2, I_sltiu_cg_cp_rd_b2_str)
     534:	0009a203          	lw	x4,0(x19)
     538:	00220863          	beq	x4,x2,548 <I_sltiu_cg_cp_rd_b2+0x18>
     53c:	761022ef          	jal	x5,349c <failedtest_x5_x4>
     540:	00000530          	.word	0x00000530
     544:	00008d3b          	.word	0x00008d3b
     548:	00498993          	addi	x19,x19,4

# Testcase cp_rd (Test destination rd = x3)
  RVTEST_TESTDATA_LOAD_INT(x9, x21) # load rs1: x21 = 0x0572aacb
     54c:	0004aa83          	lw	x21,0(x9)
     550:	00448493          	addi	x9,x9,4

00000554 <I_sltiu_cg_cp_rd_b3>:
I_sltiu_cg_cp_rd_b3:
  sltiu x3, x21, 1628 # perform operation
     554:	65cab193          	sltiu	x3,x21,1628
  # Check if x3 contains the expected result. x19 is the signature ptr, x5 is the link ptr, x4 is a temp reg.
  RVTEST_SIGUPD(x19, x5, x4, x3, I_sltiu_cg_cp_rd_b3, I_sltiu_cg_cp_rd_b3_str)
     558:	0009a203          	lw	x4,0(x19)
     55c:	00320863          	beq	x4,x3,56c <I_sltiu_cg_cp_rd_b3+0x18>
     560:	73d022ef          	jal	x5,349c <failedtest_x5_x4>
     564:	00000554          	.word	0x00000554
     568:	00008d6a          	.word	0x00008d6a
     56c:	00498993          	addi	x19,x19,4

  mv x13, x4 # switch temp register to avoid conflict with test
     570:	00020693          	addi	x13,x4,0 # 0 <rvtest_entry_point>
  mv x14, x5 # switch link pointer register to avoid conflict with test
     574:	00028713          	addi	x14,x5,0
# Testcase cp_rd (Test destination rd = x4)
  RVTEST_TESTDATA_LOAD_INT(x9, x1) # load rs1: x1 = 0xfbfe258b
     578:	0004a083          	lw	x1,0(x9)
     57c:	00448493          	addi	x9,x9,4

00000580 <I_sltiu_cg_cp_rd_b4>:
I_sltiu_cg_cp_rd_b4:
  sltiu x4, x1, -532 # perform operation
     580:	dec0b213          	sltiu	x4,x1,-532
  # Check if x4 contains the expected result. x19 is the signature ptr, x14 is the link ptr, x13 is a temp reg.
  RVTEST_SIGUPD(x19, x14, x13, x4, I_sltiu_cg_cp_rd_b4, I_sltiu_cg_cp_rd_b4_str)
     584:	0009a683          	lw	x13,0(x19)
     588:	00468863          	beq	x13,x4,598 <I_sltiu_cg_cp_rd_b4+0x18>
     58c:	7510276f          	jal	x14,34dc <failedtest_x14_x13>
     590:	00000580          	.word	0x00000580
     594:	00008d99          	.word	0x00008d99
     598:	00498993          	addi	x19,x19,4

# Testcase cp_rd (Test destination rd = x5)
  RVTEST_TESTDATA_LOAD_INT(x9, x12) # load rs1: x12 = 0x0906d9f5
     59c:	0004a603          	lw	x12,0(x9)
     5a0:	00448493          	addi	x9,x9,4

000005a4 <I_sltiu_cg_cp_rd_b5>:
I_sltiu_cg_cp_rd_b5:
  sltiu x5, x12, 869 # perform operation
     5a4:	36563293          	sltiu	x5,x12,869
  # Check if x5 contains the expected result. x19 is the signature ptr, x14 is the link ptr, x13 is a temp reg.
  RVTEST_SIGUPD(x19, x14, x13, x5, I_sltiu_cg_cp_rd_b5, I_sltiu_cg_cp_rd_b5_str)
     5a8:	0009a683          	lw	x13,0(x19)
     5ac:	00568863          	beq	x13,x5,5bc <I_sltiu_cg_cp_rd_b5+0x18>
     5b0:	72d0276f          	jal	x14,34dc <failedtest_x14_x13>
     5b4:	000005a4          	.word	0x000005a4
     5b8:	00008dc8          	.word	0x00008dc8
     5bc:	00498993          	addi	x19,x19,4

# Testcase cp_rd (Test destination rd = x6)
  RVTEST_TESTDATA_LOAD_INT(x9, x17) # load rs1: x17 = 0x61b27aac
     5c0:	0004a883          	lw	x17,0(x9)
     5c4:	00448493          	addi	x9,x9,4

000005c8 <I_sltiu_cg_cp_rd_b6>:
I_sltiu_cg_cp_rd_b6:
  sltiu x6, x17, -1759 # perform operation
     5c8:	9218b313          	sltiu	x6,x17,-1759
  # Check if x6 contains the expected result. x19 is the signature ptr, x14 is the link ptr, x13 is a temp reg.
  RVTEST_SIGUPD(x19, x14, x13, x6, I_sltiu_cg_cp_rd_b6, I_sltiu_cg_cp_rd_b6_str)
     5cc:	0009a683          	lw	x13,0(x19)
     5d0:	00668863          	beq	x13,x6,5e0 <I_sltiu_cg_cp_rd_b6+0x18>
     5d4:	7090276f          	jal	x14,34dc <failedtest_x14_x13>
     5d8:	000005c8          	.word	0x000005c8
     5dc:	00008df7          	.word	0x00008df7
     5e0:	00498993          	addi	x19,x19,4

# Testcase cp_rd (Test destination rd = x7)
  RVTEST_TESTDATA_LOAD_INT(x9, x5) # load rs1: x5 = 0xde9f6b38
     5e4:	0004a283          	lw	x5,0(x9)
     5e8:	00448493          	addi	x9,x9,4

000005ec <I_sltiu_cg_cp_rd_b7>:
I_sltiu_cg_cp_rd_b7:
  sltiu x7, x5, -51 # perform operation
     5ec:	fcd2b393          	sltiu	x7,x5,-51
  # Check if x7 contains the expected result. x19 is the signature ptr, x14 is the link ptr, x13 is a temp reg.
  RVTEST_SIGUPD(x19, x14, x13, x7, I_sltiu_cg_cp_rd_b7, I_sltiu_cg_cp_rd_b7_str)
     5f0:	0009a683          	lw	x13,0(x19)
     5f4:	00768863          	beq	x13,x7,604 <I_sltiu_cg_cp_rd_b7+0x18>
     5f8:	6e50276f          	jal	x14,34dc <failedtest_x14_x13>
     5fc:	000005ec          	.word	0x000005ec
     600:	00008e26          	.word	0x00008e26
     604:	00498993          	addi	x19,x19,4

# Testcase cp_rd (Test destination rd = x8)
  RVTEST_TESTDATA_LOAD_INT(x9, x22) # load rs1: x22 = 0x7594d503
     608:	0004ab03          	lw	x22,0(x9)
     60c:	00448493          	addi	x9,x9,4

00000610 <I_sltiu_cg_cp_rd_b8>:
I_sltiu_cg_cp_rd_b8:
  sltiu x8, x22, -124 # perform operation
     610:	f84b3413          	sltiu	x8,x22,-124
  # Check if x8 contains the expected result. x19 is the signature ptr, x14 is the link ptr, x13 is a temp reg.
  RVTEST_SIGUPD(x19, x14, x13, x8, I_sltiu_cg_cp_rd_b8, I_sltiu_cg_cp_rd_b8_str)
     614:	0009a683          	lw	x13,0(x19)
     618:	00868863          	beq	x13,x8,628 <I_sltiu_cg_cp_rd_b8+0x18>
     61c:	6c10276f          	jal	x14,34dc <failedtest_x14_x13>
     620:	00000610          	.word	0x00000610
     624:	00008e55          	.word	0x00008e55
     628:	00498993          	addi	x19,x19,4

  mv x1, x9 # switch data pointer register to avoid conflict with test
     62c:	00048093          	addi	x1,x9,0
# Testcase cp_rd (Test destination rd = x9)
  RVTEST_TESTDATA_LOAD_INT(x1, x6) # load rs1: x6 = 0x5feb13ae
     630:	0000a303          	lw	x6,0(x1)
     634:	00408093          	addi	x1,x1,4

00000638 <I_sltiu_cg_cp_rd_b9>:
I_sltiu_cg_cp_rd_b9:
  sltiu x9, x6, 472 # perform operation
     638:	1d833493          	sltiu	x9,x6,472
  # Check if x9 contains the expected result. x19 is the signature ptr, x14 is the link ptr, x13 is a temp reg.
  RVTEST_SIGUPD(x19, x14, x13, x9, I_sltiu_cg_cp_rd_b9, I_sltiu_cg_cp_rd_b9_str)
     63c:	0009a683          	lw	x13,0(x19)
     640:	00968863          	beq	x13,x9,650 <I_sltiu_cg_cp_rd_b9+0x18>
     644:	6990276f          	jal	x14,34dc <failedtest_x14_x13>
     648:	00000638          	.word	0x00000638
     64c:	00008e84          	.word	0x00008e84
     650:	00498993          	addi	x19,x19,4

# Testcase cp_rd (Test destination rd = x10)
  RVTEST_TESTDATA_LOAD_INT(x1, x2) # load rs1: x2 = 0x382fcc9d
     654:	0000a103          	lw	x2,0(x1)
     658:	00408093          	addi	x1,x1,4

0000065c <I_sltiu_cg_cp_rd_b10>:
I_sltiu_cg_cp_rd_b10:
  sltiu x10, x2, 1301 # perform operation
     65c:	51513513          	sltiu	x10,x2,1301
  # Check if x10 contains the expected result. x19 is the signature ptr, x14 is the link ptr, x13 is a temp reg.
  RVTEST_SIGUPD(x19, x14, x13, x10, I_sltiu_cg_cp_rd_b10, I_sltiu_cg_cp_rd_b10_str)
     660:	0009a683          	lw	x13,0(x19)
     664:	00a68863          	beq	x13,x10,674 <I_sltiu_cg_cp_rd_b10+0x18>
     668:	6750276f          	jal	x14,34dc <failedtest_x14_x13>
     66c:	0000065c          	.word	0x0000065c
     670:	00008eb3          	.word	0x00008eb3
     674:	00498993          	addi	x19,x19,4

# Testcase cp_rd (Test destination rd = x11)
  RVTEST_TESTDATA_LOAD_INT(x1, x21) # load rs1: x21 = 0x12fef087
     678:	0000aa83          	lw	x21,0(x1)
     67c:	00408093          	addi	x1,x1,4

00000680 <I_sltiu_cg_cp_rd_b11>:
I_sltiu_cg_cp_rd_b11:
  sltiu x11, x21, -972 # perform operation
     680:	c34ab593          	sltiu	x11,x21,-972
  # Check if x11 contains the expected result. x19 is the signature ptr, x14 is the link ptr, x13 is a temp reg.
  RVTEST_SIGUPD(x19, x14, x13, x11, I_sltiu_cg_cp_rd_b11, I_sltiu_cg_cp_rd_b11_str)
     684:	0009a683          	lw	x13,0(x19)
     688:	00b68863          	beq	x13,x11,698 <I_sltiu_cg_cp_rd_b11+0x18>
     68c:	6510276f          	jal	x14,34dc <failedtest_x14_x13>
     690:	00000680          	.word	0x00000680
     694:	00008ee3          	.word	0x00008ee3
     698:	00498993          	addi	x19,x19,4

# Testcase cp_rd (Test destination rd = x12)
  RVTEST_TESTDATA_LOAD_INT(x1, x8) # load rs1: x8 = 0x74a6c9bb
     69c:	0000a403          	lw	x8,0(x1)
     6a0:	00408093          	addi	x1,x1,4

000006a4 <I_sltiu_cg_cp_rd_b12>:
I_sltiu_cg_cp_rd_b12:
  sltiu x12, x8, 1073 # perform operation
     6a4:	43143613          	sltiu	x12,x8,1073
  # Check if x12 contains the expected result. x19 is the signature ptr, x14 is the link ptr, x13 is a temp reg.
  RVTEST_SIGUPD(x19, x14, x13, x12, I_sltiu_cg_cp_rd_b12, I_sltiu_cg_cp_rd_b12_str)
     6a8:	0009a683          	lw	x13,0(x19)
     6ac:	00c68863          	beq	x13,x12,6bc <I_sltiu_cg_cp_rd_b12+0x18>
     6b0:	62d0276f          	jal	x14,34dc <failedtest_x14_x13>
     6b4:	000006a4          	.word	0x000006a4
     6b8:	00008f13          	.word	0x00008f13
     6bc:	00498993          	addi	x19,x19,4

  mv x7, x13 # switch temp register to avoid conflict with test
     6c0:	00068393          	addi	x7,x13,0
  mv x8, x14 # switch link pointer register to avoid conflict with test
     6c4:	00070413          	addi	x8,x14,0
# Testcase cp_rd (Test destination rd = x13)
  RVTEST_TESTDATA_LOAD_INT(x1, x14) # load rs1: x14 = 0xf22ab94b
     6c8:	0000a703          	lw	x14,0(x1)
     6cc:	00408093          	addi	x1,x1,4

000006d0 <I_sltiu_cg_cp_rd_b13>:
I_sltiu_cg_cp_rd_b13:
  sltiu x13, x14, -1526 # perform operation
     6d0:	a0a73693          	sltiu	x13,x14,-1526
  # Check if x13 contains the expected result. x19 is the signature ptr, x8 is the link ptr, x7 is a temp reg.
  RVTEST_SIGUPD(x19, x8, x7, x13, I_sltiu_cg_cp_rd_b13, I_sltiu_cg_cp_rd_b13_str)
     6d4:	0009a383          	lw	x7,0(x19)
     6d8:	00d38863          	beq	x7,x13,6e8 <I_sltiu_cg_cp_rd_b13+0x18>
     6dc:	5d90246f          	jal	x8,34b4 <failedtest_x8_x7>
     6e0:	000006d0          	.word	0x000006d0
     6e4:	00008f43          	.word	0x00008f43
     6e8:	00498993          	addi	x19,x19,4

# Testcase cp_rd (Test destination rd = x14)
  RVTEST_TESTDATA_LOAD_INT(x1, x31) # load rs1: x31 = 0x13791787
     6ec:	0000af83          	lw	x31,0(x1)
     6f0:	00408093          	addi	x1,x1,4

000006f4 <I_sltiu_cg_cp_rd_b14>:
I_sltiu_cg_cp_rd_b14:
  sltiu x14, x31, -465 # perform operation
     6f4:	e2ffb713          	sltiu	x14,x31,-465
  # Check if x14 contains the expected result. x19 is the signature ptr, x8 is the link ptr, x7 is a temp reg.
  RVTEST_SIGUPD(x19, x8, x7, x14, I_sltiu_cg_cp_rd_b14, I_sltiu_cg_cp_rd_b14_str)
     6f8:	0009a383          	lw	x7,0(x19)
     6fc:	00e38863          	beq	x7,x14,70c <I_sltiu_cg_cp_rd_b14+0x18>
     700:	5b50246f          	jal	x8,34b4 <failedtest_x8_x7>
     704:	000006f4          	.word	0x000006f4
     708:	00008f73          	.word	0x00008f73
     70c:	00498993          	addi	x19,x19,4

# Testcase cp_rd (Test destination rd = x15)
  RVTEST_TESTDATA_LOAD_INT(x1, x22) # load rs1: x22 = 0xe21b2afe
     710:	0000ab03          	lw	x22,0(x1)
     714:	00408093          	addi	x1,x1,4

00000718 <I_sltiu_cg_cp_rd_b15>:
I_sltiu_cg_cp_rd_b15:
  sltiu x15, x22, 1195 # perform operation
     718:	4abb3793          	sltiu	x15,x22,1195
  # Check if x15 contains the expected result. x19 is the signature ptr, x8 is the link ptr, x7 is a temp reg.
  RVTEST_SIGUPD(x19, x8, x7, x15, I_sltiu_cg_cp_rd_b15, I_sltiu_cg_cp_rd_b15_str)
     71c:	0009a383          	lw	x7,0(x19)
     720:	00f38863          	beq	x7,x15,730 <I_sltiu_cg_cp_rd_b15+0x18>
     724:	5910246f          	jal	x8,34b4 <failedtest_x8_x7>
     728:	00000718          	.word	0x00000718
     72c:	00008fa3          	.word	0x00008fa3
     730:	00498993          	addi	x19,x19,4

# Testcase cp_rd (Test destination rd = x16)
  RVTEST_TESTDATA_LOAD_INT(x1, x0) # load rs1: x0 = 0x59c07162
     734:	0000a003          	lw	x0,0(x1)
     738:	00408093          	addi	x1,x1,4

0000073c <I_sltiu_cg_cp_rd_b16>:
I_sltiu_cg_cp_rd_b16:
  sltiu x16, x0, 1918 # perform operation
     73c:	77e03813          	sltiu	x16,x0,1918
  # Check if x16 contains the expected result. x19 is the signature ptr, x8 is the link ptr, x7 is a temp reg.
  RVTEST_SIGUPD(x19, x8, x7, x16, I_sltiu_cg_cp_rd_b16, I_sltiu_cg_cp_rd_b16_str)
     740:	0009a383          	lw	x7,0(x19)
     744:	01038863          	beq	x7,x16,754 <I_sltiu_cg_cp_rd_b16+0x18>
     748:	56d0246f          	jal	x8,34b4 <failedtest_x8_x7>
     74c:	0000073c          	.word	0x0000073c
     750:	00008fd3          	.word	0x00008fd3
     754:	00498993          	addi	x19,x19,4

# Testcase cp_rd (Test destination rd = x17)
  RVTEST_TESTDATA_LOAD_INT(x1, x5) # load rs1: x5 = 0xd42604ca
     758:	0000a283          	lw	x5,0(x1)
     75c:	00408093          	addi	x1,x1,4

00000760 <I_sltiu_cg_cp_rd_b17>:
I_sltiu_cg_cp_rd_b17:
  sltiu x17, x5, -527 # perform operation
     760:	df12b893          	sltiu	x17,x5,-527
  # Check if x17 contains the expected result. x19 is the signature ptr, x8 is the link ptr, x7 is a temp reg.
  RVTEST_SIGUPD(x19, x8, x7, x17, I_sltiu_cg_cp_rd_b17, I_sltiu_cg_cp_rd_b17_str)
     764:	0009a383          	lw	x7,0(x19)
     768:	01138863          	beq	x7,x17,778 <I_sltiu_cg_cp_rd_b17+0x18>
     76c:	5490246f          	jal	x8,34b4 <failedtest_x8_x7>
     770:	00000760          	.word	0x00000760
     774:	00009003          	.word	0x00009003
     778:	00498993          	addi	x19,x19,4

# Testcase cp_rd (Test destination rd = x18)
  RVTEST_TESTDATA_LOAD_INT(x1, x27) # load rs1: x27 = 0xdaf0b669
     77c:	0000ad83          	lw	x27,0(x1)
     780:	00408093          	addi	x1,x1,4

00000784 <I_sltiu_cg_cp_rd_b18>:
I_sltiu_cg_cp_rd_b18:
  sltiu x18, x27, -439 # perform operation
     784:	e49db913          	sltiu	x18,x27,-439
  # Check if x18 contains the expected result. x19 is the signature ptr, x8 is the link ptr, x7 is a temp reg.
  RVTEST_SIGUPD(x19, x8, x7, x18, I_sltiu_cg_cp_rd_b18, I_sltiu_cg_cp_rd_b18_str)
     788:	0009a383          	lw	x7,0(x19)
     78c:	01238863          	beq	x7,x18,79c <I_sltiu_cg_cp_rd_b18+0x18>
     790:	5250246f          	jal	x8,34b4 <failedtest_x8_x7>
     794:	00000784          	.word	0x00000784
     798:	00009033          	.word	0x00009033
     79c:	00498993          	addi	x19,x19,4

  mv x12, x19 # switch signature pointer register to avoid conflict with test
     7a0:	00098613          	addi	x12,x19,0
# Testcase cp_rd (Test destination rd = x19)
  RVTEST_TESTDATA_LOAD_INT(x1, x4) # load rs1: x4 = 0x3e33a099
     7a4:	0000a203          	lw	x4,0(x1)
     7a8:	00408093          	addi	x1,x1,4

000007ac <I_sltiu_cg_cp_rd_b19>:
I_sltiu_cg_cp_rd_b19:
  sltiu x19, x4, 511 # perform operation
     7ac:	1ff23993          	sltiu	x19,x4,511
  # Check if x19 contains the expected result. x12 is the signature ptr, x8 is the link ptr, x7 is a temp reg.
  RVTEST_SIGUPD(x12, x8, x7, x19, I_sltiu_cg_cp_rd_b19, I_sltiu_cg_cp_rd_b19_str)
     7b0:	00062383          	lw	x7,0(x12)
     7b4:	01338863          	beq	x7,x19,7c4 <I_sltiu_cg_cp_rd_b19+0x18>
     7b8:	4fd0246f          	jal	x8,34b4 <failedtest_x8_x7>
     7bc:	000007ac          	.word	0x000007ac
     7c0:	00009063          	.word	0x00009063
     7c4:	00460613          	addi	x12,x12,4

# Testcase cp_rd (Test destination rd = x20)
  RVTEST_TESTDATA_LOAD_INT(x1, x3) # load rs1: x3 = 0x0e383f8d
     7c8:	0000a183          	lw	x3,0(x1)
     7cc:	00408093          	addi	x1,x1,4

000007d0 <I_sltiu_cg_cp_rd_b20>:
I_sltiu_cg_cp_rd_b20:
  sltiu x20, x3, -1249 # perform operation
     7d0:	b1f1ba13          	sltiu	x20,x3,-1249
  # Check if x20 contains the expected result. x12 is the signature ptr, x8 is the link ptr, x7 is a temp reg.
  RVTEST_SIGUPD(x12, x8, x7, x20, I_sltiu_cg_cp_rd_b20, I_sltiu_cg_cp_rd_b20_str)
     7d4:	00062383          	lw	x7,0(x12)
     7d8:	01438863          	beq	x7,x20,7e8 <I_sltiu_cg_cp_rd_b20+0x18>
     7dc:	4d90246f          	jal	x8,34b4 <failedtest_x8_x7>
     7e0:	000007d0          	.word	0x000007d0
     7e4:	00009093          	.word	0x00009093
     7e8:	00460613          	addi	x12,x12,4

# Testcase cp_rd (Test destination rd = x21)
  RVTEST_TESTDATA_LOAD_INT(x1, x26) # load rs1: x26 = 0x49865084
     7ec:	0000ad03          	lw	x26,0(x1)
     7f0:	00408093          	addi	x1,x1,4

000007f4 <I_sltiu_cg_cp_rd_b21>:
I_sltiu_cg_cp_rd_b21:
  sltiu x21, x26, 1838 # perform operation
     7f4:	72ed3a93          	sltiu	x21,x26,1838
  # Check if x21 contains the expected result. x12 is the signature ptr, x8 is the link ptr, x7 is a temp reg.
  RVTEST_SIGUPD(x12, x8, x7, x21, I_sltiu_cg_cp_rd_b21, I_sltiu_cg_cp_rd_b21_str)
     7f8:	00062383          	lw	x7,0(x12)
     7fc:	01538863          	beq	x7,x21,80c <I_sltiu_cg_cp_rd_b21+0x18>
     800:	4b50246f          	jal	x8,34b4 <failedtest_x8_x7>
     804:	000007f4          	.word	0x000007f4
     808:	000090c3          	.word	0x000090c3
     80c:	00460613          	addi	x12,x12,4

# Testcase cp_rd (Test destination rd = x22)
  RVTEST_TESTDATA_LOAD_INT(x1, x28) # load rs1: x28 = 0x2c8ef682
     810:	0000ae03          	lw	x28,0(x1)
     814:	00408093          	addi	x1,x1,4

00000818 <I_sltiu_cg_cp_rd_b22>:
I_sltiu_cg_cp_rd_b22:
  sltiu x22, x28, -1196 # perform operation
     818:	b54e3b13          	sltiu	x22,x28,-1196
  # Check if x22 contains the expected result. x12 is the signature ptr, x8 is the link ptr, x7 is a temp reg.
  RVTEST_SIGUPD(x12, x8, x7, x22, I_sltiu_cg_cp_rd_b22, I_sltiu_cg_cp_rd_b22_str)
     81c:	00062383          	lw	x7,0(x12)
     820:	01638863          	beq	x7,x22,830 <I_sltiu_cg_cp_rd_b22+0x18>
     824:	4910246f          	jal	x8,34b4 <failedtest_x8_x7>
     828:	00000818          	.word	0x00000818
     82c:	000090f3          	.word	0x000090f3
     830:	00460613          	addi	x12,x12,4

# Testcase cp_rd (Test destination rd = x23)
  RVTEST_TESTDATA_LOAD_INT(x1, x31) # load rs1: x31 = 0x29b35f02
     834:	0000af83          	lw	x31,0(x1)
     838:	00408093          	addi	x1,x1,4

0000083c <I_sltiu_cg_cp_rd_b23>:
I_sltiu_cg_cp_rd_b23:
  sltiu x23, x31, 896 # perform operation
     83c:	380fbb93          	sltiu	x23,x31,896
  # Check if x23 contains the expected result. x12 is the signature ptr, x8 is the link ptr, x7 is a temp reg.
  RVTEST_SIGUPD(x12, x8, x7, x23, I_sltiu_cg_cp_rd_b23, I_sltiu_cg_cp_rd_b23_str)
     840:	00062383          	lw	x7,0(x12)
     844:	01738863          	beq	x7,x23,854 <I_sltiu_cg_cp_rd_b23+0x18>
     848:	46d0246f          	jal	x8,34b4 <failedtest_x8_x7>
     84c:	0000083c          	.word	0x0000083c
     850:	00009123          	.word	0x00009123
     854:	00460613          	addi	x12,x12,4

# Testcase cp_rd (Test destination rd = x24)
  RVTEST_TESTDATA_LOAD_INT(x1, x27) # load rs1: x27 = 0x72679d81
     858:	0000ad83          	lw	x27,0(x1)
     85c:	00408093          	addi	x1,x1,4

00000860 <I_sltiu_cg_cp_rd_b24>:
I_sltiu_cg_cp_rd_b24:
  sltiu x24, x27, 1909 # perform operation
     860:	775dbc13          	sltiu	x24,x27,1909
  # Check if x24 contains the expected result. x12 is the signature ptr, x8 is the link ptr, x7 is a temp reg.
  RVTEST_SIGUPD(x12, x8, x7, x24, I_sltiu_cg_cp_rd_b24, I_sltiu_cg_cp_rd_b24_str)
     864:	00062383          	lw	x7,0(x12)
     868:	01838863          	beq	x7,x24,878 <I_sltiu_cg_cp_rd_b24+0x18>
     86c:	4490246f          	jal	x8,34b4 <failedtest_x8_x7>
     870:	00000860          	.word	0x00000860
     874:	00009153          	.word	0x00009153
     878:	00460613          	addi	x12,x12,4

# Testcase cp_rd (Test destination rd = x25)
  RVTEST_TESTDATA_LOAD_INT(x1, x20) # load rs1: x20 = 0x6053cfc9
     87c:	0000aa03          	lw	x20,0(x1)
     880:	00408093          	addi	x1,x1,4

00000884 <I_sltiu_cg_cp_rd_b25>:
I_sltiu_cg_cp_rd_b25:
  sltiu x25, x20, -1346 # perform operation
     884:	abea3c93          	sltiu	x25,x20,-1346
  # Check if x25 contains the expected result. x12 is the signature ptr, x8 is the link ptr, x7 is a temp reg.
  RVTEST_SIGUPD(x12, x8, x7, x25, I_sltiu_cg_cp_rd_b25, I_sltiu_cg_cp_rd_b25_str)
     888:	00062383          	lw	x7,0(x12)
     88c:	01938863          	beq	x7,x25,89c <I_sltiu_cg_cp_rd_b25+0x18>
     890:	4250246f          	jal	x8,34b4 <failedtest_x8_x7>
     894:	00000884          	.word	0x00000884
     898:	00009183          	.word	0x00009183
     89c:	00460613          	addi	x12,x12,4

# Testcase cp_rd (Test destination rd = x26)
  RVTEST_TESTDATA_LOAD_INT(x1, x9) # load rs1: x9 = 0x1eb046ea
     8a0:	0000a483          	lw	x9,0(x1)
     8a4:	00408093          	addi	x1,x1,4

000008a8 <I_sltiu_cg_cp_rd_b26>:
I_sltiu_cg_cp_rd_b26:
  sltiu x26, x9, -1658 # perform operation
     8a8:	9864bd13          	sltiu	x26,x9,-1658
  # Check if x26 contains the expected result. x12 is the signature ptr, x8 is the link ptr, x7 is a temp reg.
  RVTEST_SIGUPD(x12, x8, x7, x26, I_sltiu_cg_cp_rd_b26, I_sltiu_cg_cp_rd_b26_str)
     8ac:	00062383          	lw	x7,0(x12)
     8b0:	01a38863          	beq	x7,x26,8c0 <I_sltiu_cg_cp_rd_b26+0x18>
     8b4:	4010246f          	jal	x8,34b4 <failedtest_x8_x7>
     8b8:	000008a8          	.word	0x000008a8
     8bc:	000091b3          	.word	0x000091b3
     8c0:	00460613          	addi	x12,x12,4

# Testcase cp_rd (Test destination rd = x27)
  RVTEST_TESTDATA_LOAD_INT(x1, x15) # load rs1: x15 = 0xbab5d0ce
     8c4:	0000a783          	lw	x15,0(x1)
     8c8:	00408093          	addi	x1,x1,4

000008cc <I_sltiu_cg_cp_rd_b27>:
I_sltiu_cg_cp_rd_b27:
  sltiu x27, x15, -1453 # perform operation
     8cc:	a537bd93          	sltiu	x27,x15,-1453
  # Check if x27 contains the expected result. x12 is the signature ptr, x8 is the link ptr, x7 is a temp reg.
  RVTEST_SIGUPD(x12, x8, x7, x27, I_sltiu_cg_cp_rd_b27, I_sltiu_cg_cp_rd_b27_str)
     8d0:	00062383          	lw	x7,0(x12)
     8d4:	01b38863          	beq	x7,x27,8e4 <I_sltiu_cg_cp_rd_b27+0x18>
     8d8:	3dd0246f          	jal	x8,34b4 <failedtest_x8_x7>
     8dc:	000008cc          	.word	0x000008cc
     8e0:	000091e3          	.word	0x000091e3
     8e4:	00460613          	addi	x12,x12,4

# Testcase cp_rd (Test destination rd = x28)
  RVTEST_TESTDATA_LOAD_INT(x1, x24) # load rs1: x24 = 0xb9f08e08
     8e8:	0000ac03          	lw	x24,0(x1)
     8ec:	00408093          	addi	x1,x1,4

000008f0 <I_sltiu_cg_cp_rd_b28>:
I_sltiu_cg_cp_rd_b28:
  sltiu x28, x24, -1125 # perform operation
     8f0:	b9bc3e13          	sltiu	x28,x24,-1125
  # Check if x28 contains the expected result. x12 is the signature ptr, x8 is the link ptr, x7 is a temp reg.
  RVTEST_SIGUPD(x12, x8, x7, x28, I_sltiu_cg_cp_rd_b28, I_sltiu_cg_cp_rd_b28_str)
     8f4:	00062383          	lw	x7,0(x12)
     8f8:	01c38863          	beq	x7,x28,908 <I_sltiu_cg_cp_rd_b28+0x18>
     8fc:	3b90246f          	jal	x8,34b4 <failedtest_x8_x7>
     900:	000008f0          	.word	0x000008f0
     904:	00009213          	.word	0x00009213
     908:	00460613          	addi	x12,x12,4

# Testcase cp_rd (Test destination rd = x29)
  RVTEST_TESTDATA_LOAD_INT(x1, x28) # load rs1: x28 = 0xaebf35ae
     90c:	0000ae03          	lw	x28,0(x1)
     910:	00408093          	addi	x1,x1,4

00000914 <I_sltiu_cg_cp_rd_b29>:
I_sltiu_cg_cp_rd_b29:
  sltiu x29, x28, 1741 # perform operation
     914:	6cde3e93          	sltiu	x29,x28,1741
  # Check if x29 contains the expected result. x12 is the signature ptr, x8 is the link ptr, x7 is a temp reg.
  RVTEST_SIGUPD(x12, x8, x7, x29, I_sltiu_cg_cp_rd_b29, I_sltiu_cg_cp_rd_b29_str)
     918:	00062383          	lw	x7,0(x12)
     91c:	01d38863          	beq	x7,x29,92c <I_sltiu_cg_cp_rd_b29+0x18>
     920:	3950246f          	jal	x8,34b4 <failedtest_x8_x7>
     924:	00000914          	.word	0x00000914
     928:	00009243          	.word	0x00009243
     92c:	00460613          	addi	x12,x12,4

# Testcase cp_rd (Test destination rd = x30)
  RVTEST_TESTDATA_LOAD_INT(x1, x13) # load rs1: x13 = 0xe2913ba9
     930:	0000a683          	lw	x13,0(x1)
     934:	00408093          	addi	x1,x1,4

00000938 <I_sltiu_cg_cp_rd_b30>:
I_sltiu_cg_cp_rd_b30:
  sltiu x30, x13, 1648 # perform operation
     938:	6706bf13          	sltiu	x30,x13,1648
  # Check if x30 contains the expected result. x12 is the signature ptr, x8 is the link ptr, x7 is a temp reg.
  RVTEST_SIGUPD(x12, x8, x7, x30, I_sltiu_cg_cp_rd_b30, I_sltiu_cg_cp_rd_b30_str)
     93c:	00062383          	lw	x7,0(x12)
     940:	01e38863          	beq	x7,x30,950 <I_sltiu_cg_cp_rd_b30+0x18>
     944:	3710246f          	jal	x8,34b4 <failedtest_x8_x7>
     948:	00000938          	.word	0x00000938
     94c:	00009273          	.word	0x00009273
     950:	00460613          	addi	x12,x12,4

# Testcase cp_rd (Test destination rd = x31)
  RVTEST_TESTDATA_LOAD_INT(x1, x5) # load rs1: x5 = 0x234c5f11
     954:	0000a283          	lw	x5,0(x1)
     958:	00408093          	addi	x1,x1,4

0000095c <I_sltiu_cg_cp_rd_b31>:
I_sltiu_cg_cp_rd_b31:
  sltiu x31, x5, 1260 # perform operation
     95c:	4ec2bf93          	sltiu	x31,x5,1260
  # Check if x31 contains the expected result. x12 is the signature ptr, x8 is the link ptr, x7 is a temp reg.
  RVTEST_SIGUPD(x12, x8, x7, x31, I_sltiu_cg_cp_rd_b31, I_sltiu_cg_cp_rd_b31_str)
     960:	00062383          	lw	x7,0(x12)
     964:	01f38863          	beq	x7,x31,974 <I_sltiu_cg_cp_rd_b31+0x18>
     968:	34d0246f          	jal	x8,34b4 <failedtest_x8_x7>
     96c:	0000095c          	.word	0x0000095c
     970:	000092a3          	.word	0x000092a3
     974:	00460613          	addi	x12,x12,4
/////////////////////////////////
// cp_rs1_edges
/////////////////////////////////

# Testcase cp_rs1_edges (Test source rs1 value = 0x00000000)
  RVTEST_TESTDATA_LOAD_INT(x1, x23) # load rs1: x23 = 0x00000000
     978:	0000ab83          	lw	x23,0(x1)
     97c:	00408093          	addi	x1,x1,4

00000980 <I_sltiu_cg_cp_rs1_edges_0x0>:
I_sltiu_cg_cp_rs1_edges_0x0:
  sltiu x17, x23, 396 # perform operation
     980:	18cbb893          	sltiu	x17,x23,396
  # Check if x17 contains the expected result. x12 is the signature ptr, x8 is the link ptr, x7 is a temp reg.
  RVTEST_SIGUPD(x12, x8, x7, x17, I_sltiu_cg_cp_rs1_edges_0x0, I_sltiu_cg_cp_rs1_edges_0x0_str)
     984:	00062383          	lw	x7,0(x12)
     988:	01138863          	beq	x7,x17,998 <I_sltiu_cg_cp_rs1_edges_0x0+0x18>
     98c:	3290246f          	jal	x8,34b4 <failedtest_x8_x7>
     990:	00000980          	.word	0x00000980
     994:	000092d3          	.word	0x000092d3
     998:	00460613          	addi	x12,x12,4

# Testcase cp_rs1_edges (Test source rs1 value = 0x00000001)
  RVTEST_TESTDATA_LOAD_INT(x1, x11) # load rs1: x11 = 0x00000001
     99c:	0000a583          	lw	x11,0(x1)
     9a0:	00408093          	addi	x1,x1,4

000009a4 <I_sltiu_cg_cp_rs1_edges_0x1>:
I_sltiu_cg_cp_rs1_edges_0x1:
  sltiu x31, x11, 843 # perform operation
     9a4:	34b5bf93          	sltiu	x31,x11,843
  # Check if x31 contains the expected result. x12 is the signature ptr, x8 is the link ptr, x7 is a temp reg.
  RVTEST_SIGUPD(x12, x8, x7, x31, I_sltiu_cg_cp_rs1_edges_0x1, I_sltiu_cg_cp_rs1_edges_0x1_str)
     9a8:	00062383          	lw	x7,0(x12)
     9ac:	01f38863          	beq	x7,x31,9bc <I_sltiu_cg_cp_rs1_edges_0x1+0x18>
     9b0:	3050246f          	jal	x8,34b4 <failedtest_x8_x7>
     9b4:	000009a4          	.word	0x000009a4
     9b8:	0000930a          	.word	0x0000930a
     9bc:	00460613          	addi	x12,x12,4

# Testcase cp_rs1_edges (Test source rs1 value = 0x00000002)
  RVTEST_TESTDATA_LOAD_INT(x1, x23) # load rs1: x23 = 0x00000002
     9c0:	0000ab83          	lw	x23,0(x1)
     9c4:	00408093          	addi	x1,x1,4

000009c8 <I_sltiu_cg_cp_rs1_edges_0x2>:
I_sltiu_cg_cp_rs1_edges_0x2:
  sltiu x6, x23, -638 # perform operation
     9c8:	d82bb313          	sltiu	x6,x23,-638
  # Check if x6 contains the expected result. x12 is the signature ptr, x8 is the link ptr, x7 is a temp reg.
  RVTEST_SIGUPD(x12, x8, x7, x6, I_sltiu_cg_cp_rs1_edges_0x2, I_sltiu_cg_cp_rs1_edges_0x2_str)
     9cc:	00062383          	lw	x7,0(x12)
     9d0:	00638863          	beq	x7,x6,9e0 <I_sltiu_cg_cp_rs1_edges_0x2+0x18>
     9d4:	2e10246f          	jal	x8,34b4 <failedtest_x8_x7>
     9d8:	000009c8          	.word	0x000009c8
     9dc:	00009341          	.word	0x00009341
     9e0:	00460613          	addi	x12,x12,4

# Testcase cp_rs1_edges (Test source rs1 value = 0x80000000)
  RVTEST_TESTDATA_LOAD_INT(x1, x13) # load rs1: x13 = 0x80000000
     9e4:	0000a683          	lw	x13,0(x1)
     9e8:	00408093          	addi	x1,x1,4

000009ec <I_sltiu_cg_cp_rs1_edges_0x80000000>:
I_sltiu_cg_cp_rs1_edges_0x80000000:
  sltiu x20, x13, 847 # perform operation
     9ec:	34f6ba13          	sltiu	x20,x13,847
  # Check if x20 contains the expected result. x12 is the signature ptr, x8 is the link ptr, x7 is a temp reg.
  RVTEST_SIGUPD(x12, x8, x7, x20, I_sltiu_cg_cp_rs1_edges_0x80000000, I_sltiu_cg_cp_rs1_edges_0x80000000_str)
     9f0:	00062383          	lw	x7,0(x12)
     9f4:	01438863          	beq	x7,x20,a04 <I_sltiu_cg_cp_rs1_edges_0x80000000+0x18>
     9f8:	2bd0246f          	jal	x8,34b4 <failedtest_x8_x7>
     9fc:	000009ec          	.word	0x000009ec
     a00:	00009378          	.word	0x00009378
     a04:	00460613          	addi	x12,x12,4

# Testcase cp_rs1_edges (Test source rs1 value = 0x80000001)
  RVTEST_TESTDATA_LOAD_INT(x1, x23) # load rs1: x23 = 0x80000001
     a08:	0000ab83          	lw	x23,0(x1)
     a0c:	00408093          	addi	x1,x1,4

00000a10 <I_sltiu_cg_cp_rs1_edges_0x80000001>:
I_sltiu_cg_cp_rs1_edges_0x80000001:
  sltiu x28, x23, -196 # perform operation
     a10:	f3cbbe13          	sltiu	x28,x23,-196
  # Check if x28 contains the expected result. x12 is the signature ptr, x8 is the link ptr, x7 is a temp reg.
  RVTEST_SIGUPD(x12, x8, x7, x28, I_sltiu_cg_cp_rs1_edges_0x80000001, I_sltiu_cg_cp_rs1_edges_0x80000001_str)
     a14:	00062383          	lw	x7,0(x12)
     a18:	01c38863          	beq	x7,x28,a28 <I_sltiu_cg_cp_rs1_edges_0x80000001+0x18>
     a1c:	2990246f          	jal	x8,34b4 <failedtest_x8_x7>
     a20:	00000a10          	.word	0x00000a10
     a24:	000093b6          	.word	0x000093b6
     a28:	00460613          	addi	x12,x12,4

# Testcase cp_rs1_edges (Test source rs1 value = 0x7fffffff)
  RVTEST_TESTDATA_LOAD_INT(x1, x24) # load rs1: x24 = 0x7fffffff
     a2c:	0000ac03          	lw	x24,0(x1)
     a30:	00408093          	addi	x1,x1,4

00000a34 <I_sltiu_cg_cp_rs1_edges_0x7fffffff>:
I_sltiu_cg_cp_rs1_edges_0x7fffffff:
  sltiu x25, x24, 685 # perform operation
     a34:	2adc3c93          	sltiu	x25,x24,685
  # Check if x25 contains the expected result. x12 is the signature ptr, x8 is the link ptr, x7 is a temp reg.
  RVTEST_SIGUPD(x12, x8, x7, x25, I_sltiu_cg_cp_rs1_edges_0x7fffffff, I_sltiu_cg_cp_rs1_edges_0x7fffffff_str)
     a38:	00062383          	lw	x7,0(x12)
     a3c:	01938863          	beq	x7,x25,a4c <I_sltiu_cg_cp_rs1_edges_0x7fffffff+0x18>
     a40:	2750246f          	jal	x8,34b4 <failedtest_x8_x7>
     a44:	00000a34          	.word	0x00000a34
     a48:	000093f4          	.word	0x000093f4
     a4c:	00460613          	addi	x12,x12,4

# Testcase cp_rs1_edges (Test source rs1 value = 0x7ffffffe)
  RVTEST_TESTDATA_LOAD_INT(x1, x21) # load rs1: x21 = 0x7ffffffe
     a50:	0000aa83          	lw	x21,0(x1)
     a54:	00408093          	addi	x1,x1,4

00000a58 <I_sltiu_cg_cp_rs1_edges_0x7ffffffe>:
I_sltiu_cg_cp_rs1_edges_0x7ffffffe:
  sltiu x19, x21, -394 # perform operation
     a58:	e76ab993          	sltiu	x19,x21,-394
  # Check if x19 contains the expected result. x12 is the signature ptr, x8 is the link ptr, x7 is a temp reg.
  RVTEST_SIGUPD(x12, x8, x7, x19, I_sltiu_cg_cp_rs1_edges_0x7ffffffe, I_sltiu_cg_cp_rs1_edges_0x7ffffffe_str)
     a5c:	00062383          	lw	x7,0(x12)
     a60:	01338863          	beq	x7,x19,a70 <I_sltiu_cg_cp_rs1_edges_0x7ffffffe+0x18>
     a64:	2510246f          	jal	x8,34b4 <failedtest_x8_x7>
     a68:	00000a58          	.word	0x00000a58
     a6c:	00009432          	.word	0x00009432
     a70:	00460613          	addi	x12,x12,4

# Testcase cp_rs1_edges (Test source rs1 value = 0xffffffff)
  RVTEST_TESTDATA_LOAD_INT(x1, x9) # load rs1: x9 = 0xffffffff
     a74:	0000a483          	lw	x9,0(x1)
     a78:	00408093          	addi	x1,x1,4

00000a7c <I_sltiu_cg_cp_rs1_edges_0xffffffff>:
I_sltiu_cg_cp_rs1_edges_0xffffffff:
  sltiu x29, x9, 116 # perform operation
     a7c:	0744be93          	sltiu	x29,x9,116
  # Check if x29 contains the expected result. x12 is the signature ptr, x8 is the link ptr, x7 is a temp reg.
  RVTEST_SIGUPD(x12, x8, x7, x29, I_sltiu_cg_cp_rs1_edges_0xffffffff, I_sltiu_cg_cp_rs1_edges_0xffffffff_str)
     a80:	00062383          	lw	x7,0(x12)
     a84:	01d38863          	beq	x7,x29,a94 <I_sltiu_cg_cp_rs1_edges_0xffffffff+0x18>
     a88:	22d0246f          	jal	x8,34b4 <failedtest_x8_x7>
     a8c:	00000a7c          	.word	0x00000a7c
     a90:	00009470          	.word	0x00009470
     a94:	00460613          	addi	x12,x12,4

# Testcase cp_rs1_edges (Test source rs1 value = 0xfffffffe)
  RVTEST_TESTDATA_LOAD_INT(x1, x20) # load rs1: x20 = 0xfffffffe
     a98:	0000aa03          	lw	x20,0(x1)
     a9c:	00408093          	addi	x1,x1,4

00000aa0 <I_sltiu_cg_cp_rs1_edges_0xfffffffe>:
I_sltiu_cg_cp_rs1_edges_0xfffffffe:
  sltiu x28, x20, -1574 # perform operation
     aa0:	9daa3e13          	sltiu	x28,x20,-1574
  # Check if x28 contains the expected result. x12 is the signature ptr, x8 is the link ptr, x7 is a temp reg.
  RVTEST_SIGUPD(x12, x8, x7, x28, I_sltiu_cg_cp_rs1_edges_0xfffffffe, I_sltiu_cg_cp_rs1_edges_0xfffffffe_str)
     aa4:	00062383          	lw	x7,0(x12)
     aa8:	01c38863          	beq	x7,x28,ab8 <I_sltiu_cg_cp_rs1_edges_0xfffffffe+0x18>
     aac:	2090246f          	jal	x8,34b4 <failedtest_x8_x7>
     ab0:	00000aa0          	.word	0x00000aa0
     ab4:	000094ae          	.word	0x000094ae
     ab8:	00460613          	addi	x12,x12,4

# Testcase cp_rs1_edges (Test source rs1 value = 0x5bbc8872)
  RVTEST_TESTDATA_LOAD_INT(x1, x13) # load rs1: x13 = 0x5bbc8872
     abc:	0000a683          	lw	x13,0(x1)
     ac0:	00408093          	addi	x1,x1,4

00000ac4 <I_sltiu_cg_cp_rs1_edges_0x5bbc8872>:
I_sltiu_cg_cp_rs1_edges_0x5bbc8872:
  sltiu x2, x13, -1253 # perform operation
     ac4:	b1b6b113          	sltiu	x2,x13,-1253
  # Check if x2 contains the expected result. x12 is the signature ptr, x8 is the link ptr, x7 is a temp reg.
  RVTEST_SIGUPD(x12, x8, x7, x2, I_sltiu_cg_cp_rs1_edges_0x5bbc8872, I_sltiu_cg_cp_rs1_edges_0x5bbc8872_str)
     ac8:	00062383          	lw	x7,0(x12)
     acc:	00238863          	beq	x7,x2,adc <I_sltiu_cg_cp_rs1_edges_0x5bbc8872+0x18>
     ad0:	1e50246f          	jal	x8,34b4 <failedtest_x8_x7>
     ad4:	00000ac4          	.word	0x00000ac4
     ad8:	000094ec          	.word	0x000094ec
     adc:	00460613          	addi	x12,x12,4

# Testcase cp_rs1_edges (Test source rs1 value = 0xaaaaaaaa)
  RVTEST_TESTDATA_LOAD_INT(x1, x27) # load rs1: x27 = 0xaaaaaaaa
     ae0:	0000ad83          	lw	x27,0(x1)
     ae4:	00408093          	addi	x1,x1,4

00000ae8 <I_sltiu_cg_cp_rs1_edges_0xaaaaaaaa>:
I_sltiu_cg_cp_rs1_edges_0xaaaaaaaa:
  sltiu x25, x27, 351 # perform operation
     ae8:	15fdbc93          	sltiu	x25,x27,351
  # Check if x25 contains the expected result. x12 is the signature ptr, x8 is the link ptr, x7 is a temp reg.
  RVTEST_SIGUPD(x12, x8, x7, x25, I_sltiu_cg_cp_rs1_edges_0xaaaaaaaa, I_sltiu_cg_cp_rs1_edges_0xaaaaaaaa_str)
     aec:	00062383          	lw	x7,0(x12)
     af0:	01938863          	beq	x7,x25,b00 <I_sltiu_cg_cp_rs1_edges_0xaaaaaaaa+0x18>
     af4:	1c10246f          	jal	x8,34b4 <failedtest_x8_x7>
     af8:	00000ae8          	.word	0x00000ae8
     afc:	0000952a          	.word	0x0000952a
     b00:	00460613          	addi	x12,x12,4

# Testcase cp_rs1_edges (Test source rs1 value = 0x55555555)
  RVTEST_TESTDATA_LOAD_INT(x1, x16) # load rs1: x16 = 0x55555555
     b04:	0000a803          	lw	x16,0(x1)
     b08:	00408093          	addi	x1,x1,4

00000b0c <I_sltiu_cg_cp_rs1_edges_0x55555555>:
I_sltiu_cg_cp_rs1_edges_0x55555555:
  sltiu x27, x16, -70 # perform operation
     b0c:	fba83d93          	sltiu	x27,x16,-70
  # Check if x27 contains the expected result. x12 is the signature ptr, x8 is the link ptr, x7 is a temp reg.
  RVTEST_SIGUPD(x12, x8, x7, x27, I_sltiu_cg_cp_rs1_edges_0x55555555, I_sltiu_cg_cp_rs1_edges_0x55555555_str)
     b10:	00062383          	lw	x7,0(x12)
     b14:	01b38863          	beq	x7,x27,b24 <I_sltiu_cg_cp_rs1_edges_0x55555555+0x18>
     b18:	19d0246f          	jal	x8,34b4 <failedtest_x8_x7>
     b1c:	00000b0c          	.word	0x00000b0c
     b20:	00009568          	.word	0x00009568
     b24:	00460613          	addi	x12,x12,4
/////////////////////////////////
// cr_rs1_imm_edges
/////////////////////////////////

# Testcase cr_rs1_imm_edges (rs1 = 0x00000000, imm = 0)
  RVTEST_TESTDATA_LOAD_INT(x1, x3) # load rs1: x3 = 0x00000000
     b28:	0000a183          	lw	x3,0(x1)
     b2c:	00408093          	addi	x1,x1,4

00000b30 <I_sltiu_cg_cr_rs1_imm_edges_rs1val_0x0_immval_0x0>:
I_sltiu_cg_cr_rs1_imm_edges_rs1val_0x0_immval_0x0:
  sltiu x11, x3, 0 # perform operation
     b30:	0001b593          	sltiu	x11,x3,0
  # Check if x11 contains the expected result. x12 is the signature ptr, x8 is the link ptr, x7 is a temp reg.
  RVTEST_SIGUPD(x12, x8, x7, x11, I_sltiu_cg_cr_rs1_imm_edges_rs1val_0x0_immval_0x0, I_sltiu_cg_cr_rs1_imm_edges_rs1val_0x0_immval_0x0_str)
     b34:	00062383          	lw	x7,0(x12)
     b38:	00b38863          	beq	x7,x11,b48 <I_sltiu_cg_cr_rs1_imm_edges_rs1val_0x0_immval_0x0+0x18>
     b3c:	1790246f          	jal	x8,34b4 <failedtest_x8_x7>
     b40:	00000b30          	.word	0x00000b30
     b44:	000095a6          	.word	0x000095a6
     b48:	00460613          	addi	x12,x12,4

# Testcase cr_rs1_imm_edges (rs1 = 0x00000000, imm = 1)
  RVTEST_TESTDATA_LOAD_INT(x1, x16) # load rs1: x16 = 0x00000000
     b4c:	0000a803          	lw	x16,0(x1)
     b50:	00408093          	addi	x1,x1,4

00000b54 <I_sltiu_cg_cr_rs1_imm_edges_rs1val_0x0_immval_0x1>:
I_sltiu_cg_cr_rs1_imm_edges_rs1val_0x0_immval_0x1:
  sltiu x4, x16, 1 # perform operation
     b54:	00183213          	sltiu	x4,x16,1
  # Check if x4 contains the expected result. x12 is the signature ptr, x8 is the link ptr, x7 is a temp reg.
  RVTEST_SIGUPD(x12, x8, x7, x4, I_sltiu_cg_cr_rs1_imm_edges_rs1val_0x0_immval_0x1, I_sltiu_cg_cr_rs1_imm_edges_rs1val_0x0_immval_0x1_str)
     b58:	00062383          	lw	x7,0(x12)
     b5c:	00438863          	beq	x7,x4,b6c <I_sltiu_cg_cr_rs1_imm_edges_rs1val_0x0_immval_0x1+0x18>
     b60:	1550246f          	jal	x8,34b4 <failedtest_x8_x7>
     b64:	00000b54          	.word	0x00000b54
     b68:	000095f4          	.word	0x000095f4
     b6c:	00460613          	addi	x12,x12,4

# Testcase cr_rs1_imm_edges (rs1 = 0x00000000, imm = 2)
  RVTEST_TESTDATA_LOAD_INT(x1, x28) # load rs1: x28 = 0x00000000
     b70:	0000ae03          	lw	x28,0(x1)
     b74:	00408093          	addi	x1,x1,4

00000b78 <I_sltiu_cg_cr_rs1_imm_edges_rs1val_0x0_immval_0x2>:
I_sltiu_cg_cr_rs1_imm_edges_rs1val_0x0_immval_0x2:
  sltiu x19, x28, 2 # perform operation
     b78:	002e3993          	sltiu	x19,x28,2
  # Check if x19 contains the expected result. x12 is the signature ptr, x8 is the link ptr, x7 is a temp reg.
  RVTEST_SIGUPD(x12, x8, x7, x19, I_sltiu_cg_cr_rs1_imm_edges_rs1val_0x0_immval_0x2, I_sltiu_cg_cr_rs1_imm_edges_rs1val_0x0_immval_0x2_str)
     b7c:	00062383          	lw	x7,0(x12)
     b80:	01338863          	beq	x7,x19,b90 <I_sltiu_cg_cr_rs1_imm_edges_rs1val_0x0_immval_0x2+0x18>
     b84:	1310246f          	jal	x8,34b4 <failedtest_x8_x7>
     b88:	00000b78          	.word	0x00000b78
     b8c:	00009642          	.word	0x00009642
     b90:	00460613          	addi	x12,x12,4

# Testcase cr_rs1_imm_edges (rs1 = 0x00000000, imm = 3)
  RVTEST_TESTDATA_LOAD_INT(x1, x17) # load rs1: x17 = 0x00000000
     b94:	0000a883          	lw	x17,0(x1)
     b98:	00408093          	addi	x1,x1,4

00000b9c <I_sltiu_cg_cr_rs1_imm_edges_rs1val_0x0_immval_0x3>:
I_sltiu_cg_cr_rs1_imm_edges_rs1val_0x0_immval_0x3:
  sltiu x24, x17, 3 # perform operation
     b9c:	0038bc13          	sltiu	x24,x17,3
  # Check if x24 contains the expected result. x12 is the signature ptr, x8 is the link ptr, x7 is a temp reg.
  RVTEST_SIGUPD(x12, x8, x7, x24, I_sltiu_cg_cr_rs1_imm_edges_rs1val_0x0_immval_0x3, I_sltiu_cg_cr_rs1_imm_edges_rs1val_0x0_immval_0x3_str)
     ba0:	00062383          	lw	x7,0(x12)
     ba4:	01838863          	beq	x7,x24,bb4 <I_sltiu_cg_cr_rs1_imm_edges_rs1val_0x0_immval_0x3+0x18>
     ba8:	10d0246f          	jal	x8,34b4 <failedtest_x8_x7>
     bac:	00000b9c          	.word	0x00000b9c
     bb0:	00009690          	.word	0x00009690
     bb4:	00460613          	addi	x12,x12,4

# Testcase cr_rs1_imm_edges (rs1 = 0x00000000, imm = 4)
  RVTEST_TESTDATA_LOAD_INT(x1, x13) # load rs1: x13 = 0x00000000
     bb8:	0000a683          	lw	x13,0(x1)
     bbc:	00408093          	addi	x1,x1,4

00000bc0 <I_sltiu_cg_cr_rs1_imm_edges_rs1val_0x0_immval_0x4>:
I_sltiu_cg_cr_rs1_imm_edges_rs1val_0x0_immval_0x4:
  sltiu x16, x13, 4 # perform operation
     bc0:	0046b813          	sltiu	x16,x13,4
  # Check if x16 contains the expected result. x12 is the signature ptr, x8 is the link ptr, x7 is a temp reg.
  RVTEST_SIGUPD(x12, x8, x7, x16, I_sltiu_cg_cr_rs1_imm_edges_rs1val_0x0_immval_0x4, I_sltiu_cg_cr_rs1_imm_edges_rs1val_0x0_immval_0x4_str)
     bc4:	00062383          	lw	x7,0(x12)
     bc8:	01038863          	beq	x7,x16,bd8 <I_sltiu_cg_cr_rs1_imm_edges_rs1val_0x0_immval_0x4+0x18>
     bcc:	0e90246f          	jal	x8,34b4 <failedtest_x8_x7>
     bd0:	00000bc0          	.word	0x00000bc0
     bd4:	000096de          	.word	0x000096de
     bd8:	00460613          	addi	x12,x12,4

# Testcase cr_rs1_imm_edges (rs1 = 0x00000000, imm = 8)
  RVTEST_TESTDATA_LOAD_INT(x1, x6) # load rs1: x6 = 0x00000000
     bdc:	0000a303          	lw	x6,0(x1)
     be0:	00408093          	addi	x1,x1,4

00000be4 <I_sltiu_cg_cr_rs1_imm_edges_rs1val_0x0_immval_0x8>:
I_sltiu_cg_cr_rs1_imm_edges_rs1val_0x0_immval_0x8:
  sltiu x20, x6, 8 # perform operation
     be4:	00833a13          	sltiu	x20,x6,8
  # Check if x20 contains the expected result. x12 is the signature ptr, x8 is the link ptr, x7 is a temp reg.
  RVTEST_SIGUPD(x12, x8, x7, x20, I_sltiu_cg_cr_rs1_imm_edges_rs1val_0x0_immval_0x8, I_sltiu_cg_cr_rs1_imm_edges_rs1val_0x0_immval_0x8_str)
     be8:	00062383          	lw	x7,0(x12)
     bec:	01438863          	beq	x7,x20,bfc <I_sltiu_cg_cr_rs1_imm_edges_rs1val_0x0_immval_0x8+0x18>
     bf0:	0c50246f          	jal	x8,34b4 <failedtest_x8_x7>
     bf4:	00000be4          	.word	0x00000be4
     bf8:	0000972c          	.word	0x0000972c
     bfc:	00460613          	addi	x12,x12,4

# Testcase cr_rs1_imm_edges (rs1 = 0x00000000, imm = 16)
  RVTEST_TESTDATA_LOAD_INT(x1, x18) # load rs1: x18 = 0x00000000
     c00:	0000a903          	lw	x18,0(x1)
     c04:	00408093          	addi	x1,x1,4

00000c08 <I_sltiu_cg_cr_rs1_imm_edges_rs1val_0x0_immval_0x10>:
I_sltiu_cg_cr_rs1_imm_edges_rs1val_0x0_immval_0x10:
  sltiu x26, x18, 16 # perform operation
     c08:	01093d13          	sltiu	x26,x18,16
  # Check if x26 contains the expected result. x12 is the signature ptr, x8 is the link ptr, x7 is a temp reg.
  RVTEST_SIGUPD(x12, x8, x7, x26, I_sltiu_cg_cr_rs1_imm_edges_rs1val_0x0_immval_0x10, I_sltiu_cg_cr_rs1_imm_edges_rs1val_0x0_immval_0x10_str)
     c0c:	00062383          	lw	x7,0(x12)
     c10:	01a38863          	beq	x7,x26,c20 <I_sltiu_cg_cr_rs1_imm_edges_rs1val_0x0_immval_0x10+0x18>
     c14:	0a10246f          	jal	x8,34b4 <failedtest_x8_x7>
     c18:	00000c08          	.word	0x00000c08
     c1c:	0000977a          	.word	0x0000977a
     c20:	00460613          	addi	x12,x12,4

# Testcase cr_rs1_imm_edges (rs1 = 0x00000000, imm = 32)
  RVTEST_TESTDATA_LOAD_INT(x1, x22) # load rs1: x22 = 0x00000000
     c24:	0000ab03          	lw	x22,0(x1)
     c28:	00408093          	addi	x1,x1,4

00000c2c <I_sltiu_cg_cr_rs1_imm_edges_rs1val_0x0_immval_0x20>:
I_sltiu_cg_cr_rs1_imm_edges_rs1val_0x0_immval_0x20:
  sltiu x28, x22, 32 # perform operation
     c2c:	020b3e13          	sltiu	x28,x22,32
  # Check if x28 contains the expected result. x12 is the signature ptr, x8 is the link ptr, x7 is a temp reg.
  RVTEST_SIGUPD(x12, x8, x7, x28, I_sltiu_cg_cr_rs1_imm_edges_rs1val_0x0_immval_0x20, I_sltiu_cg_cr_rs1_imm_edges_rs1val_0x0_immval_0x20_str)
     c30:	00062383          	lw	x7,0(x12)
     c34:	01c38863          	beq	x7,x28,c44 <I_sltiu_cg_cr_rs1_imm_edges_rs1val_0x0_immval_0x20+0x18>
     c38:	07d0246f          	jal	x8,34b4 <failedtest_x8_x7>
     c3c:	00000c2c          	.word	0x00000c2c
     c40:	000097c9          	.word	0x000097c9
     c44:	00460613          	addi	x12,x12,4

# Testcase cr_rs1_imm_edges (rs1 = 0x00000000, imm = 64)
  RVTEST_TESTDATA_LOAD_INT(x1, x28) # load rs1: x28 = 0x00000000
     c48:	0000ae03          	lw	x28,0(x1)
     c4c:	00408093          	addi	x1,x1,4

00000c50 <I_sltiu_cg_cr_rs1_imm_edges_rs1val_0x0_immval_0x40>:
I_sltiu_cg_cr_rs1_imm_edges_rs1val_0x0_immval_0x40:
  sltiu x25, x28, 64 # perform operation
     c50:	040e3c93          	sltiu	x25,x28,64
  # Check if x25 contains the expected result. x12 is the signature ptr, x8 is the link ptr, x7 is a temp reg.
  RVTEST_SIGUPD(x12, x8, x7, x25, I_sltiu_cg_cr_rs1_imm_edges_rs1val_0x0_immval_0x40, I_sltiu_cg_cr_rs1_imm_edges_rs1val_0x0_immval_0x40_str)
     c54:	00062383          	lw	x7,0(x12)
     c58:	01938863          	beq	x7,x25,c68 <I_sltiu_cg_cr_rs1_imm_edges_rs1val_0x0_immval_0x40+0x18>
     c5c:	0590246f          	jal	x8,34b4 <failedtest_x8_x7>
     c60:	00000c50          	.word	0x00000c50
     c64:	00009818          	.word	0x00009818
     c68:	00460613          	addi	x12,x12,4

# Testcase cr_rs1_imm_edges (rs1 = 0x00000000, imm = 128)
  RVTEST_TESTDATA_LOAD_INT(x1, x25) # load rs1: x25 = 0x00000000
     c6c:	0000ac83          	lw	x25,0(x1)
     c70:	00408093          	addi	x1,x1,4

00000c74 <I_sltiu_cg_cr_rs1_imm_edges_rs1val_0x0_immval_0x80>:
I_sltiu_cg_cr_rs1_imm_edges_rs1val_0x0_immval_0x80:
  sltiu x28, x25, 128 # perform operation
     c74:	080cbe13          	sltiu	x28,x25,128
  # Check if x28 contains the expected result. x12 is the signature ptr, x8 is the link ptr, x7 is a temp reg.
  RVTEST_SIGUPD(x12, x8, x7, x28, I_sltiu_cg_cr_rs1_imm_edges_rs1val_0x0_immval_0x80, I_sltiu_cg_cr_rs1_imm_edges_rs1val_0x0_immval_0x80_str)
     c78:	00062383          	lw	x7,0(x12)
     c7c:	01c38863          	beq	x7,x28,c8c <I_sltiu_cg_cr_rs1_imm_edges_rs1val_0x0_immval_0x80+0x18>
     c80:	0350246f          	jal	x8,34b4 <failedtest_x8_x7>
     c84:	00000c74          	.word	0x00000c74
     c88:	00009867          	.word	0x00009867
     c8c:	00460613          	addi	x12,x12,4

# Testcase cr_rs1_imm_edges (rs1 = 0x00000000, imm = 256)
  RVTEST_TESTDATA_LOAD_INT(x1, x4) # load rs1: x4 = 0x00000000
     c90:	0000a203          	lw	x4,0(x1)
     c94:	00408093          	addi	x1,x1,4

00000c98 <I_sltiu_cg_cr_rs1_imm_edges_rs1val_0x0_immval_0x100>:
I_sltiu_cg_cr_rs1_imm_edges_rs1val_0x0_immval_0x100:
  sltiu x29, x4, 256 # perform operation
     c98:	10023e93          	sltiu	x29,x4,256
  # Check if x29 contains the expected result. x12 is the signature ptr, x8 is the link ptr, x7 is a temp reg.
  RVTEST_SIGUPD(x12, x8, x7, x29, I_sltiu_cg_cr_rs1_imm_edges_rs1val_0x0_immval_0x100, I_sltiu_cg_cr_rs1_imm_edges_rs1val_0x0_immval_0x100_str)
     c9c:	00062383          	lw	x7,0(x12)
     ca0:	01d38863          	beq	x7,x29,cb0 <I_sltiu_cg_cr_rs1_imm_edges_rs1val_0x0_immval_0x100+0x18>
     ca4:	0110246f          	jal	x8,34b4 <failedtest_x8_x7>
     ca8:	00000c98          	.word	0x00000c98
     cac:	000098b6          	.word	0x000098b6
     cb0:	00460613          	addi	x12,x12,4

# Testcase cr_rs1_imm_edges (rs1 = 0x00000000, imm = 512)
  RVTEST_TESTDATA_LOAD_INT(x1, x23) # load rs1: x23 = 0x00000000
     cb4:	0000ab83          	lw	x23,0(x1)
     cb8:	00408093          	addi	x1,x1,4

00000cbc <I_sltiu_cg_cr_rs1_imm_edges_rs1val_0x0_immval_0x200>:
I_sltiu_cg_cr_rs1_imm_edges_rs1val_0x0_immval_0x200:
  sltiu x9, x23, 512 # perform operation
     cbc:	200bb493          	sltiu	x9,x23,512
  # Check if x9 contains the expected result. x12 is the signature ptr, x8 is the link ptr, x7 is a temp reg.
  RVTEST_SIGUPD(x12, x8, x7, x9, I_sltiu_cg_cr_rs1_imm_edges_rs1val_0x0_immval_0x200, I_sltiu_cg_cr_rs1_imm_edges_rs1val_0x0_immval_0x200_str)
     cc0:	00062383          	lw	x7,0(x12)
     cc4:	00938863          	beq	x7,x9,cd4 <I_sltiu_cg_cr_rs1_imm_edges_rs1val_0x0_immval_0x200+0x18>
     cc8:	7ec0246f          	jal	x8,34b4 <failedtest_x8_x7>
     ccc:	00000cbc          	.word	0x00000cbc
     cd0:	00009906          	.word	0x00009906
     cd4:	00460613          	addi	x12,x12,4

# Testcase cr_rs1_imm_edges (rs1 = 0x00000000, imm = 1023)
  RVTEST_TESTDATA_LOAD_INT(x1, x19) # load rs1: x19 = 0x00000000
     cd8:	0000a983          	lw	x19,0(x1)
     cdc:	00408093          	addi	x1,x1,4

00000ce0 <I_sltiu_cg_cr_rs1_imm_edges_rs1val_0x0_immval_0x3ff>:
I_sltiu_cg_cr_rs1_imm_edges_rs1val_0x0_immval_0x3ff:
  sltiu x5, x19, 1023 # perform operation
     ce0:	3ff9b293          	sltiu	x5,x19,1023
  # Check if x5 contains the expected result. x12 is the signature ptr, x8 is the link ptr, x7 is a temp reg.
  RVTEST_SIGUPD(x12, x8, x7, x5, I_sltiu_cg_cr_rs1_imm_edges_rs1val_0x0_immval_0x3ff, I_sltiu_cg_cr_rs1_imm_edges_rs1val_0x0_immval_0x3ff_str)
     ce4:	00062383          	lw	x7,0(x12)
     ce8:	00538863          	beq	x7,x5,cf8 <I_sltiu_cg_cr_rs1_imm_edges_rs1val_0x0_immval_0x3ff+0x18>
     cec:	7c80246f          	jal	x8,34b4 <failedtest_x8_x7>
     cf0:	00000ce0          	.word	0x00000ce0
     cf4:	00009956          	.word	0x00009956
     cf8:	00460613          	addi	x12,x12,4

# Testcase cr_rs1_imm_edges (rs1 = 0x00000000, imm = 1024)
  RVTEST_TESTDATA_LOAD_INT(x1, x3) # load rs1: x3 = 0x00000000
     cfc:	0000a183          	lw	x3,0(x1)
     d00:	00408093          	addi	x1,x1,4

00000d04 <I_sltiu_cg_cr_rs1_imm_edges_rs1val_0x0_immval_0x400>:
I_sltiu_cg_cr_rs1_imm_edges_rs1val_0x0_immval_0x400:
  sltiu x9, x3, 1024 # perform operation
     d04:	4001b493          	sltiu	x9,x3,1024
  # Check if x9 contains the expected result. x12 is the signature ptr, x8 is the link ptr, x7 is a temp reg.
  RVTEST_SIGUPD(x12, x8, x7, x9, I_sltiu_cg_cr_rs1_imm_edges_rs1val_0x0_immval_0x400, I_sltiu_cg_cr_rs1_imm_edges_rs1val_0x0_immval_0x400_str)
     d08:	00062383          	lw	x7,0(x12)
     d0c:	00938863          	beq	x7,x9,d1c <I_sltiu_cg_cr_rs1_imm_edges_rs1val_0x0_immval_0x400+0x18>
     d10:	7a40246f          	jal	x8,34b4 <failedtest_x8_x7>
     d14:	00000d04          	.word	0x00000d04
     d18:	000099a6          	.word	0x000099a6
     d1c:	00460613          	addi	x12,x12,4

# Testcase cr_rs1_imm_edges (rs1 = 0x00000000, imm = 1795)
  RVTEST_TESTDATA_LOAD_INT(x1, x11) # load rs1: x11 = 0x00000000
     d20:	0000a583          	lw	x11,0(x1)
     d24:	00408093          	addi	x1,x1,4

00000d28 <I_sltiu_cg_cr_rs1_imm_edges_rs1val_0x0_immval_0x703>:
I_sltiu_cg_cr_rs1_imm_edges_rs1val_0x0_immval_0x703:
  sltiu x9, x11, 1795 # perform operation
     d28:	7035b493          	sltiu	x9,x11,1795
  # Check if x9 contains the expected result. x12 is the signature ptr, x8 is the link ptr, x7 is a temp reg.
  RVTEST_SIGUPD(x12, x8, x7, x9, I_sltiu_cg_cr_rs1_imm_edges_rs1val_0x0_immval_0x703, I_sltiu_cg_cr_rs1_imm_edges_rs1val_0x0_immval_0x703_str)
     d2c:	00062383          	lw	x7,0(x12)
     d30:	00938863          	beq	x7,x9,d40 <I_sltiu_cg_cr_rs1_imm_edges_rs1val_0x0_immval_0x703+0x18>
     d34:	7800246f          	jal	x8,34b4 <failedtest_x8_x7>
     d38:	00000d28          	.word	0x00000d28
     d3c:	000099f6          	.word	0x000099f6
     d40:	00460613          	addi	x12,x12,4

# Testcase cr_rs1_imm_edges (rs1 = 0x00000000, imm = 2047)
  RVTEST_TESTDATA_LOAD_INT(x1, x9) # load rs1: x9 = 0x00000000
     d44:	0000a483          	lw	x9,0(x1)
     d48:	00408093          	addi	x1,x1,4

00000d4c <I_sltiu_cg_cr_rs1_imm_edges_rs1val_0x0_immval_0x7ff>:
I_sltiu_cg_cr_rs1_imm_edges_rs1val_0x0_immval_0x7ff:
  sltiu x6, x9, 2047 # perform operation
     d4c:	7ff4b313          	sltiu	x6,x9,2047
  # Check if x6 contains the expected result. x12 is the signature ptr, x8 is the link ptr, x7 is a temp reg.
  RVTEST_SIGUPD(x12, x8, x7, x6, I_sltiu_cg_cr_rs1_imm_edges_rs1val_0x0_immval_0x7ff, I_sltiu_cg_cr_rs1_imm_edges_rs1val_0x0_immval_0x7ff_str)
     d50:	00062383          	lw	x7,0(x12)
     d54:	00638863          	beq	x7,x6,d64 <I_sltiu_cg_cr_rs1_imm_edges_rs1val_0x0_immval_0x7ff+0x18>
     d58:	75c0246f          	jal	x8,34b4 <failedtest_x8_x7>
     d5c:	00000d4c          	.word	0x00000d4c
     d60:	00009a46          	.word	0x00009a46
     d64:	00460613          	addi	x12,x12,4

# Testcase cr_rs1_imm_edges (rs1 = 0x00000000, imm = -2048)
  RVTEST_TESTDATA_LOAD_INT(x1, x17) # load rs1: x17 = 0x00000000
     d68:	0000a883          	lw	x17,0(x1)
     d6c:	00408093          	addi	x1,x1,4

00000d70 <I_sltiu_cg_cr_rs1_imm_edges_rs1val_0x0_immval_m0x800>:
I_sltiu_cg_cr_rs1_imm_edges_rs1val_0x0_immval_m0x800:
  sltiu x16, x17, -2048 # perform operation
     d70:	8008b813          	sltiu	x16,x17,-2048
  # Check if x16 contains the expected result. x12 is the signature ptr, x8 is the link ptr, x7 is a temp reg.
  RVTEST_SIGUPD(x12, x8, x7, x16, I_sltiu_cg_cr_rs1_imm_edges_rs1val_0x0_immval_m0x800, I_sltiu_cg_cr_rs1_imm_edges_rs1val_0x0_immval_m0x800_str)
     d74:	00062383          	lw	x7,0(x12)
     d78:	01038863          	beq	x7,x16,d88 <I_sltiu_cg_cr_rs1_imm_edges_rs1val_0x0_immval_m0x800+0x18>
     d7c:	7380246f          	jal	x8,34b4 <failedtest_x8_x7>
     d80:	00000d70          	.word	0x00000d70
     d84:	00009a96          	.word	0x00009a96
     d88:	00460613          	addi	x12,x12,4

# Testcase cr_rs1_imm_edges (rs1 = 0x00000000, imm = -2047)
  RVTEST_TESTDATA_LOAD_INT(x1, x5) # load rs1: x5 = 0x00000000
     d8c:	0000a283          	lw	x5,0(x1)
     d90:	00408093          	addi	x1,x1,4

00000d94 <I_sltiu_cg_cr_rs1_imm_edges_rs1val_0x0_immval_m0x7ff>:
I_sltiu_cg_cr_rs1_imm_edges_rs1val_0x0_immval_m0x7ff:
  sltiu x16, x5, -2047 # perform operation
     d94:	8012b813          	sltiu	x16,x5,-2047
  # Check if x16 contains the expected result. x12 is the signature ptr, x8 is the link ptr, x7 is a temp reg.
  RVTEST_SIGUPD(x12, x8, x7, x16, I_sltiu_cg_cr_rs1_imm_edges_rs1val_0x0_immval_m0x7ff, I_sltiu_cg_cr_rs1_imm_edges_rs1val_0x0_immval_m0x7ff_str)
     d98:	00062383          	lw	x7,0(x12)
     d9c:	01038863          	beq	x7,x16,dac <I_sltiu_cg_cr_rs1_imm_edges_rs1val_0x0_immval_m0x7ff+0x18>
     da0:	7140246f          	jal	x8,34b4 <failedtest_x8_x7>
     da4:	00000d94          	.word	0x00000d94
     da8:	00009ae7          	.word	0x00009ae7
     dac:	00460613          	addi	x12,x12,4

# Testcase cr_rs1_imm_edges (rs1 = 0x00000000, imm = -2)
  RVTEST_TESTDATA_LOAD_INT(x1, x18) # load rs1: x18 = 0x00000000
     db0:	0000a903          	lw	x18,0(x1)
     db4:	00408093          	addi	x1,x1,4

00000db8 <I_sltiu_cg_cr_rs1_imm_edges_rs1val_0x0_immval_m0x2>:
I_sltiu_cg_cr_rs1_imm_edges_rs1val_0x0_immval_m0x2:
  sltiu x2, x18, -2 # perform operation
     db8:	ffe93113          	sltiu	x2,x18,-2
  # Check if x2 contains the expected result. x12 is the signature ptr, x8 is the link ptr, x7 is a temp reg.
  RVTEST_SIGUPD(x12, x8, x7, x2, I_sltiu_cg_cr_rs1_imm_edges_rs1val_0x0_immval_m0x2, I_sltiu_cg_cr_rs1_imm_edges_rs1val_0x0_immval_m0x2_str)
     dbc:	00062383          	lw	x7,0(x12)
     dc0:	00238863          	beq	x7,x2,dd0 <I_sltiu_cg_cr_rs1_imm_edges_rs1val_0x0_immval_m0x2+0x18>
     dc4:	6f00246f          	jal	x8,34b4 <failedtest_x8_x7>
     dc8:	00000db8          	.word	0x00000db8
     dcc:	00009b38          	.word	0x00009b38
     dd0:	00460613          	addi	x12,x12,4

# Testcase cr_rs1_imm_edges (rs1 = 0x00000000, imm = -1)
  RVTEST_TESTDATA_LOAD_INT(x1, x3) # load rs1: x3 = 0x00000000
     dd4:	0000a183          	lw	x3,0(x1)
     dd8:	00408093          	addi	x1,x1,4

00000ddc <I_sltiu_cg_cr_rs1_imm_edges_rs1val_0x0_immval_m0x1>:
I_sltiu_cg_cr_rs1_imm_edges_rs1val_0x0_immval_m0x1:
  sltiu x18, x3, -1 # perform operation
     ddc:	fff1b913          	sltiu	x18,x3,-1
  # Check if x18 contains the expected result. x12 is the signature ptr, x8 is the link ptr, x7 is a temp reg.
  RVTEST_SIGUPD(x12, x8, x7, x18, I_sltiu_cg_cr_rs1_imm_edges_rs1val_0x0_immval_m0x1, I_sltiu_cg_cr_rs1_imm_edges_rs1val_0x0_immval_m0x1_str)
     de0:	00062383          	lw	x7,0(x12)
     de4:	01238863          	beq	x7,x18,df4 <I_sltiu_cg_cr_rs1_imm_edges_rs1val_0x0_immval_m0x1+0x18>
     de8:	6cc0246f          	jal	x8,34b4 <failedtest_x8_x7>
     dec:	00000ddc          	.word	0x00000ddc
     df0:	00009b87          	.word	0x00009b87
     df4:	00460613          	addi	x12,x12,4

# Testcase cr_rs1_imm_edges (rs1 = 0x00000001, imm = 0)
  RVTEST_TESTDATA_LOAD_INT(x1, x17) # load rs1: x17 = 0x00000001
     df8:	0000a883          	lw	x17,0(x1)
     dfc:	00408093          	addi	x1,x1,4

00000e00 <I_sltiu_cg_cr_rs1_imm_edges_rs1val_0x1_immval_0x0>:
I_sltiu_cg_cr_rs1_imm_edges_rs1val_0x1_immval_0x0:
  sltiu x5, x17, 0 # perform operation
     e00:	0008b293          	sltiu	x5,x17,0
  # Check if x5 contains the expected result. x12 is the signature ptr, x8 is the link ptr, x7 is a temp reg.
  RVTEST_SIGUPD(x12, x8, x7, x5, I_sltiu_cg_cr_rs1_imm_edges_rs1val_0x1_immval_0x0, I_sltiu_cg_cr_rs1_imm_edges_rs1val_0x1_immval_0x0_str)
     e04:	00062383          	lw	x7,0(x12)
     e08:	00538863          	beq	x7,x5,e18 <I_sltiu_cg_cr_rs1_imm_edges_rs1val_0x1_immval_0x0+0x18>
     e0c:	6a80246f          	jal	x8,34b4 <failedtest_x8_x7>
     e10:	00000e00          	.word	0x00000e00
     e14:	00009bd6          	.word	0x00009bd6
     e18:	00460613          	addi	x12,x12,4

# Testcase cr_rs1_imm_edges (rs1 = 0x00000001, imm = 1)
  RVTEST_TESTDATA_LOAD_INT(x1, x16) # load rs1: x16 = 0x00000001
     e1c:	0000a803          	lw	x16,0(x1)
     e20:	00408093          	addi	x1,x1,4

00000e24 <I_sltiu_cg_cr_rs1_imm_edges_rs1val_0x1_immval_0x1>:
I_sltiu_cg_cr_rs1_imm_edges_rs1val_0x1_immval_0x1:
  sltiu x17, x16, 1 # perform operation
     e24:	00183893          	sltiu	x17,x16,1
  # Check if x17 contains the expected result. x12 is the signature ptr, x8 is the link ptr, x7 is a temp reg.
  RVTEST_SIGUPD(x12, x8, x7, x17, I_sltiu_cg_cr_rs1_imm_edges_rs1val_0x1_immval_0x1, I_sltiu_cg_cr_rs1_imm_edges_rs1val_0x1_immval_0x1_str)
     e28:	00062383          	lw	x7,0(x12)
     e2c:	01138863          	beq	x7,x17,e3c <I_sltiu_cg_cr_rs1_imm_edges_rs1val_0x1_immval_0x1+0x18>
     e30:	6840246f          	jal	x8,34b4 <failedtest_x8_x7>
     e34:	00000e24          	.word	0x00000e24
     e38:	00009c24          	.word	0x00009c24
     e3c:	00460613          	addi	x12,x12,4

# Testcase cr_rs1_imm_edges (rs1 = 0x00000001, imm = 2)
  RVTEST_TESTDATA_LOAD_INT(x1, x11) # load rs1: x11 = 0x00000001
     e40:	0000a583          	lw	x11,0(x1)
     e44:	00408093          	addi	x1,x1,4

00000e48 <I_sltiu_cg_cr_rs1_imm_edges_rs1val_0x1_immval_0x2>:
I_sltiu_cg_cr_rs1_imm_edges_rs1val_0x1_immval_0x2:
  sltiu x2, x11, 2 # perform operation
     e48:	0025b113          	sltiu	x2,x11,2
  # Check if x2 contains the expected result. x12 is the signature ptr, x8 is the link ptr, x7 is a temp reg.
  RVTEST_SIGUPD(x12, x8, x7, x2, I_sltiu_cg_cr_rs1_imm_edges_rs1val_0x1_immval_0x2, I_sltiu_cg_cr_rs1_imm_edges_rs1val_0x1_immval_0x2_str)
     e4c:	00062383          	lw	x7,0(x12)
     e50:	00238863          	beq	x7,x2,e60 <I_sltiu_cg_cr_rs1_imm_edges_rs1val_0x1_immval_0x2+0x18>
     e54:	6600246f          	jal	x8,34b4 <failedtest_x8_x7>
     e58:	00000e48          	.word	0x00000e48
     e5c:	00009c72          	.word	0x00009c72
     e60:	00460613          	addi	x12,x12,4

# Testcase cr_rs1_imm_edges (rs1 = 0x00000001, imm = 3)
  RVTEST_TESTDATA_LOAD_INT(x1, x13) # load rs1: x13 = 0x00000001
     e64:	0000a683          	lw	x13,0(x1)
     e68:	00408093          	addi	x1,x1,4

00000e6c <I_sltiu_cg_cr_rs1_imm_edges_rs1val_0x1_immval_0x3>:
I_sltiu_cg_cr_rs1_imm_edges_rs1val_0x1_immval_0x3:
  sltiu x15, x13, 3 # perform operation
     e6c:	0036b793          	sltiu	x15,x13,3
  # Check if x15 contains the expected result. x12 is the signature ptr, x8 is the link ptr, x7 is a temp reg.
  RVTEST_SIGUPD(x12, x8, x7, x15, I_sltiu_cg_cr_rs1_imm_edges_rs1val_0x1_immval_0x3, I_sltiu_cg_cr_rs1_imm_edges_rs1val_0x1_immval_0x3_str)
     e70:	00062383          	lw	x7,0(x12)
     e74:	00f38863          	beq	x7,x15,e84 <I_sltiu_cg_cr_rs1_imm_edges_rs1val_0x1_immval_0x3+0x18>
     e78:	63c0246f          	jal	x8,34b4 <failedtest_x8_x7>
     e7c:	00000e6c          	.word	0x00000e6c
     e80:	00009cc0          	.word	0x00009cc0
     e84:	00460613          	addi	x12,x12,4

# Testcase cr_rs1_imm_edges (rs1 = 0x00000001, imm = 4)
  RVTEST_TESTDATA_LOAD_INT(x1, x2) # load rs1: x2 = 0x00000001
     e88:	0000a103          	lw	x2,0(x1)
     e8c:	00408093          	addi	x1,x1,4

00000e90 <I_sltiu_cg_cr_rs1_imm_edges_rs1val_0x1_immval_0x4>:
I_sltiu_cg_cr_rs1_imm_edges_rs1val_0x1_immval_0x4:
  sltiu x17, x2, 4 # perform operation
     e90:	00413893          	sltiu	x17,x2,4
  # Check if x17 contains the expected result. x12 is the signature ptr, x8 is the link ptr, x7 is a temp reg.
  RVTEST_SIGUPD(x12, x8, x7, x17, I_sltiu_cg_cr_rs1_imm_edges_rs1val_0x1_immval_0x4, I_sltiu_cg_cr_rs1_imm_edges_rs1val_0x1_immval_0x4_str)
     e94:	00062383          	lw	x7,0(x12)
     e98:	01138863          	beq	x7,x17,ea8 <I_sltiu_cg_cr_rs1_imm_edges_rs1val_0x1_immval_0x4+0x18>
     e9c:	6180246f          	jal	x8,34b4 <failedtest_x8_x7>
     ea0:	00000e90          	.word	0x00000e90
     ea4:	00009d0f          	.word	0x00009d0f
     ea8:	00460613          	addi	x12,x12,4

# Testcase cr_rs1_imm_edges (rs1 = 0x00000001, imm = 8)
  RVTEST_TESTDATA_LOAD_INT(x1, x20) # load rs1: x20 = 0x00000001
     eac:	0000aa03          	lw	x20,0(x1)
     eb0:	00408093          	addi	x1,x1,4

00000eb4 <I_sltiu_cg_cr_rs1_imm_edges_rs1val_0x1_immval_0x8>:
I_sltiu_cg_cr_rs1_imm_edges_rs1val_0x1_immval_0x8:
  sltiu x10, x20, 8 # perform operation
     eb4:	008a3513          	sltiu	x10,x20,8
  # Check if x10 contains the expected result. x12 is the signature ptr, x8 is the link ptr, x7 is a temp reg.
  RVTEST_SIGUPD(x12, x8, x7, x10, I_sltiu_cg_cr_rs1_imm_edges_rs1val_0x1_immval_0x8, I_sltiu_cg_cr_rs1_imm_edges_rs1val_0x1_immval_0x8_str)
     eb8:	00062383          	lw	x7,0(x12)
     ebc:	00a38863          	beq	x7,x10,ecc <I_sltiu_cg_cr_rs1_imm_edges_rs1val_0x1_immval_0x8+0x18>
     ec0:	5f40246f          	jal	x8,34b4 <failedtest_x8_x7>
     ec4:	00000eb4          	.word	0x00000eb4
     ec8:	00009d5e          	.word	0x00009d5e
     ecc:	00460613          	addi	x12,x12,4

# Testcase cr_rs1_imm_edges (rs1 = 0x00000001, imm = 16)
  RVTEST_TESTDATA_LOAD_INT(x1, x18) # load rs1: x18 = 0x00000001
     ed0:	0000a903          	lw	x18,0(x1)
     ed4:	00408093          	addi	x1,x1,4

00000ed8 <I_sltiu_cg_cr_rs1_imm_edges_rs1val_0x1_immval_0x10>:
I_sltiu_cg_cr_rs1_imm_edges_rs1val_0x1_immval_0x10:
  sltiu x29, x18, 16 # perform operation
     ed8:	01093e93          	sltiu	x29,x18,16
  # Check if x29 contains the expected result. x12 is the signature ptr, x8 is the link ptr, x7 is a temp reg.
  RVTEST_SIGUPD(x12, x8, x7, x29, I_sltiu_cg_cr_rs1_imm_edges_rs1val_0x1_immval_0x10, I_sltiu_cg_cr_rs1_imm_edges_rs1val_0x1_immval_0x10_str)
     edc:	00062383          	lw	x7,0(x12)
     ee0:	01d38863          	beq	x7,x29,ef0 <I_sltiu_cg_cr_rs1_imm_edges_rs1val_0x1_immval_0x10+0x18>
     ee4:	5d00246f          	jal	x8,34b4 <failedtest_x8_x7>
     ee8:	00000ed8          	.word	0x00000ed8
     eec:	00009dad          	.word	0x00009dad
     ef0:	00460613          	addi	x12,x12,4

# Testcase cr_rs1_imm_edges (rs1 = 0x00000001, imm = 32)
  RVTEST_TESTDATA_LOAD_INT(x1, x15) # load rs1: x15 = 0x00000001
     ef4:	0000a783          	lw	x15,0(x1)
     ef8:	00408093          	addi	x1,x1,4

00000efc <I_sltiu_cg_cr_rs1_imm_edges_rs1val_0x1_immval_0x20>:
I_sltiu_cg_cr_rs1_imm_edges_rs1val_0x1_immval_0x20:
  sltiu x30, x15, 32 # perform operation
     efc:	0207bf13          	sltiu	x30,x15,32
  # Check if x30 contains the expected result. x12 is the signature ptr, x8 is the link ptr, x7 is a temp reg.
  RVTEST_SIGUPD(x12, x8, x7, x30, I_sltiu_cg_cr_rs1_imm_edges_rs1val_0x1_immval_0x20, I_sltiu_cg_cr_rs1_imm_edges_rs1val_0x1_immval_0x20_str)
     f00:	00062383          	lw	x7,0(x12)
     f04:	01e38863          	beq	x7,x30,f14 <I_sltiu_cg_cr_rs1_imm_edges_rs1val_0x1_immval_0x20+0x18>
     f08:	5ac0246f          	jal	x8,34b4 <failedtest_x8_x7>
     f0c:	00000efc          	.word	0x00000efc
     f10:	00009dfd          	.word	0x00009dfd
     f14:	00460613          	addi	x12,x12,4

# Testcase cr_rs1_imm_edges (rs1 = 0x00000001, imm = 64)
  RVTEST_TESTDATA_LOAD_INT(x1, x28) # load rs1: x28 = 0x00000001
     f18:	0000ae03          	lw	x28,0(x1)
     f1c:	00408093          	addi	x1,x1,4

00000f20 <I_sltiu_cg_cr_rs1_imm_edges_rs1val_0x1_immval_0x40>:
I_sltiu_cg_cr_rs1_imm_edges_rs1val_0x1_immval_0x40:
  sltiu x13, x28, 64 # perform operation
     f20:	040e3693          	sltiu	x13,x28,64
  # Check if x13 contains the expected result. x12 is the signature ptr, x8 is the link ptr, x7 is a temp reg.
  RVTEST_SIGUPD(x12, x8, x7, x13, I_sltiu_cg_cr_rs1_imm_edges_rs1val_0x1_immval_0x40, I_sltiu_cg_cr_rs1_imm_edges_rs1val_0x1_immval_0x40_str)
     f24:	00062383          	lw	x7,0(x12)
     f28:	00d38863          	beq	x7,x13,f38 <I_sltiu_cg_cr_rs1_imm_edges_rs1val_0x1_immval_0x40+0x18>
     f2c:	5880246f          	jal	x8,34b4 <failedtest_x8_x7>
     f30:	00000f20          	.word	0x00000f20
     f34:	00009e4d          	.word	0x00009e4d
     f38:	00460613          	addi	x12,x12,4

# Testcase cr_rs1_imm_edges (rs1 = 0x00000001, imm = 128)
  RVTEST_TESTDATA_LOAD_INT(x1, x18) # load rs1: x18 = 0x00000001
     f3c:	0000a903          	lw	x18,0(x1)
     f40:	00408093          	addi	x1,x1,4

00000f44 <I_sltiu_cg_cr_rs1_imm_edges_rs1val_0x1_immval_0x80>:
I_sltiu_cg_cr_rs1_imm_edges_rs1val_0x1_immval_0x80:
  sltiu x16, x18, 128 # perform operation
     f44:	08093813          	sltiu	x16,x18,128
  # Check if x16 contains the expected result. x12 is the signature ptr, x8 is the link ptr, x7 is a temp reg.
  RVTEST_SIGUPD(x12, x8, x7, x16, I_sltiu_cg_cr_rs1_imm_edges_rs1val_0x1_immval_0x80, I_sltiu_cg_cr_rs1_imm_edges_rs1val_0x1_immval_0x80_str)
     f48:	00062383          	lw	x7,0(x12)
     f4c:	01038863          	beq	x7,x16,f5c <I_sltiu_cg_cr_rs1_imm_edges_rs1val_0x1_immval_0x80+0x18>
     f50:	5640246f          	jal	x8,34b4 <failedtest_x8_x7>
     f54:	00000f44          	.word	0x00000f44
     f58:	00009e9d          	.word	0x00009e9d
     f5c:	00460613          	addi	x12,x12,4

# Testcase cr_rs1_imm_edges (rs1 = 0x00000001, imm = 256)
  RVTEST_TESTDATA_LOAD_INT(x1, x13) # load rs1: x13 = 0x00000001
     f60:	0000a683          	lw	x13,0(x1)
     f64:	00408093          	addi	x1,x1,4

00000f68 <I_sltiu_cg_cr_rs1_imm_edges_rs1val_0x1_immval_0x100>:
I_sltiu_cg_cr_rs1_imm_edges_rs1val_0x1_immval_0x100:
  sltiu x27, x13, 256 # perform operation
     f68:	1006bd93          	sltiu	x27,x13,256
  # Check if x27 contains the expected result. x12 is the signature ptr, x8 is the link ptr, x7 is a temp reg.
  RVTEST_SIGUPD(x12, x8, x7, x27, I_sltiu_cg_cr_rs1_imm_edges_rs1val_0x1_immval_0x100, I_sltiu_cg_cr_rs1_imm_edges_rs1val_0x1_immval_0x100_str)
     f6c:	00062383          	lw	x7,0(x12)
     f70:	01b38863          	beq	x7,x27,f80 <I_sltiu_cg_cr_rs1_imm_edges_rs1val_0x1_immval_0x100+0x18>
     f74:	5400246f          	jal	x8,34b4 <failedtest_x8_x7>
     f78:	00000f68          	.word	0x00000f68
     f7c:	00009eed          	.word	0x00009eed
     f80:	00460613          	addi	x12,x12,4

# Testcase cr_rs1_imm_edges (rs1 = 0x00000001, imm = 512)
  RVTEST_TESTDATA_LOAD_INT(x1, x18) # load rs1: x18 = 0x00000001
     f84:	0000a903          	lw	x18,0(x1)
     f88:	00408093          	addi	x1,x1,4

00000f8c <I_sltiu_cg_cr_rs1_imm_edges_rs1val_0x1_immval_0x200>:
I_sltiu_cg_cr_rs1_imm_edges_rs1val_0x1_immval_0x200:
  sltiu x28, x18, 512 # perform operation
     f8c:	20093e13          	sltiu	x28,x18,512
  # Check if x28 contains the expected result. x12 is the signature ptr, x8 is the link ptr, x7 is a temp reg.
  RVTEST_SIGUPD(x12, x8, x7, x28, I_sltiu_cg_cr_rs1_imm_edges_rs1val_0x1_immval_0x200, I_sltiu_cg_cr_rs1_imm_edges_rs1val_0x1_immval_0x200_str)
     f90:	00062383          	lw	x7,0(x12)
     f94:	01c38863          	beq	x7,x28,fa4 <I_sltiu_cg_cr_rs1_imm_edges_rs1val_0x1_immval_0x200+0x18>
     f98:	51c0246f          	jal	x8,34b4 <failedtest_x8_x7>
     f9c:	00000f8c          	.word	0x00000f8c
     fa0:	00009f3e          	.word	0x00009f3e
     fa4:	00460613          	addi	x12,x12,4

# Testcase cr_rs1_imm_edges (rs1 = 0x00000001, imm = 1023)
  RVTEST_TESTDATA_LOAD_INT(x1, x21) # load rs1: x21 = 0x00000001
     fa8:	0000aa83          	lw	x21,0(x1)
     fac:	00408093          	addi	x1,x1,4

00000fb0 <I_sltiu_cg_cr_rs1_imm_edges_rs1val_0x1_immval_0x3ff>:
I_sltiu_cg_cr_rs1_imm_edges_rs1val_0x1_immval_0x3ff:
  sltiu x16, x21, 1023 # perform operation
     fb0:	3ffab813          	sltiu	x16,x21,1023
  # Check if x16 contains the expected result. x12 is the signature ptr, x8 is the link ptr, x7 is a temp reg.
  RVTEST_SIGUPD(x12, x8, x7, x16, I_sltiu_cg_cr_rs1_imm_edges_rs1val_0x1_immval_0x3ff, I_sltiu_cg_cr_rs1_imm_edges_rs1val_0x1_immval_0x3ff_str)
     fb4:	00062383          	lw	x7,0(x12)
     fb8:	01038863          	beq	x7,x16,fc8 <I_sltiu_cg_cr_rs1_imm_edges_rs1val_0x1_immval_0x3ff+0x18>
     fbc:	4f80246f          	jal	x8,34b4 <failedtest_x8_x7>
     fc0:	00000fb0          	.word	0x00000fb0
     fc4:	00009f8f          	.word	0x00009f8f
     fc8:	00460613          	addi	x12,x12,4

# Testcase cr_rs1_imm_edges (rs1 = 0x00000001, imm = 1024)
  RVTEST_TESTDATA_LOAD_INT(x1, x16) # load rs1: x16 = 0x00000001
     fcc:	0000a803          	lw	x16,0(x1)
     fd0:	00408093          	addi	x1,x1,4

00000fd4 <I_sltiu_cg_cr_rs1_imm_edges_rs1val_0x1_immval_0x400>:
I_sltiu_cg_cr_rs1_imm_edges_rs1val_0x1_immval_0x400:
  sltiu x20, x16, 1024 # perform operation
     fd4:	40083a13          	sltiu	x20,x16,1024
  # Check if x20 contains the expected result. x12 is the signature ptr, x8 is the link ptr, x7 is a temp reg.
  RVTEST_SIGUPD(x12, x8, x7, x20, I_sltiu_cg_cr_rs1_imm_edges_rs1val_0x1_immval_0x400, I_sltiu_cg_cr_rs1_imm_edges_rs1val_0x1_immval_0x400_str)
     fd8:	00062383          	lw	x7,0(x12)
     fdc:	01438863          	beq	x7,x20,fec <I_sltiu_cg_cr_rs1_imm_edges_rs1val_0x1_immval_0x400+0x18>
     fe0:	4d40246f          	jal	x8,34b4 <failedtest_x8_x7>
     fe4:	00000fd4          	.word	0x00000fd4
     fe8:	00009fe0          	.word	0x00009fe0
     fec:	00460613          	addi	x12,x12,4

# Testcase cr_rs1_imm_edges (rs1 = 0x00000001, imm = 1795)
  RVTEST_TESTDATA_LOAD_INT(x1, x31) # load rs1: x31 = 0x00000001
     ff0:	0000af83          	lw	x31,0(x1)
     ff4:	00408093          	addi	x1,x1,4

00000ff8 <I_sltiu_cg_cr_rs1_imm_edges_rs1val_0x1_immval_0x703>:
I_sltiu_cg_cr_rs1_imm_edges_rs1val_0x1_immval_0x703:
  sltiu x27, x31, 1795 # perform operation
     ff8:	703fbd93          	sltiu	x27,x31,1795
  # Check if x27 contains the expected result. x12 is the signature ptr, x8 is the link ptr, x7 is a temp reg.
  RVTEST_SIGUPD(x12, x8, x7, x27, I_sltiu_cg_cr_rs1_imm_edges_rs1val_0x1_immval_0x703, I_sltiu_cg_cr_rs1_imm_edges_rs1val_0x1_immval_0x703_str)
     ffc:	00062383          	lw	x7,0(x12)
    1000:	01b38863          	beq	x7,x27,1010 <I_sltiu_cg_cr_rs1_imm_edges_rs1val_0x1_immval_0x703+0x18>
    1004:	4b00246f          	jal	x8,34b4 <failedtest_x8_x7>
    1008:	00000ff8          	.word	0x00000ff8
    100c:	0000a031          	.word	0x0000a031
    1010:	00460613          	addi	x12,x12,4

# Testcase cr_rs1_imm_edges (rs1 = 0x00000001, imm = 2047)
  RVTEST_TESTDATA_LOAD_INT(x1, x23) # load rs1: x23 = 0x00000001
    1014:	0000ab83          	lw	x23,0(x1)
    1018:	00408093          	addi	x1,x1,4

0000101c <I_sltiu_cg_cr_rs1_imm_edges_rs1val_0x1_immval_0x7ff>:
I_sltiu_cg_cr_rs1_imm_edges_rs1val_0x1_immval_0x7ff:
  sltiu x25, x23, 2047 # perform operation
    101c:	7ffbbc93          	sltiu	x25,x23,2047
  # Check if x25 contains the expected result. x12 is the signature ptr, x8 is the link ptr, x7 is a temp reg.
  RVTEST_SIGUPD(x12, x8, x7, x25, I_sltiu_cg_cr_rs1_imm_edges_rs1val_0x1_immval_0x7ff, I_sltiu_cg_cr_rs1_imm_edges_rs1val_0x1_immval_0x7ff_str)
    1020:	00062383          	lw	x7,0(x12)
    1024:	01938863          	beq	x7,x25,1034 <I_sltiu_cg_cr_rs1_imm_edges_rs1val_0x1_immval_0x7ff+0x18>
    1028:	48c0246f          	jal	x8,34b4 <failedtest_x8_x7>
    102c:	0000101c          	.word	0x0000101c
    1030:	0000a082          	.word	0x0000a082
    1034:	00460613          	addi	x12,x12,4

# Testcase cr_rs1_imm_edges (rs1 = 0x00000001, imm = -2048)
  RVTEST_TESTDATA_LOAD_INT(x1, x11) # load rs1: x11 = 0x00000001
    1038:	0000a583          	lw	x11,0(x1)
    103c:	00408093          	addi	x1,x1,4

00001040 <I_sltiu_cg_cr_rs1_imm_edges_rs1val_0x1_immval_m0x800>:
I_sltiu_cg_cr_rs1_imm_edges_rs1val_0x1_immval_m0x800:
  sltiu x21, x11, -2048 # perform operation
    1040:	8005ba93          	sltiu	x21,x11,-2048
  # Check if x21 contains the expected result. x12 is the signature ptr, x8 is the link ptr, x7 is a temp reg.
  RVTEST_SIGUPD(x12, x8, x7, x21, I_sltiu_cg_cr_rs1_imm_edges_rs1val_0x1_immval_m0x800, I_sltiu_cg_cr_rs1_imm_edges_rs1val_0x1_immval_m0x800_str)
    1044:	00062383          	lw	x7,0(x12)
    1048:	01538863          	beq	x7,x21,1058 <I_sltiu_cg_cr_rs1_imm_edges_rs1val_0x1_immval_m0x800+0x18>
    104c:	4680246f          	jal	x8,34b4 <failedtest_x8_x7>
    1050:	00001040          	.word	0x00001040
    1054:	0000a0d3          	.word	0x0000a0d3
    1058:	00460613          	addi	x12,x12,4

# Testcase cr_rs1_imm_edges (rs1 = 0x00000001, imm = -2047)
  RVTEST_TESTDATA_LOAD_INT(x1, x19) # load rs1: x19 = 0x00000001
    105c:	0000a983          	lw	x19,0(x1)
    1060:	00408093          	addi	x1,x1,4

00001064 <I_sltiu_cg_cr_rs1_imm_edges_rs1val_0x1_immval_m0x7ff>:
I_sltiu_cg_cr_rs1_imm_edges_rs1val_0x1_immval_m0x7ff:
  sltiu x5, x19, -2047 # perform operation
    1064:	8019b293          	sltiu	x5,x19,-2047
  # Check if x5 contains the expected result. x12 is the signature ptr, x8 is the link ptr, x7 is a temp reg.
  RVTEST_SIGUPD(x12, x8, x7, x5, I_sltiu_cg_cr_rs1_imm_edges_rs1val_0x1_immval_m0x7ff, I_sltiu_cg_cr_rs1_imm_edges_rs1val_0x1_immval_m0x7ff_str)
    1068:	00062383          	lw	x7,0(x12)
    106c:	00538863          	beq	x7,x5,107c <I_sltiu_cg_cr_rs1_imm_edges_rs1val_0x1_immval_m0x7ff+0x18>
    1070:	4440246f          	jal	x8,34b4 <failedtest_x8_x7>
    1074:	00001064          	.word	0x00001064
    1078:	0000a125          	.word	0x0000a125
    107c:	00460613          	addi	x12,x12,4

# Testcase cr_rs1_imm_edges (rs1 = 0x00000001, imm = -2)
  RVTEST_TESTDATA_LOAD_INT(x1, x16) # load rs1: x16 = 0x00000001
    1080:	0000a803          	lw	x16,0(x1)
    1084:	00408093          	addi	x1,x1,4

00001088 <I_sltiu_cg_cr_rs1_imm_edges_rs1val_0x1_immval_m0x2>:
I_sltiu_cg_cr_rs1_imm_edges_rs1val_0x1_immval_m0x2:
  sltiu x22, x16, -2 # perform operation
    1088:	ffe83b13          	sltiu	x22,x16,-2
  # Check if x22 contains the expected result. x12 is the signature ptr, x8 is the link ptr, x7 is a temp reg.
  RVTEST_SIGUPD(x12, x8, x7, x22, I_sltiu_cg_cr_rs1_imm_edges_rs1val_0x1_immval_m0x2, I_sltiu_cg_cr_rs1_imm_edges_rs1val_0x1_immval_m0x2_str)
    108c:	00062383          	lw	x7,0(x12)
    1090:	01638863          	beq	x7,x22,10a0 <I_sltiu_cg_cr_rs1_imm_edges_rs1val_0x1_immval_m0x2+0x18>
    1094:	4200246f          	jal	x8,34b4 <failedtest_x8_x7>
    1098:	00001088          	.word	0x00001088
    109c:	0000a177          	.word	0x0000a177
    10a0:	00460613          	addi	x12,x12,4

# Testcase cr_rs1_imm_edges (rs1 = 0x00000001, imm = -1)
  RVTEST_TESTDATA_LOAD_INT(x1, x27) # load rs1: x27 = 0x00000001
    10a4:	0000ad83          	lw	x27,0(x1)
    10a8:	00408093          	addi	x1,x1,4

000010ac <I_sltiu_cg_cr_rs1_imm_edges_rs1val_0x1_immval_m0x1>:
I_sltiu_cg_cr_rs1_imm_edges_rs1val_0x1_immval_m0x1:
  sltiu x28, x27, -1 # perform operation
    10ac:	fffdbe13          	sltiu	x28,x27,-1
  # Check if x28 contains the expected result. x12 is the signature ptr, x8 is the link ptr, x7 is a temp reg.
  RVTEST_SIGUPD(x12, x8, x7, x28, I_sltiu_cg_cr_rs1_imm_edges_rs1val_0x1_immval_m0x1, I_sltiu_cg_cr_rs1_imm_edges_rs1val_0x1_immval_m0x1_str)
    10b0:	00062383          	lw	x7,0(x12)
    10b4:	01c38863          	beq	x7,x28,10c4 <I_sltiu_cg_cr_rs1_imm_edges_rs1val_0x1_immval_m0x1+0x18>
    10b8:	3fc0246f          	jal	x8,34b4 <failedtest_x8_x7>
    10bc:	000010ac          	.word	0x000010ac
    10c0:	0000a1c7          	.word	0x0000a1c7
    10c4:	00460613          	addi	x12,x12,4

# Testcase cr_rs1_imm_edges (rs1 = 0x00000002, imm = 0)
  RVTEST_TESTDATA_LOAD_INT(x1, x17) # load rs1: x17 = 0x00000002
    10c8:	0000a883          	lw	x17,0(x1)
    10cc:	00408093          	addi	x1,x1,4

000010d0 <I_sltiu_cg_cr_rs1_imm_edges_rs1val_0x2_immval_0x0>:
I_sltiu_cg_cr_rs1_imm_edges_rs1val_0x2_immval_0x0:
  sltiu x24, x17, 0 # perform operation
    10d0:	0008bc13          	sltiu	x24,x17,0
  # Check if x24 contains the expected result. x12 is the signature ptr, x8 is the link ptr, x7 is a temp reg.
  RVTEST_SIGUPD(x12, x8, x7, x24, I_sltiu_cg_cr_rs1_imm_edges_rs1val_0x2_immval_0x0, I_sltiu_cg_cr_rs1_imm_edges_rs1val_0x2_immval_0x0_str)
    10d4:	00062383          	lw	x7,0(x12)
    10d8:	01838863          	beq	x7,x24,10e8 <I_sltiu_cg_cr_rs1_imm_edges_rs1val_0x2_immval_0x0+0x18>
    10dc:	3d80246f          	jal	x8,34b4 <failedtest_x8_x7>
    10e0:	000010d0          	.word	0x000010d0
    10e4:	0000a217          	.word	0x0000a217
    10e8:	00460613          	addi	x12,x12,4

# Testcase cr_rs1_imm_edges (rs1 = 0x00000002, imm = 1)
  RVTEST_TESTDATA_LOAD_INT(x1, x3) # load rs1: x3 = 0x00000002
    10ec:	0000a183          	lw	x3,0(x1)
    10f0:	00408093          	addi	x1,x1,4

000010f4 <I_sltiu_cg_cr_rs1_imm_edges_rs1val_0x2_immval_0x1>:
I_sltiu_cg_cr_rs1_imm_edges_rs1val_0x2_immval_0x1:
  sltiu x16, x3, 1 # perform operation
    10f4:	0011b813          	sltiu	x16,x3,1
  # Check if x16 contains the expected result. x12 is the signature ptr, x8 is the link ptr, x7 is a temp reg.
  RVTEST_SIGUPD(x12, x8, x7, x16, I_sltiu_cg_cr_rs1_imm_edges_rs1val_0x2_immval_0x1, I_sltiu_cg_cr_rs1_imm_edges_rs1val_0x2_immval_0x1_str)
    10f8:	00062383          	lw	x7,0(x12)
    10fc:	01038863          	beq	x7,x16,110c <I_sltiu_cg_cr_rs1_imm_edges_rs1val_0x2_immval_0x1+0x18>
    1100:	3b40246f          	jal	x8,34b4 <failedtest_x8_x7>
    1104:	000010f4          	.word	0x000010f4
    1108:	0000a266          	.word	0x0000a266
    110c:	00460613          	addi	x12,x12,4

# Testcase cr_rs1_imm_edges (rs1 = 0x00000002, imm = 2)
  RVTEST_TESTDATA_LOAD_INT(x1, x3) # load rs1: x3 = 0x00000002
    1110:	0000a183          	lw	x3,0(x1)
    1114:	00408093          	addi	x1,x1,4

00001118 <I_sltiu_cg_cr_rs1_imm_edges_rs1val_0x2_immval_0x2>:
I_sltiu_cg_cr_rs1_imm_edges_rs1val_0x2_immval_0x2:
  sltiu x6, x3, 2 # perform operation
    1118:	0021b313          	sltiu	x6,x3,2
  # Check if x6 contains the expected result. x12 is the signature ptr, x8 is the link ptr, x7 is a temp reg.
  RVTEST_SIGUPD(x12, x8, x7, x6, I_sltiu_cg_cr_rs1_imm_edges_rs1val_0x2_immval_0x2, I_sltiu_cg_cr_rs1_imm_edges_rs1val_0x2_immval_0x2_str)
    111c:	00062383          	lw	x7,0(x12)
    1120:	00638863          	beq	x7,x6,1130 <I_sltiu_cg_cr_rs1_imm_edges_rs1val_0x2_immval_0x2+0x18>
    1124:	3900246f          	jal	x8,34b4 <failedtest_x8_x7>
    1128:	00001118          	.word	0x00001118
    112c:	0000a2b5          	.word	0x0000a2b5
    1130:	00460613          	addi	x12,x12,4

# Testcase cr_rs1_imm_edges (rs1 = 0x00000002, imm = 3)
  RVTEST_TESTDATA_LOAD_INT(x1, x5) # load rs1: x5 = 0x00000002
    1134:	0000a283          	lw	x5,0(x1)
    1138:	00408093          	addi	x1,x1,4

0000113c <I_sltiu_cg_cr_rs1_imm_edges_rs1val_0x2_immval_0x3>:
I_sltiu_cg_cr_rs1_imm_edges_rs1val_0x2_immval_0x3:
  sltiu x17, x5, 3 # perform operation
    113c:	0032b893          	sltiu	x17,x5,3
  # Check if x17 contains the expected result. x12 is the signature ptr, x8 is the link ptr, x7 is a temp reg.
  RVTEST_SIGUPD(x12, x8, x7, x17, I_sltiu_cg_cr_rs1_imm_edges_rs1val_0x2_immval_0x3, I_sltiu_cg_cr_rs1_imm_edges_rs1val_0x2_immval_0x3_str)
    1140:	00062383          	lw	x7,0(x12)
    1144:	01138863          	beq	x7,x17,1154 <I_sltiu_cg_cr_rs1_imm_edges_rs1val_0x2_immval_0x3+0x18>
    1148:	36c0246f          	jal	x8,34b4 <failedtest_x8_x7>
    114c:	0000113c          	.word	0x0000113c
    1150:	0000a304          	.word	0x0000a304
    1154:	00460613          	addi	x12,x12,4

# Testcase cr_rs1_imm_edges (rs1 = 0x00000002, imm = 4)
  RVTEST_TESTDATA_LOAD_INT(x1, x24) # load rs1: x24 = 0x00000002
    1158:	0000ac03          	lw	x24,0(x1)
    115c:	00408093          	addi	x1,x1,4

00001160 <I_sltiu_cg_cr_rs1_imm_edges_rs1val_0x2_immval_0x4>:
I_sltiu_cg_cr_rs1_imm_edges_rs1val_0x2_immval_0x4:
  sltiu x26, x24, 4 # perform operation
    1160:	004c3d13          	sltiu	x26,x24,4
  # Check if x26 contains the expected result. x12 is the signature ptr, x8 is the link ptr, x7 is a temp reg.
  RVTEST_SIGUPD(x12, x8, x7, x26, I_sltiu_cg_cr_rs1_imm_edges_rs1val_0x2_immval_0x4, I_sltiu_cg_cr_rs1_imm_edges_rs1val_0x2_immval_0x4_str)
    1164:	00062383          	lw	x7,0(x12)
    1168:	01a38863          	beq	x7,x26,1178 <I_sltiu_cg_cr_rs1_imm_edges_rs1val_0x2_immval_0x4+0x18>
    116c:	3480246f          	jal	x8,34b4 <failedtest_x8_x7>
    1170:	00001160          	.word	0x00001160
    1174:	0000a353          	.word	0x0000a353
    1178:	00460613          	addi	x12,x12,4

# Testcase cr_rs1_imm_edges (rs1 = 0x00000002, imm = 8)
  RVTEST_TESTDATA_LOAD_INT(x1, x5) # load rs1: x5 = 0x00000002
    117c:	0000a283          	lw	x5,0(x1)
    1180:	00408093          	addi	x1,x1,4

00001184 <I_sltiu_cg_cr_rs1_imm_edges_rs1val_0x2_immval_0x8>:
I_sltiu_cg_cr_rs1_imm_edges_rs1val_0x2_immval_0x8:
  sltiu x18, x5, 8 # perform operation
    1184:	0082b913          	sltiu	x18,x5,8
  # Check if x18 contains the expected result. x12 is the signature ptr, x8 is the link ptr, x7 is a temp reg.
  RVTEST_SIGUPD(x12, x8, x7, x18, I_sltiu_cg_cr_rs1_imm_edges_rs1val_0x2_immval_0x8, I_sltiu_cg_cr_rs1_imm_edges_rs1val_0x2_immval_0x8_str)
    1188:	00062383          	lw	x7,0(x12)
    118c:	01238863          	beq	x7,x18,119c <I_sltiu_cg_cr_rs1_imm_edges_rs1val_0x2_immval_0x8+0x18>
    1190:	3240246f          	jal	x8,34b4 <failedtest_x8_x7>
    1194:	00001184          	.word	0x00001184
    1198:	0000a3a2          	.word	0x0000a3a2
    119c:	00460613          	addi	x12,x12,4

# Testcase cr_rs1_imm_edges (rs1 = 0x00000002, imm = 16)
  RVTEST_TESTDATA_LOAD_INT(x1, x2) # load rs1: x2 = 0x00000002
    11a0:	0000a103          	lw	x2,0(x1)
    11a4:	00408093          	addi	x1,x1,4

000011a8 <I_sltiu_cg_cr_rs1_imm_edges_rs1val_0x2_immval_0x10>:
I_sltiu_cg_cr_rs1_imm_edges_rs1val_0x2_immval_0x10:
  sltiu x31, x2, 16 # perform operation
    11a8:	01013f93          	sltiu	x31,x2,16
  # Check if x31 contains the expected result. x12 is the signature ptr, x8 is the link ptr, x7 is a temp reg.
  RVTEST_SIGUPD(x12, x8, x7, x31, I_sltiu_cg_cr_rs1_imm_edges_rs1val_0x2_immval_0x10, I_sltiu_cg_cr_rs1_imm_edges_rs1val_0x2_immval_0x10_str)
    11ac:	00062383          	lw	x7,0(x12)
    11b0:	01f38863          	beq	x7,x31,11c0 <I_sltiu_cg_cr_rs1_imm_edges_rs1val_0x2_immval_0x10+0x18>
    11b4:	3000246f          	jal	x8,34b4 <failedtest_x8_x7>
    11b8:	000011a8          	.word	0x000011a8
    11bc:	0000a3f1          	.word	0x0000a3f1
    11c0:	00460613          	addi	x12,x12,4

# Testcase cr_rs1_imm_edges (rs1 = 0x00000002, imm = 32)
  RVTEST_TESTDATA_LOAD_INT(x1, x2) # load rs1: x2 = 0x00000002
    11c4:	0000a103          	lw	x2,0(x1)
    11c8:	00408093          	addi	x1,x1,4

000011cc <I_sltiu_cg_cr_rs1_imm_edges_rs1val_0x2_immval_0x20>:
I_sltiu_cg_cr_rs1_imm_edges_rs1val_0x2_immval_0x20:
  sltiu x13, x2, 32 # perform operation
    11cc:	02013693          	sltiu	x13,x2,32
  # Check if x13 contains the expected result. x12 is the signature ptr, x8 is the link ptr, x7 is a temp reg.
  RVTEST_SIGUPD(x12, x8, x7, x13, I_sltiu_cg_cr_rs1_imm_edges_rs1val_0x2_immval_0x20, I_sltiu_cg_cr_rs1_imm_edges_rs1val_0x2_immval_0x20_str)
    11d0:	00062383          	lw	x7,0(x12)
    11d4:	00d38863          	beq	x7,x13,11e4 <I_sltiu_cg_cr_rs1_imm_edges_rs1val_0x2_immval_0x20+0x18>
    11d8:	2dc0246f          	jal	x8,34b4 <failedtest_x8_x7>
    11dc:	000011cc          	.word	0x000011cc
    11e0:	0000a441          	.word	0x0000a441
    11e4:	00460613          	addi	x12,x12,4

# Testcase cr_rs1_imm_edges (rs1 = 0x00000002, imm = 64)
  RVTEST_TESTDATA_LOAD_INT(x1, x19) # load rs1: x19 = 0x00000002
    11e8:	0000a983          	lw	x19,0(x1)
    11ec:	00408093          	addi	x1,x1,4

000011f0 <I_sltiu_cg_cr_rs1_imm_edges_rs1val_0x2_immval_0x40>:
I_sltiu_cg_cr_rs1_imm_edges_rs1val_0x2_immval_0x40:
  sltiu x21, x19, 64 # perform operation
    11f0:	0409ba93          	sltiu	x21,x19,64
  # Check if x21 contains the expected result. x12 is the signature ptr, x8 is the link ptr, x7 is a temp reg.
  RVTEST_SIGUPD(x12, x8, x7, x21, I_sltiu_cg_cr_rs1_imm_edges_rs1val_0x2_immval_0x40, I_sltiu_cg_cr_rs1_imm_edges_rs1val_0x2_immval_0x40_str)
    11f4:	00062383          	lw	x7,0(x12)
    11f8:	01538863          	beq	x7,x21,1208 <I_sltiu_cg_cr_rs1_imm_edges_rs1val_0x2_immval_0x40+0x18>
    11fc:	2b80246f          	jal	x8,34b4 <failedtest_x8_x7>
    1200:	000011f0          	.word	0x000011f0
    1204:	0000a491          	.word	0x0000a491
    1208:	00460613          	addi	x12,x12,4

# Testcase cr_rs1_imm_edges (rs1 = 0x00000002, imm = 128)
  RVTEST_TESTDATA_LOAD_INT(x1, x21) # load rs1: x21 = 0x00000002
    120c:	0000aa83          	lw	x21,0(x1)
    1210:	00408093          	addi	x1,x1,4

00001214 <I_sltiu_cg_cr_rs1_imm_edges_rs1val_0x2_immval_0x80>:
I_sltiu_cg_cr_rs1_imm_edges_rs1val_0x2_immval_0x80:
  sltiu x22, x21, 128 # perform operation
    1214:	080abb13          	sltiu	x22,x21,128
  # Check if x22 contains the expected result. x12 is the signature ptr, x8 is the link ptr, x7 is a temp reg.
  RVTEST_SIGUPD(x12, x8, x7, x22, I_sltiu_cg_cr_rs1_imm_edges_rs1val_0x2_immval_0x80, I_sltiu_cg_cr_rs1_imm_edges_rs1val_0x2_immval_0x80_str)
    1218:	00062383          	lw	x7,0(x12)
    121c:	01638863          	beq	x7,x22,122c <I_sltiu_cg_cr_rs1_imm_edges_rs1val_0x2_immval_0x80+0x18>
    1220:	2940246f          	jal	x8,34b4 <failedtest_x8_x7>
    1224:	00001214          	.word	0x00001214
    1228:	0000a4e1          	.word	0x0000a4e1
    122c:	00460613          	addi	x12,x12,4

# Testcase cr_rs1_imm_edges (rs1 = 0x00000002, imm = 256)
  RVTEST_TESTDATA_LOAD_INT(x1, x5) # load rs1: x5 = 0x00000002
    1230:	0000a283          	lw	x5,0(x1)
    1234:	00408093          	addi	x1,x1,4

00001238 <I_sltiu_cg_cr_rs1_imm_edges_rs1val_0x2_immval_0x100>:
I_sltiu_cg_cr_rs1_imm_edges_rs1val_0x2_immval_0x100:
  sltiu x27, x5, 256 # perform operation
    1238:	1002bd93          	sltiu	x27,x5,256
  # Check if x27 contains the expected result. x12 is the signature ptr, x8 is the link ptr, x7 is a temp reg.
  RVTEST_SIGUPD(x12, x8, x7, x27, I_sltiu_cg_cr_rs1_imm_edges_rs1val_0x2_immval_0x100, I_sltiu_cg_cr_rs1_imm_edges_rs1val_0x2_immval_0x100_str)
    123c:	00062383          	lw	x7,0(x12)
    1240:	01b38863          	beq	x7,x27,1250 <I_sltiu_cg_cr_rs1_imm_edges_rs1val_0x2_immval_0x100+0x18>
    1244:	2700246f          	jal	x8,34b4 <failedtest_x8_x7>
    1248:	00001238          	.word	0x00001238
    124c:	0000a531          	.word	0x0000a531
    1250:	00460613          	addi	x12,x12,4

# Testcase cr_rs1_imm_edges (rs1 = 0x00000002, imm = 512)
  RVTEST_TESTDATA_LOAD_INT(x1, x27) # load rs1: x27 = 0x00000002
    1254:	0000ad83          	lw	x27,0(x1)
    1258:	00408093          	addi	x1,x1,4

0000125c <I_sltiu_cg_cr_rs1_imm_edges_rs1val_0x2_immval_0x200>:
I_sltiu_cg_cr_rs1_imm_edges_rs1val_0x2_immval_0x200:
  sltiu x25, x27, 512 # perform operation
    125c:	200dbc93          	sltiu	x25,x27,512
  # Check if x25 contains the expected result. x12 is the signature ptr, x8 is the link ptr, x7 is a temp reg.
  RVTEST_SIGUPD(x12, x8, x7, x25, I_sltiu_cg_cr_rs1_imm_edges_rs1val_0x2_immval_0x200, I_sltiu_cg_cr_rs1_imm_edges_rs1val_0x2_immval_0x200_str)
    1260:	00062383          	lw	x7,0(x12)
    1264:	01938863          	beq	x7,x25,1274 <I_sltiu_cg_cr_rs1_imm_edges_rs1val_0x2_immval_0x200+0x18>
    1268:	24c0246f          	jal	x8,34b4 <failedtest_x8_x7>
    126c:	0000125c          	.word	0x0000125c
    1270:	0000a582          	.word	0x0000a582
    1274:	00460613          	addi	x12,x12,4

# Testcase cr_rs1_imm_edges (rs1 = 0x00000002, imm = 1023)
  RVTEST_TESTDATA_LOAD_INT(x1, x16) # load rs1: x16 = 0x00000002
    1278:	0000a803          	lw	x16,0(x1)
    127c:	00408093          	addi	x1,x1,4

00001280 <I_sltiu_cg_cr_rs1_imm_edges_rs1val_0x2_immval_0x3ff>:
I_sltiu_cg_cr_rs1_imm_edges_rs1val_0x2_immval_0x3ff:
  sltiu x20, x16, 1023 # perform operation
    1280:	3ff83a13          	sltiu	x20,x16,1023
  # Check if x20 contains the expected result. x12 is the signature ptr, x8 is the link ptr, x7 is a temp reg.
  RVTEST_SIGUPD(x12, x8, x7, x20, I_sltiu_cg_cr_rs1_imm_edges_rs1val_0x2_immval_0x3ff, I_sltiu_cg_cr_rs1_imm_edges_rs1val_0x2_immval_0x3ff_str)
    1284:	00062383          	lw	x7,0(x12)
    1288:	01438863          	beq	x7,x20,1298 <I_sltiu_cg_cr_rs1_imm_edges_rs1val_0x2_immval_0x3ff+0x18>
    128c:	2280246f          	jal	x8,34b4 <failedtest_x8_x7>
    1290:	00001280          	.word	0x00001280
    1294:	0000a5d3          	.word	0x0000a5d3
    1298:	00460613          	addi	x12,x12,4

# Testcase cr_rs1_imm_edges (rs1 = 0x00000002, imm = 1024)
  RVTEST_TESTDATA_LOAD_INT(x1, x3) # load rs1: x3 = 0x00000002
    129c:	0000a183          	lw	x3,0(x1)
    12a0:	00408093          	addi	x1,x1,4

000012a4 <I_sltiu_cg_cr_rs1_imm_edges_rs1val_0x2_immval_0x400>:
I_sltiu_cg_cr_rs1_imm_edges_rs1val_0x2_immval_0x400:
  sltiu x22, x3, 1024 # perform operation
    12a4:	4001bb13          	sltiu	x22,x3,1024
  # Check if x22 contains the expected result. x12 is the signature ptr, x8 is the link ptr, x7 is a temp reg.
  RVTEST_SIGUPD(x12, x8, x7, x22, I_sltiu_cg_cr_rs1_imm_edges_rs1val_0x2_immval_0x400, I_sltiu_cg_cr_rs1_imm_edges_rs1val_0x2_immval_0x400_str)
    12a8:	00062383          	lw	x7,0(x12)
    12ac:	01638863          	beq	x7,x22,12bc <I_sltiu_cg_cr_rs1_imm_edges_rs1val_0x2_immval_0x400+0x18>
    12b0:	2040246f          	jal	x8,34b4 <failedtest_x8_x7>
    12b4:	000012a4          	.word	0x000012a4
    12b8:	0000a624          	.word	0x0000a624
    12bc:	00460613          	addi	x12,x12,4

# Testcase cr_rs1_imm_edges (rs1 = 0x00000002, imm = 1795)
  RVTEST_TESTDATA_LOAD_INT(x1, x21) # load rs1: x21 = 0x00000002
    12c0:	0000aa83          	lw	x21,0(x1)
    12c4:	00408093          	addi	x1,x1,4

000012c8 <I_sltiu_cg_cr_rs1_imm_edges_rs1val_0x2_immval_0x703>:
I_sltiu_cg_cr_rs1_imm_edges_rs1val_0x2_immval_0x703:
  sltiu x3, x21, 1795 # perform operation
    12c8:	703ab193          	sltiu	x3,x21,1795
  # Check if x3 contains the expected result. x12 is the signature ptr, x8 is the link ptr, x7 is a temp reg.
  RVTEST_SIGUPD(x12, x8, x7, x3, I_sltiu_cg_cr_rs1_imm_edges_rs1val_0x2_immval_0x703, I_sltiu_cg_cr_rs1_imm_edges_rs1val_0x2_immval_0x703_str)
    12cc:	00062383          	lw	x7,0(x12)
    12d0:	00338863          	beq	x7,x3,12e0 <I_sltiu_cg_cr_rs1_imm_edges_rs1val_0x2_immval_0x703+0x18>
    12d4:	1e00246f          	jal	x8,34b4 <failedtest_x8_x7>
    12d8:	000012c8          	.word	0x000012c8
    12dc:	0000a675          	.word	0x0000a675
    12e0:	00460613          	addi	x12,x12,4

# Testcase cr_rs1_imm_edges (rs1 = 0x00000002, imm = 2047)
  RVTEST_TESTDATA_LOAD_INT(x1, x22) # load rs1: x22 = 0x00000002
    12e4:	0000ab03          	lw	x22,0(x1)
    12e8:	00408093          	addi	x1,x1,4

000012ec <I_sltiu_cg_cr_rs1_imm_edges_rs1val_0x2_immval_0x7ff>:
I_sltiu_cg_cr_rs1_imm_edges_rs1val_0x2_immval_0x7ff:
  sltiu x31, x22, 2047 # perform operation
    12ec:	7ffb3f93          	sltiu	x31,x22,2047
  # Check if x31 contains the expected result. x12 is the signature ptr, x8 is the link ptr, x7 is a temp reg.
  RVTEST_SIGUPD(x12, x8, x7, x31, I_sltiu_cg_cr_rs1_imm_edges_rs1val_0x2_immval_0x7ff, I_sltiu_cg_cr_rs1_imm_edges_rs1val_0x2_immval_0x7ff_str)
    12f0:	00062383          	lw	x7,0(x12)
    12f4:	01f38863          	beq	x7,x31,1304 <I_sltiu_cg_cr_rs1_imm_edges_rs1val_0x2_immval_0x7ff+0x18>
    12f8:	1bc0246f          	jal	x8,34b4 <failedtest_x8_x7>
    12fc:	000012ec          	.word	0x000012ec
    1300:	0000a6c6          	.word	0x0000a6c6
    1304:	00460613          	addi	x12,x12,4

# Testcase cr_rs1_imm_edges (rs1 = 0x00000002, imm = -2048)
  RVTEST_TESTDATA_LOAD_INT(x1, x13) # load rs1: x13 = 0x00000002
    1308:	0000a683          	lw	x13,0(x1)
    130c:	00408093          	addi	x1,x1,4

00001310 <I_sltiu_cg_cr_rs1_imm_edges_rs1val_0x2_immval_m0x800>:
I_sltiu_cg_cr_rs1_imm_edges_rs1val_0x2_immval_m0x800:
  sltiu x25, x13, -2048 # perform operation
    1310:	8006bc93          	sltiu	x25,x13,-2048
  # Check if x25 contains the expected result. x12 is the signature ptr, x8 is the link ptr, x7 is a temp reg.
  RVTEST_SIGUPD(x12, x8, x7, x25, I_sltiu_cg_cr_rs1_imm_edges_rs1val_0x2_immval_m0x800, I_sltiu_cg_cr_rs1_imm_edges_rs1val_0x2_immval_m0x800_str)
    1314:	00062383          	lw	x7,0(x12)
    1318:	01938863          	beq	x7,x25,1328 <I_sltiu_cg_cr_rs1_imm_edges_rs1val_0x2_immval_m0x800+0x18>
    131c:	1980246f          	jal	x8,34b4 <failedtest_x8_x7>
    1320:	00001310          	.word	0x00001310
    1324:	0000a717          	.word	0x0000a717
    1328:	00460613          	addi	x12,x12,4

# Testcase cr_rs1_imm_edges (rs1 = 0x00000002, imm = -2047)
  RVTEST_TESTDATA_LOAD_INT(x1, x11) # load rs1: x11 = 0x00000002
    132c:	0000a583          	lw	x11,0(x1)
    1330:	00408093          	addi	x1,x1,4

00001334 <I_sltiu_cg_cr_rs1_imm_edges_rs1val_0x2_immval_m0x7ff>:
I_sltiu_cg_cr_rs1_imm_edges_rs1val_0x2_immval_m0x7ff:
  sltiu x31, x11, -2047 # perform operation
    1334:	8015bf93          	sltiu	x31,x11,-2047
  # Check if x31 contains the expected result. x12 is the signature ptr, x8 is the link ptr, x7 is a temp reg.
  RVTEST_SIGUPD(x12, x8, x7, x31, I_sltiu_cg_cr_rs1_imm_edges_rs1val_0x2_immval_m0x7ff, I_sltiu_cg_cr_rs1_imm_edges_rs1val_0x2_immval_m0x7ff_str)
    1338:	00062383          	lw	x7,0(x12)
    133c:	01f38863          	beq	x7,x31,134c <I_sltiu_cg_cr_rs1_imm_edges_rs1val_0x2_immval_m0x7ff+0x18>
    1340:	1740246f          	jal	x8,34b4 <failedtest_x8_x7>
    1344:	00001334          	.word	0x00001334
    1348:	0000a769          	.word	0x0000a769
    134c:	00460613          	addi	x12,x12,4

# Testcase cr_rs1_imm_edges (rs1 = 0x00000002, imm = -2)
  RVTEST_TESTDATA_LOAD_INT(x1, x3) # load rs1: x3 = 0x00000002
    1350:	0000a183          	lw	x3,0(x1)
    1354:	00408093          	addi	x1,x1,4

00001358 <I_sltiu_cg_cr_rs1_imm_edges_rs1val_0x2_immval_m0x2>:
I_sltiu_cg_cr_rs1_imm_edges_rs1val_0x2_immval_m0x2:
  sltiu x16, x3, -2 # perform operation
    1358:	ffe1b813          	sltiu	x16,x3,-2
  # Check if x16 contains the expected result. x12 is the signature ptr, x8 is the link ptr, x7 is a temp reg.
  RVTEST_SIGUPD(x12, x8, x7, x16, I_sltiu_cg_cr_rs1_imm_edges_rs1val_0x2_immval_m0x2, I_sltiu_cg_cr_rs1_imm_edges_rs1val_0x2_immval_m0x2_str)
    135c:	00062383          	lw	x7,0(x12)
    1360:	01038863          	beq	x7,x16,1370 <I_sltiu_cg_cr_rs1_imm_edges_rs1val_0x2_immval_m0x2+0x18>
    1364:	1500246f          	jal	x8,34b4 <failedtest_x8_x7>
    1368:	00001358          	.word	0x00001358
    136c:	0000a7bb          	.word	0x0000a7bb
    1370:	00460613          	addi	x12,x12,4

# Testcase cr_rs1_imm_edges (rs1 = 0x00000002, imm = -1)
  RVTEST_TESTDATA_LOAD_INT(x1, x19) # load rs1: x19 = 0x00000002
    1374:	0000a983          	lw	x19,0(x1)
    1378:	00408093          	addi	x1,x1,4

0000137c <I_sltiu_cg_cr_rs1_imm_edges_rs1val_0x2_immval_m0x1>:
I_sltiu_cg_cr_rs1_imm_edges_rs1val_0x2_immval_m0x1:
  sltiu x21, x19, -1 # perform operation
    137c:	fff9ba93          	sltiu	x21,x19,-1
  # Check if x21 contains the expected result. x12 is the signature ptr, x8 is the link ptr, x7 is a temp reg.
  RVTEST_SIGUPD(x12, x8, x7, x21, I_sltiu_cg_cr_rs1_imm_edges_rs1val_0x2_immval_m0x1, I_sltiu_cg_cr_rs1_imm_edges_rs1val_0x2_immval_m0x1_str)
    1380:	00062383          	lw	x7,0(x12)
    1384:	01538863          	beq	x7,x21,1394 <I_sltiu_cg_cr_rs1_imm_edges_rs1val_0x2_immval_m0x1+0x18>
    1388:	12c0246f          	jal	x8,34b4 <failedtest_x8_x7>
    138c:	0000137c          	.word	0x0000137c
    1390:	0000a80b          	.word	0x0000a80b
    1394:	00460613          	addi	x12,x12,4

# Testcase cr_rs1_imm_edges (rs1 = 0x80000000, imm = 0)
  RVTEST_TESTDATA_LOAD_INT(x1, x28) # load rs1: x28 = 0x80000000
    1398:	0000ae03          	lw	x28,0(x1)
    139c:	00408093          	addi	x1,x1,4

000013a0 <I_sltiu_cg_cr_rs1_imm_edges_rs1val_0x80000000_immval_0x0>:
I_sltiu_cg_cr_rs1_imm_edges_rs1val_0x80000000_immval_0x0:
  sltiu x13, x28, 0 # perform operation
    13a0:	000e3693          	sltiu	x13,x28,0
  # Check if x13 contains the expected result. x12 is the signature ptr, x8 is the link ptr, x7 is a temp reg.
  RVTEST_SIGUPD(x12, x8, x7, x13, I_sltiu_cg_cr_rs1_imm_edges_rs1val_0x80000000_immval_0x0, I_sltiu_cg_cr_rs1_imm_edges_rs1val_0x80000000_immval_0x0_str)
    13a4:	00062383          	lw	x7,0(x12)
    13a8:	00d38863          	beq	x7,x13,13b8 <I_sltiu_cg_cr_rs1_imm_edges_rs1val_0x80000000_immval_0x0+0x18>
    13ac:	1080246f          	jal	x8,34b4 <failedtest_x8_x7>
    13b0:	000013a0          	.word	0x000013a0
    13b4:	0000a85b          	.word	0x0000a85b
    13b8:	00460613          	addi	x12,x12,4

# Testcase cr_rs1_imm_edges (rs1 = 0x80000000, imm = 1)
  RVTEST_TESTDATA_LOAD_INT(x1, x18) # load rs1: x18 = 0x80000000
    13bc:	0000a903          	lw	x18,0(x1)
    13c0:	00408093          	addi	x1,x1,4

000013c4 <I_sltiu_cg_cr_rs1_imm_edges_rs1val_0x80000000_immval_0x1>:
I_sltiu_cg_cr_rs1_imm_edges_rs1val_0x80000000_immval_0x1:
  sltiu x23, x18, 1 # perform operation
    13c4:	00193b93          	sltiu	x23,x18,1
  # Check if x23 contains the expected result. x12 is the signature ptr, x8 is the link ptr, x7 is a temp reg.
  RVTEST_SIGUPD(x12, x8, x7, x23, I_sltiu_cg_cr_rs1_imm_edges_rs1val_0x80000000_immval_0x1, I_sltiu_cg_cr_rs1_imm_edges_rs1val_0x80000000_immval_0x1_str)
    13c8:	00062383          	lw	x7,0(x12)
    13cc:	01738863          	beq	x7,x23,13dc <I_sltiu_cg_cr_rs1_imm_edges_rs1val_0x80000000_immval_0x1+0x18>
    13d0:	0e40246f          	jal	x8,34b4 <failedtest_x8_x7>
    13d4:	000013c4          	.word	0x000013c4
    13d8:	0000a8b1          	.word	0x0000a8b1
    13dc:	00460613          	addi	x12,x12,4

# Testcase cr_rs1_imm_edges (rs1 = 0x80000000, imm = 2)
  RVTEST_TESTDATA_LOAD_INT(x1, x27) # load rs1: x27 = 0x80000000
    13e0:	0000ad83          	lw	x27,0(x1)
    13e4:	00408093          	addi	x1,x1,4

000013e8 <I_sltiu_cg_cr_rs1_imm_edges_rs1val_0x80000000_immval_0x2>:
I_sltiu_cg_cr_rs1_imm_edges_rs1val_0x80000000_immval_0x2:
  sltiu x14, x27, 2 # perform operation
    13e8:	002db713          	sltiu	x14,x27,2
  # Check if x14 contains the expected result. x12 is the signature ptr, x8 is the link ptr, x7 is a temp reg.
  RVTEST_SIGUPD(x12, x8, x7, x14, I_sltiu_cg_cr_rs1_imm_edges_rs1val_0x80000000_immval_0x2, I_sltiu_cg_cr_rs1_imm_edges_rs1val_0x80000000_immval_0x2_str)
    13ec:	00062383          	lw	x7,0(x12)
    13f0:	00e38863          	beq	x7,x14,1400 <I_sltiu_cg_cr_rs1_imm_edges_rs1val_0x80000000_immval_0x2+0x18>
    13f4:	0c00246f          	jal	x8,34b4 <failedtest_x8_x7>
    13f8:	000013e8          	.word	0x000013e8
    13fc:	0000a907          	.word	0x0000a907
    1400:	00460613          	addi	x12,x12,4

# Testcase cr_rs1_imm_edges (rs1 = 0x80000000, imm = 3)
  RVTEST_TESTDATA_LOAD_INT(x1, x26) # load rs1: x26 = 0x80000000
    1404:	0000ad03          	lw	x26,0(x1)
    1408:	00408093          	addi	x1,x1,4

0000140c <I_sltiu_cg_cr_rs1_imm_edges_rs1val_0x80000000_immval_0x3>:
I_sltiu_cg_cr_rs1_imm_edges_rs1val_0x80000000_immval_0x3:
  sltiu x30, x26, 3 # perform operation
    140c:	003d3f13          	sltiu	x30,x26,3
  # Check if x30 contains the expected result. x12 is the signature ptr, x8 is the link ptr, x7 is a temp reg.
  RVTEST_SIGUPD(x12, x8, x7, x30, I_sltiu_cg_cr_rs1_imm_edges_rs1val_0x80000000_immval_0x3, I_sltiu_cg_cr_rs1_imm_edges_rs1val_0x80000000_immval_0x3_str)
    1410:	00062383          	lw	x7,0(x12)
    1414:	01e38863          	beq	x7,x30,1424 <I_sltiu_cg_cr_rs1_imm_edges_rs1val_0x80000000_immval_0x3+0x18>
    1418:	09c0246f          	jal	x8,34b4 <failedtest_x8_x7>
    141c:	0000140c          	.word	0x0000140c
    1420:	0000a95d          	.word	0x0000a95d
    1424:	00460613          	addi	x12,x12,4

# Testcase cr_rs1_imm_edges (rs1 = 0x80000000, imm = 4)
  RVTEST_TESTDATA_LOAD_INT(x1, x9) # load rs1: x9 = 0x80000000
    1428:	0000a483          	lw	x9,0(x1)
    142c:	00408093          	addi	x1,x1,4

00001430 <I_sltiu_cg_cr_rs1_imm_edges_rs1val_0x80000000_immval_0x4>:
I_sltiu_cg_cr_rs1_imm_edges_rs1val_0x80000000_immval_0x4:
  sltiu x26, x9, 4 # perform operation
    1430:	0044bd13          	sltiu	x26,x9,4
  # Check if x26 contains the expected result. x12 is the signature ptr, x8 is the link ptr, x7 is a temp reg.
  RVTEST_SIGUPD(x12, x8, x7, x26, I_sltiu_cg_cr_rs1_imm_edges_rs1val_0x80000000_immval_0x4, I_sltiu_cg_cr_rs1_imm_edges_rs1val_0x80000000_immval_0x4_str)
    1434:	00062383          	lw	x7,0(x12)
    1438:	01a38863          	beq	x7,x26,1448 <I_sltiu_cg_cr_rs1_imm_edges_rs1val_0x80000000_immval_0x4+0x18>
    143c:	0780246f          	jal	x8,34b4 <failedtest_x8_x7>
    1440:	00001430          	.word	0x00001430
    1444:	0000a9b3          	.word	0x0000a9b3
    1448:	00460613          	addi	x12,x12,4

# Testcase cr_rs1_imm_edges (rs1 = 0x80000000, imm = 8)
  RVTEST_TESTDATA_LOAD_INT(x1, x6) # load rs1: x6 = 0x80000000
    144c:	0000a303          	lw	x6,0(x1)
    1450:	00408093          	addi	x1,x1,4

00001454 <I_sltiu_cg_cr_rs1_imm_edges_rs1val_0x80000000_immval_0x8>:
I_sltiu_cg_cr_rs1_imm_edges_rs1val_0x80000000_immval_0x8:
  sltiu x15, x6, 8 # perform operation
    1454:	00833793          	sltiu	x15,x6,8
  # Check if x15 contains the expected result. x12 is the signature ptr, x8 is the link ptr, x7 is a temp reg.
  RVTEST_SIGUPD(x12, x8, x7, x15, I_sltiu_cg_cr_rs1_imm_edges_rs1val_0x80000000_immval_0x8, I_sltiu_cg_cr_rs1_imm_edges_rs1val_0x80000000_immval_0x8_str)
    1458:	00062383          	lw	x7,0(x12)
    145c:	00f38863          	beq	x7,x15,146c <I_sltiu_cg_cr_rs1_imm_edges_rs1val_0x80000000_immval_0x8+0x18>
    1460:	0540246f          	jal	x8,34b4 <failedtest_x8_x7>
    1464:	00001454          	.word	0x00001454
    1468:	0000aa09          	.word	0x0000aa09
    146c:	00460613          	addi	x12,x12,4

# Testcase cr_rs1_imm_edges (rs1 = 0x80000000, imm = 16)
  RVTEST_TESTDATA_LOAD_INT(x1, x6) # load rs1: x6 = 0x80000000
    1470:	0000a303          	lw	x6,0(x1)
    1474:	00408093          	addi	x1,x1,4

00001478 <I_sltiu_cg_cr_rs1_imm_edges_rs1val_0x80000000_immval_0x10>:
I_sltiu_cg_cr_rs1_imm_edges_rs1val_0x80000000_immval_0x10:
  sltiu x30, x6, 16 # perform operation
    1478:	01033f13          	sltiu	x30,x6,16
  # Check if x30 contains the expected result. x12 is the signature ptr, x8 is the link ptr, x7 is a temp reg.
  RVTEST_SIGUPD(x12, x8, x7, x30, I_sltiu_cg_cr_rs1_imm_edges_rs1val_0x80000000_immval_0x10, I_sltiu_cg_cr_rs1_imm_edges_rs1val_0x80000000_immval_0x10_str)
    147c:	00062383          	lw	x7,0(x12)
    1480:	01e38863          	beq	x7,x30,1490 <I_sltiu_cg_cr_rs1_imm_edges_rs1val_0x80000000_immval_0x10+0x18>
    1484:	0300246f          	jal	x8,34b4 <failedtest_x8_x7>
    1488:	00001478          	.word	0x00001478
    148c:	0000aa5f          	.word	0x0000aa5f
    1490:	00460613          	addi	x12,x12,4

# Testcase cr_rs1_imm_edges (rs1 = 0x80000000, imm = 32)
  RVTEST_TESTDATA_LOAD_INT(x1, x16) # load rs1: x16 = 0x80000000
    1494:	0000a803          	lw	x16,0(x1)
    1498:	00408093          	addi	x1,x1,4

0000149c <I_sltiu_cg_cr_rs1_imm_edges_rs1val_0x80000000_immval_0x20>:
I_sltiu_cg_cr_rs1_imm_edges_rs1val_0x80000000_immval_0x20:
  sltiu x2, x16, 32 # perform operation
    149c:	02083113          	sltiu	x2,x16,32
  # Check if x2 contains the expected result. x12 is the signature ptr, x8 is the link ptr, x7 is a temp reg.
  RVTEST_SIGUPD(x12, x8, x7, x2, I_sltiu_cg_cr_rs1_imm_edges_rs1val_0x80000000_immval_0x20, I_sltiu_cg_cr_rs1_imm_edges_rs1val_0x80000000_immval_0x20_str)
    14a0:	00062383          	lw	x7,0(x12)
    14a4:	00238863          	beq	x7,x2,14b4 <I_sltiu_cg_cr_rs1_imm_edges_rs1val_0x80000000_immval_0x20+0x18>
    14a8:	00c0246f          	jal	x8,34b4 <failedtest_x8_x7>
    14ac:	0000149c          	.word	0x0000149c
    14b0:	0000aab6          	.word	0x0000aab6
    14b4:	00460613          	addi	x12,x12,4

# Testcase cr_rs1_imm_edges (rs1 = 0x80000000, imm = 64)
  RVTEST_TESTDATA_LOAD_INT(x1, x4) # load rs1: x4 = 0x80000000
    14b8:	0000a203          	lw	x4,0(x1)
    14bc:	00408093          	addi	x1,x1,4

000014c0 <I_sltiu_cg_cr_rs1_imm_edges_rs1val_0x80000000_immval_0x40>:
I_sltiu_cg_cr_rs1_imm_edges_rs1val_0x80000000_immval_0x40:
  sltiu x31, x4, 64 # perform operation
    14c0:	04023f93          	sltiu	x31,x4,64
  # Check if x31 contains the expected result. x12 is the signature ptr, x8 is the link ptr, x7 is a temp reg.
  RVTEST_SIGUPD(x12, x8, x7, x31, I_sltiu_cg_cr_rs1_imm_edges_rs1val_0x80000000_immval_0x40, I_sltiu_cg_cr_rs1_imm_edges_rs1val_0x80000000_immval_0x40_str)
    14c4:	00062383          	lw	x7,0(x12)
    14c8:	01f38863          	beq	x7,x31,14d8 <I_sltiu_cg_cr_rs1_imm_edges_rs1val_0x80000000_immval_0x40+0x18>
    14cc:	7e90146f          	jal	x8,34b4 <failedtest_x8_x7>
    14d0:	000014c0          	.word	0x000014c0
    14d4:	0000ab0d          	.word	0x0000ab0d
    14d8:	00460613          	addi	x12,x12,4

# Testcase cr_rs1_imm_edges (rs1 = 0x80000000, imm = 128)
  RVTEST_TESTDATA_LOAD_INT(x1, x14) # load rs1: x14 = 0x80000000
    14dc:	0000a703          	lw	x14,0(x1)
    14e0:	00408093          	addi	x1,x1,4

000014e4 <I_sltiu_cg_cr_rs1_imm_edges_rs1val_0x80000000_immval_0x80>:
I_sltiu_cg_cr_rs1_imm_edges_rs1val_0x80000000_immval_0x80:
  sltiu x26, x14, 128 # perform operation
    14e4:	08073d13          	sltiu	x26,x14,128
  # Check if x26 contains the expected result. x12 is the signature ptr, x8 is the link ptr, x7 is a temp reg.
  RVTEST_SIGUPD(x12, x8, x7, x26, I_sltiu_cg_cr_rs1_imm_edges_rs1val_0x80000000_immval_0x80, I_sltiu_cg_cr_rs1_imm_edges_rs1val_0x80000000_immval_0x80_str)
    14e8:	00062383          	lw	x7,0(x12)
    14ec:	01a38863          	beq	x7,x26,14fc <I_sltiu_cg_cr_rs1_imm_edges_rs1val_0x80000000_immval_0x80+0x18>
    14f0:	7c50146f          	jal	x8,34b4 <failedtest_x8_x7>
    14f4:	000014e4          	.word	0x000014e4
    14f8:	0000ab64          	.word	0x0000ab64
    14fc:	00460613          	addi	x12,x12,4

# Testcase cr_rs1_imm_edges (rs1 = 0x80000000, imm = 256)
  RVTEST_TESTDATA_LOAD_INT(x1, x6) # load rs1: x6 = 0x80000000
    1500:	0000a303          	lw	x6,0(x1)
    1504:	00408093          	addi	x1,x1,4

00001508 <I_sltiu_cg_cr_rs1_imm_edges_rs1val_0x80000000_immval_0x100>:
I_sltiu_cg_cr_rs1_imm_edges_rs1val_0x80000000_immval_0x100:
  sltiu x22, x6, 256 # perform operation
    1508:	10033b13          	sltiu	x22,x6,256
  # Check if x22 contains the expected result. x12 is the signature ptr, x8 is the link ptr, x7 is a temp reg.
  RVTEST_SIGUPD(x12, x8, x7, x22, I_sltiu_cg_cr_rs1_imm_edges_rs1val_0x80000000_immval_0x100, I_sltiu_cg_cr_rs1_imm_edges_rs1val_0x80000000_immval_0x100_str)
    150c:	00062383          	lw	x7,0(x12)
    1510:	01638863          	beq	x7,x22,1520 <I_sltiu_cg_cr_rs1_imm_edges_rs1val_0x80000000_immval_0x100+0x18>
    1514:	7a10146f          	jal	x8,34b4 <failedtest_x8_x7>
    1518:	00001508          	.word	0x00001508
    151c:	0000abbb          	.word	0x0000abbb
    1520:	00460613          	addi	x12,x12,4

# Testcase cr_rs1_imm_edges (rs1 = 0x80000000, imm = 512)
  RVTEST_TESTDATA_LOAD_INT(x1, x23) # load rs1: x23 = 0x80000000
    1524:	0000ab83          	lw	x23,0(x1)
    1528:	00408093          	addi	x1,x1,4

0000152c <I_sltiu_cg_cr_rs1_imm_edges_rs1val_0x80000000_immval_0x200>:
I_sltiu_cg_cr_rs1_imm_edges_rs1val_0x80000000_immval_0x200:
  sltiu x15, x23, 512 # perform operation
    152c:	200bb793          	sltiu	x15,x23,512
  # Check if x15 contains the expected result. x12 is the signature ptr, x8 is the link ptr, x7 is a temp reg.
  RVTEST_SIGUPD(x12, x8, x7, x15, I_sltiu_cg_cr_rs1_imm_edges_rs1val_0x80000000_immval_0x200, I_sltiu_cg_cr_rs1_imm_edges_rs1val_0x80000000_immval_0x200_str)
    1530:	00062383          	lw	x7,0(x12)
    1534:	00f38863          	beq	x7,x15,1544 <I_sltiu_cg_cr_rs1_imm_edges_rs1val_0x80000000_immval_0x200+0x18>
    1538:	77d0146f          	jal	x8,34b4 <failedtest_x8_x7>
    153c:	0000152c          	.word	0x0000152c
    1540:	0000ac13          	.word	0x0000ac13
    1544:	00460613          	addi	x12,x12,4

# Testcase cr_rs1_imm_edges (rs1 = 0x80000000, imm = 1023)
  RVTEST_TESTDATA_LOAD_INT(x1, x26) # load rs1: x26 = 0x80000000
    1548:	0000ad03          	lw	x26,0(x1)
    154c:	00408093          	addi	x1,x1,4

00001550 <I_sltiu_cg_cr_rs1_imm_edges_rs1val_0x80000000_immval_0x3ff>:
I_sltiu_cg_cr_rs1_imm_edges_rs1val_0x80000000_immval_0x3ff:
  sltiu x29, x26, 1023 # perform operation
    1550:	3ffd3e93          	sltiu	x29,x26,1023
  # Check if x29 contains the expected result. x12 is the signature ptr, x8 is the link ptr, x7 is a temp reg.
  RVTEST_SIGUPD(x12, x8, x7, x29, I_sltiu_cg_cr_rs1_imm_edges_rs1val_0x80000000_immval_0x3ff, I_sltiu_cg_cr_rs1_imm_edges_rs1val_0x80000000_immval_0x3ff_str)
    1554:	00062383          	lw	x7,0(x12)
    1558:	01d38863          	beq	x7,x29,1568 <I_sltiu_cg_cr_rs1_imm_edges_rs1val_0x80000000_immval_0x3ff+0x18>
    155c:	7590146f          	jal	x8,34b4 <failedtest_x8_x7>
    1560:	00001550          	.word	0x00001550
    1564:	0000ac6b          	.word	0x0000ac6b
    1568:	00460613          	addi	x12,x12,4

# Testcase cr_rs1_imm_edges (rs1 = 0x80000000, imm = 1024)
  RVTEST_TESTDATA_LOAD_INT(x1, x6) # load rs1: x6 = 0x80000000
    156c:	0000a303          	lw	x6,0(x1)
    1570:	00408093          	addi	x1,x1,4

00001574 <I_sltiu_cg_cr_rs1_imm_edges_rs1val_0x80000000_immval_0x400>:
I_sltiu_cg_cr_rs1_imm_edges_rs1val_0x80000000_immval_0x400:
  sltiu x21, x6, 1024 # perform operation
    1574:	40033a93          	sltiu	x21,x6,1024
  # Check if x21 contains the expected result. x12 is the signature ptr, x8 is the link ptr, x7 is a temp reg.
  RVTEST_SIGUPD(x12, x8, x7, x21, I_sltiu_cg_cr_rs1_imm_edges_rs1val_0x80000000_immval_0x400, I_sltiu_cg_cr_rs1_imm_edges_rs1val_0x80000000_immval_0x400_str)
    1578:	00062383          	lw	x7,0(x12)
    157c:	01538863          	beq	x7,x21,158c <I_sltiu_cg_cr_rs1_imm_edges_rs1val_0x80000000_immval_0x400+0x18>
    1580:	7350146f          	jal	x8,34b4 <failedtest_x8_x7>
    1584:	00001574          	.word	0x00001574
    1588:	0000acc3          	.word	0x0000acc3
    158c:	00460613          	addi	x12,x12,4

# Testcase cr_rs1_imm_edges (rs1 = 0x80000000, imm = 1795)
  RVTEST_TESTDATA_LOAD_INT(x1, x23) # load rs1: x23 = 0x80000000
    1590:	0000ab83          	lw	x23,0(x1)
    1594:	00408093          	addi	x1,x1,4

00001598 <I_sltiu_cg_cr_rs1_imm_edges_rs1val_0x80000000_immval_0x703>:
I_sltiu_cg_cr_rs1_imm_edges_rs1val_0x80000000_immval_0x703:
  sltiu x6, x23, 1795 # perform operation
    1598:	703bb313          	sltiu	x6,x23,1795
  # Check if x6 contains the expected result. x12 is the signature ptr, x8 is the link ptr, x7 is a temp reg.
  RVTEST_SIGUPD(x12, x8, x7, x6, I_sltiu_cg_cr_rs1_imm_edges_rs1val_0x80000000_immval_0x703, I_sltiu_cg_cr_rs1_imm_edges_rs1val_0x80000000_immval_0x703_str)
    159c:	00062383          	lw	x7,0(x12)
    15a0:	00638863          	beq	x7,x6,15b0 <I_sltiu_cg_cr_rs1_imm_edges_rs1val_0x80000000_immval_0x703+0x18>
    15a4:	7110146f          	jal	x8,34b4 <failedtest_x8_x7>
    15a8:	00001598          	.word	0x00001598
    15ac:	0000ad1b          	.word	0x0000ad1b
    15b0:	00460613          	addi	x12,x12,4

# Testcase cr_rs1_imm_edges (rs1 = 0x80000000, imm = 2047)
  RVTEST_TESTDATA_LOAD_INT(x1, x16) # load rs1: x16 = 0x80000000
    15b4:	0000a803          	lw	x16,0(x1)
    15b8:	00408093          	addi	x1,x1,4

000015bc <I_sltiu_cg_cr_rs1_imm_edges_rs1val_0x80000000_immval_0x7ff>:
I_sltiu_cg_cr_rs1_imm_edges_rs1val_0x80000000_immval_0x7ff:
  sltiu x11, x16, 2047 # perform operation
    15bc:	7ff83593          	sltiu	x11,x16,2047
  # Check if x11 contains the expected result. x12 is the signature ptr, x8 is the link ptr, x7 is a temp reg.
  RVTEST_SIGUPD(x12, x8, x7, x11, I_sltiu_cg_cr_rs1_imm_edges_rs1val_0x80000000_immval_0x7ff, I_sltiu_cg_cr_rs1_imm_edges_rs1val_0x80000000_immval_0x7ff_str)
    15c0:	00062383          	lw	x7,0(x12)
    15c4:	00b38863          	beq	x7,x11,15d4 <I_sltiu_cg_cr_rs1_imm_edges_rs1val_0x80000000_immval_0x7ff+0x18>
    15c8:	6ed0146f          	jal	x8,34b4 <failedtest_x8_x7>
    15cc:	000015bc          	.word	0x000015bc
    15d0:	0000ad73          	.word	0x0000ad73
    15d4:	00460613          	addi	x12,x12,4

# Testcase cr_rs1_imm_edges (rs1 = 0x80000000, imm = -2048)
  RVTEST_TESTDATA_LOAD_INT(x1, x15) # load rs1: x15 = 0x80000000
    15d8:	0000a783          	lw	x15,0(x1)
    15dc:	00408093          	addi	x1,x1,4

000015e0 <I_sltiu_cg_cr_rs1_imm_edges_rs1val_0x80000000_immval_m0x800>:
I_sltiu_cg_cr_rs1_imm_edges_rs1val_0x80000000_immval_m0x800:
  sltiu x19, x15, -2048 # perform operation
    15e0:	8007b993          	sltiu	x19,x15,-2048
  # Check if x19 contains the expected result. x12 is the signature ptr, x8 is the link ptr, x7 is a temp reg.
  RVTEST_SIGUPD(x12, x8, x7, x19, I_sltiu_cg_cr_rs1_imm_edges_rs1val_0x80000000_immval_m0x800, I_sltiu_cg_cr_rs1_imm_edges_rs1val_0x80000000_immval_m0x800_str)
    15e4:	00062383          	lw	x7,0(x12)
    15e8:	01338863          	beq	x7,x19,15f8 <I_sltiu_cg_cr_rs1_imm_edges_rs1val_0x80000000_immval_m0x800+0x18>
    15ec:	6c90146f          	jal	x8,34b4 <failedtest_x8_x7>
    15f0:	000015e0          	.word	0x000015e0
    15f4:	0000adcb          	.word	0x0000adcb
    15f8:	00460613          	addi	x12,x12,4

# Testcase cr_rs1_imm_edges (rs1 = 0x80000000, imm = -2047)
  RVTEST_TESTDATA_LOAD_INT(x1, x17) # load rs1: x17 = 0x80000000
    15fc:	0000a883          	lw	x17,0(x1)
    1600:	00408093          	addi	x1,x1,4

00001604 <I_sltiu_cg_cr_rs1_imm_edges_rs1val_0x80000000_immval_m0x7ff>:
I_sltiu_cg_cr_rs1_imm_edges_rs1val_0x80000000_immval_m0x7ff:
  sltiu x31, x17, -2047 # perform operation
    1604:	8018bf93          	sltiu	x31,x17,-2047
  # Check if x31 contains the expected result. x12 is the signature ptr, x8 is the link ptr, x7 is a temp reg.
  RVTEST_SIGUPD(x12, x8, x7, x31, I_sltiu_cg_cr_rs1_imm_edges_rs1val_0x80000000_immval_m0x7ff, I_sltiu_cg_cr_rs1_imm_edges_rs1val_0x80000000_immval_m0x7ff_str)
    1608:	00062383          	lw	x7,0(x12)
    160c:	01f38863          	beq	x7,x31,161c <I_sltiu_cg_cr_rs1_imm_edges_rs1val_0x80000000_immval_m0x7ff+0x18>
    1610:	6a50146f          	jal	x8,34b4 <failedtest_x8_x7>
    1614:	00001604          	.word	0x00001604
    1618:	0000ae24          	.word	0x0000ae24
    161c:	00460613          	addi	x12,x12,4

# Testcase cr_rs1_imm_edges (rs1 = 0x80000000, imm = -2)
  RVTEST_TESTDATA_LOAD_INT(x1, x28) # load rs1: x28 = 0x80000000
    1620:	0000ae03          	lw	x28,0(x1)
    1624:	00408093          	addi	x1,x1,4

00001628 <I_sltiu_cg_cr_rs1_imm_edges_rs1val_0x80000000_immval_m0x2>:
I_sltiu_cg_cr_rs1_imm_edges_rs1val_0x80000000_immval_m0x2:
  sltiu x10, x28, -2 # perform operation
    1628:	ffee3513          	sltiu	x10,x28,-2
  # Check if x10 contains the expected result. x12 is the signature ptr, x8 is the link ptr, x7 is a temp reg.
  RVTEST_SIGUPD(x12, x8, x7, x10, I_sltiu_cg_cr_rs1_imm_edges_rs1val_0x80000000_immval_m0x2, I_sltiu_cg_cr_rs1_imm_edges_rs1val_0x80000000_immval_m0x2_str)
    162c:	00062383          	lw	x7,0(x12)
    1630:	00a38863          	beq	x7,x10,1640 <I_sltiu_cg_cr_rs1_imm_edges_rs1val_0x80000000_immval_m0x2+0x18>
    1634:	6810146f          	jal	x8,34b4 <failedtest_x8_x7>
    1638:	00001628          	.word	0x00001628
    163c:	0000ae7d          	.word	0x0000ae7d
    1640:	00460613          	addi	x12,x12,4

# Testcase cr_rs1_imm_edges (rs1 = 0x80000000, imm = -1)
  RVTEST_TESTDATA_LOAD_INT(x1, x24) # load rs1: x24 = 0x80000000
    1644:	0000ac03          	lw	x24,0(x1)
    1648:	00408093          	addi	x1,x1,4

0000164c <I_sltiu_cg_cr_rs1_imm_edges_rs1val_0x80000000_immval_m0x1>:
I_sltiu_cg_cr_rs1_imm_edges_rs1val_0x80000000_immval_m0x1:
  sltiu x22, x24, -1 # perform operation
    164c:	fffc3b13          	sltiu	x22,x24,-1
  # Check if x22 contains the expected result. x12 is the signature ptr, x8 is the link ptr, x7 is a temp reg.
  RVTEST_SIGUPD(x12, x8, x7, x22, I_sltiu_cg_cr_rs1_imm_edges_rs1val_0x80000000_immval_m0x1, I_sltiu_cg_cr_rs1_imm_edges_rs1val_0x80000000_immval_m0x1_str)
    1650:	00062383          	lw	x7,0(x12)
    1654:	01638863          	beq	x7,x22,1664 <I_sltiu_cg_cr_rs1_imm_edges_rs1val_0x80000000_immval_m0x1+0x18>
    1658:	65d0146f          	jal	x8,34b4 <failedtest_x8_x7>
    165c:	0000164c          	.word	0x0000164c
    1660:	0000aed4          	.word	0x0000aed4
    1664:	00460613          	addi	x12,x12,4

# Testcase cr_rs1_imm_edges (rs1 = 0x80000001, imm = 0)
  RVTEST_TESTDATA_LOAD_INT(x1, x4) # load rs1: x4 = 0x80000001
    1668:	0000a203          	lw	x4,0(x1)
    166c:	00408093          	addi	x1,x1,4

00001670 <I_sltiu_cg_cr_rs1_imm_edges_rs1val_0x80000001_immval_0x0>:
I_sltiu_cg_cr_rs1_imm_edges_rs1val_0x80000001_immval_0x0:
  sltiu x29, x4, 0 # perform operation
    1670:	00023e93          	sltiu	x29,x4,0
  # Check if x29 contains the expected result. x12 is the signature ptr, x8 is the link ptr, x7 is a temp reg.
  RVTEST_SIGUPD(x12, x8, x7, x29, I_sltiu_cg_cr_rs1_imm_edges_rs1val_0x80000001_immval_0x0, I_sltiu_cg_cr_rs1_imm_edges_rs1val_0x80000001_immval_0x0_str)
    1674:	00062383          	lw	x7,0(x12)
    1678:	01d38863          	beq	x7,x29,1688 <I_sltiu_cg_cr_rs1_imm_edges_rs1val_0x80000001_immval_0x0+0x18>
    167c:	6390146f          	jal	x8,34b4 <failedtest_x8_x7>
    1680:	00001670          	.word	0x00001670
    1684:	0000af2b          	.word	0x0000af2b
    1688:	00460613          	addi	x12,x12,4

# Testcase cr_rs1_imm_edges (rs1 = 0x80000001, imm = 1)
  RVTEST_TESTDATA_LOAD_INT(x1, x14) # load rs1: x14 = 0x80000001
    168c:	0000a703          	lw	x14,0(x1)
    1690:	00408093          	addi	x1,x1,4

00001694 <I_sltiu_cg_cr_rs1_imm_edges_rs1val_0x80000001_immval_0x1>:
I_sltiu_cg_cr_rs1_imm_edges_rs1val_0x80000001_immval_0x1:
  sltiu x6, x14, 1 # perform operation
    1694:	00173313          	sltiu	x6,x14,1
  # Check if x6 contains the expected result. x12 is the signature ptr, x8 is the link ptr, x7 is a temp reg.
  RVTEST_SIGUPD(x12, x8, x7, x6, I_sltiu_cg_cr_rs1_imm_edges_rs1val_0x80000001_immval_0x1, I_sltiu_cg_cr_rs1_imm_edges_rs1val_0x80000001_immval_0x1_str)
    1698:	00062383          	lw	x7,0(x12)
    169c:	00638863          	beq	x7,x6,16ac <I_sltiu_cg_cr_rs1_imm_edges_rs1val_0x80000001_immval_0x1+0x18>
    16a0:	6150146f          	jal	x8,34b4 <failedtest_x8_x7>
    16a4:	00001694          	.word	0x00001694
    16a8:	0000af81          	.word	0x0000af81
    16ac:	00460613          	addi	x12,x12,4

# Testcase cr_rs1_imm_edges (rs1 = 0x80000001, imm = 2)
  RVTEST_TESTDATA_LOAD_INT(x1, x9) # load rs1: x9 = 0x80000001
    16b0:	0000a483          	lw	x9,0(x1)
    16b4:	00408093          	addi	x1,x1,4

000016b8 <I_sltiu_cg_cr_rs1_imm_edges_rs1val_0x80000001_immval_0x2>:
I_sltiu_cg_cr_rs1_imm_edges_rs1val_0x80000001_immval_0x2:
  sltiu x29, x9, 2 # perform operation
    16b8:	0024be93          	sltiu	x29,x9,2
  # Check if x29 contains the expected result. x12 is the signature ptr, x8 is the link ptr, x7 is a temp reg.
  RVTEST_SIGUPD(x12, x8, x7, x29, I_sltiu_cg_cr_rs1_imm_edges_rs1val_0x80000001_immval_0x2, I_sltiu_cg_cr_rs1_imm_edges_rs1val_0x80000001_immval_0x2_str)
    16bc:	00062383          	lw	x7,0(x12)
    16c0:	01d38863          	beq	x7,x29,16d0 <I_sltiu_cg_cr_rs1_imm_edges_rs1val_0x80000001_immval_0x2+0x18>
    16c4:	5f10146f          	jal	x8,34b4 <failedtest_x8_x7>
    16c8:	000016b8          	.word	0x000016b8
    16cc:	0000afd7          	.word	0x0000afd7
    16d0:	00460613          	addi	x12,x12,4

# Testcase cr_rs1_imm_edges (rs1 = 0x80000001, imm = 3)
  RVTEST_TESTDATA_LOAD_INT(x1, x27) # load rs1: x27 = 0x80000001
    16d4:	0000ad83          	lw	x27,0(x1)
    16d8:	00408093          	addi	x1,x1,4

000016dc <I_sltiu_cg_cr_rs1_imm_edges_rs1val_0x80000001_immval_0x3>:
I_sltiu_cg_cr_rs1_imm_edges_rs1val_0x80000001_immval_0x3:
  sltiu x30, x27, 3 # perform operation
    16dc:	003dbf13          	sltiu	x30,x27,3
  # Check if x30 contains the expected result. x12 is the signature ptr, x8 is the link ptr, x7 is a temp reg.
  RVTEST_SIGUPD(x12, x8, x7, x30, I_sltiu_cg_cr_rs1_imm_edges_rs1val_0x80000001_immval_0x3, I_sltiu_cg_cr_rs1_imm_edges_rs1val_0x80000001_immval_0x3_str)
    16e0:	00062383          	lw	x7,0(x12)
    16e4:	01e38863          	beq	x7,x30,16f4 <I_sltiu_cg_cr_rs1_imm_edges_rs1val_0x80000001_immval_0x3+0x18>
    16e8:	5cd0146f          	jal	x8,34b4 <failedtest_x8_x7>
    16ec:	000016dc          	.word	0x000016dc
    16f0:	0000b02d          	.word	0x0000b02d
    16f4:	00460613          	addi	x12,x12,4

# Testcase cr_rs1_imm_edges (rs1 = 0x80000001, imm = 4)
  RVTEST_TESTDATA_LOAD_INT(x1, x28) # load rs1: x28 = 0x80000001
    16f8:	0000ae03          	lw	x28,0(x1)
    16fc:	00408093          	addi	x1,x1,4

00001700 <I_sltiu_cg_cr_rs1_imm_edges_rs1val_0x80000001_immval_0x4>:
I_sltiu_cg_cr_rs1_imm_edges_rs1val_0x80000001_immval_0x4:
  sltiu x26, x28, 4 # perform operation
    1700:	004e3d13          	sltiu	x26,x28,4
  # Check if x26 contains the expected result. x12 is the signature ptr, x8 is the link ptr, x7 is a temp reg.
  RVTEST_SIGUPD(x12, x8, x7, x26, I_sltiu_cg_cr_rs1_imm_edges_rs1val_0x80000001_immval_0x4, I_sltiu_cg_cr_rs1_imm_edges_rs1val_0x80000001_immval_0x4_str)
    1704:	00062383          	lw	x7,0(x12)
    1708:	01a38863          	beq	x7,x26,1718 <I_sltiu_cg_cr_rs1_imm_edges_rs1val_0x80000001_immval_0x4+0x18>
    170c:	5a90146f          	jal	x8,34b4 <failedtest_x8_x7>
    1710:	00001700          	.word	0x00001700
    1714:	0000b083          	.word	0x0000b083
    1718:	00460613          	addi	x12,x12,4

# Testcase cr_rs1_imm_edges (rs1 = 0x80000001, imm = 8)
  RVTEST_TESTDATA_LOAD_INT(x1, x26) # load rs1: x26 = 0x80000001
    171c:	0000ad03          	lw	x26,0(x1)
    1720:	00408093          	addi	x1,x1,4

00001724 <I_sltiu_cg_cr_rs1_imm_edges_rs1val_0x80000001_immval_0x8>:
I_sltiu_cg_cr_rs1_imm_edges_rs1val_0x80000001_immval_0x8:
  sltiu x10, x26, 8 # perform operation
    1724:	008d3513          	sltiu	x10,x26,8
  # Check if x10 contains the expected result. x12 is the signature ptr, x8 is the link ptr, x7 is a temp reg.
  RVTEST_SIGUPD(x12, x8, x7, x10, I_sltiu_cg_cr_rs1_imm_edges_rs1val_0x80000001_immval_0x8, I_sltiu_cg_cr_rs1_imm_edges_rs1val_0x80000001_immval_0x8_str)
    1728:	00062383          	lw	x7,0(x12)
    172c:	00a38863          	beq	x7,x10,173c <I_sltiu_cg_cr_rs1_imm_edges_rs1val_0x80000001_immval_0x8+0x18>
    1730:	5850146f          	jal	x8,34b4 <failedtest_x8_x7>
    1734:	00001724          	.word	0x00001724
    1738:	0000b0d9          	.word	0x0000b0d9
    173c:	00460613          	addi	x12,x12,4

# Testcase cr_rs1_imm_edges (rs1 = 0x80000001, imm = 16)
  RVTEST_TESTDATA_LOAD_INT(x1, x4) # load rs1: x4 = 0x80000001
    1740:	0000a203          	lw	x4,0(x1)
    1744:	00408093          	addi	x1,x1,4

00001748 <I_sltiu_cg_cr_rs1_imm_edges_rs1val_0x80000001_immval_0x10>:
I_sltiu_cg_cr_rs1_imm_edges_rs1val_0x80000001_immval_0x10:
  sltiu x19, x4, 16 # perform operation
    1748:	01023993          	sltiu	x19,x4,16
  # Check if x19 contains the expected result. x12 is the signature ptr, x8 is the link ptr, x7 is a temp reg.
  RVTEST_SIGUPD(x12, x8, x7, x19, I_sltiu_cg_cr_rs1_imm_edges_rs1val_0x80000001_immval_0x10, I_sltiu_cg_cr_rs1_imm_edges_rs1val_0x80000001_immval_0x10_str)
    174c:	00062383          	lw	x7,0(x12)
    1750:	01338863          	beq	x7,x19,1760 <I_sltiu_cg_cr_rs1_imm_edges_rs1val_0x80000001_immval_0x10+0x18>
    1754:	5610146f          	jal	x8,34b4 <failedtest_x8_x7>
    1758:	00001748          	.word	0x00001748
    175c:	0000b12f          	.word	0x0000b12f
    1760:	00460613          	addi	x12,x12,4

# Testcase cr_rs1_imm_edges (rs1 = 0x80000001, imm = 32)
  RVTEST_TESTDATA_LOAD_INT(x1, x15) # load rs1: x15 = 0x80000001
    1764:	0000a783          	lw	x15,0(x1)
    1768:	00408093          	addi	x1,x1,4

0000176c <I_sltiu_cg_cr_rs1_imm_edges_rs1val_0x80000001_immval_0x20>:
I_sltiu_cg_cr_rs1_imm_edges_rs1val_0x80000001_immval_0x20:
  sltiu x2, x15, 32 # perform operation
    176c:	0207b113          	sltiu	x2,x15,32
  # Check if x2 contains the expected result. x12 is the signature ptr, x8 is the link ptr, x7 is a temp reg.
  RVTEST_SIGUPD(x12, x8, x7, x2, I_sltiu_cg_cr_rs1_imm_edges_rs1val_0x80000001_immval_0x20, I_sltiu_cg_cr_rs1_imm_edges_rs1val_0x80000001_immval_0x20_str)
    1770:	00062383          	lw	x7,0(x12)
    1774:	00238863          	beq	x7,x2,1784 <I_sltiu_cg_cr_rs1_imm_edges_rs1val_0x80000001_immval_0x20+0x18>
    1778:	53d0146f          	jal	x8,34b4 <failedtest_x8_x7>
    177c:	0000176c          	.word	0x0000176c
    1780:	0000b186          	.word	0x0000b186
    1784:	00460613          	addi	x12,x12,4

# Testcase cr_rs1_imm_edges (rs1 = 0x80000001, imm = 64)
  RVTEST_TESTDATA_LOAD_INT(x1, x23) # load rs1: x23 = 0x80000001
    1788:	0000ab83          	lw	x23,0(x1)
    178c:	00408093          	addi	x1,x1,4

00001790 <I_sltiu_cg_cr_rs1_imm_edges_rs1val_0x80000001_immval_0x40>:
I_sltiu_cg_cr_rs1_imm_edges_rs1val_0x80000001_immval_0x40:
  sltiu x29, x23, 64 # perform operation
    1790:	040bbe93          	sltiu	x29,x23,64
  # Check if x29 contains the expected result. x12 is the signature ptr, x8 is the link ptr, x7 is a temp reg.
  RVTEST_SIGUPD(x12, x8, x7, x29, I_sltiu_cg_cr_rs1_imm_edges_rs1val_0x80000001_immval_0x40, I_sltiu_cg_cr_rs1_imm_edges_rs1val_0x80000001_immval_0x40_str)
    1794:	00062383          	lw	x7,0(x12)
    1798:	01d38863          	beq	x7,x29,17a8 <I_sltiu_cg_cr_rs1_imm_edges_rs1val_0x80000001_immval_0x40+0x18>
    179c:	5190146f          	jal	x8,34b4 <failedtest_x8_x7>
    17a0:	00001790          	.word	0x00001790
    17a4:	0000b1dd          	.word	0x0000b1dd
    17a8:	00460613          	addi	x12,x12,4

# Testcase cr_rs1_imm_edges (rs1 = 0x80000001, imm = 128)
  RVTEST_TESTDATA_LOAD_INT(x1, x17) # load rs1: x17 = 0x80000001
    17ac:	0000a883          	lw	x17,0(x1)
    17b0:	00408093          	addi	x1,x1,4

000017b4 <I_sltiu_cg_cr_rs1_imm_edges_rs1val_0x80000001_immval_0x80>:
I_sltiu_cg_cr_rs1_imm_edges_rs1val_0x80000001_immval_0x80:
  sltiu x22, x17, 128 # perform operation
    17b4:	0808bb13          	sltiu	x22,x17,128
  # Check if x22 contains the expected result. x12 is the signature ptr, x8 is the link ptr, x7 is a temp reg.
  RVTEST_SIGUPD(x12, x8, x7, x22, I_sltiu_cg_cr_rs1_imm_edges_rs1val_0x80000001_immval_0x80, I_sltiu_cg_cr_rs1_imm_edges_rs1val_0x80000001_immval_0x80_str)
    17b8:	00062383          	lw	x7,0(x12)
    17bc:	01638863          	beq	x7,x22,17cc <I_sltiu_cg_cr_rs1_imm_edges_rs1val_0x80000001_immval_0x80+0x18>
    17c0:	4f50146f          	jal	x8,34b4 <failedtest_x8_x7>
    17c4:	000017b4          	.word	0x000017b4
    17c8:	0000b234          	.word	0x0000b234
    17cc:	00460613          	addi	x12,x12,4

# Testcase cr_rs1_imm_edges (rs1 = 0x80000001, imm = 256)
  RVTEST_TESTDATA_LOAD_INT(x1, x28) # load rs1: x28 = 0x80000001
    17d0:	0000ae03          	lw	x28,0(x1)
    17d4:	00408093          	addi	x1,x1,4

000017d8 <I_sltiu_cg_cr_rs1_imm_edges_rs1val_0x80000001_immval_0x100>:
I_sltiu_cg_cr_rs1_imm_edges_rs1val_0x80000001_immval_0x100:
  sltiu x13, x28, 256 # perform operation
    17d8:	100e3693          	sltiu	x13,x28,256
  # Check if x13 contains the expected result. x12 is the signature ptr, x8 is the link ptr, x7 is a temp reg.
  RVTEST_SIGUPD(x12, x8, x7, x13, I_sltiu_cg_cr_rs1_imm_edges_rs1val_0x80000001_immval_0x100, I_sltiu_cg_cr_rs1_imm_edges_rs1val_0x80000001_immval_0x100_str)
    17dc:	00062383          	lw	x7,0(x12)
    17e0:	00d38863          	beq	x7,x13,17f0 <I_sltiu_cg_cr_rs1_imm_edges_rs1val_0x80000001_immval_0x100+0x18>
    17e4:	4d10146f          	jal	x8,34b4 <failedtest_x8_x7>
    17e8:	000017d8          	.word	0x000017d8
    17ec:	0000b28b          	.word	0x0000b28b
    17f0:	00460613          	addi	x12,x12,4

# Testcase cr_rs1_imm_edges (rs1 = 0x80000001, imm = 512)
  RVTEST_TESTDATA_LOAD_INT(x1, x26) # load rs1: x26 = 0x80000001
    17f4:	0000ad03          	lw	x26,0(x1)
    17f8:	00408093          	addi	x1,x1,4

000017fc <I_sltiu_cg_cr_rs1_imm_edges_rs1val_0x80000001_immval_0x200>:
I_sltiu_cg_cr_rs1_imm_edges_rs1val_0x80000001_immval_0x200:
  sltiu x18, x26, 512 # perform operation
    17fc:	200d3913          	sltiu	x18,x26,512
  # Check if x18 contains the expected result. x12 is the signature ptr, x8 is the link ptr, x7 is a temp reg.
  RVTEST_SIGUPD(x12, x8, x7, x18, I_sltiu_cg_cr_rs1_imm_edges_rs1val_0x80000001_immval_0x200, I_sltiu_cg_cr_rs1_imm_edges_rs1val_0x80000001_immval_0x200_str)
    1800:	00062383          	lw	x7,0(x12)
    1804:	01238863          	beq	x7,x18,1814 <I_sltiu_cg_cr_rs1_imm_edges_rs1val_0x80000001_immval_0x200+0x18>
    1808:	4ad0146f          	jal	x8,34b4 <failedtest_x8_x7>
    180c:	000017fc          	.word	0x000017fc
    1810:	0000b2e3          	.word	0x0000b2e3
    1814:	00460613          	addi	x12,x12,4

# Testcase cr_rs1_imm_edges (rs1 = 0x80000001, imm = 1023)
  RVTEST_TESTDATA_LOAD_INT(x1, x15) # load rs1: x15 = 0x80000001
    1818:	0000a783          	lw	x15,0(x1)
    181c:	00408093          	addi	x1,x1,4

00001820 <I_sltiu_cg_cr_rs1_imm_edges_rs1val_0x80000001_immval_0x3ff>:
I_sltiu_cg_cr_rs1_imm_edges_rs1val_0x80000001_immval_0x3ff:
  sltiu x11, x15, 1023 # perform operation
    1820:	3ff7b593          	sltiu	x11,x15,1023
  # Check if x11 contains the expected result. x12 is the signature ptr, x8 is the link ptr, x7 is a temp reg.
  RVTEST_SIGUPD(x12, x8, x7, x11, I_sltiu_cg_cr_rs1_imm_edges_rs1val_0x80000001_immval_0x3ff, I_sltiu_cg_cr_rs1_imm_edges_rs1val_0x80000001_immval_0x3ff_str)
    1824:	00062383          	lw	x7,0(x12)
    1828:	00b38863          	beq	x7,x11,1838 <I_sltiu_cg_cr_rs1_imm_edges_rs1val_0x80000001_immval_0x3ff+0x18>
    182c:	4890146f          	jal	x8,34b4 <failedtest_x8_x7>
    1830:	00001820          	.word	0x00001820
    1834:	0000b33b          	.word	0x0000b33b
    1838:	00460613          	addi	x12,x12,4

# Testcase cr_rs1_imm_edges (rs1 = 0x80000001, imm = 1024)
  RVTEST_TESTDATA_LOAD_INT(x1, x15) # load rs1: x15 = 0x80000001
    183c:	0000a783          	lw	x15,0(x1)
    1840:	00408093          	addi	x1,x1,4

00001844 <I_sltiu_cg_cr_rs1_imm_edges_rs1val_0x80000001_immval_0x400>:
I_sltiu_cg_cr_rs1_imm_edges_rs1val_0x80000001_immval_0x400:
  sltiu x18, x15, 1024 # perform operation
    1844:	4007b913          	sltiu	x18,x15,1024
  # Check if x18 contains the expected result. x12 is the signature ptr, x8 is the link ptr, x7 is a temp reg.
  RVTEST_SIGUPD(x12, x8, x7, x18, I_sltiu_cg_cr_rs1_imm_edges_rs1val_0x80000001_immval_0x400, I_sltiu_cg_cr_rs1_imm_edges_rs1val_0x80000001_immval_0x400_str)
    1848:	00062383          	lw	x7,0(x12)
    184c:	01238863          	beq	x7,x18,185c <I_sltiu_cg_cr_rs1_imm_edges_rs1val_0x80000001_immval_0x400+0x18>
    1850:	4650146f          	jal	x8,34b4 <failedtest_x8_x7>
    1854:	00001844          	.word	0x00001844
    1858:	0000b393          	.word	0x0000b393
    185c:	00460613          	addi	x12,x12,4

# Testcase cr_rs1_imm_edges (rs1 = 0x80000001, imm = 1795)
  RVTEST_TESTDATA_LOAD_INT(x1, x5) # load rs1: x5 = 0x80000001
    1860:	0000a283          	lw	x5,0(x1)
    1864:	00408093          	addi	x1,x1,4

00001868 <I_sltiu_cg_cr_rs1_imm_edges_rs1val_0x80000001_immval_0x703>:
I_sltiu_cg_cr_rs1_imm_edges_rs1val_0x80000001_immval_0x703:
  sltiu x17, x5, 1795 # perform operation
    1868:	7032b893          	sltiu	x17,x5,1795
  # Check if x17 contains the expected result. x12 is the signature ptr, x8 is the link ptr, x7 is a temp reg.
  RVTEST_SIGUPD(x12, x8, x7, x17, I_sltiu_cg_cr_rs1_imm_edges_rs1val_0x80000001_immval_0x703, I_sltiu_cg_cr_rs1_imm_edges_rs1val_0x80000001_immval_0x703_str)
    186c:	00062383          	lw	x7,0(x12)
    1870:	01138863          	beq	x7,x17,1880 <I_sltiu_cg_cr_rs1_imm_edges_rs1val_0x80000001_immval_0x703+0x18>
    1874:	4410146f          	jal	x8,34b4 <failedtest_x8_x7>
    1878:	00001868          	.word	0x00001868
    187c:	0000b3eb          	.word	0x0000b3eb
    1880:	00460613          	addi	x12,x12,4

# Testcase cr_rs1_imm_edges (rs1 = 0x80000001, imm = 2047)
  RVTEST_TESTDATA_LOAD_INT(x1, x15) # load rs1: x15 = 0x80000001
    1884:	0000a783          	lw	x15,0(x1)
    1888:	00408093          	addi	x1,x1,4

0000188c <I_sltiu_cg_cr_rs1_imm_edges_rs1val_0x80000001_immval_0x7ff>:
I_sltiu_cg_cr_rs1_imm_edges_rs1val_0x80000001_immval_0x7ff:
  sltiu x23, x15, 2047 # perform operation
    188c:	7ff7bb93          	sltiu	x23,x15,2047
  # Check if x23 contains the expected result. x12 is the signature ptr, x8 is the link ptr, x7 is a temp reg.
  RVTEST_SIGUPD(x12, x8, x7, x23, I_sltiu_cg_cr_rs1_imm_edges_rs1val_0x80000001_immval_0x7ff, I_sltiu_cg_cr_rs1_imm_edges_rs1val_0x80000001_immval_0x7ff_str)
    1890:	00062383          	lw	x7,0(x12)
    1894:	01738863          	beq	x7,x23,18a4 <I_sltiu_cg_cr_rs1_imm_edges_rs1val_0x80000001_immval_0x7ff+0x18>
    1898:	41d0146f          	jal	x8,34b4 <failedtest_x8_x7>
    189c:	0000188c          	.word	0x0000188c
    18a0:	0000b443          	.word	0x0000b443
    18a4:	00460613          	addi	x12,x12,4

# Testcase cr_rs1_imm_edges (rs1 = 0x80000001, imm = -2048)
  RVTEST_TESTDATA_LOAD_INT(x1, x17) # load rs1: x17 = 0x80000001
    18a8:	0000a883          	lw	x17,0(x1)
    18ac:	00408093          	addi	x1,x1,4

000018b0 <I_sltiu_cg_cr_rs1_imm_edges_rs1val_0x80000001_immval_m0x800>:
I_sltiu_cg_cr_rs1_imm_edges_rs1val_0x80000001_immval_m0x800:
  sltiu x15, x17, -2048 # perform operation
    18b0:	8008b793          	sltiu	x15,x17,-2048
  # Check if x15 contains the expected result. x12 is the signature ptr, x8 is the link ptr, x7 is a temp reg.
  RVTEST_SIGUPD(x12, x8, x7, x15, I_sltiu_cg_cr_rs1_imm_edges_rs1val_0x80000001_immval_m0x800, I_sltiu_cg_cr_rs1_imm_edges_rs1val_0x80000001_immval_m0x800_str)
    18b4:	00062383          	lw	x7,0(x12)
    18b8:	00f38863          	beq	x7,x15,18c8 <I_sltiu_cg_cr_rs1_imm_edges_rs1val_0x80000001_immval_m0x800+0x18>
    18bc:	3f90146f          	jal	x8,34b4 <failedtest_x8_x7>
    18c0:	000018b0          	.word	0x000018b0
    18c4:	0000b49b          	.word	0x0000b49b
    18c8:	00460613          	addi	x12,x12,4

# Testcase cr_rs1_imm_edges (rs1 = 0x80000001, imm = -2047)
  RVTEST_TESTDATA_LOAD_INT(x1, x26) # load rs1: x26 = 0x80000001
    18cc:	0000ad03          	lw	x26,0(x1)
    18d0:	00408093          	addi	x1,x1,4

000018d4 <I_sltiu_cg_cr_rs1_imm_edges_rs1val_0x80000001_immval_m0x7ff>:
I_sltiu_cg_cr_rs1_imm_edges_rs1val_0x80000001_immval_m0x7ff:
  sltiu x15, x26, -2047 # perform operation
    18d4:	801d3793          	sltiu	x15,x26,-2047
  # Check if x15 contains the expected result. x12 is the signature ptr, x8 is the link ptr, x7 is a temp reg.
  RVTEST_SIGUPD(x12, x8, x7, x15, I_sltiu_cg_cr_rs1_imm_edges_rs1val_0x80000001_immval_m0x7ff, I_sltiu_cg_cr_rs1_imm_edges_rs1val_0x80000001_immval_m0x7ff_str)
    18d8:	00062383          	lw	x7,0(x12)
    18dc:	00f38863          	beq	x7,x15,18ec <I_sltiu_cg_cr_rs1_imm_edges_rs1val_0x80000001_immval_m0x7ff+0x18>
    18e0:	3d50146f          	jal	x8,34b4 <failedtest_x8_x7>
    18e4:	000018d4          	.word	0x000018d4
    18e8:	0000b4f4          	.word	0x0000b4f4
    18ec:	00460613          	addi	x12,x12,4

# Testcase cr_rs1_imm_edges (rs1 = 0x80000001, imm = -2)
  RVTEST_TESTDATA_LOAD_INT(x1, x16) # load rs1: x16 = 0x80000001
    18f0:	0000a803          	lw	x16,0(x1)
    18f4:	00408093          	addi	x1,x1,4

000018f8 <I_sltiu_cg_cr_rs1_imm_edges_rs1val_0x80000001_immval_m0x2>:
I_sltiu_cg_cr_rs1_imm_edges_rs1val_0x80000001_immval_m0x2:
  sltiu x22, x16, -2 # perform operation
    18f8:	ffe83b13          	sltiu	x22,x16,-2
  # Check if x22 contains the expected result. x12 is the signature ptr, x8 is the link ptr, x7 is a temp reg.
  RVTEST_SIGUPD(x12, x8, x7, x22, I_sltiu_cg_cr_rs1_imm_edges_rs1val_0x80000001_immval_m0x2, I_sltiu_cg_cr_rs1_imm_edges_rs1val_0x80000001_immval_m0x2_str)
    18fc:	00062383          	lw	x7,0(x12)
    1900:	01638863          	beq	x7,x22,1910 <I_sltiu_cg_cr_rs1_imm_edges_rs1val_0x80000001_immval_m0x2+0x18>
    1904:	3b10146f          	jal	x8,34b4 <failedtest_x8_x7>
    1908:	000018f8          	.word	0x000018f8
    190c:	0000b54d          	.word	0x0000b54d
    1910:	00460613          	addi	x12,x12,4

# Testcase cr_rs1_imm_edges (rs1 = 0x80000001, imm = -1)
  RVTEST_TESTDATA_LOAD_INT(x1, x21) # load rs1: x21 = 0x80000001
    1914:	0000aa83          	lw	x21,0(x1)
    1918:	00408093          	addi	x1,x1,4

0000191c <I_sltiu_cg_cr_rs1_imm_edges_rs1val_0x80000001_immval_m0x1>:
I_sltiu_cg_cr_rs1_imm_edges_rs1val_0x80000001_immval_m0x1:
  sltiu x23, x21, -1 # perform operation
    191c:	fffabb93          	sltiu	x23,x21,-1
  # Check if x23 contains the expected result. x12 is the signature ptr, x8 is the link ptr, x7 is a temp reg.
  RVTEST_SIGUPD(x12, x8, x7, x23, I_sltiu_cg_cr_rs1_imm_edges_rs1val_0x80000001_immval_m0x1, I_sltiu_cg_cr_rs1_imm_edges_rs1val_0x80000001_immval_m0x1_str)
    1920:	00062383          	lw	x7,0(x12)
    1924:	01738863          	beq	x7,x23,1934 <I_sltiu_cg_cr_rs1_imm_edges_rs1val_0x80000001_immval_m0x1+0x18>
    1928:	38d0146f          	jal	x8,34b4 <failedtest_x8_x7>
    192c:	0000191c          	.word	0x0000191c
    1930:	0000b5a4          	.word	0x0000b5a4
    1934:	00460613          	addi	x12,x12,4

# Testcase cr_rs1_imm_edges (rs1 = 0x7fffffff, imm = 0)
  RVTEST_TESTDATA_LOAD_INT(x1, x22) # load rs1: x22 = 0x7fffffff
    1938:	0000ab03          	lw	x22,0(x1)
    193c:	00408093          	addi	x1,x1,4

00001940 <I_sltiu_cg_cr_rs1_imm_edges_rs1val_0x7fffffff_immval_0x0>:
I_sltiu_cg_cr_rs1_imm_edges_rs1val_0x7fffffff_immval_0x0:
  sltiu x10, x22, 0 # perform operation
    1940:	000b3513          	sltiu	x10,x22,0
  # Check if x10 contains the expected result. x12 is the signature ptr, x8 is the link ptr, x7 is a temp reg.
  RVTEST_SIGUPD(x12, x8, x7, x10, I_sltiu_cg_cr_rs1_imm_edges_rs1val_0x7fffffff_immval_0x0, I_sltiu_cg_cr_rs1_imm_edges_rs1val_0x7fffffff_immval_0x0_str)
    1944:	00062383          	lw	x7,0(x12)
    1948:	00a38863          	beq	x7,x10,1958 <I_sltiu_cg_cr_rs1_imm_edges_rs1val_0x7fffffff_immval_0x0+0x18>
    194c:	3690146f          	jal	x8,34b4 <failedtest_x8_x7>
    1950:	00001940          	.word	0x00001940
    1954:	0000b5fb          	.word	0x0000b5fb
    1958:	00460613          	addi	x12,x12,4

# Testcase cr_rs1_imm_edges (rs1 = 0x7fffffff, imm = 1)
  RVTEST_TESTDATA_LOAD_INT(x1, x13) # load rs1: x13 = 0x7fffffff
    195c:	0000a683          	lw	x13,0(x1)
    1960:	00408093          	addi	x1,x1,4

00001964 <I_sltiu_cg_cr_rs1_imm_edges_rs1val_0x7fffffff_immval_0x1>:
I_sltiu_cg_cr_rs1_imm_edges_rs1val_0x7fffffff_immval_0x1:
  sltiu x25, x13, 1 # perform operation
    1964:	0016bc93          	sltiu	x25,x13,1
  # Check if x25 contains the expected result. x12 is the signature ptr, x8 is the link ptr, x7 is a temp reg.
  RVTEST_SIGUPD(x12, x8, x7, x25, I_sltiu_cg_cr_rs1_imm_edges_rs1val_0x7fffffff_immval_0x1, I_sltiu_cg_cr_rs1_imm_edges_rs1val_0x7fffffff_immval_0x1_str)
    1968:	00062383          	lw	x7,0(x12)
    196c:	01938863          	beq	x7,x25,197c <I_sltiu_cg_cr_rs1_imm_edges_rs1val_0x7fffffff_immval_0x1+0x18>
    1970:	3450146f          	jal	x8,34b4 <failedtest_x8_x7>
    1974:	00001964          	.word	0x00001964
    1978:	0000b651          	.word	0x0000b651
    197c:	00460613          	addi	x12,x12,4

# Testcase cr_rs1_imm_edges (rs1 = 0x7fffffff, imm = 2)
  RVTEST_TESTDATA_LOAD_INT(x1, x11) # load rs1: x11 = 0x7fffffff
    1980:	0000a583          	lw	x11,0(x1)
    1984:	00408093          	addi	x1,x1,4

00001988 <I_sltiu_cg_cr_rs1_imm_edges_rs1val_0x7fffffff_immval_0x2>:
I_sltiu_cg_cr_rs1_imm_edges_rs1val_0x7fffffff_immval_0x2:
  sltiu x3, x11, 2 # perform operation
    1988:	0025b193          	sltiu	x3,x11,2
  # Check if x3 contains the expected result. x12 is the signature ptr, x8 is the link ptr, x7 is a temp reg.
  RVTEST_SIGUPD(x12, x8, x7, x3, I_sltiu_cg_cr_rs1_imm_edges_rs1val_0x7fffffff_immval_0x2, I_sltiu_cg_cr_rs1_imm_edges_rs1val_0x7fffffff_immval_0x2_str)
    198c:	00062383          	lw	x7,0(x12)
    1990:	00338863          	beq	x7,x3,19a0 <I_sltiu_cg_cr_rs1_imm_edges_rs1val_0x7fffffff_immval_0x2+0x18>
    1994:	3210146f          	jal	x8,34b4 <failedtest_x8_x7>
    1998:	00001988          	.word	0x00001988
    199c:	0000b6a7          	.word	0x0000b6a7
    19a0:	00460613          	addi	x12,x12,4

# Testcase cr_rs1_imm_edges (rs1 = 0x7fffffff, imm = 3)
  RVTEST_TESTDATA_LOAD_INT(x1, x11) # load rs1: x11 = 0x7fffffff
    19a4:	0000a583          	lw	x11,0(x1)
    19a8:	00408093          	addi	x1,x1,4

000019ac <I_sltiu_cg_cr_rs1_imm_edges_rs1val_0x7fffffff_immval_0x3>:
I_sltiu_cg_cr_rs1_imm_edges_rs1val_0x7fffffff_immval_0x3:
  sltiu x16, x11, 3 # perform operation
    19ac:	0035b813          	sltiu	x16,x11,3
