
/home/dev/github/clones/riscv-arch-test/work/rv32i-core/elfs/rv32i/I/I-slti-00.elf:     file format elf32-littleriscv
/home/dev/github/clones/riscv-arch-test/work/rv32i-core/elfs/rv32i/I/I-slti-00.elf
architecture: riscv:rv32, flags 0x00000112:
EXEC_P, HAS_SYMS, D_PAGED
start address 0x00000000

Program Header:
0x70000003 off    0x0001e240 vaddr 0x00000000 paddr 0x00000000 align 2**0
         filesz 0x00000033 memsz 0x00000000 flags r--
    LOAD off    0x00001000 vaddr 0x00000000 paddr 0x00000000 align 2**12
         filesz 0x00004f20 memsz 0x00004f20 flags r-x
    LOAD off    0x00006000 vaddr 0x00008000 paddr 0x00008000 align 2**12
         filesz 0x00018240 memsz 0x00018240 flags rwx

Sections:
Idx Name          Size      VMA       LMA       File off  Algn
  0 .text.init    00000040  00000000  00000000  00001000  2**5
                  CONTENTS, ALLOC, LOAD, READONLY, CODE
  1 .text.rvtest  00004ee0  00000040  00000040  00001040  2**5
                  CONTENTS, ALLOC, LOAD, READONLY, CODE
  2 .data         00017c90  00008000  00008000  00006000  2**8
                  CONTENTS, ALLOC, LOAD, DATA
  3 .text.rvmodel 00000240  00020000  00020000  0001e000  2**5
                  CONTENTS, ALLOC, LOAD, READONLY, CODE
  4 .riscv.attributes 00000033  00000000  00000000  0001e240  2**0
                  CONTENTS, READONLY
  5 .debug_line   00001abe  00000000  00000000  0001e273  2**0
                  CONTENTS, READONLY, DEBUGGING, OCTETS
  6 .debug_line_str 0000006a  00000000  00000000  0001fd31  2**0
                  CONTENTS, READONLY, DEBUGGING, OCTETS
  7 .debug_info   00000023  00000000  00000000  0001fd9b  2**0
                  CONTENTS, READONLY, DEBUGGING, OCTETS
  8 .debug_abbrev 00000012  00000000  00000000  0001fdbe  2**0
                  CONTENTS, READONLY, DEBUGGING, OCTETS
  9 .debug_aranges 00000028  00000000  00000000  0001fdd0  2**3
                  CONTENTS, READONLY, DEBUGGING, OCTETS
 10 .debug_str    00000076  00000000  00000000  0001fdf8  2**0
                  CONTENTS, READONLY, DEBUGGING, OCTETS
 11 .debug_rnglists 0000001b  00000000  00000000  0001fe6e  2**0
                  CONTENTS, READONLY, DEBUGGING, OCTETS
SYMBOL TABLE:
00000000 l    d  .text.init	00000000 .text.init
00000040 l    d  .text.rvtest	00000000 .text.rvtest
00008000 l    d  .data	00000000 .data
00020000 l    d  .text.rvmodel	00000000 .text.rvmodel
00000000 l    d  .riscv.attributes	00000000 .riscv.attributes
00000000 l    d  .debug_line	00000000 .debug_line
00000000 l    d  .debug_line_str	00000000 .debug_line_str
00000000 l    d  .debug_info	00000000 .debug_info
00000000 l    d  .debug_abbrev	00000000 .debug_abbrev
00000000 l    d  .debug_aranges	00000000 .debug_aranges
00000000 l    d  .debug_str	00000000 .debug_str
00000000 l    d  .debug_rnglists	00000000 .debug_rnglists
00000000 l    df *ABS*	00000000 ccNaD5zk.o
00000003 l       *ABS*	00000000 MMODE_SIG
00000001 l       *ABS*	00000000 SMODE_SIG
00000001 l       *ABS*	00000000 HMODE_SIG
00000002 l       *ABS*	00000000 VMODE_SIG
00020000 l       .text.rvmodel	00000000 rvmodel_boot
00000048 l       .text.rvtest	00000000 I_slti_cg_cp_rs1_b0
0000349c l       .text.rvtest	00000000 failedtest_x5_x4
000086d0 l       .data	00000000 I_slti_cg_cp_rs1_b0_str
0000006c l       .text.rvtest	00000000 I_slti_cg_cp_rs1_b1
000086fe l       .data	00000000 I_slti_cg_cp_rs1_b1_str
00000094 l       .text.rvtest	00000000 I_slti_cg_cp_rs1_b2
0000872c l       .data	00000000 I_slti_cg_cp_rs1_b2_str
000000bc l       .text.rvtest	00000000 I_slti_cg_cp_rs1_b3
0000875a l       .data	00000000 I_slti_cg_cp_rs1_b3_str
000000e8 l       .text.rvtest	00000000 I_slti_cg_cp_rs1_b4
000034dc l       .text.rvtest	00000000 failedtest_x14_x13
00008788 l       .data	00000000 I_slti_cg_cp_rs1_b4_str
0000010c l       .text.rvtest	00000000 I_slti_cg_cp_rs1_b5
000087b6 l       .data	00000000 I_slti_cg_cp_rs1_b5_str
00000130 l       .text.rvtest	00000000 I_slti_cg_cp_rs1_b6
000087e4 l       .data	00000000 I_slti_cg_cp_rs1_b6_str
00000154 l       .text.rvtest	00000000 I_slti_cg_cp_rs1_b7
00008812 l       .data	00000000 I_slti_cg_cp_rs1_b7_str
00000178 l       .text.rvtest	00000000 I_slti_cg_cp_rs1_b8
00008840 l       .data	00000000 I_slti_cg_cp_rs1_b8_str
000001a0 l       .text.rvtest	00000000 I_slti_cg_cp_rs1_b9
0000886e l       .data	00000000 I_slti_cg_cp_rs1_b9_str
000001c4 l       .text.rvtest	00000000 I_slti_cg_cp_rs1_b10
0000889d l       .data	00000000 I_slti_cg_cp_rs1_b10_str
000001e8 l       .text.rvtest	00000000 I_slti_cg_cp_rs1_b11
000088cd l       .data	00000000 I_slti_cg_cp_rs1_b11_str
0000020c l       .text.rvtest	00000000 I_slti_cg_cp_rs1_b12
000088fd l       .data	00000000 I_slti_cg_cp_rs1_b12_str
00000238 l       .text.rvtest	00000000 I_slti_cg_cp_rs1_b13
000034b4 l       .text.rvtest	00000000 failedtest_x8_x7
0000892d l       .data	00000000 I_slti_cg_cp_rs1_b13_str
0000025c l       .text.rvtest	00000000 I_slti_cg_cp_rs1_b14
0000895d l       .data	00000000 I_slti_cg_cp_rs1_b14_str
00000280 l       .text.rvtest	00000000 I_slti_cg_cp_rs1_b15
0000898d l       .data	00000000 I_slti_cg_cp_rs1_b15_str
000002a4 l       .text.rvtest	00000000 I_slti_cg_cp_rs1_b16
000089bd l       .data	00000000 I_slti_cg_cp_rs1_b16_str
000002cc l       .text.rvtest	00000000 I_slti_cg_cp_rs1_b17
000089ed l       .data	00000000 I_slti_cg_cp_rs1_b17_str
000002f0 l       .text.rvtest	00000000 I_slti_cg_cp_rs1_b18
00008a1d l       .data	00000000 I_slti_cg_cp_rs1_b18_str
00000314 l       .text.rvtest	00000000 I_slti_cg_cp_rs1_b19
00008a4d l       .data	00000000 I_slti_cg_cp_rs1_b19_str
00000338 l       .text.rvtest	00000000 I_slti_cg_cp_rs1_b20
00008a7d l       .data	00000000 I_slti_cg_cp_rs1_b20_str
0000035c l       .text.rvtest	00000000 I_slti_cg_cp_rs1_b21
00008aad l       .data	00000000 I_slti_cg_cp_rs1_b21_str
00000380 l       .text.rvtest	00000000 I_slti_cg_cp_rs1_b22
00008add l       .data	00000000 I_slti_cg_cp_rs1_b22_str
000003a4 l       .text.rvtest	00000000 I_slti_cg_cp_rs1_b23
00008b0d l       .data	00000000 I_slti_cg_cp_rs1_b23_str
000003c8 l       .text.rvtest	00000000 I_slti_cg_cp_rs1_b24
00008b3d l       .data	00000000 I_slti_cg_cp_rs1_b24_str
000003ec l       .text.rvtest	00000000 I_slti_cg_cp_rs1_b25
00008b6d l       .data	00000000 I_slti_cg_cp_rs1_b25_str
00000410 l       .text.rvtest	00000000 I_slti_cg_cp_rs1_b26
00008b9d l       .data	00000000 I_slti_cg_cp_rs1_b26_str
00000434 l       .text.rvtest	00000000 I_slti_cg_cp_rs1_b27
00008bcd l       .data	00000000 I_slti_cg_cp_rs1_b27_str
0000045c l       .text.rvtest	00000000 I_slti_cg_cp_rs1_b28
00008bfd l       .data	00000000 I_slti_cg_cp_rs1_b28_str
00000480 l       .text.rvtest	00000000 I_slti_cg_cp_rs1_b29
00008c2d l       .data	00000000 I_slti_cg_cp_rs1_b29_str
000004a4 l       .text.rvtest	00000000 I_slti_cg_cp_rs1_b30
00008c5d l       .data	00000000 I_slti_cg_cp_rs1_b30_str
000004c8 l       .text.rvtest	00000000 I_slti_cg_cp_rs1_b31
00008c8d l       .data	00000000 I_slti_cg_cp_rs1_b31_str
000004ec l       .text.rvtest	00000000 I_slti_cg_cp_rd_b0
00008cbd l       .data	00000000 I_slti_cg_cp_rd_b0_str
00000510 l       .text.rvtest	00000000 I_slti_cg_cp_rd_b1
00008ceb l       .data	00000000 I_slti_cg_cp_rd_b1_str
00000534 l       .text.rvtest	00000000 I_slti_cg_cp_rd_b2
00008d19 l       .data	00000000 I_slti_cg_cp_rd_b2_str
00000558 l       .text.rvtest	00000000 I_slti_cg_cp_rd_b3
00008d47 l       .data	00000000 I_slti_cg_cp_rd_b3_str
0000057c l       .text.rvtest	00000000 I_slti_cg_cp_rd_b4
00008d75 l       .data	00000000 I_slti_cg_cp_rd_b4_str
000005a0 l       .text.rvtest	00000000 I_slti_cg_cp_rd_b5
00008da3 l       .data	00000000 I_slti_cg_cp_rd_b5_str
000005c4 l       .text.rvtest	00000000 I_slti_cg_cp_rd_b6
00008dd1 l       .data	00000000 I_slti_cg_cp_rd_b6_str
000005f0 l       .text.rvtest	00000000 I_slti_cg_cp_rd_b7
00008dff l       .data	00000000 I_slti_cg_cp_rd_b7_str
00000614 l       .text.rvtest	00000000 I_slti_cg_cp_rd_b8
00008e2d l       .data	00000000 I_slti_cg_cp_rd_b8_str
0000063c l       .text.rvtest	00000000 I_slti_cg_cp_rd_b9
00008e5b l       .data	00000000 I_slti_cg_cp_rd_b9_str
00000660 l       .text.rvtest	00000000 I_slti_cg_cp_rd_b10
00008e89 l       .data	00000000 I_slti_cg_cp_rd_b10_str
00000688 l       .text.rvtest	00000000 I_slti_cg_cp_rd_b11
00008eb8 l       .data	00000000 I_slti_cg_cp_rd_b11_str
000006ac l       .text.rvtest	00000000 I_slti_cg_cp_rd_b12
00008ee7 l       .data	00000000 I_slti_cg_cp_rd_b12_str
000006d8 l       .text.rvtest	00000000 I_slti_cg_cp_rd_b13
00008f16 l       .data	00000000 I_slti_cg_cp_rd_b13_str
000006fc l       .text.rvtest	00000000 I_slti_cg_cp_rd_b14
00008f45 l       .data	00000000 I_slti_cg_cp_rd_b14_str
00000720 l       .text.rvtest	00000000 I_slti_cg_cp_rd_b15
00008f74 l       .data	00000000 I_slti_cg_cp_rd_b15_str
00000744 l       .text.rvtest	00000000 I_slti_cg_cp_rd_b16
00008fa3 l       .data	00000000 I_slti_cg_cp_rd_b16_str
00000768 l       .text.rvtest	00000000 I_slti_cg_cp_rd_b17
00008fd2 l       .data	00000000 I_slti_cg_cp_rd_b17_str
0000078c l       .text.rvtest	00000000 I_slti_cg_cp_rd_b18
00009001 l       .data	00000000 I_slti_cg_cp_rd_b18_str
000007b0 l       .text.rvtest	00000000 I_slti_cg_cp_rd_b19
00009030 l       .data	00000000 I_slti_cg_cp_rd_b19_str
000007d4 l       .text.rvtest	00000000 I_slti_cg_cp_rd_b20
0000905f l       .data	00000000 I_slti_cg_cp_rd_b20_str
000007f8 l       .text.rvtest	00000000 I_slti_cg_cp_rd_b21
0000908e l       .data	00000000 I_slti_cg_cp_rd_b21_str
0000081c l       .text.rvtest	00000000 I_slti_cg_cp_rd_b22
000090bd l       .data	00000000 I_slti_cg_cp_rd_b22_str
00000840 l       .text.rvtest	00000000 I_slti_cg_cp_rd_b23
000090ec l       .data	00000000 I_slti_cg_cp_rd_b23_str
00000864 l       .text.rvtest	00000000 I_slti_cg_cp_rd_b24
0000911b l       .data	00000000 I_slti_cg_cp_rd_b24_str
00000888 l       .text.rvtest	00000000 I_slti_cg_cp_rd_b25
0000914a l       .data	00000000 I_slti_cg_cp_rd_b25_str
000008ac l       .text.rvtest	00000000 I_slti_cg_cp_rd_b26
00009179 l       .data	00000000 I_slti_cg_cp_rd_b26_str
000008d4 l       .text.rvtest	00000000 I_slti_cg_cp_rd_b27
000091a8 l       .data	00000000 I_slti_cg_cp_rd_b27_str
000008f8 l       .text.rvtest	00000000 I_slti_cg_cp_rd_b28
000091d7 l       .data	00000000 I_slti_cg_cp_rd_b28_str
0000091c l       .text.rvtest	00000000 I_slti_cg_cp_rd_b29
00009206 l       .data	00000000 I_slti_cg_cp_rd_b29_str
00000940 l       .text.rvtest	00000000 I_slti_cg_cp_rd_b30
00009235 l       .data	00000000 I_slti_cg_cp_rd_b30_str
00000964 l       .text.rvtest	00000000 I_slti_cg_cp_rd_b31
00009264 l       .data	00000000 I_slti_cg_cp_rd_b31_str
00000988 l       .text.rvtest	00000000 I_slti_cg_cp_rs1_edges_0x0
00009293 l       .data	00000000 I_slti_cg_cp_rs1_edges_0x0_str
000009ac l       .text.rvtest	00000000 I_slti_cg_cp_rs1_edges_0x1
000092c9 l       .data	00000000 I_slti_cg_cp_rs1_edges_0x1_str
000009d0 l       .text.rvtest	00000000 I_slti_cg_cp_rs1_edges_0x2
000092ff l       .data	00000000 I_slti_cg_cp_rs1_edges_0x2_str
000009f4 l       .text.rvtest	00000000 I_slti_cg_cp_rs1_edges_0x80000000
00009335 l       .data	00000000 I_slti_cg_cp_rs1_edges_0x80000000_str
00000a18 l       .text.rvtest	00000000 I_slti_cg_cp_rs1_edges_0x80000001
00009372 l       .data	00000000 I_slti_cg_cp_rs1_edges_0x80000001_str
00000a3c l       .text.rvtest	00000000 I_slti_cg_cp_rs1_edges_0x7fffffff
000093af l       .data	00000000 I_slti_cg_cp_rs1_edges_0x7fffffff_str
00000a60 l       .text.rvtest	00000000 I_slti_cg_cp_rs1_edges_0x7ffffffe
000093ec l       .data	00000000 I_slti_cg_cp_rs1_edges_0x7ffffffe_str
00000a84 l       .text.rvtest	00000000 I_slti_cg_cp_rs1_edges_0xffffffff
00009429 l       .data	00000000 I_slti_cg_cp_rs1_edges_0xffffffff_str
00000aa8 l       .text.rvtest	00000000 I_slti_cg_cp_rs1_edges_0xfffffffe
00009466 l       .data	00000000 I_slti_cg_cp_rs1_edges_0xfffffffe_str
00000acc l       .text.rvtest	00000000 I_slti_cg_cp_rs1_edges_0x5bbc8872
000094a3 l       .data	00000000 I_slti_cg_cp_rs1_edges_0x5bbc8872_str
00000af0 l       .text.rvtest	00000000 I_slti_cg_cp_rs1_edges_0xaaaaaaaa
000094e0 l       .data	00000000 I_slti_cg_cp_rs1_edges_0xaaaaaaaa_str
00000b14 l       .text.rvtest	00000000 I_slti_cg_cp_rs1_edges_0x55555555
0000951d l       .data	00000000 I_slti_cg_cp_rs1_edges_0x55555555_str
00000b38 l       .text.rvtest	00000000 I_slti_cg_cr_rs1_imm_edges_rs1val_0x0_immval_0x0
0000955a l       .data	00000000 I_slti_cg_cr_rs1_imm_edges_rs1val_0x0_immval_0x0_str
00000b5c l       .text.rvtest	00000000 I_slti_cg_cr_rs1_imm_edges_rs1val_0x0_immval_0x1
000095a7 l       .data	00000000 I_slti_cg_cr_rs1_imm_edges_rs1val_0x0_immval_0x1_str
00000b80 l       .text.rvtest	00000000 I_slti_cg_cr_rs1_imm_edges_rs1val_0x0_immval_0x2
000095f4 l       .data	00000000 I_slti_cg_cr_rs1_imm_edges_rs1val_0x0_immval_0x2_str
00000ba4 l       .text.rvtest	00000000 I_slti_cg_cr_rs1_imm_edges_rs1val_0x0_immval_0x3
00009641 l       .data	00000000 I_slti_cg_cr_rs1_imm_edges_rs1val_0x0_immval_0x3_str
00000bc8 l       .text.rvtest	00000000 I_slti_cg_cr_rs1_imm_edges_rs1val_0x0_immval_0x4
0000968e l       .data	00000000 I_slti_cg_cr_rs1_imm_edges_rs1val_0x0_immval_0x4_str
00000bec l       .text.rvtest	00000000 I_slti_cg_cr_rs1_imm_edges_rs1val_0x0_immval_0x8
000096db l       .data	00000000 I_slti_cg_cr_rs1_imm_edges_rs1val_0x0_immval_0x8_str
00000c10 l       .text.rvtest	00000000 I_slti_cg_cr_rs1_imm_edges_rs1val_0x0_immval_0x10
00009728 l       .data	00000000 I_slti_cg_cr_rs1_imm_edges_rs1val_0x0_immval_0x10_str
00000c34 l       .text.rvtest	00000000 I_slti_cg_cr_rs1_imm_edges_rs1val_0x0_immval_0x20
00009776 l       .data	00000000 I_slti_cg_cr_rs1_imm_edges_rs1val_0x0_immval_0x20_str
00000c58 l       .text.rvtest	00000000 I_slti_cg_cr_rs1_imm_edges_rs1val_0x0_immval_0x40
000097c4 l       .data	00000000 I_slti_cg_cr_rs1_imm_edges_rs1val_0x0_immval_0x40_str
00000c7c l       .text.rvtest	00000000 I_slti_cg_cr_rs1_imm_edges_rs1val_0x0_immval_0x80
00009812 l       .data	00000000 I_slti_cg_cr_rs1_imm_edges_rs1val_0x0_immval_0x80_str
00000ca0 l       .text.rvtest	00000000 I_slti_cg_cr_rs1_imm_edges_rs1val_0x0_immval_0x100
00009860 l       .data	00000000 I_slti_cg_cr_rs1_imm_edges_rs1val_0x0_immval_0x100_str
00000cc4 l       .text.rvtest	00000000 I_slti_cg_cr_rs1_imm_edges_rs1val_0x0_immval_0x200
000098af l       .data	00000000 I_slti_cg_cr_rs1_imm_edges_rs1val_0x0_immval_0x200_str
00000ce8 l       .text.rvtest	00000000 I_slti_cg_cr_rs1_imm_edges_rs1val_0x0_immval_0x3ff
000098fe l       .data	00000000 I_slti_cg_cr_rs1_imm_edges_rs1val_0x0_immval_0x3ff_str
00000d0c l       .text.rvtest	00000000 I_slti_cg_cr_rs1_imm_edges_rs1val_0x0_immval_0x400
0000994d l       .data	00000000 I_slti_cg_cr_rs1_imm_edges_rs1val_0x0_immval_0x400_str
00000d30 l       .text.rvtest	00000000 I_slti_cg_cr_rs1_imm_edges_rs1val_0x0_immval_0x703
0000999c l       .data	00000000 I_slti_cg_cr_rs1_imm_edges_rs1val_0x0_immval_0x703_str
00000d54 l       .text.rvtest	00000000 I_slti_cg_cr_rs1_imm_edges_rs1val_0x0_immval_0x7ff
000099eb l       .data	00000000 I_slti_cg_cr_rs1_imm_edges_rs1val_0x0_immval_0x7ff_str
00000d78 l       .text.rvtest	00000000 I_slti_cg_cr_rs1_imm_edges_rs1val_0x0_immval_m0x800
00009a3a l       .data	00000000 I_slti_cg_cr_rs1_imm_edges_rs1val_0x0_immval_m0x800_str
00000d9c l       .text.rvtest	00000000 I_slti_cg_cr_rs1_imm_edges_rs1val_0x0_immval_m0x7ff
00009a8a l       .data	00000000 I_slti_cg_cr_rs1_imm_edges_rs1val_0x0_immval_m0x7ff_str
00000dc0 l       .text.rvtest	00000000 I_slti_cg_cr_rs1_imm_edges_rs1val_0x0_immval_m0x2
00009ada l       .data	00000000 I_slti_cg_cr_rs1_imm_edges_rs1val_0x0_immval_m0x2_str
00000de4 l       .text.rvtest	00000000 I_slti_cg_cr_rs1_imm_edges_rs1val_0x0_immval_m0x1
00009b28 l       .data	00000000 I_slti_cg_cr_rs1_imm_edges_rs1val_0x0_immval_m0x1_str
00000e08 l       .text.rvtest	00000000 I_slti_cg_cr_rs1_imm_edges_rs1val_0x1_immval_0x0
00009b76 l       .data	00000000 I_slti_cg_cr_rs1_imm_edges_rs1val_0x1_immval_0x0_str
00000e2c l       .text.rvtest	00000000 I_slti_cg_cr_rs1_imm_edges_rs1val_0x1_immval_0x1
00009bc3 l       .data	00000000 I_slti_cg_cr_rs1_imm_edges_rs1val_0x1_immval_0x1_str
00000e50 l       .text.rvtest	00000000 I_slti_cg_cr_rs1_imm_edges_rs1val_0x1_immval_0x2
00009c10 l       .data	00000000 I_slti_cg_cr_rs1_imm_edges_rs1val_0x1_immval_0x2_str
00000e74 l       .text.rvtest	00000000 I_slti_cg_cr_rs1_imm_edges_rs1val_0x1_immval_0x3
00009c5d l       .data	00000000 I_slti_cg_cr_rs1_imm_edges_rs1val_0x1_immval_0x3_str
00000e98 l       .text.rvtest	00000000 I_slti_cg_cr_rs1_imm_edges_rs1val_0x1_immval_0x4
00009cab l       .data	00000000 I_slti_cg_cr_rs1_imm_edges_rs1val_0x1_immval_0x4_str
00000ebc l       .text.rvtest	00000000 I_slti_cg_cr_rs1_imm_edges_rs1val_0x1_immval_0x8
00009cf9 l       .data	00000000 I_slti_cg_cr_rs1_imm_edges_rs1val_0x1_immval_0x8_str
00000ee0 l       .text.rvtest	00000000 I_slti_cg_cr_rs1_imm_edges_rs1val_0x1_immval_0x10
00009d47 l       .data	00000000 I_slti_cg_cr_rs1_imm_edges_rs1val_0x1_immval_0x10_str
00000f04 l       .text.rvtest	00000000 I_slti_cg_cr_rs1_imm_edges_rs1val_0x1_immval_0x20
00009d96 l       .data	00000000 I_slti_cg_cr_rs1_imm_edges_rs1val_0x1_immval_0x20_str
00000f28 l       .text.rvtest	00000000 I_slti_cg_cr_rs1_imm_edges_rs1val_0x1_immval_0x40
00009de5 l       .data	00000000 I_slti_cg_cr_rs1_imm_edges_rs1val_0x1_immval_0x40_str
00000f4c l       .text.rvtest	00000000 I_slti_cg_cr_rs1_imm_edges_rs1val_0x1_immval_0x80
00009e34 l       .data	00000000 I_slti_cg_cr_rs1_imm_edges_rs1val_0x1_immval_0x80_str
00000f70 l       .text.rvtest	00000000 I_slti_cg_cr_rs1_imm_edges_rs1val_0x1_immval_0x100
00009e83 l       .data	00000000 I_slti_cg_cr_rs1_imm_edges_rs1val_0x1_immval_0x100_str
00000f94 l       .text.rvtest	00000000 I_slti_cg_cr_rs1_imm_edges_rs1val_0x1_immval_0x200
00009ed3 l       .data	00000000 I_slti_cg_cr_rs1_imm_edges_rs1val_0x1_immval_0x200_str
00000fb8 l       .text.rvtest	00000000 I_slti_cg_cr_rs1_imm_edges_rs1val_0x1_immval_0x3ff
00009f23 l       .data	00000000 I_slti_cg_cr_rs1_imm_edges_rs1val_0x1_immval_0x3ff_str
00000fdc l       .text.rvtest	00000000 I_slti_cg_cr_rs1_imm_edges_rs1val_0x1_immval_0x400
00009f73 l       .data	00000000 I_slti_cg_cr_rs1_imm_edges_rs1val_0x1_immval_0x400_str
00001000 l       .text.rvtest	00000000 I_slti_cg_cr_rs1_imm_edges_rs1val_0x1_immval_0x703
00009fc3 l       .data	00000000 I_slti_cg_cr_rs1_imm_edges_rs1val_0x1_immval_0x703_str
00001024 l       .text.rvtest	00000000 I_slti_cg_cr_rs1_imm_edges_rs1val_0x1_immval_0x7ff
0000a013 l       .data	00000000 I_slti_cg_cr_rs1_imm_edges_rs1val_0x1_immval_0x7ff_str
00001048 l       .text.rvtest	00000000 I_slti_cg_cr_rs1_imm_edges_rs1val_0x1_immval_m0x800
0000a063 l       .data	00000000 I_slti_cg_cr_rs1_imm_edges_rs1val_0x1_immval_m0x800_str
0000106c l       .text.rvtest	00000000 I_slti_cg_cr_rs1_imm_edges_rs1val_0x1_immval_m0x7ff
0000a0b4 l       .data	00000000 I_slti_cg_cr_rs1_imm_edges_rs1val_0x1_immval_m0x7ff_str
00001090 l       .text.rvtest	00000000 I_slti_cg_cr_rs1_imm_edges_rs1val_0x1_immval_m0x2
0000a105 l       .data	00000000 I_slti_cg_cr_rs1_imm_edges_rs1val_0x1_immval_m0x2_str
000010b4 l       .text.rvtest	00000000 I_slti_cg_cr_rs1_imm_edges_rs1val_0x1_immval_m0x1
0000a154 l       .data	00000000 I_slti_cg_cr_rs1_imm_edges_rs1val_0x1_immval_m0x1_str
000010d8 l       .text.rvtest	00000000 I_slti_cg_cr_rs1_imm_edges_rs1val_0x2_immval_0x0
0000a1a3 l       .data	00000000 I_slti_cg_cr_rs1_imm_edges_rs1val_0x2_immval_0x0_str
000010fc l       .text.rvtest	00000000 I_slti_cg_cr_rs1_imm_edges_rs1val_0x2_immval_0x1
0000a1f1 l       .data	00000000 I_slti_cg_cr_rs1_imm_edges_rs1val_0x2_immval_0x1_str
00001120 l       .text.rvtest	00000000 I_slti_cg_cr_rs1_imm_edges_rs1val_0x2_immval_0x2
0000a23f l       .data	00000000 I_slti_cg_cr_rs1_imm_edges_rs1val_0x2_immval_0x2_str
00001144 l       .text.rvtest	00000000 I_slti_cg_cr_rs1_imm_edges_rs1val_0x2_immval_0x3
0000a28d l       .data	00000000 I_slti_cg_cr_rs1_imm_edges_rs1val_0x2_immval_0x3_str
00001168 l       .text.rvtest	00000000 I_slti_cg_cr_rs1_imm_edges_rs1val_0x2_immval_0x4
0000a2db l       .data	00000000 I_slti_cg_cr_rs1_imm_edges_rs1val_0x2_immval_0x4_str
0000118c l       .text.rvtest	00000000 I_slti_cg_cr_rs1_imm_edges_rs1val_0x2_immval_0x8
0000a329 l       .data	00000000 I_slti_cg_cr_rs1_imm_edges_rs1val_0x2_immval_0x8_str
000011b0 l       .text.rvtest	00000000 I_slti_cg_cr_rs1_imm_edges_rs1val_0x2_immval_0x10
0000a377 l       .data	00000000 I_slti_cg_cr_rs1_imm_edges_rs1val_0x2_immval_0x10_str
000011d4 l       .text.rvtest	00000000 I_slti_cg_cr_rs1_imm_edges_rs1val_0x2_immval_0x20
0000a3c6 l       .data	00000000 I_slti_cg_cr_rs1_imm_edges_rs1val_0x2_immval_0x20_str
000011f8 l       .text.rvtest	00000000 I_slti_cg_cr_rs1_imm_edges_rs1val_0x2_immval_0x40
0000a415 l       .data	00000000 I_slti_cg_cr_rs1_imm_edges_rs1val_0x2_immval_0x40_str
0000121c l       .text.rvtest	00000000 I_slti_cg_cr_rs1_imm_edges_rs1val_0x2_immval_0x80
0000a464 l       .data	00000000 I_slti_cg_cr_rs1_imm_edges_rs1val_0x2_immval_0x80_str
00001240 l       .text.rvtest	00000000 I_slti_cg_cr_rs1_imm_edges_rs1val_0x2_immval_0x100
0000a4b3 l       .data	00000000 I_slti_cg_cr_rs1_imm_edges_rs1val_0x2_immval_0x100_str
00001264 l       .text.rvtest	00000000 I_slti_cg_cr_rs1_imm_edges_rs1val_0x2_immval_0x200
0000a503 l       .data	00000000 I_slti_cg_cr_rs1_imm_edges_rs1val_0x2_immval_0x200_str
00001288 l       .text.rvtest	00000000 I_slti_cg_cr_rs1_imm_edges_rs1val_0x2_immval_0x3ff
0000a553 l       .data	00000000 I_slti_cg_cr_rs1_imm_edges_rs1val_0x2_immval_0x3ff_str
000012ac l       .text.rvtest	00000000 I_slti_cg_cr_rs1_imm_edges_rs1val_0x2_immval_0x400
0000a5a3 l       .data	00000000 I_slti_cg_cr_rs1_imm_edges_rs1val_0x2_immval_0x400_str
000012d0 l       .text.rvtest	00000000 I_slti_cg_cr_rs1_imm_edges_rs1val_0x2_immval_0x703
0000a5f3 l       .data	00000000 I_slti_cg_cr_rs1_imm_edges_rs1val_0x2_immval_0x703_str
000012f4 l       .text.rvtest	00000000 I_slti_cg_cr_rs1_imm_edges_rs1val_0x2_immval_0x7ff
0000a643 l       .data	00000000 I_slti_cg_cr_rs1_imm_edges_rs1val_0x2_immval_0x7ff_str
00001318 l       .text.rvtest	00000000 I_slti_cg_cr_rs1_imm_edges_rs1val_0x2_immval_m0x800
0000a693 l       .data	00000000 I_slti_cg_cr_rs1_imm_edges_rs1val_0x2_immval_m0x800_str
0000133c l       .text.rvtest	00000000 I_slti_cg_cr_rs1_imm_edges_rs1val_0x2_immval_m0x7ff
0000a6e4 l       .data	00000000 I_slti_cg_cr_rs1_imm_edges_rs1val_0x2_immval_m0x7ff_str
00001360 l       .text.rvtest	00000000 I_slti_cg_cr_rs1_imm_edges_rs1val_0x2_immval_m0x2
0000a735 l       .data	00000000 I_slti_cg_cr_rs1_imm_edges_rs1val_0x2_immval_m0x2_str
00001384 l       .text.rvtest	00000000 I_slti_cg_cr_rs1_imm_edges_rs1val_0x2_immval_m0x1
0000a784 l       .data	00000000 I_slti_cg_cr_rs1_imm_edges_rs1val_0x2_immval_m0x1_str
000013a8 l       .text.rvtest	00000000 I_slti_cg_cr_rs1_imm_edges_rs1val_0x80000000_immval_0x0
0000a7d3 l       .data	00000000 I_slti_cg_cr_rs1_imm_edges_rs1val_0x80000000_immval_0x0_str
000013cc l       .text.rvtest	00000000 I_slti_cg_cr_rs1_imm_edges_rs1val_0x80000000_immval_0x1
0000a828 l       .data	00000000 I_slti_cg_cr_rs1_imm_edges_rs1val_0x80000000_immval_0x1_str
000013f0 l       .text.rvtest	00000000 I_slti_cg_cr_rs1_imm_edges_rs1val_0x80000000_immval_0x2
0000a87d l       .data	00000000 I_slti_cg_cr_rs1_imm_edges_rs1val_0x80000000_immval_0x2_str
00001414 l       .text.rvtest	00000000 I_slti_cg_cr_rs1_imm_edges_rs1val_0x80000000_immval_0x3
0000a8d2 l       .data	00000000 I_slti_cg_cr_rs1_imm_edges_rs1val_0x80000000_immval_0x3_str
00001438 l       .text.rvtest	00000000 I_slti_cg_cr_rs1_imm_edges_rs1val_0x80000000_immval_0x4
0000a927 l       .data	00000000 I_slti_cg_cr_rs1_imm_edges_rs1val_0x80000000_immval_0x4_str
0000145c l       .text.rvtest	00000000 I_slti_cg_cr_rs1_imm_edges_rs1val_0x80000000_immval_0x8
0000a97c l       .data	00000000 I_slti_cg_cr_rs1_imm_edges_rs1val_0x80000000_immval_0x8_str
00001480 l       .text.rvtest	00000000 I_slti_cg_cr_rs1_imm_edges_rs1val_0x80000000_immval_0x10
0000a9d1 l       .data	00000000 I_slti_cg_cr_rs1_imm_edges_rs1val_0x80000000_immval_0x10_str
000014a4 l       .text.rvtest	00000000 I_slti_cg_cr_rs1_imm_edges_rs1val_0x80000000_immval_0x20
0000aa27 l       .data	00000000 I_slti_cg_cr_rs1_imm_edges_rs1val_0x80000000_immval_0x20_str
000014c8 l       .text.rvtest	00000000 I_slti_cg_cr_rs1_imm_edges_rs1val_0x80000000_immval_0x40
0000aa7d l       .data	00000000 I_slti_cg_cr_rs1_imm_edges_rs1val_0x80000000_immval_0x40_str
000014ec l       .text.rvtest	00000000 I_slti_cg_cr_rs1_imm_edges_rs1val_0x80000000_immval_0x80
0000aad3 l       .data	00000000 I_slti_cg_cr_rs1_imm_edges_rs1val_0x80000000_immval_0x80_str
00001510 l       .text.rvtest	00000000 I_slti_cg_cr_rs1_imm_edges_rs1val_0x80000000_immval_0x100
0000ab29 l       .data	00000000 I_slti_cg_cr_rs1_imm_edges_rs1val_0x80000000_immval_0x100_str
00001534 l       .text.rvtest	00000000 I_slti_cg_cr_rs1_imm_edges_rs1val_0x80000000_immval_0x200
0000ab80 l       .data	00000000 I_slti_cg_cr_rs1_imm_edges_rs1val_0x80000000_immval_0x200_str
00001558 l       .text.rvtest	00000000 I_slti_cg_cr_rs1_imm_edges_rs1val_0x80000000_immval_0x3ff
0000abd7 l       .data	00000000 I_slti_cg_cr_rs1_imm_edges_rs1val_0x80000000_immval_0x3ff_str
0000157c l       .text.rvtest	00000000 I_slti_cg_cr_rs1_imm_edges_rs1val_0x80000000_immval_0x400
0000ac2e l       .data	00000000 I_slti_cg_cr_rs1_imm_edges_rs1val_0x80000000_immval_0x400_str
000015a0 l       .text.rvtest	00000000 I_slti_cg_cr_rs1_imm_edges_rs1val_0x80000000_immval_0x703
0000ac85 l       .data	00000000 I_slti_cg_cr_rs1_imm_edges_rs1val_0x80000000_immval_0x703_str
000015c4 l       .text.rvtest	00000000 I_slti_cg_cr_rs1_imm_edges_rs1val_0x80000000_immval_0x7ff
0000acdc l       .data	00000000 I_slti_cg_cr_rs1_imm_edges_rs1val_0x80000000_immval_0x7ff_str
000015e8 l       .text.rvtest	00000000 I_slti_cg_cr_rs1_imm_edges_rs1val_0x80000000_immval_m0x800
0000ad33 l       .data	00000000 I_slti_cg_cr_rs1_imm_edges_rs1val_0x80000000_immval_m0x800_str
0000160c l       .text.rvtest	00000000 I_slti_cg_cr_rs1_imm_edges_rs1val_0x80000000_immval_m0x7ff
0000ad8b l       .data	00000000 I_slti_cg_cr_rs1_imm_edges_rs1val_0x80000000_immval_m0x7ff_str
00001630 l       .text.rvtest	00000000 I_slti_cg_cr_rs1_imm_edges_rs1val_0x80000000_immval_m0x2
0000ade3 l       .data	00000000 I_slti_cg_cr_rs1_imm_edges_rs1val_0x80000000_immval_m0x2_str
00001654 l       .text.rvtest	00000000 I_slti_cg_cr_rs1_imm_edges_rs1val_0x80000000_immval_m0x1
0000ae39 l       .data	00000000 I_slti_cg_cr_rs1_imm_edges_rs1val_0x80000000_immval_m0x1_str
00001678 l       .text.rvtest	00000000 I_slti_cg_cr_rs1_imm_edges_rs1val_0x80000001_immval_0x0
0000ae8f l       .data	00000000 I_slti_cg_cr_rs1_imm_edges_rs1val_0x80000001_immval_0x0_str
0000169c l       .text.rvtest	00000000 I_slti_cg_cr_rs1_imm_edges_rs1val_0x80000001_immval_0x1
0000aee4 l       .data	00000000 I_slti_cg_cr_rs1_imm_edges_rs1val_0x80000001_immval_0x1_str
000016c0 l       .text.rvtest	00000000 I_slti_cg_cr_rs1_imm_edges_rs1val_0x80000001_immval_0x2
0000af39 l       .data	00000000 I_slti_cg_cr_rs1_imm_edges_rs1val_0x80000001_immval_0x2_str
000016e4 l       .text.rvtest	00000000 I_slti_cg_cr_rs1_imm_edges_rs1val_0x80000001_immval_0x3
0000af8e l       .data	00000000 I_slti_cg_cr_rs1_imm_edges_rs1val_0x80000001_immval_0x3_str
00001708 l       .text.rvtest	00000000 I_slti_cg_cr_rs1_imm_edges_rs1val_0x80000001_immval_0x4
0000afe3 l       .data	00000000 I_slti_cg_cr_rs1_imm_edges_rs1val_0x80000001_immval_0x4_str
0000172c l       .text.rvtest	00000000 I_slti_cg_cr_rs1_imm_edges_rs1val_0x80000001_immval_0x8
0000b038 l       .data	00000000 I_slti_cg_cr_rs1_imm_edges_rs1val_0x80000001_immval_0x8_str
00001750 l       .text.rvtest	00000000 I_slti_cg_cr_rs1_imm_edges_rs1val_0x80000001_immval_0x10
0000b08d l       .data	00000000 I_slti_cg_cr_rs1_imm_edges_rs1val_0x80000001_immval_0x10_str
00001774 l       .text.rvtest	00000000 I_slti_cg_cr_rs1_imm_edges_rs1val_0x80000001_immval_0x20
0000b0e3 l       .data	00000000 I_slti_cg_cr_rs1_imm_edges_rs1val_0x80000001_immval_0x20_str
00001798 l       .text.rvtest	00000000 I_slti_cg_cr_rs1_imm_edges_rs1val_0x80000001_immval_0x40
0000b139 l       .data	00000000 I_slti_cg_cr_rs1_imm_edges_rs1val_0x80000001_immval_0x40_str
000017bc l       .text.rvtest	00000000 I_slti_cg_cr_rs1_imm_edges_rs1val_0x80000001_immval_0x80
0000b18f l       .data	00000000 I_slti_cg_cr_rs1_imm_edges_rs1val_0x80000001_immval_0x80_str
000017e0 l       .text.rvtest	00000000 I_slti_cg_cr_rs1_imm_edges_rs1val_0x80000001_immval_0x100
0000b1e5 l       .data	00000000 I_slti_cg_cr_rs1_imm_edges_rs1val_0x80000001_immval_0x100_str
00001804 l       .text.rvtest	00000000 I_slti_cg_cr_rs1_imm_edges_rs1val_0x80000001_immval_0x200
0000b23c l       .data	00000000 I_slti_cg_cr_rs1_imm_edges_rs1val_0x80000001_immval_0x200_str
00001828 l       .text.rvtest	00000000 I_slti_cg_cr_rs1_imm_edges_rs1val_0x80000001_immval_0x3ff
0000b293 l       .data	00000000 I_slti_cg_cr_rs1_imm_edges_rs1val_0x80000001_immval_0x3ff_str
0000184c l       .text.rvtest	00000000 I_slti_cg_cr_rs1_imm_edges_rs1val_0x80000001_immval_0x400
0000b2ea l       .data	00000000 I_slti_cg_cr_rs1_imm_edges_rs1val_0x80000001_immval_0x400_str
00001870 l       .text.rvtest	00000000 I_slti_cg_cr_rs1_imm_edges_rs1val_0x80000001_immval_0x703
0000b341 l       .data	00000000 I_slti_cg_cr_rs1_imm_edges_rs1val_0x80000001_immval_0x703_str
00001894 l       .text.rvtest	00000000 I_slti_cg_cr_rs1_imm_edges_rs1val_0x80000001_immval_0x7ff
0000b398 l       .data	00000000 I_slti_cg_cr_rs1_imm_edges_rs1val_0x80000001_immval_0x7ff_str
000018b8 l       .text.rvtest	00000000 I_slti_cg_cr_rs1_imm_edges_rs1val_0x80000001_immval_m0x800
0000b3ef l       .data	00000000 I_slti_cg_cr_rs1_imm_edges_rs1val_0x80000001_immval_m0x800_str
000018dc l       .text.rvtest	00000000 I_slti_cg_cr_rs1_imm_edges_rs1val_0x80000001_immval_m0x7ff
0000b447 l       .data	00000000 I_slti_cg_cr_rs1_imm_edges_rs1val_0x80000001_immval_m0x7ff_str
00001900 l       .text.rvtest	00000000 I_slti_cg_cr_rs1_imm_edges_rs1val_0x80000001_immval_m0x2
0000b49f l       .data	00000000 I_slti_cg_cr_rs1_imm_edges_rs1val_0x80000001_immval_m0x2_str
00001924 l       .text.rvtest	00000000 I_slti_cg_cr_rs1_imm_edges_rs1val_0x80000001_immval_m0x1
0000b4f5 l       .data	00000000 I_slti_cg_cr_rs1_imm_edges_rs1val_0x80000001_immval_m0x1_str
00001948 l       .text.rvtest	00000000 I_slti_cg_cr_rs1_imm_edges_rs1val_0x7fffffff_immval_0x0
0000b54b l       .data	00000000 I_slti_cg_cr_rs1_imm_edges_rs1val_0x7fffffff_immval_0x0_str
0000196c l       .text.rvtest	00000000 I_slti_cg_cr_rs1_imm_edges_rs1val_0x7fffffff_immval_0x1
0000b5a0 l       .data	00000000 I_slti_cg_cr_rs1_imm_edges_rs1val_0x7fffffff_immval_0x1_str
00001990 l       .text.rvtest	00000000 I_slti_cg_cr_rs1_imm_edges_rs1val_0x7fffffff_immval_0x2
0000b5f5 l       .data	00000000 I_slti_cg_cr_rs1_imm_edges_rs1val_0x7fffffff_immval_0x2_str
000019b4 l       .text.rvtest	00000000 I_slti_cg_cr_rs1_imm_edges_rs1val_0x7fffffff_immval_0x3
0000b64a l       .data	00000000 I_slti_cg_cr_rs1_imm_edges_rs1val_0x7fffffff_immval_0x3_str
000019d8 l       .text.rvtest	00000000 I_slti_cg_cr_rs1_imm_edges_rs1val_0x7fffffff_immval_0x4
0000b69f l       .data	00000000 I_slti_cg_cr_rs1_imm_edges_rs1val_0x7fffffff_immval_0x4_str
000019fc l       .text.rvtest	00000000 I_slti_cg_cr_rs1_imm_edges_rs1val_0x7fffffff_immval_0x8
0000b6f4 l       .data	00000000 I_slti_cg_cr_rs1_imm_edges_rs1val_0x7fffffff_immval_0x8_str
00001a20 l       .text.rvtest	00000000 I_slti_cg_cr_rs1_imm_edges_rs1val_0x7fffffff_immval_0x10
0000b749 l       .data	00000000 I_slti_cg_cr_rs1_imm_edges_rs1val_0x7fffffff_immval_0x10_str
00001a44 l       .text.rvtest	00000000 I_slti_cg_cr_rs1_imm_edges_rs1val_0x7fffffff_immval_0x20
0000b79f l       .data	00000000 I_slti_cg_cr_rs1_imm_edges_rs1val_0x7fffffff_immval_0x20_str
00001a68 l       .text.rvtest	00000000 I_slti_cg_cr_rs1_imm_edges_rs1val_0x7fffffff_immval_0x40
0000b7f5 l       .data	00000000 I_slti_cg_cr_rs1_imm_edges_rs1val_0x7fffffff_immval_0x40_str
00001a8c l       .text.rvtest	00000000 I_slti_cg_cr_rs1_imm_edges_rs1val_0x7fffffff_immval_0x80
0000b84b l       .data	00000000 I_slti_cg_cr_rs1_imm_edges_rs1val_0x7fffffff_immval_0x80_str
00001ab0 l       .text.rvtest	00000000 I_slti_cg_cr_rs1_imm_edges_rs1val_0x7fffffff_immval_0x100
0000b8a1 l       .data	00000000 I_slti_cg_cr_rs1_imm_edges_rs1val_0x7fffffff_immval_0x100_str
00001ad4 l       .text.rvtest	00000000 I_slti_cg_cr_rs1_imm_edges_rs1val_0x7fffffff_immval_0x200
0000b8f8 l       .data	00000000 I_slti_cg_cr_rs1_imm_edges_rs1val_0x7fffffff_immval_0x200_str
00001af8 l       .text.rvtest	00000000 I_slti_cg_cr_rs1_imm_edges_rs1val_0x7fffffff_immval_0x3ff
0000b94f l       .data	00000000 I_slti_cg_cr_rs1_imm_edges_rs1val_0x7fffffff_immval_0x3ff_str
00001b1c l       .text.rvtest	00000000 I_slti_cg_cr_rs1_imm_edges_rs1val_0x7fffffff_immval_0x400
0000b9a6 l       .data	00000000 I_slti_cg_cr_rs1_imm_edges_rs1val_0x7fffffff_immval_0x400_str
00001b40 l       .text.rvtest	00000000 I_slti_cg_cr_rs1_imm_edges_rs1val_0x7fffffff_immval_0x703
0000b9fd l       .data	00000000 I_slti_cg_cr_rs1_imm_edges_rs1val_0x7fffffff_immval_0x703_str
00001b64 l       .text.rvtest	00000000 I_slti_cg_cr_rs1_imm_edges_rs1val_0x7fffffff_immval_0x7ff
0000ba54 l       .data	00000000 I_slti_cg_cr_rs1_imm_edges_rs1val_0x7fffffff_immval_0x7ff_str
00001b88 l       .text.rvtest	00000000 I_slti_cg_cr_rs1_imm_edges_rs1val_0x7fffffff_immval_m0x800
0000baab l       .data	00000000 I_slti_cg_cr_rs1_imm_edges_rs1val_0x7fffffff_immval_m0x800_str
00001bac l       .text.rvtest	00000000 I_slti_cg_cr_rs1_imm_edges_rs1val_0x7fffffff_immval_m0x7ff
0000bb03 l       .data	00000000 I_slti_cg_cr_rs1_imm_edges_rs1val_0x7fffffff_immval_m0x7ff_str
00001bd0 l       .text.rvtest	00000000 I_slti_cg_cr_rs1_imm_edges_rs1val_0x7fffffff_immval_m0x2
0000bb5b l       .data	00000000 I_slti_cg_cr_rs1_imm_edges_rs1val_0x7fffffff_immval_m0x2_str
00001bf4 l       .text.rvtest	00000000 I_slti_cg_cr_rs1_imm_edges_rs1val_0x7fffffff_immval_m0x1
0000bbb1 l       .data	00000000 I_slti_cg_cr_rs1_imm_edges_rs1val_0x7fffffff_immval_m0x1_str
00001c18 l       .text.rvtest	00000000 I_slti_cg_cr_rs1_imm_edges_rs1val_0x7ffffffe_immval_0x0
0000bc07 l       .data	00000000 I_slti_cg_cr_rs1_imm_edges_rs1val_0x7ffffffe_immval_0x0_str
00001c3c l       .text.rvtest	00000000 I_slti_cg_cr_rs1_imm_edges_rs1val_0x7ffffffe_immval_0x1
0000bc5c l       .data	00000000 I_slti_cg_cr_rs1_imm_edges_rs1val_0x7ffffffe_immval_0x1_str
00001c60 l       .text.rvtest	00000000 I_slti_cg_cr_rs1_imm_edges_rs1val_0x7ffffffe_immval_0x2
0000bcb1 l       .data	00000000 I_slti_cg_cr_rs1_imm_edges_rs1val_0x7ffffffe_immval_0x2_str
00001c84 l       .text.rvtest	00000000 I_slti_cg_cr_rs1_imm_edges_rs1val_0x7ffffffe_immval_0x3
0000bd06 l       .data	00000000 I_slti_cg_cr_rs1_imm_edges_rs1val_0x7ffffffe_immval_0x3_str
00001ca8 l       .text.rvtest	00000000 I_slti_cg_cr_rs1_imm_edges_rs1val_0x7ffffffe_immval_0x4
0000bd5b l       .data	00000000 I_slti_cg_cr_rs1_imm_edges_rs1val_0x7ffffffe_immval_0x4_str
00001ccc l       .text.rvtest	00000000 I_slti_cg_cr_rs1_imm_edges_rs1val_0x7ffffffe_immval_0x8
0000bdb0 l       .data	00000000 I_slti_cg_cr_rs1_imm_edges_rs1val_0x7ffffffe_immval_0x8_str
00001cf0 l       .text.rvtest	00000000 I_slti_cg_cr_rs1_imm_edges_rs1val_0x7ffffffe_immval_0x10
0000be05 l       .data	00000000 I_slti_cg_cr_rs1_imm_edges_rs1val_0x7ffffffe_immval_0x10_str
00001d14 l       .text.rvtest	00000000 I_slti_cg_cr_rs1_imm_edges_rs1val_0x7ffffffe_immval_0x20
0000be5b l       .data	00000000 I_slti_cg_cr_rs1_imm_edges_rs1val_0x7ffffffe_immval_0x20_str
00001d38 l       .text.rvtest	00000000 I_slti_cg_cr_rs1_imm_edges_rs1val_0x7ffffffe_immval_0x40
0000beb1 l       .data	00000000 I_slti_cg_cr_rs1_imm_edges_rs1val_0x7ffffffe_immval_0x40_str
00001d5c l       .text.rvtest	00000000 I_slti_cg_cr_rs1_imm_edges_rs1val_0x7ffffffe_immval_0x80
0000bf07 l       .data	00000000 I_slti_cg_cr_rs1_imm_edges_rs1val_0x7ffffffe_immval_0x80_str
00001d80 l       .text.rvtest	00000000 I_slti_cg_cr_rs1_imm_edges_rs1val_0x7ffffffe_immval_0x100
0000bf5d l       .data	00000000 I_slti_cg_cr_rs1_imm_edges_rs1val_0x7ffffffe_immval_0x100_str
00001da4 l       .text.rvtest	00000000 I_slti_cg_cr_rs1_imm_edges_rs1val_0x7ffffffe_immval_0x200
0000bfb4 l       .data	00000000 I_slti_cg_cr_rs1_imm_edges_rs1val_0x7ffffffe_immval_0x200_str
00001dc8 l       .text.rvtest	00000000 I_slti_cg_cr_rs1_imm_edges_rs1val_0x7ffffffe_immval_0x3ff
0000c00b l       .data	00000000 I_slti_cg_cr_rs1_imm_edges_rs1val_0x7ffffffe_immval_0x3ff_str
00001dec l       .text.rvtest	00000000 I_slti_cg_cr_rs1_imm_edges_rs1val_0x7ffffffe_immval_0x400
0000c062 l       .data	00000000 I_slti_cg_cr_rs1_imm_edges_rs1val_0x7ffffffe_immval_0x400_str
00001e10 l       .text.rvtest	00000000 I_slti_cg_cr_rs1_imm_edges_rs1val_0x7ffffffe_immval_0x703
0000c0b9 l       .data	00000000 I_slti_cg_cr_rs1_imm_edges_rs1val_0x7ffffffe_immval_0x703_str
00001e34 l       .text.rvtest	00000000 I_slti_cg_cr_rs1_imm_edges_rs1val_0x7ffffffe_immval_0x7ff
0000c110 l       .data	00000000 I_slti_cg_cr_rs1_imm_edges_rs1val_0x7ffffffe_immval_0x7ff_str
00001e58 l       .text.rvtest	00000000 I_slti_cg_cr_rs1_imm_edges_rs1val_0x7ffffffe_immval_m0x800
0000c167 l       .data	00000000 I_slti_cg_cr_rs1_imm_edges_rs1val_0x7ffffffe_immval_m0x800_str
00001e7c l       .text.rvtest	00000000 I_slti_cg_cr_rs1_imm_edges_rs1val_0x7ffffffe_immval_m0x7ff
0000c1bf l       .data	00000000 I_slti_cg_cr_rs1_imm_edges_rs1val_0x7ffffffe_immval_m0x7ff_str
00001ea0 l       .text.rvtest	00000000 I_slti_cg_cr_rs1_imm_edges_rs1val_0x7ffffffe_immval_m0x2
0000c217 l       .data	00000000 I_slti_cg_cr_rs1_imm_edges_rs1val_0x7ffffffe_immval_m0x2_str
00001ec4 l       .text.rvtest	00000000 I_slti_cg_cr_rs1_imm_edges_rs1val_0x7ffffffe_immval_m0x1
0000c26d l       .data	00000000 I_slti_cg_cr_rs1_imm_edges_rs1val_0x7ffffffe_immval_m0x1_str
00001ee8 l       .text.rvtest	00000000 I_slti_cg_cr_rs1_imm_edges_rs1val_0xffffffff_immval_0x0
0000c2c3 l       .data	00000000 I_slti_cg_cr_rs1_imm_edges_rs1val_0xffffffff_immval_0x0_str
00001f0c l       .text.rvtest	00000000 I_slti_cg_cr_rs1_imm_edges_rs1val_0xffffffff_immval_0x1
0000c318 l       .data	00000000 I_slti_cg_cr_rs1_imm_edges_rs1val_0xffffffff_immval_0x1_str
00001f30 l       .text.rvtest	00000000 I_slti_cg_cr_rs1_imm_edges_rs1val_0xffffffff_immval_0x2
0000c36d l       .data	00000000 I_slti_cg_cr_rs1_imm_edges_rs1val_0xffffffff_immval_0x2_str
00001f54 l       .text.rvtest	00000000 I_slti_cg_cr_rs1_imm_edges_rs1val_0xffffffff_immval_0x3
0000c3c2 l       .data	00000000 I_slti_cg_cr_rs1_imm_edges_rs1val_0xffffffff_immval_0x3_str
00001f78 l       .text.rvtest	00000000 I_slti_cg_cr_rs1_imm_edges_rs1val_0xffffffff_immval_0x4
0000c417 l       .data	00000000 I_slti_cg_cr_rs1_imm_edges_rs1val_0xffffffff_immval_0x4_str
00001f9c l       .text.rvtest	00000000 I_slti_cg_cr_rs1_imm_edges_rs1val_0xffffffff_immval_0x8
0000c46c l       .data	00000000 I_slti_cg_cr_rs1_imm_edges_rs1val_0xffffffff_immval_0x8_str
00001fc0 l       .text.rvtest	00000000 I_slti_cg_cr_rs1_imm_edges_rs1val_0xffffffff_immval_0x10
0000c4c1 l       .data	00000000 I_slti_cg_cr_rs1_imm_edges_rs1val_0xffffffff_immval_0x10_str
00001fe4 l       .text.rvtest	00000000 I_slti_cg_cr_rs1_imm_edges_rs1val_0xffffffff_immval_0x20
0000c517 l       .data	00000000 I_slti_cg_cr_rs1_imm_edges_rs1val_0xffffffff_immval_0x20_str
00002008 l       .text.rvtest	00000000 I_slti_cg_cr_rs1_imm_edges_rs1val_0xffffffff_immval_0x40
0000c56d l       .data	00000000 I_slti_cg_cr_rs1_imm_edges_rs1val_0xffffffff_immval_0x40_str
0000202c l       .text.rvtest	00000000 I_slti_cg_cr_rs1_imm_edges_rs1val_0xffffffff_immval_0x80
0000c5c3 l       .data	00000000 I_slti_cg_cr_rs1_imm_edges_rs1val_0xffffffff_immval_0x80_str
00002050 l       .text.rvtest	00000000 I_slti_cg_cr_rs1_imm_edges_rs1val_0xffffffff_immval_0x100
0000c619 l       .data	00000000 I_slti_cg_cr_rs1_imm_edges_rs1val_0xffffffff_immval_0x100_str
00002074 l       .text.rvtest	00000000 I_slti_cg_cr_rs1_imm_edges_rs1val_0xffffffff_immval_0x200
0000c670 l       .data	00000000 I_slti_cg_cr_rs1_imm_edges_rs1val_0xffffffff_immval_0x200_str
00002098 l       .text.rvtest	00000000 I_slti_cg_cr_rs1_imm_edges_rs1val_0xffffffff_immval_0x3ff
0000c6c7 l       .data	00000000 I_slti_cg_cr_rs1_imm_edges_rs1val_0xffffffff_immval_0x3ff_str
000020bc l       .text.rvtest	00000000 I_slti_cg_cr_rs1_imm_edges_rs1val_0xffffffff_immval_0x400
0000c71e l       .data	00000000 I_slti_cg_cr_rs1_imm_edges_rs1val_0xffffffff_immval_0x400_str
000020e0 l       .text.rvtest	00000000 I_slti_cg_cr_rs1_imm_edges_rs1val_0xffffffff_immval_0x703
0000c775 l       .data	00000000 I_slti_cg_cr_rs1_imm_edges_rs1val_0xffffffff_immval_0x703_str
00002104 l       .text.rvtest	00000000 I_slti_cg_cr_rs1_imm_edges_rs1val_0xffffffff_immval_0x7ff
0000c7cc l       .data	00000000 I_slti_cg_cr_rs1_imm_edges_rs1val_0xffffffff_immval_0x7ff_str
00002128 l       .text.rvtest	00000000 I_slti_cg_cr_rs1_imm_edges_rs1val_0xffffffff_immval_m0x800
0000c823 l       .data	00000000 I_slti_cg_cr_rs1_imm_edges_rs1val_0xffffffff_immval_m0x800_str
0000214c l       .text.rvtest	00000000 I_slti_cg_cr_rs1_imm_edges_rs1val_0xffffffff_immval_m0x7ff
0000c87b l       .data	00000000 I_slti_cg_cr_rs1_imm_edges_rs1val_0xffffffff_immval_m0x7ff_str
00002170 l       .text.rvtest	00000000 I_slti_cg_cr_rs1_imm_edges_rs1val_0xffffffff_immval_m0x2
0000c8d3 l       .data	00000000 I_slti_cg_cr_rs1_imm_edges_rs1val_0xffffffff_immval_m0x2_str
00002194 l       .text.rvtest	00000000 I_slti_cg_cr_rs1_imm_edges_rs1val_0xffffffff_immval_m0x1
0000c929 l       .data	00000000 I_slti_cg_cr_rs1_imm_edges_rs1val_0xffffffff_immval_m0x1_str
000021b8 l       .text.rvtest	00000000 I_slti_cg_cr_rs1_imm_edges_rs1val_0xfffffffe_immval_0x0
0000c97f l       .data	00000000 I_slti_cg_cr_rs1_imm_edges_rs1val_0xfffffffe_immval_0x0_str
000021dc l       .text.rvtest	00000000 I_slti_cg_cr_rs1_imm_edges_rs1val_0xfffffffe_immval_0x1
0000c9d4 l       .data	00000000 I_slti_cg_cr_rs1_imm_edges_rs1val_0xfffffffe_immval_0x1_str
00002200 l       .text.rvtest	00000000 I_slti_cg_cr_rs1_imm_edges_rs1val_0xfffffffe_immval_0x2
0000ca29 l       .data	00000000 I_slti_cg_cr_rs1_imm_edges_rs1val_0xfffffffe_immval_0x2_str
00002224 l       .text.rvtest	00000000 I_slti_cg_cr_rs1_imm_edges_rs1val_0xfffffffe_immval_0x3
0000ca7e l       .data	00000000 I_slti_cg_cr_rs1_imm_edges_rs1val_0xfffffffe_immval_0x3_str
00002248 l       .text.rvtest	00000000 I_slti_cg_cr_rs1_imm_edges_rs1val_0xfffffffe_immval_0x4
0000cad3 l       .data	00000000 I_slti_cg_cr_rs1_imm_edges_rs1val_0xfffffffe_immval_0x4_str
0000226c l       .text.rvtest	00000000 I_slti_cg_cr_rs1_imm_edges_rs1val_0xfffffffe_immval_0x8
0000cb28 l       .data	00000000 I_slti_cg_cr_rs1_imm_edges_rs1val_0xfffffffe_immval_0x8_str
00002290 l       .text.rvtest	00000000 I_slti_cg_cr_rs1_imm_edges_rs1val_0xfffffffe_immval_0x10
0000cb7d l       .data	00000000 I_slti_cg_cr_rs1_imm_edges_rs1val_0xfffffffe_immval_0x10_str
000022b4 l       .text.rvtest	00000000 I_slti_cg_cr_rs1_imm_edges_rs1val_0xfffffffe_immval_0x20
0000cbd3 l       .data	00000000 I_slti_cg_cr_rs1_imm_edges_rs1val_0xfffffffe_immval_0x20_str
000022d8 l       .text.rvtest	00000000 I_slti_cg_cr_rs1_imm_edges_rs1val_0xfffffffe_immval_0x40
0000cc29 l       .data	00000000 I_slti_cg_cr_rs1_imm_edges_rs1val_0xfffffffe_immval_0x40_str
000022fc l       .text.rvtest	00000000 I_slti_cg_cr_rs1_imm_edges_rs1val_0xfffffffe_immval_0x80
0000cc7f l       .data	00000000 I_slti_cg_cr_rs1_imm_edges_rs1val_0xfffffffe_immval_0x80_str
00002320 l       .text.rvtest	00000000 I_slti_cg_cr_rs1_imm_edges_rs1val_0xfffffffe_immval_0x100
0000ccd5 l       .data	00000000 I_slti_cg_cr_rs1_imm_edges_rs1val_0xfffffffe_immval_0x100_str
00002344 l       .text.rvtest	00000000 I_slti_cg_cr_rs1_imm_edges_rs1val_0xfffffffe_immval_0x200
0000cd2c l       .data	00000000 I_slti_cg_cr_rs1_imm_edges_rs1val_0xfffffffe_immval_0x200_str
00002368 l       .text.rvtest	00000000 I_slti_cg_cr_rs1_imm_edges_rs1val_0xfffffffe_immval_0x3ff
0000cd83 l       .data	00000000 I_slti_cg_cr_rs1_imm_edges_rs1val_0xfffffffe_immval_0x3ff_str
0000238c l       .text.rvtest	00000000 I_slti_cg_cr_rs1_imm_edges_rs1val_0xfffffffe_immval_0x400
0000cdda l       .data	00000000 I_slti_cg_cr_rs1_imm_edges_rs1val_0xfffffffe_immval_0x400_str
000023b0 l       .text.rvtest	00000000 I_slti_cg_cr_rs1_imm_edges_rs1val_0xfffffffe_immval_0x703
0000ce31 l       .data	00000000 I_slti_cg_cr_rs1_imm_edges_rs1val_0xfffffffe_immval_0x703_str
000023d4 l       .text.rvtest	00000000 I_slti_cg_cr_rs1_imm_edges_rs1val_0xfffffffe_immval_0x7ff
0000ce88 l       .data	00000000 I_slti_cg_cr_rs1_imm_edges_rs1val_0xfffffffe_immval_0x7ff_str
000023f8 l       .text.rvtest	00000000 I_slti_cg_cr_rs1_imm_edges_rs1val_0xfffffffe_immval_m0x800
0000cedf l       .data	00000000 I_slti_cg_cr_rs1_imm_edges_rs1val_0xfffffffe_immval_m0x800_str
0000241c l       .text.rvtest	00000000 I_slti_cg_cr_rs1_imm_edges_rs1val_0xfffffffe_immval_m0x7ff
0000cf37 l       .data	00000000 I_slti_cg_cr_rs1_imm_edges_rs1val_0xfffffffe_immval_m0x7ff_str
00002440 l       .text.rvtest	00000000 I_slti_cg_cr_rs1_imm_edges_rs1val_0xfffffffe_immval_m0x2
0000cf8f l       .data	00000000 I_slti_cg_cr_rs1_imm_edges_rs1val_0xfffffffe_immval_m0x2_str
00002464 l       .text.rvtest	00000000 I_slti_cg_cr_rs1_imm_edges_rs1val_0xfffffffe_immval_m0x1
0000cfe5 l       .data	00000000 I_slti_cg_cr_rs1_imm_edges_rs1val_0xfffffffe_immval_m0x1_str
00002488 l       .text.rvtest	00000000 I_slti_cg_cr_rs1_imm_edges_rs1val_0x5bbc8872_immval_0x0
0000d03b l       .data	00000000 I_slti_cg_cr_rs1_imm_edges_rs1val_0x5bbc8872_immval_0x0_str
000024ac l       .text.rvtest	00000000 I_slti_cg_cr_rs1_imm_edges_rs1val_0x5bbc8872_immval_0x1
0000d090 l       .data	00000000 I_slti_cg_cr_rs1_imm_edges_rs1val_0x5bbc8872_immval_0x1_str
000024d0 l       .text.rvtest	00000000 I_slti_cg_cr_rs1_imm_edges_rs1val_0x5bbc8872_immval_0x2
0000d0e5 l       .data	00000000 I_slti_cg_cr_rs1_imm_edges_rs1val_0x5bbc8872_immval_0x2_str
000024f4 l       .text.rvtest	00000000 I_slti_cg_cr_rs1_imm_edges_rs1val_0x5bbc8872_immval_0x3
0000d13a l       .data	00000000 I_slti_cg_cr_rs1_imm_edges_rs1val_0x5bbc8872_immval_0x3_str
00002518 l       .text.rvtest	00000000 I_slti_cg_cr_rs1_imm_edges_rs1val_0x5bbc8872_immval_0x4
0000d18f l       .data	00000000 I_slti_cg_cr_rs1_imm_edges_rs1val_0x5bbc8872_immval_0x4_str
0000253c l       .text.rvtest	00000000 I_slti_cg_cr_rs1_imm_edges_rs1val_0x5bbc8872_immval_0x8
0000d1e4 l       .data	00000000 I_slti_cg_cr_rs1_imm_edges_rs1val_0x5bbc8872_immval_0x8_str
00002560 l       .text.rvtest	00000000 I_slti_cg_cr_rs1_imm_edges_rs1val_0x5bbc8872_immval_0x10
0000d239 l       .data	00000000 I_slti_cg_cr_rs1_imm_edges_rs1val_0x5bbc8872_immval_0x10_str
00002584 l       .text.rvtest	00000000 I_slti_cg_cr_rs1_imm_edges_rs1val_0x5bbc8872_immval_0x20
0000d28f l       .data	00000000 I_slti_cg_cr_rs1_imm_edges_rs1val_0x5bbc8872_immval_0x20_str
000025a8 l       .text.rvtest	00000000 I_slti_cg_cr_rs1_imm_edges_rs1val_0x5bbc8872_immval_0x40
0000d2e5 l       .data	00000000 I_slti_cg_cr_rs1_imm_edges_rs1val_0x5bbc8872_immval_0x40_str
000025cc l       .text.rvtest	00000000 I_slti_cg_cr_rs1_imm_edges_rs1val_0x5bbc8872_immval_0x80
0000d33b l       .data	00000000 I_slti_cg_cr_rs1_imm_edges_rs1val_0x5bbc8872_immval_0x80_str
000025f0 l       .text.rvtest	00000000 I_slti_cg_cr_rs1_imm_edges_rs1val_0x5bbc8872_immval_0x100
0000d391 l       .data	00000000 I_slti_cg_cr_rs1_imm_edges_rs1val_0x5bbc8872_immval_0x100_str
00002614 l       .text.rvtest	00000000 I_slti_cg_cr_rs1_imm_edges_rs1val_0x5bbc8872_immval_0x200
0000d3e8 l       .data	00000000 I_slti_cg_cr_rs1_imm_edges_rs1val_0x5bbc8872_immval_0x200_str
00002638 l       .text.rvtest	00000000 I_slti_cg_cr_rs1_imm_edges_rs1val_0x5bbc8872_immval_0x3ff
0000d43f l       .data	00000000 I_slti_cg_cr_rs1_imm_edges_rs1val_0x5bbc8872_immval_0x3ff_str
0000265c l       .text.rvtest	00000000 I_slti_cg_cr_rs1_imm_edges_rs1val_0x5bbc8872_immval_0x400
0000d496 l       .data	00000000 I_slti_cg_cr_rs1_imm_edges_rs1val_0x5bbc8872_immval_0x400_str
00002680 l       .text.rvtest	00000000 I_slti_cg_cr_rs1_imm_edges_rs1val_0x5bbc8872_immval_0x703
0000d4ed l       .data	00000000 I_slti_cg_cr_rs1_imm_edges_rs1val_0x5bbc8872_immval_0x703_str
000026a4 l       .text.rvtest	00000000 I_slti_cg_cr_rs1_imm_edges_rs1val_0x5bbc8872_immval_0x7ff
0000d544 l       .data	00000000 I_slti_cg_cr_rs1_imm_edges_rs1val_0x5bbc8872_immval_0x7ff_str
000026c8 l       .text.rvtest	00000000 I_slti_cg_cr_rs1_imm_edges_rs1val_0x5bbc8872_immval_m0x800
0000d59b l       .data	00000000 I_slti_cg_cr_rs1_imm_edges_rs1val_0x5bbc8872_immval_m0x800_str
000026ec l       .text.rvtest	00000000 I_slti_cg_cr_rs1_imm_edges_rs1val_0x5bbc8872_immval_m0x7ff
0000d5f3 l       .data	00000000 I_slti_cg_cr_rs1_imm_edges_rs1val_0x5bbc8872_immval_m0x7ff_str
00002710 l       .text.rvtest	00000000 I_slti_cg_cr_rs1_imm_edges_rs1val_0x5bbc8872_immval_m0x2
0000d64b l       .data	00000000 I_slti_cg_cr_rs1_imm_edges_rs1val_0x5bbc8872_immval_m0x2_str
00002734 l       .text.rvtest	00000000 I_slti_cg_cr_rs1_imm_edges_rs1val_0x5bbc8872_immval_m0x1
0000d6a1 l       .data	00000000 I_slti_cg_cr_rs1_imm_edges_rs1val_0x5bbc8872_immval_m0x1_str
00002758 l       .text.rvtest	00000000 I_slti_cg_cr_rs1_imm_edges_rs1val_0xaaaaaaaa_immval_0x0
0000d6f7 l       .data	00000000 I_slti_cg_cr_rs1_imm_edges_rs1val_0xaaaaaaaa_immval_0x0_str
0000277c l       .text.rvtest	00000000 I_slti_cg_cr_rs1_imm_edges_rs1val_0xaaaaaaaa_immval_0x1
0000d74c l       .data	00000000 I_slti_cg_cr_rs1_imm_edges_rs1val_0xaaaaaaaa_immval_0x1_str
000027a0 l       .text.rvtest	00000000 I_slti_cg_cr_rs1_imm_edges_rs1val_0xaaaaaaaa_immval_0x2
0000d7a1 l       .data	00000000 I_slti_cg_cr_rs1_imm_edges_rs1val_0xaaaaaaaa_immval_0x2_str
000027c4 l       .text.rvtest	00000000 I_slti_cg_cr_rs1_imm_edges_rs1val_0xaaaaaaaa_immval_0x3
0000d7f6 l       .data	00000000 I_slti_cg_cr_rs1_imm_edges_rs1val_0xaaaaaaaa_immval_0x3_str
000027e8 l       .text.rvtest	00000000 I_slti_cg_cr_rs1_imm_edges_rs1val_0xaaaaaaaa_immval_0x4
0000d84b l       .data	00000000 I_slti_cg_cr_rs1_imm_edges_rs1val_0xaaaaaaaa_immval_0x4_str
0000280c l       .text.rvtest	00000000 I_slti_cg_cr_rs1_imm_edges_rs1val_0xaaaaaaaa_immval_0x8
0000d8a0 l       .data	00000000 I_slti_cg_cr_rs1_imm_edges_rs1val_0xaaaaaaaa_immval_0x8_str
00002830 l       .text.rvtest	00000000 I_slti_cg_cr_rs1_imm_edges_rs1val_0xaaaaaaaa_immval_0x10
0000d8f5 l       .data	00000000 I_slti_cg_cr_rs1_imm_edges_rs1val_0xaaaaaaaa_immval_0x10_str
00002854 l       .text.rvtest	00000000 I_slti_cg_cr_rs1_imm_edges_rs1val_0xaaaaaaaa_immval_0x20
0000d94b l       .data	00000000 I_slti_cg_cr_rs1_imm_edges_rs1val_0xaaaaaaaa_immval_0x20_str
00002878 l       .text.rvtest	00000000 I_slti_cg_cr_rs1_imm_edges_rs1val_0xaaaaaaaa_immval_0x40
0000d9a1 l       .data	00000000 I_slti_cg_cr_rs1_imm_edges_rs1val_0xaaaaaaaa_immval_0x40_str
0000289c l       .text.rvtest	00000000 I_slti_cg_cr_rs1_imm_edges_rs1val_0xaaaaaaaa_immval_0x80
0000d9f7 l       .data	00000000 I_slti_cg_cr_rs1_imm_edges_rs1val_0xaaaaaaaa_immval_0x80_str
000028c0 l       .text.rvtest	00000000 I_slti_cg_cr_rs1_imm_edges_rs1val_0xaaaaaaaa_immval_0x100
0000da4d l       .data	00000000 I_slti_cg_cr_rs1_imm_edges_rs1val_0xaaaaaaaa_immval_0x100_str
000028e4 l       .text.rvtest	00000000 I_slti_cg_cr_rs1_imm_edges_rs1val_0xaaaaaaaa_immval_0x200
0000daa4 l       .data	00000000 I_slti_cg_cr_rs1_imm_edges_rs1val_0xaaaaaaaa_immval_0x200_str
00002908 l       .text.rvtest	00000000 I_slti_cg_cr_rs1_imm_edges_rs1val_0xaaaaaaaa_immval_0x3ff
0000dafb l       .data	00000000 I_slti_cg_cr_rs1_imm_edges_rs1val_0xaaaaaaaa_immval_0x3ff_str
0000292c l       .text.rvtest	00000000 I_slti_cg_cr_rs1_imm_edges_rs1val_0xaaaaaaaa_immval_0x400
0000db52 l       .data	00000000 I_slti_cg_cr_rs1_imm_edges_rs1val_0xaaaaaaaa_immval_0x400_str
00002950 l       .text.rvtest	00000000 I_slti_cg_cr_rs1_imm_edges_rs1val_0xaaaaaaaa_immval_0x703
0000dba9 l       .data	00000000 I_slti_cg_cr_rs1_imm_edges_rs1val_0xaaaaaaaa_immval_0x703_str
00002974 l       .text.rvtest	00000000 I_slti_cg_cr_rs1_imm_edges_rs1val_0xaaaaaaaa_immval_0x7ff
0000dc00 l       .data	00000000 I_slti_cg_cr_rs1_imm_edges_rs1val_0xaaaaaaaa_immval_0x7ff_str
00002998 l       .text.rvtest	00000000 I_slti_cg_cr_rs1_imm_edges_rs1val_0xaaaaaaaa_immval_m0x800
0000dc57 l       .data	00000000 I_slti_cg_cr_rs1_imm_edges_rs1val_0xaaaaaaaa_immval_m0x800_str
000029bc l       .text.rvtest	00000000 I_slti_cg_cr_rs1_imm_edges_rs1val_0xaaaaaaaa_immval_m0x7ff
0000dcaf l       .data	00000000 I_slti_cg_cr_rs1_imm_edges_rs1val_0xaaaaaaaa_immval_m0x7ff_str
000029e0 l       .text.rvtest	00000000 I_slti_cg_cr_rs1_imm_edges_rs1val_0xaaaaaaaa_immval_m0x2
0000dd07 l       .data	00000000 I_slti_cg_cr_rs1_imm_edges_rs1val_0xaaaaaaaa_immval_m0x2_str
00002a04 l       .text.rvtest	00000000 I_slti_cg_cr_rs1_imm_edges_rs1val_0xaaaaaaaa_immval_m0x1
0000dd5d l       .data	00000000 I_slti_cg_cr_rs1_imm_edges_rs1val_0xaaaaaaaa_immval_m0x1_str
00002a28 l       .text.rvtest	00000000 I_slti_cg_cr_rs1_imm_edges_rs1val_0x55555555_immval_0x0
0000ddb3 l       .data	00000000 I_slti_cg_cr_rs1_imm_edges_rs1val_0x55555555_immval_0x0_str
00002a4c l       .text.rvtest	00000000 I_slti_cg_cr_rs1_imm_edges_rs1val_0x55555555_immval_0x1
0000de08 l       .data	00000000 I_slti_cg_cr_rs1_imm_edges_rs1val_0x55555555_immval_0x1_str
00002a70 l       .text.rvtest	00000000 I_slti_cg_cr_rs1_imm_edges_rs1val_0x55555555_immval_0x2
0000de5d l       .data	00000000 I_slti_cg_cr_rs1_imm_edges_rs1val_0x55555555_immval_0x2_str
00002a94 l       .text.rvtest	00000000 I_slti_cg_cr_rs1_imm_edges_rs1val_0x55555555_immval_0x3
0000deb2 l       .data	00000000 I_slti_cg_cr_rs1_imm_edges_rs1val_0x55555555_immval_0x3_str
00002ab8 l       .text.rvtest	00000000 I_slti_cg_cr_rs1_imm_edges_rs1val_0x55555555_immval_0x4
0000df07 l       .data	00000000 I_slti_cg_cr_rs1_imm_edges_rs1val_0x55555555_immval_0x4_str
00002adc l       .text.rvtest	00000000 I_slti_cg_cr_rs1_imm_edges_rs1val_0x55555555_immval_0x8
0000df5c l       .data	00000000 I_slti_cg_cr_rs1_imm_edges_rs1val_0x55555555_immval_0x8_str
00002b00 l       .text.rvtest	00000000 I_slti_cg_cr_rs1_imm_edges_rs1val_0x55555555_immval_0x10
0000dfb1 l       .data	00000000 I_slti_cg_cr_rs1_imm_edges_rs1val_0x55555555_immval_0x10_str
00002b24 l       .text.rvtest	00000000 I_slti_cg_cr_rs1_imm_edges_rs1val_0x55555555_immval_0x20
0000e007 l       .data	00000000 I_slti_cg_cr_rs1_imm_edges_rs1val_0x55555555_immval_0x20_str
00002b48 l       .text.rvtest	00000000 I_slti_cg_cr_rs1_imm_edges_rs1val_0x55555555_immval_0x40
0000e05d l       .data	00000000 I_slti_cg_cr_rs1_imm_edges_rs1val_0x55555555_immval_0x40_str
00002b6c l       .text.rvtest	00000000 I_slti_cg_cr_rs1_imm_edges_rs1val_0x55555555_immval_0x80
0000e0b3 l       .data	00000000 I_slti_cg_cr_rs1_imm_edges_rs1val_0x55555555_immval_0x80_str
00002b90 l       .text.rvtest	00000000 I_slti_cg_cr_rs1_imm_edges_rs1val_0x55555555_immval_0x100
0000e109 l       .data	00000000 I_slti_cg_cr_rs1_imm_edges_rs1val_0x55555555_immval_0x100_str
00002bb4 l       .text.rvtest	00000000 I_slti_cg_cr_rs1_imm_edges_rs1val_0x55555555_immval_0x200
0000e160 l       .data	00000000 I_slti_cg_cr_rs1_imm_edges_rs1val_0x55555555_immval_0x200_str
00002bd8 l       .text.rvtest	00000000 I_slti_cg_cr_rs1_imm_edges_rs1val_0x55555555_immval_0x3ff
0000e1b7 l       .data	00000000 I_slti_cg_cr_rs1_imm_edges_rs1val_0x55555555_immval_0x3ff_str
00002bfc l       .text.rvtest	00000000 I_slti_cg_cr_rs1_imm_edges_rs1val_0x55555555_immval_0x400
0000e20e l       .data	00000000 I_slti_cg_cr_rs1_imm_edges_rs1val_0x55555555_immval_0x400_str
00002c20 l       .text.rvtest	00000000 I_slti_cg_cr_rs1_imm_edges_rs1val_0x55555555_immval_0x703
0000e265 l       .data	00000000 I_slti_cg_cr_rs1_imm_edges_rs1val_0x55555555_immval_0x703_str
00002c44 l       .text.rvtest	00000000 I_slti_cg_cr_rs1_imm_edges_rs1val_0x55555555_immval_0x7ff
0000e2bc l       .data	00000000 I_slti_cg_cr_rs1_imm_edges_rs1val_0x55555555_immval_0x7ff_str
00002c68 l       .text.rvtest	00000000 I_slti_cg_cr_rs1_imm_edges_rs1val_0x55555555_immval_m0x800
0000e313 l       .data	00000000 I_slti_cg_cr_rs1_imm_edges_rs1val_0x55555555_immval_m0x800_str
00002c8c l       .text.rvtest	00000000 I_slti_cg_cr_rs1_imm_edges_rs1val_0x55555555_immval_m0x7ff
0000e36b l       .data	00000000 I_slti_cg_cr_rs1_imm_edges_rs1val_0x55555555_immval_m0x7ff_str
00002cb0 l       .text.rvtest	00000000 I_slti_cg_cr_rs1_imm_edges_rs1val_0x55555555_immval_m0x2
0000e3c3 l       .data	00000000 I_slti_cg_cr_rs1_imm_edges_rs1val_0x55555555_immval_m0x2_str
00002cd4 l       .text.rvtest	00000000 I_slti_cg_cr_rs1_imm_edges_rs1val_0x55555555_immval_m0x1
0000e419 l       .data	00000000 I_slti_cg_cr_rs1_imm_edges_rs1val_0x55555555_immval_m0x1_str
00002cf8 l       .text.rvtest	00000000 I_slti_cg_cmp_rd_rs1_b0
0000e46f l       .data	00000000 I_slti_cg_cmp_rd_rs1_b0_str
00002d1c l       .text.rvtest	00000000 I_slti_cg_cmp_rd_rs1_b1
0000e4a3 l       .data	00000000 I_slti_cg_cmp_rd_rs1_b1_str
00002d40 l       .text.rvtest	00000000 I_slti_cg_cmp_rd_rs1_b2
0000e4d7 l       .data	00000000 I_slti_cg_cmp_rd_rs1_b2_str
00002d64 l       .text.rvtest	00000000 I_slti_cg_cmp_rd_rs1_b3
0000e50b l       .data	00000000 I_slti_cg_cmp_rd_rs1_b3_str
00002d88 l       .text.rvtest	00000000 I_slti_cg_cmp_rd_rs1_b4
0000e53f l       .data	00000000 I_slti_cg_cmp_rd_rs1_b4_str
00002dac l       .text.rvtest	00000000 I_slti_cg_cmp_rd_rs1_b5
0000e573 l       .data	00000000 I_slti_cg_cmp_rd_rs1_b5_str
00002dd4 l       .text.rvtest	00000000 I_slti_cg_cmp_rd_rs1_b6
0000e5a7 l       .data	00000000 I_slti_cg_cmp_rd_rs1_b6_str
00002e00 l       .text.rvtest	00000000 I_slti_cg_cmp_rd_rs1_b7
0000e5db l       .data	00000000 I_slti_cg_cmp_rd_rs1_b7_str
00002e24 l       .text.rvtest	00000000 I_slti_cg_cmp_rd_rs1_b8
0000e60f l       .data	00000000 I_slti_cg_cmp_rd_rs1_b8_str
00002e48 l       .text.rvtest	00000000 I_slti_cg_cmp_rd_rs1_b9
0000e643 l       .data	00000000 I_slti_cg_cmp_rd_rs1_b9_str
00002e6c l       .text.rvtest	00000000 I_slti_cg_cmp_rd_rs1_b10
0000e677 l       .data	00000000 I_slti_cg_cmp_rd_rs1_b10_str
00002e90 l       .text.rvtest	00000000 I_slti_cg_cmp_rd_rs1_b11
0000e6ac l       .data	00000000 I_slti_cg_cmp_rd_rs1_b11_str
00002eb4 l       .text.rvtest	00000000 I_slti_cg_cmp_rd_rs1_b12
0000e6e1 l       .data	00000000 I_slti_cg_cmp_rd_rs1_b12_str
00002ed8 l       .text.rvtest	00000000 I_slti_cg_cmp_rd_rs1_b13
0000e716 l       .data	00000000 I_slti_cg_cmp_rd_rs1_b13_str
00002efc l       .text.rvtest	00000000 I_slti_cg_cmp_rd_rs1_b14
0000e74b l       .data	00000000 I_slti_cg_cmp_rd_rs1_b14_str
00002f20 l       .text.rvtest	00000000 I_slti_cg_cmp_rd_rs1_b15
0000e780 l       .data	00000000 I_slti_cg_cmp_rd_rs1_b15_str
00002f44 l       .text.rvtest	00000000 I_slti_cg_cmp_rd_rs1_b16
0000e7b5 l       .data	00000000 I_slti_cg_cmp_rd_rs1_b16_str
00002f68 l       .text.rvtest	00000000 I_slti_cg_cmp_rd_rs1_b17
0000e7ea l       .data	00000000 I_slti_cg_cmp_rd_rs1_b17_str
00002f8c l       .text.rvtest	00000000 I_slti_cg_cmp_rd_rs1_b18
0000e81f l       .data	00000000 I_slti_cg_cmp_rd_rs1_b18_str
00002fb4 l       .text.rvtest	00000000 I_slti_cg_cmp_rd_rs1_b19
0000e854 l       .data	00000000 I_slti_cg_cmp_rd_rs1_b19_str
00002fd8 l       .text.rvtest	00000000 I_slti_cg_cmp_rd_rs1_b20
0000e889 l       .data	00000000 I_slti_cg_cmp_rd_rs1_b20_str
00002ffc l       .text.rvtest	00000000 I_slti_cg_cmp_rd_rs1_b21
0000e8be l       .data	00000000 I_slti_cg_cmp_rd_rs1_b21_str
00003020 l       .text.rvtest	00000000 I_slti_cg_cmp_rd_rs1_b22
0000e8f3 l       .data	00000000 I_slti_cg_cmp_rd_rs1_b22_str
00003044 l       .text.rvtest	00000000 I_slti_cg_cmp_rd_rs1_b23
0000e928 l       .data	00000000 I_slti_cg_cmp_rd_rs1_b23_str
00003068 l       .text.rvtest	00000000 I_slti_cg_cmp_rd_rs1_b24
0000e95d l       .data	00000000 I_slti_cg_cmp_rd_rs1_b24_str
00003090 l       .text.rvtest	00000000 I_slti_cg_cmp_rd_rs1_b25
0000e992 l       .data	00000000 I_slti_cg_cmp_rd_rs1_b25_str
000030b4 l       .text.rvtest	00000000 I_slti_cg_cmp_rd_rs1_b26
0000e9c7 l       .data	00000000 I_slti_cg_cmp_rd_rs1_b26_str
000030d8 l       .text.rvtest	00000000 I_slti_cg_cmp_rd_rs1_b27
0000e9fc l       .data	00000000 I_slti_cg_cmp_rd_rs1_b27_str
000030fc l       .text.rvtest	00000000 I_slti_cg_cmp_rd_rs1_b28
0000ea31 l       .data	00000000 I_slti_cg_cmp_rd_rs1_b28_str
00003120 l       .text.rvtest	00000000 I_slti_cg_cmp_rd_rs1_b29
0000ea66 l       .data	00000000 I_slti_cg_cmp_rd_rs1_b29_str
00003144 l       .text.rvtest	00000000 I_slti_cg_cmp_rd_rs1_b30
0000ea9b l       .data	00000000 I_slti_cg_cmp_rd_rs1_b30_str
00003168 l       .text.rvtest	00000000 I_slti_cg_cmp_rd_rs1_b31
0000ead0 l       .data	00000000 I_slti_cg_cmp_rd_rs1_b31_str
0000318c l       .text.rvtest	00000000 I_slti_cg_cp_imm_edges_0x0
0000eb05 l       .data	00000000 I_slti_cg_cp_imm_edges_0x0_str
000031b0 l       .text.rvtest	00000000 I_slti_cg_cp_imm_edges_0x1
0000eb3c l       .data	00000000 I_slti_cg_cp_imm_edges_0x1_str
000031d4 l       .text.rvtest	00000000 I_slti_cg_cp_imm_edges_0x2
0000eb73 l       .data	00000000 I_slti_cg_cp_imm_edges_0x2_str
000031f8 l       .text.rvtest	00000000 I_slti_cg_cp_imm_edges_0x3
0000ebaa l       .data	00000000 I_slti_cg_cp_imm_edges_0x3_str
0000321c l       .text.rvtest	00000000 I_slti_cg_cp_imm_edges_0x4
0000ebe1 l       .data	00000000 I_slti_cg_cp_imm_edges_0x4_str
00003240 l       .text.rvtest	00000000 I_slti_cg_cp_imm_edges_0x8
0000ec18 l       .data	00000000 I_slti_cg_cp_imm_edges_0x8_str
00003264 l       .text.rvtest	00000000 I_slti_cg_cp_imm_edges_0x10
0000ec4f l       .data	00000000 I_slti_cg_cp_imm_edges_0x10_str
00003288 l       .text.rvtest	00000000 I_slti_cg_cp_imm_edges_0x20
0000ec87 l       .data	00000000 I_slti_cg_cp_imm_edges_0x20_str
000032ac l       .text.rvtest	00000000 I_slti_cg_cp_imm_edges_0x40
0000ecbf l       .data	00000000 I_slti_cg_cp_imm_edges_0x40_str
000032d0 l       .text.rvtest	00000000 I_slti_cg_cp_imm_edges_0x80
0000ecf7 l       .data	00000000 I_slti_cg_cp_imm_edges_0x80_str
000032f4 l       .text.rvtest	00000000 I_slti_cg_cp_imm_edges_0x100
0000ed2f l       .data	00000000 I_slti_cg_cp_imm_edges_0x100_str
00003318 l       .text.rvtest	00000000 I_slti_cg_cp_imm_edges_0x200
0000ed68 l       .data	00000000 I_slti_cg_cp_imm_edges_0x200_str
0000333c l       .text.rvtest	00000000 I_slti_cg_cp_imm_edges_0x3ff
0000eda1 l       .data	00000000 I_slti_cg_cp_imm_edges_0x3ff_str
00003360 l       .text.rvtest	00000000 I_slti_cg_cp_imm_edges_0x400
0000edda l       .data	00000000 I_slti_cg_cp_imm_edges_0x400_str
00003384 l       .text.rvtest	00000000 I_slti_cg_cp_imm_edges_0x703
0000ee13 l       .data	00000000 I_slti_cg_cp_imm_edges_0x703_str
000033a8 l       .text.rvtest	00000000 I_slti_cg_cp_imm_edges_0x7ff
0000ee4c l       .data	00000000 I_slti_cg_cp_imm_edges_0x7ff_str
000033cc l       .text.rvtest	00000000 I_slti_cg_cp_imm_edges_m0x800
0000ee85 l       .data	00000000 I_slti_cg_cp_imm_edges_m0x800_str
000033f0 l       .text.rvtest	00000000 I_slti_cg_cp_imm_edges_m0x7ff
0000eebf l       .data	00000000 I_slti_cg_cp_imm_edges_m0x7ff_str
00003414 l       .text.rvtest	00000000 I_slti_cg_cp_imm_edges_m0x2
0000eef9 l       .data	00000000 I_slti_cg_cp_imm_edges_m0x2_str
00003438 l       .text.rvtest	00000000 I_slti_cg_cp_imm_edges_m0x1
0000ef31 l       .data	00000000 I_slti_cg_cp_imm_edges_m0x1_str
00003458 l       .text.rvtest	00000000 exit_cleanup
0000f5d4 l       .data	00000000 successstr
00020204 l       .text.rvmodel	00000000 rvmodel_io_write_str
00020208 l       .text.rvmodel	00000000 rvmodel_halt_pass
00003490 l       .text.rvtest	00000000 abort_test
6f5ca309 l       *ABS*	00000000 immx
6f5ca309 l       *ABS*	00000000 absimm
00000000 l       *ABS*	00000000 cry
00000309 l       *ABS*	00000000 imm12
0000ef70 l       .data	00000000 begin_failure_scratch
00003560 l       .text.rvtest	00000000 failedtest_saveregs
00003504 l       .text.rvtest	00000000 failedtest_trap_x7_x9
0000f0e0 l       .data	00000000 saved_mcause
0000f0e8 l       .data	00000000 saved_mtval
0000f0f0 l       .data	00000000 saved_mstatus
000035d0 l       .text.rvtest	00000000 failedtest_saveresults
0000ef70 l       .data	00000000 failure_type
0000364c l       .text.rvtest	00000000 failedtest_saveresults_trap
000035e0 l       .text.rvtest	00000000 failedtest_saveresults_int
00003a20 l       .text.rvtest	00000000 failedtest_saveresults_common
0000f0c8 l       .data	00000000 trap_diag_fail_str_ptr
0000f79c l       .data	00000000 trap_sig_offset_mismatch
00003900 l       .text.rvtest	00000000 trap_diag_offset_mismatch
0000f0a0 l       .data	00000000 trap_diag_subtype
0000f800 l       .data	00000000 sv_Mvect_str
00003980 l       .text.rvtest	00000000 trap_diag_field_identified
0000f902 l       .data	00000000 sv_Mcause_str
0000f9fd l       .data	00000000 sv_Mepc_str
0000faf0 l       .data	00000000 sv_Mtval_str
0000fc63 l       .data	00000000 sv_Mip_str
0000fbe7 l       .data	00000000 sv_Mtval2_str
0000fc25 l       .data	00000000 sv_Mtinst_str
0000f840 l       .data	00000000 sv_Svect_str
0000f940 l       .data	00000000 sv_Scause_str
0000fa39 l       .data	00000000 sv_Sepc_str
0000fb2d l       .data	00000000 sv_Stval_str
0000fc9e l       .data	00000000 sv_Sip_str
0000f880 l       .data	00000000 sv_Hvect_str
0000f97e l       .data	00000000 sv_Hcause_str
0000fa75 l       .data	00000000 sv_Hepc_str
0000fb6a l       .data	00000000 sv_Htval_str
0000fcd9 l       .data	00000000 sv_Hip_str
0000f8c1 l       .data	00000000 sv_Vvect_str
0000f9bd l       .data	00000000 sv_Vcause_str
0000fab2 l       .data	00000000 sv_Vepc_str
0000fba8 l       .data	00000000 sv_Vtval_str
0000fd15 l       .data	00000000 sv_Vip_str
0000fd52 l       .data	00000000 Mclr_Mext_int_str
0000fda1 l       .data	00000000 Mclr_Sext_int_str
0000fe9c l       .data	00000000 Sclr_Sext_int_str
0000ff98 l       .data	00000000 Hclr_Sext_int_str
00003a10 l       .text.rvtest	00000000 trap_diag_generic_report
0000f0b8 l       .data	00000000 trap_diag_actual_offset
0000f0c0 l       .data	00000000 trap_diag_expected_offset
0000f0a4 l       .data	00000000 trap_diag_mode
0000f0a8 l       .data	00000000 trap_diag_actual_value
0000f0b0 l       .data	00000000 trap_diag_expected_value
00003a50 l       .text.rvtest	00000000 failedtest_report
00003a50 l       .text.rvtest	00000000 print_failstr
0000f60b l       .data	00000000 failstr
00003a88 l       .text.rvtest	00000000 print_testnamestr
0000f69f l       .data	00000000 testnamestr
00003ac8 l       .text.rvtest	00000000 print_failure_test_name_str
0000f090 l       .data	00000000 failure_string_ptr
00003ad8 l       .text.rvtest	00000000 print_newline_str
0000f6b1 l       .data	00000000 newlinestr
00003f0c l       .text.rvtest	00000000 failedtest_report_trap_detailed
0000f6b3 l       .data	00000000 inststr
0000f070 l       .data	00000000 failing_instruction
00004e58 l       .text.rvtest	00000000 failedtest_hex_to_str
0000f0f8 l       .data	00000000 ascii_buffer
0000f6c7 l       .data	00000000 addrstr
0000f078 l       .data	00000000 failing_addr
00010144 l       .data	00000000 regstr
00003cb8 l       .text.rvtest	00000000 failedtest_report_not_intreg
0000f074 l       .data	00000000 failing_reg
00004ed4 l       .text.rvtest	00000000 failedtest_dec_to_str
00003d94 l       .text.rvtest	00000000 failedtest_report_print_regstr
00003d0c l       .text.rvtest	00000000 failedtest_report_fpreg
00003d58 l       .text.rvtest	00000000 failedtest_report_vecreg
000101a4 l       .data	00000000 fflagsstr
00003dc8 l       .text.rvtest	00000000 failedtest_report_after_reg
00010155 l       .data	00000000 badvalstr
00003e2c l       .text.rvtest	00000000 failedtest_report_badval_not_fp
0000f080 l       .data	00000000 failing_value
00003e3c l       .text.rvtest	00000000 failedtest_report_badval_done
0001016c l       .data	00000000 expvalstr
00003ecc l       .text.rvtest	00000000 failedtest_report_expval_not_fp
0000f088 l       .data	00000000 expected_value
00003edc l       .text.rvtest	00000000 failedtest_report_expval_done
00004c04 l       .text.rvtest	00000000 failedtest_report_end
000101d0 l       .data	00000000 trap_diag_header_str
000101fc l       .data	00000000 trap_diag_origstr_label
00003fe0 l       .text.rvtest	00000000 trap_report_offset_mismatch
00004a90 l       .text.rvtest	00000000 trap_report_generic
00004354 l       .text.rvtest	00000000 trap_report_field_mismatch
0001020c l       .data	00000000 trap_diag_count_mismatch_str
0001026d l       .data	00000000 trap_diag_expected_offset_str
00010294 l       .data	00000000 trap_diag_actual_offset_str
00004234 l       .text.rvtest	00000000 trap_report_missing_traps
0000411c l       .text.rvtest	00000000 trap_report_extra_traps
000102bb l       .data	00000000 trap_diag_extra_traps_str
00010340 l       .data	00000000 trap_diag_extra_bytes_str
0001036b l       .data	00000000 trap_diag_extra_hint_str
00004c50 l       .text.rvtest	00000000 failedtest_print_csr_context
000102f5 l       .data	00000000 trap_diag_missing_traps_str
00010453 l       .data	00000000 trap_diag_missing_hint_str
0001053a l       .data	00000000 trap_diag_handler_mode_str
000043e4 l       .text.rvtest	00000000 trap_mode_m
00004424 l       .text.rvtest	00000000 trap_mode_s
00004464 l       .text.rvtest	00000000 trap_mode_h
000044a4 l       .text.rvtest	00000000 trap_mode_v
00010576 l       .data	00000000 trap_diag_mode_unknown_str
000044e0 l       .text.rvtest	00000000 trap_mode_print
00010554 l       .data	00000000 trap_diag_mode_m_str
0001055c l       .data	00000000 trap_diag_mode_s_str
00010564 l       .data	00000000 trap_diag_mode_hs_str
0001056d l       .data	00000000 trap_diag_mode_vs_str
0001057f l       .data	00000000 trap_diag_field_str
000045a4 l       .text.rvtest	00000000 trap_field_vect
000045e4 l       .text.rvtest	00000000 trap_field_cause
00004624 l       .text.rvtest	00000000 trap_field_epc
00004664 l       .text.rvtest	00000000 trap_field_tval
000046a4 l       .text.rvtest	00000000 trap_field_ip
000046e4 l       .text.rvtest	00000000 trap_field_tval2
00004724 l       .text.rvtest	00000000 trap_field_tinst
00004764 l       .text.rvtest	00000000 trap_field_intid
000106d6 l       .data	00000000 trap_diag_field_unknown_str
000047a0 l       .text.rvtest	00000000 trap_field_print
00010599 l       .data	00000000 trap_diag_field_vect_str
000105ca l       .data	00000000 trap_diag_field_cause_str
000105ea l       .data	00000000 trap_diag_field_epc_str
00010608 l       .data	00000000 trap_diag_field_tval_str
00010627 l       .data	00000000 trap_diag_field_ip_str
0001064f l       .data	00000000 trap_diag_field_tval2_str
0001067b l       .data	00000000 trap_diag_field_tinst_str
000106a7 l       .data	00000000 trap_diag_field_intid_str
000106e5 l       .data	00000000 trap_diag_expected_str
000106fc l       .data	00000000 trap_diag_actual_str
0000493c l       .text.rvtest	00000000 trap_field_not_cause
00010713 l       .data	00000000 trap_diag_expected_cause_name_str
00004b74 l       .text.rvtest	00000000 trap_cause_to_str
0001072a l       .data	00000000 trap_diag_actual_cause_name_str
0000493c l       .text.rvtest	00000000 trap_field_not_epc
000107a0 l       .data	00000000 trap_diag_hint_vect_str
00010876 l       .data	00000000 trap_diag_hint_cause_str
00010969 l       .data	00000000 trap_diag_hint_epc_str
00010a64 l       .data	00000000 trap_diag_hint_tval_str
00010b4b l       .data	00000000 trap_diag_hint_ip_str
00010758 l       .data	00000000 trap_diag_generic_str
0000f0d8 l       .data	00000000 saved_mepc
0000f73b l       .data	00000000 xepcinstrstr
00004b98 l       .text.rvtest	00000000 trap_cause_interrupt
00004b78 l       .text.rvtest	00000000 trap_cause_exception
00004bc4 l       .text.rvtest	00000000 trap_cause_unknown
0000f120 l       .data	00000000 trap_excpt_name_tbl
0000f180 l       .data	00000000 trap_int_name_tbl
0000f5be l       .data	00000000 trap_cause_unknown_str
00010183 l       .data	00000000 endstr
00004c48 l       .text.rvtest	00000000 failedtest_terminate
00020214 l       .text.rvmodel	00000000 rvmodel_halt_fail
0000f0d0 l       .data	00000000 csr_context_ret_addr
0000f75c l       .data	00000000 mepcstr
0000f76c l       .data	00000000 mcausestr
0000f77c l       .data	00000000 mtvalstr
0000f78c l       .data	00000000 mstatusstr
00004e98 l       .text.rvtest	00000000 failedtest_hex_to_str_loop
00004eb4 l       .text.rvtest	00000000 failedtest_hex_to_str_digit
00004eb8 l       .text.rvtest	00000000 failedtest_hex_to_str_write
00020000 l       .text.rvmodel	00000000 rvtest_boot_to_mmode
00020000 l       .text.rvmodel	00000000 rvtest_init_regs
00010c30 l       .data	00000000 signature_base
000201a0 l       .text.rvmodel	00000000 canary_check
000101ac l       .data	00000000 canary_mismatch
00008000 l       .data	00000000 scratch
0000f120 l       .data	00000000 end_failure_scratch
0000f1c0 l       .data	00000000 trap_excpt_name_0
0000f1e0 l       .data	00000000 trap_excpt_name_1
0000f1fa l       .data	00000000 trap_excpt_name_2
0000f20f l       .data	00000000 trap_excpt_name_3
0000f21b l       .data	00000000 trap_excpt_name_4
0000f234 l       .data	00000000 trap_excpt_name_5
0000f247 l       .data	00000000 trap_excpt_name_6
0000f265 l       .data	00000000 trap_excpt_name_7
0000f27d l       .data	00000000 trap_excpt_name_8
0000f29b l       .data	00000000 trap_excpt_name_9
0000f2b9 l       .data	00000000 trap_excpt_name_10
0000f2d8 l       .data	00000000 trap_excpt_name_11
0000f2f6 l       .data	00000000 trap_excpt_name_12
0000f30e l       .data	00000000 trap_excpt_name_13
0000f31f l       .data	00000000 trap_excpt_name_14
0000f32e l       .data	00000000 trap_excpt_name_15
0000f344 l       .data	00000000 trap_excpt_name_16
0000f351 l       .data	00000000 trap_excpt_name_17
0000f360 l       .data	00000000 trap_excpt_name_18
0000f370 l       .data	00000000 trap_excpt_name_19
0000f380 l       .data	00000000 trap_excpt_name_20
0000f39e l       .data	00000000 trap_excpt_name_21
0000f3b5 l       .data	00000000 trap_excpt_name_22
0000f3ca l       .data	00000000 trap_excpt_name_23
0000f3e6 l       .data	00000000 trap_int_name_0
0000f3fe l       .data	00000000 trap_int_name_1
0000f41d l       .data	00000000 trap_int_name_2
0000f444 l       .data	00000000 trap_int_name_3
0000f460 l       .data	00000000 trap_int_name_4
0000f478 l       .data	00000000 trap_int_name_5
0000f494 l       .data	00000000 trap_int_name_6
0000f4b8 l       .data	00000000 trap_int_name_7
0000f4d1 l       .data	00000000 trap_int_name_8
0000f4e9 l       .data	00000000 trap_int_name_9
0000f508 l       .data	00000000 trap_int_name_10
0000f52f l       .data	00000000 trap_int_name_11
0000f54b l       .data	00000000 trap_int_name_12
0000f570 l       .data	00000000 trap_int_name_13
0000f58c l       .data	00000000 trap_int_name_14
0000f5a5 l       .data	00000000 trap_int_name_15
0000f661 l       .data	00000000 abortstr
0000f708 l       .data	00000000 xepcstr
0000fdf3 l       .data	00000000 Mclr_Vext_int_str
0000fe4d l       .data	00000000 Sclr_Mext_int_str
0000feee l       .data	00000000 Sclr_Vext_int_str
0000ff48 l       .data	00000000 Hclr_Mext_int_str
0000ffeb l       .data	00000000 Hclr_Vext_int_str
00010046 l       .data	00000000 Vclr_Mext_int_str
00010096 l       .data	00000000 Vclr_Sext_int_str
000100e9 l       .data	00000000 Vclr_Vext_int_str
00010741 l       .data	00000000 trap_diag_curr_xepc_str
00011220 l       .data	00000000 trap_sigptr
0001fc90 g       .data	00000000 end_signature
0001fc90 g       .data	00000000 rvtest_sig_end
00000000 g       .text.init	00000000 rvtest_entry_point
00010c30 g       .data	00000000 begin_signature
00003458 g       .text.rvtest	00000000 rvtest_code_end
00000040 g       .text.rvtest	00000000 rvtest_code_begin
00010c30 g       .data	00000000 rvtest_sig_begin
00008110 g       .data	00000000 rvtest_data_begin
00010c30 g       .data	00000000 rvtest_data_end
00003458 g       .text.rvtest	00000000 cleanup_epilogs
00021000 g       .text.rvmodel	00000000 _end



Disassembly of section .text.init:

00000000 <rvtest_entry_point>:

// Include framework macros
#include "riscv_arch_test.h"

// Set up test environment and declare main entry point
RVTEST_BEGIN
   0:	00020097          	auipc	x1,0x20
   4:	00008093          	addi	x1,x1,0 # 20000 <rvmodel_boot>
   8:	00000013          	addi	x0,x0,0
   c:	00000013          	addi	x0,x0,0
  10:	00000013          	addi	x0,x0,0
  14:	00000013          	addi	x0,x0,0
  18:	00000013          	addi	x0,x0,0
  1c:	00000013          	addi	x0,x0,0
  20:	000080e7          	jalr	x1,0(x1)
  24:	00000013          	addi	x0,x0,0
  28:	00000013          	addi	x0,x0,0
  2c:	00000013          	addi	x0,x0,0
  30:	00000013          	addi	x0,x0,0
  34:	00000013          	addi	x0,x0,0
  38:	00000013          	addi	x0,x0,0
  3c:	00000013          	addi	x0,x0,0

Disassembly of section .text.rvtest:

00000040 <rvtest_code_begin>:
/////////////////////////////////
// cp_rs1
/////////////////////////////////

# Testcase cp_rs1 (Test source rs1 = x0)
  RVTEST_TESTDATA_LOAD_INT(x3, x0) # load rs1: x0 = 0xa8dbc361
      40:	0001a003          	lw	x0,0(x3)
      44:	00418193          	addi	x3,x3,4

00000048 <I_slti_cg_cp_rs1_b0>:
I_slti_cg_cp_rs1_b0:
  slti x19, x0, -265 # perform operation
      48:	ef702993          	slti	x19,x0,-265
  # Check if x19 contains the expected result. x2 is the signature ptr, x5 is the link ptr, x4 is a temp reg.
  RVTEST_SIGUPD(x2, x5, x4, x19, I_slti_cg_cp_rs1_b0, I_slti_cg_cp_rs1_b0_str)
      4c:	00012203          	lw	x4,0(x2)
      50:	01320863          	beq	x4,x19,60 <I_slti_cg_cp_rs1_b0+0x18>
      54:	448032ef          	jal	x5,349c <failedtest_x5_x4>
      58:	00000048          	.word	0x00000048
      5c:	000086d0          	.word	0x000086d0
      60:	00410113          	addi	x2,x2,4

# Testcase cp_rs1 (Test source rs1 = x1)
  RVTEST_TESTDATA_LOAD_INT(x3, x1) # load rs1: x1 = 0x038b0357
      64:	0001a083          	lw	x1,0(x3)
      68:	00418193          	addi	x3,x3,4

0000006c <I_slti_cg_cp_rs1_b1>:
I_slti_cg_cp_rs1_b1:
  slti x28, x1, 890 # perform operation
      6c:	37a0ae13          	slti	x28,x1,890
  # Check if x28 contains the expected result. x2 is the signature ptr, x5 is the link ptr, x4 is a temp reg.
  RVTEST_SIGUPD(x2, x5, x4, x28, I_slti_cg_cp_rs1_b1, I_slti_cg_cp_rs1_b1_str)
      70:	00012203          	lw	x4,0(x2)
      74:	01c20863          	beq	x4,x28,84 <I_slti_cg_cp_rs1_b1+0x18>
      78:	424032ef          	jal	x5,349c <failedtest_x5_x4>
      7c:	0000006c          	.word	0x0000006c
      80:	000086fe          	.word	0x000086fe
      84:	00410113          	addi	x2,x2,4

  mv x9, x2 # switch signature pointer register to avoid conflict with test
      88:	00010493          	addi	x9,x2,0
# Testcase cp_rs1 (Test source rs1 = x2)
  RVTEST_TESTDATA_LOAD_INT(x3, x2) # load rs1: x2 = 0xf92b4a2c
      8c:	0001a103          	lw	x2,0(x3)
      90:	00418193          	addi	x3,x3,4

00000094 <I_slti_cg_cp_rs1_b2>:
I_slti_cg_cp_rs1_b2:
  slti x16, x2, 237 # perform operation
      94:	0ed12813          	slti	x16,x2,237
  # Check if x16 contains the expected result. x9 is the signature ptr, x5 is the link ptr, x4 is a temp reg.
  RVTEST_SIGUPD(x9, x5, x4, x16, I_slti_cg_cp_rs1_b2, I_slti_cg_cp_rs1_b2_str)
      98:	0004a203          	lw	x4,0(x9)
      9c:	01020863          	beq	x4,x16,ac <I_slti_cg_cp_rs1_b2+0x18>
      a0:	3fc032ef          	jal	x5,349c <failedtest_x5_x4>
      a4:	00000094          	.word	0x00000094
      a8:	0000872c          	.word	0x0000872c
      ac:	00448493          	addi	x9,x9,4

  mv x17, x3 # switch data pointer register to avoid conflict with test
      b0:	00018893          	addi	x17,x3,0
# Testcase cp_rs1 (Test source rs1 = x3)
  RVTEST_TESTDATA_LOAD_INT(x17, x3) # load rs1: x3 = 0xd9015050
      b4:	0008a183          	lw	x3,0(x17)
      b8:	00488893          	addi	x17,x17,4

000000bc <I_slti_cg_cp_rs1_b3>:
I_slti_cg_cp_rs1_b3:
  slti x26, x3, -52 # perform operation
      bc:	fcc1ad13          	slti	x26,x3,-52
  # Check if x26 contains the expected result. x9 is the signature ptr, x5 is the link ptr, x4 is a temp reg.
  RVTEST_SIGUPD(x9, x5, x4, x26, I_slti_cg_cp_rs1_b3, I_slti_cg_cp_rs1_b3_str)
      c0:	0004a203          	lw	x4,0(x9)
      c4:	01a20863          	beq	x4,x26,d4 <I_slti_cg_cp_rs1_b3+0x18>
      c8:	3d4032ef          	jal	x5,349c <failedtest_x5_x4>
      cc:	000000bc          	.word	0x000000bc
      d0:	0000875a          	.word	0x0000875a
      d4:	00448493          	addi	x9,x9,4

  mv x13, x4 # switch temp register to avoid conflict with test
      d8:	00020693          	addi	x13,x4,0 # 0 <rvtest_entry_point>
  mv x14, x5 # switch link pointer register to avoid conflict with test
      dc:	00028713          	addi	x14,x5,0
# Testcase cp_rs1 (Test source rs1 = x4)
  RVTEST_TESTDATA_LOAD_INT(x17, x4) # load rs1: x4 = 0x30911112
      e0:	0008a203          	lw	x4,0(x17)
      e4:	00488893          	addi	x17,x17,4

000000e8 <I_slti_cg_cp_rs1_b4>:
I_slti_cg_cp_rs1_b4:
  slti x23, x4, -1181 # perform operation
      e8:	b6322b93          	slti	x23,x4,-1181
  # Check if x23 contains the expected result. x9 is the signature ptr, x14 is the link ptr, x13 is a temp reg.
  RVTEST_SIGUPD(x9, x14, x13, x23, I_slti_cg_cp_rs1_b4, I_slti_cg_cp_rs1_b4_str)
      ec:	0004a683          	lw	x13,0(x9)
      f0:	01768863          	beq	x13,x23,100 <I_slti_cg_cp_rs1_b4+0x18>
      f4:	3e80376f          	jal	x14,34dc <failedtest_x14_x13>
      f8:	000000e8          	.word	0x000000e8
      fc:	00008788          	.word	0x00008788
     100:	00448493          	addi	x9,x9,4

# Testcase cp_rs1 (Test source rs1 = x5)
  RVTEST_TESTDATA_LOAD_INT(x17, x5) # load rs1: x5 = 0x3686d027
     104:	0008a283          	lw	x5,0(x17)
     108:	00488893          	addi	x17,x17,4

0000010c <I_slti_cg_cp_rs1_b5>:
I_slti_cg_cp_rs1_b5:
  slti x24, x5, 816 # perform operation
     10c:	3302ac13          	slti	x24,x5,816
  # Check if x24 contains the expected result. x9 is the signature ptr, x14 is the link ptr, x13 is a temp reg.
  RVTEST_SIGUPD(x9, x14, x13, x24, I_slti_cg_cp_rs1_b5, I_slti_cg_cp_rs1_b5_str)
     110:	0004a683          	lw	x13,0(x9)
     114:	01868863          	beq	x13,x24,124 <I_slti_cg_cp_rs1_b5+0x18>
     118:	3c40376f          	jal	x14,34dc <failedtest_x14_x13>
     11c:	0000010c          	.word	0x0000010c
     120:	000087b6          	.word	0x000087b6
     124:	00448493          	addi	x9,x9,4

# Testcase cp_rs1 (Test source rs1 = x6)
  RVTEST_TESTDATA_LOAD_INT(x17, x6) # load rs1: x6 = 0x6db1bb0f
     128:	0008a303          	lw	x6,0(x17)
     12c:	00488893          	addi	x17,x17,4

00000130 <I_slti_cg_cp_rs1_b6>:
I_slti_cg_cp_rs1_b6:
  slti x30, x6, 1017 # perform operation
     130:	3f932f13          	slti	x30,x6,1017
  # Check if x30 contains the expected result. x9 is the signature ptr, x14 is the link ptr, x13 is a temp reg.
  RVTEST_SIGUPD(x9, x14, x13, x30, I_slti_cg_cp_rs1_b6, I_slti_cg_cp_rs1_b6_str)
     134:	0004a683          	lw	x13,0(x9)
     138:	01e68863          	beq	x13,x30,148 <I_slti_cg_cp_rs1_b6+0x18>
     13c:	3a00376f          	jal	x14,34dc <failedtest_x14_x13>
     140:	00000130          	.word	0x00000130
     144:	000087e4          	.word	0x000087e4
     148:	00448493          	addi	x9,x9,4

# Testcase cp_rs1 (Test source rs1 = x7)
  RVTEST_TESTDATA_LOAD_INT(x17, x7) # load rs1: x7 = 0xd9fbb93a
     14c:	0008a383          	lw	x7,0(x17)
     150:	00488893          	addi	x17,x17,4

00000154 <I_slti_cg_cp_rs1_b7>:
I_slti_cg_cp_rs1_b7:
  slti x30, x7, 1959 # perform operation
     154:	7a73af13          	slti	x30,x7,1959
  # Check if x30 contains the expected result. x9 is the signature ptr, x14 is the link ptr, x13 is a temp reg.
  RVTEST_SIGUPD(x9, x14, x13, x30, I_slti_cg_cp_rs1_b7, I_slti_cg_cp_rs1_b7_str)
     158:	0004a683          	lw	x13,0(x9)
     15c:	01e68863          	beq	x13,x30,16c <I_slti_cg_cp_rs1_b7+0x18>
     160:	37c0376f          	jal	x14,34dc <failedtest_x14_x13>
     164:	00000154          	.word	0x00000154
     168:	00008812          	.word	0x00008812
     16c:	00448493          	addi	x9,x9,4

# Testcase cp_rs1 (Test source rs1 = x8)
  RVTEST_TESTDATA_LOAD_INT(x17, x8) # load rs1: x8 = 0xfab95fa2
     170:	0008a403          	lw	x8,0(x17)
     174:	00488893          	addi	x17,x17,4

00000178 <I_slti_cg_cp_rs1_b8>:
I_slti_cg_cp_rs1_b8:
  slti x7, x8, 262 # perform operation
     178:	10642393          	slti	x7,x8,262
  # Check if x7 contains the expected result. x9 is the signature ptr, x14 is the link ptr, x13 is a temp reg.
  RVTEST_SIGUPD(x9, x14, x13, x7, I_slti_cg_cp_rs1_b8, I_slti_cg_cp_rs1_b8_str)
     17c:	0004a683          	lw	x13,0(x9)
     180:	00768863          	beq	x13,x7,190 <I_slti_cg_cp_rs1_b8+0x18>
     184:	3580376f          	jal	x14,34dc <failedtest_x14_x13>
     188:	00000178          	.word	0x00000178
     18c:	00008840          	.word	0x00008840
     190:	00448493          	addi	x9,x9,4

  mv x28, x9 # switch signature pointer register to avoid conflict with test
     194:	00048e13          	addi	x28,x9,0
# Testcase cp_rs1 (Test source rs1 = x9)
  RVTEST_TESTDATA_LOAD_INT(x17, x9) # load rs1: x9 = 0x6fe8874f
     198:	0008a483          	lw	x9,0(x17)
     19c:	00488893          	addi	x17,x17,4

000001a0 <I_slti_cg_cp_rs1_b9>:
I_slti_cg_cp_rs1_b9:
  slti x16, x9, -639 # perform operation
     1a0:	d814a813          	slti	x16,x9,-639
  # Check if x16 contains the expected result. x28 is the signature ptr, x14 is the link ptr, x13 is a temp reg.
  RVTEST_SIGUPD(x28, x14, x13, x16, I_slti_cg_cp_rs1_b9, I_slti_cg_cp_rs1_b9_str)
     1a4:	000e2683          	lw	x13,0(x28)
     1a8:	01068863          	beq	x13,x16,1b8 <I_slti_cg_cp_rs1_b9+0x18>
     1ac:	3300376f          	jal	x14,34dc <failedtest_x14_x13>
     1b0:	000001a0          	.word	0x000001a0
     1b4:	0000886e          	.word	0x0000886e
     1b8:	004e0e13          	addi	x28,x28,4

# Testcase cp_rs1 (Test source rs1 = x10)
  RVTEST_TESTDATA_LOAD_INT(x17, x10) # load rs1: x10 = 0xb010a3df
     1bc:	0008a503          	lw	x10,0(x17)
     1c0:	00488893          	addi	x17,x17,4

000001c4 <I_slti_cg_cp_rs1_b10>:
I_slti_cg_cp_rs1_b10:
  slti x25, x10, -1871 # perform operation
     1c4:	8b152c93          	slti	x25,x10,-1871
  # Check if x25 contains the expected result. x28 is the signature ptr, x14 is the link ptr, x13 is a temp reg.
  RVTEST_SIGUPD(x28, x14, x13, x25, I_slti_cg_cp_rs1_b10, I_slti_cg_cp_rs1_b10_str)
     1c8:	000e2683          	lw	x13,0(x28)
     1cc:	01968863          	beq	x13,x25,1dc <I_slti_cg_cp_rs1_b10+0x18>
     1d0:	30c0376f          	jal	x14,34dc <failedtest_x14_x13>
     1d4:	000001c4          	.word	0x000001c4
     1d8:	0000889d          	.word	0x0000889d
     1dc:	004e0e13          	addi	x28,x28,4

# Testcase cp_rs1 (Test source rs1 = x11)
  RVTEST_TESTDATA_LOAD_INT(x17, x11) # load rs1: x11 = 0x4aab7ff9
     1e0:	0008a583          	lw	x11,0(x17)
     1e4:	00488893          	addi	x17,x17,4

000001e8 <I_slti_cg_cp_rs1_b11>:
I_slti_cg_cp_rs1_b11:
  slti x12, x11, 7 # perform operation
     1e8:	0075a613          	slti	x12,x11,7
  # Check if x12 contains the expected result. x28 is the signature ptr, x14 is the link ptr, x13 is a temp reg.
  RVTEST_SIGUPD(x28, x14, x13, x12, I_slti_cg_cp_rs1_b11, I_slti_cg_cp_rs1_b11_str)
     1ec:	000e2683          	lw	x13,0(x28)
     1f0:	00c68863          	beq	x13,x12,200 <I_slti_cg_cp_rs1_b11+0x18>
     1f4:	2e80376f          	jal	x14,34dc <failedtest_x14_x13>
     1f8:	000001e8          	.word	0x000001e8
     1fc:	000088cd          	.word	0x000088cd
     200:	004e0e13          	addi	x28,x28,4

# Testcase cp_rs1 (Test source rs1 = x12)
  RVTEST_TESTDATA_LOAD_INT(x17, x12) # load rs1: x12 = 0x319272f4
     204:	0008a603          	lw	x12,0(x17)
     208:	00488893          	addi	x17,x17,4

0000020c <I_slti_cg_cp_rs1_b12>:
I_slti_cg_cp_rs1_b12:
  slti x21, x12, -897 # perform operation
     20c:	c7f62a93          	slti	x21,x12,-897
  # Check if x21 contains the expected result. x28 is the signature ptr, x14 is the link ptr, x13 is a temp reg.
  RVTEST_SIGUPD(x28, x14, x13, x21, I_slti_cg_cp_rs1_b12, I_slti_cg_cp_rs1_b12_str)
     210:	000e2683          	lw	x13,0(x28)
     214:	01568863          	beq	x13,x21,224 <I_slti_cg_cp_rs1_b12+0x18>
     218:	2c40376f          	jal	x14,34dc <failedtest_x14_x13>
     21c:	0000020c          	.word	0x0000020c
     220:	000088fd          	.word	0x000088fd
     224:	004e0e13          	addi	x28,x28,4

  mv x7, x13 # switch temp register to avoid conflict with test
     228:	00068393          	addi	x7,x13,0
  mv x8, x14 # switch link pointer register to avoid conflict with test
     22c:	00070413          	addi	x8,x14,0
# Testcase cp_rs1 (Test source rs1 = x13)
  RVTEST_TESTDATA_LOAD_INT(x17, x13) # load rs1: x13 = 0x41253505
     230:	0008a683          	lw	x13,0(x17)
     234:	00488893          	addi	x17,x17,4

00000238 <I_slti_cg_cp_rs1_b13>:
I_slti_cg_cp_rs1_b13:
  slti x4, x13, -902 # perform operation
     238:	c7a6a213          	slti	x4,x13,-902
  # Check if x4 contains the expected result. x28 is the signature ptr, x8 is the link ptr, x7 is a temp reg.
  RVTEST_SIGUPD(x28, x8, x7, x4, I_slti_cg_cp_rs1_b13, I_slti_cg_cp_rs1_b13_str)
     23c:	000e2383          	lw	x7,0(x28)
     240:	00438863          	beq	x7,x4,250 <I_slti_cg_cp_rs1_b13+0x18>
     244:	2700346f          	jal	x8,34b4 <failedtest_x8_x7>
     248:	00000238          	.word	0x00000238
     24c:	0000892d          	.word	0x0000892d
     250:	004e0e13          	addi	x28,x28,4

# Testcase cp_rs1 (Test source rs1 = x14)
  RVTEST_TESTDATA_LOAD_INT(x17, x14) # load rs1: x14 = 0x9b6fe231
     254:	0008a703          	lw	x14,0(x17)
     258:	00488893          	addi	x17,x17,4

0000025c <I_slti_cg_cp_rs1_b14>:
I_slti_cg_cp_rs1_b14:
  slti x12, x14, 1475 # perform operation
     25c:	5c372613          	slti	x12,x14,1475
  # Check if x12 contains the expected result. x28 is the signature ptr, x8 is the link ptr, x7 is a temp reg.
  RVTEST_SIGUPD(x28, x8, x7, x12, I_slti_cg_cp_rs1_b14, I_slti_cg_cp_rs1_b14_str)
     260:	000e2383          	lw	x7,0(x28)
     264:	00c38863          	beq	x7,x12,274 <I_slti_cg_cp_rs1_b14+0x18>
     268:	24c0346f          	jal	x8,34b4 <failedtest_x8_x7>
     26c:	0000025c          	.word	0x0000025c
     270:	0000895d          	.word	0x0000895d
     274:	004e0e13          	addi	x28,x28,4

# Testcase cp_rs1 (Test source rs1 = x15)
  RVTEST_TESTDATA_LOAD_INT(x17, x15) # load rs1: x15 = 0xd862b741
     278:	0008a783          	lw	x15,0(x17)
     27c:	00488893          	addi	x17,x17,4

00000280 <I_slti_cg_cp_rs1_b15>:
I_slti_cg_cp_rs1_b15:
  slti x27, x15, 55 # perform operation
     280:	0377ad93          	slti	x27,x15,55
  # Check if x27 contains the expected result. x28 is the signature ptr, x8 is the link ptr, x7 is a temp reg.
  RVTEST_SIGUPD(x28, x8, x7, x27, I_slti_cg_cp_rs1_b15, I_slti_cg_cp_rs1_b15_str)
     284:	000e2383          	lw	x7,0(x28)
     288:	01b38863          	beq	x7,x27,298 <I_slti_cg_cp_rs1_b15+0x18>
     28c:	2280346f          	jal	x8,34b4 <failedtest_x8_x7>
     290:	00000280          	.word	0x00000280
     294:	0000898d          	.word	0x0000898d
     298:	004e0e13          	addi	x28,x28,4

# Testcase cp_rs1 (Test source rs1 = x16)
  RVTEST_TESTDATA_LOAD_INT(x17, x16) # load rs1: x16 = 0x7624a431
     29c:	0008a803          	lw	x16,0(x17)
     2a0:	00488893          	addi	x17,x17,4

000002a4 <I_slti_cg_cp_rs1_b16>:
I_slti_cg_cp_rs1_b16:
  slti x25, x16, -1876 # perform operation
     2a4:	8ac82c93          	slti	x25,x16,-1876
  # Check if x25 contains the expected result. x28 is the signature ptr, x8 is the link ptr, x7 is a temp reg.
  RVTEST_SIGUPD(x28, x8, x7, x25, I_slti_cg_cp_rs1_b16, I_slti_cg_cp_rs1_b16_str)
     2a8:	000e2383          	lw	x7,0(x28)
     2ac:	01938863          	beq	x7,x25,2bc <I_slti_cg_cp_rs1_b16+0x18>
     2b0:	2040346f          	jal	x8,34b4 <failedtest_x8_x7>
     2b4:	000002a4          	.word	0x000002a4
     2b8:	000089bd          	.word	0x000089bd
     2bc:	004e0e13          	addi	x28,x28,4

  mv x11, x17 # switch data pointer register to avoid conflict with test
     2c0:	00088593          	addi	x11,x17,0
# Testcase cp_rs1 (Test source rs1 = x17)
  RVTEST_TESTDATA_LOAD_INT(x11, x17) # load rs1: x17 = 0x7c6adb9d
     2c4:	0005a883          	lw	x17,0(x11)
     2c8:	00458593          	addi	x11,x11,4

000002cc <I_slti_cg_cp_rs1_b17>:
I_slti_cg_cp_rs1_b17:
  slti x0, x17, 489 # perform operation
     2cc:	1e98a013          	slti	x0,x17,489
  # Check if x0 contains the expected result. x28 is the signature ptr, x8 is the link ptr, x7 is a temp reg.
  RVTEST_SIGUPD(x28, x8, x7, x0, I_slti_cg_cp_rs1_b17, I_slti_cg_cp_rs1_b17_str)
     2d0:	000e2383          	lw	x7,0(x28)
     2d4:	00038863          	beq	x7,x0,2e4 <I_slti_cg_cp_rs1_b17+0x18>
     2d8:	1dc0346f          	jal	x8,34b4 <failedtest_x8_x7>
     2dc:	000002cc          	.word	0x000002cc
     2e0:	000089ed          	.word	0x000089ed
     2e4:	004e0e13          	addi	x28,x28,4

# Testcase cp_rs1 (Test source rs1 = x18)
  RVTEST_TESTDATA_LOAD_INT(x11, x18) # load rs1: x18 = 0x7294974f
     2e8:	0005a903          	lw	x18,0(x11)
     2ec:	00458593          	addi	x11,x11,4

000002f0 <I_slti_cg_cp_rs1_b18>:
I_slti_cg_cp_rs1_b18:
  slti x22, x18, 663 # perform operation
     2f0:	29792b13          	slti	x22,x18,663
  # Check if x22 contains the expected result. x28 is the signature ptr, x8 is the link ptr, x7 is a temp reg.
  RVTEST_SIGUPD(x28, x8, x7, x22, I_slti_cg_cp_rs1_b18, I_slti_cg_cp_rs1_b18_str)
     2f4:	000e2383          	lw	x7,0(x28)
     2f8:	01638863          	beq	x7,x22,308 <I_slti_cg_cp_rs1_b18+0x18>
     2fc:	1b80346f          	jal	x8,34b4 <failedtest_x8_x7>
     300:	000002f0          	.word	0x000002f0
     304:	00008a1d          	.word	0x00008a1d
     308:	004e0e13          	addi	x28,x28,4

# Testcase cp_rs1 (Test source rs1 = x19)
  RVTEST_TESTDATA_LOAD_INT(x11, x19) # load rs1: x19 = 0xd09a1d63
     30c:	0005a983          	lw	x19,0(x11)
     310:	00458593          	addi	x11,x11,4

00000314 <I_slti_cg_cp_rs1_b19>:
I_slti_cg_cp_rs1_b19:
  slti x0, x19, 683 # perform operation
     314:	2ab9a013          	slti	x0,x19,683
  # Check if x0 contains the expected result. x28 is the signature ptr, x8 is the link ptr, x7 is a temp reg.
  RVTEST_SIGUPD(x28, x8, x7, x0, I_slti_cg_cp_rs1_b19, I_slti_cg_cp_rs1_b19_str)
     318:	000e2383          	lw	x7,0(x28)
     31c:	00038863          	beq	x7,x0,32c <I_slti_cg_cp_rs1_b19+0x18>
     320:	1940346f          	jal	x8,34b4 <failedtest_x8_x7>
     324:	00000314          	.word	0x00000314
     328:	00008a4d          	.word	0x00008a4d
     32c:	004e0e13          	addi	x28,x28,4

# Testcase cp_rs1 (Test source rs1 = x20)
  RVTEST_TESTDATA_LOAD_INT(x11, x20) # load rs1: x20 = 0x6cab6575
     330:	0005aa03          	lw	x20,0(x11)
     334:	00458593          	addi	x11,x11,4

00000338 <I_slti_cg_cp_rs1_b20>:
I_slti_cg_cp_rs1_b20:
  slti x10, x20, -633 # perform operation
     338:	d87a2513          	slti	x10,x20,-633
  # Check if x10 contains the expected result. x28 is the signature ptr, x8 is the link ptr, x7 is a temp reg.
  RVTEST_SIGUPD(x28, x8, x7, x10, I_slti_cg_cp_rs1_b20, I_slti_cg_cp_rs1_b20_str)
     33c:	000e2383          	lw	x7,0(x28)
     340:	00a38863          	beq	x7,x10,350 <I_slti_cg_cp_rs1_b20+0x18>
     344:	1700346f          	jal	x8,34b4 <failedtest_x8_x7>
     348:	00000338          	.word	0x00000338
     34c:	00008a7d          	.word	0x00008a7d
     350:	004e0e13          	addi	x28,x28,4

# Testcase cp_rs1 (Test source rs1 = x21)
  RVTEST_TESTDATA_LOAD_INT(x11, x21) # load rs1: x21 = 0x8fd2400b
     354:	0005aa83          	lw	x21,0(x11)
     358:	00458593          	addi	x11,x11,4

0000035c <I_slti_cg_cp_rs1_b21>:
I_slti_cg_cp_rs1_b21:
  slti x4, x21, 1203 # perform operation
     35c:	4b3aa213          	slti	x4,x21,1203
  # Check if x4 contains the expected result. x28 is the signature ptr, x8 is the link ptr, x7 is a temp reg.
  RVTEST_SIGUPD(x28, x8, x7, x4, I_slti_cg_cp_rs1_b21, I_slti_cg_cp_rs1_b21_str)
     360:	000e2383          	lw	x7,0(x28)
     364:	00438863          	beq	x7,x4,374 <I_slti_cg_cp_rs1_b21+0x18>
     368:	14c0346f          	jal	x8,34b4 <failedtest_x8_x7>
     36c:	0000035c          	.word	0x0000035c
     370:	00008aad          	.word	0x00008aad
     374:	004e0e13          	addi	x28,x28,4

# Testcase cp_rs1 (Test source rs1 = x22)
  RVTEST_TESTDATA_LOAD_INT(x11, x22) # load rs1: x22 = 0x6170ff2a
     378:	0005ab03          	lw	x22,0(x11)
     37c:	00458593          	addi	x11,x11,4

00000380 <I_slti_cg_cp_rs1_b22>:
I_slti_cg_cp_rs1_b22:
  slti x0, x22, -1559 # perform operation
     380:	9e9b2013          	slti	x0,x22,-1559
  # Check if x0 contains the expected result. x28 is the signature ptr, x8 is the link ptr, x7 is a temp reg.
  RVTEST_SIGUPD(x28, x8, x7, x0, I_slti_cg_cp_rs1_b22, I_slti_cg_cp_rs1_b22_str)
     384:	000e2383          	lw	x7,0(x28)
     388:	00038863          	beq	x7,x0,398 <I_slti_cg_cp_rs1_b22+0x18>
     38c:	1280346f          	jal	x8,34b4 <failedtest_x8_x7>
     390:	00000380          	.word	0x00000380
     394:	00008add          	.word	0x00008add
     398:	004e0e13          	addi	x28,x28,4

# Testcase cp_rs1 (Test source rs1 = x23)
  RVTEST_TESTDATA_LOAD_INT(x11, x23) # load rs1: x23 = 0xdf13dff4
     39c:	0005ab83          	lw	x23,0(x11)
     3a0:	00458593          	addi	x11,x11,4

000003a4 <I_slti_cg_cp_rs1_b23>:
I_slti_cg_cp_rs1_b23:
  slti x18, x23, -204 # perform operation
     3a4:	f34ba913          	slti	x18,x23,-204
  # Check if x18 contains the expected result. x28 is the signature ptr, x8 is the link ptr, x7 is a temp reg.
  RVTEST_SIGUPD(x28, x8, x7, x18, I_slti_cg_cp_rs1_b23, I_slti_cg_cp_rs1_b23_str)
     3a8:	000e2383          	lw	x7,0(x28)
     3ac:	01238863          	beq	x7,x18,3bc <I_slti_cg_cp_rs1_b23+0x18>
     3b0:	1040346f          	jal	x8,34b4 <failedtest_x8_x7>
     3b4:	000003a4          	.word	0x000003a4
     3b8:	00008b0d          	.word	0x00008b0d
     3bc:	004e0e13          	addi	x28,x28,4

# Testcase cp_rs1 (Test source rs1 = x24)
  RVTEST_TESTDATA_LOAD_INT(x11, x24) # load rs1: x24 = 0xaad6edbf
     3c0:	0005ac03          	lw	x24,0(x11)
     3c4:	00458593          	addi	x11,x11,4

000003c8 <I_slti_cg_cp_rs1_b24>:
I_slti_cg_cp_rs1_b24:
  slti x22, x24, 1922 # perform operation
     3c8:	782c2b13          	slti	x22,x24,1922
  # Check if x22 contains the expected result. x28 is the signature ptr, x8 is the link ptr, x7 is a temp reg.
  RVTEST_SIGUPD(x28, x8, x7, x22, I_slti_cg_cp_rs1_b24, I_slti_cg_cp_rs1_b24_str)
     3cc:	000e2383          	lw	x7,0(x28)
     3d0:	01638863          	beq	x7,x22,3e0 <I_slti_cg_cp_rs1_b24+0x18>
     3d4:	0e00346f          	jal	x8,34b4 <failedtest_x8_x7>
     3d8:	000003c8          	.word	0x000003c8
     3dc:	00008b3d          	.word	0x00008b3d
     3e0:	004e0e13          	addi	x28,x28,4

# Testcase cp_rs1 (Test source rs1 = x25)
  RVTEST_TESTDATA_LOAD_INT(x11, x25) # load rs1: x25 = 0xc16c1dee
     3e4:	0005ac83          	lw	x25,0(x11)
     3e8:	00458593          	addi	x11,x11,4

000003ec <I_slti_cg_cp_rs1_b25>:
I_slti_cg_cp_rs1_b25:
  slti x1, x25, 280 # perform operation
     3ec:	118ca093          	slti	x1,x25,280
  # Check if x1 contains the expected result. x28 is the signature ptr, x8 is the link ptr, x7 is a temp reg.
  RVTEST_SIGUPD(x28, x8, x7, x1, I_slti_cg_cp_rs1_b25, I_slti_cg_cp_rs1_b25_str)
     3f0:	000e2383          	lw	x7,0(x28)
     3f4:	00138863          	beq	x7,x1,404 <I_slti_cg_cp_rs1_b25+0x18>
     3f8:	0bc0346f          	jal	x8,34b4 <failedtest_x8_x7>
     3fc:	000003ec          	.word	0x000003ec
     400:	00008b6d          	.word	0x00008b6d
     404:	004e0e13          	addi	x28,x28,4

# Testcase cp_rs1 (Test source rs1 = x26)
  RVTEST_TESTDATA_LOAD_INT(x11, x26) # load rs1: x26 = 0x11a031d5
     408:	0005ad03          	lw	x26,0(x11)
     40c:	00458593          	addi	x11,x11,4

00000410 <I_slti_cg_cp_rs1_b26>:
I_slti_cg_cp_rs1_b26:
  slti x14, x26, 1696 # perform operation
     410:	6a0d2713          	slti	x14,x26,1696
  # Check if x14 contains the expected result. x28 is the signature ptr, x8 is the link ptr, x7 is a temp reg.
  RVTEST_SIGUPD(x28, x8, x7, x14, I_slti_cg_cp_rs1_b26, I_slti_cg_cp_rs1_b26_str)
     414:	000e2383          	lw	x7,0(x28)
     418:	00e38863          	beq	x7,x14,428 <I_slti_cg_cp_rs1_b26+0x18>
     41c:	0980346f          	jal	x8,34b4 <failedtest_x8_x7>
     420:	00000410          	.word	0x00000410
     424:	00008b9d          	.word	0x00008b9d
     428:	004e0e13          	addi	x28,x28,4

# Testcase cp_rs1 (Test source rs1 = x27)
  RVTEST_TESTDATA_LOAD_INT(x11, x27) # load rs1: x27 = 0x47aeafcb
     42c:	0005ad83          	lw	x27,0(x11)
     430:	00458593          	addi	x11,x11,4

00000434 <I_slti_cg_cp_rs1_b27>:
I_slti_cg_cp_rs1_b27:
  slti x3, x27, -864 # perform operation
     434:	ca0da193          	slti	x3,x27,-864
  # Check if x3 contains the expected result. x28 is the signature ptr, x8 is the link ptr, x7 is a temp reg.
  RVTEST_SIGUPD(x28, x8, x7, x3, I_slti_cg_cp_rs1_b27, I_slti_cg_cp_rs1_b27_str)
     438:	000e2383          	lw	x7,0(x28)
     43c:	00338863          	beq	x7,x3,44c <I_slti_cg_cp_rs1_b27+0x18>
     440:	0740346f          	jal	x8,34b4 <failedtest_x8_x7>
     444:	00000434          	.word	0x00000434
     448:	00008bcd          	.word	0x00008bcd
     44c:	004e0e13          	addi	x28,x28,4

  mv x9, x28 # switch signature pointer register to avoid conflict with test
     450:	000e0493          	addi	x9,x28,0
# Testcase cp_rs1 (Test source rs1 = x28)
  RVTEST_TESTDATA_LOAD_INT(x11, x28) # load rs1: x28 = 0x3fedbfec
     454:	0005ae03          	lw	x28,0(x11)
     458:	00458593          	addi	x11,x11,4

0000045c <I_slti_cg_cp_rs1_b28>:
I_slti_cg_cp_rs1_b28:
  slti x17, x28, 383 # perform operation
     45c:	17fe2893          	slti	x17,x28,383
  # Check if x17 contains the expected result. x9 is the signature ptr, x8 is the link ptr, x7 is a temp reg.
  RVTEST_SIGUPD(x9, x8, x7, x17, I_slti_cg_cp_rs1_b28, I_slti_cg_cp_rs1_b28_str)
     460:	0004a383          	lw	x7,0(x9)
     464:	01138863          	beq	x7,x17,474 <I_slti_cg_cp_rs1_b28+0x18>
     468:	04c0346f          	jal	x8,34b4 <failedtest_x8_x7>
     46c:	0000045c          	.word	0x0000045c
     470:	00008bfd          	.word	0x00008bfd
     474:	00448493          	addi	x9,x9,4

# Testcase cp_rs1 (Test source rs1 = x29)
  RVTEST_TESTDATA_LOAD_INT(x11, x29) # load rs1: x29 = 0xf051ebc5
     478:	0005ae83          	lw	x29,0(x11)
     47c:	00458593          	addi	x11,x11,4

00000480 <I_slti_cg_cp_rs1_b29>:
I_slti_cg_cp_rs1_b29:
  slti x25, x29, 125 # perform operation
     480:	07deac93          	slti	x25,x29,125
  # Check if x25 contains the expected result. x9 is the signature ptr, x8 is the link ptr, x7 is a temp reg.
  RVTEST_SIGUPD(x9, x8, x7, x25, I_slti_cg_cp_rs1_b29, I_slti_cg_cp_rs1_b29_str)
     484:	0004a383          	lw	x7,0(x9)
     488:	01938863          	beq	x7,x25,498 <I_slti_cg_cp_rs1_b29+0x18>
     48c:	0280346f          	jal	x8,34b4 <failedtest_x8_x7>
     490:	00000480          	.word	0x00000480
     494:	00008c2d          	.word	0x00008c2d
     498:	00448493          	addi	x9,x9,4

# Testcase cp_rs1 (Test source rs1 = x30)
  RVTEST_TESTDATA_LOAD_INT(x11, x30) # load rs1: x30 = 0x959ed826
     49c:	0005af03          	lw	x30,0(x11)
     4a0:	00458593          	addi	x11,x11,4

000004a4 <I_slti_cg_cp_rs1_b30>:
I_slti_cg_cp_rs1_b30:
  slti x5, x30, -785 # perform operation
     4a4:	ceff2293          	slti	x5,x30,-785
  # Check if x5 contains the expected result. x9 is the signature ptr, x8 is the link ptr, x7 is a temp reg.
  RVTEST_SIGUPD(x9, x8, x7, x5, I_slti_cg_cp_rs1_b30, I_slti_cg_cp_rs1_b30_str)
     4a8:	0004a383          	lw	x7,0(x9)
     4ac:	00538863          	beq	x7,x5,4bc <I_slti_cg_cp_rs1_b30+0x18>
     4b0:	0040346f          	jal	x8,34b4 <failedtest_x8_x7>
     4b4:	000004a4          	.word	0x000004a4
     4b8:	00008c5d          	.word	0x00008c5d
     4bc:	00448493          	addi	x9,x9,4

# Testcase cp_rs1 (Test source rs1 = x31)
  RVTEST_TESTDATA_LOAD_INT(x11, x31) # load rs1: x31 = 0x897533c6
     4c0:	0005af83          	lw	x31,0(x11)
     4c4:	00458593          	addi	x11,x11,4

000004c8 <I_slti_cg_cp_rs1_b31>:
I_slti_cg_cp_rs1_b31:
  slti x29, x31, 783 # perform operation
     4c8:	30ffae93          	slti	x29,x31,783
  # Check if x29 contains the expected result. x9 is the signature ptr, x8 is the link ptr, x7 is a temp reg.
  RVTEST_SIGUPD(x9, x8, x7, x29, I_slti_cg_cp_rs1_b31, I_slti_cg_cp_rs1_b31_str)
     4cc:	0004a383          	lw	x7,0(x9)
     4d0:	01d38863          	beq	x7,x29,4e0 <I_slti_cg_cp_rs1_b31+0x18>
     4d4:	7e10246f          	jal	x8,34b4 <failedtest_x8_x7>
     4d8:	000004c8          	.word	0x000004c8
     4dc:	00008c8d          	.word	0x00008c8d
     4e0:	00448493          	addi	x9,x9,4
/////////////////////////////////
// cp_rd
/////////////////////////////////

# Testcase cp_rd (Test destination rd = x0)
  RVTEST_TESTDATA_LOAD_INT(x11, x26) # load rs1: x26 = 0x1bc590d7
     4e4:	0005ad03          	lw	x26,0(x11)
     4e8:	00458593          	addi	x11,x11,4

000004ec <I_slti_cg_cp_rd_b0>:
I_slti_cg_cp_rd_b0:
  slti x0, x26, 1273 # perform operation
     4ec:	4f9d2013          	slti	x0,x26,1273
  # Check if x0 contains the expected result. x9 is the signature ptr, x8 is the link ptr, x7 is a temp reg.
  RVTEST_SIGUPD(x9, x8, x7, x0, I_slti_cg_cp_rd_b0, I_slti_cg_cp_rd_b0_str)
     4f0:	0004a383          	lw	x7,0(x9)
     4f4:	00038863          	beq	x7,x0,504 <I_slti_cg_cp_rd_b0+0x18>
     4f8:	7bd0246f          	jal	x8,34b4 <failedtest_x8_x7>
     4fc:	000004ec          	.word	0x000004ec
     500:	00008cbd          	.word	0x00008cbd
     504:	00448493          	addi	x9,x9,4

# Testcase cp_rd (Test destination rd = x1)
  RVTEST_TESTDATA_LOAD_INT(x11, x21) # load rs1: x21 = 0x99770380
     508:	0005aa83          	lw	x21,0(x11)
     50c:	00458593          	addi	x11,x11,4

00000510 <I_slti_cg_cp_rd_b1>:
I_slti_cg_cp_rd_b1:
  slti x1, x21, 885 # perform operation
     510:	375aa093          	slti	x1,x21,885
  # Check if x1 contains the expected result. x9 is the signature ptr, x8 is the link ptr, x7 is a temp reg.
  RVTEST_SIGUPD(x9, x8, x7, x1, I_slti_cg_cp_rd_b1, I_slti_cg_cp_rd_b1_str)
     514:	0004a383          	lw	x7,0(x9)
     518:	00138863          	beq	x7,x1,528 <I_slti_cg_cp_rd_b1+0x18>
     51c:	7990246f          	jal	x8,34b4 <failedtest_x8_x7>
     520:	00000510          	.word	0x00000510
     524:	00008ceb          	.word	0x00008ceb
     528:	00448493          	addi	x9,x9,4

# Testcase cp_rd (Test destination rd = x2)
  RVTEST_TESTDATA_LOAD_INT(x11, x16) # load rs1: x16 = 0xb72b5a2b
     52c:	0005a803          	lw	x16,0(x11)
     530:	00458593          	addi	x11,x11,4

00000534 <I_slti_cg_cp_rd_b2>:
I_slti_cg_cp_rd_b2:
  slti x2, x16, 1499 # perform operation
     534:	5db82113          	slti	x2,x16,1499
  # Check if x2 contains the expected result. x9 is the signature ptr, x8 is the link ptr, x7 is a temp reg.
  RVTEST_SIGUPD(x9, x8, x7, x2, I_slti_cg_cp_rd_b2, I_slti_cg_cp_rd_b2_str)
     538:	0004a383          	lw	x7,0(x9)
     53c:	00238863          	beq	x7,x2,54c <I_slti_cg_cp_rd_b2+0x18>
     540:	7750246f          	jal	x8,34b4 <failedtest_x8_x7>
     544:	00000534          	.word	0x00000534
     548:	00008d19          	.word	0x00008d19
     54c:	00448493          	addi	x9,x9,4

# Testcase cp_rd (Test destination rd = x3)
  RVTEST_TESTDATA_LOAD_INT(x11, x22) # load rs1: x22 = 0x0ada218f
     550:	0005ab03          	lw	x22,0(x11)
     554:	00458593          	addi	x11,x11,4

00000558 <I_slti_cg_cp_rd_b3>:
I_slti_cg_cp_rd_b3:
  slti x3, x22, 395 # perform operation
     558:	18bb2193          	slti	x3,x22,395
  # Check if x3 contains the expected result. x9 is the signature ptr, x8 is the link ptr, x7 is a temp reg.
  RVTEST_SIGUPD(x9, x8, x7, x3, I_slti_cg_cp_rd_b3, I_slti_cg_cp_rd_b3_str)
     55c:	0004a383          	lw	x7,0(x9)
     560:	00338863          	beq	x7,x3,570 <I_slti_cg_cp_rd_b3+0x18>
     564:	7510246f          	jal	x8,34b4 <failedtest_x8_x7>
     568:	00000558          	.word	0x00000558
     56c:	00008d47          	.word	0x00008d47
     570:	00448493          	addi	x9,x9,4

# Testcase cp_rd (Test destination rd = x4)
  RVTEST_TESTDATA_LOAD_INT(x11, x28) # load rs1: x28 = 0x798988f6
     574:	0005ae03          	lw	x28,0(x11)
     578:	00458593          	addi	x11,x11,4

0000057c <I_slti_cg_cp_rd_b4>:
I_slti_cg_cp_rd_b4:
  slti x4, x28, 2009 # perform operation
     57c:	7d9e2213          	slti	x4,x28,2009
  # Check if x4 contains the expected result. x9 is the signature ptr, x8 is the link ptr, x7 is a temp reg.
  RVTEST_SIGUPD(x9, x8, x7, x4, I_slti_cg_cp_rd_b4, I_slti_cg_cp_rd_b4_str)
     580:	0004a383          	lw	x7,0(x9)
     584:	00438863          	beq	x7,x4,594 <I_slti_cg_cp_rd_b4+0x18>
     588:	72d0246f          	jal	x8,34b4 <failedtest_x8_x7>
     58c:	0000057c          	.word	0x0000057c
     590:	00008d75          	.word	0x00008d75
     594:	00448493          	addi	x9,x9,4

# Testcase cp_rd (Test destination rd = x5)
  RVTEST_TESTDATA_LOAD_INT(x11, x1) # load rs1: x1 = 0xd2ef1979
     598:	0005a083          	lw	x1,0(x11)
     59c:	00458593          	addi	x11,x11,4

000005a0 <I_slti_cg_cp_rd_b5>:
I_slti_cg_cp_rd_b5:
  slti x5, x1, 1769 # perform operation
     5a0:	6e90a293          	slti	x5,x1,1769
  # Check if x5 contains the expected result. x9 is the signature ptr, x8 is the link ptr, x7 is a temp reg.
  RVTEST_SIGUPD(x9, x8, x7, x5, I_slti_cg_cp_rd_b5, I_slti_cg_cp_rd_b5_str)
     5a4:	0004a383          	lw	x7,0(x9)
     5a8:	00538863          	beq	x7,x5,5b8 <I_slti_cg_cp_rd_b5+0x18>
     5ac:	7090246f          	jal	x8,34b4 <failedtest_x8_x7>
     5b0:	000005a0          	.word	0x000005a0
     5b4:	00008da3          	.word	0x00008da3
     5b8:	00448493          	addi	x9,x9,4

# Testcase cp_rd (Test destination rd = x6)
  RVTEST_TESTDATA_LOAD_INT(x11, x31) # load rs1: x31 = 0x7df4f9c8
     5bc:	0005af83          	lw	x31,0(x11)
     5c0:	00458593          	addi	x11,x11,4

000005c4 <I_slti_cg_cp_rd_b6>:
I_slti_cg_cp_rd_b6:
  slti x6, x31, -933 # perform operation
     5c4:	c5bfa313          	slti	x6,x31,-933
  # Check if x6 contains the expected result. x9 is the signature ptr, x8 is the link ptr, x7 is a temp reg.
  RVTEST_SIGUPD(x9, x8, x7, x6, I_slti_cg_cp_rd_b6, I_slti_cg_cp_rd_b6_str)
     5c8:	0004a383          	lw	x7,0(x9)
     5cc:	00638863          	beq	x7,x6,5dc <I_slti_cg_cp_rd_b6+0x18>
     5d0:	6e50246f          	jal	x8,34b4 <failedtest_x8_x7>
     5d4:	000005c4          	.word	0x000005c4
     5d8:	00008dd1          	.word	0x00008dd1
     5dc:	00448493          	addi	x9,x9,4

  mv x13, x7 # switch temp register to avoid conflict with test
     5e0:	00038693          	addi	x13,x7,0
  mv x14, x8 # switch link pointer register to avoid conflict with test
     5e4:	00040713          	addi	x14,x8,0
# Testcase cp_rd (Test destination rd = x7)
  RVTEST_TESTDATA_LOAD_INT(x11, x22) # load rs1: x22 = 0x11274b95
     5e8:	0005ab03          	lw	x22,0(x11)
     5ec:	00458593          	addi	x11,x11,4

000005f0 <I_slti_cg_cp_rd_b7>:
I_slti_cg_cp_rd_b7:
  slti x7, x22, 1532 # perform operation
     5f0:	5fcb2393          	slti	x7,x22,1532
  # Check if x7 contains the expected result. x9 is the signature ptr, x14 is the link ptr, x13 is a temp reg.
  RVTEST_SIGUPD(x9, x14, x13, x7, I_slti_cg_cp_rd_b7, I_slti_cg_cp_rd_b7_str)
     5f4:	0004a683          	lw	x13,0(x9)
     5f8:	00768863          	beq	x13,x7,608 <I_slti_cg_cp_rd_b7+0x18>
     5fc:	6e10276f          	jal	x14,34dc <failedtest_x14_x13>
     600:	000005f0          	.word	0x000005f0
     604:	00008dff          	.word	0x00008dff
     608:	00448493          	addi	x9,x9,4

# Testcase cp_rd (Test destination rd = x8)
  RVTEST_TESTDATA_LOAD_INT(x11, x6) # load rs1: x6 = 0xc6c3947b
     60c:	0005a303          	lw	x6,0(x11)
     610:	00458593          	addi	x11,x11,4

00000614 <I_slti_cg_cp_rd_b8>:
I_slti_cg_cp_rd_b8:
  slti x8, x6, -1066 # perform operation
     614:	bd632413          	slti	x8,x6,-1066
  # Check if x8 contains the expected result. x9 is the signature ptr, x14 is the link ptr, x13 is a temp reg.
  RVTEST_SIGUPD(x9, x14, x13, x8, I_slti_cg_cp_rd_b8, I_slti_cg_cp_rd_b8_str)
     618:	0004a683          	lw	x13,0(x9)
     61c:	00868863          	beq	x13,x8,62c <I_slti_cg_cp_rd_b8+0x18>
     620:	6bd0276f          	jal	x14,34dc <failedtest_x14_x13>
     624:	00000614          	.word	0x00000614
     628:	00008e2d          	.word	0x00008e2d
     62c:	00448493          	addi	x9,x9,4

  mv x27, x9 # switch signature pointer register to avoid conflict with test
     630:	00048d93          	addi	x27,x9,0
# Testcase cp_rd (Test destination rd = x9)
  RVTEST_TESTDATA_LOAD_INT(x11, x15) # load rs1: x15 = 0x834a79a1
     634:	0005a783          	lw	x15,0(x11)
     638:	00458593          	addi	x11,x11,4

0000063c <I_slti_cg_cp_rd_b9>:
I_slti_cg_cp_rd_b9:
  slti x9, x15, 593 # perform operation
     63c:	2517a493          	slti	x9,x15,593
  # Check if x9 contains the expected result. x27 is the signature ptr, x14 is the link ptr, x13 is a temp reg.
  RVTEST_SIGUPD(x27, x14, x13, x9, I_slti_cg_cp_rd_b9, I_slti_cg_cp_rd_b9_str)
     640:	000da683          	lw	x13,0(x27)
     644:	00968863          	beq	x13,x9,654 <I_slti_cg_cp_rd_b9+0x18>
     648:	6950276f          	jal	x14,34dc <failedtest_x14_x13>
     64c:	0000063c          	.word	0x0000063c
     650:	00008e5b          	.word	0x00008e5b
     654:	004d8d93          	addi	x27,x27,4

# Testcase cp_rd (Test destination rd = x10)
  RVTEST_TESTDATA_LOAD_INT(x11, x28) # load rs1: x28 = 0x22b494ed
     658:	0005ae03          	lw	x28,0(x11)
     65c:	00458593          	addi	x11,x11,4

00000660 <I_slti_cg_cp_rd_b10>:
I_slti_cg_cp_rd_b10:
  slti x10, x28, 474 # perform operation
     660:	1dae2513          	slti	x10,x28,474
  # Check if x10 contains the expected result. x27 is the signature ptr, x14 is the link ptr, x13 is a temp reg.
  RVTEST_SIGUPD(x27, x14, x13, x10, I_slti_cg_cp_rd_b10, I_slti_cg_cp_rd_b10_str)
     664:	000da683          	lw	x13,0(x27)
     668:	00a68863          	beq	x13,x10,678 <I_slti_cg_cp_rd_b10+0x18>
     66c:	6710276f          	jal	x14,34dc <failedtest_x14_x13>
     670:	00000660          	.word	0x00000660
     674:	00008e89          	.word	0x00008e89
     678:	004d8d93          	addi	x27,x27,4

  mv x6, x11 # switch data pointer register to avoid conflict with test
     67c:	00058313          	addi	x6,x11,0
# Testcase cp_rd (Test destination rd = x11)
  RVTEST_TESTDATA_LOAD_INT(x6, x31) # load rs1: x31 = 0xed52f683
     680:	00032f83          	lw	x31,0(x6)
     684:	00430313          	addi	x6,x6,4

00000688 <I_slti_cg_cp_rd_b11>:
I_slti_cg_cp_rd_b11:
  slti x11, x31, -212 # perform operation
     688:	f2cfa593          	slti	x11,x31,-212
  # Check if x11 contains the expected result. x27 is the signature ptr, x14 is the link ptr, x13 is a temp reg.
  RVTEST_SIGUPD(x27, x14, x13, x11, I_slti_cg_cp_rd_b11, I_slti_cg_cp_rd_b11_str)
     68c:	000da683          	lw	x13,0(x27)
     690:	00b68863          	beq	x13,x11,6a0 <I_slti_cg_cp_rd_b11+0x18>
     694:	6490276f          	jal	x14,34dc <failedtest_x14_x13>
     698:	00000688          	.word	0x00000688
     69c:	00008eb8          	.word	0x00008eb8
     6a0:	004d8d93          	addi	x27,x27,4

# Testcase cp_rd (Test destination rd = x12)
  RVTEST_TESTDATA_LOAD_INT(x6, x28) # load rs1: x28 = 0x8c2f6b71
     6a4:	00032e03          	lw	x28,0(x6)
     6a8:	00430313          	addi	x6,x6,4

000006ac <I_slti_cg_cp_rd_b12>:
I_slti_cg_cp_rd_b12:
  slti x12, x28, 967 # perform operation
     6ac:	3c7e2613          	slti	x12,x28,967
  # Check if x12 contains the expected result. x27 is the signature ptr, x14 is the link ptr, x13 is a temp reg.
  RVTEST_SIGUPD(x27, x14, x13, x12, I_slti_cg_cp_rd_b12, I_slti_cg_cp_rd_b12_str)
     6b0:	000da683          	lw	x13,0(x27)
     6b4:	00c68863          	beq	x13,x12,6c4 <I_slti_cg_cp_rd_b12+0x18>
     6b8:	6250276f          	jal	x14,34dc <failedtest_x14_x13>
     6bc:	000006ac          	.word	0x000006ac
     6c0:	00008ee7          	.word	0x00008ee7
     6c4:	004d8d93          	addi	x27,x27,4

  mv x7, x13 # switch temp register to avoid conflict with test
     6c8:	00068393          	addi	x7,x13,0
  mv x8, x14 # switch link pointer register to avoid conflict with test
     6cc:	00070413          	addi	x8,x14,0
# Testcase cp_rd (Test destination rd = x13)
  RVTEST_TESTDATA_LOAD_INT(x6, x3) # load rs1: x3 = 0xb449a808
     6d0:	00032183          	lw	x3,0(x6)
     6d4:	00430313          	addi	x6,x6,4

000006d8 <I_slti_cg_cp_rd_b13>:
I_slti_cg_cp_rd_b13:
  slti x13, x3, 126 # perform operation
     6d8:	07e1a693          	slti	x13,x3,126
  # Check if x13 contains the expected result. x27 is the signature ptr, x8 is the link ptr, x7 is a temp reg.
  RVTEST_SIGUPD(x27, x8, x7, x13, I_slti_cg_cp_rd_b13, I_slti_cg_cp_rd_b13_str)
     6dc:	000da383          	lw	x7,0(x27)
     6e0:	00d38863          	beq	x7,x13,6f0 <I_slti_cg_cp_rd_b13+0x18>
     6e4:	5d10246f          	jal	x8,34b4 <failedtest_x8_x7>
     6e8:	000006d8          	.word	0x000006d8
     6ec:	00008f16          	.word	0x00008f16
     6f0:	004d8d93          	addi	x27,x27,4

# Testcase cp_rd (Test destination rd = x14)
  RVTEST_TESTDATA_LOAD_INT(x6, x30) # load rs1: x30 = 0x0060c0a1
     6f4:	00032f03          	lw	x30,0(x6)
     6f8:	00430313          	addi	x6,x6,4

000006fc <I_slti_cg_cp_rd_b14>:
I_slti_cg_cp_rd_b14:
  slti x14, x30, 1737 # perform operation
     6fc:	6c9f2713          	slti	x14,x30,1737
  # Check if x14 contains the expected result. x27 is the signature ptr, x8 is the link ptr, x7 is a temp reg.
  RVTEST_SIGUPD(x27, x8, x7, x14, I_slti_cg_cp_rd_b14, I_slti_cg_cp_rd_b14_str)
     700:	000da383          	lw	x7,0(x27)
     704:	00e38863          	beq	x7,x14,714 <I_slti_cg_cp_rd_b14+0x18>
     708:	5ad0246f          	jal	x8,34b4 <failedtest_x8_x7>
     70c:	000006fc          	.word	0x000006fc
     710:	00008f45          	.word	0x00008f45
     714:	004d8d93          	addi	x27,x27,4

# Testcase cp_rd (Test destination rd = x15)
  RVTEST_TESTDATA_LOAD_INT(x6, x11) # load rs1: x11 = 0x82be3b59
     718:	00032583          	lw	x11,0(x6)
     71c:	00430313          	addi	x6,x6,4

00000720 <I_slti_cg_cp_rd_b15>:
I_slti_cg_cp_rd_b15:
  slti x15, x11, -102 # perform operation
     720:	f9a5a793          	slti	x15,x11,-102
  # Check if x15 contains the expected result. x27 is the signature ptr, x8 is the link ptr, x7 is a temp reg.
  RVTEST_SIGUPD(x27, x8, x7, x15, I_slti_cg_cp_rd_b15, I_slti_cg_cp_rd_b15_str)
     724:	000da383          	lw	x7,0(x27)
     728:	00f38863          	beq	x7,x15,738 <I_slti_cg_cp_rd_b15+0x18>
     72c:	5890246f          	jal	x8,34b4 <failedtest_x8_x7>
     730:	00000720          	.word	0x00000720
     734:	00008f74          	.word	0x00008f74
     738:	004d8d93          	addi	x27,x27,4

# Testcase cp_rd (Test destination rd = x16)
  RVTEST_TESTDATA_LOAD_INT(x6, x28) # load rs1: x28 = 0x2a3a44e7
     73c:	00032e03          	lw	x28,0(x6)
     740:	00430313          	addi	x6,x6,4

00000744 <I_slti_cg_cp_rd_b16>:
I_slti_cg_cp_rd_b16:
  slti x16, x28, 540 # perform operation
     744:	21ce2813          	slti	x16,x28,540
  # Check if x16 contains the expected result. x27 is the signature ptr, x8 is the link ptr, x7 is a temp reg.
  RVTEST_SIGUPD(x27, x8, x7, x16, I_slti_cg_cp_rd_b16, I_slti_cg_cp_rd_b16_str)
     748:	000da383          	lw	x7,0(x27)
     74c:	01038863          	beq	x7,x16,75c <I_slti_cg_cp_rd_b16+0x18>
     750:	5650246f          	jal	x8,34b4 <failedtest_x8_x7>
     754:	00000744          	.word	0x00000744
     758:	00008fa3          	.word	0x00008fa3
     75c:	004d8d93          	addi	x27,x27,4

# Testcase cp_rd (Test destination rd = x17)
  RVTEST_TESTDATA_LOAD_INT(x6, x13) # load rs1: x13 = 0x683f03e7
     760:	00032683          	lw	x13,0(x6)
     764:	00430313          	addi	x6,x6,4

00000768 <I_slti_cg_cp_rd_b17>:
I_slti_cg_cp_rd_b17:
  slti x17, x13, -607 # perform operation
     768:	da16a893          	slti	x17,x13,-607
  # Check if x17 contains the expected result. x27 is the signature ptr, x8 is the link ptr, x7 is a temp reg.
  RVTEST_SIGUPD(x27, x8, x7, x17, I_slti_cg_cp_rd_b17, I_slti_cg_cp_rd_b17_str)
     76c:	000da383          	lw	x7,0(x27)
     770:	01138863          	beq	x7,x17,780 <I_slti_cg_cp_rd_b17+0x18>
     774:	5410246f          	jal	x8,34b4 <failedtest_x8_x7>
     778:	00000768          	.word	0x00000768
     77c:	00008fd2          	.word	0x00008fd2
     780:	004d8d93          	addi	x27,x27,4

# Testcase cp_rd (Test destination rd = x18)
  RVTEST_TESTDATA_LOAD_INT(x6, x24) # load rs1: x24 = 0xd8baf514
     784:	00032c03          	lw	x24,0(x6)
     788:	00430313          	addi	x6,x6,4

0000078c <I_slti_cg_cp_rd_b18>:
I_slti_cg_cp_rd_b18:
  slti x18, x24, -1932 # perform operation
     78c:	874c2913          	slti	x18,x24,-1932
  # Check if x18 contains the expected result. x27 is the signature ptr, x8 is the link ptr, x7 is a temp reg.
  RVTEST_SIGUPD(x27, x8, x7, x18, I_slti_cg_cp_rd_b18, I_slti_cg_cp_rd_b18_str)
     790:	000da383          	lw	x7,0(x27)
     794:	01238863          	beq	x7,x18,7a4 <I_slti_cg_cp_rd_b18+0x18>
     798:	51d0246f          	jal	x8,34b4 <failedtest_x8_x7>
     79c:	0000078c          	.word	0x0000078c
     7a0:	00009001          	.word	0x00009001
     7a4:	004d8d93          	addi	x27,x27,4

# Testcase cp_rd (Test destination rd = x19)
  RVTEST_TESTDATA_LOAD_INT(x6, x3) # load rs1: x3 = 0xe1f6abfd
     7a8:	00032183          	lw	x3,0(x6)
     7ac:	00430313          	addi	x6,x6,4

000007b0 <I_slti_cg_cp_rd_b19>:
I_slti_cg_cp_rd_b19:
  slti x19, x3, 1577 # perform operation
     7b0:	6291a993          	slti	x19,x3,1577
  # Check if x19 contains the expected result. x27 is the signature ptr, x8 is the link ptr, x7 is a temp reg.
  RVTEST_SIGUPD(x27, x8, x7, x19, I_slti_cg_cp_rd_b19, I_slti_cg_cp_rd_b19_str)
     7b4:	000da383          	lw	x7,0(x27)
     7b8:	01338863          	beq	x7,x19,7c8 <I_slti_cg_cp_rd_b19+0x18>
     7bc:	4f90246f          	jal	x8,34b4 <failedtest_x8_x7>
     7c0:	000007b0          	.word	0x000007b0
     7c4:	00009030          	.word	0x00009030
     7c8:	004d8d93          	addi	x27,x27,4

# Testcase cp_rd (Test destination rd = x20)
  RVTEST_TESTDATA_LOAD_INT(x6, x23) # load rs1: x23 = 0x34ac52dc
     7cc:	00032b83          	lw	x23,0(x6)
     7d0:	00430313          	addi	x6,x6,4

000007d4 <I_slti_cg_cp_rd_b20>:
I_slti_cg_cp_rd_b20:
  slti x20, x23, -1134 # perform operation
     7d4:	b92baa13          	slti	x20,x23,-1134
  # Check if x20 contains the expected result. x27 is the signature ptr, x8 is the link ptr, x7 is a temp reg.
  RVTEST_SIGUPD(x27, x8, x7, x20, I_slti_cg_cp_rd_b20, I_slti_cg_cp_rd_b20_str)
     7d8:	000da383          	lw	x7,0(x27)
     7dc:	01438863          	beq	x7,x20,7ec <I_slti_cg_cp_rd_b20+0x18>
     7e0:	4d50246f          	jal	x8,34b4 <failedtest_x8_x7>
     7e4:	000007d4          	.word	0x000007d4
     7e8:	0000905f          	.word	0x0000905f
     7ec:	004d8d93          	addi	x27,x27,4

# Testcase cp_rd (Test destination rd = x21)
  RVTEST_TESTDATA_LOAD_INT(x6, x5) # load rs1: x5 = 0x72c2fff8
     7f0:	00032283          	lw	x5,0(x6)
     7f4:	00430313          	addi	x6,x6,4

000007f8 <I_slti_cg_cp_rd_b21>:
I_slti_cg_cp_rd_b21:
  slti x21, x5, -589 # perform operation
     7f8:	db32aa93          	slti	x21,x5,-589
  # Check if x21 contains the expected result. x27 is the signature ptr, x8 is the link ptr, x7 is a temp reg.
  RVTEST_SIGUPD(x27, x8, x7, x21, I_slti_cg_cp_rd_b21, I_slti_cg_cp_rd_b21_str)
     7fc:	000da383          	lw	x7,0(x27)
     800:	01538863          	beq	x7,x21,810 <I_slti_cg_cp_rd_b21+0x18>
     804:	4b10246f          	jal	x8,34b4 <failedtest_x8_x7>
     808:	000007f8          	.word	0x000007f8
     80c:	0000908e          	.word	0x0000908e
     810:	004d8d93          	addi	x27,x27,4

# Testcase cp_rd (Test destination rd = x22)
  RVTEST_TESTDATA_LOAD_INT(x6, x17) # load rs1: x17 = 0xd1da150f
     814:	00032883          	lw	x17,0(x6)
     818:	00430313          	addi	x6,x6,4

0000081c <I_slti_cg_cp_rd_b22>:
I_slti_cg_cp_rd_b22:
  slti x22, x17, -76 # perform operation
     81c:	fb48ab13          	slti	x22,x17,-76
  # Check if x22 contains the expected result. x27 is the signature ptr, x8 is the link ptr, x7 is a temp reg.
  RVTEST_SIGUPD(x27, x8, x7, x22, I_slti_cg_cp_rd_b22, I_slti_cg_cp_rd_b22_str)
     820:	000da383          	lw	x7,0(x27)
     824:	01638863          	beq	x7,x22,834 <I_slti_cg_cp_rd_b22+0x18>
     828:	48d0246f          	jal	x8,34b4 <failedtest_x8_x7>
     82c:	0000081c          	.word	0x0000081c
     830:	000090bd          	.word	0x000090bd
     834:	004d8d93          	addi	x27,x27,4

# Testcase cp_rd (Test destination rd = x23)
  RVTEST_TESTDATA_LOAD_INT(x6, x15) # load rs1: x15 = 0x9365a8bf
     838:	00032783          	lw	x15,0(x6)
     83c:	00430313          	addi	x6,x6,4

00000840 <I_slti_cg_cp_rd_b23>:
I_slti_cg_cp_rd_b23:
  slti x23, x15, 1756 # perform operation
     840:	6dc7ab93          	slti	x23,x15,1756
  # Check if x23 contains the expected result. x27 is the signature ptr, x8 is the link ptr, x7 is a temp reg.
  RVTEST_SIGUPD(x27, x8, x7, x23, I_slti_cg_cp_rd_b23, I_slti_cg_cp_rd_b23_str)
     844:	000da383          	lw	x7,0(x27)
     848:	01738863          	beq	x7,x23,858 <I_slti_cg_cp_rd_b23+0x18>
     84c:	4690246f          	jal	x8,34b4 <failedtest_x8_x7>
     850:	00000840          	.word	0x00000840
     854:	000090ec          	.word	0x000090ec
     858:	004d8d93          	addi	x27,x27,4

# Testcase cp_rd (Test destination rd = x24)
  RVTEST_TESTDATA_LOAD_INT(x6, x23) # load rs1: x23 = 0x60b4263d
     85c:	00032b83          	lw	x23,0(x6)
     860:	00430313          	addi	x6,x6,4

00000864 <I_slti_cg_cp_rd_b24>:
I_slti_cg_cp_rd_b24:
  slti x24, x23, 49 # perform operation
     864:	031bac13          	slti	x24,x23,49
  # Check if x24 contains the expected result. x27 is the signature ptr, x8 is the link ptr, x7 is a temp reg.
  RVTEST_SIGUPD(x27, x8, x7, x24, I_slti_cg_cp_rd_b24, I_slti_cg_cp_rd_b24_str)
     868:	000da383          	lw	x7,0(x27)
     86c:	01838863          	beq	x7,x24,87c <I_slti_cg_cp_rd_b24+0x18>
     870:	4450246f          	jal	x8,34b4 <failedtest_x8_x7>
     874:	00000864          	.word	0x00000864
     878:	0000911b          	.word	0x0000911b
     87c:	004d8d93          	addi	x27,x27,4

# Testcase cp_rd (Test destination rd = x25)
  RVTEST_TESTDATA_LOAD_INT(x6, x19) # load rs1: x19 = 0xdd902129
     880:	00032983          	lw	x19,0(x6)
     884:	00430313          	addi	x6,x6,4

00000888 <I_slti_cg_cp_rd_b25>:
I_slti_cg_cp_rd_b25:
  slti x25, x19, 1440 # perform operation
     888:	5a09ac93          	slti	x25,x19,1440
  # Check if x25 contains the expected result. x27 is the signature ptr, x8 is the link ptr, x7 is a temp reg.
  RVTEST_SIGUPD(x27, x8, x7, x25, I_slti_cg_cp_rd_b25, I_slti_cg_cp_rd_b25_str)
     88c:	000da383          	lw	x7,0(x27)
     890:	01938863          	beq	x7,x25,8a0 <I_slti_cg_cp_rd_b25+0x18>
     894:	4210246f          	jal	x8,34b4 <failedtest_x8_x7>
     898:	00000888          	.word	0x00000888
     89c:	0000914a          	.word	0x0000914a
     8a0:	004d8d93          	addi	x27,x27,4

# Testcase cp_rd (Test destination rd = x26)
  RVTEST_TESTDATA_LOAD_INT(x6, x30) # load rs1: x30 = 0x41a5933c
     8a4:	00032f03          	lw	x30,0(x6)
     8a8:	00430313          	addi	x6,x6,4

000008ac <I_slti_cg_cp_rd_b26>:
I_slti_cg_cp_rd_b26:
  slti x26, x30, -161 # perform operation
     8ac:	f5ff2d13          	slti	x26,x30,-161
  # Check if x26 contains the expected result. x27 is the signature ptr, x8 is the link ptr, x7 is a temp reg.
  RVTEST_SIGUPD(x27, x8, x7, x26, I_slti_cg_cp_rd_b26, I_slti_cg_cp_rd_b26_str)
     8b0:	000da383          	lw	x7,0(x27)
     8b4:	01a38863          	beq	x7,x26,8c4 <I_slti_cg_cp_rd_b26+0x18>
     8b8:	3fd0246f          	jal	x8,34b4 <failedtest_x8_x7>
     8bc:	000008ac          	.word	0x000008ac
     8c0:	00009179          	.word	0x00009179
     8c4:	004d8d93          	addi	x27,x27,4

  mv x19, x27 # switch signature pointer register to avoid conflict with test
     8c8:	000d8993          	addi	x19,x27,0
# Testcase cp_rd (Test destination rd = x27)
  RVTEST_TESTDATA_LOAD_INT(x6, x17) # load rs1: x17 = 0x8d14083b
     8cc:	00032883          	lw	x17,0(x6)
     8d0:	00430313          	addi	x6,x6,4

000008d4 <I_slti_cg_cp_rd_b27>:
I_slti_cg_cp_rd_b27:
  slti x27, x17, -1840 # perform operation
     8d4:	8d08ad93          	slti	x27,x17,-1840
  # Check if x27 contains the expected result. x19 is the signature ptr, x8 is the link ptr, x7 is a temp reg.
  RVTEST_SIGUPD(x19, x8, x7, x27, I_slti_cg_cp_rd_b27, I_slti_cg_cp_rd_b27_str)
     8d8:	0009a383          	lw	x7,0(x19)
     8dc:	01b38863          	beq	x7,x27,8ec <I_slti_cg_cp_rd_b27+0x18>
     8e0:	3d50246f          	jal	x8,34b4 <failedtest_x8_x7>
     8e4:	000008d4          	.word	0x000008d4
     8e8:	000091a8          	.word	0x000091a8
     8ec:	00498993          	addi	x19,x19,4

# Testcase cp_rd (Test destination rd = x28)
  RVTEST_TESTDATA_LOAD_INT(x6, x18) # load rs1: x18 = 0x336db868
     8f0:	00032903          	lw	x18,0(x6)
     8f4:	00430313          	addi	x6,x6,4

000008f8 <I_slti_cg_cp_rd_b28>:
I_slti_cg_cp_rd_b28:
  slti x28, x18, 166 # perform operation
     8f8:	0a692e13          	slti	x28,x18,166
  # Check if x28 contains the expected result. x19 is the signature ptr, x8 is the link ptr, x7 is a temp reg.
  RVTEST_SIGUPD(x19, x8, x7, x28, I_slti_cg_cp_rd_b28, I_slti_cg_cp_rd_b28_str)
     8fc:	0009a383          	lw	x7,0(x19)
     900:	01c38863          	beq	x7,x28,910 <I_slti_cg_cp_rd_b28+0x18>
     904:	3b10246f          	jal	x8,34b4 <failedtest_x8_x7>
     908:	000008f8          	.word	0x000008f8
     90c:	000091d7          	.word	0x000091d7
     910:	00498993          	addi	x19,x19,4

# Testcase cp_rd (Test destination rd = x29)
  RVTEST_TESTDATA_LOAD_INT(x6, x1) # load rs1: x1 = 0x91bc4e57
     914:	00032083          	lw	x1,0(x6)
     918:	00430313          	addi	x6,x6,4

0000091c <I_slti_cg_cp_rd_b29>:
I_slti_cg_cp_rd_b29:
  slti x29, x1, 1562 # perform operation
     91c:	61a0ae93          	slti	x29,x1,1562
  # Check if x29 contains the expected result. x19 is the signature ptr, x8 is the link ptr, x7 is a temp reg.
  RVTEST_SIGUPD(x19, x8, x7, x29, I_slti_cg_cp_rd_b29, I_slti_cg_cp_rd_b29_str)
     920:	0009a383          	lw	x7,0(x19)
     924:	01d38863          	beq	x7,x29,934 <I_slti_cg_cp_rd_b29+0x18>
     928:	38d0246f          	jal	x8,34b4 <failedtest_x8_x7>
     92c:	0000091c          	.word	0x0000091c
     930:	00009206          	.word	0x00009206
     934:	00498993          	addi	x19,x19,4

# Testcase cp_rd (Test destination rd = x30)
  RVTEST_TESTDATA_LOAD_INT(x6, x16) # load rs1: x16 = 0xc49ef692
     938:	00032803          	lw	x16,0(x6)
     93c:	00430313          	addi	x6,x6,4

00000940 <I_slti_cg_cp_rd_b30>:
I_slti_cg_cp_rd_b30:
  slti x30, x16, 1750 # perform operation
     940:	6d682f13          	slti	x30,x16,1750
  # Check if x30 contains the expected result. x19 is the signature ptr, x8 is the link ptr, x7 is a temp reg.
  RVTEST_SIGUPD(x19, x8, x7, x30, I_slti_cg_cp_rd_b30, I_slti_cg_cp_rd_b30_str)
     944:	0009a383          	lw	x7,0(x19)
     948:	01e38863          	beq	x7,x30,958 <I_slti_cg_cp_rd_b30+0x18>
     94c:	3690246f          	jal	x8,34b4 <failedtest_x8_x7>
     950:	00000940          	.word	0x00000940
     954:	00009235          	.word	0x00009235
     958:	00498993          	addi	x19,x19,4

# Testcase cp_rd (Test destination rd = x31)
  RVTEST_TESTDATA_LOAD_INT(x6, x4) # load rs1: x4 = 0x9c2375bb
     95c:	00032203          	lw	x4,0(x6)
     960:	00430313          	addi	x6,x6,4

00000964 <I_slti_cg_cp_rd_b31>:
I_slti_cg_cp_rd_b31:
  slti x31, x4, -961 # perform operation
     964:	c3f22f93          	slti	x31,x4,-961
  # Check if x31 contains the expected result. x19 is the signature ptr, x8 is the link ptr, x7 is a temp reg.
  RVTEST_SIGUPD(x19, x8, x7, x31, I_slti_cg_cp_rd_b31, I_slti_cg_cp_rd_b31_str)
     968:	0009a383          	lw	x7,0(x19)
     96c:	01f38863          	beq	x7,x31,97c <I_slti_cg_cp_rd_b31+0x18>
     970:	3450246f          	jal	x8,34b4 <failedtest_x8_x7>
     974:	00000964          	.word	0x00000964
     978:	00009264          	.word	0x00009264
     97c:	00498993          	addi	x19,x19,4
/////////////////////////////////
// cp_rs1_edges
/////////////////////////////////

# Testcase cp_rs1_edges (Test source rs1 value = 0x00000000)
  RVTEST_TESTDATA_LOAD_INT(x6, x23) # load rs1: x23 = 0x00000000
     980:	00032b83          	lw	x23,0(x6)
     984:	00430313          	addi	x6,x6,4

00000988 <I_slti_cg_cp_rs1_edges_0x0>:
I_slti_cg_cp_rs1_edges_0x0:
  slti x18, x23, -1537 # perform operation
     988:	9ffba913          	slti	x18,x23,-1537
  # Check if x18 contains the expected result. x19 is the signature ptr, x8 is the link ptr, x7 is a temp reg.
  RVTEST_SIGUPD(x19, x8, x7, x18, I_slti_cg_cp_rs1_edges_0x0, I_slti_cg_cp_rs1_edges_0x0_str)
     98c:	0009a383          	lw	x7,0(x19)
     990:	01238863          	beq	x7,x18,9a0 <I_slti_cg_cp_rs1_edges_0x0+0x18>
     994:	3210246f          	jal	x8,34b4 <failedtest_x8_x7>
     998:	00000988          	.word	0x00000988
     99c:	00009293          	.word	0x00009293
     9a0:	00498993          	addi	x19,x19,4

# Testcase cp_rs1_edges (Test source rs1 value = 0x00000001)
  RVTEST_TESTDATA_LOAD_INT(x6, x26) # load rs1: x26 = 0x00000001
     9a4:	00032d03          	lw	x26,0(x6)
     9a8:	00430313          	addi	x6,x6,4

000009ac <I_slti_cg_cp_rs1_edges_0x1>:
I_slti_cg_cp_rs1_edges_0x1:
  slti x10, x26, 811 # perform operation
     9ac:	32bd2513          	slti	x10,x26,811
  # Check if x10 contains the expected result. x19 is the signature ptr, x8 is the link ptr, x7 is a temp reg.
  RVTEST_SIGUPD(x19, x8, x7, x10, I_slti_cg_cp_rs1_edges_0x1, I_slti_cg_cp_rs1_edges_0x1_str)
     9b0:	0009a383          	lw	x7,0(x19)
     9b4:	00a38863          	beq	x7,x10,9c4 <I_slti_cg_cp_rs1_edges_0x1+0x18>
     9b8:	2fd0246f          	jal	x8,34b4 <failedtest_x8_x7>
     9bc:	000009ac          	.word	0x000009ac
     9c0:	000092c9          	.word	0x000092c9
     9c4:	00498993          	addi	x19,x19,4

# Testcase cp_rs1_edges (Test source rs1 value = 0x00000002)
  RVTEST_TESTDATA_LOAD_INT(x6, x1) # load rs1: x1 = 0x00000002
     9c8:	00032083          	lw	x1,0(x6)
     9cc:	00430313          	addi	x6,x6,4

000009d0 <I_slti_cg_cp_rs1_edges_0x2>:
I_slti_cg_cp_rs1_edges_0x2:
  slti x15, x1, -3 # perform operation
     9d0:	ffd0a793          	slti	x15,x1,-3
  # Check if x15 contains the expected result. x19 is the signature ptr, x8 is the link ptr, x7 is a temp reg.
  RVTEST_SIGUPD(x19, x8, x7, x15, I_slti_cg_cp_rs1_edges_0x2, I_slti_cg_cp_rs1_edges_0x2_str)
     9d4:	0009a383          	lw	x7,0(x19)
     9d8:	00f38863          	beq	x7,x15,9e8 <I_slti_cg_cp_rs1_edges_0x2+0x18>
     9dc:	2d90246f          	jal	x8,34b4 <failedtest_x8_x7>
     9e0:	000009d0          	.word	0x000009d0
     9e4:	000092ff          	.word	0x000092ff
     9e8:	00498993          	addi	x19,x19,4

# Testcase cp_rs1_edges (Test source rs1 value = 0x80000000)
  RVTEST_TESTDATA_LOAD_INT(x6, x27) # load rs1: x27 = 0x80000000
     9ec:	00032d83          	lw	x27,0(x6)
     9f0:	00430313          	addi	x6,x6,4

000009f4 <I_slti_cg_cp_rs1_edges_0x80000000>:
I_slti_cg_cp_rs1_edges_0x80000000:
  slti x18, x27, 76 # perform operation
     9f4:	04cda913          	slti	x18,x27,76
  # Check if x18 contains the expected result. x19 is the signature ptr, x8 is the link ptr, x7 is a temp reg.
  RVTEST_SIGUPD(x19, x8, x7, x18, I_slti_cg_cp_rs1_edges_0x80000000, I_slti_cg_cp_rs1_edges_0x80000000_str)
     9f8:	0009a383          	lw	x7,0(x19)
     9fc:	01238863          	beq	x7,x18,a0c <I_slti_cg_cp_rs1_edges_0x80000000+0x18>
     a00:	2b50246f          	jal	x8,34b4 <failedtest_x8_x7>
     a04:	000009f4          	.word	0x000009f4
     a08:	00009335          	.word	0x00009335
     a0c:	00498993          	addi	x19,x19,4

# Testcase cp_rs1_edges (Test source rs1 value = 0x80000001)
  RVTEST_TESTDATA_LOAD_INT(x6, x20) # load rs1: x20 = 0x80000001
     a10:	00032a03          	lw	x20,0(x6)
     a14:	00430313          	addi	x6,x6,4

00000a18 <I_slti_cg_cp_rs1_edges_0x80000001>:
I_slti_cg_cp_rs1_edges_0x80000001:
  slti x15, x20, 1043 # perform operation
     a18:	413a2793          	slti	x15,x20,1043
  # Check if x15 contains the expected result. x19 is the signature ptr, x8 is the link ptr, x7 is a temp reg.
  RVTEST_SIGUPD(x19, x8, x7, x15, I_slti_cg_cp_rs1_edges_0x80000001, I_slti_cg_cp_rs1_edges_0x80000001_str)
     a1c:	0009a383          	lw	x7,0(x19)
     a20:	00f38863          	beq	x7,x15,a30 <I_slti_cg_cp_rs1_edges_0x80000001+0x18>
     a24:	2910246f          	jal	x8,34b4 <failedtest_x8_x7>
     a28:	00000a18          	.word	0x00000a18
     a2c:	00009372          	.word	0x00009372
     a30:	00498993          	addi	x19,x19,4

# Testcase cp_rs1_edges (Test source rs1 value = 0x7fffffff)
  RVTEST_TESTDATA_LOAD_INT(x6, x11) # load rs1: x11 = 0x7fffffff
     a34:	00032583          	lw	x11,0(x6)
     a38:	00430313          	addi	x6,x6,4

00000a3c <I_slti_cg_cp_rs1_edges_0x7fffffff>:
I_slti_cg_cp_rs1_edges_0x7fffffff:
  slti x22, x11, 323 # perform operation
     a3c:	1435ab13          	slti	x22,x11,323
  # Check if x22 contains the expected result. x19 is the signature ptr, x8 is the link ptr, x7 is a temp reg.
  RVTEST_SIGUPD(x19, x8, x7, x22, I_slti_cg_cp_rs1_edges_0x7fffffff, I_slti_cg_cp_rs1_edges_0x7fffffff_str)
     a40:	0009a383          	lw	x7,0(x19)
     a44:	01638863          	beq	x7,x22,a54 <I_slti_cg_cp_rs1_edges_0x7fffffff+0x18>
     a48:	26d0246f          	jal	x8,34b4 <failedtest_x8_x7>
     a4c:	00000a3c          	.word	0x00000a3c
     a50:	000093af          	.word	0x000093af
     a54:	00498993          	addi	x19,x19,4

# Testcase cp_rs1_edges (Test source rs1 value = 0x7ffffffe)
  RVTEST_TESTDATA_LOAD_INT(x6, x12) # load rs1: x12 = 0x7ffffffe
     a58:	00032603          	lw	x12,0(x6)
     a5c:	00430313          	addi	x6,x6,4

00000a60 <I_slti_cg_cp_rs1_edges_0x7ffffffe>:
I_slti_cg_cp_rs1_edges_0x7ffffffe:
  slti x14, x12, 1928 # perform operation
     a60:	78862713          	slti	x14,x12,1928
  # Check if x14 contains the expected result. x19 is the signature ptr, x8 is the link ptr, x7 is a temp reg.
  RVTEST_SIGUPD(x19, x8, x7, x14, I_slti_cg_cp_rs1_edges_0x7ffffffe, I_slti_cg_cp_rs1_edges_0x7ffffffe_str)
     a64:	0009a383          	lw	x7,0(x19)
     a68:	00e38863          	beq	x7,x14,a78 <I_slti_cg_cp_rs1_edges_0x7ffffffe+0x18>
     a6c:	2490246f          	jal	x8,34b4 <failedtest_x8_x7>
     a70:	00000a60          	.word	0x00000a60
     a74:	000093ec          	.word	0x000093ec
     a78:	00498993          	addi	x19,x19,4

# Testcase cp_rs1_edges (Test source rs1 value = 0xffffffff)
  RVTEST_TESTDATA_LOAD_INT(x6, x17) # load rs1: x17 = 0xffffffff
     a7c:	00032883          	lw	x17,0(x6)
     a80:	00430313          	addi	x6,x6,4

00000a84 <I_slti_cg_cp_rs1_edges_0xffffffff>:
I_slti_cg_cp_rs1_edges_0xffffffff:
  slti x21, x17, -1698 # perform operation
     a84:	95e8aa93          	slti	x21,x17,-1698
  # Check if x21 contains the expected result. x19 is the signature ptr, x8 is the link ptr, x7 is a temp reg.
  RVTEST_SIGUPD(x19, x8, x7, x21, I_slti_cg_cp_rs1_edges_0xffffffff, I_slti_cg_cp_rs1_edges_0xffffffff_str)
     a88:	0009a383          	lw	x7,0(x19)
     a8c:	01538863          	beq	x7,x21,a9c <I_slti_cg_cp_rs1_edges_0xffffffff+0x18>
     a90:	2250246f          	jal	x8,34b4 <failedtest_x8_x7>
     a94:	00000a84          	.word	0x00000a84
     a98:	00009429          	.word	0x00009429
     a9c:	00498993          	addi	x19,x19,4

# Testcase cp_rs1_edges (Test source rs1 value = 0xfffffffe)
  RVTEST_TESTDATA_LOAD_INT(x6, x14) # load rs1: x14 = 0xfffffffe
     aa0:	00032703          	lw	x14,0(x6)
     aa4:	00430313          	addi	x6,x6,4

00000aa8 <I_slti_cg_cp_rs1_edges_0xfffffffe>:
I_slti_cg_cp_rs1_edges_0xfffffffe:
  slti x27, x14, -1673 # perform operation
     aa8:	97772d93          	slti	x27,x14,-1673
  # Check if x27 contains the expected result. x19 is the signature ptr, x8 is the link ptr, x7 is a temp reg.
  RVTEST_SIGUPD(x19, x8, x7, x27, I_slti_cg_cp_rs1_edges_0xfffffffe, I_slti_cg_cp_rs1_edges_0xfffffffe_str)
     aac:	0009a383          	lw	x7,0(x19)
     ab0:	01b38863          	beq	x7,x27,ac0 <I_slti_cg_cp_rs1_edges_0xfffffffe+0x18>
     ab4:	2010246f          	jal	x8,34b4 <failedtest_x8_x7>
     ab8:	00000aa8          	.word	0x00000aa8
     abc:	00009466          	.word	0x00009466
     ac0:	00498993          	addi	x19,x19,4

# Testcase cp_rs1_edges (Test source rs1 value = 0x5bbc8872)
  RVTEST_TESTDATA_LOAD_INT(x6, x30) # load rs1: x30 = 0x5bbc8872
     ac4:	00032f03          	lw	x30,0(x6)
     ac8:	00430313          	addi	x6,x6,4

00000acc <I_slti_cg_cp_rs1_edges_0x5bbc8872>:
I_slti_cg_cp_rs1_edges_0x5bbc8872:
  slti x18, x30, -268 # perform operation
     acc:	ef4f2913          	slti	x18,x30,-268
  # Check if x18 contains the expected result. x19 is the signature ptr, x8 is the link ptr, x7 is a temp reg.
  RVTEST_SIGUPD(x19, x8, x7, x18, I_slti_cg_cp_rs1_edges_0x5bbc8872, I_slti_cg_cp_rs1_edges_0x5bbc8872_str)
     ad0:	0009a383          	lw	x7,0(x19)
     ad4:	01238863          	beq	x7,x18,ae4 <I_slti_cg_cp_rs1_edges_0x5bbc8872+0x18>
     ad8:	1dd0246f          	jal	x8,34b4 <failedtest_x8_x7>
     adc:	00000acc          	.word	0x00000acc
     ae0:	000094a3          	.word	0x000094a3
     ae4:	00498993          	addi	x19,x19,4

# Testcase cp_rs1_edges (Test source rs1 value = 0xaaaaaaaa)
  RVTEST_TESTDATA_LOAD_INT(x6, x2) # load rs1: x2 = 0xaaaaaaaa
     ae8:	00032103          	lw	x2,0(x6)
     aec:	00430313          	addi	x6,x6,4

00000af0 <I_slti_cg_cp_rs1_edges_0xaaaaaaaa>:
I_slti_cg_cp_rs1_edges_0xaaaaaaaa:
  slti x15, x2, -1041 # perform operation
     af0:	bef12793          	slti	x15,x2,-1041
  # Check if x15 contains the expected result. x19 is the signature ptr, x8 is the link ptr, x7 is a temp reg.
  RVTEST_SIGUPD(x19, x8, x7, x15, I_slti_cg_cp_rs1_edges_0xaaaaaaaa, I_slti_cg_cp_rs1_edges_0xaaaaaaaa_str)
     af4:	0009a383          	lw	x7,0(x19)
     af8:	00f38863          	beq	x7,x15,b08 <I_slti_cg_cp_rs1_edges_0xaaaaaaaa+0x18>
     afc:	1b90246f          	jal	x8,34b4 <failedtest_x8_x7>
     b00:	00000af0          	.word	0x00000af0
     b04:	000094e0          	.word	0x000094e0
     b08:	00498993          	addi	x19,x19,4

# Testcase cp_rs1_edges (Test source rs1 value = 0x55555555)
  RVTEST_TESTDATA_LOAD_INT(x6, x12) # load rs1: x12 = 0x55555555
     b0c:	00032603          	lw	x12,0(x6)
     b10:	00430313          	addi	x6,x6,4

00000b14 <I_slti_cg_cp_rs1_edges_0x55555555>:
I_slti_cg_cp_rs1_edges_0x55555555:
  slti x29, x12, 2014 # perform operation
     b14:	7de62e93          	slti	x29,x12,2014
  # Check if x29 contains the expected result. x19 is the signature ptr, x8 is the link ptr, x7 is a temp reg.
  RVTEST_SIGUPD(x19, x8, x7, x29, I_slti_cg_cp_rs1_edges_0x55555555, I_slti_cg_cp_rs1_edges_0x55555555_str)
     b18:	0009a383          	lw	x7,0(x19)
     b1c:	01d38863          	beq	x7,x29,b2c <I_slti_cg_cp_rs1_edges_0x55555555+0x18>
     b20:	1950246f          	jal	x8,34b4 <failedtest_x8_x7>
     b24:	00000b14          	.word	0x00000b14
     b28:	0000951d          	.word	0x0000951d
     b2c:	00498993          	addi	x19,x19,4
/////////////////////////////////
// cr_rs1_imm_edges
/////////////////////////////////

# Testcase cr_rs1_imm_edges (rs1 = 0x00000000, imm = 0)
  RVTEST_TESTDATA_LOAD_INT(x6, x4) # load rs1: x4 = 0x00000000
     b30:	00032203          	lw	x4,0(x6)
     b34:	00430313          	addi	x6,x6,4

00000b38 <I_slti_cg_cr_rs1_imm_edges_rs1val_0x0_immval_0x0>:
I_slti_cg_cr_rs1_imm_edges_rs1val_0x0_immval_0x0:
  slti x2, x4, 0 # perform operation
     b38:	00022113          	slti	x2,x4,0
  # Check if x2 contains the expected result. x19 is the signature ptr, x8 is the link ptr, x7 is a temp reg.
  RVTEST_SIGUPD(x19, x8, x7, x2, I_slti_cg_cr_rs1_imm_edges_rs1val_0x0_immval_0x0, I_slti_cg_cr_rs1_imm_edges_rs1val_0x0_immval_0x0_str)
     b3c:	0009a383          	lw	x7,0(x19)
     b40:	00238863          	beq	x7,x2,b50 <I_slti_cg_cr_rs1_imm_edges_rs1val_0x0_immval_0x0+0x18>
     b44:	1710246f          	jal	x8,34b4 <failedtest_x8_x7>
     b48:	00000b38          	.word	0x00000b38
     b4c:	0000955a          	.word	0x0000955a
     b50:	00498993          	addi	x19,x19,4

# Testcase cr_rs1_imm_edges (rs1 = 0x00000000, imm = 1)
  RVTEST_TESTDATA_LOAD_INT(x6, x22) # load rs1: x22 = 0x00000000
     b54:	00032b03          	lw	x22,0(x6)
     b58:	00430313          	addi	x6,x6,4

00000b5c <I_slti_cg_cr_rs1_imm_edges_rs1val_0x0_immval_0x1>:
I_slti_cg_cr_rs1_imm_edges_rs1val_0x0_immval_0x1:
  slti x31, x22, 1 # perform operation
     b5c:	001b2f93          	slti	x31,x22,1
  # Check if x31 contains the expected result. x19 is the signature ptr, x8 is the link ptr, x7 is a temp reg.
  RVTEST_SIGUPD(x19, x8, x7, x31, I_slti_cg_cr_rs1_imm_edges_rs1val_0x0_immval_0x1, I_slti_cg_cr_rs1_imm_edges_rs1val_0x0_immval_0x1_str)
     b60:	0009a383          	lw	x7,0(x19)
     b64:	01f38863          	beq	x7,x31,b74 <I_slti_cg_cr_rs1_imm_edges_rs1val_0x0_immval_0x1+0x18>
     b68:	14d0246f          	jal	x8,34b4 <failedtest_x8_x7>
     b6c:	00000b5c          	.word	0x00000b5c
     b70:	000095a7          	.word	0x000095a7
     b74:	00498993          	addi	x19,x19,4

# Testcase cr_rs1_imm_edges (rs1 = 0x00000000, imm = 2)
  RVTEST_TESTDATA_LOAD_INT(x6, x1) # load rs1: x1 = 0x00000000
     b78:	00032083          	lw	x1,0(x6)
     b7c:	00430313          	addi	x6,x6,4

00000b80 <I_slti_cg_cr_rs1_imm_edges_rs1val_0x0_immval_0x2>:
I_slti_cg_cr_rs1_imm_edges_rs1val_0x0_immval_0x2:
  slti x13, x1, 2 # perform operation
     b80:	0020a693          	slti	x13,x1,2
  # Check if x13 contains the expected result. x19 is the signature ptr, x8 is the link ptr, x7 is a temp reg.
  RVTEST_SIGUPD(x19, x8, x7, x13, I_slti_cg_cr_rs1_imm_edges_rs1val_0x0_immval_0x2, I_slti_cg_cr_rs1_imm_edges_rs1val_0x0_immval_0x2_str)
     b84:	0009a383          	lw	x7,0(x19)
     b88:	00d38863          	beq	x7,x13,b98 <I_slti_cg_cr_rs1_imm_edges_rs1val_0x0_immval_0x2+0x18>
     b8c:	1290246f          	jal	x8,34b4 <failedtest_x8_x7>
     b90:	00000b80          	.word	0x00000b80
     b94:	000095f4          	.word	0x000095f4
     b98:	00498993          	addi	x19,x19,4

# Testcase cr_rs1_imm_edges (rs1 = 0x00000000, imm = 3)
  RVTEST_TESTDATA_LOAD_INT(x6, x16) # load rs1: x16 = 0x00000000
     b9c:	00032803          	lw	x16,0(x6)
     ba0:	00430313          	addi	x6,x6,4

00000ba4 <I_slti_cg_cr_rs1_imm_edges_rs1val_0x0_immval_0x3>:
I_slti_cg_cr_rs1_imm_edges_rs1val_0x0_immval_0x3:
  slti x4, x16, 3 # perform operation
     ba4:	00382213          	slti	x4,x16,3
  # Check if x4 contains the expected result. x19 is the signature ptr, x8 is the link ptr, x7 is a temp reg.
  RVTEST_SIGUPD(x19, x8, x7, x4, I_slti_cg_cr_rs1_imm_edges_rs1val_0x0_immval_0x3, I_slti_cg_cr_rs1_imm_edges_rs1val_0x0_immval_0x3_str)
     ba8:	0009a383          	lw	x7,0(x19)
     bac:	00438863          	beq	x7,x4,bbc <I_slti_cg_cr_rs1_imm_edges_rs1val_0x0_immval_0x3+0x18>
     bb0:	1050246f          	jal	x8,34b4 <failedtest_x8_x7>
     bb4:	00000ba4          	.word	0x00000ba4
     bb8:	00009641          	.word	0x00009641
     bbc:	00498993          	addi	x19,x19,4

# Testcase cr_rs1_imm_edges (rs1 = 0x00000000, imm = 4)
  RVTEST_TESTDATA_LOAD_INT(x6, x30) # load rs1: x30 = 0x00000000
     bc0:	00032f03          	lw	x30,0(x6)
     bc4:	00430313          	addi	x6,x6,4

00000bc8 <I_slti_cg_cr_rs1_imm_edges_rs1val_0x0_immval_0x4>:
I_slti_cg_cr_rs1_imm_edges_rs1val_0x0_immval_0x4:
  slti x25, x30, 4 # perform operation
     bc8:	004f2c93          	slti	x25,x30,4
  # Check if x25 contains the expected result. x19 is the signature ptr, x8 is the link ptr, x7 is a temp reg.
  RVTEST_SIGUPD(x19, x8, x7, x25, I_slti_cg_cr_rs1_imm_edges_rs1val_0x0_immval_0x4, I_slti_cg_cr_rs1_imm_edges_rs1val_0x0_immval_0x4_str)
     bcc:	0009a383          	lw	x7,0(x19)
     bd0:	01938863          	beq	x7,x25,be0 <I_slti_cg_cr_rs1_imm_edges_rs1val_0x0_immval_0x4+0x18>
     bd4:	0e10246f          	jal	x8,34b4 <failedtest_x8_x7>
     bd8:	00000bc8          	.word	0x00000bc8
     bdc:	0000968e          	.word	0x0000968e
     be0:	00498993          	addi	x19,x19,4

# Testcase cr_rs1_imm_edges (rs1 = 0x00000000, imm = 8)
  RVTEST_TESTDATA_LOAD_INT(x6, x15) # load rs1: x15 = 0x00000000
     be4:	00032783          	lw	x15,0(x6)
     be8:	00430313          	addi	x6,x6,4

00000bec <I_slti_cg_cr_rs1_imm_edges_rs1val_0x0_immval_0x8>:
I_slti_cg_cr_rs1_imm_edges_rs1val_0x0_immval_0x8:
  slti x31, x15, 8 # perform operation
     bec:	0087af93          	slti	x31,x15,8
  # Check if x31 contains the expected result. x19 is the signature ptr, x8 is the link ptr, x7 is a temp reg.
  RVTEST_SIGUPD(x19, x8, x7, x31, I_slti_cg_cr_rs1_imm_edges_rs1val_0x0_immval_0x8, I_slti_cg_cr_rs1_imm_edges_rs1val_0x0_immval_0x8_str)
     bf0:	0009a383          	lw	x7,0(x19)
     bf4:	01f38863          	beq	x7,x31,c04 <I_slti_cg_cr_rs1_imm_edges_rs1val_0x0_immval_0x8+0x18>
     bf8:	0bd0246f          	jal	x8,34b4 <failedtest_x8_x7>
     bfc:	00000bec          	.word	0x00000bec
     c00:	000096db          	.word	0x000096db
     c04:	00498993          	addi	x19,x19,4

# Testcase cr_rs1_imm_edges (rs1 = 0x00000000, imm = 16)
  RVTEST_TESTDATA_LOAD_INT(x6, x29) # load rs1: x29 = 0x00000000
     c08:	00032e83          	lw	x29,0(x6)
     c0c:	00430313          	addi	x6,x6,4

00000c10 <I_slti_cg_cr_rs1_imm_edges_rs1val_0x0_immval_0x10>:
I_slti_cg_cr_rs1_imm_edges_rs1val_0x0_immval_0x10:
  slti x16, x29, 16 # perform operation
     c10:	010ea813          	slti	x16,x29,16
  # Check if x16 contains the expected result. x19 is the signature ptr, x8 is the link ptr, x7 is a temp reg.
  RVTEST_SIGUPD(x19, x8, x7, x16, I_slti_cg_cr_rs1_imm_edges_rs1val_0x0_immval_0x10, I_slti_cg_cr_rs1_imm_edges_rs1val_0x0_immval_0x10_str)
     c14:	0009a383          	lw	x7,0(x19)
     c18:	01038863          	beq	x7,x16,c28 <I_slti_cg_cr_rs1_imm_edges_rs1val_0x0_immval_0x10+0x18>
     c1c:	0990246f          	jal	x8,34b4 <failedtest_x8_x7>
     c20:	00000c10          	.word	0x00000c10
     c24:	00009728          	.word	0x00009728
     c28:	00498993          	addi	x19,x19,4

# Testcase cr_rs1_imm_edges (rs1 = 0x00000000, imm = 32)
  RVTEST_TESTDATA_LOAD_INT(x6, x12) # load rs1: x12 = 0x00000000
     c2c:	00032603          	lw	x12,0(x6)
     c30:	00430313          	addi	x6,x6,4

00000c34 <I_slti_cg_cr_rs1_imm_edges_rs1val_0x0_immval_0x20>:
I_slti_cg_cr_rs1_imm_edges_rs1val_0x0_immval_0x20:
  slti x5, x12, 32 # perform operation
     c34:	02062293          	slti	x5,x12,32
  # Check if x5 contains the expected result. x19 is the signature ptr, x8 is the link ptr, x7 is a temp reg.
  RVTEST_SIGUPD(x19, x8, x7, x5, I_slti_cg_cr_rs1_imm_edges_rs1val_0x0_immval_0x20, I_slti_cg_cr_rs1_imm_edges_rs1val_0x0_immval_0x20_str)
     c38:	0009a383          	lw	x7,0(x19)
     c3c:	00538863          	beq	x7,x5,c4c <I_slti_cg_cr_rs1_imm_edges_rs1val_0x0_immval_0x20+0x18>
     c40:	0750246f          	jal	x8,34b4 <failedtest_x8_x7>
     c44:	00000c34          	.word	0x00000c34
     c48:	00009776          	.word	0x00009776
     c4c:	00498993          	addi	x19,x19,4

# Testcase cr_rs1_imm_edges (rs1 = 0x00000000, imm = 64)
  RVTEST_TESTDATA_LOAD_INT(x6, x26) # load rs1: x26 = 0x00000000
     c50:	00032d03          	lw	x26,0(x6)
     c54:	00430313          	addi	x6,x6,4

00000c58 <I_slti_cg_cr_rs1_imm_edges_rs1val_0x0_immval_0x40>:
I_slti_cg_cr_rs1_imm_edges_rs1val_0x0_immval_0x40:
  slti x20, x26, 64 # perform operation
     c58:	040d2a13          	slti	x20,x26,64
  # Check if x20 contains the expected result. x19 is the signature ptr, x8 is the link ptr, x7 is a temp reg.
  RVTEST_SIGUPD(x19, x8, x7, x20, I_slti_cg_cr_rs1_imm_edges_rs1val_0x0_immval_0x40, I_slti_cg_cr_rs1_imm_edges_rs1val_0x0_immval_0x40_str)
     c5c:	0009a383          	lw	x7,0(x19)
     c60:	01438863          	beq	x7,x20,c70 <I_slti_cg_cr_rs1_imm_edges_rs1val_0x0_immval_0x40+0x18>
     c64:	0510246f          	jal	x8,34b4 <failedtest_x8_x7>
     c68:	00000c58          	.word	0x00000c58
     c6c:	000097c4          	.word	0x000097c4
     c70:	00498993          	addi	x19,x19,4

# Testcase cr_rs1_imm_edges (rs1 = 0x00000000, imm = 128)
  RVTEST_TESTDATA_LOAD_INT(x6, x20) # load rs1: x20 = 0x00000000
     c74:	00032a03          	lw	x20,0(x6)
     c78:	00430313          	addi	x6,x6,4

00000c7c <I_slti_cg_cr_rs1_imm_edges_rs1val_0x0_immval_0x80>:
I_slti_cg_cr_rs1_imm_edges_rs1val_0x0_immval_0x80:
  slti x17, x20, 128 # perform operation
     c7c:	080a2893          	slti	x17,x20,128
  # Check if x17 contains the expected result. x19 is the signature ptr, x8 is the link ptr, x7 is a temp reg.
  RVTEST_SIGUPD(x19, x8, x7, x17, I_slti_cg_cr_rs1_imm_edges_rs1val_0x0_immval_0x80, I_slti_cg_cr_rs1_imm_edges_rs1val_0x0_immval_0x80_str)
     c80:	0009a383          	lw	x7,0(x19)
     c84:	01138863          	beq	x7,x17,c94 <I_slti_cg_cr_rs1_imm_edges_rs1val_0x0_immval_0x80+0x18>
     c88:	02d0246f          	jal	x8,34b4 <failedtest_x8_x7>
     c8c:	00000c7c          	.word	0x00000c7c
     c90:	00009812          	.word	0x00009812
     c94:	00498993          	addi	x19,x19,4

# Testcase cr_rs1_imm_edges (rs1 = 0x00000000, imm = 256)
  RVTEST_TESTDATA_LOAD_INT(x6, x22) # load rs1: x22 = 0x00000000
     c98:	00032b03          	lw	x22,0(x6)
     c9c:	00430313          	addi	x6,x6,4

00000ca0 <I_slti_cg_cr_rs1_imm_edges_rs1val_0x0_immval_0x100>:
I_slti_cg_cr_rs1_imm_edges_rs1val_0x0_immval_0x100:
  slti x4, x22, 256 # perform operation
     ca0:	100b2213          	slti	x4,x22,256
  # Check if x4 contains the expected result. x19 is the signature ptr, x8 is the link ptr, x7 is a temp reg.
  RVTEST_SIGUPD(x19, x8, x7, x4, I_slti_cg_cr_rs1_imm_edges_rs1val_0x0_immval_0x100, I_slti_cg_cr_rs1_imm_edges_rs1val_0x0_immval_0x100_str)
     ca4:	0009a383          	lw	x7,0(x19)
     ca8:	00438863          	beq	x7,x4,cb8 <I_slti_cg_cr_rs1_imm_edges_rs1val_0x0_immval_0x100+0x18>
     cac:	0090246f          	jal	x8,34b4 <failedtest_x8_x7>
     cb0:	00000ca0          	.word	0x00000ca0
     cb4:	00009860          	.word	0x00009860
     cb8:	00498993          	addi	x19,x19,4

# Testcase cr_rs1_imm_edges (rs1 = 0x00000000, imm = 512)
  RVTEST_TESTDATA_LOAD_INT(x6, x26) # load rs1: x26 = 0x00000000
     cbc:	00032d03          	lw	x26,0(x6)
     cc0:	00430313          	addi	x6,x6,4

00000cc4 <I_slti_cg_cr_rs1_imm_edges_rs1val_0x0_immval_0x200>:
I_slti_cg_cr_rs1_imm_edges_rs1val_0x0_immval_0x200:
  slti x20, x26, 512 # perform operation
     cc4:	200d2a13          	slti	x20,x26,512
  # Check if x20 contains the expected result. x19 is the signature ptr, x8 is the link ptr, x7 is a temp reg.
  RVTEST_SIGUPD(x19, x8, x7, x20, I_slti_cg_cr_rs1_imm_edges_rs1val_0x0_immval_0x200, I_slti_cg_cr_rs1_imm_edges_rs1val_0x0_immval_0x200_str)
     cc8:	0009a383          	lw	x7,0(x19)
     ccc:	01438863          	beq	x7,x20,cdc <I_slti_cg_cr_rs1_imm_edges_rs1val_0x0_immval_0x200+0x18>
     cd0:	7e40246f          	jal	x8,34b4 <failedtest_x8_x7>
     cd4:	00000cc4          	.word	0x00000cc4
     cd8:	000098af          	.word	0x000098af
     cdc:	00498993          	addi	x19,x19,4

# Testcase cr_rs1_imm_edges (rs1 = 0x00000000, imm = 1023)
  RVTEST_TESTDATA_LOAD_INT(x6, x29) # load rs1: x29 = 0x00000000
     ce0:	00032e83          	lw	x29,0(x6)
     ce4:	00430313          	addi	x6,x6,4

00000ce8 <I_slti_cg_cr_rs1_imm_edges_rs1val_0x0_immval_0x3ff>:
I_slti_cg_cr_rs1_imm_edges_rs1val_0x0_immval_0x3ff:
  slti x16, x29, 1023 # perform operation
     ce8:	3ffea813          	slti	x16,x29,1023
  # Check if x16 contains the expected result. x19 is the signature ptr, x8 is the link ptr, x7 is a temp reg.
  RVTEST_SIGUPD(x19, x8, x7, x16, I_slti_cg_cr_rs1_imm_edges_rs1val_0x0_immval_0x3ff, I_slti_cg_cr_rs1_imm_edges_rs1val_0x0_immval_0x3ff_str)
     cec:	0009a383          	lw	x7,0(x19)
     cf0:	01038863          	beq	x7,x16,d00 <I_slti_cg_cr_rs1_imm_edges_rs1val_0x0_immval_0x3ff+0x18>
     cf4:	7c00246f          	jal	x8,34b4 <failedtest_x8_x7>
     cf8:	00000ce8          	.word	0x00000ce8
     cfc:	000098fe          	.word	0x000098fe
     d00:	00498993          	addi	x19,x19,4

# Testcase cr_rs1_imm_edges (rs1 = 0x00000000, imm = 1024)
  RVTEST_TESTDATA_LOAD_INT(x6, x26) # load rs1: x26 = 0x00000000
     d04:	00032d03          	lw	x26,0(x6)
     d08:	00430313          	addi	x6,x6,4

00000d0c <I_slti_cg_cr_rs1_imm_edges_rs1val_0x0_immval_0x400>:
I_slti_cg_cr_rs1_imm_edges_rs1val_0x0_immval_0x400:
  slti x4, x26, 1024 # perform operation
     d0c:	400d2213          	slti	x4,x26,1024
  # Check if x4 contains the expected result. x19 is the signature ptr, x8 is the link ptr, x7 is a temp reg.
  RVTEST_SIGUPD(x19, x8, x7, x4, I_slti_cg_cr_rs1_imm_edges_rs1val_0x0_immval_0x400, I_slti_cg_cr_rs1_imm_edges_rs1val_0x0_immval_0x400_str)
     d10:	0009a383          	lw	x7,0(x19)
     d14:	00438863          	beq	x7,x4,d24 <I_slti_cg_cr_rs1_imm_edges_rs1val_0x0_immval_0x400+0x18>
     d18:	79c0246f          	jal	x8,34b4 <failedtest_x8_x7>
     d1c:	00000d0c          	.word	0x00000d0c
     d20:	0000994d          	.word	0x0000994d
     d24:	00498993          	addi	x19,x19,4

# Testcase cr_rs1_imm_edges (rs1 = 0x00000000, imm = 1795)
  RVTEST_TESTDATA_LOAD_INT(x6, x15) # load rs1: x15 = 0x00000000
     d28:	00032783          	lw	x15,0(x6)
     d2c:	00430313          	addi	x6,x6,4

00000d30 <I_slti_cg_cr_rs1_imm_edges_rs1val_0x0_immval_0x703>:
I_slti_cg_cr_rs1_imm_edges_rs1val_0x0_immval_0x703:
  slti x26, x15, 1795 # perform operation
     d30:	7037ad13          	slti	x26,x15,1795
  # Check if x26 contains the expected result. x19 is the signature ptr, x8 is the link ptr, x7 is a temp reg.
  RVTEST_SIGUPD(x19, x8, x7, x26, I_slti_cg_cr_rs1_imm_edges_rs1val_0x0_immval_0x703, I_slti_cg_cr_rs1_imm_edges_rs1val_0x0_immval_0x703_str)
     d34:	0009a383          	lw	x7,0(x19)
     d38:	01a38863          	beq	x7,x26,d48 <I_slti_cg_cr_rs1_imm_edges_rs1val_0x0_immval_0x703+0x18>
     d3c:	7780246f          	jal	x8,34b4 <failedtest_x8_x7>
     d40:	00000d30          	.word	0x00000d30
     d44:	0000999c          	.word	0x0000999c
     d48:	00498993          	addi	x19,x19,4

# Testcase cr_rs1_imm_edges (rs1 = 0x00000000, imm = 2047)
  RVTEST_TESTDATA_LOAD_INT(x6, x17) # load rs1: x17 = 0x00000000
     d4c:	00032883          	lw	x17,0(x6)
     d50:	00430313          	addi	x6,x6,4

00000d54 <I_slti_cg_cr_rs1_imm_edges_rs1val_0x0_immval_0x7ff>:
I_slti_cg_cr_rs1_imm_edges_rs1val_0x0_immval_0x7ff:
  slti x12, x17, 2047 # perform operation
     d54:	7ff8a613          	slti	x12,x17,2047
  # Check if x12 contains the expected result. x19 is the signature ptr, x8 is the link ptr, x7 is a temp reg.
  RVTEST_SIGUPD(x19, x8, x7, x12, I_slti_cg_cr_rs1_imm_edges_rs1val_0x0_immval_0x7ff, I_slti_cg_cr_rs1_imm_edges_rs1val_0x0_immval_0x7ff_str)
     d58:	0009a383          	lw	x7,0(x19)
     d5c:	00c38863          	beq	x7,x12,d6c <I_slti_cg_cr_rs1_imm_edges_rs1val_0x0_immval_0x7ff+0x18>
     d60:	7540246f          	jal	x8,34b4 <failedtest_x8_x7>
     d64:	00000d54          	.word	0x00000d54
     d68:	000099eb          	.word	0x000099eb
     d6c:	00498993          	addi	x19,x19,4

# Testcase cr_rs1_imm_edges (rs1 = 0x00000000, imm = -2048)
  RVTEST_TESTDATA_LOAD_INT(x6, x13) # load rs1: x13 = 0x00000000
     d70:	00032683          	lw	x13,0(x6)
     d74:	00430313          	addi	x6,x6,4

00000d78 <I_slti_cg_cr_rs1_imm_edges_rs1val_0x0_immval_m0x800>:
I_slti_cg_cr_rs1_imm_edges_rs1val_0x0_immval_m0x800:
  slti x4, x13, -2048 # perform operation
     d78:	8006a213          	slti	x4,x13,-2048
  # Check if x4 contains the expected result. x19 is the signature ptr, x8 is the link ptr, x7 is a temp reg.
  RVTEST_SIGUPD(x19, x8, x7, x4, I_slti_cg_cr_rs1_imm_edges_rs1val_0x0_immval_m0x800, I_slti_cg_cr_rs1_imm_edges_rs1val_0x0_immval_m0x800_str)
     d7c:	0009a383          	lw	x7,0(x19)
     d80:	00438863          	beq	x7,x4,d90 <I_slti_cg_cr_rs1_imm_edges_rs1val_0x0_immval_m0x800+0x18>
     d84:	7300246f          	jal	x8,34b4 <failedtest_x8_x7>
     d88:	00000d78          	.word	0x00000d78
     d8c:	00009a3a          	.word	0x00009a3a
     d90:	00498993          	addi	x19,x19,4

# Testcase cr_rs1_imm_edges (rs1 = 0x00000000, imm = -2047)
  RVTEST_TESTDATA_LOAD_INT(x6, x2) # load rs1: x2 = 0x00000000
     d94:	00032103          	lw	x2,0(x6)
     d98:	00430313          	addi	x6,x6,4

00000d9c <I_slti_cg_cr_rs1_imm_edges_rs1val_0x0_immval_m0x7ff>:
I_slti_cg_cr_rs1_imm_edges_rs1val_0x0_immval_m0x7ff:
  slti x23, x2, -2047 # perform operation
     d9c:	80112b93          	slti	x23,x2,-2047
  # Check if x23 contains the expected result. x19 is the signature ptr, x8 is the link ptr, x7 is a temp reg.
  RVTEST_SIGUPD(x19, x8, x7, x23, I_slti_cg_cr_rs1_imm_edges_rs1val_0x0_immval_m0x7ff, I_slti_cg_cr_rs1_imm_edges_rs1val_0x0_immval_m0x7ff_str)
     da0:	0009a383          	lw	x7,0(x19)
     da4:	01738863          	beq	x7,x23,db4 <I_slti_cg_cr_rs1_imm_edges_rs1val_0x0_immval_m0x7ff+0x18>
     da8:	70c0246f          	jal	x8,34b4 <failedtest_x8_x7>
     dac:	00000d9c          	.word	0x00000d9c
     db0:	00009a8a          	.word	0x00009a8a
     db4:	00498993          	addi	x19,x19,4

# Testcase cr_rs1_imm_edges (rs1 = 0x00000000, imm = -2)
  RVTEST_TESTDATA_LOAD_INT(x6, x23) # load rs1: x23 = 0x00000000
     db8:	00032b83          	lw	x23,0(x6)
     dbc:	00430313          	addi	x6,x6,4

00000dc0 <I_slti_cg_cr_rs1_imm_edges_rs1val_0x0_immval_m0x2>:
I_slti_cg_cr_rs1_imm_edges_rs1val_0x0_immval_m0x2:
  slti x28, x23, -2 # perform operation
     dc0:	ffebae13          	slti	x28,x23,-2
  # Check if x28 contains the expected result. x19 is the signature ptr, x8 is the link ptr, x7 is a temp reg.
  RVTEST_SIGUPD(x19, x8, x7, x28, I_slti_cg_cr_rs1_imm_edges_rs1val_0x0_immval_m0x2, I_slti_cg_cr_rs1_imm_edges_rs1val_0x0_immval_m0x2_str)
     dc4:	0009a383          	lw	x7,0(x19)
     dc8:	01c38863          	beq	x7,x28,dd8 <I_slti_cg_cr_rs1_imm_edges_rs1val_0x0_immval_m0x2+0x18>
     dcc:	6e80246f          	jal	x8,34b4 <failedtest_x8_x7>
     dd0:	00000dc0          	.word	0x00000dc0
     dd4:	00009ada          	.word	0x00009ada
     dd8:	00498993          	addi	x19,x19,4

# Testcase cr_rs1_imm_edges (rs1 = 0x00000000, imm = -1)
  RVTEST_TESTDATA_LOAD_INT(x6, x16) # load rs1: x16 = 0x00000000
     ddc:	00032803          	lw	x16,0(x6)
     de0:	00430313          	addi	x6,x6,4

00000de4 <I_slti_cg_cr_rs1_imm_edges_rs1val_0x0_immval_m0x1>:
I_slti_cg_cr_rs1_imm_edges_rs1val_0x0_immval_m0x1:
  slti x24, x16, -1 # perform operation
     de4:	fff82c13          	slti	x24,x16,-1
  # Check if x24 contains the expected result. x19 is the signature ptr, x8 is the link ptr, x7 is a temp reg.
  RVTEST_SIGUPD(x19, x8, x7, x24, I_slti_cg_cr_rs1_imm_edges_rs1val_0x0_immval_m0x1, I_slti_cg_cr_rs1_imm_edges_rs1val_0x0_immval_m0x1_str)
     de8:	0009a383          	lw	x7,0(x19)
     dec:	01838863          	beq	x7,x24,dfc <I_slti_cg_cr_rs1_imm_edges_rs1val_0x0_immval_m0x1+0x18>
     df0:	6c40246f          	jal	x8,34b4 <failedtest_x8_x7>
     df4:	00000de4          	.word	0x00000de4
     df8:	00009b28          	.word	0x00009b28
     dfc:	00498993          	addi	x19,x19,4

# Testcase cr_rs1_imm_edges (rs1 = 0x00000001, imm = 0)
  RVTEST_TESTDATA_LOAD_INT(x6, x3) # load rs1: x3 = 0x00000001
     e00:	00032183          	lw	x3,0(x6)
     e04:	00430313          	addi	x6,x6,4

00000e08 <I_slti_cg_cr_rs1_imm_edges_rs1val_0x1_immval_0x0>:
I_slti_cg_cr_rs1_imm_edges_rs1val_0x1_immval_0x0:
  slti x22, x3, 0 # perform operation
     e08:	0001ab13          	slti	x22,x3,0
  # Check if x22 contains the expected result. x19 is the signature ptr, x8 is the link ptr, x7 is a temp reg.
  RVTEST_SIGUPD(x19, x8, x7, x22, I_slti_cg_cr_rs1_imm_edges_rs1val_0x1_immval_0x0, I_slti_cg_cr_rs1_imm_edges_rs1val_0x1_immval_0x0_str)
     e0c:	0009a383          	lw	x7,0(x19)
     e10:	01638863          	beq	x7,x22,e20 <I_slti_cg_cr_rs1_imm_edges_rs1val_0x1_immval_0x0+0x18>
     e14:	6a00246f          	jal	x8,34b4 <failedtest_x8_x7>
     e18:	00000e08          	.word	0x00000e08
     e1c:	00009b76          	.word	0x00009b76
     e20:	00498993          	addi	x19,x19,4

# Testcase cr_rs1_imm_edges (rs1 = 0x00000001, imm = 1)
  RVTEST_TESTDATA_LOAD_INT(x6, x22) # load rs1: x22 = 0x00000001
     e24:	00032b03          	lw	x22,0(x6)
     e28:	00430313          	addi	x6,x6,4

00000e2c <I_slti_cg_cr_rs1_imm_edges_rs1val_0x1_immval_0x1>:
I_slti_cg_cr_rs1_imm_edges_rs1val_0x1_immval_0x1:
  slti x23, x22, 1 # perform operation
     e2c:	001b2b93          	slti	x23,x22,1
  # Check if x23 contains the expected result. x19 is the signature ptr, x8 is the link ptr, x7 is a temp reg.
  RVTEST_SIGUPD(x19, x8, x7, x23, I_slti_cg_cr_rs1_imm_edges_rs1val_0x1_immval_0x1, I_slti_cg_cr_rs1_imm_edges_rs1val_0x1_immval_0x1_str)
     e30:	0009a383          	lw	x7,0(x19)
     e34:	01738863          	beq	x7,x23,e44 <I_slti_cg_cr_rs1_imm_edges_rs1val_0x1_immval_0x1+0x18>
     e38:	67c0246f          	jal	x8,34b4 <failedtest_x8_x7>
     e3c:	00000e2c          	.word	0x00000e2c
     e40:	00009bc3          	.word	0x00009bc3
     e44:	00498993          	addi	x19,x19,4

# Testcase cr_rs1_imm_edges (rs1 = 0x00000001, imm = 2)
  RVTEST_TESTDATA_LOAD_INT(x6, x10) # load rs1: x10 = 0x00000001
     e48:	00032503          	lw	x10,0(x6)
     e4c:	00430313          	addi	x6,x6,4

00000e50 <I_slti_cg_cr_rs1_imm_edges_rs1val_0x1_immval_0x2>:
I_slti_cg_cr_rs1_imm_edges_rs1val_0x1_immval_0x2:
  slti x3, x10, 2 # perform operation
     e50:	00252193          	slti	x3,x10,2
  # Check if x3 contains the expected result. x19 is the signature ptr, x8 is the link ptr, x7 is a temp reg.
  RVTEST_SIGUPD(x19, x8, x7, x3, I_slti_cg_cr_rs1_imm_edges_rs1val_0x1_immval_0x2, I_slti_cg_cr_rs1_imm_edges_rs1val_0x1_immval_0x2_str)
     e54:	0009a383          	lw	x7,0(x19)
     e58:	00338863          	beq	x7,x3,e68 <I_slti_cg_cr_rs1_imm_edges_rs1val_0x1_immval_0x2+0x18>
     e5c:	6580246f          	jal	x8,34b4 <failedtest_x8_x7>
     e60:	00000e50          	.word	0x00000e50
     e64:	00009c10          	.word	0x00009c10
     e68:	00498993          	addi	x19,x19,4

# Testcase cr_rs1_imm_edges (rs1 = 0x00000001, imm = 3)
  RVTEST_TESTDATA_LOAD_INT(x6, x2) # load rs1: x2 = 0x00000001
     e6c:	00032103          	lw	x2,0(x6)
     e70:	00430313          	addi	x6,x6,4

00000e74 <I_slti_cg_cr_rs1_imm_edges_rs1val_0x1_immval_0x3>:
I_slti_cg_cr_rs1_imm_edges_rs1val_0x1_immval_0x3:
  slti x12, x2, 3 # perform operation
     e74:	00312613          	slti	x12,x2,3
  # Check if x12 contains the expected result. x19 is the signature ptr, x8 is the link ptr, x7 is a temp reg.
  RVTEST_SIGUPD(x19, x8, x7, x12, I_slti_cg_cr_rs1_imm_edges_rs1val_0x1_immval_0x3, I_slti_cg_cr_rs1_imm_edges_rs1val_0x1_immval_0x3_str)
     e78:	0009a383          	lw	x7,0(x19)
     e7c:	00c38863          	beq	x7,x12,e8c <I_slti_cg_cr_rs1_imm_edges_rs1val_0x1_immval_0x3+0x18>
     e80:	6340246f          	jal	x8,34b4 <failedtest_x8_x7>
     e84:	00000e74          	.word	0x00000e74
     e88:	00009c5d          	.word	0x00009c5d
     e8c:	00498993          	addi	x19,x19,4

# Testcase cr_rs1_imm_edges (rs1 = 0x00000001, imm = 4)
  RVTEST_TESTDATA_LOAD_INT(x6, x15) # load rs1: x15 = 0x00000001
     e90:	00032783          	lw	x15,0(x6)
     e94:	00430313          	addi	x6,x6,4

00000e98 <I_slti_cg_cr_rs1_imm_edges_rs1val_0x1_immval_0x4>:
I_slti_cg_cr_rs1_imm_edges_rs1val_0x1_immval_0x4:
  slti x1, x15, 4 # perform operation
     e98:	0047a093          	slti	x1,x15,4
  # Check if x1 contains the expected result. x19 is the signature ptr, x8 is the link ptr, x7 is a temp reg.
  RVTEST_SIGUPD(x19, x8, x7, x1, I_slti_cg_cr_rs1_imm_edges_rs1val_0x1_immval_0x4, I_slti_cg_cr_rs1_imm_edges_rs1val_0x1_immval_0x4_str)
     e9c:	0009a383          	lw	x7,0(x19)
     ea0:	00138863          	beq	x7,x1,eb0 <I_slti_cg_cr_rs1_imm_edges_rs1val_0x1_immval_0x4+0x18>
     ea4:	6100246f          	jal	x8,34b4 <failedtest_x8_x7>
     ea8:	00000e98          	.word	0x00000e98
     eac:	00009cab          	.word	0x00009cab
     eb0:	00498993          	addi	x19,x19,4

# Testcase cr_rs1_imm_edges (rs1 = 0x00000001, imm = 8)
  RVTEST_TESTDATA_LOAD_INT(x6, x11) # load rs1: x11 = 0x00000001
     eb4:	00032583          	lw	x11,0(x6)
     eb8:	00430313          	addi	x6,x6,4

00000ebc <I_slti_cg_cr_rs1_imm_edges_rs1val_0x1_immval_0x8>:
I_slti_cg_cr_rs1_imm_edges_rs1val_0x1_immval_0x8:
  slti x18, x11, 8 # perform operation
     ebc:	0085a913          	slti	x18,x11,8
  # Check if x18 contains the expected result. x19 is the signature ptr, x8 is the link ptr, x7 is a temp reg.
  RVTEST_SIGUPD(x19, x8, x7, x18, I_slti_cg_cr_rs1_imm_edges_rs1val_0x1_immval_0x8, I_slti_cg_cr_rs1_imm_edges_rs1val_0x1_immval_0x8_str)
     ec0:	0009a383          	lw	x7,0(x19)
     ec4:	01238863          	beq	x7,x18,ed4 <I_slti_cg_cr_rs1_imm_edges_rs1val_0x1_immval_0x8+0x18>
     ec8:	5ec0246f          	jal	x8,34b4 <failedtest_x8_x7>
     ecc:	00000ebc          	.word	0x00000ebc
     ed0:	00009cf9          	.word	0x00009cf9
     ed4:	00498993          	addi	x19,x19,4

# Testcase cr_rs1_imm_edges (rs1 = 0x00000001, imm = 16)
  RVTEST_TESTDATA_LOAD_INT(x6, x23) # load rs1: x23 = 0x00000001
     ed8:	00032b83          	lw	x23,0(x6)
     edc:	00430313          	addi	x6,x6,4

00000ee0 <I_slti_cg_cr_rs1_imm_edges_rs1val_0x1_immval_0x10>:
I_slti_cg_cr_rs1_imm_edges_rs1val_0x1_immval_0x10:
  slti x14, x23, 16 # perform operation
     ee0:	010ba713          	slti	x14,x23,16
  # Check if x14 contains the expected result. x19 is the signature ptr, x8 is the link ptr, x7 is a temp reg.
  RVTEST_SIGUPD(x19, x8, x7, x14, I_slti_cg_cr_rs1_imm_edges_rs1val_0x1_immval_0x10, I_slti_cg_cr_rs1_imm_edges_rs1val_0x1_immval_0x10_str)
     ee4:	0009a383          	lw	x7,0(x19)
     ee8:	00e38863          	beq	x7,x14,ef8 <I_slti_cg_cr_rs1_imm_edges_rs1val_0x1_immval_0x10+0x18>
     eec:	5c80246f          	jal	x8,34b4 <failedtest_x8_x7>
     ef0:	00000ee0          	.word	0x00000ee0
     ef4:	00009d47          	.word	0x00009d47
     ef8:	00498993          	addi	x19,x19,4

# Testcase cr_rs1_imm_edges (rs1 = 0x00000001, imm = 32)
  RVTEST_TESTDATA_LOAD_INT(x6, x16) # load rs1: x16 = 0x00000001
     efc:	00032803          	lw	x16,0(x6)
     f00:	00430313          	addi	x6,x6,4

00000f04 <I_slti_cg_cr_rs1_imm_edges_rs1val_0x1_immval_0x20>:
I_slti_cg_cr_rs1_imm_edges_rs1val_0x1_immval_0x20:
  slti x2, x16, 32 # perform operation
     f04:	02082113          	slti	x2,x16,32
  # Check if x2 contains the expected result. x19 is the signature ptr, x8 is the link ptr, x7 is a temp reg.
  RVTEST_SIGUPD(x19, x8, x7, x2, I_slti_cg_cr_rs1_imm_edges_rs1val_0x1_immval_0x20, I_slti_cg_cr_rs1_imm_edges_rs1val_0x1_immval_0x20_str)
     f08:	0009a383          	lw	x7,0(x19)
     f0c:	00238863          	beq	x7,x2,f1c <I_slti_cg_cr_rs1_imm_edges_rs1val_0x1_immval_0x20+0x18>
     f10:	5a40246f          	jal	x8,34b4 <failedtest_x8_x7>
     f14:	00000f04          	.word	0x00000f04
     f18:	00009d96          	.word	0x00009d96
     f1c:	00498993          	addi	x19,x19,4

# Testcase cr_rs1_imm_edges (rs1 = 0x00000001, imm = 64)
  RVTEST_TESTDATA_LOAD_INT(x6, x4) # load rs1: x4 = 0x00000001
     f20:	00032203          	lw	x4,0(x6)
     f24:	00430313          	addi	x6,x6,4

00000f28 <I_slti_cg_cr_rs1_imm_edges_rs1val_0x1_immval_0x40>:
I_slti_cg_cr_rs1_imm_edges_rs1val_0x1_immval_0x40:
  slti x11, x4, 64 # perform operation
     f28:	04022593          	slti	x11,x4,64
  # Check if x11 contains the expected result. x19 is the signature ptr, x8 is the link ptr, x7 is a temp reg.
  RVTEST_SIGUPD(x19, x8, x7, x11, I_slti_cg_cr_rs1_imm_edges_rs1val_0x1_immval_0x40, I_slti_cg_cr_rs1_imm_edges_rs1val_0x1_immval_0x40_str)
     f2c:	0009a383          	lw	x7,0(x19)
     f30:	00b38863          	beq	x7,x11,f40 <I_slti_cg_cr_rs1_imm_edges_rs1val_0x1_immval_0x40+0x18>
     f34:	5800246f          	jal	x8,34b4 <failedtest_x8_x7>
     f38:	00000f28          	.word	0x00000f28
     f3c:	00009de5          	.word	0x00009de5
     f40:	00498993          	addi	x19,x19,4

# Testcase cr_rs1_imm_edges (rs1 = 0x00000001, imm = 128)
  RVTEST_TESTDATA_LOAD_INT(x6, x4) # load rs1: x4 = 0x00000001
     f44:	00032203          	lw	x4,0(x6)
     f48:	00430313          	addi	x6,x6,4

00000f4c <I_slti_cg_cr_rs1_imm_edges_rs1val_0x1_immval_0x80>:
I_slti_cg_cr_rs1_imm_edges_rs1val_0x1_immval_0x80:
  slti x18, x4, 128 # perform operation
     f4c:	08022913          	slti	x18,x4,128
  # Check if x18 contains the expected result. x19 is the signature ptr, x8 is the link ptr, x7 is a temp reg.
  RVTEST_SIGUPD(x19, x8, x7, x18, I_slti_cg_cr_rs1_imm_edges_rs1val_0x1_immval_0x80, I_slti_cg_cr_rs1_imm_edges_rs1val_0x1_immval_0x80_str)
     f50:	0009a383          	lw	x7,0(x19)
     f54:	01238863          	beq	x7,x18,f64 <I_slti_cg_cr_rs1_imm_edges_rs1val_0x1_immval_0x80+0x18>
     f58:	55c0246f          	jal	x8,34b4 <failedtest_x8_x7>
     f5c:	00000f4c          	.word	0x00000f4c
     f60:	00009e34          	.word	0x00009e34
     f64:	00498993          	addi	x19,x19,4

# Testcase cr_rs1_imm_edges (rs1 = 0x00000001, imm = 256)
  RVTEST_TESTDATA_LOAD_INT(x6, x11) # load rs1: x11 = 0x00000001
     f68:	00032583          	lw	x11,0(x6)
     f6c:	00430313          	addi	x6,x6,4

00000f70 <I_slti_cg_cr_rs1_imm_edges_rs1val_0x1_immval_0x100>:
I_slti_cg_cr_rs1_imm_edges_rs1val_0x1_immval_0x100:
  slti x18, x11, 256 # perform operation
     f70:	1005a913          	slti	x18,x11,256
  # Check if x18 contains the expected result. x19 is the signature ptr, x8 is the link ptr, x7 is a temp reg.
  RVTEST_SIGUPD(x19, x8, x7, x18, I_slti_cg_cr_rs1_imm_edges_rs1val_0x1_immval_0x100, I_slti_cg_cr_rs1_imm_edges_rs1val_0x1_immval_0x100_str)
     f74:	0009a383          	lw	x7,0(x19)
     f78:	01238863          	beq	x7,x18,f88 <I_slti_cg_cr_rs1_imm_edges_rs1val_0x1_immval_0x100+0x18>
     f7c:	5380246f          	jal	x8,34b4 <failedtest_x8_x7>
     f80:	00000f70          	.word	0x00000f70
     f84:	00009e83          	.word	0x00009e83
     f88:	00498993          	addi	x19,x19,4

# Testcase cr_rs1_imm_edges (rs1 = 0x00000001, imm = 512)
  RVTEST_TESTDATA_LOAD_INT(x6, x5) # load rs1: x5 = 0x00000001
     f8c:	00032283          	lw	x5,0(x6)
     f90:	00430313          	addi	x6,x6,4

00000f94 <I_slti_cg_cr_rs1_imm_edges_rs1val_0x1_immval_0x200>:
I_slti_cg_cr_rs1_imm_edges_rs1val_0x1_immval_0x200:
  slti x28, x5, 512 # perform operation
     f94:	2002ae13          	slti	x28,x5,512
  # Check if x28 contains the expected result. x19 is the signature ptr, x8 is the link ptr, x7 is a temp reg.
  RVTEST_SIGUPD(x19, x8, x7, x28, I_slti_cg_cr_rs1_imm_edges_rs1val_0x1_immval_0x200, I_slti_cg_cr_rs1_imm_edges_rs1val_0x1_immval_0x200_str)
     f98:	0009a383          	lw	x7,0(x19)
     f9c:	01c38863          	beq	x7,x28,fac <I_slti_cg_cr_rs1_imm_edges_rs1val_0x1_immval_0x200+0x18>
     fa0:	5140246f          	jal	x8,34b4 <failedtest_x8_x7>
     fa4:	00000f94          	.word	0x00000f94
     fa8:	00009ed3          	.word	0x00009ed3
     fac:	00498993          	addi	x19,x19,4

# Testcase cr_rs1_imm_edges (rs1 = 0x00000001, imm = 1023)
  RVTEST_TESTDATA_LOAD_INT(x6, x22) # load rs1: x22 = 0x00000001
     fb0:	00032b03          	lw	x22,0(x6)
     fb4:	00430313          	addi	x6,x6,4

00000fb8 <I_slti_cg_cr_rs1_imm_edges_rs1val_0x1_immval_0x3ff>:
I_slti_cg_cr_rs1_imm_edges_rs1val_0x1_immval_0x3ff:
  slti x13, x22, 1023 # perform operation
     fb8:	3ffb2693          	slti	x13,x22,1023
  # Check if x13 contains the expected result. x19 is the signature ptr, x8 is the link ptr, x7 is a temp reg.
  RVTEST_SIGUPD(x19, x8, x7, x13, I_slti_cg_cr_rs1_imm_edges_rs1val_0x1_immval_0x3ff, I_slti_cg_cr_rs1_imm_edges_rs1val_0x1_immval_0x3ff_str)
     fbc:	0009a383          	lw	x7,0(x19)
     fc0:	00d38863          	beq	x7,x13,fd0 <I_slti_cg_cr_rs1_imm_edges_rs1val_0x1_immval_0x3ff+0x18>
     fc4:	4f00246f          	jal	x8,34b4 <failedtest_x8_x7>
     fc8:	00000fb8          	.word	0x00000fb8
     fcc:	00009f23          	.word	0x00009f23
     fd0:	00498993          	addi	x19,x19,4

# Testcase cr_rs1_imm_edges (rs1 = 0x00000001, imm = 1024)
  RVTEST_TESTDATA_LOAD_INT(x6, x21) # load rs1: x21 = 0x00000001
     fd4:	00032a83          	lw	x21,0(x6)
     fd8:	00430313          	addi	x6,x6,4

00000fdc <I_slti_cg_cr_rs1_imm_edges_rs1val_0x1_immval_0x400>:
I_slti_cg_cr_rs1_imm_edges_rs1val_0x1_immval_0x400:
  slti x27, x21, 1024 # perform operation
     fdc:	400aad93          	slti	x27,x21,1024
  # Check if x27 contains the expected result. x19 is the signature ptr, x8 is the link ptr, x7 is a temp reg.
  RVTEST_SIGUPD(x19, x8, x7, x27, I_slti_cg_cr_rs1_imm_edges_rs1val_0x1_immval_0x400, I_slti_cg_cr_rs1_imm_edges_rs1val_0x1_immval_0x400_str)
     fe0:	0009a383          	lw	x7,0(x19)
     fe4:	01b38863          	beq	x7,x27,ff4 <I_slti_cg_cr_rs1_imm_edges_rs1val_0x1_immval_0x400+0x18>
     fe8:	4cc0246f          	jal	x8,34b4 <failedtest_x8_x7>
     fec:	00000fdc          	.word	0x00000fdc
     ff0:	00009f73          	.word	0x00009f73
     ff4:	00498993          	addi	x19,x19,4

# Testcase cr_rs1_imm_edges (rs1 = 0x00000001, imm = 1795)
  RVTEST_TESTDATA_LOAD_INT(x6, x16) # load rs1: x16 = 0x00000001
     ff8:	00032803          	lw	x16,0(x6)
     ffc:	00430313          	addi	x6,x6,4

00001000 <I_slti_cg_cr_rs1_imm_edges_rs1val_0x1_immval_0x703>:
I_slti_cg_cr_rs1_imm_edges_rs1val_0x1_immval_0x703:
  slti x3, x16, 1795 # perform operation
    1000:	70382193          	slti	x3,x16,1795
  # Check if x3 contains the expected result. x19 is the signature ptr, x8 is the link ptr, x7 is a temp reg.
  RVTEST_SIGUPD(x19, x8, x7, x3, I_slti_cg_cr_rs1_imm_edges_rs1val_0x1_immval_0x703, I_slti_cg_cr_rs1_imm_edges_rs1val_0x1_immval_0x703_str)
    1004:	0009a383          	lw	x7,0(x19)
    1008:	00338863          	beq	x7,x3,1018 <I_slti_cg_cr_rs1_imm_edges_rs1val_0x1_immval_0x703+0x18>
    100c:	4a80246f          	jal	x8,34b4 <failedtest_x8_x7>
    1010:	00001000          	.word	0x00001000
    1014:	00009fc3          	.word	0x00009fc3
    1018:	00498993          	addi	x19,x19,4

# Testcase cr_rs1_imm_edges (rs1 = 0x00000001, imm = 2047)
  RVTEST_TESTDATA_LOAD_INT(x6, x1) # load rs1: x1 = 0x00000001
    101c:	00032083          	lw	x1,0(x6)
    1020:	00430313          	addi	x6,x6,4

00001024 <I_slti_cg_cr_rs1_imm_edges_rs1val_0x1_immval_0x7ff>:
I_slti_cg_cr_rs1_imm_edges_rs1val_0x1_immval_0x7ff:
  slti x16, x1, 2047 # perform operation
    1024:	7ff0a813          	slti	x16,x1,2047
  # Check if x16 contains the expected result. x19 is the signature ptr, x8 is the link ptr, x7 is a temp reg.
  RVTEST_SIGUPD(x19, x8, x7, x16, I_slti_cg_cr_rs1_imm_edges_rs1val_0x1_immval_0x7ff, I_slti_cg_cr_rs1_imm_edges_rs1val_0x1_immval_0x7ff_str)
    1028:	0009a383          	lw	x7,0(x19)
    102c:	01038863          	beq	x7,x16,103c <I_slti_cg_cr_rs1_imm_edges_rs1val_0x1_immval_0x7ff+0x18>
    1030:	4840246f          	jal	x8,34b4 <failedtest_x8_x7>
    1034:	00001024          	.word	0x00001024
    1038:	0000a013          	.word	0x0000a013
    103c:	00498993          	addi	x19,x19,4

# Testcase cr_rs1_imm_edges (rs1 = 0x00000001, imm = -2048)
  RVTEST_TESTDATA_LOAD_INT(x6, x29) # load rs1: x29 = 0x00000001
    1040:	00032e83          	lw	x29,0(x6)
    1044:	00430313          	addi	x6,x6,4

00001048 <I_slti_cg_cr_rs1_imm_edges_rs1val_0x1_immval_m0x800>:
I_slti_cg_cr_rs1_imm_edges_rs1val_0x1_immval_m0x800:
  slti x20, x29, -2048 # perform operation
    1048:	800eaa13          	slti	x20,x29,-2048
  # Check if x20 contains the expected result. x19 is the signature ptr, x8 is the link ptr, x7 is a temp reg.
  RVTEST_SIGUPD(x19, x8, x7, x20, I_slti_cg_cr_rs1_imm_edges_rs1val_0x1_immval_m0x800, I_slti_cg_cr_rs1_imm_edges_rs1val_0x1_immval_m0x800_str)
    104c:	0009a383          	lw	x7,0(x19)
    1050:	01438863          	beq	x7,x20,1060 <I_slti_cg_cr_rs1_imm_edges_rs1val_0x1_immval_m0x800+0x18>
    1054:	4600246f          	jal	x8,34b4 <failedtest_x8_x7>
    1058:	00001048          	.word	0x00001048
    105c:	0000a063          	.word	0x0000a063
    1060:	00498993          	addi	x19,x19,4

# Testcase cr_rs1_imm_edges (rs1 = 0x00000001, imm = -2047)
  RVTEST_TESTDATA_LOAD_INT(x6, x20) # load rs1: x20 = 0x00000001
    1064:	00032a03          	lw	x20,0(x6)
    1068:	00430313          	addi	x6,x6,4

0000106c <I_slti_cg_cr_rs1_imm_edges_rs1val_0x1_immval_m0x7ff>:
I_slti_cg_cr_rs1_imm_edges_rs1val_0x1_immval_m0x7ff:
  slti x31, x20, -2047 # perform operation
    106c:	801a2f93          	slti	x31,x20,-2047
  # Check if x31 contains the expected result. x19 is the signature ptr, x8 is the link ptr, x7 is a temp reg.
  RVTEST_SIGUPD(x19, x8, x7, x31, I_slti_cg_cr_rs1_imm_edges_rs1val_0x1_immval_m0x7ff, I_slti_cg_cr_rs1_imm_edges_rs1val_0x1_immval_m0x7ff_str)
    1070:	0009a383          	lw	x7,0(x19)
    1074:	01f38863          	beq	x7,x31,1084 <I_slti_cg_cr_rs1_imm_edges_rs1val_0x1_immval_m0x7ff+0x18>
    1078:	43c0246f          	jal	x8,34b4 <failedtest_x8_x7>
    107c:	0000106c          	.word	0x0000106c
    1080:	0000a0b4          	.word	0x0000a0b4
    1084:	00498993          	addi	x19,x19,4

# Testcase cr_rs1_imm_edges (rs1 = 0x00000001, imm = -2)
  RVTEST_TESTDATA_LOAD_INT(x6, x30) # load rs1: x30 = 0x00000001
    1088:	00032f03          	lw	x30,0(x6)
    108c:	00430313          	addi	x6,x6,4

00001090 <I_slti_cg_cr_rs1_imm_edges_rs1val_0x1_immval_m0x2>:
I_slti_cg_cr_rs1_imm_edges_rs1val_0x1_immval_m0x2:
  slti x26, x30, -2 # perform operation
    1090:	ffef2d13          	slti	x26,x30,-2
  # Check if x26 contains the expected result. x19 is the signature ptr, x8 is the link ptr, x7 is a temp reg.
  RVTEST_SIGUPD(x19, x8, x7, x26, I_slti_cg_cr_rs1_imm_edges_rs1val_0x1_immval_m0x2, I_slti_cg_cr_rs1_imm_edges_rs1val_0x1_immval_m0x2_str)
    1094:	0009a383          	lw	x7,0(x19)
    1098:	01a38863          	beq	x7,x26,10a8 <I_slti_cg_cr_rs1_imm_edges_rs1val_0x1_immval_m0x2+0x18>
    109c:	4180246f          	jal	x8,34b4 <failedtest_x8_x7>
    10a0:	00001090          	.word	0x00001090
    10a4:	0000a105          	.word	0x0000a105
    10a8:	00498993          	addi	x19,x19,4

# Testcase cr_rs1_imm_edges (rs1 = 0x00000001, imm = -1)
  RVTEST_TESTDATA_LOAD_INT(x6, x29) # load rs1: x29 = 0x00000001
    10ac:	00032e83          	lw	x29,0(x6)
    10b0:	00430313          	addi	x6,x6,4

000010b4 <I_slti_cg_cr_rs1_imm_edges_rs1val_0x1_immval_m0x1>:
I_slti_cg_cr_rs1_imm_edges_rs1val_0x1_immval_m0x1:
  slti x14, x29, -1 # perform operation
    10b4:	fffea713          	slti	x14,x29,-1
  # Check if x14 contains the expected result. x19 is the signature ptr, x8 is the link ptr, x7 is a temp reg.
  RVTEST_SIGUPD(x19, x8, x7, x14, I_slti_cg_cr_rs1_imm_edges_rs1val_0x1_immval_m0x1, I_slti_cg_cr_rs1_imm_edges_rs1val_0x1_immval_m0x1_str)
    10b8:	0009a383          	lw	x7,0(x19)
    10bc:	00e38863          	beq	x7,x14,10cc <I_slti_cg_cr_rs1_imm_edges_rs1val_0x1_immval_m0x1+0x18>
    10c0:	3f40246f          	jal	x8,34b4 <failedtest_x8_x7>
    10c4:	000010b4          	.word	0x000010b4
    10c8:	0000a154          	.word	0x0000a154
    10cc:	00498993          	addi	x19,x19,4

# Testcase cr_rs1_imm_edges (rs1 = 0x00000002, imm = 0)
  RVTEST_TESTDATA_LOAD_INT(x6, x22) # load rs1: x22 = 0x00000002
    10d0:	00032b03          	lw	x22,0(x6)
    10d4:	00430313          	addi	x6,x6,4

000010d8 <I_slti_cg_cr_rs1_imm_edges_rs1val_0x2_immval_0x0>:
I_slti_cg_cr_rs1_imm_edges_rs1val_0x2_immval_0x0:
  slti x11, x22, 0 # perform operation
    10d8:	000b2593          	slti	x11,x22,0
  # Check if x11 contains the expected result. x19 is the signature ptr, x8 is the link ptr, x7 is a temp reg.
  RVTEST_SIGUPD(x19, x8, x7, x11, I_slti_cg_cr_rs1_imm_edges_rs1val_0x2_immval_0x0, I_slti_cg_cr_rs1_imm_edges_rs1val_0x2_immval_0x0_str)
    10dc:	0009a383          	lw	x7,0(x19)
    10e0:	00b38863          	beq	x7,x11,10f0 <I_slti_cg_cr_rs1_imm_edges_rs1val_0x2_immval_0x0+0x18>
    10e4:	3d00246f          	jal	x8,34b4 <failedtest_x8_x7>
    10e8:	000010d8          	.word	0x000010d8
    10ec:	0000a1a3          	.word	0x0000a1a3
    10f0:	00498993          	addi	x19,x19,4

# Testcase cr_rs1_imm_edges (rs1 = 0x00000002, imm = 1)
  RVTEST_TESTDATA_LOAD_INT(x6, x14) # load rs1: x14 = 0x00000002
    10f4:	00032703          	lw	x14,0(x6)
    10f8:	00430313          	addi	x6,x6,4

000010fc <I_slti_cg_cr_rs1_imm_edges_rs1val_0x2_immval_0x1>:
I_slti_cg_cr_rs1_imm_edges_rs1val_0x2_immval_0x1:
  slti x24, x14, 1 # perform operation
    10fc:	00172c13          	slti	x24,x14,1
  # Check if x24 contains the expected result. x19 is the signature ptr, x8 is the link ptr, x7 is a temp reg.
  RVTEST_SIGUPD(x19, x8, x7, x24, I_slti_cg_cr_rs1_imm_edges_rs1val_0x2_immval_0x1, I_slti_cg_cr_rs1_imm_edges_rs1val_0x2_immval_0x1_str)
    1100:	0009a383          	lw	x7,0(x19)
    1104:	01838863          	beq	x7,x24,1114 <I_slti_cg_cr_rs1_imm_edges_rs1val_0x2_immval_0x1+0x18>
    1108:	3ac0246f          	jal	x8,34b4 <failedtest_x8_x7>
    110c:	000010fc          	.word	0x000010fc
    1110:	0000a1f1          	.word	0x0000a1f1
    1114:	00498993          	addi	x19,x19,4

# Testcase cr_rs1_imm_edges (rs1 = 0x00000002, imm = 2)
  RVTEST_TESTDATA_LOAD_INT(x6, x20) # load rs1: x20 = 0x00000002
    1118:	00032a03          	lw	x20,0(x6)
    111c:	00430313          	addi	x6,x6,4

00001120 <I_slti_cg_cr_rs1_imm_edges_rs1val_0x2_immval_0x2>:
I_slti_cg_cr_rs1_imm_edges_rs1val_0x2_immval_0x2:
  slti x28, x20, 2 # perform operation
    1120:	002a2e13          	slti	x28,x20,2
  # Check if x28 contains the expected result. x19 is the signature ptr, x8 is the link ptr, x7 is a temp reg.
  RVTEST_SIGUPD(x19, x8, x7, x28, I_slti_cg_cr_rs1_imm_edges_rs1val_0x2_immval_0x2, I_slti_cg_cr_rs1_imm_edges_rs1val_0x2_immval_0x2_str)
    1124:	0009a383          	lw	x7,0(x19)
    1128:	01c38863          	beq	x7,x28,1138 <I_slti_cg_cr_rs1_imm_edges_rs1val_0x2_immval_0x2+0x18>
    112c:	3880246f          	jal	x8,34b4 <failedtest_x8_x7>
    1130:	00001120          	.word	0x00001120
    1134:	0000a23f          	.word	0x0000a23f
    1138:	00498993          	addi	x19,x19,4

# Testcase cr_rs1_imm_edges (rs1 = 0x00000002, imm = 3)
  RVTEST_TESTDATA_LOAD_INT(x6, x9) # load rs1: x9 = 0x00000002
    113c:	00032483          	lw	x9,0(x6)
    1140:	00430313          	addi	x6,x6,4

00001144 <I_slti_cg_cr_rs1_imm_edges_rs1val_0x2_immval_0x3>:
I_slti_cg_cr_rs1_imm_edges_rs1val_0x2_immval_0x3:
  slti x29, x9, 3 # perform operation
    1144:	0034ae93          	slti	x29,x9,3
  # Check if x29 contains the expected result. x19 is the signature ptr, x8 is the link ptr, x7 is a temp reg.
  RVTEST_SIGUPD(x19, x8, x7, x29, I_slti_cg_cr_rs1_imm_edges_rs1val_0x2_immval_0x3, I_slti_cg_cr_rs1_imm_edges_rs1val_0x2_immval_0x3_str)
    1148:	0009a383          	lw	x7,0(x19)
    114c:	01d38863          	beq	x7,x29,115c <I_slti_cg_cr_rs1_imm_edges_rs1val_0x2_immval_0x3+0x18>
    1150:	3640246f          	jal	x8,34b4 <failedtest_x8_x7>
    1154:	00001144          	.word	0x00001144
    1158:	0000a28d          	.word	0x0000a28d
    115c:	00498993          	addi	x19,x19,4

# Testcase cr_rs1_imm_edges (rs1 = 0x00000002, imm = 4)
  RVTEST_TESTDATA_LOAD_INT(x6, x17) # load rs1: x17 = 0x00000002
    1160:	00032883          	lw	x17,0(x6)
    1164:	00430313          	addi	x6,x6,4

00001168 <I_slti_cg_cr_rs1_imm_edges_rs1val_0x2_immval_0x4>:
I_slti_cg_cr_rs1_imm_edges_rs1val_0x2_immval_0x4:
  slti x12, x17, 4 # perform operation
    1168:	0048a613          	slti	x12,x17,4
  # Check if x12 contains the expected result. x19 is the signature ptr, x8 is the link ptr, x7 is a temp reg.
  RVTEST_SIGUPD(x19, x8, x7, x12, I_slti_cg_cr_rs1_imm_edges_rs1val_0x2_immval_0x4, I_slti_cg_cr_rs1_imm_edges_rs1val_0x2_immval_0x4_str)
    116c:	0009a383          	lw	x7,0(x19)
    1170:	00c38863          	beq	x7,x12,1180 <I_slti_cg_cr_rs1_imm_edges_rs1val_0x2_immval_0x4+0x18>
    1174:	3400246f          	jal	x8,34b4 <failedtest_x8_x7>
    1178:	00001168          	.word	0x00001168
    117c:	0000a2db          	.word	0x0000a2db
    1180:	00498993          	addi	x19,x19,4

# Testcase cr_rs1_imm_edges (rs1 = 0x00000002, imm = 8)
  RVTEST_TESTDATA_LOAD_INT(x6, x23) # load rs1: x23 = 0x00000002
    1184:	00032b83          	lw	x23,0(x6)
    1188:	00430313          	addi	x6,x6,4

0000118c <I_slti_cg_cr_rs1_imm_edges_rs1val_0x2_immval_0x8>:
I_slti_cg_cr_rs1_imm_edges_rs1val_0x2_immval_0x8:
  slti x22, x23, 8 # perform operation
    118c:	008bab13          	slti	x22,x23,8
  # Check if x22 contains the expected result. x19 is the signature ptr, x8 is the link ptr, x7 is a temp reg.
  RVTEST_SIGUPD(x19, x8, x7, x22, I_slti_cg_cr_rs1_imm_edges_rs1val_0x2_immval_0x8, I_slti_cg_cr_rs1_imm_edges_rs1val_0x2_immval_0x8_str)
    1190:	0009a383          	lw	x7,0(x19)
    1194:	01638863          	beq	x7,x22,11a4 <I_slti_cg_cr_rs1_imm_edges_rs1val_0x2_immval_0x8+0x18>
    1198:	31c0246f          	jal	x8,34b4 <failedtest_x8_x7>
    119c:	0000118c          	.word	0x0000118c
    11a0:	0000a329          	.word	0x0000a329
    11a4:	00498993          	addi	x19,x19,4

# Testcase cr_rs1_imm_edges (rs1 = 0x00000002, imm = 16)
  RVTEST_TESTDATA_LOAD_INT(x6, x2) # load rs1: x2 = 0x00000002
    11a8:	00032103          	lw	x2,0(x6)
    11ac:	00430313          	addi	x6,x6,4

000011b0 <I_slti_cg_cr_rs1_imm_edges_rs1val_0x2_immval_0x10>:
I_slti_cg_cr_rs1_imm_edges_rs1val_0x2_immval_0x10:
  slti x9, x2, 16 # perform operation
    11b0:	01012493          	slti	x9,x2,16
  # Check if x9 contains the expected result. x19 is the signature ptr, x8 is the link ptr, x7 is a temp reg.
  RVTEST_SIGUPD(x19, x8, x7, x9, I_slti_cg_cr_rs1_imm_edges_rs1val_0x2_immval_0x10, I_slti_cg_cr_rs1_imm_edges_rs1val_0x2_immval_0x10_str)
    11b4:	0009a383          	lw	x7,0(x19)
    11b8:	00938863          	beq	x7,x9,11c8 <I_slti_cg_cr_rs1_imm_edges_rs1val_0x2_immval_0x10+0x18>
    11bc:	2f80246f          	jal	x8,34b4 <failedtest_x8_x7>
    11c0:	000011b0          	.word	0x000011b0
    11c4:	0000a377          	.word	0x0000a377
    11c8:	00498993          	addi	x19,x19,4

# Testcase cr_rs1_imm_edges (rs1 = 0x00000002, imm = 32)
  RVTEST_TESTDATA_LOAD_INT(x6, x23) # load rs1: x23 = 0x00000002
    11cc:	00032b83          	lw	x23,0(x6)
    11d0:	00430313          	addi	x6,x6,4

000011d4 <I_slti_cg_cr_rs1_imm_edges_rs1val_0x2_immval_0x20>:
I_slti_cg_cr_rs1_imm_edges_rs1val_0x2_immval_0x20:
  slti x26, x23, 32 # perform operation
    11d4:	020bad13          	slti	x26,x23,32
  # Check if x26 contains the expected result. x19 is the signature ptr, x8 is the link ptr, x7 is a temp reg.
  RVTEST_SIGUPD(x19, x8, x7, x26, I_slti_cg_cr_rs1_imm_edges_rs1val_0x2_immval_0x20, I_slti_cg_cr_rs1_imm_edges_rs1val_0x2_immval_0x20_str)
    11d8:	0009a383          	lw	x7,0(x19)
    11dc:	01a38863          	beq	x7,x26,11ec <I_slti_cg_cr_rs1_imm_edges_rs1val_0x2_immval_0x20+0x18>
    11e0:	2d40246f          	jal	x8,34b4 <failedtest_x8_x7>
    11e4:	000011d4          	.word	0x000011d4
    11e8:	0000a3c6          	.word	0x0000a3c6
    11ec:	00498993          	addi	x19,x19,4

# Testcase cr_rs1_imm_edges (rs1 = 0x00000002, imm = 64)
  RVTEST_TESTDATA_LOAD_INT(x6, x30) # load rs1: x30 = 0x00000002
    11f0:	00032f03          	lw	x30,0(x6)
    11f4:	00430313          	addi	x6,x6,4

000011f8 <I_slti_cg_cr_rs1_imm_edges_rs1val_0x2_immval_0x40>:
I_slti_cg_cr_rs1_imm_edges_rs1val_0x2_immval_0x40:
  slti x2, x30, 64 # perform operation
    11f8:	040f2113          	slti	x2,x30,64
  # Check if x2 contains the expected result. x19 is the signature ptr, x8 is the link ptr, x7 is a temp reg.
  RVTEST_SIGUPD(x19, x8, x7, x2, I_slti_cg_cr_rs1_imm_edges_rs1val_0x2_immval_0x40, I_slti_cg_cr_rs1_imm_edges_rs1val_0x2_immval_0x40_str)
    11fc:	0009a383          	lw	x7,0(x19)
    1200:	00238863          	beq	x7,x2,1210 <I_slti_cg_cr_rs1_imm_edges_rs1val_0x2_immval_0x40+0x18>
    1204:	2b00246f          	jal	x8,34b4 <failedtest_x8_x7>
    1208:	000011f8          	.word	0x000011f8
    120c:	0000a415          	.word	0x0000a415
    1210:	00498993          	addi	x19,x19,4

# Testcase cr_rs1_imm_edges (rs1 = 0x00000002, imm = 128)
  RVTEST_TESTDATA_LOAD_INT(x6, x15) # load rs1: x15 = 0x00000002
    1214:	00032783          	lw	x15,0(x6)
    1218:	00430313          	addi	x6,x6,4

0000121c <I_slti_cg_cr_rs1_imm_edges_rs1val_0x2_immval_0x80>:
I_slti_cg_cr_rs1_imm_edges_rs1val_0x2_immval_0x80:
  slti x3, x15, 128 # perform operation
    121c:	0807a193          	slti	x3,x15,128
  # Check if x3 contains the expected result. x19 is the signature ptr, x8 is the link ptr, x7 is a temp reg.
  RVTEST_SIGUPD(x19, x8, x7, x3, I_slti_cg_cr_rs1_imm_edges_rs1val_0x2_immval_0x80, I_slti_cg_cr_rs1_imm_edges_rs1val_0x2_immval_0x80_str)
    1220:	0009a383          	lw	x7,0(x19)
    1224:	00338863          	beq	x7,x3,1234 <I_slti_cg_cr_rs1_imm_edges_rs1val_0x2_immval_0x80+0x18>
    1228:	28c0246f          	jal	x8,34b4 <failedtest_x8_x7>
    122c:	0000121c          	.word	0x0000121c
    1230:	0000a464          	.word	0x0000a464
    1234:	00498993          	addi	x19,x19,4

# Testcase cr_rs1_imm_edges (rs1 = 0x00000002, imm = 256)
  RVTEST_TESTDATA_LOAD_INT(x6, x3) # load rs1: x3 = 0x00000002
    1238:	00032183          	lw	x3,0(x6)
    123c:	00430313          	addi	x6,x6,4

00001240 <I_slti_cg_cr_rs1_imm_edges_rs1val_0x2_immval_0x100>:
I_slti_cg_cr_rs1_imm_edges_rs1val_0x2_immval_0x100:
  slti x26, x3, 256 # perform operation
    1240:	1001ad13          	slti	x26,x3,256
  # Check if x26 contains the expected result. x19 is the signature ptr, x8 is the link ptr, x7 is a temp reg.
  RVTEST_SIGUPD(x19, x8, x7, x26, I_slti_cg_cr_rs1_imm_edges_rs1val_0x2_immval_0x100, I_slti_cg_cr_rs1_imm_edges_rs1val_0x2_immval_0x100_str)
    1244:	0009a383          	lw	x7,0(x19)
    1248:	01a38863          	beq	x7,x26,1258 <I_slti_cg_cr_rs1_imm_edges_rs1val_0x2_immval_0x100+0x18>
    124c:	2680246f          	jal	x8,34b4 <failedtest_x8_x7>
    1250:	00001240          	.word	0x00001240
    1254:	0000a4b3          	.word	0x0000a4b3
    1258:	00498993          	addi	x19,x19,4

# Testcase cr_rs1_imm_edges (rs1 = 0x00000002, imm = 512)
  RVTEST_TESTDATA_LOAD_INT(x6, x10) # load rs1: x10 = 0x00000002
    125c:	00032503          	lw	x10,0(x6)
    1260:	00430313          	addi	x6,x6,4

00001264 <I_slti_cg_cr_rs1_imm_edges_rs1val_0x2_immval_0x200>:
I_slti_cg_cr_rs1_imm_edges_rs1val_0x2_immval_0x200:
  slti x12, x10, 512 # perform operation
    1264:	20052613          	slti	x12,x10,512
  # Check if x12 contains the expected result. x19 is the signature ptr, x8 is the link ptr, x7 is a temp reg.
  RVTEST_SIGUPD(x19, x8, x7, x12, I_slti_cg_cr_rs1_imm_edges_rs1val_0x2_immval_0x200, I_slti_cg_cr_rs1_imm_edges_rs1val_0x2_immval_0x200_str)
    1268:	0009a383          	lw	x7,0(x19)
    126c:	00c38863          	beq	x7,x12,127c <I_slti_cg_cr_rs1_imm_edges_rs1val_0x2_immval_0x200+0x18>
    1270:	2440246f          	jal	x8,34b4 <failedtest_x8_x7>
    1274:	00001264          	.word	0x00001264
    1278:	0000a503          	.word	0x0000a503
    127c:	00498993          	addi	x19,x19,4

# Testcase cr_rs1_imm_edges (rs1 = 0x00000002, imm = 1023)
  RVTEST_TESTDATA_LOAD_INT(x6, x25) # load rs1: x25 = 0x00000002
    1280:	00032c83          	lw	x25,0(x6)
    1284:	00430313          	addi	x6,x6,4

00001288 <I_slti_cg_cr_rs1_imm_edges_rs1val_0x2_immval_0x3ff>:
I_slti_cg_cr_rs1_imm_edges_rs1val_0x2_immval_0x3ff:
  slti x22, x25, 1023 # perform operation
    1288:	3ffcab13          	slti	x22,x25,1023
  # Check if x22 contains the expected result. x19 is the signature ptr, x8 is the link ptr, x7 is a temp reg.
  RVTEST_SIGUPD(x19, x8, x7, x22, I_slti_cg_cr_rs1_imm_edges_rs1val_0x2_immval_0x3ff, I_slti_cg_cr_rs1_imm_edges_rs1val_0x2_immval_0x3ff_str)
    128c:	0009a383          	lw	x7,0(x19)
    1290:	01638863          	beq	x7,x22,12a0 <I_slti_cg_cr_rs1_imm_edges_rs1val_0x2_immval_0x3ff+0x18>
    1294:	2200246f          	jal	x8,34b4 <failedtest_x8_x7>
    1298:	00001288          	.word	0x00001288
    129c:	0000a553          	.word	0x0000a553
    12a0:	00498993          	addi	x19,x19,4

# Testcase cr_rs1_imm_edges (rs1 = 0x00000002, imm = 1024)
  RVTEST_TESTDATA_LOAD_INT(x6, x12) # load rs1: x12 = 0x00000002
    12a4:	00032603          	lw	x12,0(x6)
    12a8:	00430313          	addi	x6,x6,4

000012ac <I_slti_cg_cr_rs1_imm_edges_rs1val_0x2_immval_0x400>:
I_slti_cg_cr_rs1_imm_edges_rs1val_0x2_immval_0x400:
  slti x10, x12, 1024 # perform operation
    12ac:	40062513          	slti	x10,x12,1024
  # Check if x10 contains the expected result. x19 is the signature ptr, x8 is the link ptr, x7 is a temp reg.
  RVTEST_SIGUPD(x19, x8, x7, x10, I_slti_cg_cr_rs1_imm_edges_rs1val_0x2_immval_0x400, I_slti_cg_cr_rs1_imm_edges_rs1val_0x2_immval_0x400_str)
    12b0:	0009a383          	lw	x7,0(x19)
    12b4:	00a38863          	beq	x7,x10,12c4 <I_slti_cg_cr_rs1_imm_edges_rs1val_0x2_immval_0x400+0x18>
    12b8:	1fc0246f          	jal	x8,34b4 <failedtest_x8_x7>
    12bc:	000012ac          	.word	0x000012ac
    12c0:	0000a5a3          	.word	0x0000a5a3
    12c4:	00498993          	addi	x19,x19,4

# Testcase cr_rs1_imm_edges (rs1 = 0x00000002, imm = 1795)
  RVTEST_TESTDATA_LOAD_INT(x6, x2) # load rs1: x2 = 0x00000002
    12c8:	00032103          	lw	x2,0(x6)
    12cc:	00430313          	addi	x6,x6,4

000012d0 <I_slti_cg_cr_rs1_imm_edges_rs1val_0x2_immval_0x703>:
I_slti_cg_cr_rs1_imm_edges_rs1val_0x2_immval_0x703:
  slti x21, x2, 1795 # perform operation
    12d0:	70312a93          	slti	x21,x2,1795
  # Check if x21 contains the expected result. x19 is the signature ptr, x8 is the link ptr, x7 is a temp reg.
  RVTEST_SIGUPD(x19, x8, x7, x21, I_slti_cg_cr_rs1_imm_edges_rs1val_0x2_immval_0x703, I_slti_cg_cr_rs1_imm_edges_rs1val_0x2_immval_0x703_str)
    12d4:	0009a383          	lw	x7,0(x19)
    12d8:	01538863          	beq	x7,x21,12e8 <I_slti_cg_cr_rs1_imm_edges_rs1val_0x2_immval_0x703+0x18>
    12dc:	1d80246f          	jal	x8,34b4 <failedtest_x8_x7>
    12e0:	000012d0          	.word	0x000012d0
    12e4:	0000a5f3          	.word	0x0000a5f3
    12e8:	00498993          	addi	x19,x19,4

# Testcase cr_rs1_imm_edges (rs1 = 0x00000002, imm = 2047)
  RVTEST_TESTDATA_LOAD_INT(x6, x23) # load rs1: x23 = 0x00000002
    12ec:	00032b83          	lw	x23,0(x6)
    12f0:	00430313          	addi	x6,x6,4

000012f4 <I_slti_cg_cr_rs1_imm_edges_rs1val_0x2_immval_0x7ff>:
I_slti_cg_cr_rs1_imm_edges_rs1val_0x2_immval_0x7ff:
  slti x14, x23, 2047 # perform operation
    12f4:	7ffba713          	slti	x14,x23,2047
  # Check if x14 contains the expected result. x19 is the signature ptr, x8 is the link ptr, x7 is a temp reg.
  RVTEST_SIGUPD(x19, x8, x7, x14, I_slti_cg_cr_rs1_imm_edges_rs1val_0x2_immval_0x7ff, I_slti_cg_cr_rs1_imm_edges_rs1val_0x2_immval_0x7ff_str)
    12f8:	0009a383          	lw	x7,0(x19)
    12fc:	00e38863          	beq	x7,x14,130c <I_slti_cg_cr_rs1_imm_edges_rs1val_0x2_immval_0x7ff+0x18>
    1300:	1b40246f          	jal	x8,34b4 <failedtest_x8_x7>
    1304:	000012f4          	.word	0x000012f4
    1308:	0000a643          	.word	0x0000a643
    130c:	00498993          	addi	x19,x19,4

# Testcase cr_rs1_imm_edges (rs1 = 0x00000002, imm = -2048)
  RVTEST_TESTDATA_LOAD_INT(x6, x27) # load rs1: x27 = 0x00000002
    1310:	00032d83          	lw	x27,0(x6)
    1314:	00430313          	addi	x6,x6,4

00001318 <I_slti_cg_cr_rs1_imm_edges_rs1val_0x2_immval_m0x800>:
I_slti_cg_cr_rs1_imm_edges_rs1val_0x2_immval_m0x800:
  slti x14, x27, -2048 # perform operation
    1318:	800da713          	slti	x14,x27,-2048
  # Check if x14 contains the expected result. x19 is the signature ptr, x8 is the link ptr, x7 is a temp reg.
  RVTEST_SIGUPD(x19, x8, x7, x14, I_slti_cg_cr_rs1_imm_edges_rs1val_0x2_immval_m0x800, I_slti_cg_cr_rs1_imm_edges_rs1val_0x2_immval_m0x800_str)
    131c:	0009a383          	lw	x7,0(x19)
    1320:	00e38863          	beq	x7,x14,1330 <I_slti_cg_cr_rs1_imm_edges_rs1val_0x2_immval_m0x800+0x18>
    1324:	1900246f          	jal	x8,34b4 <failedtest_x8_x7>
    1328:	00001318          	.word	0x00001318
    132c:	0000a693          	.word	0x0000a693
    1330:	00498993          	addi	x19,x19,4

# Testcase cr_rs1_imm_edges (rs1 = 0x00000002, imm = -2047)
  RVTEST_TESTDATA_LOAD_INT(x6, x21) # load rs1: x21 = 0x00000002
    1334:	00032a83          	lw	x21,0(x6)
    1338:	00430313          	addi	x6,x6,4

0000133c <I_slti_cg_cr_rs1_imm_edges_rs1val_0x2_immval_m0x7ff>:
I_slti_cg_cr_rs1_imm_edges_rs1val_0x2_immval_m0x7ff:
  slti x27, x21, -2047 # perform operation
    133c:	801aad93          	slti	x27,x21,-2047
  # Check if x27 contains the expected result. x19 is the signature ptr, x8 is the link ptr, x7 is a temp reg.
  RVTEST_SIGUPD(x19, x8, x7, x27, I_slti_cg_cr_rs1_imm_edges_rs1val_0x2_immval_m0x7ff, I_slti_cg_cr_rs1_imm_edges_rs1val_0x2_immval_m0x7ff_str)
    1340:	0009a383          	lw	x7,0(x19)
    1344:	01b38863          	beq	x7,x27,1354 <I_slti_cg_cr_rs1_imm_edges_rs1val_0x2_immval_m0x7ff+0x18>
    1348:	16c0246f          	jal	x8,34b4 <failedtest_x8_x7>
    134c:	0000133c          	.word	0x0000133c
    1350:	0000a6e4          	.word	0x0000a6e4
    1354:	00498993          	addi	x19,x19,4

# Testcase cr_rs1_imm_edges (rs1 = 0x00000002, imm = -2)
  RVTEST_TESTDATA_LOAD_INT(x6, x22) # load rs1: x22 = 0x00000002
    1358:	00032b03          	lw	x22,0(x6)
    135c:	00430313          	addi	x6,x6,4

00001360 <I_slti_cg_cr_rs1_imm_edges_rs1val_0x2_immval_m0x2>:
I_slti_cg_cr_rs1_imm_edges_rs1val_0x2_immval_m0x2:
  slti x15, x22, -2 # perform operation
    1360:	ffeb2793          	slti	x15,x22,-2
  # Check if x15 contains the expected result. x19 is the signature ptr, x8 is the link ptr, x7 is a temp reg.
  RVTEST_SIGUPD(x19, x8, x7, x15, I_slti_cg_cr_rs1_imm_edges_rs1val_0x2_immval_m0x2, I_slti_cg_cr_rs1_imm_edges_rs1val_0x2_immval_m0x2_str)
    1364:	0009a383          	lw	x7,0(x19)
    1368:	00f38863          	beq	x7,x15,1378 <I_slti_cg_cr_rs1_imm_edges_rs1val_0x2_immval_m0x2+0x18>
    136c:	1480246f          	jal	x8,34b4 <failedtest_x8_x7>
    1370:	00001360          	.word	0x00001360
    1374:	0000a735          	.word	0x0000a735
    1378:	00498993          	addi	x19,x19,4

# Testcase cr_rs1_imm_edges (rs1 = 0x00000002, imm = -1)
  RVTEST_TESTDATA_LOAD_INT(x6, x30) # load rs1: x30 = 0x00000002
    137c:	00032f03          	lw	x30,0(x6)
    1380:	00430313          	addi	x6,x6,4

00001384 <I_slti_cg_cr_rs1_imm_edges_rs1val_0x2_immval_m0x1>:
I_slti_cg_cr_rs1_imm_edges_rs1val_0x2_immval_m0x1:
  slti x24, x30, -1 # perform operation
    1384:	ffff2c13          	slti	x24,x30,-1
  # Check if x24 contains the expected result. x19 is the signature ptr, x8 is the link ptr, x7 is a temp reg.
  RVTEST_SIGUPD(x19, x8, x7, x24, I_slti_cg_cr_rs1_imm_edges_rs1val_0x2_immval_m0x1, I_slti_cg_cr_rs1_imm_edges_rs1val_0x2_immval_m0x1_str)
    1388:	0009a383          	lw	x7,0(x19)
    138c:	01838863          	beq	x7,x24,139c <I_slti_cg_cr_rs1_imm_edges_rs1val_0x2_immval_m0x1+0x18>
    1390:	1240246f          	jal	x8,34b4 <failedtest_x8_x7>
    1394:	00001384          	.word	0x00001384
    1398:	0000a784          	.word	0x0000a784
    139c:	00498993          	addi	x19,x19,4

# Testcase cr_rs1_imm_edges (rs1 = 0x80000000, imm = 0)
  RVTEST_TESTDATA_LOAD_INT(x6, x3) # load rs1: x3 = 0x80000000
    13a0:	00032183          	lw	x3,0(x6)
    13a4:	00430313          	addi	x6,x6,4

000013a8 <I_slti_cg_cr_rs1_imm_edges_rs1val_0x80000000_immval_0x0>:
I_slti_cg_cr_rs1_imm_edges_rs1val_0x80000000_immval_0x0:
  slti x14, x3, 0 # perform operation
    13a8:	0001a713          	slti	x14,x3,0
  # Check if x14 contains the expected result. x19 is the signature ptr, x8 is the link ptr, x7 is a temp reg.
  RVTEST_SIGUPD(x19, x8, x7, x14, I_slti_cg_cr_rs1_imm_edges_rs1val_0x80000000_immval_0x0, I_slti_cg_cr_rs1_imm_edges_rs1val_0x80000000_immval_0x0_str)
    13ac:	0009a383          	lw	x7,0(x19)
    13b0:	00e38863          	beq	x7,x14,13c0 <I_slti_cg_cr_rs1_imm_edges_rs1val_0x80000000_immval_0x0+0x18>
    13b4:	1000246f          	jal	x8,34b4 <failedtest_x8_x7>
    13b8:	000013a8          	.word	0x000013a8
    13bc:	0000a7d3          	.word	0x0000a7d3
    13c0:	00498993          	addi	x19,x19,4

# Testcase cr_rs1_imm_edges (rs1 = 0x80000000, imm = 1)
  RVTEST_TESTDATA_LOAD_INT(x6, x31) # load rs1: x31 = 0x80000000
    13c4:	00032f83          	lw	x31,0(x6)
    13c8:	00430313          	addi	x6,x6,4

000013cc <I_slti_cg_cr_rs1_imm_edges_rs1val_0x80000000_immval_0x1>:
I_slti_cg_cr_rs1_imm_edges_rs1val_0x80000000_immval_0x1:
  slti x23, x31, 1 # perform operation
    13cc:	001fab93          	slti	x23,x31,1
  # Check if x23 contains the expected result. x19 is the signature ptr, x8 is the link ptr, x7 is a temp reg.
  RVTEST_SIGUPD(x19, x8, x7, x23, I_slti_cg_cr_rs1_imm_edges_rs1val_0x80000000_immval_0x1, I_slti_cg_cr_rs1_imm_edges_rs1val_0x80000000_immval_0x1_str)
    13d0:	0009a383          	lw	x7,0(x19)
    13d4:	01738863          	beq	x7,x23,13e4 <I_slti_cg_cr_rs1_imm_edges_rs1val_0x80000000_immval_0x1+0x18>
    13d8:	0dc0246f          	jal	x8,34b4 <failedtest_x8_x7>
    13dc:	000013cc          	.word	0x000013cc
    13e0:	0000a828          	.word	0x0000a828
    13e4:	00498993          	addi	x19,x19,4

# Testcase cr_rs1_imm_edges (rs1 = 0x80000000, imm = 2)
  RVTEST_TESTDATA_LOAD_INT(x6, x30) # load rs1: x30 = 0x80000000
    13e8:	00032f03          	lw	x30,0(x6)
    13ec:	00430313          	addi	x6,x6,4

000013f0 <I_slti_cg_cr_rs1_imm_edges_rs1val_0x80000000_immval_0x2>:
I_slti_cg_cr_rs1_imm_edges_rs1val_0x80000000_immval_0x2:
  slti x25, x30, 2 # perform operation
    13f0:	002f2c93          	slti	x25,x30,2
  # Check if x25 contains the expected result. x19 is the signature ptr, x8 is the link ptr, x7 is a temp reg.
  RVTEST_SIGUPD(x19, x8, x7, x25, I_slti_cg_cr_rs1_imm_edges_rs1val_0x80000000_immval_0x2, I_slti_cg_cr_rs1_imm_edges_rs1val_0x80000000_immval_0x2_str)
    13f4:	0009a383          	lw	x7,0(x19)
    13f8:	01938863          	beq	x7,x25,1408 <I_slti_cg_cr_rs1_imm_edges_rs1val_0x80000000_immval_0x2+0x18>
    13fc:	0b80246f          	jal	x8,34b4 <failedtest_x8_x7>
    1400:	000013f0          	.word	0x000013f0
    1404:	0000a87d          	.word	0x0000a87d
    1408:	00498993          	addi	x19,x19,4

# Testcase cr_rs1_imm_edges (rs1 = 0x80000000, imm = 3)
  RVTEST_TESTDATA_LOAD_INT(x6, x23) # load rs1: x23 = 0x80000000
    140c:	00032b83          	lw	x23,0(x6)
    1410:	00430313          	addi	x6,x6,4

00001414 <I_slti_cg_cr_rs1_imm_edges_rs1val_0x80000000_immval_0x3>:
I_slti_cg_cr_rs1_imm_edges_rs1val_0x80000000_immval_0x3:
  slti x27, x23, 3 # perform operation
    1414:	003bad93          	slti	x27,x23,3
  # Check if x27 contains the expected result. x19 is the signature ptr, x8 is the link ptr, x7 is a temp reg.
  RVTEST_SIGUPD(x19, x8, x7, x27, I_slti_cg_cr_rs1_imm_edges_rs1val_0x80000000_immval_0x3, I_slti_cg_cr_rs1_imm_edges_rs1val_0x80000000_immval_0x3_str)
    1418:	0009a383          	lw	x7,0(x19)
    141c:	01b38863          	beq	x7,x27,142c <I_slti_cg_cr_rs1_imm_edges_rs1val_0x80000000_immval_0x3+0x18>
    1420:	0940246f          	jal	x8,34b4 <failedtest_x8_x7>
    1424:	00001414          	.word	0x00001414
    1428:	0000a8d2          	.word	0x0000a8d2
    142c:	00498993          	addi	x19,x19,4

# Testcase cr_rs1_imm_edges (rs1 = 0x80000000, imm = 4)
  RVTEST_TESTDATA_LOAD_INT(x6, x2) # load rs1: x2 = 0x80000000
    1430:	00032103          	lw	x2,0(x6)
    1434:	00430313          	addi	x6,x6,4

00001438 <I_slti_cg_cr_rs1_imm_edges_rs1val_0x80000000_immval_0x4>:
I_slti_cg_cr_rs1_imm_edges_rs1val_0x80000000_immval_0x4:
  slti x18, x2, 4 # perform operation
    1438:	00412913          	slti	x18,x2,4
  # Check if x18 contains the expected result. x19 is the signature ptr, x8 is the link ptr, x7 is a temp reg.
  RVTEST_SIGUPD(x19, x8, x7, x18, I_slti_cg_cr_rs1_imm_edges_rs1val_0x80000000_immval_0x4, I_slti_cg_cr_rs1_imm_edges_rs1val_0x80000000_immval_0x4_str)
    143c:	0009a383          	lw	x7,0(x19)
    1440:	01238863          	beq	x7,x18,1450 <I_slti_cg_cr_rs1_imm_edges_rs1val_0x80000000_immval_0x4+0x18>
    1444:	0700246f          	jal	x8,34b4 <failedtest_x8_x7>
    1448:	00001438          	.word	0x00001438
    144c:	0000a927          	.word	0x0000a927
    1450:	00498993          	addi	x19,x19,4

# Testcase cr_rs1_imm_edges (rs1 = 0x80000000, imm = 8)
  RVTEST_TESTDATA_LOAD_INT(x6, x31) # load rs1: x31 = 0x80000000
    1454:	00032f83          	lw	x31,0(x6)
    1458:	00430313          	addi	x6,x6,4

0000145c <I_slti_cg_cr_rs1_imm_edges_rs1val_0x80000000_immval_0x8>:
I_slti_cg_cr_rs1_imm_edges_rs1val_0x80000000_immval_0x8:
  slti x9, x31, 8 # perform operation
    145c:	008fa493          	slti	x9,x31,8
  # Check if x9 contains the expected result. x19 is the signature ptr, x8 is the link ptr, x7 is a temp reg.
  RVTEST_SIGUPD(x19, x8, x7, x9, I_slti_cg_cr_rs1_imm_edges_rs1val_0x80000000_immval_0x8, I_slti_cg_cr_rs1_imm_edges_rs1val_0x80000000_immval_0x8_str)
    1460:	0009a383          	lw	x7,0(x19)
    1464:	00938863          	beq	x7,x9,1474 <I_slti_cg_cr_rs1_imm_edges_rs1val_0x80000000_immval_0x8+0x18>
    1468:	04c0246f          	jal	x8,34b4 <failedtest_x8_x7>
    146c:	0000145c          	.word	0x0000145c
    1470:	0000a97c          	.word	0x0000a97c
    1474:	00498993          	addi	x19,x19,4

# Testcase cr_rs1_imm_edges (rs1 = 0x80000000, imm = 16)
  RVTEST_TESTDATA_LOAD_INT(x6, x14) # load rs1: x14 = 0x80000000
    1478:	00032703          	lw	x14,0(x6)
    147c:	00430313          	addi	x6,x6,4

00001480 <I_slti_cg_cr_rs1_imm_edges_rs1val_0x80000000_immval_0x10>:
I_slti_cg_cr_rs1_imm_edges_rs1val_0x80000000_immval_0x10:
  slti x11, x14, 16 # perform operation
    1480:	01072593          	slti	x11,x14,16
  # Check if x11 contains the expected result. x19 is the signature ptr, x8 is the link ptr, x7 is a temp reg.
  RVTEST_SIGUPD(x19, x8, x7, x11, I_slti_cg_cr_rs1_imm_edges_rs1val_0x80000000_immval_0x10, I_slti_cg_cr_rs1_imm_edges_rs1val_0x80000000_immval_0x10_str)
    1484:	0009a383          	lw	x7,0(x19)
    1488:	00b38863          	beq	x7,x11,1498 <I_slti_cg_cr_rs1_imm_edges_rs1val_0x80000000_immval_0x10+0x18>
    148c:	0280246f          	jal	x8,34b4 <failedtest_x8_x7>
    1490:	00001480          	.word	0x00001480
    1494:	0000a9d1          	.word	0x0000a9d1
    1498:	00498993          	addi	x19,x19,4

# Testcase cr_rs1_imm_edges (rs1 = 0x80000000, imm = 32)
  RVTEST_TESTDATA_LOAD_INT(x6, x26) # load rs1: x26 = 0x80000000
    149c:	00032d03          	lw	x26,0(x6)
    14a0:	00430313          	addi	x6,x6,4

000014a4 <I_slti_cg_cr_rs1_imm_edges_rs1val_0x80000000_immval_0x20>:
I_slti_cg_cr_rs1_imm_edges_rs1val_0x80000000_immval_0x20:
  slti x14, x26, 32 # perform operation
    14a4:	020d2713          	slti	x14,x26,32
  # Check if x14 contains the expected result. x19 is the signature ptr, x8 is the link ptr, x7 is a temp reg.
  RVTEST_SIGUPD(x19, x8, x7, x14, I_slti_cg_cr_rs1_imm_edges_rs1val_0x80000000_immval_0x20, I_slti_cg_cr_rs1_imm_edges_rs1val_0x80000000_immval_0x20_str)
    14a8:	0009a383          	lw	x7,0(x19)
    14ac:	00e38863          	beq	x7,x14,14bc <I_slti_cg_cr_rs1_imm_edges_rs1val_0x80000000_immval_0x20+0x18>
    14b0:	0040246f          	jal	x8,34b4 <failedtest_x8_x7>
    14b4:	000014a4          	.word	0x000014a4
    14b8:	0000aa27          	.word	0x0000aa27
    14bc:	00498993          	addi	x19,x19,4

# Testcase cr_rs1_imm_edges (rs1 = 0x80000000, imm = 64)
  RVTEST_TESTDATA_LOAD_INT(x6, x16) # load rs1: x16 = 0x80000000
    14c0:	00032803          	lw	x16,0(x6)
    14c4:	00430313          	addi	x6,x6,4

000014c8 <I_slti_cg_cr_rs1_imm_edges_rs1val_0x80000000_immval_0x40>:
I_slti_cg_cr_rs1_imm_edges_rs1val_0x80000000_immval_0x40:
  slti x24, x16, 64 # perform operation
    14c8:	04082c13          	slti	x24,x16,64
  # Check if x24 contains the expected result. x19 is the signature ptr, x8 is the link ptr, x7 is a temp reg.
  RVTEST_SIGUPD(x19, x8, x7, x24, I_slti_cg_cr_rs1_imm_edges_rs1val_0x80000000_immval_0x40, I_slti_cg_cr_rs1_imm_edges_rs1val_0x80000000_immval_0x40_str)
    14cc:	0009a383          	lw	x7,0(x19)
    14d0:	01838863          	beq	x7,x24,14e0 <I_slti_cg_cr_rs1_imm_edges_rs1val_0x80000000_immval_0x40+0x18>
    14d4:	7e10146f          	jal	x8,34b4 <failedtest_x8_x7>
    14d8:	000014c8          	.word	0x000014c8
    14dc:	0000aa7d          	.word	0x0000aa7d
    14e0:	00498993          	addi	x19,x19,4

# Testcase cr_rs1_imm_edges (rs1 = 0x80000000, imm = 128)
  RVTEST_TESTDATA_LOAD_INT(x6, x11) # load rs1: x11 = 0x80000000
    14e4:	00032583          	lw	x11,0(x6)
    14e8:	00430313          	addi	x6,x6,4

000014ec <I_slti_cg_cr_rs1_imm_edges_rs1val_0x80000000_immval_0x80>:
I_slti_cg_cr_rs1_imm_edges_rs1val_0x80000000_immval_0x80:
  slti x22, x11, 128 # perform operation
    14ec:	0805ab13          	slti	x22,x11,128
  # Check if x22 contains the expected result. x19 is the signature ptr, x8 is the link ptr, x7 is a temp reg.
  RVTEST_SIGUPD(x19, x8, x7, x22, I_slti_cg_cr_rs1_imm_edges_rs1val_0x80000000_immval_0x80, I_slti_cg_cr_rs1_imm_edges_rs1val_0x80000000_immval_0x80_str)
    14f0:	0009a383          	lw	x7,0(x19)
    14f4:	01638863          	beq	x7,x22,1504 <I_slti_cg_cr_rs1_imm_edges_rs1val_0x80000000_immval_0x80+0x18>
    14f8:	7bd0146f          	jal	x8,34b4 <failedtest_x8_x7>
    14fc:	000014ec          	.word	0x000014ec
    1500:	0000aad3          	.word	0x0000aad3
    1504:	00498993          	addi	x19,x19,4

# Testcase cr_rs1_imm_edges (rs1 = 0x80000000, imm = 256)
  RVTEST_TESTDATA_LOAD_INT(x6, x14) # load rs1: x14 = 0x80000000
    1508:	00032703          	lw	x14,0(x6)
    150c:	00430313          	addi	x6,x6,4

00001510 <I_slti_cg_cr_rs1_imm_edges_rs1val_0x80000000_immval_0x100>:
I_slti_cg_cr_rs1_imm_edges_rs1val_0x80000000_immval_0x100:
  slti x22, x14, 256 # perform operation
    1510:	10072b13          	slti	x22,x14,256
  # Check if x22 contains the expected result. x19 is the signature ptr, x8 is the link ptr, x7 is a temp reg.
  RVTEST_SIGUPD(x19, x8, x7, x22, I_slti_cg_cr_rs1_imm_edges_rs1val_0x80000000_immval_0x100, I_slti_cg_cr_rs1_imm_edges_rs1val_0x80000000_immval_0x100_str)
    1514:	0009a383          	lw	x7,0(x19)
    1518:	01638863          	beq	x7,x22,1528 <I_slti_cg_cr_rs1_imm_edges_rs1val_0x80000000_immval_0x100+0x18>
    151c:	7990146f          	jal	x8,34b4 <failedtest_x8_x7>
    1520:	00001510          	.word	0x00001510
    1524:	0000ab29          	.word	0x0000ab29
    1528:	00498993          	addi	x19,x19,4

# Testcase cr_rs1_imm_edges (rs1 = 0x80000000, imm = 512)
  RVTEST_TESTDATA_LOAD_INT(x6, x2) # load rs1: x2 = 0x80000000
    152c:	00032103          	lw	x2,0(x6)
    1530:	00430313          	addi	x6,x6,4

00001534 <I_slti_cg_cr_rs1_imm_edges_rs1val_0x80000000_immval_0x200>:
I_slti_cg_cr_rs1_imm_edges_rs1val_0x80000000_immval_0x200:
  slti x9, x2, 512 # perform operation
    1534:	20012493          	slti	x9,x2,512
  # Check if x9 contains the expected result. x19 is the signature ptr, x8 is the link ptr, x7 is a temp reg.
  RVTEST_SIGUPD(x19, x8, x7, x9, I_slti_cg_cr_rs1_imm_edges_rs1val_0x80000000_immval_0x200, I_slti_cg_cr_rs1_imm_edges_rs1val_0x80000000_immval_0x200_str)
    1538:	0009a383          	lw	x7,0(x19)
    153c:	00938863          	beq	x7,x9,154c <I_slti_cg_cr_rs1_imm_edges_rs1val_0x80000000_immval_0x200+0x18>
    1540:	7750146f          	jal	x8,34b4 <failedtest_x8_x7>
    1544:	00001534          	.word	0x00001534
    1548:	0000ab80          	.word	0x0000ab80
    154c:	00498993          	addi	x19,x19,4

# Testcase cr_rs1_imm_edges (rs1 = 0x80000000, imm = 1023)
  RVTEST_TESTDATA_LOAD_INT(x6, x17) # load rs1: x17 = 0x80000000
    1550:	00032883          	lw	x17,0(x6)
    1554:	00430313          	addi	x6,x6,4

00001558 <I_slti_cg_cr_rs1_imm_edges_rs1val_0x80000000_immval_0x3ff>:
I_slti_cg_cr_rs1_imm_edges_rs1val_0x80000000_immval_0x3ff:
  slti x2, x17, 1023 # perform operation
    1558:	3ff8a113          	slti	x2,x17,1023
  # Check if x2 contains the expected result. x19 is the signature ptr, x8 is the link ptr, x7 is a temp reg.
  RVTEST_SIGUPD(x19, x8, x7, x2, I_slti_cg_cr_rs1_imm_edges_rs1val_0x80000000_immval_0x3ff, I_slti_cg_cr_rs1_imm_edges_rs1val_0x80000000_immval_0x3ff_str)
    155c:	0009a383          	lw	x7,0(x19)
    1560:	00238863          	beq	x7,x2,1570 <I_slti_cg_cr_rs1_imm_edges_rs1val_0x80000000_immval_0x3ff+0x18>
    1564:	7510146f          	jal	x8,34b4 <failedtest_x8_x7>
    1568:	00001558          	.word	0x00001558
    156c:	0000abd7          	.word	0x0000abd7
    1570:	00498993          	addi	x19,x19,4

# Testcase cr_rs1_imm_edges (rs1 = 0x80000000, imm = 1024)
  RVTEST_TESTDATA_LOAD_INT(x6, x31) # load rs1: x31 = 0x80000000
    1574:	00032f83          	lw	x31,0(x6)
    1578:	00430313          	addi	x6,x6,4

0000157c <I_slti_cg_cr_rs1_imm_edges_rs1val_0x80000000_immval_0x400>:
I_slti_cg_cr_rs1_imm_edges_rs1val_0x80000000_immval_0x400:
  slti x5, x31, 1024 # perform operation
    157c:	400fa293          	slti	x5,x31,1024
  # Check if x5 contains the expected result. x19 is the signature ptr, x8 is the link ptr, x7 is a temp reg.
  RVTEST_SIGUPD(x19, x8, x7, x5, I_slti_cg_cr_rs1_imm_edges_rs1val_0x80000000_immval_0x400, I_slti_cg_cr_rs1_imm_edges_rs1val_0x80000000_immval_0x400_str)
    1580:	0009a383          	lw	x7,0(x19)
    1584:	00538863          	beq	x7,x5,1594 <I_slti_cg_cr_rs1_imm_edges_rs1val_0x80000000_immval_0x400+0x18>
    1588:	72d0146f          	jal	x8,34b4 <failedtest_x8_x7>
    158c:	0000157c          	.word	0x0000157c
    1590:	0000ac2e          	.word	0x0000ac2e
    1594:	00498993          	addi	x19,x19,4

# Testcase cr_rs1_imm_edges (rs1 = 0x80000000, imm = 1795)
  RVTEST_TESTDATA_LOAD_INT(x6, x21) # load rs1: x21 = 0x80000000
    1598:	00032a83          	lw	x21,0(x6)
    159c:	00430313          	addi	x6,x6,4

000015a0 <I_slti_cg_cr_rs1_imm_edges_rs1val_0x80000000_immval_0x703>:
I_slti_cg_cr_rs1_imm_edges_rs1val_0x80000000_immval_0x703:
  slti x11, x21, 1795 # perform operation
    15a0:	703aa593          	slti	x11,x21,1795
  # Check if x11 contains the expected result. x19 is the signature ptr, x8 is the link ptr, x7 is a temp reg.
  RVTEST_SIGUPD(x19, x8, x7, x11, I_slti_cg_cr_rs1_imm_edges_rs1val_0x80000000_immval_0x703, I_slti_cg_cr_rs1_imm_edges_rs1val_0x80000000_immval_0x703_str)
    15a4:	0009a383          	lw	x7,0(x19)
    15a8:	00b38863          	beq	x7,x11,15b8 <I_slti_cg_cr_rs1_imm_edges_rs1val_0x80000000_immval_0x703+0x18>
    15ac:	7090146f          	jal	x8,34b4 <failedtest_x8_x7>
    15b0:	000015a0          	.word	0x000015a0
    15b4:	0000ac85          	.word	0x0000ac85
    15b8:	00498993          	addi	x19,x19,4

# Testcase cr_rs1_imm_edges (rs1 = 0x80000000, imm = 2047)
  RVTEST_TESTDATA_LOAD_INT(x6, x1) # load rs1: x1 = 0x80000000
    15bc:	00032083          	lw	x1,0(x6)
    15c0:	00430313          	addi	x6,x6,4

000015c4 <I_slti_cg_cr_rs1_imm_edges_rs1val_0x80000000_immval_0x7ff>:
I_slti_cg_cr_rs1_imm_edges_rs1val_0x80000000_immval_0x7ff:
  slti x20, x1, 2047 # perform operation
    15c4:	7ff0aa13          	slti	x20,x1,2047
  # Check if x20 contains the expected result. x19 is the signature ptr, x8 is the link ptr, x7 is a temp reg.
  RVTEST_SIGUPD(x19, x8, x7, x20, I_slti_cg_cr_rs1_imm_edges_rs1val_0x80000000_immval_0x7ff, I_slti_cg_cr_rs1_imm_edges_rs1val_0x80000000_immval_0x7ff_str)
    15c8:	0009a383          	lw	x7,0(x19)
    15cc:	01438863          	beq	x7,x20,15dc <I_slti_cg_cr_rs1_imm_edges_rs1val_0x80000000_immval_0x7ff+0x18>
    15d0:	6e50146f          	jal	x8,34b4 <failedtest_x8_x7>
    15d4:	000015c4          	.word	0x000015c4
    15d8:	0000acdc          	.word	0x0000acdc
    15dc:	00498993          	addi	x19,x19,4

# Testcase cr_rs1_imm_edges (rs1 = 0x80000000, imm = -2048)
  RVTEST_TESTDATA_LOAD_INT(x6, x29) # load rs1: x29 = 0x80000000
    15e0:	00032e83          	lw	x29,0(x6)
    15e4:	00430313          	addi	x6,x6,4

000015e8 <I_slti_cg_cr_rs1_imm_edges_rs1val_0x80000000_immval_m0x800>:
I_slti_cg_cr_rs1_imm_edges_rs1val_0x80000000_immval_m0x800:
  slti x22, x29, -2048 # perform operation
    15e8:	800eab13          	slti	x22,x29,-2048
  # Check if x22 contains the expected result. x19 is the signature ptr, x8 is the link ptr, x7 is a temp reg.
  RVTEST_SIGUPD(x19, x8, x7, x22, I_slti_cg_cr_rs1_imm_edges_rs1val_0x80000000_immval_m0x800, I_slti_cg_cr_rs1_imm_edges_rs1val_0x80000000_immval_m0x800_str)
    15ec:	0009a383          	lw	x7,0(x19)
    15f0:	01638863          	beq	x7,x22,1600 <I_slti_cg_cr_rs1_imm_edges_rs1val_0x80000000_immval_m0x800+0x18>
    15f4:	6c10146f          	jal	x8,34b4 <failedtest_x8_x7>
    15f8:	000015e8          	.word	0x000015e8
    15fc:	0000ad33          	.word	0x0000ad33
    1600:	00498993          	addi	x19,x19,4

# Testcase cr_rs1_imm_edges (rs1 = 0x80000000, imm = -2047)
  RVTEST_TESTDATA_LOAD_INT(x6, x21) # load rs1: x21 = 0x80000000
    1604:	00032a83          	lw	x21,0(x6)
    1608:	00430313          	addi	x6,x6,4

0000160c <I_slti_cg_cr_rs1_imm_edges_rs1val_0x80000000_immval_m0x7ff>:
I_slti_cg_cr_rs1_imm_edges_rs1val_0x80000000_immval_m0x7ff:
  slti x22, x21, -2047 # perform operation
    160c:	801aab13          	slti	x22,x21,-2047
  # Check if x22 contains the expected result. x19 is the signature ptr, x8 is the link ptr, x7 is a temp reg.
  RVTEST_SIGUPD(x19, x8, x7, x22, I_slti_cg_cr_rs1_imm_edges_rs1val_0x80000000_immval_m0x7ff, I_slti_cg_cr_rs1_imm_edges_rs1val_0x80000000_immval_m0x7ff_str)
    1610:	0009a383          	lw	x7,0(x19)
    1614:	01638863          	beq	x7,x22,1624 <I_slti_cg_cr_rs1_imm_edges_rs1val_0x80000000_immval_m0x7ff+0x18>
    1618:	69d0146f          	jal	x8,34b4 <failedtest_x8_x7>
    161c:	0000160c          	.word	0x0000160c
    1620:	0000ad8b          	.word	0x0000ad8b
    1624:	00498993          	addi	x19,x19,4

# Testcase cr_rs1_imm_edges (rs1 = 0x80000000, imm = -2)
  RVTEST_TESTDATA_LOAD_INT(x6, x29) # load rs1: x29 = 0x80000000
    1628:	00032e83          	lw	x29,0(x6)
    162c:	00430313          	addi	x6,x6,4

00001630 <I_slti_cg_cr_rs1_imm_edges_rs1val_0x80000000_immval_m0x2>:
I_slti_cg_cr_rs1_imm_edges_rs1val_0x80000000_immval_m0x2:
  slti x26, x29, -2 # perform operation
    1630:	ffeead13          	slti	x26,x29,-2
  # Check if x26 contains the expected result. x19 is the signature ptr, x8 is the link ptr, x7 is a temp reg.
  RVTEST_SIGUPD(x19, x8, x7, x26, I_slti_cg_cr_rs1_imm_edges_rs1val_0x80000000_immval_m0x2, I_slti_cg_cr_rs1_imm_edges_rs1val_0x80000000_immval_m0x2_str)
    1634:	0009a383          	lw	x7,0(x19)
    1638:	01a38863          	beq	x7,x26,1648 <I_slti_cg_cr_rs1_imm_edges_rs1val_0x80000000_immval_m0x2+0x18>
    163c:	6790146f          	jal	x8,34b4 <failedtest_x8_x7>
    1640:	00001630          	.word	0x00001630
    1644:	0000ade3          	.word	0x0000ade3
    1648:	00498993          	addi	x19,x19,4

# Testcase cr_rs1_imm_edges (rs1 = 0x80000000, imm = -1)
  RVTEST_TESTDATA_LOAD_INT(x6, x10) # load rs1: x10 = 0x80000000
    164c:	00032503          	lw	x10,0(x6)
    1650:	00430313          	addi	x6,x6,4

00001654 <I_slti_cg_cr_rs1_imm_edges_rs1val_0x80000000_immval_m0x1>:
I_slti_cg_cr_rs1_imm_edges_rs1val_0x80000000_immval_m0x1:
  slti x25, x10, -1 # perform operation
    1654:	fff52c93          	slti	x25,x10,-1
  # Check if x25 contains the expected result. x19 is the signature ptr, x8 is the link ptr, x7 is a temp reg.
  RVTEST_SIGUPD(x19, x8, x7, x25, I_slti_cg_cr_rs1_imm_edges_rs1val_0x80000000_immval_m0x1, I_slti_cg_cr_rs1_imm_edges_rs1val_0x80000000_immval_m0x1_str)
    1658:	0009a383          	lw	x7,0(x19)
    165c:	01938863          	beq	x7,x25,166c <I_slti_cg_cr_rs1_imm_edges_rs1val_0x80000000_immval_m0x1+0x18>
    1660:	6550146f          	jal	x8,34b4 <failedtest_x8_x7>
    1664:	00001654          	.word	0x00001654
    1668:	0000ae39          	.word	0x0000ae39
    166c:	00498993          	addi	x19,x19,4

# Testcase cr_rs1_imm_edges (rs1 = 0x80000001, imm = 0)
  RVTEST_TESTDATA_LOAD_INT(x6, x21) # load rs1: x21 = 0x80000001
    1670:	00032a83          	lw	x21,0(x6)
    1674:	00430313          	addi	x6,x6,4

00001678 <I_slti_cg_cr_rs1_imm_edges_rs1val_0x80000001_immval_0x0>:
I_slti_cg_cr_rs1_imm_edges_rs1val_0x80000001_immval_0x0:
  slti x4, x21, 0 # perform operation
    1678:	000aa213          	slti	x4,x21,0
  # Check if x4 contains the expected result. x19 is the signature ptr, x8 is the link ptr, x7 is a temp reg.
  RVTEST_SIGUPD(x19, x8, x7, x4, I_slti_cg_cr_rs1_imm_edges_rs1val_0x80000001_immval_0x0, I_slti_cg_cr_rs1_imm_edges_rs1val_0x80000001_immval_0x0_str)
    167c:	0009a383          	lw	x7,0(x19)
    1680:	00438863          	beq	x7,x4,1690 <I_slti_cg_cr_rs1_imm_edges_rs1val_0x80000001_immval_0x0+0x18>
    1684:	6310146f          	jal	x8,34b4 <failedtest_x8_x7>
    1688:	00001678          	.word	0x00001678
    168c:	0000ae8f          	.word	0x0000ae8f
    1690:	00498993          	addi	x19,x19,4

# Testcase cr_rs1_imm_edges (rs1 = 0x80000001, imm = 1)
  RVTEST_TESTDATA_LOAD_INT(x6, x29) # load rs1: x29 = 0x80000001
    1694:	00032e83          	lw	x29,0(x6)
    1698:	00430313          	addi	x6,x6,4

0000169c <I_slti_cg_cr_rs1_imm_edges_rs1val_0x80000001_immval_0x1>:
I_slti_cg_cr_rs1_imm_edges_rs1val_0x80000001_immval_0x1:
  slti x18, x29, 1 # perform operation
    169c:	001ea913          	slti	x18,x29,1
  # Check if x18 contains the expected result. x19 is the signature ptr, x8 is the link ptr, x7 is a temp reg.
  RVTEST_SIGUPD(x19, x8, x7, x18, I_slti_cg_cr_rs1_imm_edges_rs1val_0x80000001_immval_0x1, I_slti_cg_cr_rs1_imm_edges_rs1val_0x80000001_immval_0x1_str)
    16a0:	0009a383          	lw	x7,0(x19)
    16a4:	01238863          	beq	x7,x18,16b4 <I_slti_cg_cr_rs1_imm_edges_rs1val_0x80000001_immval_0x1+0x18>
    16a8:	60d0146f          	jal	x8,34b4 <failedtest_x8_x7>
    16ac:	0000169c          	.word	0x0000169c
    16b0:	0000aee4          	.word	0x0000aee4
    16b4:	00498993          	addi	x19,x19,4

# Testcase cr_rs1_imm_edges (rs1 = 0x80000001, imm = 2)
  RVTEST_TESTDATA_LOAD_INT(x6, x9) # load rs1: x9 = 0x80000001
    16b8:	00032483          	lw	x9,0(x6)
    16bc:	00430313          	addi	x6,x6,4

000016c0 <I_slti_cg_cr_rs1_imm_edges_rs1val_0x80000001_immval_0x2>:
I_slti_cg_cr_rs1_imm_edges_rs1val_0x80000001_immval_0x2:
  slti x30, x9, 2 # perform operation
    16c0:	0024af13          	slti	x30,x9,2
  # Check if x30 contains the expected result. x19 is the signature ptr, x8 is the link ptr, x7 is a temp reg.
  RVTEST_SIGUPD(x19, x8, x7, x30, I_slti_cg_cr_rs1_imm_edges_rs1val_0x80000001_immval_0x2, I_slti_cg_cr_rs1_imm_edges_rs1val_0x80000001_immval_0x2_str)
    16c4:	0009a383          	lw	x7,0(x19)
    16c8:	01e38863          	beq	x7,x30,16d8 <I_slti_cg_cr_rs1_imm_edges_rs1val_0x80000001_immval_0x2+0x18>
    16cc:	5e90146f          	jal	x8,34b4 <failedtest_x8_x7>
    16d0:	000016c0          	.word	0x000016c0
    16d4:	0000af39          	.word	0x0000af39
    16d8:	00498993          	addi	x19,x19,4

# Testcase cr_rs1_imm_edges (rs1 = 0x80000001, imm = 3)
  RVTEST_TESTDATA_LOAD_INT(x6, x24) # load rs1: x24 = 0x80000001
    16dc:	00032c03          	lw	x24,0(x6)
    16e0:	00430313          	addi	x6,x6,4

000016e4 <I_slti_cg_cr_rs1_imm_edges_rs1val_0x80000001_immval_0x3>:
I_slti_cg_cr_rs1_imm_edges_rs1val_0x80000001_immval_0x3:
  slti x27, x24, 3 # perform operation
    16e4:	003c2d93          	slti	x27,x24,3
  # Check if x27 contains the expected result. x19 is the signature ptr, x8 is the link ptr, x7 is a temp reg.
  RVTEST_SIGUPD(x19, x8, x7, x27, I_slti_cg_cr_rs1_imm_edges_rs1val_0x80000001_immval_0x3, I_slti_cg_cr_rs1_imm_edges_rs1val_0x80000001_immval_0x3_str)
    16e8:	0009a383          	lw	x7,0(x19)
    16ec:	01b38863          	beq	x7,x27,16fc <I_slti_cg_cr_rs1_imm_edges_rs1val_0x80000001_immval_0x3+0x18>
    16f0:	5c50146f          	jal	x8,34b4 <failedtest_x8_x7>
    16f4:	000016e4          	.word	0x000016e4
    16f8:	0000af8e          	.word	0x0000af8e
    16fc:	00498993          	addi	x19,x19,4

# Testcase cr_rs1_imm_edges (rs1 = 0x80000001, imm = 4)
  RVTEST_TESTDATA_LOAD_INT(x6, x22) # load rs1: x22 = 0x80000001
    1700:	00032b03          	lw	x22,0(x6)
    1704:	00430313          	addi	x6,x6,4

00001708 <I_slti_cg_cr_rs1_imm_edges_rs1val_0x80000001_immval_0x4>:
I_slti_cg_cr_rs1_imm_edges_rs1val_0x80000001_immval_0x4:
  slti x21, x22, 4 # perform operation
    1708:	004b2a93          	slti	x21,x22,4
  # Check if x21 contains the expected result. x19 is the signature ptr, x8 is the link ptr, x7 is a temp reg.
  RVTEST_SIGUPD(x19, x8, x7, x21, I_slti_cg_cr_rs1_imm_edges_rs1val_0x80000001_immval_0x4, I_slti_cg_cr_rs1_imm_edges_rs1val_0x80000001_immval_0x4_str)
    170c:	0009a383          	lw	x7,0(x19)
    1710:	01538863          	beq	x7,x21,1720 <I_slti_cg_cr_rs1_imm_edges_rs1val_0x80000001_immval_0x4+0x18>
    1714:	5a10146f          	jal	x8,34b4 <failedtest_x8_x7>
    1718:	00001708          	.word	0x00001708
    171c:	0000afe3          	.word	0x0000afe3
    1720:	00498993          	addi	x19,x19,4

# Testcase cr_rs1_imm_edges (rs1 = 0x80000001, imm = 8)
  RVTEST_TESTDATA_LOAD_INT(x6, x28) # load rs1: x28 = 0x80000001
    1724:	00032e03          	lw	x28,0(x6)
    1728:	00430313          	addi	x6,x6,4

0000172c <I_slti_cg_cr_rs1_imm_edges_rs1val_0x80000001_immval_0x8>:
I_slti_cg_cr_rs1_imm_edges_rs1val_0x80000001_immval_0x8:
  slti x2, x28, 8 # perform operation
    172c:	008e2113          	slti	x2,x28,8
  # Check if x2 contains the expected result. x19 is the signature ptr, x8 is the link ptr, x7 is a temp reg.
  RVTEST_SIGUPD(x19, x8, x7, x2, I_slti_cg_cr_rs1_imm_edges_rs1val_0x80000001_immval_0x8, I_slti_cg_cr_rs1_imm_edges_rs1val_0x80000001_immval_0x8_str)
    1730:	0009a383          	lw	x7,0(x19)
    1734:	00238863          	beq	x7,x2,1744 <I_slti_cg_cr_rs1_imm_edges_rs1val_0x80000001_immval_0x8+0x18>
    1738:	57d0146f          	jal	x8,34b4 <failedtest_x8_x7>
    173c:	0000172c          	.word	0x0000172c
    1740:	0000b038          	.word	0x0000b038
    1744:	00498993          	addi	x19,x19,4

# Testcase cr_rs1_imm_edges (rs1 = 0x80000001, imm = 16)
  RVTEST_TESTDATA_LOAD_INT(x6, x25) # load rs1: x25 = 0x80000001
    1748:	00032c83          	lw	x25,0(x6)
    174c:	00430313          	addi	x6,x6,4

00001750 <I_slti_cg_cr_rs1_imm_edges_rs1val_0x80000001_immval_0x10>:
I_slti_cg_cr_rs1_imm_edges_rs1val_0x80000001_immval_0x10:
  slti x2, x25, 16 # perform operation
    1750:	010ca113          	slti	x2,x25,16
  # Check if x2 contains the expected result. x19 is the signature ptr, x8 is the link ptr, x7 is a temp reg.
  RVTEST_SIGUPD(x19, x8, x7, x2, I_slti_cg_cr_rs1_imm_edges_rs1val_0x80000001_immval_0x10, I_slti_cg_cr_rs1_imm_edges_rs1val_0x80000001_immval_0x10_str)
    1754:	0009a383          	lw	x7,0(x19)
    1758:	00238863          	beq	x7,x2,1768 <I_slti_cg_cr_rs1_imm_edges_rs1val_0x80000001_immval_0x10+0x18>
    175c:	5590146f          	jal	x8,34b4 <failedtest_x8_x7>
    1760:	00001750          	.word	0x00001750
    1764:	0000b08d          	.word	0x0000b08d
    1768:	00498993          	addi	x19,x19,4

# Testcase cr_rs1_imm_edges (rs1 = 0x80000001, imm = 32)
  RVTEST_TESTDATA_LOAD_INT(x6, x24) # load rs1: x24 = 0x80000001
    176c:	00032c03          	lw	x24,0(x6)
    1770:	00430313          	addi	x6,x6,4

00001774 <I_slti_cg_cr_rs1_imm_edges_rs1val_0x80000001_immval_0x20>:
I_slti_cg_cr_rs1_imm_edges_rs1val_0x80000001_immval_0x20:
  slti x26, x24, 32 # perform operation
    1774:	020c2d13          	slti	x26,x24,32
  # Check if x26 contains the expected result. x19 is the signature ptr, x8 is the link ptr, x7 is a temp reg.
  RVTEST_SIGUPD(x19, x8, x7, x26, I_slti_cg_cr_rs1_imm_edges_rs1val_0x80000001_immval_0x20, I_slti_cg_cr_rs1_imm_edges_rs1val_0x80000001_immval_0x20_str)
    1778:	0009a383          	lw	x7,0(x19)
    177c:	01a38863          	beq	x7,x26,178c <I_slti_cg_cr_rs1_imm_edges_rs1val_0x80000001_immval_0x20+0x18>
    1780:	5350146f          	jal	x8,34b4 <failedtest_x8_x7>
    1784:	00001774          	.word	0x00001774
    1788:	0000b0e3          	.word	0x0000b0e3
    178c:	00498993          	addi	x19,x19,4

# Testcase cr_rs1_imm_edges (rs1 = 0x80000001, imm = 64)
  RVTEST_TESTDATA_LOAD_INT(x6, x30) # load rs1: x30 = 0x80000001
    1790:	00032f03          	lw	x30,0(x6)
    1794:	00430313          	addi	x6,x6,4

00001798 <I_slti_cg_cr_rs1_imm_edges_rs1val_0x80000001_immval_0x40>:
I_slti_cg_cr_rs1_imm_edges_rs1val_0x80000001_immval_0x40:
  slti x27, x30, 64 # perform operation
    1798:	040f2d93          	slti	x27,x30,64
  # Check if x27 contains the expected result. x19 is the signature ptr, x8 is the link ptr, x7 is a temp reg.
  RVTEST_SIGUPD(x19, x8, x7, x27, I_slti_cg_cr_rs1_imm_edges_rs1val_0x80000001_immval_0x40, I_slti_cg_cr_rs1_imm_edges_rs1val_0x80000001_immval_0x40_str)
    179c:	0009a383          	lw	x7,0(x19)
    17a0:	01b38863          	beq	x7,x27,17b0 <I_slti_cg_cr_rs1_imm_edges_rs1val_0x80000001_immval_0x40+0x18>
    17a4:	5110146f          	jal	x8,34b4 <failedtest_x8_x7>
    17a8:	00001798          	.word	0x00001798
    17ac:	0000b139          	.word	0x0000b139
    17b0:	00498993          	addi	x19,x19,4

# Testcase cr_rs1_imm_edges (rs1 = 0x80000001, imm = 128)
  RVTEST_TESTDATA_LOAD_INT(x6, x28) # load rs1: x28 = 0x80000001
    17b4:	00032e03          	lw	x28,0(x6)
    17b8:	00430313          	addi	x6,x6,4

000017bc <I_slti_cg_cr_rs1_imm_edges_rs1val_0x80000001_immval_0x80>:
I_slti_cg_cr_rs1_imm_edges_rs1val_0x80000001_immval_0x80:
  slti x10, x28, 128 # perform operation
    17bc:	080e2513          	slti	x10,x28,128
  # Check if x10 contains the expected result. x19 is the signature ptr, x8 is the link ptr, x7 is a temp reg.
  RVTEST_SIGUPD(x19, x8, x7, x10, I_slti_cg_cr_rs1_imm_edges_rs1val_0x80000001_immval_0x80, I_slti_cg_cr_rs1_imm_edges_rs1val_0x80000001_immval_0x80_str)
    17c0:	0009a383          	lw	x7,0(x19)
    17c4:	00a38863          	beq	x7,x10,17d4 <I_slti_cg_cr_rs1_imm_edges_rs1val_0x80000001_immval_0x80+0x18>
    17c8:	4ed0146f          	jal	x8,34b4 <failedtest_x8_x7>
    17cc:	000017bc          	.word	0x000017bc
    17d0:	0000b18f          	.word	0x0000b18f
    17d4:	00498993          	addi	x19,x19,4

# Testcase cr_rs1_imm_edges (rs1 = 0x80000001, imm = 256)
  RVTEST_TESTDATA_LOAD_INT(x6, x15) # load rs1: x15 = 0x80000001
    17d8:	00032783          	lw	x15,0(x6)
    17dc:	00430313          	addi	x6,x6,4

000017e0 <I_slti_cg_cr_rs1_imm_edges_rs1val_0x80000001_immval_0x100>:
I_slti_cg_cr_rs1_imm_edges_rs1val_0x80000001_immval_0x100:
  slti x3, x15, 256 # perform operation
    17e0:	1007a193          	slti	x3,x15,256
  # Check if x3 contains the expected result. x19 is the signature ptr, x8 is the link ptr, x7 is a temp reg.
  RVTEST_SIGUPD(x19, x8, x7, x3, I_slti_cg_cr_rs1_imm_edges_rs1val_0x80000001_immval_0x100, I_slti_cg_cr_rs1_imm_edges_rs1val_0x80000001_immval_0x100_str)
    17e4:	0009a383          	lw	x7,0(x19)
    17e8:	00338863          	beq	x7,x3,17f8 <I_slti_cg_cr_rs1_imm_edges_rs1val_0x80000001_immval_0x100+0x18>
    17ec:	4c90146f          	jal	x8,34b4 <failedtest_x8_x7>
    17f0:	000017e0          	.word	0x000017e0
    17f4:	0000b1e5          	.word	0x0000b1e5
    17f8:	00498993          	addi	x19,x19,4

# Testcase cr_rs1_imm_edges (rs1 = 0x80000001, imm = 512)
  RVTEST_TESTDATA_LOAD_INT(x6, x9) # load rs1: x9 = 0x80000001
    17fc:	00032483          	lw	x9,0(x6)
    1800:	00430313          	addi	x6,x6,4

00001804 <I_slti_cg_cr_rs1_imm_edges_rs1val_0x80000001_immval_0x200>:
I_slti_cg_cr_rs1_imm_edges_rs1val_0x80000001_immval_0x200:
  slti x29, x9, 512 # perform operation
    1804:	2004ae93          	slti	x29,x9,512
  # Check if x29 contains the expected result. x19 is the signature ptr, x8 is the link ptr, x7 is a temp reg.
  RVTEST_SIGUPD(x19, x8, x7, x29, I_slti_cg_cr_rs1_imm_edges_rs1val_0x80000001_immval_0x200, I_slti_cg_cr_rs1_imm_edges_rs1val_0x80000001_immval_0x200_str)
    1808:	0009a383          	lw	x7,0(x19)
    180c:	01d38863          	beq	x7,x29,181c <I_slti_cg_cr_rs1_imm_edges_rs1val_0x80000001_immval_0x200+0x18>
    1810:	4a50146f          	jal	x8,34b4 <failedtest_x8_x7>
    1814:	00001804          	.word	0x00001804
    1818:	0000b23c          	.word	0x0000b23c
    181c:	00498993          	addi	x19,x19,4

# Testcase cr_rs1_imm_edges (rs1 = 0x80000001, imm = 1023)
  RVTEST_TESTDATA_LOAD_INT(x6, x1) # load rs1: x1 = 0x80000001
    1820:	00032083          	lw	x1,0(x6)
    1824:	00430313          	addi	x6,x6,4

00001828 <I_slti_cg_cr_rs1_imm_edges_rs1val_0x80000001_immval_0x3ff>:
I_slti_cg_cr_rs1_imm_edges_rs1val_0x80000001_immval_0x3ff:
  slti x27, x1, 1023 # perform operation
    1828:	3ff0ad93          	slti	x27,x1,1023
  # Check if x27 contains the expected result. x19 is the signature ptr, x8 is the link ptr, x7 is a temp reg.
  RVTEST_SIGUPD(x19, x8, x7, x27, I_slti_cg_cr_rs1_imm_edges_rs1val_0x80000001_immval_0x3ff, I_slti_cg_cr_rs1_imm_edges_rs1val_0x80000001_immval_0x3ff_str)
    182c:	0009a383          	lw	x7,0(x19)
    1830:	01b38863          	beq	x7,x27,1840 <I_slti_cg_cr_rs1_imm_edges_rs1val_0x80000001_immval_0x3ff+0x18>
    1834:	4810146f          	jal	x8,34b4 <failedtest_x8_x7>
    1838:	00001828          	.word	0x00001828
    183c:	0000b293          	.word	0x0000b293
    1840:	00498993          	addi	x19,x19,4

# Testcase cr_rs1_imm_edges (rs1 = 0x80000001, imm = 1024)
  RVTEST_TESTDATA_LOAD_INT(x6, x3) # load rs1: x3 = 0x80000001
    1844:	00032183          	lw	x3,0(x6)
    1848:	00430313          	addi	x6,x6,4

0000184c <I_slti_cg_cr_rs1_imm_edges_rs1val_0x80000001_immval_0x400>:
I_slti_cg_cr_rs1_imm_edges_rs1val_0x80000001_immval_0x400:
  slti x18, x3, 1024 # perform operation
    184c:	4001a913          	slti	x18,x3,1024
  # Check if x18 contains the expected result. x19 is the signature ptr, x8 is the link ptr, x7 is a temp reg.
  RVTEST_SIGUPD(x19, x8, x7, x18, I_slti_cg_cr_rs1_imm_edges_rs1val_0x80000001_immval_0x400, I_slti_cg_cr_rs1_imm_edges_rs1val_0x80000001_immval_0x400_str)
    1850:	0009a383          	lw	x7,0(x19)
    1854:	01238863          	beq	x7,x18,1864 <I_slti_cg_cr_rs1_imm_edges_rs1val_0x80000001_immval_0x400+0x18>
    1858:	45d0146f          	jal	x8,34b4 <failedtest_x8_x7>
    185c:	0000184c          	.word	0x0000184c
    1860:	0000b2ea          	.word	0x0000b2ea
    1864:	00498993          	addi	x19,x19,4

# Testcase cr_rs1_imm_edges (rs1 = 0x80000001, imm = 1795)
  RVTEST_TESTDATA_LOAD_INT(x6, x24) # load rs1: x24 = 0x80000001
    1868:	00032c03          	lw	x24,0(x6)
    186c:	00430313          	addi	x6,x6,4

00001870 <I_slti_cg_cr_rs1_imm_edges_rs1val_0x80000001_immval_0x703>:
I_slti_cg_cr_rs1_imm_edges_rs1val_0x80000001_immval_0x703:
  slti x29, x24, 1795 # perform operation
    1870:	703c2e93          	slti	x29,x24,1795
  # Check if x29 contains the expected result. x19 is the signature ptr, x8 is the link ptr, x7 is a temp reg.
  RVTEST_SIGUPD(x19, x8, x7, x29, I_slti_cg_cr_rs1_imm_edges_rs1val_0x80000001_immval_0x703, I_slti_cg_cr_rs1_imm_edges_rs1val_0x80000001_immval_0x703_str)
    1874:	0009a383          	lw	x7,0(x19)
    1878:	01d38863          	beq	x7,x29,1888 <I_slti_cg_cr_rs1_imm_edges_rs1val_0x80000001_immval_0x703+0x18>
    187c:	4390146f          	jal	x8,34b4 <failedtest_x8_x7>
    1880:	00001870          	.word	0x00001870
    1884:	0000b341          	.word	0x0000b341
    1888:	00498993          	addi	x19,x19,4

# Testcase cr_rs1_imm_edges (rs1 = 0x80000001, imm = 2047)
  RVTEST_TESTDATA_LOAD_INT(x6, x11) # load rs1: x11 = 0x80000001
    188c:	00032583          	lw	x11,0(x6)
    1890:	00430313          	addi	x6,x6,4

00001894 <I_slti_cg_cr_rs1_imm_edges_rs1val_0x80000001_immval_0x7ff>:
I_slti_cg_cr_rs1_imm_edges_rs1val_0x80000001_immval_0x7ff:
  slti x25, x11, 2047 # perform operation
    1894:	7ff5ac93          	slti	x25,x11,2047
  # Check if x25 contains the expected result. x19 is the signature ptr, x8 is the link ptr, x7 is a temp reg.
  RVTEST_SIGUPD(x19, x8, x7, x25, I_slti_cg_cr_rs1_imm_edges_rs1val_0x80000001_immval_0x7ff, I_slti_cg_cr_rs1_imm_edges_rs1val_0x80000001_immval_0x7ff_str)
    1898:	0009a383          	lw	x7,0(x19)
    189c:	01938863          	beq	x7,x25,18ac <I_slti_cg_cr_rs1_imm_edges_rs1val_0x80000001_immval_0x7ff+0x18>
    18a0:	4150146f          	jal	x8,34b4 <failedtest_x8_x7>
    18a4:	00001894          	.word	0x00001894
    18a8:	0000b398          	.word	0x0000b398
    18ac:	00498993          	addi	x19,x19,4

# Testcase cr_rs1_imm_edges (rs1 = 0x80000001, imm = -2048)
  RVTEST_TESTDATA_LOAD_INT(x6, x13) # load rs1: x13 = 0x80000001
    18b0:	00032683          	lw	x13,0(x6)
    18b4:	00430313          	addi	x6,x6,4

000018b8 <I_slti_cg_cr_rs1_imm_edges_rs1val_0x80000001_immval_m0x800>:
I_slti_cg_cr_rs1_imm_edges_rs1val_0x80000001_immval_m0x800:
  slti x16, x13, -2048 # perform operation
    18b8:	8006a813          	slti	x16,x13,-2048
  # Check if x16 contains the expected result. x19 is the signature ptr, x8 is the link ptr, x7 is a temp reg.
  RVTEST_SIGUPD(x19, x8, x7, x16, I_slti_cg_cr_rs1_imm_edges_rs1val_0x80000001_immval_m0x800, I_slti_cg_cr_rs1_imm_edges_rs1val_0x80000001_immval_m0x800_str)
    18bc:	0009a383          	lw	x7,0(x19)
    18c0:	01038863          	beq	x7,x16,18d0 <I_slti_cg_cr_rs1_imm_edges_rs1val_0x80000001_immval_m0x800+0x18>
    18c4:	3f10146f          	jal	x8,34b4 <failedtest_x8_x7>
    18c8:	000018b8          	.word	0x000018b8
    18cc:	0000b3ef          	.word	0x0000b3ef
    18d0:	00498993          	addi	x19,x19,4

# Testcase cr_rs1_imm_edges (rs1 = 0x80000001, imm = -2047)
  RVTEST_TESTDATA_LOAD_INT(x6, x30) # load rs1: x30 = 0x80000001
    18d4:	00032f03          	lw	x30,0(x6)
    18d8:	00430313          	addi	x6,x6,4

000018dc <I_slti_cg_cr_rs1_imm_edges_rs1val_0x80000001_immval_m0x7ff>:
I_slti_cg_cr_rs1_imm_edges_rs1val_0x80000001_immval_m0x7ff:
  slti x29, x30, -2047 # perform operation
    18dc:	801f2e93          	slti	x29,x30,-2047
  # Check if x29 contains the expected result. x19 is the signature ptr, x8 is the link ptr, x7 is a temp reg.
  RVTEST_SIGUPD(x19, x8, x7, x29, I_slti_cg_cr_rs1_imm_edges_rs1val_0x80000001_immval_m0x7ff, I_slti_cg_cr_rs1_imm_edges_rs1val_0x80000001_immval_m0x7ff_str)
    18e0:	0009a383          	lw	x7,0(x19)
    18e4:	01d38863          	beq	x7,x29,18f4 <I_slti_cg_cr_rs1_imm_edges_rs1val_0x80000001_immval_m0x7ff+0x18>
    18e8:	3cd0146f          	jal	x8,34b4 <failedtest_x8_x7>
    18ec:	000018dc          	.word	0x000018dc
    18f0:	0000b447          	.word	0x0000b447
    18f4:	00498993          	addi	x19,x19,4

# Testcase cr_rs1_imm_edges (rs1 = 0x80000001, imm = -2)
  RVTEST_TESTDATA_LOAD_INT(x6, x9) # load rs1: x9 = 0x80000001
    18f8:	00032483          	lw	x9,0(x6)
    18fc:	00430313          	addi	x6,x6,4

00001900 <I_slti_cg_cr_rs1_imm_edges_rs1val_0x80000001_immval_m0x2>:
I_slti_cg_cr_rs1_imm_edges_rs1val_0x80000001_immval_m0x2:
  slti x18, x9, -2 # perform operation
    1900:	ffe4a913          	slti	x18,x9,-2
  # Check if x18 contains the expected result. x19 is the signature ptr, x8 is the link ptr, x7 is a temp reg.
  RVTEST_SIGUPD(x19, x8, x7, x18, I_slti_cg_cr_rs1_imm_edges_rs1val_0x80000001_immval_m0x2, I_slti_cg_cr_rs1_imm_edges_rs1val_0x80000001_immval_m0x2_str)
    1904:	0009a383          	lw	x7,0(x19)
    1908:	01238863          	beq	x7,x18,1918 <I_slti_cg_cr_rs1_imm_edges_rs1val_0x80000001_immval_m0x2+0x18>
    190c:	3a90146f          	jal	x8,34b4 <failedtest_x8_x7>
    1910:	00001900          	.word	0x00001900
    1914:	0000b49f          	.word	0x0000b49f
    1918:	00498993          	addi	x19,x19,4

# Testcase cr_rs1_imm_edges (rs1 = 0x80000001, imm = -1)
  RVTEST_TESTDATA_LOAD_INT(x6, x29) # load rs1: x29 = 0x80000001
    191c:	00032e83          	lw	x29,0(x6)
    1920:	00430313          	addi	x6,x6,4

00001924 <I_slti_cg_cr_rs1_imm_edges_rs1val_0x80000001_immval_m0x1>:
I_slti_cg_cr_rs1_imm_edges_rs1val_0x80000001_immval_m0x1:
  slti x5, x29, -1 # perform operation
    1924:	fffea293          	slti	x5,x29,-1
  # Check if x5 contains the expected result. x19 is the signature ptr, x8 is the link ptr, x7 is a temp reg.
  RVTEST_SIGUPD(x19, x8, x7, x5, I_slti_cg_cr_rs1_imm_edges_rs1val_0x80000001_immval_m0x1, I_slti_cg_cr_rs1_imm_edges_rs1val_0x80000001_immval_m0x1_str)
    1928:	0009a383          	lw	x7,0(x19)
    192c:	00538863          	beq	x7,x5,193c <I_slti_cg_cr_rs1_imm_edges_rs1val_0x80000001_immval_m0x1+0x18>
    1930:	3850146f          	jal	x8,34b4 <failedtest_x8_x7>
    1934:	00001924          	.word	0x00001924
    1938:	0000b4f5          	.word	0x0000b4f5
    193c:	00498993          	addi	x19,x19,4

# Testcase cr_rs1_imm_edges (rs1 = 0x7fffffff, imm = 0)
  RVTEST_TESTDATA_LOAD_INT(x6, x15) # load rs1: x15 = 0x7fffffff
    1940:	00032783          	lw	x15,0(x6)
    1944:	00430313          	addi	x6,x6,4

00001948 <I_slti_cg_cr_rs1_imm_edges_rs1val_0x7fffffff_immval_0x0>:
I_slti_cg_cr_rs1_imm_edges_rs1val_0x7fffffff_immval_0x0:
  slti x9, x15, 0 # perform operation
    1948:	0007a493          	slti	x9,x15,0
  # Check if x9 contains the expected result. x19 is the signature ptr, x8 is the link ptr, x7 is a temp reg.
  RVTEST_SIGUPD(x19, x8, x7, x9, I_slti_cg_cr_rs1_imm_edges_rs1val_0x7fffffff_immval_0x0, I_slti_cg_cr_rs1_imm_edges_rs1val_0x7fffffff_immval_0x0_str)
    194c:	0009a383          	lw	x7,0(x19)
    1950:	00938863          	beq	x7,x9,1960 <I_slti_cg_cr_rs1_imm_edges_rs1val_0x7fffffff_immval_0x0+0x18>
    1954:	3610146f          	jal	x8,34b4 <failedtest_x8_x7>
    1958:	00001948          	.word	0x00001948
    195c:	0000b54b          	.word	0x0000b54b
    1960:	00498993          	addi	x19,x19,4

# Testcase cr_rs1_imm_edges (rs1 = 0x7fffffff, imm = 1)
  RVTEST_TESTDATA_LOAD_INT(x6, x2) # load rs1: x2 = 0x7fffffff
    1964:	00032103          	lw	x2,0(x6)
    1968:	00430313          	addi	x6,x6,4

0000196c <I_slti_cg_cr_rs1_imm_edges_rs1val_0x7fffffff_immval_0x1>:
I_slti_cg_cr_rs1_imm_edges_rs1val_0x7fffffff_immval_0x1:
  slti x22, x2, 1 # perform operation
    196c:	00112b13          	slti	x22,x2,1
  # Check if x22 contains the expected result. x19 is the signature ptr, x8 is the link ptr, x7 is a temp reg.
  RVTEST_SIGUPD(x19, x8, x7, x22, I_slti_cg_cr_rs1_imm_edges_rs1val_0x7fffffff_immval_0x1, I_slti_cg_cr_rs1_imm_edges_rs1val_0x7fffffff_immval_0x1_str)
    1970:	0009a383          	lw	x7,0(x19)
    1974:	01638863          	beq	x7,x22,1984 <I_slti_cg_cr_rs1_imm_edges_rs1val_0x7fffffff_immval_0x1+0x18>
    1978:	33d0146f          	jal	x8,34b4 <failedtest_x8_x7>
    197c:	0000196c          	.word	0x0000196c
    1980:	0000b5a0          	.word	0x0000b5a0
    1984:	00498993          	addi	x19,x19,4

# Testcase cr_rs1_imm_edges (rs1 = 0x7fffffff, imm = 2)
  RVTEST_TESTDATA_LOAD_INT(x6, x22) # load rs1: x22 = 0x7fffffff
    1988:	00032b03          	lw	x22,0(x6)
    198c:	00430313          	addi	x6,x6,4

00001990 <I_slti_cg_cr_rs1_imm_edges_rs1val_0x7fffffff_immval_0x2>:
I_slti_cg_cr_rs1_imm_edges_rs1val_0x7fffffff_immval_0x2:
  slti x9, x22, 2 # perform operation
    1990:	002b2493          	slti	x9,x22,2
  # Check if x9 contains the expected result. x19 is the signature ptr, x8 is the link ptr, x7 is a temp reg.
  RVTEST_SIGUPD(x19, x8, x7, x9, I_slti_cg_cr_rs1_imm_edges_rs1val_0x7fffffff_immval_0x2, I_slti_cg_cr_rs1_imm_edges_rs1val_0x7fffffff_immval_0x2_str)
    1994:	0009a383          	lw	x7,0(x19)
    1998:	00938863          	beq	x7,x9,19a8 <I_slti_cg_cr_rs1_imm_edges_rs1val_0x7fffffff_immval_0x2+0x18>
    199c:	3190146f          	jal	x8,34b4 <failedtest_x8_x7>
    19a0:	00001990          	.word	0x00001990
    19a4:	0000b5f5          	.word	0x0000b5f5
    19a8:	00498993          	addi	x19,x19,4

# Testcase cr_rs1_imm_edges (rs1 = 0x7fffffff, imm = 3)
  RVTEST_TESTDATA_LOAD_INT(x6, x4) # load rs1: x4 = 0x7fffffff
    19ac:	00032203          	lw	x4,0(x6)
    19b0:	00430313          	addi	x6,x6,4

000019b4 <I_slti_cg_cr_rs1_imm_edges_rs1val_0x7fffffff_immval_0x3>:
I_slti_cg_cr_rs1_imm_edges_rs1val_0x7fffffff_immval_0x3:
  slti x18, x4, 3 # perform operation
    19b4:	00322913          	slti	x18,x4,3
  # Check if x18 contains the expected result. x19 is the signature ptr, x8 is the link ptr, x7 is a temp reg.
  RVTEST_SIGUPD(x19, x8, x7, x18, I_slti_cg_cr_rs1_imm_edges_rs1val_0x7fffffff_immval_0x3, I_slti_cg_cr_rs1_imm_edges_rs1val_0x7fffffff_immval_0x3_str)
    19b8:	0009a383          	lw	x7,0(x19)
    19bc:	01238863          	beq	x7,x18,19cc <I_slti_cg_cr_rs1_imm_edges_rs1val_0x7fffffff_immval_0x3+0x18>
    19c0:	2f50146f          	jal	x8,34b4 <failedtest_x8_x7>
    19c4:	000019b4          	.word	0x000019b4
    19c8:	0000b64a          	.word	0x0000b64a
    19cc:	00498993          	addi	x19,x19,4

# Testcase cr_rs1_imm_edges (rs1 = 0x7fffffff, imm = 4)
  RVTEST_TESTDATA_LOAD_INT(x6, x31) # load rs1: x31 = 0x7fffffff
    19d0:	00032f83          	lw	x31,0(x6)
    19d4:	00430313          	addi	x6,x6,4

000019d8 <I_slti_cg_cr_rs1_imm_edges_rs1val_0x7fffffff_immval_0x4>:
I_slti_cg_cr_rs1_imm_edges_rs1val_0x7fffffff_immval_0x4:
  slti x28, x31, 4 # perform operation
    19d8:	004fae13          	slti	x28,x31,4
  # Check if x28 contains the expected result. x19 is the signature ptr, x8 is the link ptr, x7 is a temp reg.
  RVTEST_SIGUPD(x19, x8, x7, x28, I_slti_cg_cr_rs1_imm_edges_rs1val_0x7fffffff_immval_0x4, I_slti_cg_cr_rs1_imm_edges_rs1val_0x7fffffff_immval_0x4_str)
    19dc:	0009a383          	lw	x7,0(x19)
    19e0:	01c38863          	beq	x7,x28,19f0 <I_slti_cg_cr_rs1_imm_edges_rs1val_0x7fffffff_immval_0x4+0x18>
    19e4:	2d10146f          	jal	x8,34b4 <failedtest_x8_x7>
    19e8:	000019d8          	.word	0x000019d8
    19ec:	0000b69f          	.word	0x0000b69f
    19f0:	00498993          	addi	x19,x19,4

# Testcase cr_rs1_imm_edges (rs1 = 0x7fffffff, imm = 8)
  RVTEST_TESTDATA_LOAD_INT(x6, x14) # load rs1: x14 = 0x7fffffff
    19f4:	00032703          	lw	x14,0(x6)
    19f8:	00430313          	addi	x6,x6,4

000019fc <I_slti_cg_cr_rs1_imm_edges_rs1val_0x7fffffff_immval_0x8>:
I_slti_cg_cr_rs1_imm_edges_rs1val_0x7fffffff_immval_0x8:
  slti x24, x14, 8 # perform operation
    19fc:	00872c13          	slti	x24,x14,8
  # Check if x24 contains the expected result. x19 is the signature ptr, x8 is the link ptr, x7 is a temp reg.
  RVTEST_SIGUPD(x19, x8, x7, x24, I_slti_cg_cr_rs1_imm_edges_rs1val_0x7fffffff_immval_0x8, I_slti_cg_cr_rs1_imm_edges_rs1val_0x7fffffff_immval_0x8_str)
    1a00:	0009a383          	lw	x7,0(x19)
    1a04:	01838863          	beq	x7,x24,1a14 <I_slti_cg_cr_rs1_imm_edges_rs1val_0x7fffffff_immval_0x8+0x18>
    1a08:	2ad0146f          	jal	x8,34b4 <failedtest_x8_x7>
    1a0c:	000019fc          	.word	0x000019fc
    1a10:	0000b6f4          	.word	0x0000b6f4
    1a14:	00498993          	addi	x19,x19,4

# Testcase cr_rs1_imm_edges (rs1 = 0x7fffffff, imm = 16)
  RVTEST_TESTDATA_LOAD_INT(x6, x23) # load rs1: x23 = 0x7fffffff
    1a18:	00032b83          	lw	x23,0(x6)
    1a1c:	00430313          	addi	x6,x6,4

00001a20 <I_slti_cg_cr_rs1_imm_edges_rs1val_0x7fffffff_immval_0x10>:
I_slti_cg_cr_rs1_imm_edges_rs1val_0x7fffffff_immval_0x10:
  slti x5, x23, 16 # perform operation
    1a20:	010ba293          	slti	x5,x23,16
  # Check if x5 contains the expected result. x19 is the signature ptr, x8 is the link ptr, x7 is a temp reg.
  RVTEST_SIGUPD(x19, x8, x7, x5, I_slti_cg_cr_rs1_imm_edges_rs1val_0x7fffffff_immval_0x10, I_slti_cg_cr_rs1_imm_edges_rs1val_0x7fffffff_immval_0x10_str)
    1a24:	0009a383          	lw	x7,0(x19)
    1a28:	00538863          	beq	x7,x5,1a38 <I_slti_cg_cr_rs1_imm_edges_rs1val_0x7fffffff_immval_0x10+0x18>
    1a2c:	2890146f          	jal	x8,34b4 <failedtest_x8_x7>
    1a30:	00001a20          	.word	0x00001a20
    1a34:	0000b749          	.word	0x0000b749
    1a38:	00498993          	addi	x19,x19,4

# Testcase cr_rs1_imm_edges (rs1 = 0x7fffffff, imm = 32)
  RVTEST_TESTDATA_LOAD_INT(x6, x2) # load rs1: x2 = 0x7fffffff
    1a3c:	00032103          	lw	x2,0(x6)
    1a40:	00430313          	addi	x6,x6,4

00001a44 <I_slti_cg_cr_rs1_imm_edges_rs1val_0x7fffffff_immval_0x20>:
I_slti_cg_cr_rs1_imm_edges_rs1val_0x7fffffff_immval_0x20:
  slti x23, x2, 32 # perform operation
    1a44:	02012b93          	slti	x23,x2,32
  # Check if x23 contains the expected result. x19 is the signature ptr, x8 is the link ptr, x7 is a temp reg.
  RVTEST_SIGUPD(x19, x8, x7, x23, I_slti_cg_cr_rs1_imm_edges_rs1val_0x7fffffff_immval_0x20, I_slti_cg_cr_rs1_imm_edges_rs1val_0x7fffffff_immval_0x20_str)
    1a48:	0009a383          	lw	x7,0(x19)
    1a4c:	01738863          	beq	x7,x23,1a5c <I_slti_cg_cr_rs1_imm_edges_rs1val_0x7fffffff_immval_0x20+0x18>
    1a50:	2650146f          	jal	x8,34b4 <failedtest_x8_x7>
    1a54:	00001a44          	.word	0x00001a44
    1a58:	0000b79f          	.word	0x0000b79f
    1a5c:	00498993          	addi	x19,x19,4

# Testcase cr_rs1_imm_edges (rs1 = 0x7fffffff, imm = 64)
  RVTEST_TESTDATA_LOAD_INT(x6, x2) # load rs1: x2 = 0x7fffffff
    1a60:	00032103          	lw	x2,0(x6)
    1a64:	00430313          	addi	x6,x6,4

00001a68 <I_slti_cg_cr_rs1_imm_edges_rs1val_0x7fffffff_immval_0x40>:
I_slti_cg_cr_rs1_imm_edges_rs1val_0x7fffffff_immval_0x40:
  slti x1, x2, 64 # perform operation
    1a68:	04012093          	slti	x1,x2,64
  # Check if x1 contains the expected result. x19 is the signature ptr, x8 is the link ptr, x7 is a temp reg.
  RVTEST_SIGUPD(x19, x8, x7, x1, I_slti_cg_cr_rs1_imm_edges_rs1val_0x7fffffff_immval_0x40, I_slti_cg_cr_rs1_imm_edges_rs1val_0x7fffffff_immval_0x40_str)
    1a6c:	0009a383          	lw	x7,0(x19)
    1a70:	00138863          	beq	x7,x1,1a80 <I_slti_cg_cr_rs1_imm_edges_rs1val_0x7fffffff_immval_0x40+0x18>
    1a74:	2410146f          	jal	x8,34b4 <failedtest_x8_x7>
    1a78:	00001a68          	.word	0x00001a68
    1a7c:	0000b7f5          	.word	0x0000b7f5
    1a80:	00498993          	addi	x19,x19,4

# Testcase cr_rs1_imm_edges (rs1 = 0x7fffffff, imm = 128)
  RVTEST_TESTDATA_LOAD_INT(x6, x9) # load rs1: x9 = 0x7fffffff
    1a84:	00032483          	lw	x9,0(x6)
    1a88:	00430313          	addi	x6,x6,4

00001a8c <I_slti_cg_cr_rs1_imm_edges_rs1val_0x7fffffff_immval_0x80>:
I_slti_cg_cr_rs1_imm_edges_rs1val_0x7fffffff_immval_0x80:
  slti x28, x9, 128 # perform operation
    1a8c:	0804ae13          	slti	x28,x9,128
  # Check if x28 contains the expected result. x19 is the signature ptr, x8 is the link ptr, x7 is a temp reg.
  RVTEST_SIGUPD(x19, x8, x7, x28, I_slti_cg_cr_rs1_imm_edges_rs1val_0x7fffffff_immval_0x80, I_slti_cg_cr_rs1_imm_edges_rs1val_0x7fffffff_immval_0x80_str)
    1a90:	0009a383          	lw	x7,0(x19)
    1a94:	01c38863          	beq	x7,x28,1aa4 <I_slti_cg_cr_rs1_imm_edges_rs1val_0x7fffffff_immval_0x80+0x18>
    1a98:	21d0146f          	jal	x8,34b4 <failedtest_x8_x7>
    1a9c:	00001a8c          	.word	0x00001a8c
    1aa0:	0000b84b          	.word	0x0000b84b
    1aa4:	00498993          	addi	x19,x19,4

# Testcase cr_rs1_imm_edges (rs1 = 0x7fffffff, imm = 256)
  RVTEST_TESTDATA_LOAD_INT(x6, x15) # load rs1: x15 = 0x7fffffff
    1aa8:	00032783          	lw	x15,0(x6)
    1aac:	00430313          	addi	x6,x6,4

00001ab0 <I_slti_cg_cr_rs1_imm_edges_rs1val_0x7fffffff_immval_0x100>:
I_slti_cg_cr_rs1_imm_edges_rs1val_0x7fffffff_immval_0x100:
  slti x14, x15, 256 # perform operation
    1ab0:	1007a713          	slti	x14,x15,256
  # Check if x14 contains the expected result. x19 is the signature ptr, x8 is the link ptr, x7 is a temp reg.
  RVTEST_SIGUPD(x19, x8, x7, x14, I_slti_cg_cr_rs1_imm_edges_rs1val_0x7fffffff_immval_0x100, I_slti_cg_cr_rs1_imm_edges_rs1val_0x7fffffff_immval_0x100_str)
    1ab4:	0009a383          	lw	x7,0(x19)
    1ab8:	00e38863          	beq	x7,x14,1ac8 <I_slti_cg_cr_rs1_imm_edges_rs1val_0x7fffffff_immval_0x100+0x18>
    1abc:	1f90146f          	jal	x8,34b4 <failedtest_x8_x7>
    1ac0:	00001ab0          	.word	0x00001ab0
    1ac4:	0000b8a1          	.word	0x0000b8a1
    1ac8:	00498993          	addi	x19,x19,4

# Testcase cr_rs1_imm_edges (rs1 = 0x7fffffff, imm = 512)
  RVTEST_TESTDATA_LOAD_INT(x6, x3) # load rs1: x3 = 0x7fffffff
    1acc:	00032183          	lw	x3,0(x6)
    1ad0:	00430313          	addi	x6,x6,4

00001ad4 <I_slti_cg_cr_rs1_imm_edges_rs1val_0x7fffffff_immval_0x200>:
I_slti_cg_cr_rs1_imm_edges_rs1val_0x7fffffff_immval_0x200:
  slti x10, x3, 512 # perform operation
    1ad4:	2001a513          	slti	x10,x3,512
  # Check if x10 contains the expected result. x19 is the signature ptr, x8 is the link ptr, x7 is a temp reg.
  RVTEST_SIGUPD(x19, x8, x7, x10, I_slti_cg_cr_rs1_imm_edges_rs1val_0x7fffffff_immval_0x200, I_slti_cg_cr_rs1_imm_edges_rs1val_0x7fffffff_immval_0x200_str)
    1ad8:	0009a383          	lw	x7,0(x19)
    1adc:	00a38863          	beq	x7,x10,1aec <I_slti_cg_cr_rs1_imm_edges_rs1val_0x7fffffff_immval_0x200+0x18>
    1ae0:	1d50146f          	jal	x8,34b4 <failedtest_x8_x7>
    1ae4:	00001ad4          	.word	0x00001ad4
    1ae8:	0000b8f8          	.word	0x0000b8f8
    1aec:	00498993          	addi	x19,x19,4

# Testcase cr_rs1_imm_edges (rs1 = 0x7fffffff, imm = 1023)
  RVTEST_TESTDATA_LOAD_INT(x6, x10) # load rs1: x10 = 0x7fffffff
    1af0:	00032503          	lw	x10,0(x6)
    1af4:	00430313          	addi	x6,x6,4

00001af8 <I_slti_cg_cr_rs1_imm_edges_rs1val_0x7fffffff_immval_0x3ff>:
I_slti_cg_cr_rs1_imm_edges_rs1val_0x7fffffff_immval_0x3ff:
  slti x20, x10, 1023 # perform operation
    1af8:	3ff52a13          	slti	x20,x10,1023
  # Check if x20 contains the expected result. x19 is the signature ptr, x8 is the link ptr, x7 is a temp reg.
  RVTEST_SIGUPD(x19, x8, x7, x20, I_slti_cg_cr_rs1_imm_edges_rs1val_0x7fffffff_immval_0x3ff, I_slti_cg_cr_rs1_imm_edges_rs1val_0x7fffffff_immval_0x3ff_str)
    1afc:	0009a383          	lw	x7,0(x19)
    1b00:	01438863          	beq	x7,x20,1b10 <I_slti_cg_cr_rs1_imm_edges_rs1val_0x7fffffff_immval_0x3ff+0x18>
    1b04:	1b10146f          	jal	x8,34b4 <failedtest_x8_x7>
    1b08:	00001af8          	.word	0x00001af8
    1b0c:	0000b94f          	.word	0x0000b94f
    1b10:	00498993          	addi	x19,x19,4

# Testcase cr_rs1_imm_edges (rs1 = 0x7fffffff, imm = 1024)
  RVTEST_TESTDATA_LOAD_INT(x6, x12) # load rs1: x12 = 0x7fffffff
    1b14:	00032603          	lw	x12,0(x6)
    1b18:	00430313          	addi	x6,x6,4

00001b1c <I_slti_cg_cr_rs1_imm_edges_rs1val_0x7fffffff_immval_0x400>:
I_slti_cg_cr_rs1_imm_edges_rs1val_0x7fffffff_immval_0x400:
  slti x28, x12, 1024 # perform operation
    1b1c:	40062e13          	slti	x28,x12,1024
  # Check if x28 contains the expected result. x19 is the signature ptr, x8 is the link ptr, x7 is a temp reg.
  RVTEST_SIGUPD(x19, x8, x7, x28, I_slti_cg_cr_rs1_imm_edges_rs1val_0x7fffffff_immval_0x400, I_slti_cg_cr_rs1_imm_edges_rs1val_0x7fffffff_immval_0x400_str)
    1b20:	0009a383          	lw	x7,0(x19)
    1b24:	01c38863          	beq	x7,x28,1b34 <I_slti_cg_cr_rs1_imm_edges_rs1val_0x7fffffff_immval_0x400+0x18>
    1b28:	18d0146f          	jal	x8,34b4 <failedtest_x8_x7>
    1b2c:	00001b1c          	.word	0x00001b1c
    1b30:	0000b9a6          	.word	0x0000b9a6
    1b34:	00498993          	addi	x19,x19,4

# Testcase cr_rs1_imm_edges (rs1 = 0x7fffffff, imm = 1795)
  RVTEST_TESTDATA_LOAD_INT(x6, x21) # load rs1: x21 = 0x7fffffff
    1b38:	00032a83          	lw	x21,0(x6)
    1b3c:	00430313          	addi	x6,x6,4

00001b40 <I_slti_cg_cr_rs1_imm_edges_rs1val_0x7fffffff_immval_0x703>:
I_slti_cg_cr_rs1_imm_edges_rs1val_0x7fffffff_immval_0x703:
  slti x4, x21, 1795 # perform operation
    1b40:	703aa213          	slti	x4,x21,1795
  # Check if x4 contains the expected result. x19 is the signature ptr, x8 is the link ptr, x7 is a temp reg.
  RVTEST_SIGUPD(x19, x8, x7, x4, I_slti_cg_cr_rs1_imm_edges_rs1val_0x7fffffff_immval_0x703, I_slti_cg_cr_rs1_imm_edges_rs1val_0x7fffffff_immval_0x703_str)
    1b44:	0009a383          	lw	x7,0(x19)
    1b48:	00438863          	beq	x7,x4,1b58 <I_slti_cg_cr_rs1_imm_edges_rs1val_0x7fffffff_immval_0x703+0x18>
    1b4c:	1690146f          	jal	x8,34b4 <failedtest_x8_x7>
    1b50:	00001b40          	.word	0x00001b40
    1b54:	0000b9fd          	.word	0x0000b9fd
    1b58:	00498993          	addi	x19,x19,4

# Testcase cr_rs1_imm_edges (rs1 = 0x7fffffff, imm = 2047)
  RVTEST_TESTDATA_LOAD_INT(x6, x31) # load rs1: x31 = 0x7fffffff
    1b5c:	00032f83          	lw	x31,0(x6)
    1b60:	00430313          	addi	x6,x6,4

00001b64 <I_slti_cg_cr_rs1_imm_edges_rs1val_0x7fffffff_immval_0x7ff>:
I_slti_cg_cr_rs1_imm_edges_rs1val_0x7fffffff_immval_0x7ff:
  slti x26, x31, 2047 # perform operation
    1b64:	7fffad13          	slti	x26,x31,2047
  # Check if x26 contains the expected result. x19 is the signature ptr, x8 is the link ptr, x7 is a temp reg.
  RVTEST_SIGUPD(x19, x8, x7, x26, I_slti_cg_cr_rs1_imm_edges_rs1val_0x7fffffff_immval_0x7ff, I_slti_cg_cr_rs1_imm_edges_rs1val_0x7fffffff_immval_0x7ff_str)
    1b68:	0009a383          	lw	x7,0(x19)
    1b6c:	01a38863          	beq	x7,x26,1b7c <I_slti_cg_cr_rs1_imm_edges_rs1val_0x7fffffff_immval_0x7ff+0x18>
    1b70:	1450146f          	jal	x8,34b4 <failedtest_x8_x7>
    1b74:	00001b64          	.word	0x00001b64
    1b78:	0000ba54          	.word	0x0000ba54
    1b7c:	00498993          	addi	x19,x19,4

# Testcase cr_rs1_imm_edges (rs1 = 0x7fffffff, imm = -2048)
  RVTEST_TESTDATA_LOAD_INT(x6, x29) # load rs1: x29 = 0x7fffffff
    1b80:	00032e83          	lw	x29,0(x6)
    1b84:	00430313          	addi	x6,x6,4

00001b88 <I_slti_cg_cr_rs1_imm_edges_rs1val_0x7fffffff_immval_m0x800>:
I_slti_cg_cr_rs1_imm_edges_rs1val_0x7fffffff_immval_m0x800:
  slti x17, x29, -2048 # perform operation
    1b88:	800ea893          	slti	x17,x29,-2048
  # Check if x17 contains the expected result. x19 is the signature ptr, x8 is the link ptr, x7 is a temp reg.
  RVTEST_SIGUPD(x19, x8, x7, x17, I_slti_cg_cr_rs1_imm_edges_rs1val_0x7fffffff_immval_m0x800, I_slti_cg_cr_rs1_imm_edges_rs1val_0x7fffffff_immval_m0x800_str)
    1b8c:	0009a383          	lw	x7,0(x19)
    1b90:	01138863          	beq	x7,x17,1ba0 <I_slti_cg_cr_rs1_imm_edges_rs1val_0x7fffffff_immval_m0x800+0x18>
    1b94:	1210146f          	jal	x8,34b4 <failedtest_x8_x7>
    1b98:	00001b88          	.word	0x00001b88
    1b9c:	0000baab          	.word	0x0000baab
    1ba0:	00498993          	addi	x19,x19,4

# Testcase cr_rs1_imm_edges (rs1 = 0x7fffffff, imm = -2047)
  RVTEST_TESTDATA_LOAD_INT(x6, x10) # load rs1: x10 = 0x7fffffff
    1ba4:	00032503          	lw	x10,0(x6)
    1ba8:	00430313          	addi	x6,x6,4

00001bac <I_slti_cg_cr_rs1_imm_edges_rs1val_0x7fffffff_immval_m0x7ff>:
I_slti_cg_cr_rs1_imm_edges_rs1val_0x7fffffff_immval_m0x7ff:
  slti x30, x10, -2047 # perform operation
    1bac:	80152f13          	slti	x30,x10,-2047
  # Check if x30 contains the expected result. x19 is the signature ptr, x8 is the link ptr, x7 is a temp reg.
  RVTEST_SIGUPD(x19, x8, x7, x30, I_slti_cg_cr_rs1_imm_edges_rs1val_0x7fffffff_immval_m0x7ff, I_slti_cg_cr_rs1_imm_edges_rs1val_0x7fffffff_immval_m0x7ff_str)
    1bb0:	0009a383          	lw	x7,0(x19)
    1bb4:	01e38863          	beq	x7,x30,1bc4 <I_slti_cg_cr_rs1_imm_edges_rs1val_0x7fffffff_immval_m0x7ff+0x18>
    1bb8:	0fd0146f          	jal	x8,34b4 <failedtest_x8_x7>
    1bbc:	00001bac          	.word	0x00001bac
    1bc0:	0000bb03          	.word	0x0000bb03
    1bc4:	00498993          	addi	x19,x19,4

# Testcase cr_rs1_imm_edges (rs1 = 0x7fffffff, imm = -2)
  RVTEST_TESTDATA_LOAD_INT(x6, x26) # load rs1: x26 = 0x7fffffff
    1bc8:	00032d03          	lw	x26,0(x6)
    1bcc:	00430313          	addi	x6,x6,4

00001bd0 <I_slti_cg_cr_rs1_imm_edges_rs1val_0x7fffffff_immval_m0x2>:
I_slti_cg_cr_rs1_imm_edges_rs1val_0x7fffffff_immval_m0x2:
  slti x23, x26, -2 # perform operation
    1bd0:	ffed2b93          	slti	x23,x26,-2
  # Check if x23 contains the expected result. x19 is the signature ptr, x8 is the link ptr, x7 is a temp reg.
  RVTEST_SIGUPD(x19, x8, x7, x23, I_slti_cg_cr_rs1_imm_edges_rs1val_0x7fffffff_immval_m0x2, I_slti_cg_cr_rs1_imm_edges_rs1val_0x7fffffff_immval_m0x2_str)
    1bd4:	0009a383          	lw	x7,0(x19)
    1bd8:	01738863          	beq	x7,x23,1be8 <I_slti_cg_cr_rs1_imm_edges_rs1val_0x7fffffff_immval_m0x2+0x18>
    1bdc:	0d90146f          	jal	x8,34b4 <failedtest_x8_x7>
    1be0:	00001bd0          	.word	0x00001bd0
    1be4:	0000bb5b          	.word	0x0000bb5b
    1be8:	00498993          	addi	x19,x19,4

# Testcase cr_rs1_imm_edges (rs1 = 0x7fffffff, imm = -1)
  RVTEST_TESTDATA_LOAD_INT(x6, x1) # load rs1: x1 = 0x7fffffff
    1bec:	00032083          	lw	x1,0(x6)
    1bf0:	00430313          	addi	x6,x6,4

00001bf4 <I_slti_cg_cr_rs1_imm_edges_rs1val_0x7fffffff_immval_m0x1>:
I_slti_cg_cr_rs1_imm_edges_rs1val_0x7fffffff_immval_m0x1:
  slti x30, x1, -1 # perform operation
    1bf4:	fff0af13          	slti	x30,x1,-1
  # Check if x30 contains the expected result. x19 is the signature ptr, x8 is the link ptr, x7 is a temp reg.
  RVTEST_SIGUPD(x19, x8, x7, x30, I_slti_cg_cr_rs1_imm_edges_rs1val_0x7fffffff_immval_m0x1, I_slti_cg_cr_rs1_imm_edges_rs1val_0x7fffffff_immval_m0x1_str)
    1bf8:	0009a383          	lw	x7,0(x19)
    1bfc:	01e38863          	beq	x7,x30,1c0c <I_slti_cg_cr_rs1_imm_edges_rs1val_0x7fffffff_immval_m0x1+0x18>
    1c00:	0b50146f          	jal	x8,34b4 <failedtest_x8_x7>
    1c04:	00001bf4          	.word	0x00001bf4
    1c08:	0000bbb1          	.word	0x0000bbb1
    1c0c:	00498993          	addi	x19,x19,4

# Testcase cr_rs1_imm_edges (rs1 = 0x7ffffffe, imm = 0)
  RVTEST_TESTDATA_LOAD_INT(x6, x20) # load rs1: x20 = 0x7ffffffe
    1c10:	00032a03          	lw	x20,0(x6)
    1c14:	00430313          	addi	x6,x6,4

00001c18 <I_slti_cg_cr_rs1_imm_edges_rs1val_0x7ffffffe_immval_0x0>:
I_slti_cg_cr_rs1_imm_edges_rs1val_0x7ffffffe_immval_0x0:
  slti x17, x20, 0 # perform operation
    1c18:	000a2893          	slti	x17,x20,0
  # Check if x17 contains the expected result. x19 is the signature ptr, x8 is the link ptr, x7 is a temp reg.
  RVTEST_SIGUPD(x19, x8, x7, x17, I_slti_cg_cr_rs1_imm_edges_rs1val_0x7ffffffe_immval_0x0, I_slti_cg_cr_rs1_imm_edges_rs1val_0x7ffffffe_immval_0x0_str)
    1c1c:	0009a383          	lw	x7,0(x19)
    1c20:	01138863          	beq	x7,x17,1c30 <I_slti_cg_cr_rs1_imm_edges_rs1val_0x7ffffffe_immval_0x0+0x18>
    1c24:	0910146f          	jal	x8,34b4 <failedtest_x8_x7>
    1c28:	00001c18          	.word	0x00001c18
    1c2c:	0000bc07          	.word	0x0000bc07
    1c30:	00498993          	addi	x19,x19,4

# Testcase cr_rs1_imm_edges (rs1 = 0x7ffffffe, imm = 1)
  RVTEST_TESTDATA_LOAD_INT(x6, x9) # load rs1: x9 = 0x7ffffffe
    1c34:	00032483          	lw	x9,0(x6)
    1c38:	00430313          	addi	x6,x6,4

00001c3c <I_slti_cg_cr_rs1_imm_edges_rs1val_0x7ffffffe_immval_0x1>:
I_slti_cg_cr_rs1_imm_edges_rs1val_0x7ffffffe_immval_0x1:
  slti x24, x9, 1 # perform operation
    1c3c:	0014ac13          	slti	x24,x9,1
  # Check if x24 contains the expected result. x19 is the signature ptr, x8 is the link ptr, x7 is a temp reg.
  RVTEST_SIGUPD(x19, x8, x7, x24, I_slti_cg_cr_rs1_imm_edges_rs1val_0x7ffffffe_immval_0x1, I_slti_cg_cr_rs1_imm_edges_rs1val_0x7ffffffe_immval_0x1_str)
    1c40:	0009a383          	lw	x7,0(x19)
    1c44:	01838863          	beq	x7,x24,1c54 <I_slti_cg_cr_rs1_imm_edges_rs1val_0x7ffffffe_immval_0x1+0x18>
    1c48:	06d0146f          	jal	x8,34b4 <failedtest_x8_x7>
    1c4c:	00001c3c          	.word	0x00001c3c
    1c50:	0000bc5c          	.word	0x0000bc5c
    1c54:	00498993          	addi	x19,x19,4

# Testcase cr_rs1_imm_edges (rs1 = 0x7ffffffe, imm = 2)
  RVTEST_TESTDATA_LOAD_INT(x6, x30) # load rs1: x30 = 0x7ffffffe
    1c58:	00032f03          	lw	x30,0(x6)
    1c5c:	00430313          	addi	x6,x6,4

00001c60 <I_slti_cg_cr_rs1_imm_edges_rs1val_0x7ffffffe_immval_0x2>:
I_slti_cg_cr_rs1_imm_edges_rs1val_0x7ffffffe_immval_0x2:
  slti x20, x30, 2 # perform operation
    1c60:	002f2a13          	slti	x20,x30,2
  # Check if x20 contains the expected result. x19 is the signature ptr, x8 is the link ptr, x7 is a temp reg.
  RVTEST_SIGUPD(x19, x8, x7, x20, I_slti_cg_cr_rs1_imm_edges_rs1val_0x7ffffffe_immval_0x2, I_slti_cg_cr_rs1_imm_edges_rs1val_0x7ffffffe_immval_0x2_str)
    1c64:	0009a383          	lw	x7,0(x19)
    1c68:	01438863          	beq	x7,x20,1c78 <I_slti_cg_cr_rs1_imm_edges_rs1val_0x7ffffffe_immval_0x2+0x18>
    1c6c:	0490146f          	jal	x8,34b4 <failedtest_x8_x7>
    1c70:	00001c60          	.word	0x00001c60
    1c74:	0000bcb1          	.word	0x0000bcb1
    1c78:	00498993          	addi	x19,x19,4

# Testcase cr_rs1_imm_edges (rs1 = 0x7ffffffe, imm = 3)
  RVTEST_TESTDATA_LOAD_INT(x6, x14) # load rs1: x14 = 0x7ffffffe
    1c7c:	00032703          	lw	x14,0(x6)
    1c80:	00430313          	addi	x6,x6,4

00001c84 <I_slti_cg_cr_rs1_imm_edges_rs1val_0x7ffffffe_immval_0x3>:
I_slti_cg_cr_rs1_imm_edges_rs1val_0x7ffffffe_immval_0x3:
  slti x21, x14, 3 # perform operation
    1c84:	00372a93          	slti	x21,x14,3
  # Check if x21 contains the expected result. x19 is the signature ptr, x8 is the link ptr, x7 is a temp reg.
  RVTEST_SIGUPD(x19, x8, x7, x21, I_slti_cg_cr_rs1_imm_edges_rs1val_0x7ffffffe_immval_0x3, I_slti_cg_cr_rs1_imm_edges_rs1val_0x7ffffffe_immval_0x3_str)
    1c88:	0009a383          	lw	x7,0(x19)
    1c8c:	01538863          	beq	x7,x21,1c9c <I_slti_cg_cr_rs1_imm_edges_rs1val_0x7ffffffe_immval_0x3+0x18>
    1c90:	0250146f          	jal	x8,34b4 <failedtest_x8_x7>
    1c94:	00001c84          	.word	0x00001c84
    1c98:	0000bd06          	.word	0x0000bd06
    1c9c:	00498993          	addi	x19,x19,4

# Testcase cr_rs1_imm_edges (rs1 = 0x7ffffffe, imm = 4)
  RVTEST_TESTDATA_LOAD_INT(x6, x17) # load rs1: x17 = 0x7ffffffe
    1ca0:	00032883          	lw	x17,0(x6)
    1ca4:	00430313          	addi	x6,x6,4

00001ca8 <I_slti_cg_cr_rs1_imm_edges_rs1val_0x7ffffffe_immval_0x4>:
I_slti_cg_cr_rs1_imm_edges_rs1val_0x7ffffffe_immval_0x4:
  slti x26, x17, 4 # perform operation
    1ca8:	0048ad13          	slti	x26,x17,4
  # Check if x26 contains the expected result. x19 is the signature ptr, x8 is the link ptr, x7 is a temp reg.
  RVTEST_SIGUPD(x19, x8, x7, x26, I_slti_cg_cr_rs1_imm_edges_rs1val_0x7ffffffe_immval_0x4, I_slti_cg_cr_rs1_imm_edges_rs1val_0x7ffffffe_immval_0x4_str)
    1cac:	0009a383          	lw	x7,0(x19)
    1cb0:	01a38863          	beq	x7,x26,1cc0 <I_slti_cg_cr_rs1_imm_edges_rs1val_0x7ffffffe_immval_0x4+0x18>
    1cb4:	0010146f          	jal	x8,34b4 <failedtest_x8_x7>
    1cb8:	00001ca8          	.word	0x00001ca8
    1cbc:	0000bd5b          	.word	0x0000bd5b
    1cc0:	00498993          	addi	x19,x19,4

# Testcase cr_rs1_imm_edges (rs1 = 0x7ffffffe, imm = 8)
  RVTEST_TESTDATA_LOAD_INT(x6, x27) # load rs1: x27 = 0x7ffffffe
    1cc4:	00032d83          	lw	x27,0(x6)
    1cc8:	00430313          	addi	x6,x6,4

00001ccc <I_slti_cg_cr_rs1_imm_edges_rs1val_0x7ffffffe_immval_0x8>:
I_slti_cg_cr_rs1_imm_edges_rs1val_0x7ffffffe_immval_0x8:
  slti x31, x27, 8 # perform operation
    1ccc:	008daf93          	slti	x31,x27,8
  # Check if x31 contains the expected result. x19 is the signature ptr, x8 is the link ptr, x7 is a temp reg.
  RVTEST_SIGUPD(x19, x8, x7, x31, I_slti_cg_cr_rs1_imm_edges_rs1val_0x7ffffffe_immval_0x8, I_slti_cg_cr_rs1_imm_edges_rs1val_0x7ffffffe_immval_0x8_str)
    1cd0:	0009a383          	lw	x7,0(x19)
    1cd4:	01f38863          	beq	x7,x31,1ce4 <I_slti_cg_cr_rs1_imm_edges_rs1val_0x7ffffffe_immval_0x8+0x18>
    1cd8:	7dc0146f          	jal	x8,34b4 <failedtest_x8_x7>
    1cdc:	00001ccc          	.word	0x00001ccc
    1ce0:	0000bdb0          	.word	0x0000bdb0
    1ce4:	00498993          	addi	x19,x19,4

# Testcase cr_rs1_imm_edges (rs1 = 0x7ffffffe, imm = 16)
  RVTEST_TESTDATA_LOAD_INT(x6, x11) # load rs1: x11 = 0x7ffffffe
    1ce8:	00032583          	lw	x11,0(x6)
    1cec:	00430313          	addi	x6,x6,4

00001cf0 <I_slti_cg_cr_rs1_imm_edges_rs1val_0x7ffffffe_immval_0x10>:
I_slti_cg_cr_rs1_imm_edges_rs1val_0x7ffffffe_immval_0x10:
  slti x28, x11, 16 # perform operation
    1cf0:	0105ae13          	slti	x28,x11,16
  # Check if x28 contains the expected result. x19 is the signature ptr, x8 is the link ptr, x7 is a temp reg.
  RVTEST_SIGUPD(x19, x8, x7, x28, I_slti_cg_cr_rs1_imm_edges_rs1val_0x7ffffffe_immval_0x10, I_slti_cg_cr_rs1_imm_edges_rs1val_0x7ffffffe_immval_0x10_str)
    1cf4:	0009a383          	lw	x7,0(x19)
    1cf8:	01c38863          	beq	x7,x28,1d08 <I_slti_cg_cr_rs1_imm_edges_rs1val_0x7ffffffe_immval_0x10+0x18>
    1cfc:	7b80146f          	jal	x8,34b4 <failedtest_x8_x7>
    1d00:	00001cf0          	.word	0x00001cf0
    1d04:	0000be05          	.word	0x0000be05
    1d08:	00498993          	addi	x19,x19,4

# Testcase cr_rs1_imm_edges (rs1 = 0x7ffffffe, imm = 32)
  RVTEST_TESTDATA_LOAD_INT(x6, x31) # load rs1: x31 = 0x7ffffffe
    1d0c:	00032f83          	lw	x31,0(x6)
    1d10:	00430313          	addi	x6,x6,4

00001d14 <I_slti_cg_cr_rs1_imm_edges_rs1val_0x7ffffffe_immval_0x20>:
I_slti_cg_cr_rs1_imm_edges_rs1val_0x7ffffffe_immval_0x20:
  slti x25, x31, 32 # perform operation
    1d14:	020fac93          	slti	x25,x31,32
  # Check if x25 contains the expected result. x19 is the signature ptr, x8 is the link ptr, x7 is a temp reg.
  RVTEST_SIGUPD(x19, x8, x7, x25, I_slti_cg_cr_rs1_imm_edges_rs1val_0x7ffffffe_immval_0x20, I_slti_cg_cr_rs1_imm_edges_rs1val_0x7ffffffe_immval_0x20_str)
    1d18:	0009a383          	lw	x7,0(x19)
    1d1c:	01938863          	beq	x7,x25,1d2c <I_slti_cg_cr_rs1_imm_edges_rs1val_0x7ffffffe_immval_0x20+0x18>
    1d20:	7940146f          	jal	x8,34b4 <failedtest_x8_x7>
    1d24:	00001d14          	.word	0x00001d14
    1d28:	0000be5b          	.word	0x0000be5b
    1d2c:	00498993          	addi	x19,x19,4

# Testcase cr_rs1_imm_edges (rs1 = 0x7ffffffe, imm = 64)
  RVTEST_TESTDATA_LOAD_INT(x6, x11) # load rs1: x11 = 0x7ffffffe
    1d30:	00032583          	lw	x11,0(x6)
    1d34:	00430313          	addi	x6,x6,4

00001d38 <I_slti_cg_cr_rs1_imm_edges_rs1val_0x7ffffffe_immval_0x40>:
I_slti_cg_cr_rs1_imm_edges_rs1val_0x7ffffffe_immval_0x40:
  slti x21, x11, 64 # perform operation
    1d38:	0405aa93          	slti	x21,x11,64
  # Check if x21 contains the expected result. x19 is the signature ptr, x8 is the link ptr, x7 is a temp reg.
  RVTEST_SIGUPD(x19, x8, x7, x21, I_slti_cg_cr_rs1_imm_edges_rs1val_0x7ffffffe_immval_0x40, I_slti_cg_cr_rs1_imm_edges_rs1val_0x7ffffffe_immval_0x40_str)
    1d3c:	0009a383          	lw	x7,0(x19)
    1d40:	01538863          	beq	x7,x21,1d50 <I_slti_cg_cr_rs1_imm_edges_rs1val_0x7ffffffe_immval_0x40+0x18>
    1d44:	7700146f          	jal	x8,34b4 <failedtest_x8_x7>
    1d48:	00001d38          	.word	0x00001d38
    1d4c:	0000beb1          	.word	0x0000beb1
    1d50:	00498993          	addi	x19,x19,4

# Testcase cr_rs1_imm_edges (rs1 = 0x7ffffffe, imm = 128)
  RVTEST_TESTDATA_LOAD_INT(x6, x1) # load rs1: x1 = 0x7ffffffe
    1d54:	00032083          	lw	x1,0(x6)
    1d58:	00430313          	addi	x6,x6,4

00001d5c <I_slti_cg_cr_rs1_imm_edges_rs1val_0x7ffffffe_immval_0x80>:
I_slti_cg_cr_rs1_imm_edges_rs1val_0x7ffffffe_immval_0x80:
  slti x5, x1, 128 # perform operation
    1d5c:	0800a293          	slti	x5,x1,128
  # Check if x5 contains the expected result. x19 is the signature ptr, x8 is the link ptr, x7 is a temp reg.
  RVTEST_SIGUPD(x19, x8, x7, x5, I_slti_cg_cr_rs1_imm_edges_rs1val_0x7ffffffe_immval_0x80, I_slti_cg_cr_rs1_imm_edges_rs1val_0x7ffffffe_immval_0x80_str)
    1d60:	0009a383          	lw	x7,0(x19)
    1d64:	00538863          	beq	x7,x5,1d74 <I_slti_cg_cr_rs1_imm_edges_rs1val_0x7ffffffe_immval_0x80+0x18>
    1d68:	74c0146f          	jal	x8,34b4 <failedtest_x8_x7>
    1d6c:	00001d5c          	.word	0x00001d5c
    1d70:	0000bf07          	.word	0x0000bf07
    1d74:	00498993          	addi	x19,x19,4

# Testcase cr_rs1_imm_edges (rs1 = 0x7ffffffe, imm = 256)
  RVTEST_TESTDATA_LOAD_INT(x6, x17) # load rs1: x17 = 0x7ffffffe
    1d78:	00032883          	lw	x17,0(x6)
    1d7c:	00430313          	addi	x6,x6,4

00001d80 <I_slti_cg_cr_rs1_imm_edges_rs1val_0x7ffffffe_immval_0x100>:
I_slti_cg_cr_rs1_imm_edges_rs1val_0x7ffffffe_immval_0x100:
  slti x2, x17, 256 # perform operation
    1d80:	1008a113          	slti	x2,x17,256
  # Check if x2 contains the expected result. x19 is the signature ptr, x8 is the link ptr, x7 is a temp reg.
  RVTEST_SIGUPD(x19, x8, x7, x2, I_slti_cg_cr_rs1_imm_edges_rs1val_0x7ffffffe_immval_0x100, I_slti_cg_cr_rs1_imm_edges_rs1val_0x7ffffffe_immval_0x100_str)
    1d84:	0009a383          	lw	x7,0(x19)
    1d88:	00238863          	beq	x7,x2,1d98 <I_slti_cg_cr_rs1_imm_edges_rs1val_0x7ffffffe_immval_0x100+0x18>
    1d8c:	7280146f          	jal	x8,34b4 <failedtest_x8_x7>
    1d90:	00001d80          	.word	0x00001d80
    1d94:	0000bf5d          	.word	0x0000bf5d
    1d98:	00498993          	addi	x19,x19,4

# Testcase cr_rs1_imm_edges (rs1 = 0x7ffffffe, imm = 512)
  RVTEST_TESTDATA_LOAD_INT(x6, x3) # load rs1: x3 = 0x7ffffffe
    1d9c:	00032183          	lw	x3,0(x6)
    1da0:	00430313          	addi	x6,x6,4

00001da4 <I_slti_cg_cr_rs1_imm_edges_rs1val_0x7ffffffe_immval_0x200>:
I_slti_cg_cr_rs1_imm_edges_rs1val_0x7ffffffe_immval_0x200:
  slti x2, x3, 512 # perform operation
    1da4:	2001a113          	slti	x2,x3,512
  # Check if x2 contains the expected result. x19 is the signature ptr, x8 is the link ptr, x7 is a temp reg.
  RVTEST_SIGUPD(x19, x8, x7, x2, I_slti_cg_cr_rs1_imm_edges_rs1val_0x7ffffffe_immval_0x200, I_slti_cg_cr_rs1_imm_edges_rs1val_0x7ffffffe_immval_0x200_str)
    1da8:	0009a383          	lw	x7,0(x19)
    1dac:	00238863          	beq	x7,x2,1dbc <I_slti_cg_cr_rs1_imm_edges_rs1val_0x7ffffffe_immval_0x200+0x18>
    1db0:	7040146f          	jal	x8,34b4 <failedtest_x8_x7>
    1db4:	00001da4          	.word	0x00001da4
    1db8:	0000bfb4          	.word	0x0000bfb4
    1dbc:	00498993          	addi	x19,x19,4

# Testcase cr_rs1_imm_edges (rs1 = 0x7ffffffe, imm = 1023)
  RVTEST_TESTDATA_LOAD_INT(x6, x4) # load rs1: x4 = 0x7ffffffe
    1dc0:	00032203          	lw	x4,0(x6)
    1dc4:	00430313          	addi	x6,x6,4

00001dc8 <I_slti_cg_cr_rs1_imm_edges_rs1val_0x7ffffffe_immval_0x3ff>:
I_slti_cg_cr_rs1_imm_edges_rs1val_0x7ffffffe_immval_0x3ff:
  slti x18, x4, 1023 # perform operation
    1dc8:	3ff22913          	slti	x18,x4,1023
  # Check if x18 contains the expected result. x19 is the signature ptr, x8 is the link ptr, x7 is a temp reg.
  RVTEST_SIGUPD(x19, x8, x7, x18, I_slti_cg_cr_rs1_imm_edges_rs1val_0x7ffffffe_immval_0x3ff, I_slti_cg_cr_rs1_imm_edges_rs1val_0x7ffffffe_immval_0x3ff_str)
    1dcc:	0009a383          	lw	x7,0(x19)
    1dd0:	01238863          	beq	x7,x18,1de0 <I_slti_cg_cr_rs1_imm_edges_rs1val_0x7ffffffe_immval_0x3ff+0x18>
    1dd4:	6e00146f          	jal	x8,34b4 <failedtest_x8_x7>
    1dd8:	00001dc8          	.word	0x00001dc8
    1ddc:	0000c00b          	.word	0x0000c00b
    1de0:	00498993          	addi	x19,x19,4

# Testcase cr_rs1_imm_edges (rs1 = 0x7ffffffe, imm = 1024)
  RVTEST_TESTDATA_LOAD_INT(x6, x16) # load rs1: x16 = 0x7ffffffe
    1de4:	00032803          	lw	x16,0(x6)
    1de8:	00430313          	addi	x6,x6,4

00001dec <I_slti_cg_cr_rs1_imm_edges_rs1val_0x7ffffffe_immval_0x400>:
I_slti_cg_cr_rs1_imm_edges_rs1val_0x7ffffffe_immval_0x400:
  slti x24, x16, 1024 # perform operation
    1dec:	40082c13          	slti	x24,x16,1024
  # Check if x24 contains the expected result. x19 is the signature ptr, x8 is the link ptr, x7 is a temp reg.
  RVTEST_SIGUPD(x19, x8, x7, x24, I_slti_cg_cr_rs1_imm_edges_rs1val_0x7ffffffe_immval_0x400, I_slti_cg_cr_rs1_imm_edges_rs1val_0x7ffffffe_immval_0x400_str)
    1df0:	0009a383          	lw	x7,0(x19)
    1df4:	01838863          	beq	x7,x24,1e04 <I_slti_cg_cr_rs1_imm_edges_rs1val_0x7ffffffe_immval_0x400+0x18>
    1df8:	6bc0146f          	jal	x8,34b4 <failedtest_x8_x7>
    1dfc:	00001dec          	.word	0x00001dec
    1e00:	0000c062          	.word	0x0000c062
    1e04:	00498993          	addi	x19,x19,4

# Testcase cr_rs1_imm_edges (rs1 = 0x7ffffffe, imm = 1795)
  RVTEST_TESTDATA_LOAD_INT(x6, x17) # load rs1: x17 = 0x7ffffffe
    1e08:	00032883          	lw	x17,0(x6)
    1e0c:	00430313          	addi	x6,x6,4

00001e10 <I_slti_cg_cr_rs1_imm_edges_rs1val_0x7ffffffe_immval_0x703>:
I_slti_cg_cr_rs1_imm_edges_rs1val_0x7ffffffe_immval_0x703:
  slti x20, x17, 1795 # perform operation
    1e10:	7038aa13          	slti	x20,x17,1795
  # Check if x20 contains the expected result. x19 is the signature ptr, x8 is the link ptr, x7 is a temp reg.
  RVTEST_SIGUPD(x19, x8, x7, x20, I_slti_cg_cr_rs1_imm_edges_rs1val_0x7ffffffe_immval_0x703, I_slti_cg_cr_rs1_imm_edges_rs1val_0x7ffffffe_immval_0x703_str)
    1e14:	0009a383          	lw	x7,0(x19)
    1e18:	01438863          	beq	x7,x20,1e28 <I_slti_cg_cr_rs1_imm_edges_rs1val_0x7ffffffe_immval_0x703+0x18>
    1e1c:	6980146f          	jal	x8,34b4 <failedtest_x8_x7>
    1e20:	00001e10          	.word	0x00001e10
    1e24:	0000c0b9          	.word	0x0000c0b9
    1e28:	00498993          	addi	x19,x19,4

# Testcase cr_rs1_imm_edges (rs1 = 0x7ffffffe, imm = 2047)
  RVTEST_TESTDATA_LOAD_INT(x6, x16) # load rs1: x16 = 0x7ffffffe
    1e2c:	00032803          	lw	x16,0(x6)
    1e30:	00430313          	addi	x6,x6,4

00001e34 <I_slti_cg_cr_rs1_imm_edges_rs1val_0x7ffffffe_immval_0x7ff>:
I_slti_cg_cr_rs1_imm_edges_rs1val_0x7ffffffe_immval_0x7ff:
  slti x2, x16, 2047 # perform operation
    1e34:	7ff82113          	slti	x2,x16,2047
  # Check if x2 contains the expected result. x19 is the signature ptr, x8 is the link ptr, x7 is a temp reg.
  RVTEST_SIGUPD(x19, x8, x7, x2, I_slti_cg_cr_rs1_imm_edges_rs1val_0x7ffffffe_immval_0x7ff, I_slti_cg_cr_rs1_imm_edges_rs1val_0x7ffffffe_immval_0x7ff_str)
    1e38:	0009a383          	lw	x7,0(x19)
    1e3c:	00238863          	beq	x7,x2,1e4c <I_slti_cg_cr_rs1_imm_edges_rs1val_0x7ffffffe_immval_0x7ff+0x18>
    1e40:	6740146f          	jal	x8,34b4 <failedtest_x8_x7>
    1e44:	00001e34          	.word	0x00001e34
    1e48:	0000c110          	.word	0x0000c110
    1e4c:	00498993          	addi	x19,x19,4

# Testcase cr_rs1_imm_edges (rs1 = 0x7ffffffe, imm = -2048)
  RVTEST_TESTDATA_LOAD_INT(x6, x15) # load rs1: x15 = 0x7ffffffe
    1e50:	00032783          	lw	x15,0(x6)
    1e54:	00430313          	addi	x6,x6,4

00001e58 <I_slti_cg_cr_rs1_imm_edges_rs1val_0x7ffffffe_immval_m0x800>:
I_slti_cg_cr_rs1_imm_edges_rs1val_0x7ffffffe_immval_m0x800:
  slti x21, x15, -2048 # perform operation
    1e58:	8007aa93          	slti	x21,x15,-2048
  # Check if x21 contains the expected result. x19 is the signature ptr, x8 is the link ptr, x7 is a temp reg.
  RVTEST_SIGUPD(x19, x8, x7, x21, I_slti_cg_cr_rs1_imm_edges_rs1val_0x7ffffffe_immval_m0x800, I_slti_cg_cr_rs1_imm_edges_rs1val_0x7ffffffe_immval_m0x800_str)
    1e5c:	0009a383          	lw	x7,0(x19)
    1e60:	01538863          	beq	x7,x21,1e70 <I_slti_cg_cr_rs1_imm_edges_rs1val_0x7ffffffe_immval_m0x800+0x18>
    1e64:	6500146f          	jal	x8,34b4 <failedtest_x8_x7>
    1e68:	00001e58          	.word	0x00001e58
    1e6c:	0000c167          	.word	0x0000c167
    1e70:	00498993          	addi	x19,x19,4

# Testcase cr_rs1_imm_edges (rs1 = 0x7ffffffe, imm = -2047)
  RVTEST_TESTDATA_LOAD_INT(x6, x30) # load rs1: x30 = 0x7ffffffe
    1e74:	00032f03          	lw	x30,0(x6)
    1e78:	00430313          	addi	x6,x6,4

00001e7c <I_slti_cg_cr_rs1_imm_edges_rs1val_0x7ffffffe_immval_m0x7ff>:
I_slti_cg_cr_rs1_imm_edges_rs1val_0x7ffffffe_immval_m0x7ff:
  slti x3, x30, -2047 # perform operation
    1e7c:	801f2193          	slti	x3,x30,-2047
  # Check if x3 contains the expected result. x19 is the signature ptr, x8 is the link ptr, x7 is a temp reg.
  RVTEST_SIGUPD(x19, x8, x7, x3, I_slti_cg_cr_rs1_imm_edges_rs1val_0x7ffffffe_immval_m0x7ff, I_slti_cg_cr_rs1_imm_edges_rs1val_0x7ffffffe_immval_m0x7ff_str)
    1e80:	0009a383          	lw	x7,0(x19)
    1e84:	00338863          	beq	x7,x3,1e94 <I_slti_cg_cr_rs1_imm_edges_rs1val_0x7ffffffe_immval_m0x7ff+0x18>
    1e88:	62c0146f          	jal	x8,34b4 <failedtest_x8_x7>
    1e8c:	00001e7c          	.word	0x00001e7c
    1e90:	0000c1bf          	.word	0x0000c1bf
    1e94:	00498993          	addi	x19,x19,4

# Testcase cr_rs1_imm_edges (rs1 = 0x7ffffffe, imm = -2)
  RVTEST_TESTDATA_LOAD_INT(x6, x12) # load rs1: x12 = 0x7ffffffe
    1e98:	00032603          	lw	x12,0(x6)
    1e9c:	00430313          	addi	x6,x6,4

00001ea0 <I_slti_cg_cr_rs1_imm_edges_rs1val_0x7ffffffe_immval_m0x2>:
I_slti_cg_cr_rs1_imm_edges_rs1val_0x7ffffffe_immval_m0x2:
  slti x30, x12, -2 # perform operation
    1ea0:	ffe62f13          	slti	x30,x12,-2
  # Check if x30 contains the expected result. x19 is the signature ptr, x8 is the link ptr, x7 is a temp reg.
  RVTEST_SIGUPD(x19, x8, x7, x30, I_slti_cg_cr_rs1_imm_edges_rs1val_0x7ffffffe_immval_m0x2, I_slti_cg_cr_rs1_imm_edges_rs1val_0x7ffffffe_immval_m0x2_str)
    1ea4:	0009a383          	lw	x7,0(x19)
    1ea8:	01e38863          	beq	x7,x30,1eb8 <I_slti_cg_cr_rs1_imm_edges_rs1val_0x7ffffffe_immval_m0x2+0x18>
    1eac:	6080146f          	jal	x8,34b4 <failedtest_x8_x7>
    1eb0:	00001ea0          	.word	0x00001ea0
    1eb4:	0000c217          	.word	0x0000c217
    1eb8:	00498993          	addi	x19,x19,4

# Testcase cr_rs1_imm_edges (rs1 = 0x7ffffffe, imm = -1)
  RVTEST_TESTDATA_LOAD_INT(x6, x10) # load rs1: x10 = 0x7ffffffe
    1ebc:	00032503          	lw	x10,0(x6)
    1ec0:	00430313          	addi	x6,x6,4

00001ec4 <I_slti_cg_cr_rs1_imm_edges_rs1val_0x7ffffffe_immval_m0x1>:
I_slti_cg_cr_rs1_imm_edges_rs1val_0x7ffffffe_immval_m0x1:
  slti x18, x10, -1 # perform operation
    1ec4:	fff52913          	slti	x18,x10,-1
  # Check if x18 contains the expected result. x19 is the signature ptr, x8 is the link ptr, x7 is a temp reg.
  RVTEST_SIGUPD(x19, x8, x7, x18, I_slti_cg_cr_rs1_imm_edges_rs1val_0x7ffffffe_immval_m0x1, I_slti_cg_cr_rs1_imm_edges_rs1val_0x7ffffffe_immval_m0x1_str)
    1ec8:	0009a383          	lw	x7,0(x19)
    1ecc:	01238863          	beq	x7,x18,1edc <I_slti_cg_cr_rs1_imm_edges_rs1val_0x7ffffffe_immval_m0x1+0x18>
    1ed0:	5e40146f          	jal	x8,34b4 <failedtest_x8_x7>
    1ed4:	00001ec4          	.word	0x00001ec4
    1ed8:	0000c26d          	.word	0x0000c26d
    1edc:	00498993          	addi	x19,x19,4

# Testcase cr_rs1_imm_edges (rs1 = 0xffffffff, imm = 0)
  RVTEST_TESTDATA_LOAD_INT(x6, x29) # load rs1: x29 = 0xffffffff
    1ee0:	00032e83          	lw	x29,0(x6)
    1ee4:	00430313          	addi	x6,x6,4

00001ee8 <I_slti_cg_cr_rs1_imm_edges_rs1val_0xffffffff_immval_0x0>:
I_slti_cg_cr_rs1_imm_edges_rs1val_0xffffffff_immval_0x0:
  slti x24, x29, 0 # perform operation
    1ee8:	000eac13          	slti	x24,x29,0
  # Check if x24 contains the expected result. x19 is the signature ptr, x8 is the link ptr, x7 is a temp reg.
  RVTEST_SIGUPD(x19, x8, x7, x24, I_slti_cg_cr_rs1_imm_edges_rs1val_0xffffffff_immval_0x0, I_slti_cg_cr_rs1_imm_edges_rs1val_0xffffffff_immval_0x0_str)
    1eec:	0009a383          	lw	x7,0(x19)
    1ef0:	01838863          	beq	x7,x24,1f00 <I_slti_cg_cr_rs1_imm_edges_rs1val_0xffffffff_immval_0x0+0x18>
    1ef4:	5c00146f          	jal	x8,34b4 <failedtest_x8_x7>
    1ef8:	00001ee8          	.word	0x00001ee8
    1efc:	0000c2c3          	.word	0x0000c2c3
    1f00:	00498993          	addi	x19,x19,4

# Testcase cr_rs1_imm_edges (rs1 = 0xffffffff, imm = 1)
  RVTEST_TESTDATA_LOAD_INT(x6, x22) # load rs1: x22 = 0xffffffff
    1f04:	00032b03          	lw	x22,0(x6)
    1f08:	00430313          	addi	x6,x6,4

00001f0c <I_slti_cg_cr_rs1_imm_edges_rs1val_0xffffffff_immval_0x1>:
I_slti_cg_cr_rs1_imm_edges_rs1val_0xffffffff_immval_0x1:
  slti x27, x22, 1 # perform operation
    1f0c:	001b2d93          	slti	x27,x22,1
  # Check if x27 contains the expected result. x19 is the signature ptr, x8 is the link ptr, x7 is a temp reg.
  RVTEST_SIGUPD(x19, x8, x7, x27, I_slti_cg_cr_rs1_imm_edges_rs1val_0xffffffff_immval_0x1, I_slti_cg_cr_rs1_imm_edges_rs1val_0xffffffff_immval_0x1_str)
    1f10:	0009a383          	lw	x7,0(x19)
    1f14:	01b38863          	beq	x7,x27,1f24 <I_slti_cg_cr_rs1_imm_edges_rs1val_0xffffffff_immval_0x1+0x18>
    1f18:	59c0146f          	jal	x8,34b4 <failedtest_x8_x7>
    1f1c:	00001f0c          	.word	0x00001f0c
    1f20:	0000c318          	.word	0x0000c318
    1f24:	00498993          	addi	x19,x19,4

# Testcase cr_rs1_imm_edges (rs1 = 0xffffffff, imm = 2)
  RVTEST_TESTDATA_LOAD_INT(x6, x9) # load rs1: x9 = 0xffffffff
    1f28:	00032483          	lw	x9,0(x6)
    1f2c:	00430313          	addi	x6,x6,4

00001f30 <I_slti_cg_cr_rs1_imm_edges_rs1val_0xffffffff_immval_0x2>:
I_slti_cg_cr_rs1_imm_edges_rs1val_0xffffffff_immval_0x2:
  slti x21, x9, 2 # perform operation
    1f30:	0024aa93          	slti	x21,x9,2
  # Check if x21 contains the expected result. x19 is the signature ptr, x8 is the link ptr, x7 is a temp reg.
  RVTEST_SIGUPD(x19, x8, x7, x21, I_slti_cg_cr_rs1_imm_edges_rs1val_0xffffffff_immval_0x2, I_slti_cg_cr_rs1_imm_edges_rs1val_0xffffffff_immval_0x2_str)
    1f34:	0009a383          	lw	x7,0(x19)
    1f38:	01538863          	beq	x7,x21,1f48 <I_slti_cg_cr_rs1_imm_edges_rs1val_0xffffffff_immval_0x2+0x18>
    1f3c:	5780146f          	jal	x8,34b4 <failedtest_x8_x7>
    1f40:	00001f30          	.word	0x00001f30
    1f44:	0000c36d          	.word	0x0000c36d
    1f48:	00498993          	addi	x19,x19,4

# Testcase cr_rs1_imm_edges (rs1 = 0xffffffff, imm = 3)
  RVTEST_TESTDATA_LOAD_INT(x6, x29) # load rs1: x29 = 0xffffffff
    1f4c:	00032e83          	lw	x29,0(x6)
    1f50:	00430313          	addi	x6,x6,4

00001f54 <I_slti_cg_cr_rs1_imm_edges_rs1val_0xffffffff_immval_0x3>:
I_slti_cg_cr_rs1_imm_edges_rs1val_0xffffffff_immval_0x3:
  slti x15, x29, 3 # perform operation
    1f54:	003ea793          	slti	x15,x29,3
  # Check if x15 contains the expected result. x19 is the signature ptr, x8 is the link ptr, x7 is a temp reg.
  RVTEST_SIGUPD(x19, x8, x7, x15, I_slti_cg_cr_rs1_imm_edges_rs1val_0xffffffff_immval_0x3, I_slti_cg_cr_rs1_imm_edges_rs1val_0xffffffff_immval_0x3_str)
    1f58:	0009a383          	lw	x7,0(x19)
    1f5c:	00f38863          	beq	x7,x15,1f6c <I_slti_cg_cr_rs1_imm_edges_rs1val_0xffffffff_immval_0x3+0x18>
    1f60:	5540146f          	jal	x8,34b4 <failedtest_x8_x7>
    1f64:	00001f54          	.word	0x00001f54
    1f68:	0000c3c2          	.word	0x0000c3c2
    1f6c:	00498993          	addi	x19,x19,4

# Testcase cr_rs1_imm_edges (rs1 = 0xffffffff, imm = 4)
  RVTEST_TESTDATA_LOAD_INT(x6, x30) # load rs1: x30 = 0xffffffff
    1f70:	00032f03          	lw	x30,0(x6)
    1f74:	00430313          	addi	x6,x6,4

00001f78 <I_slti_cg_cr_rs1_imm_edges_rs1val_0xffffffff_immval_0x4>:
I_slti_cg_cr_rs1_imm_edges_rs1val_0xffffffff_immval_0x4:
  slti x11, x30, 4 # perform operation
    1f78:	004f2593          	slti	x11,x30,4
  # Check if x11 contains the expected result. x19 is the signature ptr, x8 is the link ptr, x7 is a temp reg.
  RVTEST_SIGUPD(x19, x8, x7, x11, I_slti_cg_cr_rs1_imm_edges_rs1val_0xffffffff_immval_0x4, I_slti_cg_cr_rs1_imm_edges_rs1val_0xffffffff_immval_0x4_str)
    1f7c:	0009a383          	lw	x7,0(x19)
    1f80:	00b38863          	beq	x7,x11,1f90 <I_slti_cg_cr_rs1_imm_edges_rs1val_0xffffffff_immval_0x4+0x18>
    1f84:	5300146f          	jal	x8,34b4 <failedtest_x8_x7>
    1f88:	00001f78          	.word	0x00001f78
    1f8c:	0000c417          	.word	0x0000c417
    1f90:	00498993          	addi	x19,x19,4

# Testcase cr_rs1_imm_edges (rs1 = 0xffffffff, imm = 8)
  RVTEST_TESTDATA_LOAD_INT(x6, x21) # load rs1: x21 = 0xffffffff
    1f94:	00032a83          	lw	x21,0(x6)
    1f98:	00430313          	addi	x6,x6,4

00001f9c <I_slti_cg_cr_rs1_imm_edges_rs1val_0xffffffff_immval_0x8>:
I_slti_cg_cr_rs1_imm_edges_rs1val_0xffffffff_immval_0x8:
  slti x9, x21, 8 # perform operation
    1f9c:	008aa493          	slti	x9,x21,8
  # Check if x9 contains the expected result. x19 is the signature ptr, x8 is the link ptr, x7 is a temp reg.
  RVTEST_SIGUPD(x19, x8, x7, x9, I_slti_cg_cr_rs1_imm_edges_rs1val_0xffffffff_immval_0x8, I_slti_cg_cr_rs1_imm_edges_rs1val_0xffffffff_immval_0x8_str)
    1fa0:	0009a383          	lw	x7,0(x19)
    1fa4:	00938863          	beq	x7,x9,1fb4 <I_slti_cg_cr_rs1_imm_edges_rs1val_0xffffffff_immval_0x8+0x18>
    1fa8:	50c0146f          	jal	x8,34b4 <failedtest_x8_x7>
    1fac:	00001f9c          	.word	0x00001f9c
    1fb0:	0000c46c          	.word	0x0000c46c
    1fb4:	00498993          	addi	x19,x19,4

# Testcase cr_rs1_imm_edges (rs1 = 0xffffffff, imm = 16)
  RVTEST_TESTDATA_LOAD_INT(x6, x4) # load rs1: x4 = 0xffffffff
    1fb8:	00032203          	lw	x4,0(x6)
    1fbc:	00430313          	addi	x6,x6,4

00001fc0 <I_slti_cg_cr_rs1_imm_edges_rs1val_0xffffffff_immval_0x10>:
I_slti_cg_cr_rs1_imm_edges_rs1val_0xffffffff_immval_0x10:
  slti x12, x4, 16 # perform operation
    1fc0:	01022613          	slti	x12,x4,16
  # Check if x12 contains the expected result. x19 is the signature ptr, x8 is the link ptr, x7 is a temp reg.
  RVTEST_SIGUPD(x19, x8, x7, x12, I_slti_cg_cr_rs1_imm_edges_rs1val_0xffffffff_immval_0x10, I_slti_cg_cr_rs1_imm_edges_rs1val_0xffffffff_immval_0x10_str)
    1fc4:	0009a383          	lw	x7,0(x19)
    1fc8:	00c38863          	beq	x7,x12,1fd8 <I_slti_cg_cr_rs1_imm_edges_rs1val_0xffffffff_immval_0x10+0x18>
    1fcc:	4e80146f          	jal	x8,34b4 <failedtest_x8_x7>
    1fd0:	00001fc0          	.word	0x00001fc0
    1fd4:	0000c4c1          	.word	0x0000c4c1
    1fd8:	00498993          	addi	x19,x19,4

# Testcase cr_rs1_imm_edges (rs1 = 0xffffffff, imm = 32)
  RVTEST_TESTDATA_LOAD_INT(x6, x29) # load rs1: x29 = 0xffffffff
    1fdc:	00032e83          	lw	x29,0(x6)
    1fe0:	00430313          	addi	x6,x6,4

00001fe4 <I_slti_cg_cr_rs1_imm_edges_rs1val_0xffffffff_immval_0x20>:
I_slti_cg_cr_rs1_imm_edges_rs1val_0xffffffff_immval_0x20:
  slti x18, x29, 32 # perform operation
    1fe4:	020ea913          	slti	x18,x29,32
  # Check if x18 contains the expected result. x19 is the signature ptr, x8 is the link ptr, x7 is a temp reg.
  RVTEST_SIGUPD(x19, x8, x7, x18, I_slti_cg_cr_rs1_imm_edges_rs1val_0xffffffff_immval_0x20, I_slti_cg_cr_rs1_imm_edges_rs1val_0xffffffff_immval_0x20_str)
    1fe8:	0009a383          	lw	x7,0(x19)
    1fec:	01238863          	beq	x7,x18,1ffc <I_slti_cg_cr_rs1_imm_edges_rs1val_0xffffffff_immval_0x20+0x18>
    1ff0:	4c40146f          	jal	x8,34b4 <failedtest_x8_x7>
    1ff4:	00001fe4          	.word	0x00001fe4
    1ff8:	0000c517          	.word	0x0000c517
    1ffc:	00498993          	addi	x19,x19,4

# Testcase cr_rs1_imm_edges (rs1 = 0xffffffff, imm = 64)
  RVTEST_TESTDATA_LOAD_INT(x6, x23) # load rs1: x23 = 0xffffffff
    2000:	00032b83          	lw	x23,0(x6)
    2004:	00430313          	addi	x6,x6,4

00002008 <I_slti_cg_cr_rs1_imm_edges_rs1val_0xffffffff_immval_0x40>:
I_slti_cg_cr_rs1_imm_edges_rs1val_0xffffffff_immval_0x40:
  slti x16, x23, 64 # perform operation
    2008:	040ba813          	slti	x16,x23,64
  # Check if x16 contains the expected result. x19 is the signature ptr, x8 is the link ptr, x7 is a temp reg.
  RVTEST_SIGUPD(x19, x8, x7, x16, I_slti_cg_cr_rs1_imm_edges_rs1val_0xffffffff_immval_0x40, I_slti_cg_cr_rs1_imm_edges_rs1val_0xffffffff_immval_0x40_str)
    200c:	0009a383          	lw	x7,0(x19)
    2010:	01038863          	beq	x7,x16,2020 <I_slti_cg_cr_rs1_imm_edges_rs1val_0xffffffff_immval_0x40+0x18>
    2014:	4a00146f          	jal	x8,34b4 <failedtest_x8_x7>
    2018:	00002008          	.word	0x00002008
    201c:	0000c56d          	.word	0x0000c56d
    2020:	00498993          	addi	x19,x19,4

# Testcase cr_rs1_imm_edges (rs1 = 0xffffffff, imm = 128)
  RVTEST_TESTDATA_LOAD_INT(x6, x23) # load rs1: x23 = 0xffffffff
    2024:	00032b83          	lw	x23,0(x6)
    2028:	00430313          	addi	x6,x6,4

0000202c <I_slti_cg_cr_rs1_imm_edges_rs1val_0xffffffff_immval_0x80>:
I_slti_cg_cr_rs1_imm_edges_rs1val_0xffffffff_immval_0x80:
  slti x22, x23, 128 # perform operation
    202c:	080bab13          	slti	x22,x23,128
  # Check if x22 contains the expected result. x19 is the signature ptr, x8 is the link ptr, x7 is a temp reg.
  RVTEST_SIGUPD(x19, x8, x7, x22, I_slti_cg_cr_rs1_imm_edges_rs1val_0xffffffff_immval_0x80, I_slti_cg_cr_rs1_imm_edges_rs1val_0xffffffff_immval_0x80_str)
    2030:	0009a383          	lw	x7,0(x19)
    2034:	01638863          	beq	x7,x22,2044 <I_slti_cg_cr_rs1_imm_edges_rs1val_0xffffffff_immval_0x80+0x18>
    2038:	47c0146f          	jal	x8,34b4 <failedtest_x8_x7>
    203c:	0000202c          	.word	0x0000202c
    2040:	0000c5c3          	.word	0x0000c5c3
    2044:	00498993          	addi	x19,x19,4

# Testcase cr_rs1_imm_edges (rs1 = 0xffffffff, imm = 256)
  RVTEST_TESTDATA_LOAD_INT(x6, x16) # load rs1: x16 = 0xffffffff
    2048:	00032803          	lw	x16,0(x6)
    204c:	00430313          	addi	x6,x6,4

00002050 <I_slti_cg_cr_rs1_imm_edges_rs1val_0xffffffff_immval_0x100>:
I_slti_cg_cr_rs1_imm_edges_rs1val_0xffffffff_immval_0x100:
  slti x5, x16, 256 # perform operation
    2050:	10082293          	slti	x5,x16,256
  # Check if x5 contains the expected result. x19 is the signature ptr, x8 is the link ptr, x7 is a temp reg.
  RVTEST_SIGUPD(x19, x8, x7, x5, I_slti_cg_cr_rs1_imm_edges_rs1val_0xffffffff_immval_0x100, I_slti_cg_cr_rs1_imm_edges_rs1val_0xffffffff_immval_0x100_str)
    2054:	0009a383          	lw	x7,0(x19)
    2058:	00538863          	beq	x7,x5,2068 <I_slti_cg_cr_rs1_imm_edges_rs1val_0xffffffff_immval_0x100+0x18>
    205c:	4580146f          	jal	x8,34b4 <failedtest_x8_x7>
    2060:	00002050          	.word	0x00002050
    2064:	0000c619          	.word	0x0000c619
    2068:	00498993          	addi	x19,x19,4

# Testcase cr_rs1_imm_edges (rs1 = 0xffffffff, imm = 512)
  RVTEST_TESTDATA_LOAD_INT(x6, x2) # load rs1: x2 = 0xffffffff
    206c:	00032103          	lw	x2,0(x6)
    2070:	00430313          	addi	x6,x6,4

00002074 <I_slti_cg_cr_rs1_imm_edges_rs1val_0xffffffff_immval_0x200>:
I_slti_cg_cr_rs1_imm_edges_rs1val_0xffffffff_immval_0x200:
  slti x1, x2, 512 # perform operation
    2074:	20012093          	slti	x1,x2,512
  # Check if x1 contains the expected result. x19 is the signature ptr, x8 is the link ptr, x7 is a temp reg.
  RVTEST_SIGUPD(x19, x8, x7, x1, I_slti_cg_cr_rs1_imm_edges_rs1val_0xffffffff_immval_0x200, I_slti_cg_cr_rs1_imm_edges_rs1val_0xffffffff_immval_0x200_str)
    2078:	0009a383          	lw	x7,0(x19)
    207c:	00138863          	beq	x7,x1,208c <I_slti_cg_cr_rs1_imm_edges_rs1val_0xffffffff_immval_0x200+0x18>
    2080:	4340146f          	jal	x8,34b4 <failedtest_x8_x7>
    2084:	00002074          	.word	0x00002074
    2088:	0000c670          	.word	0x0000c670
    208c:	00498993          	addi	x19,x19,4

# Testcase cr_rs1_imm_edges (rs1 = 0xffffffff, imm = 1023)
  RVTEST_TESTDATA_LOAD_INT(x6, x4) # load rs1: x4 = 0xffffffff
    2090:	00032203          	lw	x4,0(x6)
    2094:	00430313          	addi	x6,x6,4

00002098 <I_slti_cg_cr_rs1_imm_edges_rs1val_0xffffffff_immval_0x3ff>:
I_slti_cg_cr_rs1_imm_edges_rs1val_0xffffffff_immval_0x3ff:
  slti x21, x4, 1023 # perform operation
    2098:	3ff22a93          	slti	x21,x4,1023
  # Check if x21 contains the expected result. x19 is the signature ptr, x8 is the link ptr, x7 is a temp reg.
  RVTEST_SIGUPD(x19, x8, x7, x21, I_slti_cg_cr_rs1_imm_edges_rs1val_0xffffffff_immval_0x3ff, I_slti_cg_cr_rs1_imm_edges_rs1val_0xffffffff_immval_0x3ff_str)
    209c:	0009a383          	lw	x7,0(x19)
    20a0:	01538863          	beq	x7,x21,20b0 <I_slti_cg_cr_rs1_imm_edges_rs1val_0xffffffff_immval_0x3ff+0x18>
    20a4:	4100146f          	jal	x8,34b4 <failedtest_x8_x7>
    20a8:	00002098          	.word	0x00002098
    20ac:	0000c6c7          	.word	0x0000c6c7
    20b0:	00498993          	addi	x19,x19,4

# Testcase cr_rs1_imm_edges (rs1 = 0xffffffff, imm = 1024)
  RVTEST_TESTDATA_LOAD_INT(x6, x22) # load rs1: x22 = 0xffffffff
    20b4:	00032b03          	lw	x22,0(x6)
    20b8:	00430313          	addi	x6,x6,4

000020bc <I_slti_cg_cr_rs1_imm_edges_rs1val_0xffffffff_immval_0x400>:
I_slti_cg_cr_rs1_imm_edges_rs1val_0xffffffff_immval_0x400:
  slti x10, x22, 1024 # perform operation
    20bc:	400b2513          	slti	x10,x22,1024
  # Check if x10 contains the expected result. x19 is the signature ptr, x8 is the link ptr, x7 is a temp reg.
  RVTEST_SIGUPD(x19, x8, x7, x10, I_slti_cg_cr_rs1_imm_edges_rs1val_0xffffffff_immval_0x400, I_slti_cg_cr_rs1_imm_edges_rs1val_0xffffffff_immval_0x400_str)
    20c0:	0009a383          	lw	x7,0(x19)
    20c4:	00a38863          	beq	x7,x10,20d4 <I_slti_cg_cr_rs1_imm_edges_rs1val_0xffffffff_immval_0x400+0x18>
    20c8:	3ec0146f          	jal	x8,34b4 <failedtest_x8_x7>
    20cc:	000020bc          	.word	0x000020bc
    20d0:	0000c71e          	.word	0x0000c71e
    20d4:	00498993          	addi	x19,x19,4

# Testcase cr_rs1_imm_edges (rs1 = 0xffffffff, imm = 1795)
  RVTEST_TESTDATA_LOAD_INT(x6, x2) # load rs1: x2 = 0xffffffff
    20d8:	00032103          	lw	x2,0(x6)
    20dc:	00430313          	addi	x6,x6,4

000020e0 <I_slti_cg_cr_rs1_imm_edges_rs1val_0xffffffff_immval_0x703>:
I_slti_cg_cr_rs1_imm_edges_rs1val_0xffffffff_immval_0x703:
  slti x30, x2, 1795 # perform operation
    20e0:	70312f13          	slti	x30,x2,1795
  # Check if x30 contains the expected result. x19 is the signature ptr, x8 is the link ptr, x7 is a temp reg.
  RVTEST_SIGUPD(x19, x8, x7, x30, I_slti_cg_cr_rs1_imm_edges_rs1val_0xffffffff_immval_0x703, I_slti_cg_cr_rs1_imm_edges_rs1val_0xffffffff_immval_0x703_str)
    20e4:	0009a383          	lw	x7,0(x19)
    20e8:	01e38863          	beq	x7,x30,20f8 <I_slti_cg_cr_rs1_imm_edges_rs1val_0xffffffff_immval_0x703+0x18>
    20ec:	3c80146f          	jal	x8,34b4 <failedtest_x8_x7>
    20f0:	000020e0          	.word	0x000020e0
    20f4:	0000c775          	.word	0x0000c775
    20f8:	00498993          	addi	x19,x19,4

# Testcase cr_rs1_imm_edges (rs1 = 0xffffffff, imm = 2047)
  RVTEST_TESTDATA_LOAD_INT(x6, x15) # load rs1: x15 = 0xffffffff
    20fc:	00032783          	lw	x15,0(x6)
    2100:	00430313          	addi	x6,x6,4

00002104 <I_slti_cg_cr_rs1_imm_edges_rs1val_0xffffffff_immval_0x7ff>:
I_slti_cg_cr_rs1_imm_edges_rs1val_0xffffffff_immval_0x7ff:
  slti x23, x15, 2047 # perform operation
    2104:	7ff7ab93          	slti	x23,x15,2047
  # Check if x23 contains the expected result. x19 is the signature ptr, x8 is the link ptr, x7 is a temp reg.
  RVTEST_SIGUPD(x19, x8, x7, x23, I_slti_cg_cr_rs1_imm_edges_rs1val_0xffffffff_immval_0x7ff, I_slti_cg_cr_rs1_imm_edges_rs1val_0xffffffff_immval_0x7ff_str)
    2108:	0009a383          	lw	x7,0(x19)
    210c:	01738863          	beq	x7,x23,211c <I_slti_cg_cr_rs1_imm_edges_rs1val_0xffffffff_immval_0x7ff+0x18>
    2110:	3a40146f          	jal	x8,34b4 <failedtest_x8_x7>
    2114:	00002104          	.word	0x00002104
    2118:	0000c7cc          	.word	0x0000c7cc
    211c:	00498993          	addi	x19,x19,4

# Testcase cr_rs1_imm_edges (rs1 = 0xffffffff, imm = -2048)
  RVTEST_TESTDATA_LOAD_INT(x6, x16) # load rs1: x16 = 0xffffffff
    2120:	00032803          	lw	x16,0(x6)
    2124:	00430313          	addi	x6,x6,4

00002128 <I_slti_cg_cr_rs1_imm_edges_rs1val_0xffffffff_immval_m0x800>:
I_slti_cg_cr_rs1_imm_edges_rs1val_0xffffffff_immval_m0x800:
  slti x12, x16, -2048 # perform operation
    2128:	80082613          	slti	x12,x16,-2048
  # Check if x12 contains the expected result. x19 is the signature ptr, x8 is the link ptr, x7 is a temp reg.
  RVTEST_SIGUPD(x19, x8, x7, x12, I_slti_cg_cr_rs1_imm_edges_rs1val_0xffffffff_immval_m0x800, I_slti_cg_cr_rs1_imm_edges_rs1val_0xffffffff_immval_m0x800_str)
    212c:	0009a383          	lw	x7,0(x19)
    2130:	00c38863          	beq	x7,x12,2140 <I_slti_cg_cr_rs1_imm_edges_rs1val_0xffffffff_immval_m0x800+0x18>
    2134:	3800146f          	jal	x8,34b4 <failedtest_x8_x7>
    2138:	00002128          	.word	0x00002128
    213c:	0000c823          	.word	0x0000c823
    2140:	00498993          	addi	x19,x19,4

# Testcase cr_rs1_imm_edges (rs1 = 0xffffffff, imm = -2047)
  RVTEST_TESTDATA_LOAD_INT(x6, x1) # load rs1: x1 = 0xffffffff
    2144:	00032083          	lw	x1,0(x6)
    2148:	00430313          	addi	x6,x6,4

0000214c <I_slti_cg_cr_rs1_imm_edges_rs1val_0xffffffff_immval_m0x7ff>:
I_slti_cg_cr_rs1_imm_edges_rs1val_0xffffffff_immval_m0x7ff:
  slti x20, x1, -2047 # perform operation
    214c:	8010aa13          	slti	x20,x1,-2047
  # Check if x20 contains the expected result. x19 is the signature ptr, x8 is the link ptr, x7 is a temp reg.
  RVTEST_SIGUPD(x19, x8, x7, x20, I_slti_cg_cr_rs1_imm_edges_rs1val_0xffffffff_immval_m0x7ff, I_slti_cg_cr_rs1_imm_edges_rs1val_0xffffffff_immval_m0x7ff_str)
    2150:	0009a383          	lw	x7,0(x19)
    2154:	01438863          	beq	x7,x20,2164 <I_slti_cg_cr_rs1_imm_edges_rs1val_0xffffffff_immval_m0x7ff+0x18>
    2158:	35c0146f          	jal	x8,34b4 <failedtest_x8_x7>
    215c:	0000214c          	.word	0x0000214c
    2160:	0000c87b          	.word	0x0000c87b
    2164:	00498993          	addi	x19,x19,4

# Testcase cr_rs1_imm_edges (rs1 = 0xffffffff, imm = -2)
  RVTEST_TESTDATA_LOAD_INT(x6, x24) # load rs1: x24 = 0xffffffff
    2168:	00032c03          	lw	x24,0(x6)
    216c:	00430313          	addi	x6,x6,4

00002170 <I_slti_cg_cr_rs1_imm_edges_rs1val_0xffffffff_immval_m0x2>:
I_slti_cg_cr_rs1_imm_edges_rs1val_0xffffffff_immval_m0x2:
  slti x17, x24, -2 # perform operation
    2170:	ffec2893          	slti	x17,x24,-2
  # Check if x17 contains the expected result. x19 is the signature ptr, x8 is the link ptr, x7 is a temp reg.
  RVTEST_SIGUPD(x19, x8, x7, x17, I_slti_cg_cr_rs1_imm_edges_rs1val_0xffffffff_immval_m0x2, I_slti_cg_cr_rs1_imm_edges_rs1val_0xffffffff_immval_m0x2_str)
    2174:	0009a383          	lw	x7,0(x19)
    2178:	01138863          	beq	x7,x17,2188 <I_slti_cg_cr_rs1_imm_edges_rs1val_0xffffffff_immval_m0x2+0x18>
    217c:	3380146f          	jal	x8,34b4 <failedtest_x8_x7>
    2180:	00002170          	.word	0x00002170
    2184:	0000c8d3          	.word	0x0000c8d3
    2188:	00498993          	addi	x19,x19,4

# Testcase cr_rs1_imm_edges (rs1 = 0xffffffff, imm = -1)
  RVTEST_TESTDATA_LOAD_INT(x6, x20) # load rs1: x20 = 0xffffffff
    218c:	00032a03          	lw	x20,0(x6)
    2190:	00430313          	addi	x6,x6,4

00002194 <I_slti_cg_cr_rs1_imm_edges_rs1val_0xffffffff_immval_m0x1>:
I_slti_cg_cr_rs1_imm_edges_rs1val_0xffffffff_immval_m0x1:
  slti x28, x20, -1 # perform operation
    2194:	fffa2e13          	slti	x28,x20,-1
  # Check if x28 contains the expected result. x19 is the signature ptr, x8 is the link ptr, x7 is a temp reg.
  RVTEST_SIGUPD(x19, x8, x7, x28, I_slti_cg_cr_rs1_imm_edges_rs1val_0xffffffff_immval_m0x1, I_slti_cg_cr_rs1_imm_edges_rs1val_0xffffffff_immval_m0x1_str)
    2198:	0009a383          	lw	x7,0(x19)
    219c:	01c38863          	beq	x7,x28,21ac <I_slti_cg_cr_rs1_imm_edges_rs1val_0xffffffff_immval_m0x1+0x18>
    21a0:	3140146f          	jal	x8,34b4 <failedtest_x8_x7>
    21a4:	00002194          	.word	0x00002194
    21a8:	0000c929          	.word	0x0000c929
    21ac:	00498993          	addi	x19,x19,4

# Testcase cr_rs1_imm_edges (rs1 = 0xfffffffe, imm = 0)
  RVTEST_TESTDATA_LOAD_INT(x6, x28) # load rs1: x28 = 0xfffffffe
    21b0:	00032e03          	lw	x28,0(x6)
    21b4:	00430313          	addi	x6,x6,4

000021b8 <I_slti_cg_cr_rs1_imm_edges_rs1val_0xfffffffe_immval_0x0>:
I_slti_cg_cr_rs1_imm_edges_rs1val_0xfffffffe_immval_0x0:
  slti x2, x28, 0 # perform operation
    21b8:	000e2113          	slti	x2,x28,0
  # Check if x2 contains the expected result. x19 is the signature ptr, x8 is the link ptr, x7 is a temp reg.
  RVTEST_SIGUPD(x19, x8, x7, x2, I_slti_cg_cr_rs1_imm_edges_rs1val_0xfffffffe_immval_0x0, I_slti_cg_cr_rs1_imm_edges_rs1val_0xfffffffe_immval_0x0_str)
    21bc:	0009a383          	lw	x7,0(x19)
    21c0:	00238863          	beq	x7,x2,21d0 <I_slti_cg_cr_rs1_imm_edges_rs1val_0xfffffffe_immval_0x0+0x18>
    21c4:	2f00146f          	jal	x8,34b4 <failedtest_x8_x7>
    21c8:	000021b8          	.word	0x000021b8
    21cc:	0000c97f          	.word	0x0000c97f
    21d0:	00498993          	addi	x19,x19,4

# Testcase cr_rs1_imm_edges (rs1 = 0xfffffffe, imm = 1)
  RVTEST_TESTDATA_LOAD_INT(x6, x3) # load rs1: x3 = 0xfffffffe
    21d4:	00032183          	lw	x3,0(x6)
    21d8:	00430313          	addi	x6,x6,4

000021dc <I_slti_cg_cr_rs1_imm_edges_rs1val_0xfffffffe_immval_0x1>:
I_slti_cg_cr_rs1_imm_edges_rs1val_0xfffffffe_immval_0x1:
  slti x26, x3, 1 # perform operation
    21dc:	0011ad13          	slti	x26,x3,1
  # Check if x26 contains the expected result. x19 is the signature ptr, x8 is the link ptr, x7 is a temp reg.
  RVTEST_SIGUPD(x19, x8, x7, x26, I_slti_cg_cr_rs1_imm_edges_rs1val_0xfffffffe_immval_0x1, I_slti_cg_cr_rs1_imm_edges_rs1val_0xfffffffe_immval_0x1_str)
    21e0:	0009a383          	lw	x7,0(x19)
    21e4:	01a38863          	beq	x7,x26,21f4 <I_slti_cg_cr_rs1_imm_edges_rs1val_0xfffffffe_immval_0x1+0x18>
    21e8:	2cc0146f          	jal	x8,34b4 <failedtest_x8_x7>
    21ec:	000021dc          	.word	0x000021dc
    21f0:	0000c9d4          	.word	0x0000c9d4
    21f4:	00498993          	addi	x19,x19,4

# Testcase cr_rs1_imm_edges (rs1 = 0xfffffffe, imm = 2)
  RVTEST_TESTDATA_LOAD_INT(x6, x27) # load rs1: x27 = 0xfffffffe
    21f8:	00032d83          	lw	x27,0(x6)
    21fc:	00430313          	addi	x6,x6,4

00002200 <I_slti_cg_cr_rs1_imm_edges_rs1val_0xfffffffe_immval_0x2>:
I_slti_cg_cr_rs1_imm_edges_rs1val_0xfffffffe_immval_0x2:
  slti x31, x27, 2 # perform operation
    2200:	002daf93          	slti	x31,x27,2
  # Check if x31 contains the expected result. x19 is the signature ptr, x8 is the link ptr, x7 is a temp reg.
  RVTEST_SIGUPD(x19, x8, x7, x31, I_slti_cg_cr_rs1_imm_edges_rs1val_0xfffffffe_immval_0x2, I_slti_cg_cr_rs1_imm_edges_rs1val_0xfffffffe_immval_0x2_str)
    2204:	0009a383          	lw	x7,0(x19)
    2208:	01f38863          	beq	x7,x31,2218 <I_slti_cg_cr_rs1_imm_edges_rs1val_0xfffffffe_immval_0x2+0x18>
    220c:	2a80146f          	jal	x8,34b4 <failedtest_x8_x7>
    2210:	00002200          	.word	0x00002200
    2214:	0000ca29          	.word	0x0000ca29
    2218:	00498993          	addi	x19,x19,4

# Testcase cr_rs1_imm_edges (rs1 = 0xfffffffe, imm = 3)
  RVTEST_TESTDATA_LOAD_INT(x6, x12) # load rs1: x12 = 0xfffffffe
    221c:	00032603          	lw	x12,0(x6)
    2220:	00430313          	addi	x6,x6,4

00002224 <I_slti_cg_cr_rs1_imm_edges_rs1val_0xfffffffe_immval_0x3>:
I_slti_cg_cr_rs1_imm_edges_rs1val_0xfffffffe_immval_0x3:
  slti x5, x12, 3 # perform operation
    2224:	00362293          	slti	x5,x12,3
  # Check if x5 contains the expected result. x19 is the signature ptr, x8 is the link ptr, x7 is a temp reg.
  RVTEST_SIGUPD(x19, x8, x7, x5, I_slti_cg_cr_rs1_imm_edges_rs1val_0xfffffffe_immval_0x3, I_slti_cg_cr_rs1_imm_edges_rs1val_0xfffffffe_immval_0x3_str)
    2228:	0009a383          	lw	x7,0(x19)
    222c:	00538863          	beq	x7,x5,223c <I_slti_cg_cr_rs1_imm_edges_rs1val_0xfffffffe_immval_0x3+0x18>
    2230:	2840146f          	jal	x8,34b4 <failedtest_x8_x7>
    2234:	00002224          	.word	0x00002224
    2238:	0000ca7e          	.word	0x0000ca7e
    223c:	00498993          	addi	x19,x19,4

# Testcase cr_rs1_imm_edges (rs1 = 0xfffffffe, imm = 4)
  RVTEST_TESTDATA_LOAD_INT(x6, x15) # load rs1: x15 = 0xfffffffe
    2240:	00032783          	lw	x15,0(x6)
    2244:	00430313          	addi	x6,x6,4

00002248 <I_slti_cg_cr_rs1_imm_edges_rs1val_0xfffffffe_immval_0x4>:
I_slti_cg_cr_rs1_imm_edges_rs1val_0xfffffffe_immval_0x4:
  slti x9, x15, 4 # perform operation
    2248:	0047a493          	slti	x9,x15,4
  # Check if x9 contains the expected result. x19 is the signature ptr, x8 is the link ptr, x7 is a temp reg.
  RVTEST_SIGUPD(x19, x8, x7, x9, I_slti_cg_cr_rs1_imm_edges_rs1val_0xfffffffe_immval_0x4, I_slti_cg_cr_rs1_imm_edges_rs1val_0xfffffffe_immval_0x4_str)
    224c:	0009a383          	lw	x7,0(x19)
    2250:	00938863          	beq	x7,x9,2260 <I_slti_cg_cr_rs1_imm_edges_rs1val_0xfffffffe_immval_0x4+0x18>
    2254:	2600146f          	jal	x8,34b4 <failedtest_x8_x7>
    2258:	00002248          	.word	0x00002248
    225c:	0000cad3          	.word	0x0000cad3
    2260:	00498993          	addi	x19,x19,4

# Testcase cr_rs1_imm_edges (rs1 = 0xfffffffe, imm = 8)
  RVTEST_TESTDATA_LOAD_INT(x6, x9) # load rs1: x9 = 0xfffffffe
    2264:	00032483          	lw	x9,0(x6)
    2268:	00430313          	addi	x6,x6,4

0000226c <I_slti_cg_cr_rs1_imm_edges_rs1val_0xfffffffe_immval_0x8>:
I_slti_cg_cr_rs1_imm_edges_rs1val_0xfffffffe_immval_0x8:
  slti x28, x9, 8 # perform operation
    226c:	0084ae13          	slti	x28,x9,8
  # Check if x28 contains the expected result. x19 is the signature ptr, x8 is the link ptr, x7 is a temp reg.
  RVTEST_SIGUPD(x19, x8, x7, x28, I_slti_cg_cr_rs1_imm_edges_rs1val_0xfffffffe_immval_0x8, I_slti_cg_cr_rs1_imm_edges_rs1val_0xfffffffe_immval_0x8_str)
    2270:	0009a383          	lw	x7,0(x19)
    2274:	01c38863          	beq	x7,x28,2284 <I_slti_cg_cr_rs1_imm_edges_rs1val_0xfffffffe_immval_0x8+0x18>
    2278:	23c0146f          	jal	x8,34b4 <failedtest_x8_x7>
    227c:	0000226c          	.word	0x0000226c
    2280:	0000cb28          	.word	0x0000cb28
    2284:	00498993          	addi	x19,x19,4

# Testcase cr_rs1_imm_edges (rs1 = 0xfffffffe, imm = 16)
  RVTEST_TESTDATA_LOAD_INT(x6, x12) # load rs1: x12 = 0xfffffffe
    2288:	00032603          	lw	x12,0(x6)
    228c:	00430313          	addi	x6,x6,4

00002290 <I_slti_cg_cr_rs1_imm_edges_rs1val_0xfffffffe_immval_0x10>:
I_slti_cg_cr_rs1_imm_edges_rs1val_0xfffffffe_immval_0x10:
  slti x1, x12, 16 # perform operation
    2290:	01062093          	slti	x1,x12,16
  # Check if x1 contains the expected result. x19 is the signature ptr, x8 is the link ptr, x7 is a temp reg.
  RVTEST_SIGUPD(x19, x8, x7, x1, I_slti_cg_cr_rs1_imm_edges_rs1val_0xfffffffe_immval_0x10, I_slti_cg_cr_rs1_imm_edges_rs1val_0xfffffffe_immval_0x10_str)
    2294:	0009a383          	lw	x7,0(x19)
    2298:	00138863          	beq	x7,x1,22a8 <I_slti_cg_cr_rs1_imm_edges_rs1val_0xfffffffe_immval_0x10+0x18>
    229c:	2180146f          	jal	x8,34b4 <failedtest_x8_x7>
    22a0:	00002290          	.word	0x00002290
    22a4:	0000cb7d          	.word	0x0000cb7d
    22a8:	00498993          	addi	x19,x19,4

# Testcase cr_rs1_imm_edges (rs1 = 0xfffffffe, imm = 32)
  RVTEST_TESTDATA_LOAD_INT(x6, x17) # load rs1: x17 = 0xfffffffe
    22ac:	00032883          	lw	x17,0(x6)
    22b0:	00430313          	addi	x6,x6,4

000022b4 <I_slti_cg_cr_rs1_imm_edges_rs1val_0xfffffffe_immval_0x20>:
I_slti_cg_cr_rs1_imm_edges_rs1val_0xfffffffe_immval_0x20:
  slti x15, x17, 32 # perform operation
    22b4:	0208a793          	slti	x15,x17,32
  # Check if x15 contains the expected result. x19 is the signature ptr, x8 is the link ptr, x7 is a temp reg.
  RVTEST_SIGUPD(x19, x8, x7, x15, I_slti_cg_cr_rs1_imm_edges_rs1val_0xfffffffe_immval_0x20, I_slti_cg_cr_rs1_imm_edges_rs1val_0xfffffffe_immval_0x20_str)
    22b8:	0009a383          	lw	x7,0(x19)
    22bc:	00f38863          	beq	x7,x15,22cc <I_slti_cg_cr_rs1_imm_edges_rs1val_0xfffffffe_immval_0x20+0x18>
    22c0:	1f40146f          	jal	x8,34b4 <failedtest_x8_x7>
    22c4:	000022b4          	.word	0x000022b4
    22c8:	0000cbd3          	.word	0x0000cbd3
    22cc:	00498993          	addi	x19,x19,4

# Testcase cr_rs1_imm_edges (rs1 = 0xfffffffe, imm = 64)
  RVTEST_TESTDATA_LOAD_INT(x6, x26) # load rs1: x26 = 0xfffffffe
    22d0:	00032d03          	lw	x26,0(x6)
    22d4:	00430313          	addi	x6,x6,4

000022d8 <I_slti_cg_cr_rs1_imm_edges_rs1val_0xfffffffe_immval_0x40>:
I_slti_cg_cr_rs1_imm_edges_rs1val_0xfffffffe_immval_0x40:
  slti x29, x26, 64 # perform operation
    22d8:	040d2e93          	slti	x29,x26,64
  # Check if x29 contains the expected result. x19 is the signature ptr, x8 is the link ptr, x7 is a temp reg.
  RVTEST_SIGUPD(x19, x8, x7, x29, I_slti_cg_cr_rs1_imm_edges_rs1val_0xfffffffe_immval_0x40, I_slti_cg_cr_rs1_imm_edges_rs1val_0xfffffffe_immval_0x40_str)
    22dc:	0009a383          	lw	x7,0(x19)
    22e0:	01d38863          	beq	x7,x29,22f0 <I_slti_cg_cr_rs1_imm_edges_rs1val_0xfffffffe_immval_0x40+0x18>
    22e4:	1d00146f          	jal	x8,34b4 <failedtest_x8_x7>
    22e8:	000022d8          	.word	0x000022d8
    22ec:	0000cc29          	.word	0x0000cc29
    22f0:	00498993          	addi	x19,x19,4

# Testcase cr_rs1_imm_edges (rs1 = 0xfffffffe, imm = 128)
  RVTEST_TESTDATA_LOAD_INT(x6, x16) # load rs1: x16 = 0xfffffffe
    22f4:	00032803          	lw	x16,0(x6)
    22f8:	00430313          	addi	x6,x6,4

000022fc <I_slti_cg_cr_rs1_imm_edges_rs1val_0xfffffffe_immval_0x80>:
I_slti_cg_cr_rs1_imm_edges_rs1val_0xfffffffe_immval_0x80:
  slti x22, x16, 128 # perform operation
    22fc:	08082b13          	slti	x22,x16,128
  # Check if x22 contains the expected result. x19 is the signature ptr, x8 is the link ptr, x7 is a temp reg.
  RVTEST_SIGUPD(x19, x8, x7, x22, I_slti_cg_cr_rs1_imm_edges_rs1val_0xfffffffe_immval_0x80, I_slti_cg_cr_rs1_imm_edges_rs1val_0xfffffffe_immval_0x80_str)
    2300:	0009a383          	lw	x7,0(x19)
    2304:	01638863          	beq	x7,x22,2314 <I_slti_cg_cr_rs1_imm_edges_rs1val_0xfffffffe_immval_0x80+0x18>
    2308:	1ac0146f          	jal	x8,34b4 <failedtest_x8_x7>
    230c:	000022fc          	.word	0x000022fc
    2310:	0000cc7f          	.word	0x0000cc7f
    2314:	00498993          	addi	x19,x19,4

# Testcase cr_rs1_imm_edges (rs1 = 0xfffffffe, imm = 256)
  RVTEST_TESTDATA_LOAD_INT(x6, x29) # load rs1: x29 = 0xfffffffe
    2318:	00032e83          	lw	x29,0(x6)
    231c:	00430313          	addi	x6,x6,4

00002320 <I_slti_cg_cr_rs1_imm_edges_rs1val_0xfffffffe_immval_0x100>:
I_slti_cg_cr_rs1_imm_edges_rs1val_0xfffffffe_immval_0x100:
  slti x23, x29, 256 # perform operation
    2320:	100eab93          	slti	x23,x29,256
  # Check if x23 contains the expected result. x19 is the signature ptr, x8 is the link ptr, x7 is a temp reg.
  RVTEST_SIGUPD(x19, x8, x7, x23, I_slti_cg_cr_rs1_imm_edges_rs1val_0xfffffffe_immval_0x100, I_slti_cg_cr_rs1_imm_edges_rs1val_0xfffffffe_immval_0x100_str)
    2324:	0009a383          	lw	x7,0(x19)
    2328:	01738863          	beq	x7,x23,2338 <I_slti_cg_cr_rs1_imm_edges_rs1val_0xfffffffe_immval_0x100+0x18>
    232c:	1880146f          	jal	x8,34b4 <failedtest_x8_x7>
    2330:	00002320          	.word	0x00002320
    2334:	0000ccd5          	.word	0x0000ccd5
    2338:	00498993          	addi	x19,x19,4

# Testcase cr_rs1_imm_edges (rs1 = 0xfffffffe, imm = 512)
  RVTEST_TESTDATA_LOAD_INT(x6, x25) # load rs1: x25 = 0xfffffffe
    233c:	00032c83          	lw	x25,0(x6)
    2340:	00430313          	addi	x6,x6,4

00002344 <I_slti_cg_cr_rs1_imm_edges_rs1val_0xfffffffe_immval_0x200>:
I_slti_cg_cr_rs1_imm_edges_rs1val_0xfffffffe_immval_0x200:
  slti x9, x25, 512 # perform operation
    2344:	200ca493          	slti	x9,x25,512
  # Check if x9 contains the expected result. x19 is the signature ptr, x8 is the link ptr, x7 is a temp reg.
  RVTEST_SIGUPD(x19, x8, x7, x9, I_slti_cg_cr_rs1_imm_edges_rs1val_0xfffffffe_immval_0x200, I_slti_cg_cr_rs1_imm_edges_rs1val_0xfffffffe_immval_0x200_str)
    2348:	0009a383          	lw	x7,0(x19)
    234c:	00938863          	beq	x7,x9,235c <I_slti_cg_cr_rs1_imm_edges_rs1val_0xfffffffe_immval_0x200+0x18>
    2350:	1640146f          	jal	x8,34b4 <failedtest_x8_x7>
    2354:	00002344          	.word	0x00002344
    2358:	0000cd2c          	.word	0x0000cd2c
    235c:	00498993          	addi	x19,x19,4

# Testcase cr_rs1_imm_edges (rs1 = 0xfffffffe, imm = 1023)
  RVTEST_TESTDATA_LOAD_INT(x6, x5) # load rs1: x5 = 0xfffffffe
    2360:	00032283          	lw	x5,0(x6)
    2364:	00430313          	addi	x6,x6,4

00002368 <I_slti_cg_cr_rs1_imm_edges_rs1val_0xfffffffe_immval_0x3ff>:
I_slti_cg_cr_rs1_imm_edges_rs1val_0xfffffffe_immval_0x3ff:
  slti x25, x5, 1023 # perform operation
    2368:	3ff2ac93          	slti	x25,x5,1023
  # Check if x25 contains the expected result. x19 is the signature ptr, x8 is the link ptr, x7 is a temp reg.
  RVTEST_SIGUPD(x19, x8, x7, x25, I_slti_cg_cr_rs1_imm_edges_rs1val_0xfffffffe_immval_0x3ff, I_slti_cg_cr_rs1_imm_edges_rs1val_0xfffffffe_immval_0x3ff_str)
    236c:	0009a383          	lw	x7,0(x19)
    2370:	01938863          	beq	x7,x25,2380 <I_slti_cg_cr_rs1_imm_edges_rs1val_0xfffffffe_immval_0x3ff+0x18>
    2374:	1400146f          	jal	x8,34b4 <failedtest_x8_x7>
    2378:	00002368          	.word	0x00002368
    237c:	0000cd83          	.word	0x0000cd83
    2380:	00498993          	addi	x19,x19,4

# Testcase cr_rs1_imm_edges (rs1 = 0xfffffffe, imm = 1024)
  RVTEST_TESTDATA_LOAD_INT(x6, x5) # load rs1: x5 = 0xfffffffe
    2384:	00032283          	lw	x5,0(x6)
    2388:	00430313          	addi	x6,x6,4

0000238c <I_slti_cg_cr_rs1_imm_edges_rs1val_0xfffffffe_immval_0x400>:
I_slti_cg_cr_rs1_imm_edges_rs1val_0xfffffffe_immval_0x400:
  slti x2, x5, 1024 # perform operation
    238c:	4002a113          	slti	x2,x5,1024
  # Check if x2 contains the expected result. x19 is the signature ptr, x8 is the link ptr, x7 is a temp reg.
  RVTEST_SIGUPD(x19, x8, x7, x2, I_slti_cg_cr_rs1_imm_edges_rs1val_0xfffffffe_immval_0x400, I_slti_cg_cr_rs1_imm_edges_rs1val_0xfffffffe_immval_0x400_str)
    2390:	0009a383          	lw	x7,0(x19)
    2394:	00238863          	beq	x7,x2,23a4 <I_slti_cg_cr_rs1_imm_edges_rs1val_0xfffffffe_immval_0x400+0x18>
    2398:	11c0146f          	jal	x8,34b4 <failedtest_x8_x7>
    239c:	0000238c          	.word	0x0000238c
    23a0:	0000cdda          	.word	0x0000cdda
    23a4:	00498993          	addi	x19,x19,4

# Testcase cr_rs1_imm_edges (rs1 = 0xfffffffe, imm = 1795)
  RVTEST_TESTDATA_LOAD_INT(x6, x28) # load rs1: x28 = 0xfffffffe
    23a8:	00032e03          	lw	x28,0(x6)
    23ac:	00430313          	addi	x6,x6,4

000023b0 <I_slti_cg_cr_rs1_imm_edges_rs1val_0xfffffffe_immval_0x703>:
I_slti_cg_cr_rs1_imm_edges_rs1val_0xfffffffe_immval_0x703:
  slti x13, x28, 1795 # perform operation
    23b0:	703e2693          	slti	x13,x28,1795
  # Check if x13 contains the expected result. x19 is the signature ptr, x8 is the link ptr, x7 is a temp reg.
  RVTEST_SIGUPD(x19, x8, x7, x13, I_slti_cg_cr_rs1_imm_edges_rs1val_0xfffffffe_immval_0x703, I_slti_cg_cr_rs1_imm_edges_rs1val_0xfffffffe_immval_0x703_str)
    23b4:	0009a383          	lw	x7,0(x19)
    23b8:	00d38863          	beq	x7,x13,23c8 <I_slti_cg_cr_rs1_imm_edges_rs1val_0xfffffffe_immval_0x703+0x18>
    23bc:	0f80146f          	jal	x8,34b4 <failedtest_x8_x7>
    23c0:	000023b0          	.word	0x000023b0
    23c4:	0000ce31          	.word	0x0000ce31
    23c8:	00498993          	addi	x19,x19,4

# Testcase cr_rs1_imm_edges (rs1 = 0xfffffffe, imm = 2047)
  RVTEST_TESTDATA_LOAD_INT(x6, x2) # load rs1: x2 = 0xfffffffe
    23cc:	00032103          	lw	x2,0(x6)
    23d0:	00430313          	addi	x6,x6,4

000023d4 <I_slti_cg_cr_rs1_imm_edges_rs1val_0xfffffffe_immval_0x7ff>:
I_slti_cg_cr_rs1_imm_edges_rs1val_0xfffffffe_immval_0x7ff:
  slti x5, x2, 2047 # perform operation
    23d4:	7ff12293          	slti	x5,x2,2047
  # Check if x5 contains the expected result. x19 is the signature ptr, x8 is the link ptr, x7 is a temp reg.
  RVTEST_SIGUPD(x19, x8, x7, x5, I_slti_cg_cr_rs1_imm_edges_rs1val_0xfffffffe_immval_0x7ff, I_slti_cg_cr_rs1_imm_edges_rs1val_0xfffffffe_immval_0x7ff_str)
    23d8:	0009a383          	lw	x7,0(x19)
    23dc:	00538863          	beq	x7,x5,23ec <I_slti_cg_cr_rs1_imm_edges_rs1val_0xfffffffe_immval_0x7ff+0x18>
    23e0:	0d40146f          	jal	x8,34b4 <failedtest_x8_x7>
    23e4:	000023d4          	.word	0x000023d4
    23e8:	0000ce88          	.word	0x0000ce88
    23ec:	00498993          	addi	x19,x19,4

# Testcase cr_rs1_imm_edges (rs1 = 0xfffffffe, imm = -2048)
  RVTEST_TESTDATA_LOAD_INT(x6, x21) # load rs1: x21 = 0xfffffffe
    23f0:	00032a83          	lw	x21,0(x6)
    23f4:	00430313          	addi	x6,x6,4

000023f8 <I_slti_cg_cr_rs1_imm_edges_rs1val_0xfffffffe_immval_m0x800>:
I_slti_cg_cr_rs1_imm_edges_rs1val_0xfffffffe_immval_m0x800:
  slti x28, x21, -2048 # perform operation
    23f8:	800aae13          	slti	x28,x21,-2048
  # Check if x28 contains the expected result. x19 is the signature ptr, x8 is the link ptr, x7 is a temp reg.
  RVTEST_SIGUPD(x19, x8, x7, x28, I_slti_cg_cr_rs1_imm_edges_rs1val_0xfffffffe_immval_m0x800, I_slti_cg_cr_rs1_imm_edges_rs1val_0xfffffffe_immval_m0x800_str)
    23fc:	0009a383          	lw	x7,0(x19)
    2400:	01c38863          	beq	x7,x28,2410 <I_slti_cg_cr_rs1_imm_edges_rs1val_0xfffffffe_immval_m0x800+0x18>
    2404:	0b00146f          	jal	x8,34b4 <failedtest_x8_x7>
    2408:	000023f8          	.word	0x000023f8
    240c:	0000cedf          	.word	0x0000cedf
    2410:	00498993          	addi	x19,x19,4

# Testcase cr_rs1_imm_edges (rs1 = 0xfffffffe, imm = -2047)
  RVTEST_TESTDATA_LOAD_INT(x6, x13) # load rs1: x13 = 0xfffffffe
    2414:	00032683          	lw	x13,0(x6)
    2418:	00430313          	addi	x6,x6,4

0000241c <I_slti_cg_cr_rs1_imm_edges_rs1val_0xfffffffe_immval_m0x7ff>:
I_slti_cg_cr_rs1_imm_edges_rs1val_0xfffffffe_immval_m0x7ff:
  slti x28, x13, -2047 # perform operation
    241c:	8016ae13          	slti	x28,x13,-2047
  # Check if x28 contains the expected result. x19 is the signature ptr, x8 is the link ptr, x7 is a temp reg.
  RVTEST_SIGUPD(x19, x8, x7, x28, I_slti_cg_cr_rs1_imm_edges_rs1val_0xfffffffe_immval_m0x7ff, I_slti_cg_cr_rs1_imm_edges_rs1val_0xfffffffe_immval_m0x7ff_str)
    2420:	0009a383          	lw	x7,0(x19)
    2424:	01c38863          	beq	x7,x28,2434 <I_slti_cg_cr_rs1_imm_edges_rs1val_0xfffffffe_immval_m0x7ff+0x18>
    2428:	08c0146f          	jal	x8,34b4 <failedtest_x8_x7>
    242c:	0000241c          	.word	0x0000241c
    2430:	0000cf37          	.word	0x0000cf37
    2434:	00498993          	addi	x19,x19,4

# Testcase cr_rs1_imm_edges (rs1 = 0xfffffffe, imm = -2)
  RVTEST_TESTDATA_LOAD_INT(x6, x24) # load rs1: x24 = 0xfffffffe
    2438:	00032c03          	lw	x24,0(x6)
    243c:	00430313          	addi	x6,x6,4

00002440 <I_slti_cg_cr_rs1_imm_edges_rs1val_0xfffffffe_immval_m0x2>:
I_slti_cg_cr_rs1_imm_edges_rs1val_0xfffffffe_immval_m0x2:
  slti x11, x24, -2 # perform operation
    2440:	ffec2593          	slti	x11,x24,-2
  # Check if x11 contains the expected result. x19 is the signature ptr, x8 is the link ptr, x7 is a temp reg.
  RVTEST_SIGUPD(x19, x8, x7, x11, I_slti_cg_cr_rs1_imm_edges_rs1val_0xfffffffe_immval_m0x2, I_slti_cg_cr_rs1_imm_edges_rs1val_0xfffffffe_immval_m0x2_str)
    2444:	0009a383          	lw	x7,0(x19)
    2448:	00b38863          	beq	x7,x11,2458 <I_slti_cg_cr_rs1_imm_edges_rs1val_0xfffffffe_immval_m0x2+0x18>
    244c:	0680146f          	jal	x8,34b4 <failedtest_x8_x7>
    2450:	00002440          	.word	0x00002440
    2454:	0000cf8f          	.word	0x0000cf8f
    2458:	00498993          	addi	x19,x19,4

# Testcase cr_rs1_imm_edges (rs1 = 0xfffffffe, imm = -1)
  RVTEST_TESTDATA_LOAD_INT(x6, x2) # load rs1: x2 = 0xfffffffe
    245c:	00032103          	lw	x2,0(x6)
    2460:	00430313          	addi	x6,x6,4

00002464 <I_slti_cg_cr_rs1_imm_edges_rs1val_0xfffffffe_immval_m0x1>:
I_slti_cg_cr_rs1_imm_edges_rs1val_0xfffffffe_immval_m0x1:
  slti x10, x2, -1 # perform operation
    2464:	fff12513          	slti	x10,x2,-1
  # Check if x10 contains the expected result. x19 is the signature ptr, x8 is the link ptr, x7 is a temp reg.
  RVTEST_SIGUPD(x19, x8, x7, x10, I_slti_cg_cr_rs1_imm_edges_rs1val_0xfffffffe_immval_m0x1, I_slti_cg_cr_rs1_imm_edges_rs1val_0xfffffffe_immval_m0x1_str)
    2468:	0009a383          	lw	x7,0(x19)
    246c:	00a38863          	beq	x7,x10,247c <I_slti_cg_cr_rs1_imm_edges_rs1val_0xfffffffe_immval_m0x1+0x18>
    2470:	0440146f          	jal	x8,34b4 <failedtest_x8_x7>
    2474:	00002464          	.word	0x00002464
    2478:	0000cfe5          	.word	0x0000cfe5
    247c:	00498993          	addi	x19,x19,4

# Testcase cr_rs1_imm_edges (rs1 = 0x5bbc8872, imm = 0)
  RVTEST_TESTDATA_LOAD_INT(x6, x10) # load rs1: x10 = 0x5bbc8872
    2480:	00032503          	lw	x10,0(x6)
    2484:	00430313          	addi	x6,x6,4

00002488 <I_slti_cg_cr_rs1_imm_edges_rs1val_0x5bbc8872_immval_0x0>:
I_slti_cg_cr_rs1_imm_edges_rs1val_0x5bbc8872_immval_0x0:
  slti x15, x10, 0 # perform operation
    2488:	00052793          	slti	x15,x10,0
  # Check if x15 contains the expected result. x19 is the signature ptr, x8 is the link ptr, x7 is a temp reg.
  RVTEST_SIGUPD(x19, x8, x7, x15, I_slti_cg_cr_rs1_imm_edges_rs1val_0x5bbc8872_immval_0x0, I_slti_cg_cr_rs1_imm_edges_rs1val_0x5bbc8872_immval_0x0_str)
    248c:	0009a383          	lw	x7,0(x19)
    2490:	00f38863          	beq	x7,x15,24a0 <I_slti_cg_cr_rs1_imm_edges_rs1val_0x5bbc8872_immval_0x0+0x18>
    2494:	0200146f          	jal	x8,34b4 <failedtest_x8_x7>
    2498:	00002488          	.word	0x00002488
    249c:	0000d03b          	.word	0x0000d03b
    24a0:	00498993          	addi	x19,x19,4

# Testcase cr_rs1_imm_edges (rs1 = 0x5bbc8872, imm = 1)
  RVTEST_TESTDATA_LOAD_INT(x6, x15) # load rs1: x15 = 0x5bbc8872
    24a4:	00032783          	lw	x15,0(x6)
    24a8:	00430313          	addi	x6,x6,4

000024ac <I_slti_cg_cr_rs1_imm_edges_rs1val_0x5bbc8872_immval_0x1>:
I_slti_cg_cr_rs1_imm_edges_rs1val_0x5bbc8872_immval_0x1:
  slti x21, x15, 1 # perform operation
    24ac:	0017aa93          	slti	x21,x15,1
  # Check if x21 contains the expected result. x19 is the signature ptr, x8 is the link ptr, x7 is a temp reg.
  RVTEST_SIGUPD(x19, x8, x7, x21, I_slti_cg_cr_rs1_imm_edges_rs1val_0x5bbc8872_immval_0x1, I_slti_cg_cr_rs1_imm_edges_rs1val_0x5bbc8872_immval_0x1_str)
    24b0:	0009a383          	lw	x7,0(x19)
    24b4:	01538863          	beq	x7,x21,24c4 <I_slti_cg_cr_rs1_imm_edges_rs1val_0x5bbc8872_immval_0x1+0x18>
    24b8:	7fd0046f          	jal	x8,34b4 <failedtest_x8_x7>
    24bc:	000024ac          	.word	0x000024ac
    24c0:	0000d090          	.word	0x0000d090
    24c4:	00498993          	addi	x19,x19,4

# Testcase cr_rs1_imm_edges (rs1 = 0x5bbc8872, imm = 2)
  RVTEST_TESTDATA_LOAD_INT(x6, x17) # load rs1: x17 = 0x5bbc8872
    24c8:	00032883          	lw	x17,0(x6)
    24cc:	00430313          	addi	x6,x6,4

000024d0 <I_slti_cg_cr_rs1_imm_edges_rs1val_0x5bbc8872_immval_0x2>:
I_slti_cg_cr_rs1_imm_edges_rs1val_0x5bbc8872_immval_0x2:
  slti x15, x17, 2 # perform operation
    24d0:	0028a793          	slti	x15,x17,2
  # Check if x15 contains the expected result. x19 is the signature ptr, x8 is the link ptr, x7 is a temp reg.
  RVTEST_SIGUPD(x19, x8, x7, x15, I_slti_cg_cr_rs1_imm_edges_rs1val_0x5bbc8872_immval_0x2, I_slti_cg_cr_rs1_imm_edges_rs1val_0x5bbc8872_immval_0x2_str)
    24d4:	0009a383          	lw	x7,0(x19)
    24d8:	00f38863          	beq	x7,x15,24e8 <I_slti_cg_cr_rs1_imm_edges_rs1val_0x5bbc8872_immval_0x2+0x18>
    24dc:	7d90046f          	jal	x8,34b4 <failedtest_x8_x7>
    24e0:	000024d0          	.word	0x000024d0
    24e4:	0000d0e5          	.word	0x0000d0e5
    24e8:	00498993          	addi	x19,x19,4

# Testcase cr_rs1_imm_edges (rs1 = 0x5bbc8872, imm = 3)
  RVTEST_TESTDATA_LOAD_INT(x6, x10) # load rs1: x10 = 0x5bbc8872
    24ec:	00032503          	lw	x10,0(x6)
    24f0:	00430313          	addi	x6,x6,4

000024f4 <I_slti_cg_cr_rs1_imm_edges_rs1val_0x5bbc8872_immval_0x3>:
I_slti_cg_cr_rs1_imm_edges_rs1val_0x5bbc8872_immval_0x3:
  slti x25, x10, 3 # perform operation
    24f4:	00352c93          	slti	x25,x10,3
  # Check if x25 contains the expected result. x19 is the signature ptr, x8 is the link ptr, x7 is a temp reg.
  RVTEST_SIGUPD(x19, x8, x7, x25, I_slti_cg_cr_rs1_imm_edges_rs1val_0x5bbc8872_immval_0x3, I_slti_cg_cr_rs1_imm_edges_rs1val_0x5bbc8872_immval_0x3_str)
    24f8:	0009a383          	lw	x7,0(x19)
    24fc:	01938863          	beq	x7,x25,250c <I_slti_cg_cr_rs1_imm_edges_rs1val_0x5bbc8872_immval_0x3+0x18>
    2500:	7b50046f          	jal	x8,34b4 <failedtest_x8_x7>
    2504:	000024f4          	.word	0x000024f4
    2508:	0000d13a          	.word	0x0000d13a
    250c:	00498993          	addi	x19,x19,4

# Testcase cr_rs1_imm_edges (rs1 = 0x5bbc8872, imm = 4)
  RVTEST_TESTDATA_LOAD_INT(x6, x21) # load rs1: x21 = 0x5bbc8872
    2510:	00032a83          	lw	x21,0(x6)
    2514:	00430313          	addi	x6,x6,4

00002518 <I_slti_cg_cr_rs1_imm_edges_rs1val_0x5bbc8872_immval_0x4>:
I_slti_cg_cr_rs1_imm_edges_rs1val_0x5bbc8872_immval_0x4:
  slti x13, x21, 4 # perform operation
    2518:	004aa693          	slti	x13,x21,4
  # Check if x13 contains the expected result. x19 is the signature ptr, x8 is the link ptr, x7 is a temp reg.
  RVTEST_SIGUPD(x19, x8, x7, x13, I_slti_cg_cr_rs1_imm_edges_rs1val_0x5bbc8872_immval_0x4, I_slti_cg_cr_rs1_imm_edges_rs1val_0x5bbc8872_immval_0x4_str)
    251c:	0009a383          	lw	x7,0(x19)
    2520:	00d38863          	beq	x7,x13,2530 <I_slti_cg_cr_rs1_imm_edges_rs1val_0x5bbc8872_immval_0x4+0x18>
    2524:	7910046f          	jal	x8,34b4 <failedtest_x8_x7>
    2528:	00002518          	.word	0x00002518
    252c:	0000d18f          	.word	0x0000d18f
    2530:	00498993          	addi	x19,x19,4

# Testcase cr_rs1_imm_edges (rs1 = 0x5bbc8872, imm = 8)
  RVTEST_TESTDATA_LOAD_INT(x6, x29) # load rs1: x29 = 0x5bbc8872
    2534:	00032e83          	lw	x29,0(x6)
    2538:	00430313          	addi	x6,x6,4

0000253c <I_slti_cg_cr_rs1_imm_edges_rs1val_0x5bbc8872_immval_0x8>:
I_slti_cg_cr_rs1_imm_edges_rs1val_0x5bbc8872_immval_0x8:
  slti x1, x29, 8 # perform operation
    253c:	008ea093          	slti	x1,x29,8
  # Check if x1 contains the expected result. x19 is the signature ptr, x8 is the link ptr, x7 is a temp reg.
  RVTEST_SIGUPD(x19, x8, x7, x1, I_slti_cg_cr_rs1_imm_edges_rs1val_0x5bbc8872_immval_0x8, I_slti_cg_cr_rs1_imm_edges_rs1val_0x5bbc8872_immval_0x8_str)
    2540:	0009a383          	lw	x7,0(x19)
    2544:	00138863          	beq	x7,x1,2554 <I_slti_cg_cr_rs1_imm_edges_rs1val_0x5bbc8872_immval_0x8+0x18>
    2548:	76d0046f          	jal	x8,34b4 <failedtest_x8_x7>
    254c:	0000253c          	.word	0x0000253c
    2550:	0000d1e4          	.word	0x0000d1e4
    2554:	00498993          	addi	x19,x19,4

# Testcase cr_rs1_imm_edges (rs1 = 0x5bbc8872, imm = 16)
  RVTEST_TESTDATA_LOAD_INT(x6, x5) # load rs1: x5 = 0x5bbc8872
    2558:	00032283          	lw	x5,0(x6)
    255c:	00430313          	addi	x6,x6,4

00002560 <I_slti_cg_cr_rs1_imm_edges_rs1val_0x5bbc8872_immval_0x10>:
I_slti_cg_cr_rs1_imm_edges_rs1val_0x5bbc8872_immval_0x10:
  slti x15, x5, 16 # perform operation
    2560:	0102a793          	slti	x15,x5,16
  # Check if x15 contains the expected result. x19 is the signature ptr, x8 is the link ptr, x7 is a temp reg.
  RVTEST_SIGUPD(x19, x8, x7, x15, I_slti_cg_cr_rs1_imm_edges_rs1val_0x5bbc8872_immval_0x10, I_slti_cg_cr_rs1_imm_edges_rs1val_0x5bbc8872_immval_0x10_str)
    2564:	0009a383          	lw	x7,0(x19)
    2568:	00f38863          	beq	x7,x15,2578 <I_slti_cg_cr_rs1_imm_edges_rs1val_0x5bbc8872_immval_0x10+0x18>
    256c:	7490046f          	jal	x8,34b4 <failedtest_x8_x7>
    2570:	00002560          	.word	0x00002560
    2574:	0000d239          	.word	0x0000d239
    2578:	00498993          	addi	x19,x19,4

# Testcase cr_rs1_imm_edges (rs1 = 0x5bbc8872, imm = 32)
  RVTEST_TESTDATA_LOAD_INT(x6, x15) # load rs1: x15 = 0x5bbc8872
    257c:	00032783          	lw	x15,0(x6)
    2580:	00430313          	addi	x6,x6,4

00002584 <I_slti_cg_cr_rs1_imm_edges_rs1val_0x5bbc8872_immval_0x20>:
I_slti_cg_cr_rs1_imm_edges_rs1val_0x5bbc8872_immval_0x20:
  slti x12, x15, 32 # perform operation
    2584:	0207a613          	slti	x12,x15,32
  # Check if x12 contains the expected result. x19 is the signature ptr, x8 is the link ptr, x7 is a temp reg.
  RVTEST_SIGUPD(x19, x8, x7, x12, I_slti_cg_cr_rs1_imm_edges_rs1val_0x5bbc8872_immval_0x20, I_slti_cg_cr_rs1_imm_edges_rs1val_0x5bbc8872_immval_0x20_str)
    2588:	0009a383          	lw	x7,0(x19)
    258c:	00c38863          	beq	x7,x12,259c <I_slti_cg_cr_rs1_imm_edges_rs1val_0x5bbc8872_immval_0x20+0x18>
    2590:	7250046f          	jal	x8,34b4 <failedtest_x8_x7>
    2594:	00002584          	.word	0x00002584
    2598:	0000d28f          	.word	0x0000d28f
    259c:	00498993          	addi	x19,x19,4

# Testcase cr_rs1_imm_edges (rs1 = 0x5bbc8872, imm = 64)
  RVTEST_TESTDATA_LOAD_INT(x6, x13) # load rs1: x13 = 0x5bbc8872
    25a0:	00032683          	lw	x13,0(x6)
    25a4:	00430313          	addi	x6,x6,4

000025a8 <I_slti_cg_cr_rs1_imm_edges_rs1val_0x5bbc8872_immval_0x40>:
I_slti_cg_cr_rs1_imm_edges_rs1val_0x5bbc8872_immval_0x40:
  slti x1, x13, 64 # perform operation
    25a8:	0406a093          	slti	x1,x13,64
  # Check if x1 contains the expected result. x19 is the signature ptr, x8 is the link ptr, x7 is a temp reg.
  RVTEST_SIGUPD(x19, x8, x7, x1, I_slti_cg_cr_rs1_imm_edges_rs1val_0x5bbc8872_immval_0x40, I_slti_cg_cr_rs1_imm_edges_rs1val_0x5bbc8872_immval_0x40_str)
    25ac:	0009a383          	lw	x7,0(x19)
    25b0:	00138863          	beq	x7,x1,25c0 <I_slti_cg_cr_rs1_imm_edges_rs1val_0x5bbc8872_immval_0x40+0x18>
    25b4:	7010046f          	jal	x8,34b4 <failedtest_x8_x7>
    25b8:	000025a8          	.word	0x000025a8
    25bc:	0000d2e5          	.word	0x0000d2e5
    25c0:	00498993          	addi	x19,x19,4

# Testcase cr_rs1_imm_edges (rs1 = 0x5bbc8872, imm = 128)
  RVTEST_TESTDATA_LOAD_INT(x6, x14) # load rs1: x14 = 0x5bbc8872
    25c4:	00032703          	lw	x14,0(x6)
    25c8:	00430313          	addi	x6,x6,4

000025cc <I_slti_cg_cr_rs1_imm_edges_rs1val_0x5bbc8872_immval_0x80>:
I_slti_cg_cr_rs1_imm_edges_rs1val_0x5bbc8872_immval_0x80:
  slti x17, x14, 128 # perform operation
    25cc:	08072893          	slti	x17,x14,128
  # Check if x17 contains the expected result. x19 is the signature ptr, x8 is the link ptr, x7 is a temp reg.
  RVTEST_SIGUPD(x19, x8, x7, x17, I_slti_cg_cr_rs1_imm_edges_rs1val_0x5bbc8872_immval_0x80, I_slti_cg_cr_rs1_imm_edges_rs1val_0x5bbc8872_immval_0x80_str)
    25d0:	0009a383          	lw	x7,0(x19)
    25d4:	01138863          	beq	x7,x17,25e4 <I_slti_cg_cr_rs1_imm_edges_rs1val_0x5bbc8872_immval_0x80+0x18>
    25d8:	6dd0046f          	jal	x8,34b4 <failedtest_x8_x7>
    25dc:	000025cc          	.word	0x000025cc
    25e0:	0000d33b          	.word	0x0000d33b
    25e4:	00498993          	addi	x19,x19,4

# Testcase cr_rs1_imm_edges (rs1 = 0x5bbc8872, imm = 256)
  RVTEST_TESTDATA_LOAD_INT(x6, x18) # load rs1: x18 = 0x5bbc8872
    25e8:	00032903          	lw	x18,0(x6)
    25ec:	00430313          	addi	x6,x6,4

000025f0 <I_slti_cg_cr_rs1_imm_edges_rs1val_0x5bbc8872_immval_0x100>:
I_slti_cg_cr_rs1_imm_edges_rs1val_0x5bbc8872_immval_0x100:
  slti x22, x18, 256 # perform operation
    25f0:	10092b13          	slti	x22,x18,256
  # Check if x22 contains the expected result. x19 is the signature ptr, x8 is the link ptr, x7 is a temp reg.
  RVTEST_SIGUPD(x19, x8, x7, x22, I_slti_cg_cr_rs1_imm_edges_rs1val_0x5bbc8872_immval_0x100, I_slti_cg_cr_rs1_imm_edges_rs1val_0x5bbc8872_immval_0x100_str)
    25f4:	0009a383          	lw	x7,0(x19)
    25f8:	01638863          	beq	x7,x22,2608 <I_slti_cg_cr_rs1_imm_edges_rs1val_0x5bbc8872_immval_0x100+0x18>
    25fc:	6b90046f          	jal	x8,34b4 <failedtest_x8_x7>
    2600:	000025f0          	.word	0x000025f0
    2604:	0000d391          	.word	0x0000d391
    2608:	00498993          	addi	x19,x19,4

# Testcase cr_rs1_imm_edges (rs1 = 0x5bbc8872, imm = 512)
  RVTEST_TESTDATA_LOAD_INT(x6, x20) # load rs1: x20 = 0x5bbc8872
    260c:	00032a03          	lw	x20,0(x6)
    2610:	00430313          	addi	x6,x6,4

00002614 <I_slti_cg_cr_rs1_imm_edges_rs1val_0x5bbc8872_immval_0x200>:
I_slti_cg_cr_rs1_imm_edges_rs1val_0x5bbc8872_immval_0x200:
  slti x9, x20, 512 # perform operation
    2614:	200a2493          	slti	x9,x20,512
  # Check if x9 contains the expected result. x19 is the signature ptr, x8 is the link ptr, x7 is a temp reg.
  RVTEST_SIGUPD(x19, x8, x7, x9, I_slti_cg_cr_rs1_imm_edges_rs1val_0x5bbc8872_immval_0x200, I_slti_cg_cr_rs1_imm_edges_rs1val_0x5bbc8872_immval_0x200_str)
    2618:	0009a383          	lw	x7,0(x19)
    261c:	00938863          	beq	x7,x9,262c <I_slti_cg_cr_rs1_imm_edges_rs1val_0x5bbc8872_immval_0x200+0x18>
    2620:	6950046f          	jal	x8,34b4 <failedtest_x8_x7>
    2624:	00002614          	.word	0x00002614
    2628:	0000d3e8          	.word	0x0000d3e8
    262c:	00498993          	addi	x19,x19,4

# Testcase cr_rs1_imm_edges (rs1 = 0x5bbc8872, imm = 1023)
  RVTEST_TESTDATA_LOAD_INT(x6, x23) # load rs1: x23 = 0x5bbc8872
    2630:	00032b83          	lw	x23,0(x6)
    2634:	00430313          	addi	x6,x6,4

00002638 <I_slti_cg_cr_rs1_imm_edges_rs1val_0x5bbc8872_immval_0x3ff>:
I_slti_cg_cr_rs1_imm_edges_rs1val_0x5bbc8872_immval_0x3ff:
  slti x10, x23, 1023 # perform operation
    2638:	3ffba513          	slti	x10,x23,1023
  # Check if x10 contains the expected result. x19 is the signature ptr, x8 is the link ptr, x7 is a temp reg.
  RVTEST_SIGUPD(x19, x8, x7, x10, I_slti_cg_cr_rs1_imm_edges_rs1val_0x5bbc8872_immval_0x3ff, I_slti_cg_cr_rs1_imm_edges_rs1val_0x5bbc8872_immval_0x3ff_str)
    263c:	0009a383          	lw	x7,0(x19)
    2640:	00a38863          	beq	x7,x10,2650 <I_slti_cg_cr_rs1_imm_edges_rs1val_0x5bbc8872_immval_0x3ff+0x18>
    2644:	6710046f          	jal	x8,34b4 <failedtest_x8_x7>
    2648:	00002638          	.word	0x00002638
    264c:	0000d43f          	.word	0x0000d43f
    2650:	00498993          	addi	x19,x19,4

# Testcase cr_rs1_imm_edges (rs1 = 0x5bbc8872, imm = 1024)
  RVTEST_TESTDATA_LOAD_INT(x6, x12) # load rs1: x12 = 0x5bbc8872
    2654:	00032603          	lw	x12,0(x6)
    2658:	00430313          	addi	x6,x6,4

0000265c <I_slti_cg_cr_rs1_imm_edges_rs1val_0x5bbc8872_immval_0x400>:
I_slti_cg_cr_rs1_imm_edges_rs1val_0x5bbc8872_immval_0x400:
  slti x16, x12, 1024 # perform operation
    265c:	40062813          	slti	x16,x12,1024
  # Check if x16 contains the expected result. x19 is the signature ptr, x8 is the link ptr, x7 is a temp reg.
  RVTEST_SIGUPD(x19, x8, x7, x16, I_slti_cg_cr_rs1_imm_edges_rs1val_0x5bbc8872_immval_0x400, I_slti_cg_cr_rs1_imm_edges_rs1val_0x5bbc8872_immval_0x400_str)
    2660:	0009a383          	lw	x7,0(x19)
    2664:	01038863          	beq	x7,x16,2674 <I_slti_cg_cr_rs1_imm_edges_rs1val_0x5bbc8872_immval_0x400+0x18>
    2668:	64d0046f          	jal	x8,34b4 <failedtest_x8_x7>
    266c:	0000265c          	.word	0x0000265c
    2670:	0000d496          	.word	0x0000d496
    2674:	00498993          	addi	x19,x19,4

# Testcase cr_rs1_imm_edges (rs1 = 0x5bbc8872, imm = 1795)
  RVTEST_TESTDATA_LOAD_INT(x6, x27) # load rs1: x27 = 0x5bbc8872
    2678:	00032d83          	lw	x27,0(x6)
    267c:	00430313          	addi	x6,x6,4

00002680 <I_slti_cg_cr_rs1_imm_edges_rs1val_0x5bbc8872_immval_0x703>:
I_slti_cg_cr_rs1_imm_edges_rs1val_0x5bbc8872_immval_0x703:
  slti x22, x27, 1795 # perform operation
    2680:	703dab13          	slti	x22,x27,1795
  # Check if x22 contains the expected result. x19 is the signature ptr, x8 is the link ptr, x7 is a temp reg.
  RVTEST_SIGUPD(x19, x8, x7, x22, I_slti_cg_cr_rs1_imm_edges_rs1val_0x5bbc8872_immval_0x703, I_slti_cg_cr_rs1_imm_edges_rs1val_0x5bbc8872_immval_0x703_str)
    2684:	0009a383          	lw	x7,0(x19)
    2688:	01638863          	beq	x7,x22,2698 <I_slti_cg_cr_rs1_imm_edges_rs1val_0x5bbc8872_immval_0x703+0x18>
    268c:	6290046f          	jal	x8,34b4 <failedtest_x8_x7>
    2690:	00002680          	.word	0x00002680
    2694:	0000d4ed          	.word	0x0000d4ed
    2698:	00498993          	addi	x19,x19,4

# Testcase cr_rs1_imm_edges (rs1 = 0x5bbc8872, imm = 2047)
  RVTEST_TESTDATA_LOAD_INT(x6, x27) # load rs1: x27 = 0x5bbc8872
    269c:	00032d83          	lw	x27,0(x6)
    26a0:	00430313          	addi	x6,x6,4

000026a4 <I_slti_cg_cr_rs1_imm_edges_rs1val_0x5bbc8872_immval_0x7ff>:
I_slti_cg_cr_rs1_imm_edges_rs1val_0x5bbc8872_immval_0x7ff:
  slti x14, x27, 2047 # perform operation
    26a4:	7ffda713          	slti	x14,x27,2047
  # Check if x14 contains the expected result. x19 is the signature ptr, x8 is the link ptr, x7 is a temp reg.
  RVTEST_SIGUPD(x19, x8, x7, x14, I_slti_cg_cr_rs1_imm_edges_rs1val_0x5bbc8872_immval_0x7ff, I_slti_cg_cr_rs1_imm_edges_rs1val_0x5bbc8872_immval_0x7ff_str)
    26a8:	0009a383          	lw	x7,0(x19)
    26ac:	00e38863          	beq	x7,x14,26bc <I_slti_cg_cr_rs1_imm_edges_rs1val_0x5bbc8872_immval_0x7ff+0x18>
    26b0:	6050046f          	jal	x8,34b4 <failedtest_x8_x7>
    26b4:	000026a4          	.word	0x000026a4
    26b8:	0000d544          	.word	0x0000d544
    26bc:	00498993          	addi	x19,x19,4

# Testcase cr_rs1_imm_edges (rs1 = 0x5bbc8872, imm = -2048)
  RVTEST_TESTDATA_LOAD_INT(x6, x22) # load rs1: x22 = 0x5bbc8872
    26c0:	00032b03          	lw	x22,0(x6)
    26c4:	00430313          	addi	x6,x6,4

000026c8 <I_slti_cg_cr_rs1_imm_edges_rs1val_0x5bbc8872_immval_m0x800>:
I_slti_cg_cr_rs1_imm_edges_rs1val_0x5bbc8872_immval_m0x800:
  slti x11, x22, -2048 # perform operation
    26c8:	800b2593          	slti	x11,x22,-2048
  # Check if x11 contains the expected result. x19 is the signature ptr, x8 is the link ptr, x7 is a temp reg.
  RVTEST_SIGUPD(x19, x8, x7, x11, I_slti_cg_cr_rs1_imm_edges_rs1val_0x5bbc8872_immval_m0x800, I_slti_cg_cr_rs1_imm_edges_rs1val_0x5bbc8872_immval_m0x800_str)
    26cc:	0009a383          	lw	x7,0(x19)
    26d0:	00b38863          	beq	x7,x11,26e0 <I_slti_cg_cr_rs1_imm_edges_rs1val_0x5bbc8872_immval_m0x800+0x18>
    26d4:	5e10046f          	jal	x8,34b4 <failedtest_x8_x7>
    26d8:	000026c8          	.word	0x000026c8
    26dc:	0000d59b          	.word	0x0000d59b
    26e0:	00498993          	addi	x19,x19,4

# Testcase cr_rs1_imm_edges (rs1 = 0x5bbc8872, imm = -2047)
  RVTEST_TESTDATA_LOAD_INT(x6, x18) # load rs1: x18 = 0x5bbc8872
    26e4:	00032903          	lw	x18,0(x6)
    26e8:	00430313          	addi	x6,x6,4

000026ec <I_slti_cg_cr_rs1_imm_edges_rs1val_0x5bbc8872_immval_m0x7ff>:
I_slti_cg_cr_rs1_imm_edges_rs1val_0x5bbc8872_immval_m0x7ff:
  slti x31, x18, -2047 # perform operation
    26ec:	80192f93          	slti	x31,x18,-2047
  # Check if x31 contains the expected result. x19 is the signature ptr, x8 is the link ptr, x7 is a temp reg.
  RVTEST_SIGUPD(x19, x8, x7, x31, I_slti_cg_cr_rs1_imm_edges_rs1val_0x5bbc8872_immval_m0x7ff, I_slti_cg_cr_rs1_imm_edges_rs1val_0x5bbc8872_immval_m0x7ff_str)
    26f0:	0009a383          	lw	x7,0(x19)
    26f4:	01f38863          	beq	x7,x31,2704 <I_slti_cg_cr_rs1_imm_edges_rs1val_0x5bbc8872_immval_m0x7ff+0x18>
    26f8:	5bd0046f          	jal	x8,34b4 <failedtest_x8_x7>
    26fc:	000026ec          	.word	0x000026ec
    2700:	0000d5f3          	.word	0x0000d5f3
    2704:	00498993          	addi	x19,x19,4

# Testcase cr_rs1_imm_edges (rs1 = 0x5bbc8872, imm = -2)
  RVTEST_TESTDATA_LOAD_INT(x6, x16) # load rs1: x16 = 0x5bbc8872
    2708:	00032803          	lw	x16,0(x6)
    270c:	00430313          	addi	x6,x6,4

00002710 <I_slti_cg_cr_rs1_imm_edges_rs1val_0x5bbc8872_immval_m0x2>:
I_slti_cg_cr_rs1_imm_edges_rs1val_0x5bbc8872_immval_m0x2:
  slti x2, x16, -2 # perform operation
    2710:	ffe82113          	slti	x2,x16,-2
  # Check if x2 contains the expected result. x19 is the signature ptr, x8 is the link ptr, x7 is a temp reg.
  RVTEST_SIGUPD(x19, x8, x7, x2, I_slti_cg_cr_rs1_imm_edges_rs1val_0x5bbc8872_immval_m0x2, I_slti_cg_cr_rs1_imm_edges_rs1val_0x5bbc8872_immval_m0x2_str)
    2714:	0009a383          	lw	x7,0(x19)
    2718:	00238863          	beq	x7,x2,2728 <I_slti_cg_cr_rs1_imm_edges_rs1val_0x5bbc8872_immval_m0x2+0x18>
    271c:	5990046f          	jal	x8,34b4 <failedtest_x8_x7>
    2720:	00002710          	.word	0x00002710
    2724:	0000d64b          	.word	0x0000d64b
    2728:	00498993          	addi	x19,x19,4

# Testcase cr_rs1_imm_edges (rs1 = 0x5bbc8872, imm = -1)
  RVTEST_TESTDATA_LOAD_INT(x6, x15) # load rs1: x15 = 0x5bbc8872
    272c:	00032783          	lw	x15,0(x6)
    2730:	00430313          	addi	x6,x6,4

00002734 <I_slti_cg_cr_rs1_imm_edges_rs1val_0x5bbc8872_immval_m0x1>:
I_slti_cg_cr_rs1_imm_edges_rs1val_0x5bbc8872_immval_m0x1:
  slti x23, x15, -1 # perform operation
    2734:	fff7ab93          	slti	x23,x15,-1
  # Check if x23 contains the expected result. x19 is the signature ptr, x8 is the link ptr, x7 is a temp reg.
  RVTEST_SIGUPD(x19, x8, x7, x23, I_slti_cg_cr_rs1_imm_edges_rs1val_0x5bbc8872_immval_m0x1, I_slti_cg_cr_rs1_imm_edges_rs1val_0x5bbc8872_immval_m0x1_str)
    2738:	0009a383          	lw	x7,0(x19)
    273c:	01738863          	beq	x7,x23,274c <I_slti_cg_cr_rs1_imm_edges_rs1val_0x5bbc8872_immval_m0x1+0x18>
    2740:	5750046f          	jal	x8,34b4 <failedtest_x8_x7>
    2744:	00002734          	.word	0x00002734
    2748:	0000d6a1          	.word	0x0000d6a1
    274c:	00498993          	addi	x19,x19,4

# Testcase cr_rs1_imm_edges (rs1 = 0xaaaaaaaa, imm = 0)
  RVTEST_TESTDATA_LOAD_INT(x6, x2) # load rs1: x2 = 0xaaaaaaaa
    2750:	00032103          	lw	x2,0(x6)
    2754:	00430313          	addi	x6,x6,4

00002758 <I_slti_cg_cr_rs1_imm_edges_rs1val_0xaaaaaaaa_immval_0x0>:
I_slti_cg_cr_rs1_imm_edges_rs1val_0xaaaaaaaa_immval_0x0:
  slti x30, x2, 0 # perform operation
    2758:	00012f13          	slti	x30,x2,0
  # Check if x30 contains the expected result. x19 is the signature ptr, x8 is the link ptr, x7 is a temp reg.
  RVTEST_SIGUPD(x19, x8, x7, x30, I_slti_cg_cr_rs1_imm_edges_rs1val_0xaaaaaaaa_immval_0x0, I_slti_cg_cr_rs1_imm_edges_rs1val_0xaaaaaaaa_immval_0x0_str)
    275c:	0009a383          	lw	x7,0(x19)
    2760:	01e38863          	beq	x7,x30,2770 <I_slti_cg_cr_rs1_imm_edges_rs1val_0xaaaaaaaa_immval_0x0+0x18>
    2764:	5510046f          	jal	x8,34b4 <failedtest_x8_x7>
    2768:	00002758          	.word	0x00002758
    276c:	0000d6f7          	.word	0x0000d6f7
    2770:	00498993          	addi	x19,x19,4

# Testcase cr_rs1_imm_edges (rs1 = 0xaaaaaaaa, imm = 1)
  RVTEST_TESTDATA_LOAD_INT(x6, x16) # load rs1: x16 = 0xaaaaaaaa
    2774:	00032803          	lw	x16,0(x6)
    2778:	00430313          	addi	x6,x6,4

0000277c <I_slti_cg_cr_rs1_imm_edges_rs1val_0xaaaaaaaa_immval_0x1>:
I_slti_cg_cr_rs1_imm_edges_rs1val_0xaaaaaaaa_immval_0x1:
  slti x15, x16, 1 # perform operation
    277c:	00182793          	slti	x15,x16,1
  # Check if x15 contains the expected result. x19 is the signature ptr, x8 is the link ptr, x7 is a temp reg.
  RVTEST_SIGUPD(x19, x8, x7, x15, I_slti_cg_cr_rs1_imm_edges_rs1val_0xaaaaaaaa_immval_0x1, I_slti_cg_cr_rs1_imm_edges_rs1val_0xaaaaaaaa_immval_0x1_str)
    2780:	0009a383          	lw	x7,0(x19)
    2784:	00f38863          	beq	x7,x15,2794 <I_slti_cg_cr_rs1_imm_edges_rs1val_0xaaaaaaaa_immval_0x1+0x18>
    2788:	52d0046f          	jal	x8,34b4 <failedtest_x8_x7>
    278c:	0000277c          	.word	0x0000277c
    2790:	0000d74c          	.word	0x0000d74c
    2794:	00498993          	addi	x19,x19,4

# Testcase cr_rs1_imm_edges (rs1 = 0xaaaaaaaa, imm = 2)
  RVTEST_TESTDATA_LOAD_INT(x6, x17) # load rs1: x17 = 0xaaaaaaaa
    2798:	00032883          	lw	x17,0(x6)
    279c:	00430313          	addi	x6,x6,4

000027a0 <I_slti_cg_cr_rs1_imm_edges_rs1val_0xaaaaaaaa_immval_0x2>:
I_slti_cg_cr_rs1_imm_edges_rs1val_0xaaaaaaaa_immval_0x2:
  slti x29, x17, 2 # perform operation
    27a0:	0028ae93          	slti	x29,x17,2
  # Check if x29 contains the expected result. x19 is the signature ptr, x8 is the link ptr, x7 is a temp reg.
  RVTEST_SIGUPD(x19, x8, x7, x29, I_slti_cg_cr_rs1_imm_edges_rs1val_0xaaaaaaaa_immval_0x2, I_slti_cg_cr_rs1_imm_edges_rs1val_0xaaaaaaaa_immval_0x2_str)
    27a4:	0009a383          	lw	x7,0(x19)
    27a8:	01d38863          	beq	x7,x29,27b8 <I_slti_cg_cr_rs1_imm_edges_rs1val_0xaaaaaaaa_immval_0x2+0x18>
    27ac:	5090046f          	jal	x8,34b4 <failedtest_x8_x7>
    27b0:	000027a0          	.word	0x000027a0
    27b4:	0000d7a1          	.word	0x0000d7a1
    27b8:	00498993          	addi	x19,x19,4

# Testcase cr_rs1_imm_edges (rs1 = 0xaaaaaaaa, imm = 3)
  RVTEST_TESTDATA_LOAD_INT(x6, x12) # load rs1: x12 = 0xaaaaaaaa
    27bc:	00032603          	lw	x12,0(x6)
    27c0:	00430313          	addi	x6,x6,4

000027c4 <I_slti_cg_cr_rs1_imm_edges_rs1val_0xaaaaaaaa_immval_0x3>:
I_slti_cg_cr_rs1_imm_edges_rs1val_0xaaaaaaaa_immval_0x3:
  slti x18, x12, 3 # perform operation
    27c4:	00362913          	slti	x18,x12,3
  # Check if x18 contains the expected result. x19 is the signature ptr, x8 is the link ptr, x7 is a temp reg.
  RVTEST_SIGUPD(x19, x8, x7, x18, I_slti_cg_cr_rs1_imm_edges_rs1val_0xaaaaaaaa_immval_0x3, I_slti_cg_cr_rs1_imm_edges_rs1val_0xaaaaaaaa_immval_0x3_str)
    27c8:	0009a383          	lw	x7,0(x19)
    27cc:	01238863          	beq	x7,x18,27dc <I_slti_cg_cr_rs1_imm_edges_rs1val_0xaaaaaaaa_immval_0x3+0x18>
    27d0:	4e50046f          	jal	x8,34b4 <failedtest_x8_x7>
    27d4:	000027c4          	.word	0x000027c4
    27d8:	0000d7f6          	.word	0x0000d7f6
    27dc:	00498993          	addi	x19,x19,4

# Testcase cr_rs1_imm_edges (rs1 = 0xaaaaaaaa, imm = 4)
  RVTEST_TESTDATA_LOAD_INT(x6, x30) # load rs1: x30 = 0xaaaaaaaa
    27e0:	00032f03          	lw	x30,0(x6)
    27e4:	00430313          	addi	x6,x6,4

000027e8 <I_slti_cg_cr_rs1_imm_edges_rs1val_0xaaaaaaaa_immval_0x4>:
I_slti_cg_cr_rs1_imm_edges_rs1val_0xaaaaaaaa_immval_0x4:
  slti x20, x30, 4 # perform operation
    27e8:	004f2a13          	slti	x20,x30,4
  # Check if x20 contains the expected result. x19 is the signature ptr, x8 is the link ptr, x7 is a temp reg.
  RVTEST_SIGUPD(x19, x8, x7, x20, I_slti_cg_cr_rs1_imm_edges_rs1val_0xaaaaaaaa_immval_0x4, I_slti_cg_cr_rs1_imm_edges_rs1val_0xaaaaaaaa_immval_0x4_str)
    27ec:	0009a383          	lw	x7,0(x19)
    27f0:	01438863          	beq	x7,x20,2800 <I_slti_cg_cr_rs1_imm_edges_rs1val_0xaaaaaaaa_immval_0x4+0x18>
    27f4:	4c10046f          	jal	x8,34b4 <failedtest_x8_x7>
    27f8:	000027e8          	.word	0x000027e8
    27fc:	0000d84b          	.word	0x0000d84b
    2800:	00498993          	addi	x19,x19,4

# Testcase cr_rs1_imm_edges (rs1 = 0xaaaaaaaa, imm = 8)
  RVTEST_TESTDATA_LOAD_INT(x6, x16) # load rs1: x16 = 0xaaaaaaaa
    2804:	00032803          	lw	x16,0(x6)
    2808:	00430313          	addi	x6,x6,4

0000280c <I_slti_cg_cr_rs1_imm_edges_rs1val_0xaaaaaaaa_immval_0x8>:
I_slti_cg_cr_rs1_imm_edges_rs1val_0xaaaaaaaa_immval_0x8:
  slti x22, x16, 8 # perform operation
    280c:	00882b13          	slti	x22,x16,8
  # Check if x22 contains the expected result. x19 is the signature ptr, x8 is the link ptr, x7 is a temp reg.
  RVTEST_SIGUPD(x19, x8, x7, x22, I_slti_cg_cr_rs1_imm_edges_rs1val_0xaaaaaaaa_immval_0x8, I_slti_cg_cr_rs1_imm_edges_rs1val_0xaaaaaaaa_immval_0x8_str)
    2810:	0009a383          	lw	x7,0(x19)
    2814:	01638863          	beq	x7,x22,2824 <I_slti_cg_cr_rs1_imm_edges_rs1val_0xaaaaaaaa_immval_0x8+0x18>
    2818:	49d0046f          	jal	x8,34b4 <failedtest_x8_x7>
    281c:	0000280c          	.word	0x0000280c
    2820:	0000d8a0          	.word	0x0000d8a0
    2824:	00498993          	addi	x19,x19,4

# Testcase cr_rs1_imm_edges (rs1 = 0xaaaaaaaa, imm = 16)
  RVTEST_TESTDATA_LOAD_INT(x6, x30) # load rs1: x30 = 0xaaaaaaaa
    2828:	00032f03          	lw	x30,0(x6)
    282c:	00430313          	addi	x6,x6,4

00002830 <I_slti_cg_cr_rs1_imm_edges_rs1val_0xaaaaaaaa_immval_0x10>:
I_slti_cg_cr_rs1_imm_edges_rs1val_0xaaaaaaaa_immval_0x10:
  slti x22, x30, 16 # perform operation
    2830:	010f2b13          	slti	x22,x30,16
  # Check if x22 contains the expected result. x19 is the signature ptr, x8 is the link ptr, x7 is a temp reg.
  RVTEST_SIGUPD(x19, x8, x7, x22, I_slti_cg_cr_rs1_imm_edges_rs1val_0xaaaaaaaa_immval_0x10, I_slti_cg_cr_rs1_imm_edges_rs1val_0xaaaaaaaa_immval_0x10_str)
    2834:	0009a383          	lw	x7,0(x19)
    2838:	01638863          	beq	x7,x22,2848 <I_slti_cg_cr_rs1_imm_edges_rs1val_0xaaaaaaaa_immval_0x10+0x18>
    283c:	4790046f          	jal	x8,34b4 <failedtest_x8_x7>
    2840:	00002830          	.word	0x00002830
    2844:	0000d8f5          	.word	0x0000d8f5
    2848:	00498993          	addi	x19,x19,4

# Testcase cr_rs1_imm_edges (rs1 = 0xaaaaaaaa, imm = 32)
  RVTEST_TESTDATA_LOAD_INT(x6, x24) # load rs1: x24 = 0xaaaaaaaa
    284c:	00032c03          	lw	x24,0(x6)
    2850:	00430313          	addi	x6,x6,4

00002854 <I_slti_cg_cr_rs1_imm_edges_rs1val_0xaaaaaaaa_immval_0x20>:
I_slti_cg_cr_rs1_imm_edges_rs1val_0xaaaaaaaa_immval_0x20:
  slti x17, x24, 32 # perform operation
    2854:	020c2893          	slti	x17,x24,32
  # Check if x17 contains the expected result. x19 is the signature ptr, x8 is the link ptr, x7 is a temp reg.
  RVTEST_SIGUPD(x19, x8, x7, x17, I_slti_cg_cr_rs1_imm_edges_rs1val_0xaaaaaaaa_immval_0x20, I_slti_cg_cr_rs1_imm_edges_rs1val_0xaaaaaaaa_immval_0x20_str)
    2858:	0009a383          	lw	x7,0(x19)
    285c:	01138863          	beq	x7,x17,286c <I_slti_cg_cr_rs1_imm_edges_rs1val_0xaaaaaaaa_immval_0x20+0x18>
    2860:	4550046f          	jal	x8,34b4 <failedtest_x8_x7>
    2864:	00002854          	.word	0x00002854
    2868:	0000d94b          	.word	0x0000d94b
    286c:	00498993          	addi	x19,x19,4

# Testcase cr_rs1_imm_edges (rs1 = 0xaaaaaaaa, imm = 64)
  RVTEST_TESTDATA_LOAD_INT(x6, x25) # load rs1: x25 = 0xaaaaaaaa
    2870:	00032c83          	lw	x25,0(x6)
    2874:	00430313          	addi	x6,x6,4

00002878 <I_slti_cg_cr_rs1_imm_edges_rs1val_0xaaaaaaaa_immval_0x40>:
I_slti_cg_cr_rs1_imm_edges_rs1val_0xaaaaaaaa_immval_0x40:
  slti x2, x25, 64 # perform operation
    2878:	040ca113          	slti	x2,x25,64
  # Check if x2 contains the expected result. x19 is the signature ptr, x8 is the link ptr, x7 is a temp reg.
  RVTEST_SIGUPD(x19, x8, x7, x2, I_slti_cg_cr_rs1_imm_edges_rs1val_0xaaaaaaaa_immval_0x40, I_slti_cg_cr_rs1_imm_edges_rs1val_0xaaaaaaaa_immval_0x40_str)
    287c:	0009a383          	lw	x7,0(x19)
    2880:	00238863          	beq	x7,x2,2890 <I_slti_cg_cr_rs1_imm_edges_rs1val_0xaaaaaaaa_immval_0x40+0x18>
    2884:	4310046f          	jal	x8,34b4 <failedtest_x8_x7>
    2888:	00002878          	.word	0x00002878
    288c:	0000d9a1          	.word	0x0000d9a1
    2890:	00498993          	addi	x19,x19,4

# Testcase cr_rs1_imm_edges (rs1 = 0xaaaaaaaa, imm = 128)
  RVTEST_TESTDATA_LOAD_INT(x6, x20) # load rs1: x20 = 0xaaaaaaaa
    2894:	00032a03          	lw	x20,0(x6)
    2898:	00430313          	addi	x6,x6,4

0000289c <I_slti_cg_cr_rs1_imm_edges_rs1val_0xaaaaaaaa_immval_0x80>:
I_slti_cg_cr_rs1_imm_edges_rs1val_0xaaaaaaaa_immval_0x80:
  slti x22, x20, 128 # perform operation
    289c:	080a2b13          	slti	x22,x20,128
  # Check if x22 contains the expected result. x19 is the signature ptr, x8 is the link ptr, x7 is a temp reg.
  RVTEST_SIGUPD(x19, x8, x7, x22, I_slti_cg_cr_rs1_imm_edges_rs1val_0xaaaaaaaa_immval_0x80, I_slti_cg_cr_rs1_imm_edges_rs1val_0xaaaaaaaa_immval_0x80_str)
    28a0:	0009a383          	lw	x7,0(x19)
    28a4:	01638863          	beq	x7,x22,28b4 <I_slti_cg_cr_rs1_imm_edges_rs1val_0xaaaaaaaa_immval_0x80+0x18>
    28a8:	40d0046f          	jal	x8,34b4 <failedtest_x8_x7>
    28ac:	0000289c          	.word	0x0000289c
    28b0:	0000d9f7          	.word	0x0000d9f7
    28b4:	00498993          	addi	x19,x19,4

# Testcase cr_rs1_imm_edges (rs1 = 0xaaaaaaaa, imm = 256)
  RVTEST_TESTDATA_LOAD_INT(x6, x14) # load rs1: x14 = 0xaaaaaaaa
    28b8:	00032703          	lw	x14,0(x6)
    28bc:	00430313          	addi	x6,x6,4

000028c0 <I_slti_cg_cr_rs1_imm_edges_rs1val_0xaaaaaaaa_immval_0x100>:
I_slti_cg_cr_rs1_imm_edges_rs1val_0xaaaaaaaa_immval_0x100:
  slti x1, x14, 256 # perform operation
    28c0:	10072093          	slti	x1,x14,256
  # Check if x1 contains the expected result. x19 is the signature ptr, x8 is the link ptr, x7 is a temp reg.
  RVTEST_SIGUPD(x19, x8, x7, x1, I_slti_cg_cr_rs1_imm_edges_rs1val_0xaaaaaaaa_immval_0x100, I_slti_cg_cr_rs1_imm_edges_rs1val_0xaaaaaaaa_immval_0x100_str)
    28c4:	0009a383          	lw	x7,0(x19)
    28c8:	00138863          	beq	x7,x1,28d8 <I_slti_cg_cr_rs1_imm_edges_rs1val_0xaaaaaaaa_immval_0x100+0x18>
    28cc:	3e90046f          	jal	x8,34b4 <failedtest_x8_x7>
    28d0:	000028c0          	.word	0x000028c0
    28d4:	0000da4d          	.word	0x0000da4d
    28d8:	00498993          	addi	x19,x19,4

# Testcase cr_rs1_imm_edges (rs1 = 0xaaaaaaaa, imm = 512)
  RVTEST_TESTDATA_LOAD_INT(x6, x15) # load rs1: x15 = 0xaaaaaaaa
    28dc:	00032783          	lw	x15,0(x6)
    28e0:	00430313          	addi	x6,x6,4

000028e4 <I_slti_cg_cr_rs1_imm_edges_rs1val_0xaaaaaaaa_immval_0x200>:
I_slti_cg_cr_rs1_imm_edges_rs1val_0xaaaaaaaa_immval_0x200:
  slti x11, x15, 512 # perform operation
    28e4:	2007a593          	slti	x11,x15,512
  # Check if x11 contains the expected result. x19 is the signature ptr, x8 is the link ptr, x7 is a temp reg.
  RVTEST_SIGUPD(x19, x8, x7, x11, I_slti_cg_cr_rs1_imm_edges_rs1val_0xaaaaaaaa_immval_0x200, I_slti_cg_cr_rs1_imm_edges_rs1val_0xaaaaaaaa_immval_0x200_str)
    28e8:	0009a383          	lw	x7,0(x19)
    28ec:	00b38863          	beq	x7,x11,28fc <I_slti_cg_cr_rs1_imm_edges_rs1val_0xaaaaaaaa_immval_0x200+0x18>
    28f0:	3c50046f          	jal	x8,34b4 <failedtest_x8_x7>
    28f4:	000028e4          	.word	0x000028e4
    28f8:	0000daa4          	.word	0x0000daa4
    28fc:	00498993          	addi	x19,x19,4

# Testcase cr_rs1_imm_edges (rs1 = 0xaaaaaaaa, imm = 1023)
  RVTEST_TESTDATA_LOAD_INT(x6, x10) # load rs1: x10 = 0xaaaaaaaa
    2900:	00032503          	lw	x10,0(x6)
    2904:	00430313          	addi	x6,x6,4

00002908 <I_slti_cg_cr_rs1_imm_edges_rs1val_0xaaaaaaaa_immval_0x3ff>:
I_slti_cg_cr_rs1_imm_edges_rs1val_0xaaaaaaaa_immval_0x3ff:
  slti x4, x10, 1023 # perform operation
    2908:	3ff52213          	slti	x4,x10,1023
  # Check if x4 contains the expected result. x19 is the signature ptr, x8 is the link ptr, x7 is a temp reg.
  RVTEST_SIGUPD(x19, x8, x7, x4, I_slti_cg_cr_rs1_imm_edges_rs1val_0xaaaaaaaa_immval_0x3ff, I_slti_cg_cr_rs1_imm_edges_rs1val_0xaaaaaaaa_immval_0x3ff_str)
    290c:	0009a383          	lw	x7,0(x19)
    2910:	00438863          	beq	x7,x4,2920 <I_slti_cg_cr_rs1_imm_edges_rs1val_0xaaaaaaaa_immval_0x3ff+0x18>
    2914:	3a10046f          	jal	x8,34b4 <failedtest_x8_x7>
    2918:	00002908          	.word	0x00002908
    291c:	0000dafb          	.word	0x0000dafb
    2920:	00498993          	addi	x19,x19,4

# Testcase cr_rs1_imm_edges (rs1 = 0xaaaaaaaa, imm = 1024)
  RVTEST_TESTDATA_LOAD_INT(x6, x12) # load rs1: x12 = 0xaaaaaaaa
    2924:	00032603          	lw	x12,0(x6)
    2928:	00430313          	addi	x6,x6,4

0000292c <I_slti_cg_cr_rs1_imm_edges_rs1val_0xaaaaaaaa_immval_0x400>:
I_slti_cg_cr_rs1_imm_edges_rs1val_0xaaaaaaaa_immval_0x400:
  slti x18, x12, 1024 # perform operation
    292c:	40062913          	slti	x18,x12,1024
  # Check if x18 contains the expected result. x19 is the signature ptr, x8 is the link ptr, x7 is a temp reg.
  RVTEST_SIGUPD(x19, x8, x7, x18, I_slti_cg_cr_rs1_imm_edges_rs1val_0xaaaaaaaa_immval_0x400, I_slti_cg_cr_rs1_imm_edges_rs1val_0xaaaaaaaa_immval_0x400_str)
    2930:	0009a383          	lw	x7,0(x19)
    2934:	01238863          	beq	x7,x18,2944 <I_slti_cg_cr_rs1_imm_edges_rs1val_0xaaaaaaaa_immval_0x400+0x18>
    2938:	37d0046f          	jal	x8,34b4 <failedtest_x8_x7>
    293c:	0000292c          	.word	0x0000292c
    2940:	0000db52          	.word	0x0000db52
    2944:	00498993          	addi	x19,x19,4

# Testcase cr_rs1_imm_edges (rs1 = 0xaaaaaaaa, imm = 1795)
  RVTEST_TESTDATA_LOAD_INT(x6, x22) # load rs1: x22 = 0xaaaaaaaa
    2948:	00032b03          	lw	x22,0(x6)
    294c:	00430313          	addi	x6,x6,4

00002950 <I_slti_cg_cr_rs1_imm_edges_rs1val_0xaaaaaaaa_immval_0x703>:
I_slti_cg_cr_rs1_imm_edges_rs1val_0xaaaaaaaa_immval_0x703:
  slti x13, x22, 1795 # perform operation
    2950:	703b2693          	slti	x13,x22,1795
  # Check if x13 contains the expected result. x19 is the signature ptr, x8 is the link ptr, x7 is a temp reg.
  RVTEST_SIGUPD(x19, x8, x7, x13, I_slti_cg_cr_rs1_imm_edges_rs1val_0xaaaaaaaa_immval_0x703, I_slti_cg_cr_rs1_imm_edges_rs1val_0xaaaaaaaa_immval_0x703_str)
    2954:	0009a383          	lw	x7,0(x19)
    2958:	00d38863          	beq	x7,x13,2968 <I_slti_cg_cr_rs1_imm_edges_rs1val_0xaaaaaaaa_immval_0x703+0x18>
    295c:	3590046f          	jal	x8,34b4 <failedtest_x8_x7>
    2960:	00002950          	.word	0x00002950
    2964:	0000dba9          	.word	0x0000dba9
    2968:	00498993          	addi	x19,x19,4

# Testcase cr_rs1_imm_edges (rs1 = 0xaaaaaaaa, imm = 2047)
  RVTEST_TESTDATA_LOAD_INT(x6, x22) # load rs1: x22 = 0xaaaaaaaa
    296c:	00032b03          	lw	x22,0(x6)
    2970:	00430313          	addi	x6,x6,4

00002974 <I_slti_cg_cr_rs1_imm_edges_rs1val_0xaaaaaaaa_immval_0x7ff>:
I_slti_cg_cr_rs1_imm_edges_rs1val_0xaaaaaaaa_immval_0x7ff:
  slti x4, x22, 2047 # perform operation
    2974:	7ffb2213          	slti	x4,x22,2047
  # Check if x4 contains the expected result. x19 is the signature ptr, x8 is the link ptr, x7 is a temp reg.
  RVTEST_SIGUPD(x19, x8, x7, x4, I_slti_cg_cr_rs1_imm_edges_rs1val_0xaaaaaaaa_immval_0x7ff, I_slti_cg_cr_rs1_imm_edges_rs1val_0xaaaaaaaa_immval_0x7ff_str)
    2978:	0009a383          	lw	x7,0(x19)
    297c:	00438863          	beq	x7,x4,298c <I_slti_cg_cr_rs1_imm_edges_rs1val_0xaaaaaaaa_immval_0x7ff+0x18>
    2980:	3350046f          	jal	x8,34b4 <failedtest_x8_x7>
    2984:	00002974          	.word	0x00002974
    2988:	0000dc00          	.word	0x0000dc00
    298c:	00498993          	addi	x19,x19,4

# Testcase cr_rs1_imm_edges (rs1 = 0xaaaaaaaa, imm = -2048)
  RVTEST_TESTDATA_LOAD_INT(x6, x9) # load rs1: x9 = 0xaaaaaaaa
    2990:	00032483          	lw	x9,0(x6)
    2994:	00430313          	addi	x6,x6,4

00002998 <I_slti_cg_cr_rs1_imm_edges_rs1val_0xaaaaaaaa_immval_m0x800>:
I_slti_cg_cr_rs1_imm_edges_rs1val_0xaaaaaaaa_immval_m0x800:
  slti x4, x9, -2048 # perform operation
    2998:	8004a213          	slti	x4,x9,-2048
  # Check if x4 contains the expected result. x19 is the signature ptr, x8 is the link ptr, x7 is a temp reg.
  RVTEST_SIGUPD(x19, x8, x7, x4, I_slti_cg_cr_rs1_imm_edges_rs1val_0xaaaaaaaa_immval_m0x800, I_slti_cg_cr_rs1_imm_edges_rs1val_0xaaaaaaaa_immval_m0x800_str)
    299c:	0009a383          	lw	x7,0(x19)
    29a0:	00438863          	beq	x7,x4,29b0 <I_slti_cg_cr_rs1_imm_edges_rs1val_0xaaaaaaaa_immval_m0x800+0x18>
    29a4:	3110046f          	jal	x8,34b4 <failedtest_x8_x7>
    29a8:	00002998          	.word	0x00002998
    29ac:	0000dc57          	.word	0x0000dc57
    29b0:	00498993          	addi	x19,x19,4

# Testcase cr_rs1_imm_edges (rs1 = 0xaaaaaaaa, imm = -2047)
  RVTEST_TESTDATA_LOAD_INT(x6, x5) # load rs1: x5 = 0xaaaaaaaa
    29b4:	00032283          	lw	x5,0(x6)
    29b8:	00430313          	addi	x6,x6,4

000029bc <I_slti_cg_cr_rs1_imm_edges_rs1val_0xaaaaaaaa_immval_m0x7ff>:
I_slti_cg_cr_rs1_imm_edges_rs1val_0xaaaaaaaa_immval_m0x7ff:
  slti x27, x5, -2047 # perform operation
    29bc:	8012ad93          	slti	x27,x5,-2047
  # Check if x27 contains the expected result. x19 is the signature ptr, x8 is the link ptr, x7 is a temp reg.
  RVTEST_SIGUPD(x19, x8, x7, x27, I_slti_cg_cr_rs1_imm_edges_rs1val_0xaaaaaaaa_immval_m0x7ff, I_slti_cg_cr_rs1_imm_edges_rs1val_0xaaaaaaaa_immval_m0x7ff_str)
    29c0:	0009a383          	lw	x7,0(x19)
    29c4:	01b38863          	beq	x7,x27,29d4 <I_slti_cg_cr_rs1_imm_edges_rs1val_0xaaaaaaaa_immval_m0x7ff+0x18>
    29c8:	2ed0046f          	jal	x8,34b4 <failedtest_x8_x7>
    29cc:	000029bc          	.word	0x000029bc
    29d0:	0000dcaf          	.word	0x0000dcaf
    29d4:	00498993          	addi	x19,x19,4

# Testcase cr_rs1_imm_edges (rs1 = 0xaaaaaaaa, imm = -2)
  RVTEST_TESTDATA_LOAD_INT(x6, x10) # load rs1: x10 = 0xaaaaaaaa
    29d8:	00032503          	lw	x10,0(x6)
    29dc:	00430313          	addi	x6,x6,4

000029e0 <I_slti_cg_cr_rs1_imm_edges_rs1val_0xaaaaaaaa_immval_m0x2>:
I_slti_cg_cr_rs1_imm_edges_rs1val_0xaaaaaaaa_immval_m0x2:
  slti x2, x10, -2 # perform operation
    29e0:	ffe52113          	slti	x2,x10,-2
  # Check if x2 contains the expected result. x19 is the signature ptr, x8 is the link ptr, x7 is a temp reg.
  RVTEST_SIGUPD(x19, x8, x7, x2, I_slti_cg_cr_rs1_imm_edges_rs1val_0xaaaaaaaa_immval_m0x2, I_slti_cg_cr_rs1_imm_edges_rs1val_0xaaaaaaaa_immval_m0x2_str)
    29e4:	0009a383          	lw	x7,0(x19)
    29e8:	00238863          	beq	x7,x2,29f8 <I_slti_cg_cr_rs1_imm_edges_rs1val_0xaaaaaaaa_immval_m0x2+0x18>
    29ec:	2c90046f          	jal	x8,34b4 <failedtest_x8_x7>
    29f0:	000029e0          	.word	0x000029e0
    29f4:	0000dd07          	.word	0x0000dd07
    29f8:	00498993          	addi	x19,x19,4

# Testcase cr_rs1_imm_edges (rs1 = 0xaaaaaaaa, imm = -1)
  RVTEST_TESTDATA_LOAD_INT(x6, x15) # load rs1: x15 = 0xaaaaaaaa
    29fc:	00032783          	lw	x15,0(x6)
    2a00:	00430313          	addi	x6,x6,4

00002a04 <I_slti_cg_cr_rs1_imm_edges_rs1val_0xaaaaaaaa_immval_m0x1>:
I_slti_cg_cr_rs1_imm_edges_rs1val_0xaaaaaaaa_immval_m0x1:
  slti x30, x15, -1 # perform operation
    2a04:	fff7af13          	slti	x30,x15,-1
  # Check if x30 contains the expected result. x19 is the signature ptr, x8 is the link ptr, x7 is a temp reg.
  RVTEST_SIGUPD(x19, x8, x7, x30, I_slti_cg_cr_rs1_imm_edges_rs1val_0xaaaaaaaa_immval_m0x1, I_slti_cg_cr_rs1_imm_edges_rs1val_0xaaaaaaaa_immval_m0x1_str)
    2a08:	0009a383          	lw	x7,0(x19)
    2a0c:	01e38863          	beq	x7,x30,2a1c <I_slti_cg_cr_rs1_imm_edges_rs1val_0xaaaaaaaa_immval_m0x1+0x18>
    2a10:	2a50046f          	jal	x8,34b4 <failedtest_x8_x7>
    2a14:	00002a04          	.word	0x00002a04
    2a18:	0000dd5d          	.word	0x0000dd5d
    2a1c:	00498993          	addi	x19,x19,4

# Testcase cr_rs1_imm_edges (rs1 = 0x55555555, imm = 0)
  RVTEST_TESTDATA_LOAD_INT(x6, x23) # load rs1: x23 = 0x55555555
    2a20:	00032b83          	lw	x23,0(x6)
    2a24:	00430313          	addi	x6,x6,4

00002a28 <I_slti_cg_cr_rs1_imm_edges_rs1val_0x55555555_immval_0x0>:
I_slti_cg_cr_rs1_imm_edges_rs1val_0x55555555_immval_0x0:
  slti x5, x23, 0 # perform operation
    2a28:	000ba293          	slti	x5,x23,0
  # Check if x5 contains the expected result. x19 is the signature ptr, x8 is the link ptr, x7 is a temp reg.
  RVTEST_SIGUPD(x19, x8, x7, x5, I_slti_cg_cr_rs1_imm_edges_rs1val_0x55555555_immval_0x0, I_slti_cg_cr_rs1_imm_edges_rs1val_0x55555555_immval_0x0_str)
    2a2c:	0009a383          	lw	x7,0(x19)
    2a30:	00538863          	beq	x7,x5,2a40 <I_slti_cg_cr_rs1_imm_edges_rs1val_0x55555555_immval_0x0+0x18>
    2a34:	2810046f          	jal	x8,34b4 <failedtest_x8_x7>
    2a38:	00002a28          	.word	0x00002a28
    2a3c:	0000ddb3          	.word	0x0000ddb3
    2a40:	00498993          	addi	x19,x19,4

# Testcase cr_rs1_imm_edges (rs1 = 0x55555555, imm = 1)
  RVTEST_TESTDATA_LOAD_INT(x6, x15) # load rs1: x15 = 0x55555555
    2a44:	00032783          	lw	x15,0(x6)
    2a48:	00430313          	addi	x6,x6,4

00002a4c <I_slti_cg_cr_rs1_imm_edges_rs1val_0x55555555_immval_0x1>:
I_slti_cg_cr_rs1_imm_edges_rs1val_0x55555555_immval_0x1:
  slti x13, x15, 1 # perform operation
    2a4c:	0017a693          	slti	x13,x15,1
  # Check if x13 contains the expected result. x19 is the signature ptr, x8 is the link ptr, x7 is a temp reg.
  RVTEST_SIGUPD(x19, x8, x7, x13, I_slti_cg_cr_rs1_imm_edges_rs1val_0x55555555_immval_0x1, I_slti_cg_cr_rs1_imm_edges_rs1val_0x55555555_immval_0x1_str)
    2a50:	0009a383          	lw	x7,0(x19)
    2a54:	00d38863          	beq	x7,x13,2a64 <I_slti_cg_cr_rs1_imm_edges_rs1val_0x55555555_immval_0x1+0x18>
    2a58:	25d0046f          	jal	x8,34b4 <failedtest_x8_x7>
    2a5c:	00002a4c          	.word	0x00002a4c
    2a60:	0000de08          	.word	0x0000de08
    2a64:	00498993          	addi	x19,x19,4

# Testcase cr_rs1_imm_edges (rs1 = 0x55555555, imm = 2)
  RVTEST_TESTDATA_LOAD_INT(x6, x24) # load rs1: x24 = 0x55555555
    2a68:	00032c03          	lw	x24,0(x6)
    2a6c:	00430313          	addi	x6,x6,4

00002a70 <I_slti_cg_cr_rs1_imm_edges_rs1val_0x55555555_immval_0x2>:
I_slti_cg_cr_rs1_imm_edges_rs1val_0x55555555_immval_0x2:
  slti x17, x24, 2 # perform operation
    2a70:	002c2893          	slti	x17,x24,2
  # Check if x17 contains the expected result. x19 is the signature ptr, x8 is the link ptr, x7 is a temp reg.
  RVTEST_SIGUPD(x19, x8, x7, x17, I_slti_cg_cr_rs1_imm_edges_rs1val_0x55555555_immval_0x2, I_slti_cg_cr_rs1_imm_edges_rs1val_0x55555555_immval_0x2_str)
    2a74:	0009a383          	lw	x7,0(x19)
    2a78:	01138863          	beq	x7,x17,2a88 <I_slti_cg_cr_rs1_imm_edges_rs1val_0x55555555_immval_0x2+0x18>
    2a7c:	2390046f          	jal	x8,34b4 <failedtest_x8_x7>
    2a80:	00002a70          	.word	0x00002a70
    2a84:	0000de5d          	.word	0x0000de5d
    2a88:	00498993          	addi	x19,x19,4

# Testcase cr_rs1_imm_edges (rs1 = 0x55555555, imm = 3)
  RVTEST_TESTDATA_LOAD_INT(x6, x24) # load rs1: x24 = 0x55555555
    2a8c:	00032c03          	lw	x24,0(x6)
    2a90:	00430313          	addi	x6,x6,4

00002a94 <I_slti_cg_cr_rs1_imm_edges_rs1val_0x55555555_immval_0x3>:
I_slti_cg_cr_rs1_imm_edges_rs1val_0x55555555_immval_0x3:
  slti x16, x24, 3 # perform operation
    2a94:	003c2813          	slti	x16,x24,3
  # Check if x16 contains the expected result. x19 is the signature ptr, x8 is the link ptr, x7 is a temp reg.
  RVTEST_SIGUPD(x19, x8, x7, x16, I_slti_cg_cr_rs1_imm_edges_rs1val_0x55555555_immval_0x3, I_slti_cg_cr_rs1_imm_edges_rs1val_0x55555555_immval_0x3_str)
    2a98:	0009a383          	lw	x7,0(x19)
    2a9c:	01038863          	beq	x7,x16,2aac <I_slti_cg_cr_rs1_imm_edges_rs1val_0x55555555_immval_0x3+0x18>
    2aa0:	2150046f          	jal	x8,34b4 <failedtest_x8_x7>
    2aa4:	00002a94          	.word	0x00002a94
    2aa8:	0000deb2          	.word	0x0000deb2
    2aac:	00498993          	addi	x19,x19,4

# Testcase cr_rs1_imm_edges (rs1 = 0x55555555, imm = 4)
  RVTEST_TESTDATA_LOAD_INT(x6, x17) # load rs1: x17 = 0x55555555
    2ab0:	00032883          	lw	x17,0(x6)
    2ab4:	00430313          	addi	x6,x6,4

00002ab8 <I_slti_cg_cr_rs1_imm_edges_rs1val_0x55555555_immval_0x4>:
I_slti_cg_cr_rs1_imm_edges_rs1val_0x55555555_immval_0x4:
  slti x21, x17, 4 # perform operation
    2ab8:	0048aa93          	slti	x21,x17,4
  # Check if x21 contains the expected result. x19 is the signature ptr, x8 is the link ptr, x7 is a temp reg.
  RVTEST_SIGUPD(x19, x8, x7, x21, I_slti_cg_cr_rs1_imm_edges_rs1val_0x55555555_immval_0x4, I_slti_cg_cr_rs1_imm_edges_rs1val_0x55555555_immval_0x4_str)
    2abc:	0009a383          	lw	x7,0(x19)
    2ac0:	01538863          	beq	x7,x21,2ad0 <I_slti_cg_cr_rs1_imm_edges_rs1val_0x55555555_immval_0x4+0x18>
    2ac4:	1f10046f          	jal	x8,34b4 <failedtest_x8_x7>
    2ac8:	00002ab8          	.word	0x00002ab8
    2acc:	0000df07          	.word	0x0000df07
    2ad0:	00498993          	addi	x19,x19,4

# Testcase cr_rs1_imm_edges (rs1 = 0x55555555, imm = 8)
  RVTEST_TESTDATA_LOAD_INT(x6, x4) # load rs1: x4 = 0x55555555
    2ad4:	00032203          	lw	x4,0(x6)
    2ad8:	00430313          	addi	x6,x6,4

00002adc <I_slti_cg_cr_rs1_imm_edges_rs1val_0x55555555_immval_0x8>:
I_slti_cg_cr_rs1_imm_edges_rs1val_0x55555555_immval_0x8:
  slti x21, x4, 8 # perform operation
    2adc:	00822a93          	slti	x21,x4,8
  # Check if x21 contains the expected result. x19 is the signature ptr, x8 is the link ptr, x7 is a temp reg.
  RVTEST_SIGUPD(x19, x8, x7, x21, I_slti_cg_cr_rs1_imm_edges_rs1val_0x55555555_immval_0x8, I_slti_cg_cr_rs1_imm_edges_rs1val_0x55555555_immval_0x8_str)
    2ae0:	0009a383          	lw	x7,0(x19)
    2ae4:	01538863          	beq	x7,x21,2af4 <I_slti_cg_cr_rs1_imm_edges_rs1val_0x55555555_immval_0x8+0x18>
    2ae8:	1cd0046f          	jal	x8,34b4 <failedtest_x8_x7>
    2aec:	00002adc          	.word	0x00002adc
    2af0:	0000df5c          	.word	0x0000df5c
    2af4:	00498993          	addi	x19,x19,4

# Testcase cr_rs1_imm_edges (rs1 = 0x55555555, imm = 16)
  RVTEST_TESTDATA_LOAD_INT(x6, x25) # load rs1: x25 = 0x55555555
    2af8:	00032c83          	lw	x25,0(x6)
    2afc:	00430313          	addi	x6,x6,4

00002b00 <I_slti_cg_cr_rs1_imm_edges_rs1val_0x55555555_immval_0x10>:
I_slti_cg_cr_rs1_imm_edges_rs1val_0x55555555_immval_0x10:
  slti x30, x25, 16 # perform operation
    2b00:	010caf13          	slti	x30,x25,16
  # Check if x30 contains the expected result. x19 is the signature ptr, x8 is the link ptr, x7 is a temp reg.
  RVTEST_SIGUPD(x19, x8, x7, x30, I_slti_cg_cr_rs1_imm_edges_rs1val_0x55555555_immval_0x10, I_slti_cg_cr_rs1_imm_edges_rs1val_0x55555555_immval_0x10_str)
    2b04:	0009a383          	lw	x7,0(x19)
    2b08:	01e38863          	beq	x7,x30,2b18 <I_slti_cg_cr_rs1_imm_edges_rs1val_0x55555555_immval_0x10+0x18>
    2b0c:	1a90046f          	jal	x8,34b4 <failedtest_x8_x7>
    2b10:	00002b00          	.word	0x00002b00
    2b14:	0000dfb1          	.word	0x0000dfb1
    2b18:	00498993          	addi	x19,x19,4

# Testcase cr_rs1_imm_edges (rs1 = 0x55555555, imm = 32)
  RVTEST_TESTDATA_LOAD_INT(x6, x3) # load rs1: x3 = 0x55555555
    2b1c:	00032183          	lw	x3,0(x6)
    2b20:	00430313          	addi	x6,x6,4

00002b24 <I_slti_cg_cr_rs1_imm_edges_rs1val_0x55555555_immval_0x20>:
I_slti_cg_cr_rs1_imm_edges_rs1val_0x55555555_immval_0x20:
  slti x11, x3, 32 # perform operation
    2b24:	0201a593          	slti	x11,x3,32
  # Check if x11 contains the expected result. x19 is the signature ptr, x8 is the link ptr, x7 is a temp reg.
  RVTEST_SIGUPD(x19, x8, x7, x11, I_slti_cg_cr_rs1_imm_edges_rs1val_0x55555555_immval_0x20, I_slti_cg_cr_rs1_imm_edges_rs1val_0x55555555_immval_0x20_str)
    2b28:	0009a383          	lw	x7,0(x19)
    2b2c:	00b38863          	beq	x7,x11,2b3c <I_slti_cg_cr_rs1_imm_edges_rs1val_0x55555555_immval_0x20+0x18>
    2b30:	1850046f          	jal	x8,34b4 <failedtest_x8_x7>
    2b34:	00002b24          	.word	0x00002b24
    2b38:	0000e007          	.word	0x0000e007
    2b3c:	00498993          	addi	x19,x19,4

# Testcase cr_rs1_imm_edges (rs1 = 0x55555555, imm = 64)
  RVTEST_TESTDATA_LOAD_INT(x6, x27) # load rs1: x27 = 0x55555555
    2b40:	00032d83          	lw	x27,0(x6)
    2b44:	00430313          	addi	x6,x6,4

00002b48 <I_slti_cg_cr_rs1_imm_edges_rs1val_0x55555555_immval_0x40>:
I_slti_cg_cr_rs1_imm_edges_rs1val_0x55555555_immval_0x40:
  slti x28, x27, 64 # perform operation
    2b48:	040dae13          	slti	x28,x27,64
  # Check if x28 contains the expected result. x19 is the signature ptr, x8 is the link ptr, x7 is a temp reg.
  RVTEST_SIGUPD(x19, x8, x7, x28, I_slti_cg_cr_rs1_imm_edges_rs1val_0x55555555_immval_0x40, I_slti_cg_cr_rs1_imm_edges_rs1val_0x55555555_immval_0x40_str)
    2b4c:	0009a383          	lw	x7,0(x19)
    2b50:	01c38863          	beq	x7,x28,2b60 <I_slti_cg_cr_rs1_imm_edges_rs1val_0x55555555_immval_0x40+0x18>
    2b54:	1610046f          	jal	x8,34b4 <failedtest_x8_x7>
    2b58:	00002b48          	.word	0x00002b48
    2b5c:	0000e05d          	.word	0x0000e05d
    2b60:	00498993          	addi	x19,x19,4

# Testcase cr_rs1_imm_edges (rs1 = 0x55555555, imm = 128)
  RVTEST_TESTDATA_LOAD_INT(x6, x5) # load rs1: x5 = 0x55555555
    2b64:	00032283          	lw	x5,0(x6)
    2b68:	00430313          	addi	x6,x6,4

00002b6c <I_slti_cg_cr_rs1_imm_edges_rs1val_0x55555555_immval_0x80>:
I_slti_cg_cr_rs1_imm_edges_rs1val_0x55555555_immval_0x80:
  slti x23, x5, 128 # perform operation
    2b6c:	0802ab93          	slti	x23,x5,128
  # Check if x23 contains the expected result. x19 is the signature ptr, x8 is the link ptr, x7 is a temp reg.
  RVTEST_SIGUPD(x19, x8, x7, x23, I_slti_cg_cr_rs1_imm_edges_rs1val_0x55555555_immval_0x80, I_slti_cg_cr_rs1_imm_edges_rs1val_0x55555555_immval_0x80_str)
    2b70:	0009a383          	lw	x7,0(x19)
    2b74:	01738863          	beq	x7,x23,2b84 <I_slti_cg_cr_rs1_imm_edges_rs1val_0x55555555_immval_0x80+0x18>
    2b78:	13d0046f          	jal	x8,34b4 <failedtest_x8_x7>
    2b7c:	00002b6c          	.word	0x00002b6c
    2b80:	0000e0b3          	.word	0x0000e0b3
    2b84:	00498993          	addi	x19,x19,4

# Testcase cr_rs1_imm_edges (rs1 = 0x55555555, imm = 256)
  RVTEST_TESTDATA_LOAD_INT(x6, x24) # load rs1: x24 = 0x55555555
    2b88:	00032c03          	lw	x24,0(x6)
    2b8c:	00430313          	addi	x6,x6,4

00002b90 <I_slti_cg_cr_rs1_imm_edges_rs1val_0x55555555_immval_0x100>:
I_slti_cg_cr_rs1_imm_edges_rs1val_0x55555555_immval_0x100:
  slti x5, x24, 256 # perform operation
    2b90:	100c2293          	slti	x5,x24,256
  # Check if x5 contains the expected result. x19 is the signature ptr, x8 is the link ptr, x7 is a temp reg.
  RVTEST_SIGUPD(x19, x8, x7, x5, I_slti_cg_cr_rs1_imm_edges_rs1val_0x55555555_immval_0x100, I_slti_cg_cr_rs1_imm_edges_rs1val_0x55555555_immval_0x100_str)
    2b94:	0009a383          	lw	x7,0(x19)
    2b98:	00538863          	beq	x7,x5,2ba8 <I_slti_cg_cr_rs1_imm_edges_rs1val_0x55555555_immval_0x100+0x18>
    2b9c:	1190046f          	jal	x8,34b4 <failedtest_x8_x7>
    2ba0:	00002b90          	.word	0x00002b90
    2ba4:	0000e109          	.word	0x0000e109
    2ba8:	00498993          	addi	x19,x19,4

# Testcase cr_rs1_imm_edges (rs1 = 0x55555555, imm = 512)
  RVTEST_TESTDATA_LOAD_INT(x6, x20) # load rs1: x20 = 0x55555555
    2bac:	00032a03          	lw	x20,0(x6)
    2bb0:	00430313          	addi	x6,x6,4

00002bb4 <I_slti_cg_cr_rs1_imm_edges_rs1val_0x55555555_immval_0x200>:
I_slti_cg_cr_rs1_imm_edges_rs1val_0x55555555_immval_0x200:
  slti x28, x20, 512 # perform operation
    2bb4:	200a2e13          	slti	x28,x20,512
  # Check if x28 contains the expected result. x19 is the signature ptr, x8 is the link ptr, x7 is a temp reg.
  RVTEST_SIGUPD(x19, x8, x7, x28, I_slti_cg_cr_rs1_imm_edges_rs1val_0x55555555_immval_0x200, I_slti_cg_cr_rs1_imm_edges_rs1val_0x55555555_immval_0x200_str)
    2bb8:	0009a383          	lw	x7,0(x19)
    2bbc:	01c38863          	beq	x7,x28,2bcc <I_slti_cg_cr_rs1_imm_edges_rs1val_0x55555555_immval_0x200+0x18>
    2bc0:	0f50046f          	jal	x8,34b4 <failedtest_x8_x7>
    2bc4:	00002bb4          	.word	0x00002bb4
    2bc8:	0000e160          	.word	0x0000e160
    2bcc:	00498993          	addi	x19,x19,4

# Testcase cr_rs1_imm_edges (rs1 = 0x55555555, imm = 1023)
  RVTEST_TESTDATA_LOAD_INT(x6, x9) # load rs1: x9 = 0x55555555
    2bd0:	00032483          	lw	x9,0(x6)
    2bd4:	00430313          	addi	x6,x6,4

00002bd8 <I_slti_cg_cr_rs1_imm_edges_rs1val_0x55555555_immval_0x3ff>:
I_slti_cg_cr_rs1_imm_edges_rs1val_0x55555555_immval_0x3ff:
  slti x11, x9, 1023 # perform operation
    2bd8:	3ff4a593          	slti	x11,x9,1023
  # Check if x11 contains the expected result. x19 is the signature ptr, x8 is the link ptr, x7 is a temp reg.
  RVTEST_SIGUPD(x19, x8, x7, x11, I_slti_cg_cr_rs1_imm_edges_rs1val_0x55555555_immval_0x3ff, I_slti_cg_cr_rs1_imm_edges_rs1val_0x55555555_immval_0x3ff_str)
    2bdc:	0009a383          	lw	x7,0(x19)
    2be0:	00b38863          	beq	x7,x11,2bf0 <I_slti_cg_cr_rs1_imm_edges_rs1val_0x55555555_immval_0x3ff+0x18>
    2be4:	0d10046f          	jal	x8,34b4 <failedtest_x8_x7>
    2be8:	00002bd8          	.word	0x00002bd8
    2bec:	0000e1b7          	.word	0x0000e1b7
    2bf0:	00498993          	addi	x19,x19,4

# Testcase cr_rs1_imm_edges (rs1 = 0x55555555, imm = 1024)
  RVTEST_TESTDATA_LOAD_INT(x6, x16) # load rs1: x16 = 0x55555555
    2bf4:	00032803          	lw	x16,0(x6)
    2bf8:	00430313          	addi	x6,x6,4

00002bfc <I_slti_cg_cr_rs1_imm_edges_rs1val_0x55555555_immval_0x400>:
I_slti_cg_cr_rs1_imm_edges_rs1val_0x55555555_immval_0x400:
  slti x10, x16, 1024 # perform operation
    2bfc:	40082513          	slti	x10,x16,1024
  # Check if x10 contains the expected result. x19 is the signature ptr, x8 is the link ptr, x7 is a temp reg.
  RVTEST_SIGUPD(x19, x8, x7, x10, I_slti_cg_cr_rs1_imm_edges_rs1val_0x55555555_immval_0x400, I_slti_cg_cr_rs1_imm_edges_rs1val_0x55555555_immval_0x400_str)
    2c00:	0009a383          	lw	x7,0(x19)
    2c04:	00a38863          	beq	x7,x10,2c14 <I_slti_cg_cr_rs1_imm_edges_rs1val_0x55555555_immval_0x400+0x18>
    2c08:	0ad0046f          	jal	x8,34b4 <failedtest_x8_x7>
    2c0c:	00002bfc          	.word	0x00002bfc
    2c10:	0000e20e          	.word	0x0000e20e
    2c14:	00498993          	addi	x19,x19,4

# Testcase cr_rs1_imm_edges (rs1 = 0x55555555, imm = 1795)
  RVTEST_TESTDATA_LOAD_INT(x6, x21) # load rs1: x21 = 0x55555555
    2c18:	00032a83          	lw	x21,0(x6)
    2c1c:	00430313          	addi	x6,x6,4

00002c20 <I_slti_cg_cr_rs1_imm_edges_rs1val_0x55555555_immval_0x703>:
I_slti_cg_cr_rs1_imm_edges_rs1val_0x55555555_immval_0x703:
  slti x18, x21, 1795 # perform operation
    2c20:	703aa913          	slti	x18,x21,1795
  # Check if x18 contains the expected result. x19 is the signature ptr, x8 is the link ptr, x7 is a temp reg.
  RVTEST_SIGUPD(x19, x8, x7, x18, I_slti_cg_cr_rs1_imm_edges_rs1val_0x55555555_immval_0x703, I_slti_cg_cr_rs1_imm_edges_rs1val_0x55555555_immval_0x703_str)
    2c24:	0009a383          	lw	x7,0(x19)
    2c28:	01238863          	beq	x7,x18,2c38 <I_slti_cg_cr_rs1_imm_edges_rs1val_0x55555555_immval_0x703+0x18>
    2c2c:	0890046f          	jal	x8,34b4 <failedtest_x8_x7>
    2c30:	00002c20          	.word	0x00002c20
    2c34:	0000e265          	.word	0x0000e265
    2c38:	00498993          	addi	x19,x19,4

# Testcase cr_rs1_imm_edges (rs1 = 0x55555555, imm = 2047)
  RVTEST_TESTDATA_LOAD_INT(x6, x24) # load rs1: x24 = 0x55555555
    2c3c:	00032c03          	lw	x24,0(x6)
    2c40:	00430313          	addi	x6,x6,4

00002c44 <I_slti_cg_cr_rs1_imm_edges_rs1val_0x55555555_immval_0x7ff>:
I_slti_cg_cr_rs1_imm_edges_rs1val_0x55555555_immval_0x7ff:
  slti x20, x24, 2047 # perform operation
    2c44:	7ffc2a13          	slti	x20,x24,2047
  # Check if x20 contains the expected result. x19 is the signature ptr, x8 is the link ptr, x7 is a temp reg.
  RVTEST_SIGUPD(x19, x8, x7, x20, I_slti_cg_cr_rs1_imm_edges_rs1val_0x55555555_immval_0x7ff, I_slti_cg_cr_rs1_imm_edges_rs1val_0x55555555_immval_0x7ff_str)
    2c48:	0009a383          	lw	x7,0(x19)
    2c4c:	01438863          	beq	x7,x20,2c5c <I_slti_cg_cr_rs1_imm_edges_rs1val_0x55555555_immval_0x7ff+0x18>
    2c50:	0650046f          	jal	x8,34b4 <failedtest_x8_x7>
    2c54:	00002c44          	.word	0x00002c44
    2c58:	0000e2bc          	.word	0x0000e2bc
    2c5c:	00498993          	addi	x19,x19,4

# Testcase cr_rs1_imm_edges (rs1 = 0x55555555, imm = -2048)
  RVTEST_TESTDATA_LOAD_INT(x6, x10) # load rs1: x10 = 0x55555555
    2c60:	00032503          	lw	x10,0(x6)
    2c64:	00430313          	addi	x6,x6,4

00002c68 <I_slti_cg_cr_rs1_imm_edges_rs1val_0x55555555_immval_m0x800>:
I_slti_cg_cr_rs1_imm_edges_rs1val_0x55555555_immval_m0x800:
  slti x17, x10, -2048 # perform operation
    2c68:	80052893          	slti	x17,x10,-2048
  # Check if x17 contains the expected result. x19 is the signature ptr, x8 is the link ptr, x7 is a temp reg.
  RVTEST_SIGUPD(x19, x8, x7, x17, I_slti_cg_cr_rs1_imm_edges_rs1val_0x55555555_immval_m0x800, I_slti_cg_cr_rs1_imm_edges_rs1val_0x55555555_immval_m0x800_str)
    2c6c:	0009a383          	lw	x7,0(x19)
    2c70:	01138863          	beq	x7,x17,2c80 <I_slti_cg_cr_rs1_imm_edges_rs1val_0x55555555_immval_m0x800+0x18>
    2c74:	0410046f          	jal	x8,34b4 <failedtest_x8_x7>
    2c78:	00002c68          	.word	0x00002c68
    2c7c:	0000e313          	.word	0x0000e313
    2c80:	00498993          	addi	x19,x19,4

# Testcase cr_rs1_imm_edges (rs1 = 0x55555555, imm = -2047)
  RVTEST_TESTDATA_LOAD_INT(x6, x11) # load rs1: x11 = 0x55555555
    2c84:	00032583          	lw	x11,0(x6)
    2c88:	00430313          	addi	x6,x6,4

00002c8c <I_slti_cg_cr_rs1_imm_edges_rs1val_0x55555555_immval_m0x7ff>:
I_slti_cg_cr_rs1_imm_edges_rs1val_0x55555555_immval_m0x7ff:
  slti x5, x11, -2047 # perform operation
    2c8c:	8015a293          	slti	x5,x11,-2047
  # Check if x5 contains the expected result. x19 is the signature ptr, x8 is the link ptr, x7 is a temp reg.
  RVTEST_SIGUPD(x19, x8, x7, x5, I_slti_cg_cr_rs1_imm_edges_rs1val_0x55555555_immval_m0x7ff, I_slti_cg_cr_rs1_imm_edges_rs1val_0x55555555_immval_m0x7ff_str)
    2c90:	0009a383          	lw	x7,0(x19)
    2c94:	00538863          	beq	x7,x5,2ca4 <I_slti_cg_cr_rs1_imm_edges_rs1val_0x55555555_immval_m0x7ff+0x18>
    2c98:	01d0046f          	jal	x8,34b4 <failedtest_x8_x7>
    2c9c:	00002c8c          	.word	0x00002c8c
    2ca0:	0000e36b          	.word	0x0000e36b
    2ca4:	00498993          	addi	x19,x19,4

# Testcase cr_rs1_imm_edges (rs1 = 0x55555555, imm = -2)
  RVTEST_TESTDATA_LOAD_INT(x6, x31) # load rs1: x31 = 0x55555555
    2ca8:	00032f83          	lw	x31,0(x6)
    2cac:	00430313          	addi	x6,x6,4

00002cb0 <I_slti_cg_cr_rs1_imm_edges_rs1val_0x55555555_immval_m0x2>:
I_slti_cg_cr_rs1_imm_edges_rs1val_0x55555555_immval_m0x2:
  slti x20, x31, -2 # perform operation
    2cb0:	ffefaa13          	slti	x20,x31,-2
  # Check if x20 contains the expected result. x19 is the signature ptr, x8 is the link ptr, x7 is a temp reg.
  RVTEST_SIGUPD(x19, x8, x7, x20, I_slti_cg_cr_rs1_imm_edges_rs1val_0x55555555_immval_m0x2, I_slti_cg_cr_rs1_imm_edges_rs1val_0x55555555_immval_m0x2_str)
    2cb4:	0009a383          	lw	x7,0(x19)
    2cb8:	01438863          	beq	x7,x20,2cc8 <I_slti_cg_cr_rs1_imm_edges_rs1val_0x55555555_immval_m0x2+0x18>
    2cbc:	7f80046f          	jal	x8,34b4 <failedtest_x8_x7>
    2cc0:	00002cb0          	.word	0x00002cb0
    2cc4:	0000e3c3          	.word	0x0000e3c3
    2cc8:	00498993          	addi	x19,x19,4

# Testcase cr_rs1_imm_edges (rs1 = 0x55555555, imm = -1)
  RVTEST_TESTDATA_LOAD_INT(x6, x5) # load rs1: x5 = 0x55555555
    2ccc:	00032283          	lw	x5,0(x6)
    2cd0:	00430313          	addi	x6,x6,4

00002cd4 <I_slti_cg_cr_rs1_imm_edges_rs1val_0x55555555_immval_m0x1>:
I_slti_cg_cr_rs1_imm_edges_rs1val_0x55555555_immval_m0x1:
  slti x17, x5, -1 # perform operation
    2cd4:	fff2a893          	slti	x17,x5,-1
  # Check if x17 contains the expected result. x19 is the signature ptr, x8 is the link ptr, x7 is a temp reg.
  RVTEST_SIGUPD(x19, x8, x7, x17, I_slti_cg_cr_rs1_imm_edges_rs1val_0x55555555_immval_m0x1, I_slti_cg_cr_rs1_imm_edges_rs1val_0x55555555_immval_m0x1_str)
    2cd8:	0009a383          	lw	x7,0(x19)
    2cdc:	01138863          	beq	x7,x17,2cec <I_slti_cg_cr_rs1_imm_edges_rs1val_0x55555555_immval_m0x1+0x18>
    2ce0:	7d40046f          	jal	x8,34b4 <failedtest_x8_x7>
    2ce4:	00002cd4          	.word	0x00002cd4
    2ce8:	0000e419          	.word	0x0000e419
    2cec:	00498993          	addi	x19,x19,4
/////////////////////////////////
// cmp_rd_rs1
/////////////////////////////////

# Testcase cmp_rd_rs1 (Test rd = rs1 = x0)
  RVTEST_TESTDATA_LOAD_INT(x6, x0) # load rs1: x0 = 0x49d91d7b
    2cf0:	00032003          	lw	x0,0(x6)
    2cf4:	00430313          	addi	x6,x6,4

00002cf8 <I_slti_cg_cmp_rd_rs1_b0>:
I_slti_cg_cmp_rd_rs1_b0:
  slti x0, x0, 1190 # perform operation
    2cf8:	4a602013          	slti	x0,x0,1190
  # Check if x0 contains the expected result. x19 is the signature ptr, x8 is the link ptr, x7 is a temp reg.
  RVTEST_SIGUPD(x19, x8, x7, x0, I_slti_cg_cmp_rd_rs1_b0, I_slti_cg_cmp_rd_rs1_b0_str)
    2cfc:	0009a383          	lw	x7,0(x19)
    2d00:	00038863          	beq	x7,x0,2d10 <I_slti_cg_cmp_rd_rs1_b0+0x18>
    2d04:	7b00046f          	jal	x8,34b4 <failedtest_x8_x7>
    2d08:	00002cf8          	.word	0x00002cf8
    2d0c:	0000e46f          	.word	0x0000e46f
    2d10:	00498993          	addi	x19,x19,4

# Testcase cmp_rd_rs1 (Test rd = rs1 = x1)
  RVTEST_TESTDATA_LOAD_INT(x6, x1) # load rs1: x1 = 0x6b779fe0
    2d14:	00032083          	lw	x1,0(x6)
    2d18:	00430313          	addi	x6,x6,4

00002d1c <I_slti_cg_cmp_rd_rs1_b1>:
I_slti_cg_cmp_rd_rs1_b1:
  slti x1, x1, 580 # perform operation
    2d1c:	2440a093          	slti	x1,x1,580
  # Check if x1 contains the expected result. x19 is the signature ptr, x8 is the link ptr, x7 is a temp reg.
  RVTEST_SIGUPD(x19, x8, x7, x1, I_slti_cg_cmp_rd_rs1_b1, I_slti_cg_cmp_rd_rs1_b1_str)
    2d20:	0009a383          	lw	x7,0(x19)
    2d24:	00138863          	beq	x7,x1,2d34 <I_slti_cg_cmp_rd_rs1_b1+0x18>
    2d28:	78c0046f          	jal	x8,34b4 <failedtest_x8_x7>
    2d2c:	00002d1c          	.word	0x00002d1c
    2d30:	0000e4a3          	.word	0x0000e4a3
    2d34:	00498993          	addi	x19,x19,4

# Testcase cmp_rd_rs1 (Test rd = rs1 = x2)
  RVTEST_TESTDATA_LOAD_INT(x6, x2) # load rs1: x2 = 0x9572f926
    2d38:	00032103          	lw	x2,0(x6)
    2d3c:	00430313          	addi	x6,x6,4

00002d40 <I_slti_cg_cmp_rd_rs1_b2>:
I_slti_cg_cmp_rd_rs1_b2:
  slti x2, x2, 264 # perform operation
    2d40:	10812113          	slti	x2,x2,264
  # Check if x2 contains the expected result. x19 is the signature ptr, x8 is the link ptr, x7 is a temp reg.
  RVTEST_SIGUPD(x19, x8, x7, x2, I_slti_cg_cmp_rd_rs1_b2, I_slti_cg_cmp_rd_rs1_b2_str)
    2d44:	0009a383          	lw	x7,0(x19)
    2d48:	00238863          	beq	x7,x2,2d58 <I_slti_cg_cmp_rd_rs1_b2+0x18>
    2d4c:	7680046f          	jal	x8,34b4 <failedtest_x8_x7>
    2d50:	00002d40          	.word	0x00002d40
    2d54:	0000e4d7          	.word	0x0000e4d7
    2d58:	00498993          	addi	x19,x19,4

# Testcase cmp_rd_rs1 (Test rd = rs1 = x3)
  RVTEST_TESTDATA_LOAD_INT(x6, x3) # load rs1: x3 = 0x59ab8546
    2d5c:	00032183          	lw	x3,0(x6)
    2d60:	00430313          	addi	x6,x6,4

00002d64 <I_slti_cg_cmp_rd_rs1_b3>:
I_slti_cg_cmp_rd_rs1_b3:
  slti x3, x3, -144 # perform operation
    2d64:	f701a193          	slti	x3,x3,-144
  # Check if x3 contains the expected result. x19 is the signature ptr, x8 is the link ptr, x7 is a temp reg.
  RVTEST_SIGUPD(x19, x8, x7, x3, I_slti_cg_cmp_rd_rs1_b3, I_slti_cg_cmp_rd_rs1_b3_str)
    2d68:	0009a383          	lw	x7,0(x19)
    2d6c:	00338863          	beq	x7,x3,2d7c <I_slti_cg_cmp_rd_rs1_b3+0x18>
    2d70:	7440046f          	jal	x8,34b4 <failedtest_x8_x7>
    2d74:	00002d64          	.word	0x00002d64
    2d78:	0000e50b          	.word	0x0000e50b
    2d7c:	00498993          	addi	x19,x19,4

# Testcase cmp_rd_rs1 (Test rd = rs1 = x4)
  RVTEST_TESTDATA_LOAD_INT(x6, x4) # load rs1: x4 = 0xc04c820e
    2d80:	00032203          	lw	x4,0(x6)
    2d84:	00430313          	addi	x6,x6,4

00002d88 <I_slti_cg_cmp_rd_rs1_b4>:
I_slti_cg_cmp_rd_rs1_b4:
  slti x4, x4, -560 # perform operation
    2d88:	dd022213          	slti	x4,x4,-560
  # Check if x4 contains the expected result. x19 is the signature ptr, x8 is the link ptr, x7 is a temp reg.
  RVTEST_SIGUPD(x19, x8, x7, x4, I_slti_cg_cmp_rd_rs1_b4, I_slti_cg_cmp_rd_rs1_b4_str)
    2d8c:	0009a383          	lw	x7,0(x19)
    2d90:	00438863          	beq	x7,x4,2da0 <I_slti_cg_cmp_rd_rs1_b4+0x18>
    2d94:	7200046f          	jal	x8,34b4 <failedtest_x8_x7>
    2d98:	00002d88          	.word	0x00002d88
    2d9c:	0000e53f          	.word	0x0000e53f
    2da0:	00498993          	addi	x19,x19,4

# Testcase cmp_rd_rs1 (Test rd = rs1 = x5)
  RVTEST_TESTDATA_LOAD_INT(x6, x5) # load rs1: x5 = 0xf4682ab2
    2da4:	00032283          	lw	x5,0(x6)
    2da8:	00430313          	addi	x6,x6,4

00002dac <I_slti_cg_cmp_rd_rs1_b5>:
I_slti_cg_cmp_rd_rs1_b5:
  slti x5, x5, -680 # perform operation
    2dac:	d582a293          	slti	x5,x5,-680
  # Check if x5 contains the expected result. x19 is the signature ptr, x8 is the link ptr, x7 is a temp reg.
  RVTEST_SIGUPD(x19, x8, x7, x5, I_slti_cg_cmp_rd_rs1_b5, I_slti_cg_cmp_rd_rs1_b5_str)
    2db0:	0009a383          	lw	x7,0(x19)
    2db4:	00538863          	beq	x7,x5,2dc4 <I_slti_cg_cmp_rd_rs1_b5+0x18>
    2db8:	6fc0046f          	jal	x8,34b4 <failedtest_x8_x7>
    2dbc:	00002dac          	.word	0x00002dac
    2dc0:	0000e573          	.word	0x0000e573
    2dc4:	00498993          	addi	x19,x19,4

  mv x25, x6 # switch data pointer register to avoid conflict with test
    2dc8:	00030c93          	addi	x25,x6,0
# Testcase cmp_rd_rs1 (Test rd = rs1 = x6)
  RVTEST_TESTDATA_LOAD_INT(x25, x6) # load rs1: x6 = 0xe57a87d3
    2dcc:	000ca303          	lw	x6,0(x25)
    2dd0:	004c8c93          	addi	x25,x25,4

00002dd4 <I_slti_cg_cmp_rd_rs1_b6>:
I_slti_cg_cmp_rd_rs1_b6:
  slti x6, x6, 1486 # perform operation
    2dd4:	5ce32313          	slti	x6,x6,1486
  # Check if x6 contains the expected result. x19 is the signature ptr, x8 is the link ptr, x7 is a temp reg.
  RVTEST_SIGUPD(x19, x8, x7, x6, I_slti_cg_cmp_rd_rs1_b6, I_slti_cg_cmp_rd_rs1_b6_str)
    2dd8:	0009a383          	lw	x7,0(x19)
    2ddc:	00638863          	beq	x7,x6,2dec <I_slti_cg_cmp_rd_rs1_b6+0x18>
    2de0:	6d40046f          	jal	x8,34b4 <failedtest_x8_x7>
    2de4:	00002dd4          	.word	0x00002dd4
    2de8:	0000e5a7          	.word	0x0000e5a7
    2dec:	00498993          	addi	x19,x19,4

  mv x4, x7 # switch temp register to avoid conflict with test
    2df0:	00038213          	addi	x4,x7,0
  mv x5, x8 # switch link pointer register to avoid conflict with test
    2df4:	00040293          	addi	x5,x8,0
# Testcase cmp_rd_rs1 (Test rd = rs1 = x7)
  RVTEST_TESTDATA_LOAD_INT(x25, x7) # load rs1: x7 = 0x319c30f6
    2df8:	000ca383          	lw	x7,0(x25)
    2dfc:	004c8c93          	addi	x25,x25,4

00002e00 <I_slti_cg_cmp_rd_rs1_b7>:
I_slti_cg_cmp_rd_rs1_b7:
  slti x7, x7, 43 # perform operation
    2e00:	02b3a393          	slti	x7,x7,43
  # Check if x7 contains the expected result. x19 is the signature ptr, x5 is the link ptr, x4 is a temp reg.
  RVTEST_SIGUPD(x19, x5, x4, x7, I_slti_cg_cmp_rd_rs1_b7, I_slti_cg_cmp_rd_rs1_b7_str)
    2e04:	0009a203          	lw	x4,0(x19)
    2e08:	00720863          	beq	x4,x7,2e18 <I_slti_cg_cmp_rd_rs1_b7+0x18>
    2e0c:	690002ef          	jal	x5,349c <failedtest_x5_x4>
    2e10:	00002e00          	.word	0x00002e00
    2e14:	0000e5db          	.word	0x0000e5db
    2e18:	00498993          	addi	x19,x19,4

# Testcase cmp_rd_rs1 (Test rd = rs1 = x8)
  RVTEST_TESTDATA_LOAD_INT(x25, x8) # load rs1: x8 = 0x0aa809fe
    2e1c:	000ca403          	lw	x8,0(x25)
    2e20:	004c8c93          	addi	x25,x25,4

00002e24 <I_slti_cg_cmp_rd_rs1_b8>:
I_slti_cg_cmp_rd_rs1_b8:
  slti x8, x8, 1699 # perform operation
    2e24:	6a342413          	slti	x8,x8,1699
  # Check if x8 contains the expected result. x19 is the signature ptr, x5 is the link ptr, x4 is a temp reg.
  RVTEST_SIGUPD(x19, x5, x4, x8, I_slti_cg_cmp_rd_rs1_b8, I_slti_cg_cmp_rd_rs1_b8_str)
    2e28:	0009a203          	lw	x4,0(x19)
    2e2c:	00820863          	beq	x4,x8,2e3c <I_slti_cg_cmp_rd_rs1_b8+0x18>
    2e30:	66c002ef          	jal	x5,349c <failedtest_x5_x4>
    2e34:	00002e24          	.word	0x00002e24
    2e38:	0000e60f          	.word	0x0000e60f
    2e3c:	00498993          	addi	x19,x19,4

# Testcase cmp_rd_rs1 (Test rd = rs1 = x9)
  RVTEST_TESTDATA_LOAD_INT(x25, x9) # load rs1: x9 = 0xf833974e
    2e40:	000ca483          	lw	x9,0(x25)
    2e44:	004c8c93          	addi	x25,x25,4

00002e48 <I_slti_cg_cmp_rd_rs1_b9>:
I_slti_cg_cmp_rd_rs1_b9:
  slti x9, x9, 1398 # perform operation
    2e48:	5764a493          	slti	x9,x9,1398
  # Check if x9 contains the expected result. x19 is the signature ptr, x5 is the link ptr, x4 is a temp reg.
  RVTEST_SIGUPD(x19, x5, x4, x9, I_slti_cg_cmp_rd_rs1_b9, I_slti_cg_cmp_rd_rs1_b9_str)
    2e4c:	0009a203          	lw	x4,0(x19)
    2e50:	00920863          	beq	x4,x9,2e60 <I_slti_cg_cmp_rd_rs1_b9+0x18>
    2e54:	648002ef          	jal	x5,349c <failedtest_x5_x4>
    2e58:	00002e48          	.word	0x00002e48
    2e5c:	0000e643          	.word	0x0000e643
    2e60:	00498993          	addi	x19,x19,4

# Testcase cmp_rd_rs1 (Test rd = rs1 = x10)
  RVTEST_TESTDATA_LOAD_INT(x25, x10) # load rs1: x10 = 0x429db1b7
    2e64:	000ca503          	lw	x10,0(x25)
    2e68:	004c8c93          	addi	x25,x25,4

00002e6c <I_slti_cg_cmp_rd_rs1_b10>:
I_slti_cg_cmp_rd_rs1_b10:
  slti x10, x10, -804 # perform operation
    2e6c:	cdc52513          	slti	x10,x10,-804
  # Check if x10 contains the expected result. x19 is the signature ptr, x5 is the link ptr, x4 is a temp reg.
  RVTEST_SIGUPD(x19, x5, x4, x10, I_slti_cg_cmp_rd_rs1_b10, I_slti_cg_cmp_rd_rs1_b10_str)
    2e70:	0009a203          	lw	x4,0(x19)
    2e74:	00a20863          	beq	x4,x10,2e84 <I_slti_cg_cmp_rd_rs1_b10+0x18>
    2e78:	624002ef          	jal	x5,349c <failedtest_x5_x4>
    2e7c:	00002e6c          	.word	0x00002e6c
    2e80:	0000e677          	.word	0x0000e677
    2e84:	00498993          	addi	x19,x19,4

# Testcase cmp_rd_rs1 (Test rd = rs1 = x11)
  RVTEST_TESTDATA_LOAD_INT(x25, x11) # load rs1: x11 = 0x89a02a07
    2e88:	000ca583          	lw	x11,0(x25)
    2e8c:	004c8c93          	addi	x25,x25,4

00002e90 <I_slti_cg_cmp_rd_rs1_b11>:
I_slti_cg_cmp_rd_rs1_b11:
  slti x11, x11, -920 # perform operation
    2e90:	c685a593          	slti	x11,x11,-920
  # Check if x11 contains the expected result. x19 is the signature ptr, x5 is the link ptr, x4 is a temp reg.
  RVTEST_SIGUPD(x19, x5, x4, x11, I_slti_cg_cmp_rd_rs1_b11, I_slti_cg_cmp_rd_rs1_b11_str)
    2e94:	0009a203          	lw	x4,0(x19)
    2e98:	00b20863          	beq	x4,x11,2ea8 <I_slti_cg_cmp_rd_rs1_b11+0x18>
    2e9c:	600002ef          	jal	x5,349c <failedtest_x5_x4>
    2ea0:	00002e90          	.word	0x00002e90
    2ea4:	0000e6ac          	.word	0x0000e6ac
    2ea8:	00498993          	addi	x19,x19,4

# Testcase cmp_rd_rs1 (Test rd = rs1 = x12)
  RVTEST_TESTDATA_LOAD_INT(x25, x12) # load rs1: x12 = 0x57f25955
    2eac:	000ca603          	lw	x12,0(x25)
    2eb0:	004c8c93          	addi	x25,x25,4

00002eb4 <I_slti_cg_cmp_rd_rs1_b12>:
I_slti_cg_cmp_rd_rs1_b12:
  slti x12, x12, 203 # perform operation
    2eb4:	0cb62613          	slti	x12,x12,203
  # Check if x12 contains the expected result. x19 is the signature ptr, x5 is the link ptr, x4 is a temp reg.
  RVTEST_SIGUPD(x19, x5, x4, x12, I_slti_cg_cmp_rd_rs1_b12, I_slti_cg_cmp_rd_rs1_b12_str)
    2eb8:	0009a203          	lw	x4,0(x19)
    2ebc:	00c20863          	beq	x4,x12,2ecc <I_slti_cg_cmp_rd_rs1_b12+0x18>
    2ec0:	5dc002ef          	jal	x5,349c <failedtest_x5_x4>
    2ec4:	00002eb4          	.word	0x00002eb4
    2ec8:	0000e6e1          	.word	0x0000e6e1
    2ecc:	00498993          	addi	x19,x19,4

# Testcase cmp_rd_rs1 (Test rd = rs1 = x13)
  RVTEST_TESTDATA_LOAD_INT(x25, x13) # load rs1: x13 = 0x2d5baa0f
    2ed0:	000ca683          	lw	x13,0(x25)
    2ed4:	004c8c93          	addi	x25,x25,4

00002ed8 <I_slti_cg_cmp_rd_rs1_b13>:
I_slti_cg_cmp_rd_rs1_b13:
  slti x13, x13, 1541 # perform operation
    2ed8:	6056a693          	slti	x13,x13,1541
  # Check if x13 contains the expected result. x19 is the signature ptr, x5 is the link ptr, x4 is a temp reg.
  RVTEST_SIGUPD(x19, x5, x4, x13, I_slti_cg_cmp_rd_rs1_b13, I_slti_cg_cmp_rd_rs1_b13_str)
    2edc:	0009a203          	lw	x4,0(x19)
    2ee0:	00d20863          	beq	x4,x13,2ef0 <I_slti_cg_cmp_rd_rs1_b13+0x18>
    2ee4:	5b8002ef          	jal	x5,349c <failedtest_x5_x4>
    2ee8:	00002ed8          	.word	0x00002ed8
    2eec:	0000e716          	.word	0x0000e716
    2ef0:	00498993          	addi	x19,x19,4

# Testcase cmp_rd_rs1 (Test rd = rs1 = x14)
  RVTEST_TESTDATA_LOAD_INT(x25, x14) # load rs1: x14 = 0xb38ca0b5
    2ef4:	000ca703          	lw	x14,0(x25)
    2ef8:	004c8c93          	addi	x25,x25,4

00002efc <I_slti_cg_cmp_rd_rs1_b14>:
I_slti_cg_cmp_rd_rs1_b14:
  slti x14, x14, -112 # perform operation
    2efc:	f9072713          	slti	x14,x14,-112
  # Check if x14 contains the expected result. x19 is the signature ptr, x5 is the link ptr, x4 is a temp reg.
  RVTEST_SIGUPD(x19, x5, x4, x14, I_slti_cg_cmp_rd_rs1_b14, I_slti_cg_cmp_rd_rs1_b14_str)
    2f00:	0009a203          	lw	x4,0(x19)
    2f04:	00e20863          	beq	x4,x14,2f14 <I_slti_cg_cmp_rd_rs1_b14+0x18>
    2f08:	594002ef          	jal	x5,349c <failedtest_x5_x4>
    2f0c:	00002efc          	.word	0x00002efc
    2f10:	0000e74b          	.word	0x0000e74b
    2f14:	00498993          	addi	x19,x19,4

# Testcase cmp_rd_rs1 (Test rd = rs1 = x15)
  RVTEST_TESTDATA_LOAD_INT(x25, x15) # load rs1: x15 = 0x344540aa
    2f18:	000ca783          	lw	x15,0(x25)
    2f1c:	004c8c93          	addi	x25,x25,4

00002f20 <I_slti_cg_cmp_rd_rs1_b15>:
I_slti_cg_cmp_rd_rs1_b15:
  slti x15, x15, 1559 # perform operation
    2f20:	6177a793          	slti	x15,x15,1559
  # Check if x15 contains the expected result. x19 is the signature ptr, x5 is the link ptr, x4 is a temp reg.
  RVTEST_SIGUPD(x19, x5, x4, x15, I_slti_cg_cmp_rd_rs1_b15, I_slti_cg_cmp_rd_rs1_b15_str)
    2f24:	0009a203          	lw	x4,0(x19)
    2f28:	00f20863          	beq	x4,x15,2f38 <I_slti_cg_cmp_rd_rs1_b15+0x18>
    2f2c:	570002ef          	jal	x5,349c <failedtest_x5_x4>
    2f30:	00002f20          	.word	0x00002f20
    2f34:	0000e780          	.word	0x0000e780
    2f38:	00498993          	addi	x19,x19,4

# Testcase cmp_rd_rs1 (Test rd = rs1 = x16)
  RVTEST_TESTDATA_LOAD_INT(x25, x16) # load rs1: x16 = 0xf867040c
    2f3c:	000ca803          	lw	x16,0(x25)
    2f40:	004c8c93          	addi	x25,x25,4

00002f44 <I_slti_cg_cmp_rd_rs1_b16>:
I_slti_cg_cmp_rd_rs1_b16:
  slti x16, x16, -53 # perform operation
    2f44:	fcb82813          	slti	x16,x16,-53
  # Check if x16 contains the expected result. x19 is the signature ptr, x5 is the link ptr, x4 is a temp reg.
  RVTEST_SIGUPD(x19, x5, x4, x16, I_slti_cg_cmp_rd_rs1_b16, I_slti_cg_cmp_rd_rs1_b16_str)
    2f48:	0009a203          	lw	x4,0(x19)
    2f4c:	01020863          	beq	x4,x16,2f5c <I_slti_cg_cmp_rd_rs1_b16+0x18>
    2f50:	54c002ef          	jal	x5,349c <failedtest_x5_x4>
    2f54:	00002f44          	.word	0x00002f44
    2f58:	0000e7b5          	.word	0x0000e7b5
    2f5c:	00498993          	addi	x19,x19,4

# Testcase cmp_rd_rs1 (Test rd = rs1 = x17)
  RVTEST_TESTDATA_LOAD_INT(x25, x17) # load rs1: x17 = 0x7bfedaeb
    2f60:	000ca883          	lw	x17,0(x25)
    2f64:	004c8c93          	addi	x25,x25,4

00002f68 <I_slti_cg_cmp_rd_rs1_b17>:
I_slti_cg_cmp_rd_rs1_b17:
  slti x17, x17, 862 # perform operation
    2f68:	35e8a893          	slti	x17,x17,862
  # Check if x17 contains the expected result. x19 is the signature ptr, x5 is the link ptr, x4 is a temp reg.
  RVTEST_SIGUPD(x19, x5, x4, x17, I_slti_cg_cmp_rd_rs1_b17, I_slti_cg_cmp_rd_rs1_b17_str)
    2f6c:	0009a203          	lw	x4,0(x19)
    2f70:	01120863          	beq	x4,x17,2f80 <I_slti_cg_cmp_rd_rs1_b17+0x18>
    2f74:	528002ef          	jal	x5,349c <failedtest_x5_x4>
    2f78:	00002f68          	.word	0x00002f68
    2f7c:	0000e7ea          	.word	0x0000e7ea
    2f80:	00498993          	addi	x19,x19,4

# Testcase cmp_rd_rs1 (Test rd = rs1 = x18)
  RVTEST_TESTDATA_LOAD_INT(x25, x18) # load rs1: x18 = 0x31193360
    2f84:	000ca903          	lw	x18,0(x25)
    2f88:	004c8c93          	addi	x25,x25,4

00002f8c <I_slti_cg_cmp_rd_rs1_b18>:
I_slti_cg_cmp_rd_rs1_b18:
  slti x18, x18, 493 # perform operation
    2f8c:	1ed92913          	slti	x18,x18,493
  # Check if x18 contains the expected result. x19 is the signature ptr, x5 is the link ptr, x4 is a temp reg.
  RVTEST_SIGUPD(x19, x5, x4, x18, I_slti_cg_cmp_rd_rs1_b18, I_slti_cg_cmp_rd_rs1_b18_str)
    2f90:	0009a203          	lw	x4,0(x19)
    2f94:	01220863          	beq	x4,x18,2fa4 <I_slti_cg_cmp_rd_rs1_b18+0x18>
    2f98:	504002ef          	jal	x5,349c <failedtest_x5_x4>
    2f9c:	00002f8c          	.word	0x00002f8c
    2fa0:	0000e81f          	.word	0x0000e81f
    2fa4:	00498993          	addi	x19,x19,4

  mv x3, x19 # switch signature pointer register to avoid conflict with test
    2fa8:	00098193          	addi	x3,x19,0
# Testcase cmp_rd_rs1 (Test rd = rs1 = x19)
  RVTEST_TESTDATA_LOAD_INT(x25, x19) # load rs1: x19 = 0xa7fb3b55
    2fac:	000ca983          	lw	x19,0(x25)
    2fb0:	004c8c93          	addi	x25,x25,4

00002fb4 <I_slti_cg_cmp_rd_rs1_b19>:
I_slti_cg_cmp_rd_rs1_b19:
  slti x19, x19, 661 # perform operation
    2fb4:	2959a993          	slti	x19,x19,661
  # Check if x19 contains the expected result. x3 is the signature ptr, x5 is the link ptr, x4 is a temp reg.
  RVTEST_SIGUPD(x3, x5, x4, x19, I_slti_cg_cmp_rd_rs1_b19, I_slti_cg_cmp_rd_rs1_b19_str)
    2fb8:	0001a203          	lw	x4,0(x3)
    2fbc:	01320863          	beq	x4,x19,2fcc <I_slti_cg_cmp_rd_rs1_b19+0x18>
    2fc0:	4dc002ef          	jal	x5,349c <failedtest_x5_x4>
    2fc4:	00002fb4          	.word	0x00002fb4
    2fc8:	0000e854          	.word	0x0000e854
    2fcc:	00418193          	addi	x3,x3,4

# Testcase cmp_rd_rs1 (Test rd = rs1 = x20)
  RVTEST_TESTDATA_LOAD_INT(x25, x20) # load rs1: x20 = 0x052990ee
    2fd0:	000caa03          	lw	x20,0(x25)
    2fd4:	004c8c93          	addi	x25,x25,4

00002fd8 <I_slti_cg_cmp_rd_rs1_b20>:
I_slti_cg_cmp_rd_rs1_b20:
  slti x20, x20, -506 # perform operation
    2fd8:	e06a2a13          	slti	x20,x20,-506
  # Check if x20 contains the expected result. x3 is the signature ptr, x5 is the link ptr, x4 is a temp reg.
  RVTEST_SIGUPD(x3, x5, x4, x20, I_slti_cg_cmp_rd_rs1_b20, I_slti_cg_cmp_rd_rs1_b20_str)
    2fdc:	0001a203          	lw	x4,0(x3)
    2fe0:	01420863          	beq	x4,x20,2ff0 <I_slti_cg_cmp_rd_rs1_b20+0x18>
    2fe4:	4b8002ef          	jal	x5,349c <failedtest_x5_x4>
    2fe8:	00002fd8          	.word	0x00002fd8
    2fec:	0000e889          	.word	0x0000e889
    2ff0:	00418193          	addi	x3,x3,4

# Testcase cmp_rd_rs1 (Test rd = rs1 = x21)
  RVTEST_TESTDATA_LOAD_INT(x25, x21) # load rs1: x21 = 0x7965bf80
    2ff4:	000caa83          	lw	x21,0(x25)
    2ff8:	004c8c93          	addi	x25,x25,4

00002ffc <I_slti_cg_cmp_rd_rs1_b21>:
I_slti_cg_cmp_rd_rs1_b21:
  slti x21, x21, -143 # perform operation
    2ffc:	f71aaa93          	slti	x21,x21,-143
  # Check if x21 contains the expected result. x3 is the signature ptr, x5 is the link ptr, x4 is a temp reg.
  RVTEST_SIGUPD(x3, x5, x4, x21, I_slti_cg_cmp_rd_rs1_b21, I_slti_cg_cmp_rd_rs1_b21_str)
    3000:	0001a203          	lw	x4,0(x3)
    3004:	01520863          	beq	x4,x21,3014 <I_slti_cg_cmp_rd_rs1_b21+0x18>
    3008:	494002ef          	jal	x5,349c <failedtest_x5_x4>
    300c:	00002ffc          	.word	0x00002ffc
    3010:	0000e8be          	.word	0x0000e8be
    3014:	00418193          	addi	x3,x3,4

# Testcase cmp_rd_rs1 (Test rd = rs1 = x22)
  RVTEST_TESTDATA_LOAD_INT(x25, x22) # load rs1: x22 = 0xfa7cffc9
    3018:	000cab03          	lw	x22,0(x25)
    301c:	004c8c93          	addi	x25,x25,4

00003020 <I_slti_cg_cmp_rd_rs1_b22>:
I_slti_cg_cmp_rd_rs1_b22:
  slti x22, x22, 212 # perform operation
    3020:	0d4b2b13          	slti	x22,x22,212
  # Check if x22 contains the expected result. x3 is the signature ptr, x5 is the link ptr, x4 is a temp reg.
  RVTEST_SIGUPD(x3, x5, x4, x22, I_slti_cg_cmp_rd_rs1_b22, I_slti_cg_cmp_rd_rs1_b22_str)
    3024:	0001a203          	lw	x4,0(x3)
    3028:	01620863          	beq	x4,x22,3038 <I_slti_cg_cmp_rd_rs1_b22+0x18>
    302c:	470002ef          	jal	x5,349c <failedtest_x5_x4>
    3030:	00003020          	.word	0x00003020
    3034:	0000e8f3          	.word	0x0000e8f3
    3038:	00418193          	addi	x3,x3,4

# Testcase cmp_rd_rs1 (Test rd = rs1 = x23)
  RVTEST_TESTDATA_LOAD_INT(x25, x23) # load rs1: x23 = 0xcfd22916
    303c:	000cab83          	lw	x23,0(x25)
    3040:	004c8c93          	addi	x25,x25,4

00003044 <I_slti_cg_cmp_rd_rs1_b23>:
I_slti_cg_cmp_rd_rs1_b23:
  slti x23, x23, 1764 # perform operation
    3044:	6e4bab93          	slti	x23,x23,1764
  # Check if x23 contains the expected result. x3 is the signature ptr, x5 is the link ptr, x4 is a temp reg.
  RVTEST_SIGUPD(x3, x5, x4, x23, I_slti_cg_cmp_rd_rs1_b23, I_slti_cg_cmp_rd_rs1_b23_str)
    3048:	0001a203          	lw	x4,0(x3)
    304c:	01720863          	beq	x4,x23,305c <I_slti_cg_cmp_rd_rs1_b23+0x18>
    3050:	44c002ef          	jal	x5,349c <failedtest_x5_x4>
    3054:	00003044          	.word	0x00003044
    3058:	0000e928          	.word	0x0000e928
    305c:	00418193          	addi	x3,x3,4

# Testcase cmp_rd_rs1 (Test rd = rs1 = x24)
  RVTEST_TESTDATA_LOAD_INT(x25, x24) # load rs1: x24 = 0x859d61e2
    3060:	000cac03          	lw	x24,0(x25)
    3064:	004c8c93          	addi	x25,x25,4

00003068 <I_slti_cg_cmp_rd_rs1_b24>:
I_slti_cg_cmp_rd_rs1_b24:
  slti x24, x24, 382 # perform operation
    3068:	17ec2c13          	slti	x24,x24,382
  # Check if x24 contains the expected result. x3 is the signature ptr, x5 is the link ptr, x4 is a temp reg.
  RVTEST_SIGUPD(x3, x5, x4, x24, I_slti_cg_cmp_rd_rs1_b24, I_slti_cg_cmp_rd_rs1_b24_str)
    306c:	0001a203          	lw	x4,0(x3)
    3070:	01820863          	beq	x4,x24,3080 <I_slti_cg_cmp_rd_rs1_b24+0x18>
    3074:	428002ef          	jal	x5,349c <failedtest_x5_x4>
    3078:	00003068          	.word	0x00003068
    307c:	0000e95d          	.word	0x0000e95d
    3080:	00418193          	addi	x3,x3,4

  mv x18, x25 # switch data pointer register to avoid conflict with test
    3084:	000c8913          	addi	x18,x25,0
# Testcase cmp_rd_rs1 (Test rd = rs1 = x25)
  RVTEST_TESTDATA_LOAD_INT(x18, x25) # load rs1: x25 = 0x793da620
    3088:	00092c83          	lw	x25,0(x18)
    308c:	00490913          	addi	x18,x18,4

00003090 <I_slti_cg_cmp_rd_rs1_b25>:
I_slti_cg_cmp_rd_rs1_b25:
  slti x25, x25, 1729 # perform operation
    3090:	6c1cac93          	slti	x25,x25,1729
  # Check if x25 contains the expected result. x3 is the signature ptr, x5 is the link ptr, x4 is a temp reg.
  RVTEST_SIGUPD(x3, x5, x4, x25, I_slti_cg_cmp_rd_rs1_b25, I_slti_cg_cmp_rd_rs1_b25_str)
    3094:	0001a203          	lw	x4,0(x3)
    3098:	01920863          	beq	x4,x25,30a8 <I_slti_cg_cmp_rd_rs1_b25+0x18>
    309c:	400002ef          	jal	x5,349c <failedtest_x5_x4>
    30a0:	00003090          	.word	0x00003090
    30a4:	0000e992          	.word	0x0000e992
    30a8:	00418193          	addi	x3,x3,4

# Testcase cmp_rd_rs1 (Test rd = rs1 = x26)
  RVTEST_TESTDATA_LOAD_INT(x18, x26) # load rs1: x26 = 0xbd795f63
    30ac:	00092d03          	lw	x26,0(x18)
    30b0:	00490913          	addi	x18,x18,4

000030b4 <I_slti_cg_cmp_rd_rs1_b26>:
I_slti_cg_cmp_rd_rs1_b26:
  slti x26, x26, 924 # perform operation
    30b4:	39cd2d13          	slti	x26,x26,924
  # Check if x26 contains the expected result. x3 is the signature ptr, x5 is the link ptr, x4 is a temp reg.
  RVTEST_SIGUPD(x3, x5, x4, x26, I_slti_cg_cmp_rd_rs1_b26, I_slti_cg_cmp_rd_rs1_b26_str)
    30b8:	0001a203          	lw	x4,0(x3)
    30bc:	01a20863          	beq	x4,x26,30cc <I_slti_cg_cmp_rd_rs1_b26+0x18>
    30c0:	3dc002ef          	jal	x5,349c <failedtest_x5_x4>
    30c4:	000030b4          	.word	0x000030b4
    30c8:	0000e9c7          	.word	0x0000e9c7
    30cc:	00418193          	addi	x3,x3,4

# Testcase cmp_rd_rs1 (Test rd = rs1 = x27)
  RVTEST_TESTDATA_LOAD_INT(x18, x27) # load rs1: x27 = 0x02d8c8d7
    30d0:	00092d83          	lw	x27,0(x18)
    30d4:	00490913          	addi	x18,x18,4

000030d8 <I_slti_cg_cmp_rd_rs1_b27>:
I_slti_cg_cmp_rd_rs1_b27:
  slti x27, x27, -1819 # perform operation
    30d8:	8e5dad93          	slti	x27,x27,-1819
  # Check if x27 contains the expected result. x3 is the signature ptr, x5 is the link ptr, x4 is a temp reg.
  RVTEST_SIGUPD(x3, x5, x4, x27, I_slti_cg_cmp_rd_rs1_b27, I_slti_cg_cmp_rd_rs1_b27_str)
    30dc:	0001a203          	lw	x4,0(x3)
    30e0:	01b20863          	beq	x4,x27,30f0 <I_slti_cg_cmp_rd_rs1_b27+0x18>
    30e4:	3b8002ef          	jal	x5,349c <failedtest_x5_x4>
    30e8:	000030d8          	.word	0x000030d8
    30ec:	0000e9fc          	.word	0x0000e9fc
    30f0:	00418193          	addi	x3,x3,4

# Testcase cmp_rd_rs1 (Test rd = rs1 = x28)
  RVTEST_TESTDATA_LOAD_INT(x18, x28) # load rs1: x28 = 0x92a27aab
    30f4:	00092e03          	lw	x28,0(x18)
    30f8:	00490913          	addi	x18,x18,4

000030fc <I_slti_cg_cmp_rd_rs1_b28>:
I_slti_cg_cmp_rd_rs1_b28:
  slti x28, x28, -1797 # perform operation
    30fc:	8fbe2e13          	slti	x28,x28,-1797
  # Check if x28 contains the expected result. x3 is the signature ptr, x5 is the link ptr, x4 is a temp reg.
  RVTEST_SIGUPD(x3, x5, x4, x28, I_slti_cg_cmp_rd_rs1_b28, I_slti_cg_cmp_rd_rs1_b28_str)
    3100:	0001a203          	lw	x4,0(x3)
    3104:	01c20863          	beq	x4,x28,3114 <I_slti_cg_cmp_rd_rs1_b28+0x18>
    3108:	394002ef          	jal	x5,349c <failedtest_x5_x4>
    310c:	000030fc          	.word	0x000030fc
    3110:	0000ea31          	.word	0x0000ea31
    3114:	00418193          	addi	x3,x3,4

# Testcase cmp_rd_rs1 (Test rd = rs1 = x29)
  RVTEST_TESTDATA_LOAD_INT(x18, x29) # load rs1: x29 = 0x66f7583a
    3118:	00092e83          	lw	x29,0(x18)
    311c:	00490913          	addi	x18,x18,4

00003120 <I_slti_cg_cmp_rd_rs1_b29>:
I_slti_cg_cmp_rd_rs1_b29:
  slti x29, x29, -1403 # perform operation
    3120:	a85eae93          	slti	x29,x29,-1403
  # Check if x29 contains the expected result. x3 is the signature ptr, x5 is the link ptr, x4 is a temp reg.
  RVTEST_SIGUPD(x3, x5, x4, x29, I_slti_cg_cmp_rd_rs1_b29, I_slti_cg_cmp_rd_rs1_b29_str)
    3124:	0001a203          	lw	x4,0(x3)
    3128:	01d20863          	beq	x4,x29,3138 <I_slti_cg_cmp_rd_rs1_b29+0x18>
    312c:	370002ef          	jal	x5,349c <failedtest_x5_x4>
    3130:	00003120          	.word	0x00003120
    3134:	0000ea66          	.word	0x0000ea66
    3138:	00418193          	addi	x3,x3,4

# Testcase cmp_rd_rs1 (Test rd = rs1 = x30)
  RVTEST_TESTDATA_LOAD_INT(x18, x30) # load rs1: x30 = 0x082386d4
    313c:	00092f03          	lw	x30,0(x18)
    3140:	00490913          	addi	x18,x18,4

00003144 <I_slti_cg_cmp_rd_rs1_b30>:
I_slti_cg_cmp_rd_rs1_b30:
  slti x30, x30, -1195 # perform operation
    3144:	b55f2f13          	slti	x30,x30,-1195
  # Check if x30 contains the expected result. x3 is the signature ptr, x5 is the link ptr, x4 is a temp reg.
  RVTEST_SIGUPD(x3, x5, x4, x30, I_slti_cg_cmp_rd_rs1_b30, I_slti_cg_cmp_rd_rs1_b30_str)
    3148:	0001a203          	lw	x4,0(x3)
    314c:	01e20863          	beq	x4,x30,315c <I_slti_cg_cmp_rd_rs1_b30+0x18>
    3150:	34c002ef          	jal	x5,349c <failedtest_x5_x4>
    3154:	00003144          	.word	0x00003144
    3158:	0000ea9b          	.word	0x0000ea9b
    315c:	00418193          	addi	x3,x3,4

# Testcase cmp_rd_rs1 (Test rd = rs1 = x31)
  RVTEST_TESTDATA_LOAD_INT(x18, x31) # load rs1: x31 = 0x02540f56
    3160:	00092f83          	lw	x31,0(x18)
    3164:	00490913          	addi	x18,x18,4

00003168 <I_slti_cg_cmp_rd_rs1_b31>:
I_slti_cg_cmp_rd_rs1_b31:
  slti x31, x31, 417 # perform operation
    3168:	1a1faf93          	slti	x31,x31,417
  # Check if x31 contains the expected result. x3 is the signature ptr, x5 is the link ptr, x4 is a temp reg.
  RVTEST_SIGUPD(x3, x5, x4, x31, I_slti_cg_cmp_rd_rs1_b31, I_slti_cg_cmp_rd_rs1_b31_str)
    316c:	0001a203          	lw	x4,0(x3)
    3170:	01f20863          	beq	x4,x31,3180 <I_slti_cg_cmp_rd_rs1_b31+0x18>
    3174:	328002ef          	jal	x5,349c <failedtest_x5_x4>
    3178:	00003168          	.word	0x00003168
    317c:	0000ead0          	.word	0x0000ead0
    3180:	00418193          	addi	x3,x3,4
/////////////////////////////////
// cp_imm_edges
/////////////////////////////////

# Testcase cp_imm_edges (imm = 0)
  RVTEST_TESTDATA_LOAD_INT(x18, x26) # load rs1: x26 = 0x9ef22fe4
    3184:	00092d03          	lw	x26,0(x18)
    3188:	00490913          	addi	x18,x18,4

0000318c <I_slti_cg_cp_imm_edges_0x0>:
I_slti_cg_cp_imm_edges_0x0:
  slti x25, x26, 0 # perform operation
    318c:	000d2c93          	slti	x25,x26,0
  # Check if x25 contains the expected result. x3 is the signature ptr, x5 is the link ptr, x4 is a temp reg.
  RVTEST_SIGUPD(x3, x5, x4, x25, I_slti_cg_cp_imm_edges_0x0, I_slti_cg_cp_imm_edges_0x0_str)
    3190:	0001a203          	lw	x4,0(x3)
    3194:	01920863          	beq	x4,x25,31a4 <I_slti_cg_cp_imm_edges_0x0+0x18>
    3198:	304002ef          	jal	x5,349c <failedtest_x5_x4>
    319c:	0000318c          	.word	0x0000318c
    31a0:	0000eb05          	.word	0x0000eb05
    31a4:	00418193          	addi	x3,x3,4

# Testcase cp_imm_edges (imm = 1)
  RVTEST_TESTDATA_LOAD_INT(x18, x25) # load rs1: x25 = 0x7c996f14
    31a8:	00092c83          	lw	x25,0(x18)
    31ac:	00490913          	addi	x18,x18,4

000031b0 <I_slti_cg_cp_imm_edges_0x1>:
I_slti_cg_cp_imm_edges_0x1:
  slti x22, x25, 1 # perform operation
    31b0:	001cab13          	slti	x22,x25,1
  # Check if x22 contains the expected result. x3 is the signature ptr, x5 is the link ptr, x4 is a temp reg.
  RVTEST_SIGUPD(x3, x5, x4, x22, I_slti_cg_cp_imm_edges_0x1, I_slti_cg_cp_imm_edges_0x1_str)
    31b4:	0001a203          	lw	x4,0(x3)
    31b8:	01620863          	beq	x4,x22,31c8 <I_slti_cg_cp_imm_edges_0x1+0x18>
    31bc:	2e0002ef          	jal	x5,349c <failedtest_x5_x4>
    31c0:	000031b0          	.word	0x000031b0
    31c4:	0000eb3c          	.word	0x0000eb3c
    31c8:	00418193          	addi	x3,x3,4

# Testcase cp_imm_edges (imm = 2)
  RVTEST_TESTDATA_LOAD_INT(x18, x23) # load rs1: x23 = 0x40a6d4ea
    31cc:	00092b83          	lw	x23,0(x18)
    31d0:	00490913          	addi	x18,x18,4

000031d4 <I_slti_cg_cp_imm_edges_0x2>:
I_slti_cg_cp_imm_edges_0x2:
  slti x30, x23, 2 # perform operation
    31d4:	002baf13          	slti	x30,x23,2
  # Check if x30 contains the expected result. x3 is the signature ptr, x5 is the link ptr, x4 is a temp reg.
  RVTEST_SIGUPD(x3, x5, x4, x30, I_slti_cg_cp_imm_edges_0x2, I_slti_cg_cp_imm_edges_0x2_str)
    31d8:	0001a203          	lw	x4,0(x3)
    31dc:	01e20863          	beq	x4,x30,31ec <I_slti_cg_cp_imm_edges_0x2+0x18>
    31e0:	2bc002ef          	jal	x5,349c <failedtest_x5_x4>
    31e4:	000031d4          	.word	0x000031d4
    31e8:	0000eb73          	.word	0x0000eb73
    31ec:	00418193          	addi	x3,x3,4

# Testcase cp_imm_edges (imm = 3)
  RVTEST_TESTDATA_LOAD_INT(x18, x17) # load rs1: x17 = 0x96a9a9d2
    31f0:	00092883          	lw	x17,0(x18)
    31f4:	00490913          	addi	x18,x18,4

000031f8 <I_slti_cg_cp_imm_edges_0x3>:
I_slti_cg_cp_imm_edges_0x3:
  slti x16, x17, 3 # perform operation
    31f8:	0038a813          	slti	x16,x17,3
  # Check if x16 contains the expected result. x3 is the signature ptr, x5 is the link ptr, x4 is a temp reg.
  RVTEST_SIGUPD(x3, x5, x4, x16, I_slti_cg_cp_imm_edges_0x3, I_slti_cg_cp_imm_edges_0x3_str)
    31fc:	0001a203          	lw	x4,0(x3)
    3200:	01020863          	beq	x4,x16,3210 <I_slti_cg_cp_imm_edges_0x3+0x18>
    3204:	298002ef          	jal	x5,349c <failedtest_x5_x4>
    3208:	000031f8          	.word	0x000031f8
    320c:	0000ebaa          	.word	0x0000ebaa
    3210:	00418193          	addi	x3,x3,4

# Testcase cp_imm_edges (imm = 4)
  RVTEST_TESTDATA_LOAD_INT(x18, x23) # load rs1: x23 = 0xd553812b
    3214:	00092b83          	lw	x23,0(x18)
    3218:	00490913          	addi	x18,x18,4

0000321c <I_slti_cg_cp_imm_edges_0x4>:
I_slti_cg_cp_imm_edges_0x4:
  slti x17, x23, 4 # perform operation
    321c:	004ba893          	slti	x17,x23,4
  # Check if x17 contains the expected result. x3 is the signature ptr, x5 is the link ptr, x4 is a temp reg.
  RVTEST_SIGUPD(x3, x5, x4, x17, I_slti_cg_cp_imm_edges_0x4, I_slti_cg_cp_imm_edges_0x4_str)
    3220:	0001a203          	lw	x4,0(x3)
    3224:	01120863          	beq	x4,x17,3234 <I_slti_cg_cp_imm_edges_0x4+0x18>
    3228:	274002ef          	jal	x5,349c <failedtest_x5_x4>
    322c:	0000321c          	.word	0x0000321c
    3230:	0000ebe1          	.word	0x0000ebe1
    3234:	00418193          	addi	x3,x3,4

# Testcase cp_imm_edges (imm = 8)
  RVTEST_TESTDATA_LOAD_INT(x18, x9) # load rs1: x9 = 0x0995cd3f
    3238:	00092483          	lw	x9,0(x18)
    323c:	00490913          	addi	x18,x18,4

00003240 <I_slti_cg_cp_imm_edges_0x8>:
I_slti_cg_cp_imm_edges_0x8:
  slti x2, x9, 8 # perform operation
    3240:	0084a113          	slti	x2,x9,8
  # Check if x2 contains the expected result. x3 is the signature ptr, x5 is the link ptr, x4 is a temp reg.
  RVTEST_SIGUPD(x3, x5, x4, x2, I_slti_cg_cp_imm_edges_0x8, I_slti_cg_cp_imm_edges_0x8_str)
    3244:	0001a203          	lw	x4,0(x3)
    3248:	00220863          	beq	x4,x2,3258 <I_slti_cg_cp_imm_edges_0x8+0x18>
    324c:	250002ef          	jal	x5,349c <failedtest_x5_x4>
    3250:	00003240          	.word	0x00003240
    3254:	0000ec18          	.word	0x0000ec18
    3258:	00418193          	addi	x3,x3,4

# Testcase cp_imm_edges (imm = 16)
  RVTEST_TESTDATA_LOAD_INT(x18, x12) # load rs1: x12 = 0xd0154270
    325c:	00092603          	lw	x12,0(x18)
    3260:	00490913          	addi	x18,x18,4

00003264 <I_slti_cg_cp_imm_edges_0x10>:
I_slti_cg_cp_imm_edges_0x10:
  slti x26, x12, 16 # perform operation
    3264:	01062d13          	slti	x26,x12,16
  # Check if x26 contains the expected result. x3 is the signature ptr, x5 is the link ptr, x4 is a temp reg.
  RVTEST_SIGUPD(x3, x5, x4, x26, I_slti_cg_cp_imm_edges_0x10, I_slti_cg_cp_imm_edges_0x10_str)
    3268:	0001a203          	lw	x4,0(x3)
    326c:	01a20863          	beq	x4,x26,327c <I_slti_cg_cp_imm_edges_0x10+0x18>
    3270:	22c002ef          	jal	x5,349c <failedtest_x5_x4>
    3274:	00003264          	.word	0x00003264
    3278:	0000ec4f          	.word	0x0000ec4f
    327c:	00418193          	addi	x3,x3,4

# Testcase cp_imm_edges (imm = 32)
  RVTEST_TESTDATA_LOAD_INT(x18, x21) # load rs1: x21 = 0x8d20683f
    3280:	00092a83          	lw	x21,0(x18)
    3284:	00490913          	addi	x18,x18,4

00003288 <I_slti_cg_cp_imm_edges_0x20>:
I_slti_cg_cp_imm_edges_0x20:
  slti x13, x21, 32 # perform operation
    3288:	020aa693          	slti	x13,x21,32
  # Check if x13 contains the expected result. x3 is the signature ptr, x5 is the link ptr, x4 is a temp reg.
  RVTEST_SIGUPD(x3, x5, x4, x13, I_slti_cg_cp_imm_edges_0x20, I_slti_cg_cp_imm_edges_0x20_str)
    328c:	0001a203          	lw	x4,0(x3)
    3290:	00d20863          	beq	x4,x13,32a0 <I_slti_cg_cp_imm_edges_0x20+0x18>
    3294:	208002ef          	jal	x5,349c <failedtest_x5_x4>
    3298:	00003288          	.word	0x00003288
    329c:	0000ec87          	.word	0x0000ec87
    32a0:	00418193          	addi	x3,x3,4

# Testcase cp_imm_edges (imm = 64)
  RVTEST_TESTDATA_LOAD_INT(x18, x29) # load rs1: x29 = 0xa123974b
    32a4:	00092e83          	lw	x29,0(x18)
    32a8:	00490913          	addi	x18,x18,4

000032ac <I_slti_cg_cp_imm_edges_0x40>:
I_slti_cg_cp_imm_edges_0x40:
  slti x25, x29, 64 # perform operation
    32ac:	040eac93          	slti	x25,x29,64
  # Check if x25 contains the expected result. x3 is the signature ptr, x5 is the link ptr, x4 is a temp reg.
  RVTEST_SIGUPD(x3, x5, x4, x25, I_slti_cg_cp_imm_edges_0x40, I_slti_cg_cp_imm_edges_0x40_str)
    32b0:	0001a203          	lw	x4,0(x3)
    32b4:	01920863          	beq	x4,x25,32c4 <I_slti_cg_cp_imm_edges_0x40+0x18>
    32b8:	1e4002ef          	jal	x5,349c <failedtest_x5_x4>
    32bc:	000032ac          	.word	0x000032ac
    32c0:	0000ecbf          	.word	0x0000ecbf
    32c4:	00418193          	addi	x3,x3,4

# Testcase cp_imm_edges (imm = 128)
  RVTEST_TESTDATA_LOAD_INT(x18, x23) # load rs1: x23 = 0xfd50f940
    32c8:	00092b83          	lw	x23,0(x18)
    32cc:	00490913          	addi	x18,x18,4

000032d0 <I_slti_cg_cp_imm_edges_0x80>:
I_slti_cg_cp_imm_edges_0x80:
  slti x29, x23, 128 # perform operation
    32d0:	080bae93          	slti	x29,x23,128
  # Check if x29 contains the expected result. x3 is the signature ptr, x5 is the link ptr, x4 is a temp reg.
  RVTEST_SIGUPD(x3, x5, x4, x29, I_slti_cg_cp_imm_edges_0x80, I_slti_cg_cp_imm_edges_0x80_str)
    32d4:	0001a203          	lw	x4,0(x3)
    32d8:	01d20863          	beq	x4,x29,32e8 <I_slti_cg_cp_imm_edges_0x80+0x18>
    32dc:	1c0002ef          	jal	x5,349c <failedtest_x5_x4>
    32e0:	000032d0          	.word	0x000032d0
    32e4:	0000ecf7          	.word	0x0000ecf7
    32e8:	00418193          	addi	x3,x3,4

# Testcase cp_imm_edges (imm = 256)
  RVTEST_TESTDATA_LOAD_INT(x18, x27) # load rs1: x27 = 0xe922dfe2
    32ec:	00092d83          	lw	x27,0(x18)
    32f0:	00490913          	addi	x18,x18,4

000032f4 <I_slti_cg_cp_imm_edges_0x100>:
I_slti_cg_cp_imm_edges_0x100:
  slti x8, x27, 256 # perform operation
    32f4:	100da413          	slti	x8,x27,256
  # Check if x8 contains the expected result. x3 is the signature ptr, x5 is the link ptr, x4 is a temp reg.
  RVTEST_SIGUPD(x3, x5, x4, x8, I_slti_cg_cp_imm_edges_0x100, I_slti_cg_cp_imm_edges_0x100_str)
    32f8:	0001a203          	lw	x4,0(x3)
    32fc:	00820863          	beq	x4,x8,330c <I_slti_cg_cp_imm_edges_0x100+0x18>
    3300:	19c002ef          	jal	x5,349c <failedtest_x5_x4>
    3304:	000032f4          	.word	0x000032f4
    3308:	0000ed2f          	.word	0x0000ed2f
    330c:	00418193          	addi	x3,x3,4

# Testcase cp_imm_edges (imm = 512)
  RVTEST_TESTDATA_LOAD_INT(x18, x27) # load rs1: x27 = 0xe96a7ab0
    3310:	00092d83          	lw	x27,0(x18)
    3314:	00490913          	addi	x18,x18,4

00003318 <I_slti_cg_cp_imm_edges_0x200>:
I_slti_cg_cp_imm_edges_0x200:
  slti x31, x27, 512 # perform operation
    3318:	200daf93          	slti	x31,x27,512
  # Check if x31 contains the expected result. x3 is the signature ptr, x5 is the link ptr, x4 is a temp reg.
  RVTEST_SIGUPD(x3, x5, x4, x31, I_slti_cg_cp_imm_edges_0x200, I_slti_cg_cp_imm_edges_0x200_str)
    331c:	0001a203          	lw	x4,0(x3)
    3320:	01f20863          	beq	x4,x31,3330 <I_slti_cg_cp_imm_edges_0x200+0x18>
    3324:	178002ef          	jal	x5,349c <failedtest_x5_x4>
    3328:	00003318          	.word	0x00003318
    332c:	0000ed68          	.word	0x0000ed68
    3330:	00418193          	addi	x3,x3,4

# Testcase cp_imm_edges (imm = 1023)
  RVTEST_TESTDATA_LOAD_INT(x18, x25) # load rs1: x25 = 0x80cfd4b9
    3334:	00092c83          	lw	x25,0(x18)
    3338:	00490913          	addi	x18,x18,4

0000333c <I_slti_cg_cp_imm_edges_0x3ff>:
I_slti_cg_cp_imm_edges_0x3ff:
  slti x20, x25, 1023 # perform operation
    333c:	3ffcaa13          	slti	x20,x25,1023
  # Check if x20 contains the expected result. x3 is the signature ptr, x5 is the link ptr, x4 is a temp reg.
  RVTEST_SIGUPD(x3, x5, x4, x20, I_slti_cg_cp_imm_edges_0x3ff, I_slti_cg_cp_imm_edges_0x3ff_str)
    3340:	0001a203          	lw	x4,0(x3)
    3344:	01420863          	beq	x4,x20,3354 <I_slti_cg_cp_imm_edges_0x3ff+0x18>
    3348:	154002ef          	jal	x5,349c <failedtest_x5_x4>
    334c:	0000333c          	.word	0x0000333c
    3350:	0000eda1          	.word	0x0000eda1
    3354:	00418193          	addi	x3,x3,4

# Testcase cp_imm_edges (imm = 1024)
  RVTEST_TESTDATA_LOAD_INT(x18, x11) # load rs1: x11 = 0xbb5e7127
    3358:	00092583          	lw	x11,0(x18)
    335c:	00490913          	addi	x18,x18,4

00003360 <I_slti_cg_cp_imm_edges_0x400>:
I_slti_cg_cp_imm_edges_0x400:
  slti x19, x11, 1024 # perform operation
    3360:	4005a993          	slti	x19,x11,1024
  # Check if x19 contains the expected result. x3 is the signature ptr, x5 is the link ptr, x4 is a temp reg.
  RVTEST_SIGUPD(x3, x5, x4, x19, I_slti_cg_cp_imm_edges_0x400, I_slti_cg_cp_imm_edges_0x400_str)
    3364:	0001a203          	lw	x4,0(x3)
    3368:	01320863          	beq	x4,x19,3378 <I_slti_cg_cp_imm_edges_0x400+0x18>
    336c:	130002ef          	jal	x5,349c <failedtest_x5_x4>
    3370:	00003360          	.word	0x00003360
    3374:	0000edda          	.word	0x0000edda
    3378:	00418193          	addi	x3,x3,4

# Testcase cp_imm_edges (imm = 1795)
  RVTEST_TESTDATA_LOAD_INT(x18, x23) # load rs1: x23 = 0x4fabf671
    337c:	00092b83          	lw	x23,0(x18)
    3380:	00490913          	addi	x18,x18,4

00003384 <I_slti_cg_cp_imm_edges_0x703>:
I_slti_cg_cp_imm_edges_0x703:
  slti x11, x23, 1795 # perform operation
    3384:	703ba593          	slti	x11,x23,1795
  # Check if x11 contains the expected result. x3 is the signature ptr, x5 is the link ptr, x4 is a temp reg.
  RVTEST_SIGUPD(x3, x5, x4, x11, I_slti_cg_cp_imm_edges_0x703, I_slti_cg_cp_imm_edges_0x703_str)
    3388:	0001a203          	lw	x4,0(x3)
    338c:	00b20863          	beq	x4,x11,339c <I_slti_cg_cp_imm_edges_0x703+0x18>
    3390:	10c002ef          	jal	x5,349c <failedtest_x5_x4>
    3394:	00003384          	.word	0x00003384
    3398:	0000ee13          	.word	0x0000ee13
    339c:	00418193          	addi	x3,x3,4

# Testcase cp_imm_edges (imm = 2047)
  RVTEST_TESTDATA_LOAD_INT(x18, x12) # load rs1: x12 = 0xd50b59db
    33a0:	00092603          	lw	x12,0(x18)
    33a4:	00490913          	addi	x18,x18,4

000033a8 <I_slti_cg_cp_imm_edges_0x7ff>:
I_slti_cg_cp_imm_edges_0x7ff:
  slti x25, x12, 2047 # perform operation
    33a8:	7ff62c93          	slti	x25,x12,2047
  # Check if x25 contains the expected result. x3 is the signature ptr, x5 is the link ptr, x4 is a temp reg.
  RVTEST_SIGUPD(x3, x5, x4, x25, I_slti_cg_cp_imm_edges_0x7ff, I_slti_cg_cp_imm_edges_0x7ff_str)
    33ac:	0001a203          	lw	x4,0(x3)
    33b0:	01920863          	beq	x4,x25,33c0 <I_slti_cg_cp_imm_edges_0x7ff+0x18>
    33b4:	0e8002ef          	jal	x5,349c <failedtest_x5_x4>
    33b8:	000033a8          	.word	0x000033a8
    33bc:	0000ee4c          	.word	0x0000ee4c
    33c0:	00418193          	addi	x3,x3,4

# Testcase cp_imm_edges (imm = -2048)
  RVTEST_TESTDATA_LOAD_INT(x18, x21) # load rs1: x21 = 0xb6c2da1f
    33c4:	00092a83          	lw	x21,0(x18)
    33c8:	00490913          	addi	x18,x18,4

000033cc <I_slti_cg_cp_imm_edges_m0x800>:
I_slti_cg_cp_imm_edges_m0x800:
  slti x23, x21, -2048 # perform operation
    33cc:	800aab93          	slti	x23,x21,-2048
  # Check if x23 contains the expected result. x3 is the signature ptr, x5 is the link ptr, x4 is a temp reg.
  RVTEST_SIGUPD(x3, x5, x4, x23, I_slti_cg_cp_imm_edges_m0x800, I_slti_cg_cp_imm_edges_m0x800_str)
    33d0:	0001a203          	lw	x4,0(x3)
    33d4:	01720863          	beq	x4,x23,33e4 <I_slti_cg_cp_imm_edges_m0x800+0x18>
    33d8:	0c4002ef          	jal	x5,349c <failedtest_x5_x4>
    33dc:	000033cc          	.word	0x000033cc
    33e0:	0000ee85          	.word	0x0000ee85
    33e4:	00418193          	addi	x3,x3,4

# Testcase cp_imm_edges (imm = -2047)
  RVTEST_TESTDATA_LOAD_INT(x18, x31) # load rs1: x31 = 0x2e4b47c2
    33e8:	00092f83          	lw	x31,0(x18)
    33ec:	00490913          	addi	x18,x18,4

000033f0 <I_slti_cg_cp_imm_edges_m0x7ff>:
I_slti_cg_cp_imm_edges_m0x7ff:
  slti x23, x31, -2047 # perform operation
    33f0:	801fab93          	slti	x23,x31,-2047
  # Check if x23 contains the expected result. x3 is the signature ptr, x5 is the link ptr, x4 is a temp reg.
  RVTEST_SIGUPD(x3, x5, x4, x23, I_slti_cg_cp_imm_edges_m0x7ff, I_slti_cg_cp_imm_edges_m0x7ff_str)
    33f4:	0001a203          	lw	x4,0(x3)
    33f8:	01720863          	beq	x4,x23,3408 <I_slti_cg_cp_imm_edges_m0x7ff+0x18>
    33fc:	0a0002ef          	jal	x5,349c <failedtest_x5_x4>
    3400:	000033f0          	.word	0x000033f0
    3404:	0000eebf          	.word	0x0000eebf
    3408:	00418193          	addi	x3,x3,4

# Testcase cp_imm_edges (imm = -2)
  RVTEST_TESTDATA_LOAD_INT(x18, x10) # load rs1: x10 = 0xf3f70bce
    340c:	00092503          	lw	x10,0(x18)
    3410:	00490913          	addi	x18,x18,4

00003414 <I_slti_cg_cp_imm_edges_m0x2>:
I_slti_cg_cp_imm_edges_m0x2:
  slti x15, x10, -2 # perform operation
    3414:	ffe52793          	slti	x15,x10,-2
  # Check if x15 contains the expected result. x3 is the signature ptr, x5 is the link ptr, x4 is a temp reg.
  RVTEST_SIGUPD(x3, x5, x4, x15, I_slti_cg_cp_imm_edges_m0x2, I_slti_cg_cp_imm_edges_m0x2_str)
    3418:	0001a203          	lw	x4,0(x3)
    341c:	00f20863          	beq	x4,x15,342c <I_slti_cg_cp_imm_edges_m0x2+0x18>
    3420:	07c002ef          	jal	x5,349c <failedtest_x5_x4>
    3424:	00003414          	.word	0x00003414
    3428:	0000eef9          	.word	0x0000eef9
    342c:	00418193          	addi	x3,x3,4

# Testcase cp_imm_edges (imm = -1)
  RVTEST_TESTDATA_LOAD_INT(x18, x6) # load rs1: x6 = 0x6b986e66
    3430:	00092303          	lw	x6,0(x18)
    3434:	00490913          	addi	x18,x18,4

00003438 <I_slti_cg_cp_imm_edges_m0x1>:
I_slti_cg_cp_imm_edges_m0x1:
  slti x30, x6, -1 # perform operation
    3438:	fff32f13          	slti	x30,x6,-1
  # Check if x30 contains the expected result. x3 is the signature ptr, x5 is the link ptr, x4 is a temp reg.
  RVTEST_SIGUPD(x3, x5, x4, x30, I_slti_cg_cp_imm_edges_m0x1, I_slti_cg_cp_imm_edges_m0x1_str)
    343c:	0001a203          	lw	x4,0(x3)
    3440:	01e20863          	beq	x4,x30,3450 <I_slti_cg_cp_imm_edges_m0x1+0x18>
    3444:	058002ef          	jal	x5,349c <failedtest_x5_x4>
    3448:	00003438          	.word	0x00003438
    344c:	0000ef31          	.word	0x0000ef31
    3450:	00418193          	addi	x3,x3,4

  mv x2, x3 # restore signature pointer to default register for teardown
    3454:	00018113          	addi	x2,x3,0

00003458 <cleanup_epilogs>:
    3458:	00000013          	addi	x0,x0,0
    345c:	00000013          	addi	x0,x0,0

// Instantiate trap handlers and other epilog code, call RVMODEL_HALT at end of test
RVTEST_CODE_END
    3460:	0000c517          	auipc	x10,0xc
    3464:	17450513          	addi	x10,x10,372 # f5d4 <successstr>
    3468:	00000013          	addi	x0,x0,0
    346c:	00000013          	addi	x0,x0,0
    3470:	00000013          	addi	x0,x0,0
    3474:	00000013          	addi	x0,x0,0
    3478:	00000013          	addi	x0,x0,0
    347c:	00000013          	addi	x0,x0,0
    3480:	0001d097          	auipc	x1,0x1d
    3484:	d84080e7          	jalr	x1,-636(x1) # 20204 <rvmodel_io_write_str>
    3488:	0001d097          	auipc	x1,0x1d
    348c:	d80080e7          	jalr	x1,-640(x1) # 20208 <rvmodel_halt_pass>

00003490 <abort_test>:
    3490:	bad0e737          	lui	x14,0xbad0e
    3494:	ead70713          	addi	x14,x14,-339 # bad0dead <absimm+0x4b743ba4>
    3498:	fc1ff06f          	jal	x0,3458 <cleanup_epilogs>

0000349c <failedtest_x5_x4>:
    349c:	0000c217          	auipc	x4,0xc
    34a0:	ad420213          	addi	x4,x4,-1324 # ef70 <begin_failure_scratch>
    34a4:	02522423          	sw	x5,40(x4) # 28 <MMODE_SIG+0x25>
    34a8:	00122423          	sw	x1,8(x4) # 8 <MMODE_SIG+0x5>
    34ac:	00022023          	sw	x0,0(x4) # 0 <rvtest_entry_point>
    34b0:	0b00006f          	jal	x0,3560 <failedtest_saveregs>

000034b4 <failedtest_x8_x7>:
    34b4:	0000c397          	auipc	x7,0xc
    34b8:	abc38393          	addi	x7,x7,-1348 # ef70 <begin_failure_scratch>
    34bc:	0483a023          	sw	x8,64(x7)
    34c0:	0243a023          	sw	x4,32(x7)
    34c4:	0253a423          	sw	x5,40(x7)
    34c8:	0013a423          	sw	x1,8(x7)
    34cc:	0003a023          	sw	x0,0(x7)
    34d0:	00038213          	addi	x4,x7,0
    34d4:	00040293          	addi	x5,x8,0
    34d8:	0880006f          	jal	x0,3560 <failedtest_saveregs>

000034dc <failedtest_x14_x13>:
    34dc:	0000c697          	auipc	x13,0xc
    34e0:	a9468693          	addi	x13,x13,-1388 # ef70 <begin_failure_scratch>
    34e4:	06e6a823          	sw	x14,112(x13)
    34e8:	0246a023          	sw	x4,32(x13)
    34ec:	0256a423          	sw	x5,40(x13)
    34f0:	0016a423          	sw	x1,8(x13)
    34f4:	0006a023          	sw	x0,0(x13)
    34f8:	00068213          	addi	x4,x13,0
    34fc:	00070293          	addi	x5,x14,0
    3500:	0600006f          	jal	x0,3560 <failedtest_saveregs>

00003504 <failedtest_trap_x7_x9>:
    3504:	0000c497          	auipc	x9,0xc
    3508:	a6c48493          	addi	x9,x9,-1428 # ef70 <begin_failure_scratch>
    350c:	0674a423          	sw	x7,104(x9)
    3510:	0244a023          	sw	x4,32(x9)
    3514:	0254a423          	sw	x5,40(x9)
    3518:	0014a423          	sw	x1,8(x9)
    351c:	00300093          	addi	x1,x0,3
    3520:	0014a023          	sw	x1,0(x9)
    3524:	00048213          	addi	x4,x9,0
    3528:	00038293          	addi	x5,x7,0
    352c:	342020f3          	csrrs	x1,mcause,x0
    3530:	0000c497          	auipc	x9,0xc
    3534:	bb048493          	addi	x9,x9,-1104 # f0e0 <saved_mcause>
    3538:	0014a023          	sw	x1,0(x9)
    353c:	343020f3          	csrrs	x1,mtval,x0
    3540:	0000c497          	auipc	x9,0xc
    3544:	ba848493          	addi	x9,x9,-1112 # f0e8 <saved_mtval>
    3548:	0014a023          	sw	x1,0(x9)
    354c:	300020f3          	csrrs	x1,mstatus,x0
    3550:	0000c497          	auipc	x9,0xc
    3554:	ba048493          	addi	x9,x9,-1120 # f0f0 <saved_mstatus>
    3558:	0014a023          	sw	x1,0(x9)
    355c:	0040006f          	jal	x0,3560 <failedtest_saveregs>

00003560 <failedtest_saveregs>:
    3560:	00222823          	sw	x2,16(x4) # 10 <MMODE_SIG+0xd>
    3564:	00322c23          	sw	x3,24(x4) # 18 <MMODE_SIG+0x15>
    3568:	02622823          	sw	x6,48(x4) # 30 <MMODE_SIG+0x2d>
    356c:	02722c23          	sw	x7,56(x4) # 38 <MMODE_SIG+0x35>
    3570:	04822023          	sw	x8,64(x4) # 40 <rvtest_code_begin>
    3574:	04922423          	sw	x9,72(x4) # 48 <I_slti_cg_cp_rs1_b0>
    3578:	04a22823          	sw	x10,80(x4) # 50 <I_slti_cg_cp_rs1_b0+0x8>
    357c:	04b22c23          	sw	x11,88(x4) # 58 <I_slti_cg_cp_rs1_b0+0x10>
    3580:	06c22023          	sw	x12,96(x4) # 60 <I_slti_cg_cp_rs1_b0+0x18>
    3584:	06d22423          	sw	x13,104(x4) # 68 <I_slti_cg_cp_rs1_b0+0x20>
    3588:	06e22823          	sw	x14,112(x4) # 70 <I_slti_cg_cp_rs1_b1+0x4>
    358c:	06f22c23          	sw	x15,120(x4) # 78 <I_slti_cg_cp_rs1_b1+0xc>
    3590:	09022023          	sw	x16,128(x4) # 80 <I_slti_cg_cp_rs1_b1+0x14>
    3594:	09122423          	sw	x17,136(x4) # 88 <I_slti_cg_cp_rs1_b1+0x1c>
    3598:	09222823          	sw	x18,144(x4) # 90 <I_slti_cg_cp_rs1_b1+0x24>
    359c:	09322c23          	sw	x19,152(x4) # 98 <I_slti_cg_cp_rs1_b2+0x4>
    35a0:	0b422023          	sw	x20,160(x4) # a0 <I_slti_cg_cp_rs1_b2+0xc>
    35a4:	0b522423          	sw	x21,168(x4) # a8 <I_slti_cg_cp_rs1_b2+0x14>
    35a8:	0b622823          	sw	x22,176(x4) # b0 <I_slti_cg_cp_rs1_b2+0x1c>
    35ac:	0b722c23          	sw	x23,184(x4) # b8 <I_slti_cg_cp_rs1_b2+0x24>
    35b0:	0d822023          	sw	x24,192(x4) # c0 <I_slti_cg_cp_rs1_b3+0x4>
    35b4:	0d922423          	sw	x25,200(x4) # c8 <I_slti_cg_cp_rs1_b3+0xc>
    35b8:	0da22823          	sw	x26,208(x4) # d0 <I_slti_cg_cp_rs1_b3+0x14>
    35bc:	0db22c23          	sw	x27,216(x4) # d8 <I_slti_cg_cp_rs1_b3+0x1c>
    35c0:	0fc22023          	sw	x28,224(x4) # e0 <I_slti_cg_cp_rs1_b3+0x24>
    35c4:	0fd22423          	sw	x29,232(x4) # e8 <I_slti_cg_cp_rs1_b4>
    35c8:	0fe22823          	sw	x30,240(x4) # f0 <I_slti_cg_cp_rs1_b4+0x8>
    35cc:	0ff22c23          	sw	x31,248(x4) # f8 <I_slti_cg_cp_rs1_b4+0x10>

000035d0 <failedtest_saveresults>:
    35d0:	0000c497          	auipc	x9,0xc
    35d4:	9a04a483          	lw	x9,-1632(x9) # ef70 <begin_failure_scratch>
    35d8:	00300513          	addi	x10,x0,3
    35dc:	06a48863          	beq	x9,x10,364c <failedtest_saveresults_trap>

000035e0 <failedtest_saveresults_int>:
    35e0:	ffa2d303          	lhu	x6,-6(x5)
    35e4:	ff82d383          	lhu	x7,-8(x5)
    35e8:	01031313          	slli	x6,x6,0x10
    35ec:	00736333          	or	x6,x6,x7
    35f0:	00f35393          	srli	x7,x6,0xf
    35f4:	01f3f393          	andi	x7,x7,31
    35f8:	01435413          	srli	x8,x6,0x14
    35fc:	01f47413          	andi	x8,x8,31
    3600:	10822223          	sw	x8,260(x4) # 104 <I_slti_cg_cp_rs1_b4+0x1c>
    3604:	00341313          	slli	x6,x8,0x3
    3608:	00620333          	add	x6,x4,x6
    360c:	00032303          	lw	x6,0(x6)
    3610:	10622823          	sw	x6,272(x4) # 110 <I_slti_cg_cp_rs1_b5+0x4>
    3614:	ff62d303          	lhu	x6,-10(x5)
    3618:	ff42d383          	lhu	x7,-12(x5)
    361c:	01031313          	slli	x6,x6,0x10
    3620:	00736333          	or	x6,x6,x7
    3624:	41435393          	srai	x7,x6,0x14
    3628:	00f35313          	srli	x6,x6,0xf
    362c:	01f37313          	andi	x6,x6,31
    3630:	00331313          	slli	x6,x6,0x3
    3634:	00620333          	add	x6,x4,x6
    3638:	00032303          	lw	x6,0(x6)
    363c:	00730333          	add	x6,x6,x7
    3640:	00032303          	lw	x6,0(x6)
    3644:	10622c23          	sw	x6,280(x4) # 118 <I_slti_cg_cp_rs1_b5+0xc>
    3648:	3d80006f          	jal	x0,3a20 <failedtest_saveresults_common>

0000364c <failedtest_saveresults_trap>:
    364c:	0042a303          	lw	x6,4(x5)
    3650:	0000c817          	auipc	x16,0xc
    3654:	a7880813          	addi	x16,x16,-1416 # f0c8 <trap_diag_fail_str_ptr>
    3658:	00682023          	sw	x6,0(x16)
    365c:	0002a303          	lw	x6,0(x5)
    3660:	10622423          	sw	x6,264(x4) # 108 <I_slti_cg_cp_rs1_b4+0x20>
    3664:	0000c817          	auipc	x16,0xc
    3668:	a6480813          	addi	x16,x16,-1436 # f0c8 <trap_diag_fail_str_ptr>
    366c:	00082303          	lw	x6,0(x16)
    3670:	0000c397          	auipc	x7,0xc
    3674:	12c38393          	addi	x7,x7,300 # f79c <trap_sig_offset_mismatch>
    3678:	28730463          	beq	x6,x7,3900 <trap_diag_offset_mismatch>
    367c:	00000413          	addi	x8,x0,0
    3680:	0000c817          	auipc	x16,0xc
    3684:	a2080813          	addi	x16,x16,-1504 # f0a0 <trap_diag_subtype>
    3688:	00882023          	sw	x8,0(x16)
    368c:	0000c397          	auipc	x7,0xc
    3690:	17438393          	addi	x7,x7,372 # f800 <sv_Mvect_str>
    3694:	00731863          	bne	x6,x7,36a4 <failedtest_saveresults_trap+0x58>
    3698:	00100413          	addi	x8,x0,1
    369c:	00000493          	addi	x9,x0,0
    36a0:	2e00006f          	jal	x0,3980 <trap_diag_field_identified>
    36a4:	0000c397          	auipc	x7,0xc
    36a8:	25e38393          	addi	x7,x7,606 # f902 <sv_Mcause_str>
    36ac:	00731863          	bne	x6,x7,36bc <failedtest_saveresults_trap+0x70>
    36b0:	00200413          	addi	x8,x0,2
    36b4:	00000493          	addi	x9,x0,0
    36b8:	2c80006f          	jal	x0,3980 <trap_diag_field_identified>
    36bc:	0000c397          	auipc	x7,0xc
    36c0:	34138393          	addi	x7,x7,833 # f9fd <sv_Mepc_str>
    36c4:	00731863          	bne	x6,x7,36d4 <failedtest_saveresults_trap+0x88>
    36c8:	00300413          	addi	x8,x0,3
    36cc:	00000493          	addi	x9,x0,0
    36d0:	2b00006f          	jal	x0,3980 <trap_diag_field_identified>
    36d4:	0000c397          	auipc	x7,0xc
    36d8:	41c38393          	addi	x7,x7,1052 # faf0 <sv_Mtval_str>
    36dc:	00731863          	bne	x6,x7,36ec <failedtest_saveresults_trap+0xa0>
    36e0:	00400413          	addi	x8,x0,4
    36e4:	00000493          	addi	x9,x0,0
    36e8:	2980006f          	jal	x0,3980 <trap_diag_field_identified>
    36ec:	0000c397          	auipc	x7,0xc
    36f0:	57738393          	addi	x7,x7,1399 # fc63 <sv_Mip_str>
    36f4:	00731863          	bne	x6,x7,3704 <failedtest_saveresults_trap+0xb8>
    36f8:	00500413          	addi	x8,x0,5
    36fc:	00000493          	addi	x9,x0,0
    3700:	2800006f          	jal	x0,3980 <trap_diag_field_identified>
    3704:	0000c397          	auipc	x7,0xc
    3708:	4e338393          	addi	x7,x7,1251 # fbe7 <sv_Mtval2_str>
    370c:	00731863          	bne	x6,x7,371c <failedtest_saveresults_trap+0xd0>
    3710:	00600413          	addi	x8,x0,6
    3714:	00000493          	addi	x9,x0,0
    3718:	2680006f          	jal	x0,3980 <trap_diag_field_identified>
    371c:	0000c397          	auipc	x7,0xc
    3720:	50938393          	addi	x7,x7,1289 # fc25 <sv_Mtinst_str>
    3724:	00731863          	bne	x6,x7,3734 <failedtest_saveresults_trap+0xe8>
    3728:	00700413          	addi	x8,x0,7
    372c:	00000493          	addi	x9,x0,0
    3730:	2500006f          	jal	x0,3980 <trap_diag_field_identified>
    3734:	0000c397          	auipc	x7,0xc
    3738:	10c38393          	addi	x7,x7,268 # f840 <sv_Svect_str>
    373c:	00731863          	bne	x6,x7,374c <failedtest_saveresults_trap+0x100>
    3740:	00100413          	addi	x8,x0,1
    3744:	00100493          	addi	x9,x0,1
    3748:	2380006f          	jal	x0,3980 <trap_diag_field_identified>
    374c:	0000c397          	auipc	x7,0xc
    3750:	1f438393          	addi	x7,x7,500 # f940 <sv_Scause_str>
    3754:	00731863          	bne	x6,x7,3764 <failedtest_saveresults_trap+0x118>
    3758:	00200413          	addi	x8,x0,2
    375c:	00100493          	addi	x9,x0,1
    3760:	2200006f          	jal	x0,3980 <trap_diag_field_identified>
    3764:	0000c397          	auipc	x7,0xc
    3768:	2d538393          	addi	x7,x7,725 # fa39 <sv_Sepc_str>
    376c:	00731863          	bne	x6,x7,377c <failedtest_saveresults_trap+0x130>
    3770:	00300413          	addi	x8,x0,3
    3774:	00100493          	addi	x9,x0,1
    3778:	2080006f          	jal	x0,3980 <trap_diag_field_identified>
    377c:	0000c397          	auipc	x7,0xc
    3780:	3b138393          	addi	x7,x7,945 # fb2d <sv_Stval_str>
    3784:	00731863          	bne	x6,x7,3794 <failedtest_saveresults_trap+0x148>
    3788:	00400413          	addi	x8,x0,4
    378c:	00100493          	addi	x9,x0,1
    3790:	1f00006f          	jal	x0,3980 <trap_diag_field_identified>
    3794:	0000c397          	auipc	x7,0xc
    3798:	50a38393          	addi	x7,x7,1290 # fc9e <sv_Sip_str>
    379c:	00731863          	bne	x6,x7,37ac <failedtest_saveresults_trap+0x160>
    37a0:	00500413          	addi	x8,x0,5
    37a4:	00100493          	addi	x9,x0,1
    37a8:	1d80006f          	jal	x0,3980 <trap_diag_field_identified>
    37ac:	0000c397          	auipc	x7,0xc
    37b0:	0d438393          	addi	x7,x7,212 # f880 <sv_Hvect_str>
    37b4:	00731863          	bne	x6,x7,37c4 <failedtest_saveresults_trap+0x178>
    37b8:	00100413          	addi	x8,x0,1
    37bc:	00200493          	addi	x9,x0,2
    37c0:	1c00006f          	jal	x0,3980 <trap_diag_field_identified>
    37c4:	0000c397          	auipc	x7,0xc
    37c8:	1ba38393          	addi	x7,x7,442 # f97e <sv_Hcause_str>
    37cc:	00731863          	bne	x6,x7,37dc <failedtest_saveresults_trap+0x190>
    37d0:	00200413          	addi	x8,x0,2
    37d4:	00200493          	addi	x9,x0,2
    37d8:	1a80006f          	jal	x0,3980 <trap_diag_field_identified>
    37dc:	0000c397          	auipc	x7,0xc
    37e0:	29938393          	addi	x7,x7,665 # fa75 <sv_Hepc_str>
    37e4:	00731863          	bne	x6,x7,37f4 <failedtest_saveresults_trap+0x1a8>
    37e8:	00300413          	addi	x8,x0,3
    37ec:	00200493          	addi	x9,x0,2
    37f0:	1900006f          	jal	x0,3980 <trap_diag_field_identified>
    37f4:	0000c397          	auipc	x7,0xc
    37f8:	37638393          	addi	x7,x7,886 # fb6a <sv_Htval_str>
    37fc:	00731863          	bne	x6,x7,380c <failedtest_saveresults_trap+0x1c0>
    3800:	00400413          	addi	x8,x0,4
    3804:	00200493          	addi	x9,x0,2
    3808:	1780006f          	jal	x0,3980 <trap_diag_field_identified>
    380c:	0000c397          	auipc	x7,0xc
    3810:	4cd38393          	addi	x7,x7,1229 # fcd9 <sv_Hip_str>
    3814:	00731863          	bne	x6,x7,3824 <failedtest_saveresults_trap+0x1d8>
    3818:	00500413          	addi	x8,x0,5
    381c:	00200493          	addi	x9,x0,2
    3820:	1600006f          	jal	x0,3980 <trap_diag_field_identified>
    3824:	0000c397          	auipc	x7,0xc
    3828:	09d38393          	addi	x7,x7,157 # f8c1 <sv_Vvect_str>
    382c:	00731863          	bne	x6,x7,383c <failedtest_saveresults_trap+0x1f0>
    3830:	00100413          	addi	x8,x0,1
    3834:	00300493          	addi	x9,x0,3
    3838:	1480006f          	jal	x0,3980 <trap_diag_field_identified>
    383c:	0000c397          	auipc	x7,0xc
    3840:	18138393          	addi	x7,x7,385 # f9bd <sv_Vcause_str>
    3844:	00731863          	bne	x6,x7,3854 <failedtest_saveresults_trap+0x208>
    3848:	00200413          	addi	x8,x0,2
    384c:	00300493          	addi	x9,x0,3
    3850:	1300006f          	jal	x0,3980 <trap_diag_field_identified>
    3854:	0000c397          	auipc	x7,0xc
    3858:	25e38393          	addi	x7,x7,606 # fab2 <sv_Vepc_str>
    385c:	00731863          	bne	x6,x7,386c <failedtest_saveresults_trap+0x220>
    3860:	00300413          	addi	x8,x0,3
    3864:	00300493          	addi	x9,x0,3
    3868:	1180006f          	jal	x0,3980 <trap_diag_field_identified>
    386c:	0000c397          	auipc	x7,0xc
    3870:	33c38393          	addi	x7,x7,828 # fba8 <sv_Vtval_str>
    3874:	00731863          	bne	x6,x7,3884 <failedtest_saveresults_trap+0x238>
    3878:	00400413          	addi	x8,x0,4
    387c:	00300493          	addi	x9,x0,3
    3880:	1000006f          	jal	x0,3980 <trap_diag_field_identified>
    3884:	0000c397          	auipc	x7,0xc
    3888:	49138393          	addi	x7,x7,1169 # fd15 <sv_Vip_str>
    388c:	00731863          	bne	x6,x7,389c <failedtest_saveresults_trap+0x250>
    3890:	00500413          	addi	x8,x0,5
    3894:	00300493          	addi	x9,x0,3
    3898:	0e80006f          	jal	x0,3980 <trap_diag_field_identified>
    389c:	0000c397          	auipc	x7,0xc
    38a0:	4b638393          	addi	x7,x7,1206 # fd52 <Mclr_Mext_int_str>
    38a4:	00731863          	bne	x6,x7,38b4 <failedtest_saveresults_trap+0x268>
    38a8:	00800413          	addi	x8,x0,8
    38ac:	00000493          	addi	x9,x0,0
    38b0:	0d00006f          	jal	x0,3980 <trap_diag_field_identified>
    38b4:	0000c397          	auipc	x7,0xc
    38b8:	4ed38393          	addi	x7,x7,1261 # fda1 <Mclr_Sext_int_str>
    38bc:	00731863          	bne	x6,x7,38cc <failedtest_saveresults_trap+0x280>
    38c0:	00800413          	addi	x8,x0,8
    38c4:	00000493          	addi	x9,x0,0
    38c8:	0b80006f          	jal	x0,3980 <trap_diag_field_identified>
    38cc:	0000c397          	auipc	x7,0xc
    38d0:	5d038393          	addi	x7,x7,1488 # fe9c <Sclr_Sext_int_str>
    38d4:	00731863          	bne	x6,x7,38e4 <failedtest_saveresults_trap+0x298>
    38d8:	00800413          	addi	x8,x0,8
    38dc:	00100493          	addi	x9,x0,1
    38e0:	0a00006f          	jal	x0,3980 <trap_diag_field_identified>
    38e4:	0000c397          	auipc	x7,0xc
    38e8:	6b438393          	addi	x7,x7,1716 # ff98 <Hclr_Sext_int_str>
    38ec:	00731863          	bne	x6,x7,38fc <failedtest_saveresults_trap+0x2b0>
    38f0:	00800413          	addi	x8,x0,8
    38f4:	00200493          	addi	x9,x0,2
    38f8:	0880006f          	jal	x0,3980 <trap_diag_field_identified>
    38fc:	1140006f          	jal	x0,3a10 <trap_diag_generic_report>

00003900 <trap_diag_offset_mismatch>:
    3900:	00900413          	addi	x8,x0,9
    3904:	0000b817          	auipc	x16,0xb
    3908:	79c80813          	addi	x16,x16,1948 # f0a0 <trap_diag_subtype>
    390c:	00882023          	sw	x8,0(x16)
    3910:	ffa2d303          	lhu	x6,-6(x5)
    3914:	ff82d383          	lhu	x7,-8(x5)
    3918:	01031313          	slli	x6,x6,0x10
    391c:	00736333          	or	x6,x6,x7
    3920:	01435413          	srli	x8,x6,0x14
    3924:	01f47413          	andi	x8,x8,31
    3928:	00341313          	slli	x6,x8,0x3
    392c:	00620333          	add	x6,x4,x6
    3930:	00032303          	lw	x6,0(x6)
    3934:	0000b817          	auipc	x16,0xb
    3938:	78480813          	addi	x16,x16,1924 # f0b8 <trap_diag_actual_offset>
    393c:	00682023          	sw	x6,0(x16)
    3940:	ff62d303          	lhu	x6,-10(x5)
    3944:	ff42d383          	lhu	x7,-12(x5)
    3948:	01031313          	slli	x6,x6,0x10
    394c:	00736333          	or	x6,x6,x7
    3950:	41435393          	srai	x7,x6,0x14
    3954:	00f35313          	srli	x6,x6,0xf
    3958:	01f37313          	andi	x6,x6,31
    395c:	00331313          	slli	x6,x6,0x3
    3960:	00620333          	add	x6,x4,x6
    3964:	00032303          	lw	x6,0(x6)
    3968:	00730333          	add	x6,x6,x7
    396c:	00032303          	lw	x6,0(x6)
    3970:	0000b817          	auipc	x16,0xb
    3974:	75080813          	addi	x16,x16,1872 # f0c0 <trap_diag_expected_offset>
    3978:	00682023          	sw	x6,0(x16)
    397c:	0a40006f          	jal	x0,3a20 <failedtest_saveresults_common>

00003980 <trap_diag_field_identified>:
    3980:	0000b817          	auipc	x16,0xb
    3984:	72080813          	addi	x16,x16,1824 # f0a0 <trap_diag_subtype>
    3988:	00882023          	sw	x8,0(x16)
    398c:	0000b817          	auipc	x16,0xb
    3990:	71880813          	addi	x16,x16,1816 # f0a4 <trap_diag_mode>
    3994:	00982023          	sw	x9,0(x16)
    3998:	ffa2d303          	lhu	x6,-6(x5)
    399c:	ff82d383          	lhu	x7,-8(x5)
    39a0:	01031313          	slli	x6,x6,0x10
    39a4:	00736333          	or	x6,x6,x7
    39a8:	01435713          	srli	x14,x6,0x14
    39ac:	01f77713          	andi	x14,x14,31
    39b0:	00371313          	slli	x6,x14,0x3
    39b4:	00620333          	add	x6,x4,x6
    39b8:	00032303          	lw	x6,0(x6)
    39bc:	10622823          	sw	x6,272(x4) # 110 <I_slti_cg_cp_rs1_b5+0x4>
    39c0:	0000b817          	auipc	x16,0xb
    39c4:	6e880813          	addi	x16,x16,1768 # f0a8 <trap_diag_actual_value>
    39c8:	00682023          	sw	x6,0(x16)
    39cc:	ff62d303          	lhu	x6,-10(x5)
    39d0:	ff42d383          	lhu	x7,-12(x5)
    39d4:	01031313          	slli	x6,x6,0x10
    39d8:	00736333          	or	x6,x6,x7
    39dc:	41435393          	srai	x7,x6,0x14
    39e0:	00f35313          	srli	x6,x6,0xf
    39e4:	01f37313          	andi	x6,x6,31
    39e8:	00331313          	slli	x6,x6,0x3
    39ec:	00620333          	add	x6,x4,x6
    39f0:	00032303          	lw	x6,0(x6)
    39f4:	00730333          	add	x6,x6,x7
    39f8:	00032303          	lw	x6,0(x6)
    39fc:	10622c23          	sw	x6,280(x4) # 118 <I_slti_cg_cp_rs1_b5+0xc>
    3a00:	0000b817          	auipc	x16,0xb
    3a04:	6b080813          	addi	x16,x16,1712 # f0b0 <trap_diag_expected_value>
    3a08:	00682023          	sw	x6,0(x16)
    3a0c:	0140006f          	jal	x0,3a20 <failedtest_saveresults_common>

00003a10 <trap_diag_generic_report>:
    3a10:	0000b817          	auipc	x16,0xb
    3a14:	69080813          	addi	x16,x16,1680 # f0a0 <trap_diag_subtype>
    3a18:	00082023          	sw	x0,0(x16)
    3a1c:	0040006f          	jal	x0,3a20 <failedtest_saveresults_common>

00003a20 <failedtest_saveresults_common>:
    3a20:	0002a303          	lw	x6,0(x5)
    3a24:	10622423          	sw	x6,264(x4) # 108 <I_slti_cg_cp_rs1_b4+0x20>
    3a28:	00035383          	lhu	x7,0(x6)
    3a2c:	0033f413          	andi	x8,x7,3
    3a30:	00300493          	addi	x9,x0,3
    3a34:	00941863          	bne	x8,x9,3a44 <failedtest_saveresults_common+0x24>
    3a38:	00235403          	lhu	x8,2(x6)
    3a3c:	01041413          	slli	x8,x8,0x10
    3a40:	0083e3b3          	or	x7,x7,x8
    3a44:	10722023          	sw	x7,256(x4) # 100 <I_slti_cg_cp_rs1_b4+0x18>
    3a48:	0042a303          	lw	x6,4(x5)
    3a4c:	12622023          	sw	x6,288(x4) # 120 <I_slti_cg_cp_rs1_b5+0x14>

00003a50 <failedtest_report>:
    3a50:	00000013          	addi	x0,x0,0
    3a54:	00000013          	addi	x0,x0,0
    3a58:	00000013          	addi	x0,x0,0
    3a5c:	00000013          	addi	x0,x0,0
    3a60:	0000c517          	auipc	x10,0xc
    3a64:	bab50513          	addi	x10,x10,-1109 # f60b <failstr>
    3a68:	00000013          	addi	x0,x0,0
    3a6c:	00000013          	addi	x0,x0,0
    3a70:	00000013          	addi	x0,x0,0
    3a74:	00000013          	addi	x0,x0,0
    3a78:	00000013          	addi	x0,x0,0
    3a7c:	00000013          	addi	x0,x0,0
    3a80:	0001c097          	auipc	x1,0x1c
    3a84:	784080e7          	jalr	x1,1924(x1) # 20204 <rvmodel_io_write_str>

00003a88 <print_testnamestr>:
    3a88:	00000013          	addi	x0,x0,0
    3a8c:	00000013          	addi	x0,x0,0
    3a90:	00000013          	addi	x0,x0,0
    3a94:	00000013          	addi	x0,x0,0
    3a98:	00000013          	addi	x0,x0,0
    3a9c:	00000013          	addi	x0,x0,0
    3aa0:	0000c517          	auipc	x10,0xc
    3aa4:	bff50513          	addi	x10,x10,-1025 # f69f <testnamestr>
    3aa8:	00000013          	addi	x0,x0,0
    3aac:	00000013          	addi	x0,x0,0
    3ab0:	00000013          	addi	x0,x0,0
    3ab4:	00000013          	addi	x0,x0,0
    3ab8:	00000013          	addi	x0,x0,0
    3abc:	00000013          	addi	x0,x0,0
    3ac0:	0001c097          	auipc	x1,0x1c
    3ac4:	744080e7          	jalr	x1,1860(x1) # 20204 <rvmodel_io_write_str>

00003ac8 <print_failure_test_name_str>:
    3ac8:	0000b517          	auipc	x10,0xb
    3acc:	5c852503          	lw	x10,1480(x10) # f090 <failure_string_ptr>
    3ad0:	0001c097          	auipc	x1,0x1c
    3ad4:	734080e7          	jalr	x1,1844(x1) # 20204 <rvmodel_io_write_str>

00003ad8 <print_newline_str>:
    3ad8:	00000013          	addi	x0,x0,0
    3adc:	00000013          	addi	x0,x0,0
    3ae0:	0000c517          	auipc	x10,0xc
    3ae4:	bd150513          	addi	x10,x10,-1071 # f6b1 <newlinestr>
    3ae8:	00000013          	addi	x0,x0,0
    3aec:	00000013          	addi	x0,x0,0
    3af0:	00000013          	addi	x0,x0,0
    3af4:	00000013          	addi	x0,x0,0
    3af8:	00000013          	addi	x0,x0,0
    3afc:	00000013          	addi	x0,x0,0
    3b00:	0001c097          	auipc	x1,0x1c
    3b04:	704080e7          	jalr	x1,1796(x1) # 20204 <rvmodel_io_write_str>
    3b08:	0000b517          	auipc	x10,0xb
    3b0c:	46852503          	lw	x10,1128(x10) # ef70 <begin_failure_scratch>
    3b10:	00300593          	addi	x11,x0,3
    3b14:	3eb50c63          	beq	x10,x11,3f0c <failedtest_report_trap_detailed>
    3b18:	00000013          	addi	x0,x0,0
    3b1c:	00000013          	addi	x0,x0,0
    3b20:	0000c517          	auipc	x10,0xc
    3b24:	b9350513          	addi	x10,x10,-1133 # f6b3 <inststr>
    3b28:	00000013          	addi	x0,x0,0
    3b2c:	00000013          	addi	x0,x0,0
    3b30:	00000013          	addi	x0,x0,0
    3b34:	00000013          	addi	x0,x0,0
    3b38:	00000013          	addi	x0,x0,0
    3b3c:	00000013          	addi	x0,x0,0
    3b40:	0001c097          	auipc	x1,0x1c
    3b44:	6c4080e7          	jalr	x1,1732(x1) # 20204 <rvmodel_io_write_str>
    3b48:	0000b517          	auipc	x10,0xb
    3b4c:	52852503          	lw	x10,1320(x10) # f070 <failing_instruction>
    3b50:	02000593          	addi	x11,x0,32
    3b54:	00357613          	andi	x12,x10,3
    3b58:	00300693          	addi	x13,x0,3
    3b5c:	00d60463          	beq	x12,x13,3b64 <print_newline_str+0x8c>
    3b60:	01000593          	addi	x11,x0,16
    3b64:	2f4010ef          	jal	x1,4e58 <failedtest_hex_to_str>
    3b68:	00000013          	addi	x0,x0,0
    3b6c:	00000013          	addi	x0,x0,0
    3b70:	00000013          	addi	x0,x0,0
    3b74:	00000013          	addi	x0,x0,0
    3b78:	00000013          	addi	x0,x0,0
    3b7c:	00000013          	addi	x0,x0,0
    3b80:	0000b517          	auipc	x10,0xb
    3b84:	57850513          	addi	x10,x10,1400 # f0f8 <ascii_buffer>
    3b88:	00000013          	addi	x0,x0,0
    3b8c:	00000013          	addi	x0,x0,0
    3b90:	00000013          	addi	x0,x0,0
    3b94:	00000013          	addi	x0,x0,0
    3b98:	00000013          	addi	x0,x0,0
    3b9c:	00000013          	addi	x0,x0,0
    3ba0:	0001c097          	auipc	x1,0x1c
    3ba4:	664080e7          	jalr	x1,1636(x1) # 20204 <rvmodel_io_write_str>
    3ba8:	00000013          	addi	x0,x0,0
    3bac:	00000013          	addi	x0,x0,0
    3bb0:	00000013          	addi	x0,x0,0
    3bb4:	00000013          	addi	x0,x0,0
    3bb8:	00000013          	addi	x0,x0,0
    3bbc:	00000013          	addi	x0,x0,0
    3bc0:	0000c517          	auipc	x10,0xc
    3bc4:	b0750513          	addi	x10,x10,-1273 # f6c7 <addrstr>
    3bc8:	00000013          	addi	x0,x0,0
    3bcc:	00000013          	addi	x0,x0,0
    3bd0:	00000013          	addi	x0,x0,0
    3bd4:	00000013          	addi	x0,x0,0
    3bd8:	00000013          	addi	x0,x0,0
    3bdc:	00000013          	addi	x0,x0,0
    3be0:	0001c097          	auipc	x1,0x1c
    3be4:	624080e7          	jalr	x1,1572(x1) # 20204 <rvmodel_io_write_str>
    3be8:	0000b517          	auipc	x10,0xb
    3bec:	49052503          	lw	x10,1168(x10) # f078 <failing_addr>
    3bf0:	02000593          	addi	x11,x0,32
    3bf4:	264010ef          	jal	x1,4e58 <failedtest_hex_to_str>
    3bf8:	00000013          	addi	x0,x0,0
    3bfc:	00000013          	addi	x0,x0,0
    3c00:	0000b517          	auipc	x10,0xb
    3c04:	4f850513          	addi	x10,x10,1272 # f0f8 <ascii_buffer>
    3c08:	00000013          	addi	x0,x0,0
    3c0c:	00000013          	addi	x0,x0,0
    3c10:	00000013          	addi	x0,x0,0
    3c14:	00000013          	addi	x0,x0,0
    3c18:	00000013          	addi	x0,x0,0
    3c1c:	00000013          	addi	x0,x0,0
    3c20:	0001c097          	auipc	x1,0x1c
    3c24:	5e4080e7          	jalr	x1,1508(x1) # 20204 <rvmodel_io_write_str>
    3c28:	00000013          	addi	x0,x0,0
    3c2c:	00000013          	addi	x0,x0,0
    3c30:	00000013          	addi	x0,x0,0
    3c34:	00000013          	addi	x0,x0,0
    3c38:	00000013          	addi	x0,x0,0
    3c3c:	00000013          	addi	x0,x0,0
    3c40:	0000c517          	auipc	x10,0xc
    3c44:	50450513          	addi	x10,x10,1284 # 10144 <regstr>
    3c48:	00000013          	addi	x0,x0,0
    3c4c:	00000013          	addi	x0,x0,0
    3c50:	00000013          	addi	x0,x0,0
    3c54:	00000013          	addi	x0,x0,0
    3c58:	00000013          	addi	x0,x0,0
    3c5c:	00000013          	addi	x0,x0,0
    3c60:	0001c097          	auipc	x1,0x1c
    3c64:	5a4080e7          	jalr	x1,1444(x1) # 20204 <rvmodel_io_write_str>
    3c68:	0000b517          	auipc	x10,0xb
    3c6c:	30852503          	lw	x10,776(x10) # ef70 <begin_failure_scratch>
    3c70:	00050663          	beq	x10,x0,3c7c <print_newline_str+0x1a4>
    3c74:	00300593          	addi	x11,x0,3
    3c78:	04b51063          	bne	x10,x11,3cb8 <failedtest_report_not_intreg>
    3c7c:	07800593          	addi	x11,x0,120
    3c80:	0000b617          	auipc	x12,0xb
    3c84:	47860613          	addi	x12,x12,1144 # f0f8 <ascii_buffer>
    3c88:	00000013          	addi	x0,x0,0
    3c8c:	00000013          	addi	x0,x0,0
    3c90:	00000013          	addi	x0,x0,0
    3c94:	00000013          	addi	x0,x0,0
    3c98:	00000013          	addi	x0,x0,0
    3c9c:	00000013          	addi	x0,x0,0
    3ca0:	00b60023          	sb	x11,0(x12)
    3ca4:	00160613          	addi	x12,x12,1
    3ca8:	0000b517          	auipc	x10,0xb
    3cac:	3cc52503          	lw	x10,972(x10) # f074 <failing_reg>
    3cb0:	224010ef          	jal	x1,4ed4 <failedtest_dec_to_str>
    3cb4:	0e00006f          	jal	x0,3d94 <failedtest_report_print_regstr>

00003cb8 <failedtest_report_not_intreg>:
    3cb8:	00100593          	addi	x11,x0,1
    3cbc:	04b50863          	beq	x10,x11,3d0c <failedtest_report_fpreg>
    3cc0:	00400593          	addi	x11,x0,4
    3cc4:	08b50a63          	beq	x10,x11,3d58 <failedtest_report_vecreg>
    3cc8:	00000013          	addi	x0,x0,0
    3ccc:	00000013          	addi	x0,x0,0
    3cd0:	00000013          	addi	x0,x0,0
    3cd4:	00000013          	addi	x0,x0,0
    3cd8:	00000013          	addi	x0,x0,0
    3cdc:	00000013          	addi	x0,x0,0
    3ce0:	0000c517          	auipc	x10,0xc
    3ce4:	4c450513          	addi	x10,x10,1220 # 101a4 <fflagsstr>
    3ce8:	00000013          	addi	x0,x0,0
    3cec:	00000013          	addi	x0,x0,0
    3cf0:	00000013          	addi	x0,x0,0
    3cf4:	00000013          	addi	x0,x0,0
    3cf8:	00000013          	addi	x0,x0,0
    3cfc:	00000013          	addi	x0,x0,0
    3d00:	0001c097          	auipc	x1,0x1c
    3d04:	504080e7          	jalr	x1,1284(x1) # 20204 <rvmodel_io_write_str>
    3d08:	0c00006f          	jal	x0,3dc8 <failedtest_report_after_reg>

00003d0c <failedtest_report_fpreg>:
    3d0c:	06600593          	addi	x11,x0,102
    3d10:	00000013          	addi	x0,x0,0
    3d14:	00000013          	addi	x0,x0,0
    3d18:	00000013          	addi	x0,x0,0
    3d1c:	00000013          	addi	x0,x0,0
    3d20:	0000b617          	auipc	x12,0xb
    3d24:	3d860613          	addi	x12,x12,984 # f0f8 <ascii_buffer>
    3d28:	00000013          	addi	x0,x0,0
    3d2c:	00000013          	addi	x0,x0,0
    3d30:	00000013          	addi	x0,x0,0
    3d34:	00000013          	addi	x0,x0,0
    3d38:	00000013          	addi	x0,x0,0
    3d3c:	00000013          	addi	x0,x0,0
    3d40:	00b60023          	sb	x11,0(x12)
    3d44:	00160613          	addi	x12,x12,1
    3d48:	0000b517          	auipc	x10,0xb
    3d4c:	32c52503          	lw	x10,812(x10) # f074 <failing_reg>
    3d50:	184010ef          	jal	x1,4ed4 <failedtest_dec_to_str>
    3d54:	0400006f          	jal	x0,3d94 <failedtest_report_print_regstr>

00003d58 <failedtest_report_vecreg>:
    3d58:	07600593          	addi	x11,x0,118
    3d5c:	00000013          	addi	x0,x0,0
    3d60:	0000b617          	auipc	x12,0xb
    3d64:	39860613          	addi	x12,x12,920 # f0f8 <ascii_buffer>
    3d68:	00000013          	addi	x0,x0,0
    3d6c:	00000013          	addi	x0,x0,0
    3d70:	00000013          	addi	x0,x0,0
    3d74:	00000013          	addi	x0,x0,0
    3d78:	00000013          	addi	x0,x0,0
    3d7c:	00000013          	addi	x0,x0,0
    3d80:	00b60023          	sb	x11,0(x12)
    3d84:	00160613          	addi	x12,x12,1
    3d88:	0000b517          	auipc	x10,0xb
    3d8c:	2ec52503          	lw	x10,748(x10) # f074 <failing_reg>
    3d90:	144010ef          	jal	x1,4ed4 <failedtest_dec_to_str>

00003d94 <failedtest_report_print_regstr>:
    3d94:	00000013          	addi	x0,x0,0
    3d98:	00000013          	addi	x0,x0,0
    3d9c:	00000013          	addi	x0,x0,0
    3da0:	0000b517          	auipc	x10,0xb
    3da4:	35850513          	addi	x10,x10,856 # f0f8 <ascii_buffer>
    3da8:	00000013          	addi	x0,x0,0
    3dac:	00000013          	addi	x0,x0,0
    3db0:	00000013          	addi	x0,x0,0
    3db4:	00000013          	addi	x0,x0,0
    3db8:	00000013          	addi	x0,x0,0
    3dbc:	00000013          	addi	x0,x0,0
    3dc0:	0001c097          	auipc	x1,0x1c
    3dc4:	444080e7          	jalr	x1,1092(x1) # 20204 <rvmodel_io_write_str>

00003dc8 <failedtest_report_after_reg>:
    3dc8:	00000013          	addi	x0,x0,0
    3dcc:	00000013          	addi	x0,x0,0
    3dd0:	00000013          	addi	x0,x0,0
    3dd4:	00000013          	addi	x0,x0,0
    3dd8:	00000013          	addi	x0,x0,0
    3ddc:	00000013          	addi	x0,x0,0
    3de0:	0000c517          	auipc	x10,0xc
    3de4:	37550513          	addi	x10,x10,885 # 10155 <badvalstr>
    3de8:	00000013          	addi	x0,x0,0
    3dec:	00000013          	addi	x0,x0,0
    3df0:	00000013          	addi	x0,x0,0
    3df4:	00000013          	addi	x0,x0,0
    3df8:	00000013          	addi	x0,x0,0
    3dfc:	00000013          	addi	x0,x0,0
    3e00:	0001c097          	auipc	x1,0x1c
    3e04:	404080e7          	jalr	x1,1028(x1) # 20204 <rvmodel_io_write_str>
    3e08:	0000b517          	auipc	x10,0xb
    3e0c:	16852503          	lw	x10,360(x10) # ef70 <begin_failure_scratch>
    3e10:	00100593          	addi	x11,x0,1
    3e14:	00b51c63          	bne	x10,x11,3e2c <failedtest_report_badval_not_fp>
    3e18:	0000b517          	auipc	x10,0xb
    3e1c:	26852503          	lw	x10,616(x10) # f080 <failing_value>
    3e20:	02000593          	addi	x11,x0,32
    3e24:	034010ef          	jal	x1,4e58 <failedtest_hex_to_str>
    3e28:	0140006f          	jal	x0,3e3c <failedtest_report_badval_done>

00003e2c <failedtest_report_badval_not_fp>:
    3e2c:	0000b517          	auipc	x10,0xb
    3e30:	25452503          	lw	x10,596(x10) # f080 <failing_value>
    3e34:	02000593          	addi	x11,x0,32
    3e38:	020010ef          	jal	x1,4e58 <failedtest_hex_to_str>

00003e3c <failedtest_report_badval_done>:
    3e3c:	00000013          	addi	x0,x0,0
    3e40:	0000b517          	auipc	x10,0xb
    3e44:	2b850513          	addi	x10,x10,696 # f0f8 <ascii_buffer>
    3e48:	00000013          	addi	x0,x0,0
    3e4c:	00000013          	addi	x0,x0,0
    3e50:	00000013          	addi	x0,x0,0
    3e54:	00000013          	addi	x0,x0,0
    3e58:	00000013          	addi	x0,x0,0
    3e5c:	00000013          	addi	x0,x0,0
    3e60:	0001c097          	auipc	x1,0x1c
    3e64:	3a4080e7          	jalr	x1,932(x1) # 20204 <rvmodel_io_write_str>
    3e68:	00000013          	addi	x0,x0,0
    3e6c:	00000013          	addi	x0,x0,0
    3e70:	00000013          	addi	x0,x0,0
    3e74:	00000013          	addi	x0,x0,0
    3e78:	00000013          	addi	x0,x0,0
    3e7c:	00000013          	addi	x0,x0,0
    3e80:	0000c517          	auipc	x10,0xc
    3e84:	2ec50513          	addi	x10,x10,748 # 1016c <expvalstr>
    3e88:	00000013          	addi	x0,x0,0
    3e8c:	00000013          	addi	x0,x0,0
    3e90:	00000013          	addi	x0,x0,0
    3e94:	00000013          	addi	x0,x0,0
    3e98:	00000013          	addi	x0,x0,0
    3e9c:	00000013          	addi	x0,x0,0
    3ea0:	0001c097          	auipc	x1,0x1c
    3ea4:	364080e7          	jalr	x1,868(x1) # 20204 <rvmodel_io_write_str>
    3ea8:	0000b517          	auipc	x10,0xb
    3eac:	0c852503          	lw	x10,200(x10) # ef70 <begin_failure_scratch>
    3eb0:	00100593          	addi	x11,x0,1
    3eb4:	00b51c63          	bne	x10,x11,3ecc <failedtest_report_expval_not_fp>
    3eb8:	0000b517          	auipc	x10,0xb
    3ebc:	1d052503          	lw	x10,464(x10) # f088 <expected_value>
    3ec0:	02000593          	addi	x11,x0,32
    3ec4:	795000ef          	jal	x1,4e58 <failedtest_hex_to_str>
    3ec8:	0140006f          	jal	x0,3edc <failedtest_report_expval_done>

00003ecc <failedtest_report_expval_not_fp>:
    3ecc:	0000b517          	auipc	x10,0xb
    3ed0:	1bc52503          	lw	x10,444(x10) # f088 <expected_value>
    3ed4:	02000593          	addi	x11,x0,32
    3ed8:	781000ef          	jal	x1,4e58 <failedtest_hex_to_str>

00003edc <failedtest_report_expval_done>:
    3edc:	00000013          	addi	x0,x0,0
    3ee0:	0000b517          	auipc	x10,0xb
    3ee4:	21850513          	addi	x10,x10,536 # f0f8 <ascii_buffer>
    3ee8:	00000013          	addi	x0,x0,0
    3eec:	00000013          	addi	x0,x0,0
    3ef0:	00000013          	addi	x0,x0,0
    3ef4:	00000013          	addi	x0,x0,0
    3ef8:	00000013          	addi	x0,x0,0
    3efc:	00000013          	addi	x0,x0,0
    3f00:	0001c097          	auipc	x1,0x1c
    3f04:	304080e7          	jalr	x1,772(x1) # 20204 <rvmodel_io_write_str>
    3f08:	4fd0006f          	jal	x0,4c04 <failedtest_report_end>

00003f0c <failedtest_report_trap_detailed>:
    3f0c:	00000013          	addi	x0,x0,0
    3f10:	00000013          	addi	x0,x0,0
    3f14:	00000013          	addi	x0,x0,0
    3f18:	00000013          	addi	x0,x0,0
    3f1c:	00000013          	addi	x0,x0,0
    3f20:	0000c517          	auipc	x10,0xc
    3f24:	2b050513          	addi	x10,x10,688 # 101d0 <trap_diag_header_str>
    3f28:	00000013          	addi	x0,x0,0
    3f2c:	00000013          	addi	x0,x0,0
    3f30:	00000013          	addi	x0,x0,0
    3f34:	00000013          	addi	x0,x0,0
    3f38:	00000013          	addi	x0,x0,0
    3f3c:	00000013          	addi	x0,x0,0
    3f40:	0001c097          	auipc	x1,0x1c
    3f44:	2c4080e7          	jalr	x1,708(x1) # 20204 <rvmodel_io_write_str>
    3f48:	00000013          	addi	x0,x0,0
    3f4c:	00000013          	addi	x0,x0,0
    3f50:	00000013          	addi	x0,x0,0
    3f54:	00000013          	addi	x0,x0,0
    3f58:	00000013          	addi	x0,x0,0
    3f5c:	00000013          	addi	x0,x0,0
    3f60:	0000c517          	auipc	x10,0xc
    3f64:	29c50513          	addi	x10,x10,668 # 101fc <trap_diag_origstr_label>
    3f68:	00000013          	addi	x0,x0,0
    3f6c:	00000013          	addi	x0,x0,0
    3f70:	00000013          	addi	x0,x0,0
    3f74:	00000013          	addi	x0,x0,0
    3f78:	00000013          	addi	x0,x0,0
    3f7c:	00000013          	addi	x0,x0,0
    3f80:	0001c097          	auipc	x1,0x1c
    3f84:	284080e7          	jalr	x1,644(x1) # 20204 <rvmodel_io_write_str>
    3f88:	0000b817          	auipc	x16,0xb
    3f8c:	14080813          	addi	x16,x16,320 # f0c8 <trap_diag_fail_str_ptr>
    3f90:	00082503          	lw	x10,0(x16)
    3f94:	0001c097          	auipc	x1,0x1c
    3f98:	270080e7          	jalr	x1,624(x1) # 20204 <rvmodel_io_write_str>
    3f9c:	00000013          	addi	x0,x0,0
    3fa0:	0000b517          	auipc	x10,0xb
    3fa4:	71150513          	addi	x10,x10,1809 # f6b1 <newlinestr>
    3fa8:	00000013          	addi	x0,x0,0
    3fac:	00000013          	addi	x0,x0,0
    3fb0:	00000013          	addi	x0,x0,0
    3fb4:	00000013          	addi	x0,x0,0
    3fb8:	00000013          	addi	x0,x0,0
    3fbc:	00000013          	addi	x0,x0,0
    3fc0:	0001c097          	auipc	x1,0x1c
    3fc4:	244080e7          	jalr	x1,580(x1) # 20204 <rvmodel_io_write_str>
    3fc8:	0000b417          	auipc	x8,0xb
    3fcc:	0d842403          	lw	x8,216(x8) # f0a0 <trap_diag_subtype>
    3fd0:	00900493          	addi	x9,x0,9
    3fd4:	00940663          	beq	x8,x9,3fe0 <trap_report_offset_mismatch>
    3fd8:	2a040ce3          	beq	x8,x0,4a90 <trap_report_generic>
    3fdc:	3780006f          	jal	x0,4354 <trap_report_field_mismatch>

00003fe0 <trap_report_offset_mismatch>:
    3fe0:	0000c517          	auipc	x10,0xc
    3fe4:	22c50513          	addi	x10,x10,556 # 1020c <trap_diag_count_mismatch_str>
    3fe8:	00000013          	addi	x0,x0,0
    3fec:	00000013          	addi	x0,x0,0
    3ff0:	00000013          	addi	x0,x0,0
    3ff4:	00000013          	addi	x0,x0,0
    3ff8:	00000013          	addi	x0,x0,0
    3ffc:	00000013          	addi	x0,x0,0
    4000:	0001c097          	auipc	x1,0x1c
    4004:	204080e7          	jalr	x1,516(x1) # 20204 <rvmodel_io_write_str>
    4008:	00000013          	addi	x0,x0,0
    400c:	00000013          	addi	x0,x0,0
    4010:	00000013          	addi	x0,x0,0
    4014:	00000013          	addi	x0,x0,0
    4018:	00000013          	addi	x0,x0,0
    401c:	00000013          	addi	x0,x0,0
    4020:	0000c517          	auipc	x10,0xc
    4024:	24d50513          	addi	x10,x10,589 # 1026d <trap_diag_expected_offset_str>
    4028:	00000013          	addi	x0,x0,0
    402c:	00000013          	addi	x0,x0,0
    4030:	00000013          	addi	x0,x0,0
    4034:	00000013          	addi	x0,x0,0
    4038:	00000013          	addi	x0,x0,0
    403c:	00000013          	addi	x0,x0,0
    4040:	0001c097          	auipc	x1,0x1c
    4044:	1c4080e7          	jalr	x1,452(x1) # 20204 <rvmodel_io_write_str>
    4048:	0000b517          	auipc	x10,0xb
    404c:	07852503          	lw	x10,120(x10) # f0c0 <trap_diag_expected_offset>
    4050:	02000593          	addi	x11,x0,32
    4054:	605000ef          	jal	x1,4e58 <failedtest_hex_to_str>
    4058:	00000013          	addi	x0,x0,0
    405c:	00000013          	addi	x0,x0,0
    4060:	0000b517          	auipc	x10,0xb
    4064:	09850513          	addi	x10,x10,152 # f0f8 <ascii_buffer>
    4068:	00000013          	addi	x0,x0,0
    406c:	00000013          	addi	x0,x0,0
    4070:	00000013          	addi	x0,x0,0
    4074:	00000013          	addi	x0,x0,0
    4078:	00000013          	addi	x0,x0,0
    407c:	00000013          	addi	x0,x0,0
    4080:	0001c097          	auipc	x1,0x1c
    4084:	184080e7          	jalr	x1,388(x1) # 20204 <rvmodel_io_write_str>
    4088:	00000013          	addi	x0,x0,0
    408c:	00000013          	addi	x0,x0,0
    4090:	00000013          	addi	x0,x0,0
    4094:	00000013          	addi	x0,x0,0
    4098:	00000013          	addi	x0,x0,0
    409c:	00000013          	addi	x0,x0,0
    40a0:	0000c517          	auipc	x10,0xc
    40a4:	1f450513          	addi	x10,x10,500 # 10294 <trap_diag_actual_offset_str>
    40a8:	00000013          	addi	x0,x0,0
    40ac:	00000013          	addi	x0,x0,0
    40b0:	00000013          	addi	x0,x0,0
    40b4:	00000013          	addi	x0,x0,0
    40b8:	00000013          	addi	x0,x0,0
    40bc:	00000013          	addi	x0,x0,0
    40c0:	0001c097          	auipc	x1,0x1c
    40c4:	144080e7          	jalr	x1,324(x1) # 20204 <rvmodel_io_write_str>
    40c8:	0000b517          	auipc	x10,0xb
    40cc:	ff052503          	lw	x10,-16(x10) # f0b8 <trap_diag_actual_offset>
    40d0:	02000593          	addi	x11,x0,32
    40d4:	585000ef          	jal	x1,4e58 <failedtest_hex_to_str>
    40d8:	00000013          	addi	x0,x0,0
    40dc:	00000013          	addi	x0,x0,0
    40e0:	0000b517          	auipc	x10,0xb
    40e4:	01850513          	addi	x10,x10,24 # f0f8 <ascii_buffer>
    40e8:	00000013          	addi	x0,x0,0
    40ec:	00000013          	addi	x0,x0,0
    40f0:	00000013          	addi	x0,x0,0
    40f4:	00000013          	addi	x0,x0,0
    40f8:	00000013          	addi	x0,x0,0
    40fc:	00000013          	addi	x0,x0,0
    4100:	0001c097          	auipc	x1,0x1c
    4104:	104080e7          	jalr	x1,260(x1) # 20204 <rvmodel_io_write_str>
    4108:	0000b317          	auipc	x6,0xb
    410c:	fb032303          	lw	x6,-80(x6) # f0b8 <trap_diag_actual_offset>
    4110:	0000b397          	auipc	x7,0xb
    4114:	fb03a383          	lw	x7,-80(x7) # f0c0 <trap_diag_expected_offset>
    4118:	10734e63          	blt	x6,x7,4234 <trap_report_missing_traps>

0000411c <trap_report_extra_traps>:
    411c:	00000013          	addi	x0,x0,0
    4120:	0000c517          	auipc	x10,0xc
    4124:	19b50513          	addi	x10,x10,411 # 102bb <trap_diag_extra_traps_str>
    4128:	00000013          	addi	x0,x0,0
    412c:	00000013          	addi	x0,x0,0
    4130:	00000013          	addi	x0,x0,0
    4134:	00000013          	addi	x0,x0,0
    4138:	00000013          	addi	x0,x0,0
    413c:	00000013          	addi	x0,x0,0
    4140:	0001c097          	auipc	x1,0x1c
    4144:	0c4080e7          	jalr	x1,196(x1) # 20204 <rvmodel_io_write_str>
    4148:	0000b317          	auipc	x6,0xb
    414c:	f7032303          	lw	x6,-144(x6) # f0b8 <trap_diag_actual_offset>
    4150:	0000b397          	auipc	x7,0xb
    4154:	f703a383          	lw	x7,-144(x7) # f0c0 <trap_diag_expected_offset>
    4158:	40730333          	sub	x6,x6,x7
    415c:	00235313          	srli	x6,x6,0x2
    4160:	0000c517          	auipc	x10,0xc
    4164:	1e050513          	addi	x10,x10,480 # 10340 <trap_diag_extra_bytes_str>
    4168:	00000013          	addi	x0,x0,0
    416c:	00000013          	addi	x0,x0,0
    4170:	00000013          	addi	x0,x0,0
    4174:	00000013          	addi	x0,x0,0
    4178:	00000013          	addi	x0,x0,0
    417c:	00000013          	addi	x0,x0,0
    4180:	0001c097          	auipc	x1,0x1c
    4184:	084080e7          	jalr	x1,132(x1) # 20204 <rvmodel_io_write_str>
    4188:	0000b317          	auipc	x6,0xb
    418c:	f3032303          	lw	x6,-208(x6) # f0b8 <trap_diag_actual_offset>
    4190:	0000b397          	auipc	x7,0xb
    4194:	f303a383          	lw	x7,-208(x7) # f0c0 <trap_diag_expected_offset>
    4198:	40730533          	sub	x10,x6,x7
    419c:	02000593          	addi	x11,x0,32
    41a0:	4b9000ef          	jal	x1,4e58 <failedtest_hex_to_str>
    41a4:	00000013          	addi	x0,x0,0
    41a8:	00000013          	addi	x0,x0,0
    41ac:	00000013          	addi	x0,x0,0
    41b0:	00000013          	addi	x0,x0,0
    41b4:	00000013          	addi	x0,x0,0
    41b8:	00000013          	addi	x0,x0,0
    41bc:	00000013          	addi	x0,x0,0
    41c0:	0000b517          	auipc	x10,0xb
    41c4:	f3850513          	addi	x10,x10,-200 # f0f8 <ascii_buffer>
    41c8:	00000013          	addi	x0,x0,0
    41cc:	00000013          	addi	x0,x0,0
    41d0:	00000013          	addi	x0,x0,0
    41d4:	00000013          	addi	x0,x0,0
    41d8:	00000013          	addi	x0,x0,0
    41dc:	00000013          	addi	x0,x0,0
    41e0:	0001c097          	auipc	x1,0x1c
    41e4:	024080e7          	jalr	x1,36(x1) # 20204 <rvmodel_io_write_str>
    41e8:	00000013          	addi	x0,x0,0
    41ec:	00000013          	addi	x0,x0,0
    41f0:	00000013          	addi	x0,x0,0
    41f4:	00000013          	addi	x0,x0,0
    41f8:	00000013          	addi	x0,x0,0
    41fc:	00000013          	addi	x0,x0,0
    4200:	0000c517          	auipc	x10,0xc
    4204:	16b50513          	addi	x10,x10,363 # 1036b <trap_diag_extra_hint_str>
    4208:	00000013          	addi	x0,x0,0
    420c:	00000013          	addi	x0,x0,0
    4210:	00000013          	addi	x0,x0,0
    4214:	00000013          	addi	x0,x0,0
    4218:	00000013          	addi	x0,x0,0
    421c:	00000013          	addi	x0,x0,0
    4220:	0001c097          	auipc	x1,0x1c
    4224:	fe4080e7          	jalr	x1,-28(x1) # 20204 <rvmodel_io_write_str>
    4228:	00001097          	auipc	x1,0x1
    422c:	a28080e7          	jalr	x1,-1496(x1) # 4c50 <failedtest_print_csr_context>
    4230:	1d50006f          	jal	x0,4c04 <failedtest_report_end>

00004234 <trap_report_missing_traps>:
    4234:	00000013          	addi	x0,x0,0
    4238:	00000013          	addi	x0,x0,0
    423c:	00000013          	addi	x0,x0,0
    4240:	0000c517          	auipc	x10,0xc
    4244:	0b550513          	addi	x10,x10,181 # 102f5 <trap_diag_missing_traps_str>
    4248:	00000013          	addi	x0,x0,0
    424c:	00000013          	addi	x0,x0,0
    4250:	00000013          	addi	x0,x0,0
    4254:	00000013          	addi	x0,x0,0
    4258:	00000013          	addi	x0,x0,0
    425c:	00000013          	addi	x0,x0,0
    4260:	0001c097          	auipc	x1,0x1c
    4264:	fa4080e7          	jalr	x1,-92(x1) # 20204 <rvmodel_io_write_str>
    4268:	00000013          	addi	x0,x0,0
    426c:	00000013          	addi	x0,x0,0
    4270:	00000013          	addi	x0,x0,0
    4274:	00000013          	addi	x0,x0,0
    4278:	00000013          	addi	x0,x0,0
    427c:	00000013          	addi	x0,x0,0
    4280:	0000c517          	auipc	x10,0xc
    4284:	0c050513          	addi	x10,x10,192 # 10340 <trap_diag_extra_bytes_str>
    4288:	00000013          	addi	x0,x0,0
    428c:	00000013          	addi	x0,x0,0
    4290:	00000013          	addi	x0,x0,0
    4294:	00000013          	addi	x0,x0,0
    4298:	00000013          	addi	x0,x0,0
    429c:	00000013          	addi	x0,x0,0
    42a0:	0001c097          	auipc	x1,0x1c
    42a4:	f64080e7          	jalr	x1,-156(x1) # 20204 <rvmodel_io_write_str>
    42a8:	0000b317          	auipc	x6,0xb
    42ac:	e1832303          	lw	x6,-488(x6) # f0c0 <trap_diag_expected_offset>
    42b0:	0000b397          	auipc	x7,0xb
    42b4:	e083a383          	lw	x7,-504(x7) # f0b8 <trap_diag_actual_offset>
    42b8:	40730533          	sub	x10,x6,x7
    42bc:	02000593          	addi	x11,x0,32
    42c0:	399000ef          	jal	x1,4e58 <failedtest_hex_to_str>
    42c4:	00000013          	addi	x0,x0,0
    42c8:	00000013          	addi	x0,x0,0
    42cc:	00000013          	addi	x0,x0,0
    42d0:	00000013          	addi	x0,x0,0
    42d4:	00000013          	addi	x0,x0,0
    42d8:	00000013          	addi	x0,x0,0
    42dc:	00000013          	addi	x0,x0,0
    42e0:	0000b517          	auipc	x10,0xb
    42e4:	e1850513          	addi	x10,x10,-488 # f0f8 <ascii_buffer>
    42e8:	00000013          	addi	x0,x0,0
    42ec:	00000013          	addi	x0,x0,0
    42f0:	00000013          	addi	x0,x0,0
    42f4:	00000013          	addi	x0,x0,0
    42f8:	00000013          	addi	x0,x0,0
    42fc:	00000013          	addi	x0,x0,0
    4300:	0001c097          	auipc	x1,0x1c
    4304:	f04080e7          	jalr	x1,-252(x1) # 20204 <rvmodel_io_write_str>
    4308:	00000013          	addi	x0,x0,0
    430c:	00000013          	addi	x0,x0,0
    4310:	00000013          	addi	x0,x0,0
    4314:	00000013          	addi	x0,x0,0
    4318:	00000013          	addi	x0,x0,0
    431c:	00000013          	addi	x0,x0,0
    4320:	0000c517          	auipc	x10,0xc
    4324:	13350513          	addi	x10,x10,307 # 10453 <trap_diag_missing_hint_str>
    4328:	00000013          	addi	x0,x0,0
    432c:	00000013          	addi	x0,x0,0
    4330:	00000013          	addi	x0,x0,0
    4334:	00000013          	addi	x0,x0,0
    4338:	00000013          	addi	x0,x0,0
    433c:	00000013          	addi	x0,x0,0
    4340:	0001c097          	auipc	x1,0x1c
    4344:	ec4080e7          	jalr	x1,-316(x1) # 20204 <rvmodel_io_write_str>
    4348:	00001097          	auipc	x1,0x1
    434c:	908080e7          	jalr	x1,-1784(x1) # 4c50 <failedtest_print_csr_context>
    4350:	0b50006f          	jal	x0,4c04 <failedtest_report_end>

00004354 <trap_report_field_mismatch>:
    4354:	00000013          	addi	x0,x0,0
    4358:	00000013          	addi	x0,x0,0
    435c:	00000013          	addi	x0,x0,0
    4360:	0000c517          	auipc	x10,0xc
    4364:	1da50513          	addi	x10,x10,474 # 1053a <trap_diag_handler_mode_str>
    4368:	00000013          	addi	x0,x0,0
    436c:	00000013          	addi	x0,x0,0
    4370:	00000013          	addi	x0,x0,0
    4374:	00000013          	addi	x0,x0,0
    4378:	00000013          	addi	x0,x0,0
    437c:	00000013          	addi	x0,x0,0
    4380:	0001c097          	auipc	x1,0x1c
    4384:	e84080e7          	jalr	x1,-380(x1) # 20204 <rvmodel_io_write_str>
    4388:	0000b517          	auipc	x10,0xb
    438c:	d1c52503          	lw	x10,-740(x10) # f0a4 <trap_diag_mode>
    4390:	04050a63          	beq	x10,x0,43e4 <trap_mode_m>
    4394:	00100593          	addi	x11,x0,1
    4398:	08b50663          	beq	x10,x11,4424 <trap_mode_s>
    439c:	00200593          	addi	x11,x0,2
    43a0:	0cb50263          	beq	x10,x11,4464 <trap_mode_h>
    43a4:	00300593          	addi	x11,x0,3
    43a8:	0eb50e63          	beq	x10,x11,44a4 <trap_mode_v>
    43ac:	00000013          	addi	x0,x0,0
    43b0:	00000013          	addi	x0,x0,0
    43b4:	00000013          	addi	x0,x0,0
    43b8:	00000013          	addi	x0,x0,0
    43bc:	00000013          	addi	x0,x0,0
    43c0:	0000c517          	auipc	x10,0xc
    43c4:	1b650513          	addi	x10,x10,438 # 10576 <trap_diag_mode_unknown_str>
    43c8:	00000013          	addi	x0,x0,0
    43cc:	00000013          	addi	x0,x0,0
    43d0:	00000013          	addi	x0,x0,0
    43d4:	00000013          	addi	x0,x0,0
    43d8:	00000013          	addi	x0,x0,0
    43dc:	00000013          	addi	x0,x0,0
    43e0:	1000006f          	jal	x0,44e0 <trap_mode_print>

000043e4 <trap_mode_m>:
    43e4:	00000013          	addi	x0,x0,0
    43e8:	00000013          	addi	x0,x0,0
    43ec:	00000013          	addi	x0,x0,0
    43f0:	00000013          	addi	x0,x0,0
    43f4:	00000013          	addi	x0,x0,0
    43f8:	00000013          	addi	x0,x0,0
    43fc:	00000013          	addi	x0,x0,0
    4400:	0000c517          	auipc	x10,0xc
    4404:	15450513          	addi	x10,x10,340 # 10554 <trap_diag_mode_m_str>
    4408:	00000013          	addi	x0,x0,0
    440c:	00000013          	addi	x0,x0,0
    4410:	00000013          	addi	x0,x0,0
    4414:	00000013          	addi	x0,x0,0
    4418:	00000013          	addi	x0,x0,0
    441c:	00000013          	addi	x0,x0,0
    4420:	0c00006f          	jal	x0,44e0 <trap_mode_print>

00004424 <trap_mode_s>:
    4424:	00000013          	addi	x0,x0,0
    4428:	00000013          	addi	x0,x0,0
    442c:	00000013          	addi	x0,x0,0
    4430:	00000013          	addi	x0,x0,0
    4434:	00000013          	addi	x0,x0,0
    4438:	00000013          	addi	x0,x0,0
    443c:	00000013          	addi	x0,x0,0
    4440:	0000c517          	auipc	x10,0xc
    4444:	11c50513          	addi	x10,x10,284 # 1055c <trap_diag_mode_s_str>
    4448:	00000013          	addi	x0,x0,0
    444c:	00000013          	addi	x0,x0,0
    4450:	00000013          	addi	x0,x0,0
    4454:	00000013          	addi	x0,x0,0
    4458:	00000013          	addi	x0,x0,0
    445c:	00000013          	addi	x0,x0,0
    4460:	0800006f          	jal	x0,44e0 <trap_mode_print>

00004464 <trap_mode_h>:
    4464:	00000013          	addi	x0,x0,0
    4468:	00000013          	addi	x0,x0,0
    446c:	00000013          	addi	x0,x0,0
    4470:	00000013          	addi	x0,x0,0
    4474:	00000013          	addi	x0,x0,0
    4478:	00000013          	addi	x0,x0,0
    447c:	00000013          	addi	x0,x0,0
    4480:	0000c517          	auipc	x10,0xc
    4484:	0e450513          	addi	x10,x10,228 # 10564 <trap_diag_mode_hs_str>
    4488:	00000013          	addi	x0,x0,0
    448c:	00000013          	addi	x0,x0,0
    4490:	00000013          	addi	x0,x0,0
    4494:	00000013          	addi	x0,x0,0
    4498:	00000013          	addi	x0,x0,0
    449c:	00000013          	addi	x0,x0,0
    44a0:	0400006f          	jal	x0,44e0 <trap_mode_print>

000044a4 <trap_mode_v>:
    44a4:	00000013          	addi	x0,x0,0
    44a8:	00000013          	addi	x0,x0,0
    44ac:	00000013          	addi	x0,x0,0
    44b0:	00000013          	addi	x0,x0,0
    44b4:	00000013          	addi	x0,x0,0
    44b8:	00000013          	addi	x0,x0,0
    44bc:	00000013          	addi	x0,x0,0
    44c0:	0000c517          	auipc	x10,0xc
    44c4:	0ad50513          	addi	x10,x10,173 # 1056d <trap_diag_mode_vs_str>
    44c8:	00000013          	addi	x0,x0,0
    44cc:	00000013          	addi	x0,x0,0
    44d0:	00000013          	addi	x0,x0,0
    44d4:	00000013          	addi	x0,x0,0
    44d8:	00000013          	addi	x0,x0,0
    44dc:	00000013          	addi	x0,x0,0

000044e0 <trap_mode_print>:
    44e0:	0001c097          	auipc	x1,0x1c
    44e4:	d24080e7          	jalr	x1,-732(x1) # 20204 <rvmodel_io_write_str>
    44e8:	00000013          	addi	x0,x0,0
    44ec:	00000013          	addi	x0,x0,0
    44f0:	00000013          	addi	x0,x0,0
    44f4:	00000013          	addi	x0,x0,0
    44f8:	00000013          	addi	x0,x0,0
    44fc:	00000013          	addi	x0,x0,0
    4500:	0000c517          	auipc	x10,0xc
    4504:	07f50513          	addi	x10,x10,127 # 1057f <trap_diag_field_str>
    4508:	00000013          	addi	x0,x0,0
    450c:	00000013          	addi	x0,x0,0
    4510:	00000013          	addi	x0,x0,0
    4514:	00000013          	addi	x0,x0,0
    4518:	00000013          	addi	x0,x0,0
    451c:	00000013          	addi	x0,x0,0
    4520:	0001c097          	auipc	x1,0x1c
    4524:	ce4080e7          	jalr	x1,-796(x1) # 20204 <rvmodel_io_write_str>
    4528:	0000b517          	auipc	x10,0xb
    452c:	b7852503          	lw	x10,-1160(x10) # f0a0 <trap_diag_subtype>
    4530:	00100593          	addi	x11,x0,1
    4534:	06b50863          	beq	x10,x11,45a4 <trap_field_vect>
    4538:	00200593          	addi	x11,x0,2
    453c:	0ab50463          	beq	x10,x11,45e4 <trap_field_cause>
    4540:	00300593          	addi	x11,x0,3
    4544:	0eb50063          	beq	x10,x11,4624 <trap_field_epc>
    4548:	00400593          	addi	x11,x0,4
    454c:	10b50c63          	beq	x10,x11,4664 <trap_field_tval>
    4550:	00500593          	addi	x11,x0,5
    4554:	14b50863          	beq	x10,x11,46a4 <trap_field_ip>
    4558:	00600593          	addi	x11,x0,6
    455c:	18b50463          	beq	x10,x11,46e4 <trap_field_tval2>
    4560:	00700593          	addi	x11,x0,7
    4564:	1cb50063          	beq	x10,x11,4724 <trap_field_tinst>
    4568:	00800593          	addi	x11,x0,8
    456c:	1eb50c63          	beq	x10,x11,4764 <trap_field_intid>
    4570:	00000013          	addi	x0,x0,0
    4574:	00000013          	addi	x0,x0,0
    4578:	00000013          	addi	x0,x0,0
    457c:	00000013          	addi	x0,x0,0
    4580:	0000c517          	auipc	x10,0xc
    4584:	15650513          	addi	x10,x10,342 # 106d6 <trap_diag_field_unknown_str>
    4588:	00000013          	addi	x0,x0,0
    458c:	00000013          	addi	x0,x0,0
    4590:	00000013          	addi	x0,x0,0
    4594:	00000013          	addi	x0,x0,0
    4598:	00000013          	addi	x0,x0,0
    459c:	00000013          	addi	x0,x0,0
    45a0:	2000006f          	jal	x0,47a0 <trap_field_print>

000045a4 <trap_field_vect>:
    45a4:	00000013          	addi	x0,x0,0
    45a8:	00000013          	addi	x0,x0,0
    45ac:	00000013          	addi	x0,x0,0
    45b0:	00000013          	addi	x0,x0,0
    45b4:	00000013          	addi	x0,x0,0
    45b8:	00000013          	addi	x0,x0,0
    45bc:	00000013          	addi	x0,x0,0
    45c0:	0000c517          	auipc	x10,0xc
    45c4:	fd950513          	addi	x10,x10,-39 # 10599 <trap_diag_field_vect_str>
    45c8:	00000013          	addi	x0,x0,0
    45cc:	00000013          	addi	x0,x0,0
    45d0:	00000013          	addi	x0,x0,0
    45d4:	00000013          	addi	x0,x0,0
    45d8:	00000013          	addi	x0,x0,0
    45dc:	00000013          	addi	x0,x0,0
    45e0:	1c00006f          	jal	x0,47a0 <trap_field_print>

000045e4 <trap_field_cause>:
    45e4:	00000013          	addi	x0,x0,0
    45e8:	00000013          	addi	x0,x0,0
    45ec:	00000013          	addi	x0,x0,0
    45f0:	00000013          	addi	x0,x0,0
    45f4:	00000013          	addi	x0,x0,0
    45f8:	00000013          	addi	x0,x0,0
    45fc:	00000013          	addi	x0,x0,0
    4600:	0000c517          	auipc	x10,0xc
    4604:	fca50513          	addi	x10,x10,-54 # 105ca <trap_diag_field_cause_str>
    4608:	00000013          	addi	x0,x0,0
    460c:	00000013          	addi	x0,x0,0
    4610:	00000013          	addi	x0,x0,0
    4614:	00000013          	addi	x0,x0,0
    4618:	00000013          	addi	x0,x0,0
    461c:	00000013          	addi	x0,x0,0
    4620:	1800006f          	jal	x0,47a0 <trap_field_print>

00004624 <trap_field_epc>:
    4624:	00000013          	addi	x0,x0,0
    4628:	00000013          	addi	x0,x0,0
    462c:	00000013          	addi	x0,x0,0
    4630:	00000013          	addi	x0,x0,0
    4634:	00000013          	addi	x0,x0,0
    4638:	00000013          	addi	x0,x0,0
    463c:	00000013          	addi	x0,x0,0
    4640:	0000c517          	auipc	x10,0xc
    4644:	faa50513          	addi	x10,x10,-86 # 105ea <trap_diag_field_epc_str>
    4648:	00000013          	addi	x0,x0,0
    464c:	00000013          	addi	x0,x0,0
    4650:	00000013          	addi	x0,x0,0
    4654:	00000013          	addi	x0,x0,0
    4658:	00000013          	addi	x0,x0,0
    465c:	00000013          	addi	x0,x0,0
    4660:	1400006f          	jal	x0,47a0 <trap_field_print>

00004664 <trap_field_tval>:
    4664:	00000013          	addi	x0,x0,0
    4668:	00000013          	addi	x0,x0,0
    466c:	00000013          	addi	x0,x0,0
    4670:	00000013          	addi	x0,x0,0
    4674:	00000013          	addi	x0,x0,0
    4678:	00000013          	addi	x0,x0,0
    467c:	00000013          	addi	x0,x0,0
    4680:	0000c517          	auipc	x10,0xc
    4684:	f8850513          	addi	x10,x10,-120 # 10608 <trap_diag_field_tval_str>
    4688:	00000013          	addi	x0,x0,0
    468c:	00000013          	addi	x0,x0,0
    4690:	00000013          	addi	x0,x0,0
    4694:	00000013          	addi	x0,x0,0
    4698:	00000013          	addi	x0,x0,0
    469c:	00000013          	addi	x0,x0,0
    46a0:	1000006f          	jal	x0,47a0 <trap_field_print>

000046a4 <trap_field_ip>:
    46a4:	00000013          	addi	x0,x0,0
    46a8:	00000013          	addi	x0,x0,0
    46ac:	00000013          	addi	x0,x0,0
    46b0:	00000013          	addi	x0,x0,0
    46b4:	00000013          	addi	x0,x0,0
    46b8:	00000013          	addi	x0,x0,0
    46bc:	00000013          	addi	x0,x0,0
    46c0:	0000c517          	auipc	x10,0xc
    46c4:	f6750513          	addi	x10,x10,-153 # 10627 <trap_diag_field_ip_str>
    46c8:	00000013          	addi	x0,x0,0
    46cc:	00000013          	addi	x0,x0,0
    46d0:	00000013          	addi	x0,x0,0
    46d4:	00000013          	addi	x0,x0,0
    46d8:	00000013          	addi	x0,x0,0
    46dc:	00000013          	addi	x0,x0,0
    46e0:	0c00006f          	jal	x0,47a0 <trap_field_print>

000046e4 <trap_field_tval2>:
    46e4:	00000013          	addi	x0,x0,0
    46e8:	00000013          	addi	x0,x0,0
    46ec:	00000013          	addi	x0,x0,0
    46f0:	00000013          	addi	x0,x0,0
    46f4:	00000013          	addi	x0,x0,0
    46f8:	00000013          	addi	x0,x0,0
    46fc:	00000013          	addi	x0,x0,0
    4700:	0000c517          	auipc	x10,0xc
    4704:	f4f50513          	addi	x10,x10,-177 # 1064f <trap_diag_field_tval2_str>
    4708:	00000013          	addi	x0,x0,0
    470c:	00000013          	addi	x0,x0,0
    4710:	00000013          	addi	x0,x0,0
    4714:	00000013          	addi	x0,x0,0
    4718:	00000013          	addi	x0,x0,0
    471c:	00000013          	addi	x0,x0,0
    4720:	0800006f          	jal	x0,47a0 <trap_field_print>

00004724 <trap_field_tinst>:
    4724:	00000013          	addi	x0,x0,0
    4728:	00000013          	addi	x0,x0,0
    472c:	00000013          	addi	x0,x0,0
    4730:	00000013          	addi	x0,x0,0
    4734:	00000013          	addi	x0,x0,0
    4738:	00000013          	addi	x0,x0,0
    473c:	00000013          	addi	x0,x0,0
    4740:	0000c517          	auipc	x10,0xc
    4744:	f3b50513          	addi	x10,x10,-197 # 1067b <trap_diag_field_tinst_str>
    4748:	00000013          	addi	x0,x0,0
    474c:	00000013          	addi	x0,x0,0
    4750:	00000013          	addi	x0,x0,0
    4754:	00000013          	addi	x0,x0,0
    4758:	00000013          	addi	x0,x0,0
    475c:	00000013          	addi	x0,x0,0
    4760:	0400006f          	jal	x0,47a0 <trap_field_print>

00004764 <trap_field_intid>:
    4764:	00000013          	addi	x0,x0,0
    4768:	00000013          	addi	x0,x0,0
    476c:	00000013          	addi	x0,x0,0
    4770:	00000013          	addi	x0,x0,0
    4774:	00000013          	addi	x0,x0,0
    4778:	00000013          	addi	x0,x0,0
    477c:	00000013          	addi	x0,x0,0
    4780:	0000c517          	auipc	x10,0xc
    4784:	f2750513          	addi	x10,x10,-217 # 106a7 <trap_diag_field_intid_str>
    4788:	00000013          	addi	x0,x0,0
    478c:	00000013          	addi	x0,x0,0
    4790:	00000013          	addi	x0,x0,0
    4794:	00000013          	addi	x0,x0,0
    4798:	00000013          	addi	x0,x0,0
    479c:	00000013          	addi	x0,x0,0

000047a0 <trap_field_print>:
    47a0:	0001c097          	auipc	x1,0x1c
    47a4:	a64080e7          	jalr	x1,-1436(x1) # 20204 <rvmodel_io_write_str>
    47a8:	00000013          	addi	x0,x0,0
    47ac:	00000013          	addi	x0,x0,0
    47b0:	00000013          	addi	x0,x0,0
    47b4:	00000013          	addi	x0,x0,0
    47b8:	00000013          	addi	x0,x0,0
    47bc:	00000013          	addi	x0,x0,0
    47c0:	0000c517          	auipc	x10,0xc
    47c4:	f2550513          	addi	x10,x10,-219 # 106e5 <trap_diag_expected_str>
    47c8:	00000013          	addi	x0,x0,0
    47cc:	00000013          	addi	x0,x0,0
    47d0:	00000013          	addi	x0,x0,0
    47d4:	00000013          	addi	x0,x0,0
    47d8:	00000013          	addi	x0,x0,0
    47dc:	00000013          	addi	x0,x0,0
    47e0:	0001c097          	auipc	x1,0x1c
    47e4:	a24080e7          	jalr	x1,-1500(x1) # 20204 <rvmodel_io_write_str>
    47e8:	0000b517          	auipc	x10,0xb
    47ec:	8c852503          	lw	x10,-1848(x10) # f0b0 <trap_diag_expected_value>
    47f0:	02000593          	addi	x11,x0,32
    47f4:	664000ef          	jal	x1,4e58 <failedtest_hex_to_str>
    47f8:	00000013          	addi	x0,x0,0
    47fc:	00000013          	addi	x0,x0,0
    4800:	0000b517          	auipc	x10,0xb
    4804:	8f850513          	addi	x10,x10,-1800 # f0f8 <ascii_buffer>
    4808:	00000013          	addi	x0,x0,0
    480c:	00000013          	addi	x0,x0,0
    4810:	00000013          	addi	x0,x0,0
    4814:	00000013          	addi	x0,x0,0
    4818:	00000013          	addi	x0,x0,0
    481c:	00000013          	addi	x0,x0,0
    4820:	0001c097          	auipc	x1,0x1c
    4824:	9e4080e7          	jalr	x1,-1564(x1) # 20204 <rvmodel_io_write_str>
    4828:	00000013          	addi	x0,x0,0
    482c:	00000013          	addi	x0,x0,0
    4830:	00000013          	addi	x0,x0,0
    4834:	00000013          	addi	x0,x0,0
    4838:	00000013          	addi	x0,x0,0
    483c:	00000013          	addi	x0,x0,0
    4840:	0000c517          	auipc	x10,0xc
    4844:	ebc50513          	addi	x10,x10,-324 # 106fc <trap_diag_actual_str>
    4848:	00000013          	addi	x0,x0,0
    484c:	00000013          	addi	x0,x0,0
    4850:	00000013          	addi	x0,x0,0
    4854:	00000013          	addi	x0,x0,0
    4858:	00000013          	addi	x0,x0,0
    485c:	00000013          	addi	x0,x0,0
    4860:	0001c097          	auipc	x1,0x1c
    4864:	9a4080e7          	jalr	x1,-1628(x1) # 20204 <rvmodel_io_write_str>
    4868:	0000b517          	auipc	x10,0xb
    486c:	84052503          	lw	x10,-1984(x10) # f0a8 <trap_diag_actual_value>
    4870:	02000593          	addi	x11,x0,32
    4874:	5e4000ef          	jal	x1,4e58 <failedtest_hex_to_str>
    4878:	00000013          	addi	x0,x0,0
    487c:	00000013          	addi	x0,x0,0
    4880:	0000b517          	auipc	x10,0xb
    4884:	87850513          	addi	x10,x10,-1928 # f0f8 <ascii_buffer>
    4888:	00000013          	addi	x0,x0,0
    488c:	00000013          	addi	x0,x0,0
    4890:	00000013          	addi	x0,x0,0
    4894:	00000013          	addi	x0,x0,0
    4898:	00000013          	addi	x0,x0,0
    489c:	00000013          	addi	x0,x0,0
    48a0:	0001c097          	auipc	x1,0x1c
    48a4:	964080e7          	jalr	x1,-1692(x1) # 20204 <rvmodel_io_write_str>
    48a8:	0000a517          	auipc	x10,0xa
    48ac:	7f852503          	lw	x10,2040(x10) # f0a0 <trap_diag_subtype>
    48b0:	00200593          	addi	x11,x0,2
    48b4:	08b51463          	bne	x10,x11,493c <trap_field_not_cause>
    48b8:	00000013          	addi	x0,x0,0
    48bc:	00000013          	addi	x0,x0,0
    48c0:	0000c517          	auipc	x10,0xc
    48c4:	e5350513          	addi	x10,x10,-429 # 10713 <trap_diag_expected_cause_name_str>
    48c8:	00000013          	addi	x0,x0,0
    48cc:	00000013          	addi	x0,x0,0
    48d0:	00000013          	addi	x0,x0,0
    48d4:	00000013          	addi	x0,x0,0
    48d8:	00000013          	addi	x0,x0,0
    48dc:	00000013          	addi	x0,x0,0
    48e0:	0001c097          	auipc	x1,0x1c
    48e4:	924080e7          	jalr	x1,-1756(x1) # 20204 <rvmodel_io_write_str>
    48e8:	0000a517          	auipc	x10,0xa
    48ec:	7c852503          	lw	x10,1992(x10) # f0b0 <trap_diag_expected_value>
    48f0:	284000ef          	jal	x1,4b74 <trap_cause_to_str>
    48f4:	0001c097          	auipc	x1,0x1c
    48f8:	910080e7          	jalr	x1,-1776(x1) # 20204 <rvmodel_io_write_str>
    48fc:	00000013          	addi	x0,x0,0
    4900:	0000c517          	auipc	x10,0xc
    4904:	e2a50513          	addi	x10,x10,-470 # 1072a <trap_diag_actual_cause_name_str>
    4908:	00000013          	addi	x0,x0,0
    490c:	00000013          	addi	x0,x0,0
    4910:	00000013          	addi	x0,x0,0
    4914:	00000013          	addi	x0,x0,0
    4918:	00000013          	addi	x0,x0,0
    491c:	00000013          	addi	x0,x0,0
    4920:	0001c097          	auipc	x1,0x1c
    4924:	8e4080e7          	jalr	x1,-1820(x1) # 20204 <rvmodel_io_write_str>
    4928:	0000a517          	auipc	x10,0xa
    492c:	78052503          	lw	x10,1920(x10) # f0a8 <trap_diag_actual_value>
    4930:	244000ef          	jal	x1,4b74 <trap_cause_to_str>
    4934:	0001c097          	auipc	x1,0x1c
    4938:	8d0080e7          	jalr	x1,-1840(x1) # 20204 <rvmodel_io_write_str>

0000493c <trap_field_not_cause>:
    493c:	00000097          	auipc	x1,0x0
    4940:	314080e7          	jalr	x1,788(x1) # 4c50 <failedtest_print_csr_context>
    4944:	0000a517          	auipc	x10,0xa
    4948:	75c52503          	lw	x10,1884(x10) # f0a0 <trap_diag_subtype>
    494c:	00100593          	addi	x11,x0,1
    4950:	02b51e63          	bne	x10,x11,498c <trap_field_not_cause+0x50>
    4954:	00000013          	addi	x0,x0,0
    4958:	00000013          	addi	x0,x0,0
    495c:	00000013          	addi	x0,x0,0
    4960:	0000c517          	auipc	x10,0xc
    4964:	e4050513          	addi	x10,x10,-448 # 107a0 <trap_diag_hint_vect_str>
    4968:	00000013          	addi	x0,x0,0
    496c:	00000013          	addi	x0,x0,0
    4970:	00000013          	addi	x0,x0,0
    4974:	00000013          	addi	x0,x0,0
    4978:	00000013          	addi	x0,x0,0
    497c:	00000013          	addi	x0,x0,0
    4980:	0001c097          	auipc	x1,0x1c
    4984:	884080e7          	jalr	x1,-1916(x1) # 20204 <rvmodel_io_write_str>
    4988:	27c0006f          	jal	x0,4c04 <failedtest_report_end>
    498c:	00200593          	addi	x11,x0,2
    4990:	02b51e63          	bne	x10,x11,49cc <trap_field_not_cause+0x90>
    4994:	00000013          	addi	x0,x0,0
    4998:	00000013          	addi	x0,x0,0
    499c:	00000013          	addi	x0,x0,0
    49a0:	0000c517          	auipc	x10,0xc
    49a4:	ed650513          	addi	x10,x10,-298 # 10876 <trap_diag_hint_cause_str>
    49a8:	00000013          	addi	x0,x0,0
    49ac:	00000013          	addi	x0,x0,0
    49b0:	00000013          	addi	x0,x0,0
    49b4:	00000013          	addi	x0,x0,0
    49b8:	00000013          	addi	x0,x0,0
    49bc:	00000013          	addi	x0,x0,0
    49c0:	0001c097          	auipc	x1,0x1c
    49c4:	844080e7          	jalr	x1,-1980(x1) # 20204 <rvmodel_io_write_str>
    49c8:	23c0006f          	jal	x0,4c04 <failedtest_report_end>
    49cc:	00300593          	addi	x11,x0,3
    49d0:	02b51e63          	bne	x10,x11,4a0c <trap_field_not_cause+0xd0>
    49d4:	00000013          	addi	x0,x0,0
    49d8:	00000013          	addi	x0,x0,0
    49dc:	00000013          	addi	x0,x0,0
    49e0:	0000c517          	auipc	x10,0xc
    49e4:	f8950513          	addi	x10,x10,-119 # 10969 <trap_diag_hint_epc_str>
    49e8:	00000013          	addi	x0,x0,0
    49ec:	00000013          	addi	x0,x0,0
    49f0:	00000013          	addi	x0,x0,0
    49f4:	00000013          	addi	x0,x0,0
    49f8:	00000013          	addi	x0,x0,0
    49fc:	00000013          	addi	x0,x0,0
    4a00:	0001c097          	auipc	x1,0x1c
    4a04:	804080e7          	jalr	x1,-2044(x1) # 20204 <rvmodel_io_write_str>
    4a08:	1fc0006f          	jal	x0,4c04 <failedtest_report_end>
    4a0c:	00400593          	addi	x11,x0,4
    4a10:	02b51e63          	bne	x10,x11,4a4c <trap_field_not_cause+0x110>
    4a14:	00000013          	addi	x0,x0,0
    4a18:	00000013          	addi	x0,x0,0
    4a1c:	00000013          	addi	x0,x0,0
    4a20:	0000c517          	auipc	x10,0xc
    4a24:	04450513          	addi	x10,x10,68 # 10a64 <trap_diag_hint_tval_str>
    4a28:	00000013          	addi	x0,x0,0
    4a2c:	00000013          	addi	x0,x0,0
    4a30:	00000013          	addi	x0,x0,0
    4a34:	00000013          	addi	x0,x0,0
    4a38:	00000013          	addi	x0,x0,0
    4a3c:	00000013          	addi	x0,x0,0
    4a40:	0001b097          	auipc	x1,0x1b
    4a44:	7c4080e7          	jalr	x1,1988(x1) # 20204 <rvmodel_io_write_str>
    4a48:	1bc0006f          	jal	x0,4c04 <failedtest_report_end>
    4a4c:	00500593          	addi	x11,x0,5
    4a50:	02b51e63          	bne	x10,x11,4a8c <trap_field_not_cause+0x150>
    4a54:	00000013          	addi	x0,x0,0
    4a58:	00000013          	addi	x0,x0,0
    4a5c:	00000013          	addi	x0,x0,0
    4a60:	0000c517          	auipc	x10,0xc
    4a64:	0eb50513          	addi	x10,x10,235 # 10b4b <trap_diag_hint_ip_str>
    4a68:	00000013          	addi	x0,x0,0
    4a6c:	00000013          	addi	x0,x0,0
    4a70:	00000013          	addi	x0,x0,0
    4a74:	00000013          	addi	x0,x0,0
    4a78:	00000013          	addi	x0,x0,0
    4a7c:	00000013          	addi	x0,x0,0
    4a80:	0001b097          	auipc	x1,0x1b
    4a84:	784080e7          	jalr	x1,1924(x1) # 20204 <rvmodel_io_write_str>
    4a88:	17c0006f          	jal	x0,4c04 <failedtest_report_end>
    4a8c:	1780006f          	jal	x0,4c04 <failedtest_report_end>

00004a90 <trap_report_generic>:
    4a90:	00000013          	addi	x0,x0,0
    4a94:	00000013          	addi	x0,x0,0
    4a98:	00000013          	addi	x0,x0,0
    4a9c:	00000013          	addi	x0,x0,0
    4aa0:	0000c517          	auipc	x10,0xc
    4aa4:	cb850513          	addi	x10,x10,-840 # 10758 <trap_diag_generic_str>
    4aa8:	00000013          	addi	x0,x0,0
    4aac:	00000013          	addi	x0,x0,0
    4ab0:	00000013          	addi	x0,x0,0
    4ab4:	00000013          	addi	x0,x0,0
    4ab8:	00000013          	addi	x0,x0,0
    4abc:	00000013          	addi	x0,x0,0
    4ac0:	0001b097          	auipc	x1,0x1b
    4ac4:	744080e7          	jalr	x1,1860(x1) # 20204 <rvmodel_io_write_str>
    4ac8:	0000a617          	auipc	x12,0xa
    4acc:	61062603          	lw	x12,1552(x12) # f0d8 <saved_mepc>
    4ad0:	00000013          	addi	x0,x0,0
    4ad4:	00000013          	addi	x0,x0,0
    4ad8:	00000013          	addi	x0,x0,0
    4adc:	00000013          	addi	x0,x0,0
    4ae0:	0000b517          	auipc	x10,0xb
    4ae4:	c5b50513          	addi	x10,x10,-933 # f73b <xepcinstrstr>
    4ae8:	00000013          	addi	x0,x0,0
    4aec:	00000013          	addi	x0,x0,0
    4af0:	00000013          	addi	x0,x0,0
    4af4:	00000013          	addi	x0,x0,0
    4af8:	00000013          	addi	x0,x0,0
    4afc:	00000013          	addi	x0,x0,0
    4b00:	0001b097          	auipc	x1,0x1b
    4b04:	704080e7          	jalr	x1,1796(x1) # 20204 <rvmodel_io_write_str>
    4b08:	00065503          	lhu	x10,0(x12)
    4b0c:	01000593          	addi	x11,x0,16
    4b10:	00357413          	andi	x8,x10,3
    4b14:	00300493          	addi	x9,x0,3
    4b18:	00941a63          	bne	x8,x9,4b2c <trap_report_generic+0x9c>
    4b1c:	00265403          	lhu	x8,2(x12)
    4b20:	01041413          	slli	x8,x8,0x10
    4b24:	00856533          	or	x10,x10,x8
    4b28:	02000593          	addi	x11,x0,32
    4b2c:	32c000ef          	jal	x1,4e58 <failedtest_hex_to_str>
    4b30:	00000013          	addi	x0,x0,0
    4b34:	00000013          	addi	x0,x0,0
    4b38:	00000013          	addi	x0,x0,0
    4b3c:	00000013          	addi	x0,x0,0
    4b40:	0000a517          	auipc	x10,0xa
    4b44:	5b850513          	addi	x10,x10,1464 # f0f8 <ascii_buffer>
    4b48:	00000013          	addi	x0,x0,0
    4b4c:	00000013          	addi	x0,x0,0
    4b50:	00000013          	addi	x0,x0,0
    4b54:	00000013          	addi	x0,x0,0
    4b58:	00000013          	addi	x0,x0,0
    4b5c:	00000013          	addi	x0,x0,0
    4b60:	0001b097          	auipc	x1,0x1b
    4b64:	6a4080e7          	jalr	x1,1700(x1) # 20204 <rvmodel_io_write_str>
    4b68:	00000097          	auipc	x1,0x0
    4b6c:	0e8080e7          	jalr	x1,232(x1) # 4c50 <failedtest_print_csr_context>
    4b70:	0940006f          	jal	x0,4c04 <failedtest_report_end>

00004b74 <trap_cause_to_str>:
    4b74:	02054263          	blt	x10,x0,4b98 <trap_cause_interrupt>

00004b78 <trap_cause_exception>:
    4b78:	01800593          	addi	x11,x0,24
    4b7c:	04b55463          	bge	x10,x11,4bc4 <trap_cause_unknown>
    4b80:	0000a597          	auipc	x11,0xa
    4b84:	5a058593          	addi	x11,x11,1440 # f120 <end_failure_scratch>
    4b88:	00251613          	slli	x12,x10,0x2
    4b8c:	00c585b3          	add	x11,x11,x12
    4b90:	0005a503          	lw	x10,0(x11)
    4b94:	00008067          	jalr	x0,0(x1)

00004b98 <trap_cause_interrupt>:
    4b98:	00100593          	addi	x11,x0,1
    4b9c:	01f59593          	slli	x11,x11,0x1f
    4ba0:	00b54533          	xor	x10,x10,x11
    4ba4:	01000593          	addi	x11,x0,16
    4ba8:	00b55e63          	bge	x10,x11,4bc4 <trap_cause_unknown>
    4bac:	0000a597          	auipc	x11,0xa
    4bb0:	5d458593          	addi	x11,x11,1492 # f180 <trap_int_name_tbl>
    4bb4:	00251613          	slli	x12,x10,0x2
    4bb8:	00c585b3          	add	x11,x11,x12
    4bbc:	0005a503          	lw	x10,0(x11)
    4bc0:	00008067          	jalr	x0,0(x1)

00004bc4 <trap_cause_unknown>:
    4bc4:	00000013          	addi	x0,x0,0
    4bc8:	00000013          	addi	x0,x0,0
    4bcc:	00000013          	addi	x0,x0,0
    4bd0:	00000013          	addi	x0,x0,0
    4bd4:	00000013          	addi	x0,x0,0
    4bd8:	00000013          	addi	x0,x0,0
    4bdc:	00000013          	addi	x0,x0,0
    4be0:	0000b517          	auipc	x10,0xb
    4be4:	9de50513          	addi	x10,x10,-1570 # f5be <trap_cause_unknown_str>
    4be8:	00000013          	addi	x0,x0,0
    4bec:	00000013          	addi	x0,x0,0
    4bf0:	00000013          	addi	x0,x0,0
    4bf4:	00000013          	addi	x0,x0,0
    4bf8:	00000013          	addi	x0,x0,0
    4bfc:	00000013          	addi	x0,x0,0
    4c00:	00008067          	jalr	x0,0(x1)

00004c04 <failedtest_report_end>:
    4c04:	00000013          	addi	x0,x0,0
    4c08:	00000013          	addi	x0,x0,0
    4c0c:	00000013          	addi	x0,x0,0
    4c10:	00000013          	addi	x0,x0,0
    4c14:	00000013          	addi	x0,x0,0
    4c18:	00000013          	addi	x0,x0,0
    4c1c:	00000013          	addi	x0,x0,0
    4c20:	0000b517          	auipc	x10,0xb
    4c24:	56350513          	addi	x10,x10,1379 # 10183 <endstr>
    4c28:	00000013          	addi	x0,x0,0
    4c2c:	00000013          	addi	x0,x0,0
    4c30:	00000013          	addi	x0,x0,0
    4c34:	00000013          	addi	x0,x0,0
    4c38:	00000013          	addi	x0,x0,0
    4c3c:	00000013          	addi	x0,x0,0
    4c40:	0001b097          	auipc	x1,0x1b
    4c44:	5c4080e7          	jalr	x1,1476(x1) # 20204 <rvmodel_io_write_str>

00004c48 <failedtest_terminate>:
    4c48:	0001b097          	auipc	x1,0x1b
    4c4c:	5cc080e7          	jalr	x1,1484(x1) # 20214 <rvmodel_halt_fail>

00004c50 <failedtest_print_csr_context>:
    4c50:	0000a617          	auipc	x12,0xa
    4c54:	48060613          	addi	x12,x12,1152 # f0d0 <csr_context_ret_addr>
    4c58:	00162023          	sw	x1,0(x12)
    4c5c:	00000013          	addi	x0,x0,0
    4c60:	0000b517          	auipc	x10,0xb
    4c64:	afc50513          	addi	x10,x10,-1284 # f75c <mepcstr>
    4c68:	00000013          	addi	x0,x0,0
    4c6c:	00000013          	addi	x0,x0,0
    4c70:	00000013          	addi	x0,x0,0
    4c74:	00000013          	addi	x0,x0,0
    4c78:	00000013          	addi	x0,x0,0
    4c7c:	00000013          	addi	x0,x0,0
    4c80:	0001b097          	auipc	x1,0x1b
    4c84:	584080e7          	jalr	x1,1412(x1) # 20204 <rvmodel_io_write_str>
    4c88:	0000a517          	auipc	x10,0xa
    4c8c:	45052503          	lw	x10,1104(x10) # f0d8 <saved_mepc>
    4c90:	02000593          	addi	x11,x0,32
    4c94:	1c4000ef          	jal	x1,4e58 <failedtest_hex_to_str>
    4c98:	00000013          	addi	x0,x0,0
    4c9c:	00000013          	addi	x0,x0,0
    4ca0:	0000a517          	auipc	x10,0xa
    4ca4:	45850513          	addi	x10,x10,1112 # f0f8 <ascii_buffer>
    4ca8:	00000013          	addi	x0,x0,0
    4cac:	00000013          	addi	x0,x0,0
    4cb0:	00000013          	addi	x0,x0,0
    4cb4:	00000013          	addi	x0,x0,0
    4cb8:	00000013          	addi	x0,x0,0
    4cbc:	00000013          	addi	x0,x0,0
    4cc0:	0001b097          	auipc	x1,0x1b
    4cc4:	544080e7          	jalr	x1,1348(x1) # 20204 <rvmodel_io_write_str>
    4cc8:	00000013          	addi	x0,x0,0
    4ccc:	00000013          	addi	x0,x0,0
    4cd0:	00000013          	addi	x0,x0,0
    4cd4:	00000013          	addi	x0,x0,0
    4cd8:	00000013          	addi	x0,x0,0
    4cdc:	00000013          	addi	x0,x0,0
    4ce0:	0000b517          	auipc	x10,0xb
    4ce4:	a8c50513          	addi	x10,x10,-1396 # f76c <mcausestr>
    4ce8:	00000013          	addi	x0,x0,0
    4cec:	00000013          	addi	x0,x0,0
    4cf0:	00000013          	addi	x0,x0,0
    4cf4:	00000013          	addi	x0,x0,0
    4cf8:	00000013          	addi	x0,x0,0
    4cfc:	00000013          	addi	x0,x0,0
    4d00:	0001b097          	auipc	x1,0x1b
    4d04:	504080e7          	jalr	x1,1284(x1) # 20204 <rvmodel_io_write_str>
    4d08:	0000a517          	auipc	x10,0xa
    4d0c:	3d852503          	lw	x10,984(x10) # f0e0 <saved_mcause>
    4d10:	02000593          	addi	x11,x0,32
    4d14:	144000ef          	jal	x1,4e58 <failedtest_hex_to_str>
    4d18:	00000013          	addi	x0,x0,0
    4d1c:	00000013          	addi	x0,x0,0
    4d20:	0000a517          	auipc	x10,0xa
    4d24:	3d850513          	addi	x10,x10,984 # f0f8 <ascii_buffer>
    4d28:	00000013          	addi	x0,x0,0
    4d2c:	00000013          	addi	x0,x0,0
    4d30:	00000013          	addi	x0,x0,0
    4d34:	00000013          	addi	x0,x0,0
    4d38:	00000013          	addi	x0,x0,0
    4d3c:	00000013          	addi	x0,x0,0
    4d40:	0001b097          	auipc	x1,0x1b
    4d44:	4c4080e7          	jalr	x1,1220(x1) # 20204 <rvmodel_io_write_str>
    4d48:	00000013          	addi	x0,x0,0
    4d4c:	00000013          	addi	x0,x0,0
    4d50:	00000013          	addi	x0,x0,0
    4d54:	00000013          	addi	x0,x0,0
    4d58:	00000013          	addi	x0,x0,0
    4d5c:	00000013          	addi	x0,x0,0
    4d60:	0000b517          	auipc	x10,0xb
    4d64:	a1c50513          	addi	x10,x10,-1508 # f77c <mtvalstr>
    4d68:	00000013          	addi	x0,x0,0
    4d6c:	00000013          	addi	x0,x0,0
    4d70:	00000013          	addi	x0,x0,0
    4d74:	00000013          	addi	x0,x0,0
    4d78:	00000013          	addi	x0,x0,0
    4d7c:	00000013          	addi	x0,x0,0
    4d80:	0001b097          	auipc	x1,0x1b
    4d84:	484080e7          	jalr	x1,1156(x1) # 20204 <rvmodel_io_write_str>
    4d88:	0000a517          	auipc	x10,0xa
    4d8c:	36052503          	lw	x10,864(x10) # f0e8 <saved_mtval>
    4d90:	02000593          	addi	x11,x0,32
    4d94:	0c4000ef          	jal	x1,4e58 <failedtest_hex_to_str>
    4d98:	00000013          	addi	x0,x0,0
    4d9c:	00000013          	addi	x0,x0,0
    4da0:	0000a517          	auipc	x10,0xa
    4da4:	35850513          	addi	x10,x10,856 # f0f8 <ascii_buffer>
    4da8:	00000013          	addi	x0,x0,0
    4dac:	00000013          	addi	x0,x0,0
    4db0:	00000013          	addi	x0,x0,0
    4db4:	00000013          	addi	x0,x0,0
    4db8:	00000013          	addi	x0,x0,0
    4dbc:	00000013          	addi	x0,x0,0
    4dc0:	0001b097          	auipc	x1,0x1b
    4dc4:	444080e7          	jalr	x1,1092(x1) # 20204 <rvmodel_io_write_str>
    4dc8:	00000013          	addi	x0,x0,0
    4dcc:	00000013          	addi	x0,x0,0
    4dd0:	00000013          	addi	x0,x0,0
    4dd4:	00000013          	addi	x0,x0,0
    4dd8:	00000013          	addi	x0,x0,0
    4ddc:	00000013          	addi	x0,x0,0
    4de0:	0000b517          	auipc	x10,0xb
    4de4:	9ac50513          	addi	x10,x10,-1620 # f78c <mstatusstr>
    4de8:	00000013          	addi	x0,x0,0
    4dec:	00000013          	addi	x0,x0,0
    4df0:	00000013          	addi	x0,x0,0
    4df4:	00000013          	addi	x0,x0,0
    4df8:	00000013          	addi	x0,x0,0
    4dfc:	00000013          	addi	x0,x0,0
    4e00:	0001b097          	auipc	x1,0x1b
    4e04:	404080e7          	jalr	x1,1028(x1) # 20204 <rvmodel_io_write_str>
    4e08:	0000a517          	auipc	x10,0xa
    4e0c:	2e852503          	lw	x10,744(x10) # f0f0 <saved_mstatus>
    4e10:	02000593          	addi	x11,x0,32
    4e14:	044000ef          	jal	x1,4e58 <failedtest_hex_to_str>
    4e18:	00000013          	addi	x0,x0,0
    4e1c:	00000013          	addi	x0,x0,0
    4e20:	0000a517          	auipc	x10,0xa
    4e24:	2d850513          	addi	x10,x10,728 # f0f8 <ascii_buffer>
    4e28:	00000013          	addi	x0,x0,0
    4e2c:	00000013          	addi	x0,x0,0
    4e30:	00000013          	addi	x0,x0,0
    4e34:	00000013          	addi	x0,x0,0
    4e38:	00000013          	addi	x0,x0,0
    4e3c:	00000013          	addi	x0,x0,0
    4e40:	0001b097          	auipc	x1,0x1b
    4e44:	3c4080e7          	jalr	x1,964(x1) # 20204 <rvmodel_io_write_str>
    4e48:	0000a617          	auipc	x12,0xa
    4e4c:	28860613          	addi	x12,x12,648 # f0d0 <csr_context_ret_addr>
    4e50:	00062083          	lw	x1,0(x12)
    4e54:	00008067          	jalr	x0,0(x1)

00004e58 <failedtest_hex_to_str>:
    4e58:	00000013          	addi	x0,x0,0
    4e5c:	00000013          	addi	x0,x0,0
    4e60:	0000a617          	auipc	x12,0xa
    4e64:	29860613          	addi	x12,x12,664 # f0f8 <ascii_buffer>
    4e68:	00000013          	addi	x0,x0,0
    4e6c:	00000013          	addi	x0,x0,0
    4e70:	00000013          	addi	x0,x0,0
    4e74:	00000013          	addi	x0,x0,0
    4e78:	00000013          	addi	x0,x0,0
    4e7c:	00000013          	addi	x0,x0,0
    4e80:	03000693          	addi	x13,x0,48
    4e84:	00d60023          	sb	x13,0(x12)
    4e88:	07800693          	addi	x13,x0,120
    4e8c:	00d600a3          	sb	x13,1(x12)
    4e90:	00260613          	addi	x12,x12,2
    4e94:	00058693          	addi	x13,x11,0

00004e98 <failedtest_hex_to_str_loop>:
    4e98:	ffc68693          	addi	x13,x13,-4
    4e9c:	00d55733          	srl	x14,x10,x13
    4ea0:	00f77713          	andi	x14,x14,15
    4ea4:	00a00793          	addi	x15,x0,10
    4ea8:	00f74663          	blt	x14,x15,4eb4 <failedtest_hex_to_str_digit>
    4eac:	05770713          	addi	x14,x14,87
    4eb0:	0080006f          	jal	x0,4eb8 <failedtest_hex_to_str_write>

00004eb4 <failedtest_hex_to_str_digit>:
    4eb4:	03070713          	addi	x14,x14,48

00004eb8 <failedtest_hex_to_str_write>:
    4eb8:	00e60023          	sb	x14,0(x12)
    4ebc:	00160613          	addi	x12,x12,1
    4ec0:	fc069ce3          	bne	x13,x0,4e98 <failedtest_hex_to_str_loop>
    4ec4:	00a00693          	addi	x13,x0,10
    4ec8:	00d60023          	sb	x13,0(x12)
    4ecc:	000600a3          	sb	x0,1(x12)
    4ed0:	00008067          	jalr	x0,0(x1)

00004ed4 <failedtest_dec_to_str>:
    4ed4:	00a00693          	addi	x13,x0,10
    4ed8:	02d54663          	blt	x10,x13,4f04 <failedtest_dec_to_str+0x30>
    4edc:	ff650513          	addi	x10,x10,-10
    4ee0:	03100713          	addi	x14,x0,49
    4ee4:	00d54c63          	blt	x10,x13,4efc <failedtest_dec_to_str+0x28>
    4ee8:	ff650513          	addi	x10,x10,-10
    4eec:	03200713          	addi	x14,x0,50
    4ef0:	00d54663          	blt	x10,x13,4efc <failedtest_dec_to_str+0x28>
    4ef4:	ff650513          	addi	x10,x10,-10
    4ef8:	03300713          	addi	x14,x0,51
    4efc:	00e60023          	sb	x14,0(x12)
    4f00:	00160613          	addi	x12,x12,1
    4f04:	03050513          	addi	x10,x10,48
    4f08:	00a60023          	sb	x10,0(x12)
    4f0c:	00a00693          	addi	x13,x0,10
    4f10:	00d600a3          	sb	x13,1(x12)
    4f14:	00060123          	sb	x0,2(x12)
    4f18:	00008067          	jalr	x0,0(x1)
    4f1c:	00000013          	addi	x0,x0,0

Disassembly of section .text.rvmodel:

00020000 <rvmodel_boot>:
   20000:	feedc0b7          	lui	x1,0xfeedc
   20004:	ead08093          	addi	x1,x1,-339 # feedbead <absimm+0x8f911ba4>
   20008:	01909793          	slli	x15,x1,0x19
   2000c:	0070d113          	srli	x2,x1,0x7
   20010:	00f16133          	or	x2,x2,x15
   20014:	01911793          	slli	x15,x2,0x19
   20018:	00715193          	srli	x3,x2,0x7
   2001c:	00f1e1b3          	or	x3,x3,x15
   20020:	01919793          	slli	x15,x3,0x19
   20024:	0071d213          	srli	x4,x3,0x7
   20028:	00f26233          	or	x4,x4,x15
   2002c:	01921793          	slli	x15,x4,0x19
   20030:	00725293          	srli	x5,x4,0x7
   20034:	00f2e2b3          	or	x5,x5,x15
   20038:	01929793          	slli	x15,x5,0x19
   2003c:	0072d313          	srli	x6,x5,0x7
   20040:	00f36333          	or	x6,x6,x15
   20044:	01931793          	slli	x15,x6,0x19
   20048:	00735393          	srli	x7,x6,0x7
   2004c:	00f3e3b3          	or	x7,x7,x15
   20050:	01939793          	slli	x15,x7,0x19
   20054:	0073d413          	srli	x8,x7,0x7
   20058:	00f46433          	or	x8,x8,x15
   2005c:	01941793          	slli	x15,x8,0x19
   20060:	00745493          	srli	x9,x8,0x7
   20064:	00f4e4b3          	or	x9,x9,x15
   20068:	01949793          	slli	x15,x9,0x19
   2006c:	0074d513          	srli	x10,x9,0x7
   20070:	00f56533          	or	x10,x10,x15
   20074:	01951793          	slli	x15,x10,0x19
   20078:	00755593          	srli	x11,x10,0x7
   2007c:	00f5e5b3          	or	x11,x11,x15
   20080:	01959793          	slli	x15,x11,0x19
   20084:	0075d613          	srli	x12,x11,0x7
   20088:	00f66633          	or	x12,x12,x15
   2008c:	01961793          	slli	x15,x12,0x19
   20090:	00765693          	srli	x13,x12,0x7
   20094:	00f6e6b3          	or	x13,x13,x15
   20098:	01969793          	slli	x15,x13,0x19
   2009c:	0076d713          	srli	x14,x13,0x7
   200a0:	00f76733          	or	x14,x14,x15
   200a4:	fab807b7          	lui	x15,0xfab80
   200a8:	bb678793          	addi	x15,x15,-1098 # fab7fbb6 <absimm+0x8b5b58ad>
   200ac:	7d5c0837          	lui	x16,0x7d5c0
   200b0:	ddb80813          	addi	x16,x16,-549 # 7d5bfddb <absimm+0xdff5ad2>
   200b4:	01981793          	slli	x15,x16,0x19
   200b8:	00785893          	srli	x17,x16,0x7
   200bc:	00f8e8b3          	or	x17,x17,x15
   200c0:	01989793          	slli	x15,x17,0x19
   200c4:	0078d913          	srli	x18,x17,0x7
   200c8:	00f96933          	or	x18,x18,x15
   200cc:	01991793          	slli	x15,x18,0x19
   200d0:	00795993          	srli	x19,x18,0x7
   200d4:	00f9e9b3          	or	x19,x19,x15
   200d8:	01999793          	slli	x15,x19,0x19
   200dc:	0079da13          	srli	x20,x19,0x7
   200e0:	00fa6a33          	or	x20,x20,x15
   200e4:	019a1793          	slli	x15,x20,0x19
   200e8:	007a5a93          	srli	x21,x20,0x7
   200ec:	00faeab3          	or	x21,x21,x15
   200f0:	019a9793          	slli	x15,x21,0x19
   200f4:	007adb13          	srli	x22,x21,0x7
   200f8:	00fb6b33          	or	x22,x22,x15
   200fc:	019b1793          	slli	x15,x22,0x19
   20100:	007b5b93          	srli	x23,x22,0x7
   20104:	00fbebb3          	or	x23,x23,x15
   20108:	019b9793          	slli	x15,x23,0x19
   2010c:	007bdc13          	srli	x24,x23,0x7
   20110:	00fc6c33          	or	x24,x24,x15
   20114:	019c1793          	slli	x15,x24,0x19
   20118:	007c5c93          	srli	x25,x24,0x7
   2011c:	00fcecb3          	or	x25,x25,x15
   20120:	019c9793          	slli	x15,x25,0x19
   20124:	007cdd13          	srli	x26,x25,0x7
   20128:	00fd6d33          	or	x26,x26,x15
   2012c:	019d1793          	slli	x15,x26,0x19
   20130:	007d5d93          	srli	x27,x26,0x7
   20134:	00fdedb3          	or	x27,x27,x15
   20138:	019d9793          	slli	x15,x27,0x19
   2013c:	007dde13          	srli	x28,x27,0x7
   20140:	00fe6e33          	or	x28,x28,x15
   20144:	019e1793          	slli	x15,x28,0x19
   20148:	007e5e93          	srli	x29,x28,0x7
   2014c:	00feeeb3          	or	x29,x29,x15
   20150:	019e9793          	slli	x15,x29,0x19
   20154:	007edf13          	srli	x30,x29,0x7
   20158:	00ff6f33          	or	x30,x30,x15
   2015c:	019f1793          	slli	x15,x30,0x19
   20160:	007f5f93          	srli	x31,x30,0x7
   20164:	00ffefb3          	or	x31,x31,x15
   20168:	00000013          	addi	x0,x0,0
   2016c:	00000013          	addi	x0,x0,0
   20170:	00000013          	addi	x0,x0,0
   20174:	00000013          	addi	x0,x0,0
   20178:	00000013          	addi	x0,x0,0
   2017c:	00000013          	addi	x0,x0,0
   20180:	ffff1117          	auipc	x2,0xffff1
   20184:	ab010113          	addi	x2,x2,-1360 # 10c30 <begin_signature>
   20188:	00000013          	addi	x0,x0,0
   2018c:	00000013          	addi	x0,x0,0
   20190:	00000013          	addi	x0,x0,0
   20194:	00000013          	addi	x0,x0,0
   20198:	00000013          	addi	x0,x0,0
   2019c:	00000013          	addi	x0,x0,0

000201a0 <canary_check>:
   201a0:	6f5ca337          	lui	x6,0x6f5ca
   201a4:	30930313          	addi	x6,x6,777 # 6f5ca309 <absimm>
   201a8:	00012203          	lw	x4,0(x2)
   201ac:	00620863          	beq	x4,x6,201bc <canary_check+0x1c>
   201b0:	aece32ef          	jal	x5,349c <failedtest_x5_x4>
   201b4:	000201a0          	.word	0x000201a0
   201b8:	000101ac          	.word	0x000101ac
   201bc:	00410113          	addi	x2,x2,4
   201c0:	fffe8197          	auipc	x3,0xfffe8
   201c4:	f5018193          	addi	x3,x3,-176 # 8110 <rvtest_data_begin>
   201c8:	00000013          	addi	x0,x0,0
   201cc:	00000013          	addi	x0,x0,0
   201d0:	00000013          	addi	x0,x0,0
   201d4:	00000013          	addi	x0,x0,0
   201d8:	00000013          	addi	x0,x0,0
   201dc:	00000013          	addi	x0,x0,0
   201e0:	fffe0317          	auipc	x6,0xfffe0
   201e4:	e6030313          	addi	x6,x6,-416 # 40 <rvtest_code_begin>
   201e8:	00000013          	addi	x0,x0,0
   201ec:	00000013          	addi	x0,x0,0
   201f0:	00000013          	addi	x0,x0,0
   201f4:	00000013          	addi	x0,x0,0
   201f8:	00000013          	addi	x0,x0,0
   201fc:	00000013          	addi	x0,x0,0
   20200:	00030067          	jalr	x0,0(x6)

00020204 <rvmodel_io_write_str>:
   20204:	00008067          	jalr	x0,0(x1)

00020208 <rvmodel_halt_pass>:
   20208:	00000513          	addi	x10,x0,0
   2020c:	00000073          	ecall
   20210:	0000006f          	jal	x0,20210 <rvmodel_halt_pass+0x8>

00020214 <rvmodel_halt_fail>:
   20214:	00100513          	addi	x10,x0,1
   20218:	00000073          	ecall
   2021c:	0000006f          	jal	x0,2021c <rvmodel_halt_fail+0x8>
   20220:	00000013          	addi	x0,x0,0
   20224:	00000013          	addi	x0,x0,0
   20228:	00000013          	addi	x0,x0,0
   2022c:	00000013          	addi	x0,x0,0
   20230:	00000013          	addi	x0,x0,0
   20234:	00000013          	addi	x0,x0,0
   20238:	00000013          	addi	x0,x0,0
   2023c:	00000013          	addi	x0,x0,0
