
/home/dev/github/clones/riscv-arch-test/work/rv32i-core/elfs/rv32i/I/I-srli-00.elf:     file format elf32-littleriscv
/home/dev/github/clones/riscv-arch-test/work/rv32i-core/elfs/rv32i/I/I-srli-00.elf
architecture: riscv:rv32, flags 0x00000112:
EXEC_P, HAS_SYMS, D_PAGED
start address 0x00000000

Program Header:
0x70000003 off    0x00019240 vaddr 0x00000000 paddr 0x00000000 align 2**0
         filesz 0x00000033 memsz 0x00000000 flags r--
    LOAD off    0x00001000 vaddr 0x00000000 paddr 0x00000000 align 2**12
         filesz 0x000037a0 memsz 0x000037a0 flags r-x
    LOAD off    0x00005000 vaddr 0x00004000 paddr 0x00004000 align 2**12
         filesz 0x00014240 memsz 0x00014240 flags rwx

Sections:
Idx Name          Size      VMA       LMA       File off  Algn
  0 .text.init    00000040  00000000  00000000  00001000  2**5
                  CONTENTS, ALLOC, LOAD, READONLY, CODE
  1 .text.rvtest  00003760  00000040  00000040  00001040  2**5
                  CONTENTS, ALLOC, LOAD, READONLY, CODE
  2 .data         00013f30  00004000  00004000  00005000  2**8
                  CONTENTS, ALLOC, LOAD, DATA
  3 .text.rvmodel 00000240  00018000  00018000  00019000  2**5
                  CONTENTS, ALLOC, LOAD, READONLY, CODE
  4 .riscv.attributes 00000033  00000000  00000000  00019240  2**0
                  CONTENTS, READONLY
  5 .debug_line   00000f12  00000000  00000000  00019273  2**0
                  CONTENTS, READONLY, DEBUGGING, OCTETS
  6 .debug_line_str 0000006a  00000000  00000000  0001a185  2**0
                  CONTENTS, READONLY, DEBUGGING, OCTETS
  7 .debug_info   00000023  00000000  00000000  0001a1ef  2**0
                  CONTENTS, READONLY, DEBUGGING, OCTETS
  8 .debug_abbrev 00000012  00000000  00000000  0001a212  2**0
                  CONTENTS, READONLY, DEBUGGING, OCTETS
  9 .debug_aranges 00000028  00000000  00000000  0001a228  2**3
                  CONTENTS, READONLY, DEBUGGING, OCTETS
 10 .debug_str    00000076  00000000  00000000  0001a250  2**0
                  CONTENTS, READONLY, DEBUGGING, OCTETS
 11 .debug_rnglists 0000001a  00000000  00000000  0001a2c6  2**0
                  CONTENTS, READONLY, DEBUGGING, OCTETS
SYMBOL TABLE:
00000000 l    d  .text.init	00000000 .text.init
00000040 l    d  .text.rvtest	00000000 .text.rvtest
00004000 l    d  .data	00000000 .data
00018000 l    d  .text.rvmodel	00000000 .text.rvmodel
00000000 l    d  .riscv.attributes	00000000 .riscv.attributes
00000000 l    d  .debug_line	00000000 .debug_line
00000000 l    d  .debug_line_str	00000000 .debug_line_str
00000000 l    d  .debug_info	00000000 .debug_info
00000000 l    d  .debug_abbrev	00000000 .debug_abbrev
00000000 l    d  .debug_aranges	00000000 .debug_aranges
00000000 l    d  .debug_str	00000000 .debug_str
00000000 l    d  .debug_rnglists	00000000 .debug_rnglists
00000000 l    df *ABS*	00000000 cc6tY4DL.o
00000003 l       *ABS*	00000000 MMODE_SIG
00000001 l       *ABS*	00000000 SMODE_SIG
00000001 l       *ABS*	00000000 HMODE_SIG
00000002 l       *ABS*	00000000 VMODE_SIG
00018000 l       .text.rvmodel	00000000 rvmodel_boot
00000048 l       .text.rvtest	00000000 I_srli_cg_cp_rs1_b0
00001d1c l       .text.rvtest	00000000 failedtest_x5_x4
00004430 l       .data	00000000 I_srli_cg_cp_rs1_b0_str
0000006c l       .text.rvtest	00000000 I_srli_cg_cp_rs1_b1
0000445e l       .data	00000000 I_srli_cg_cp_rs1_b1_str
00000094 l       .text.rvtest	00000000 I_srli_cg_cp_rs1_b2
0000448c l       .data	00000000 I_srli_cg_cp_rs1_b2_str
000000bc l       .text.rvtest	00000000 I_srli_cg_cp_rs1_b3
000044ba l       .data	00000000 I_srli_cg_cp_rs1_b3_str
000000e8 l       .text.rvtest	00000000 I_srli_cg_cp_rs1_b4
00001d5c l       .text.rvtest	00000000 failedtest_x14_x13
000044e8 l       .data	00000000 I_srli_cg_cp_rs1_b4_str
0000010c l       .text.rvtest	00000000 I_srli_cg_cp_rs1_b5
00004516 l       .data	00000000 I_srli_cg_cp_rs1_b5_str
00000130 l       .text.rvtest	00000000 I_srli_cg_cp_rs1_b6
00004544 l       .data	00000000 I_srli_cg_cp_rs1_b6_str
00000154 l       .text.rvtest	00000000 I_srli_cg_cp_rs1_b7
00004572 l       .data	00000000 I_srli_cg_cp_rs1_b7_str
00000178 l       .text.rvtest	00000000 I_srli_cg_cp_rs1_b8
000045a0 l       .data	00000000 I_srli_cg_cp_rs1_b8_str
0000019c l       .text.rvtest	00000000 I_srli_cg_cp_rs1_b9
000045ce l       .data	00000000 I_srli_cg_cp_rs1_b9_str
000001c0 l       .text.rvtest	00000000 I_srli_cg_cp_rs1_b10
000045fd l       .data	00000000 I_srli_cg_cp_rs1_b10_str
000001e4 l       .text.rvtest	00000000 I_srli_cg_cp_rs1_b11
0000462d l       .data	00000000 I_srli_cg_cp_rs1_b11_str
00000208 l       .text.rvtest	00000000 I_srli_cg_cp_rs1_b12
0000465d l       .data	00000000 I_srli_cg_cp_rs1_b12_str
00000234 l       .text.rvtest	00000000 I_srli_cg_cp_rs1_b13
0000468d l       .data	00000000 I_srli_cg_cp_rs1_b13_str
00000258 l       .text.rvtest	00000000 I_srli_cg_cp_rs1_b14
000046bd l       .data	00000000 I_srli_cg_cp_rs1_b14_str
00000280 l       .text.rvtest	00000000 I_srli_cg_cp_rs1_b15
000046ed l       .data	00000000 I_srli_cg_cp_rs1_b15_str
000002a4 l       .text.rvtest	00000000 I_srli_cg_cp_rs1_b16
0000471d l       .data	00000000 I_srli_cg_cp_rs1_b16_str
000002cc l       .text.rvtest	00000000 I_srli_cg_cp_rs1_b17
0000474d l       .data	00000000 I_srli_cg_cp_rs1_b17_str
000002f0 l       .text.rvtest	00000000 I_srli_cg_cp_rs1_b18
0000477d l       .data	00000000 I_srli_cg_cp_rs1_b18_str
00000318 l       .text.rvtest	00000000 I_srli_cg_cp_rs1_b19
000047ad l       .data	00000000 I_srli_cg_cp_rs1_b19_str
0000033c l       .text.rvtest	00000000 I_srli_cg_cp_rs1_b20
000047dd l       .data	00000000 I_srli_cg_cp_rs1_b20_str
00000360 l       .text.rvtest	00000000 I_srli_cg_cp_rs1_b21
0000480d l       .data	00000000 I_srli_cg_cp_rs1_b21_str
00000384 l       .text.rvtest	00000000 I_srli_cg_cp_rs1_b22
0000483d l       .data	00000000 I_srli_cg_cp_rs1_b22_str
000003a8 l       .text.rvtest	00000000 I_srli_cg_cp_rs1_b23
0000486d l       .data	00000000 I_srli_cg_cp_rs1_b23_str
000003cc l       .text.rvtest	00000000 I_srli_cg_cp_rs1_b24
0000489d l       .data	00000000 I_srli_cg_cp_rs1_b24_str
000003f0 l       .text.rvtest	00000000 I_srli_cg_cp_rs1_b25
000048cd l       .data	00000000 I_srli_cg_cp_rs1_b25_str
00000414 l       .text.rvtest	00000000 I_srli_cg_cp_rs1_b26
000048fd l       .data	00000000 I_srli_cg_cp_rs1_b26_str
00000438 l       .text.rvtest	00000000 I_srli_cg_cp_rs1_b27
0000492d l       .data	00000000 I_srli_cg_cp_rs1_b27_str
0000045c l       .text.rvtest	00000000 I_srli_cg_cp_rs1_b28
0000495d l       .data	00000000 I_srli_cg_cp_rs1_b28_str
00000484 l       .text.rvtest	00000000 I_srli_cg_cp_rs1_b29
0000498d l       .data	00000000 I_srli_cg_cp_rs1_b29_str
000004a8 l       .text.rvtest	00000000 I_srli_cg_cp_rs1_b30
000049bd l       .data	00000000 I_srli_cg_cp_rs1_b30_str
000004cc l       .text.rvtest	00000000 I_srli_cg_cp_rs1_b31
000049ed l       .data	00000000 I_srli_cg_cp_rs1_b31_str
000004f0 l       .text.rvtest	00000000 I_srli_cg_cp_rd_b0
00004a1d l       .data	00000000 I_srli_cg_cp_rd_b0_str
00000514 l       .text.rvtest	00000000 I_srli_cg_cp_rd_b1
00004a4b l       .data	00000000 I_srli_cg_cp_rd_b1_str
00000538 l       .text.rvtest	00000000 I_srli_cg_cp_rd_b2
00004a79 l       .data	00000000 I_srli_cg_cp_rd_b2_str
0000055c l       .text.rvtest	00000000 I_srli_cg_cp_rd_b3
00004aa7 l       .data	00000000 I_srli_cg_cp_rd_b3_str
00000588 l       .text.rvtest	00000000 I_srli_cg_cp_rd_b4
00001d34 l       .text.rvtest	00000000 failedtest_x8_x7
00004ad5 l       .data	00000000 I_srli_cg_cp_rd_b4_str
000005ac l       .text.rvtest	00000000 I_srli_cg_cp_rd_b5
00004b03 l       .data	00000000 I_srli_cg_cp_rd_b5_str
000005d0 l       .text.rvtest	00000000 I_srli_cg_cp_rd_b6
00004b31 l       .data	00000000 I_srli_cg_cp_rd_b6_str
000005fc l       .text.rvtest	00000000 I_srli_cg_cp_rd_b7
00004b5f l       .data	00000000 I_srli_cg_cp_rd_b7_str
00000620 l       .text.rvtest	00000000 I_srli_cg_cp_rd_b8
00004b8d l       .data	00000000 I_srli_cg_cp_rd_b8_str
00000648 l       .text.rvtest	00000000 I_srli_cg_cp_rd_b9
00004bbb l       .data	00000000 I_srli_cg_cp_rd_b9_str
0000066c l       .text.rvtest	00000000 I_srli_cg_cp_rd_b10
00004be9 l       .data	00000000 I_srli_cg_cp_rd_b10_str
00000690 l       .text.rvtest	00000000 I_srli_cg_cp_rd_b11
00004c18 l       .data	00000000 I_srli_cg_cp_rd_b11_str
000006b4 l       .text.rvtest	00000000 I_srli_cg_cp_rd_b12
00004c47 l       .data	00000000 I_srli_cg_cp_rd_b12_str
000006d8 l       .text.rvtest	00000000 I_srli_cg_cp_rd_b13
00004c76 l       .data	00000000 I_srli_cg_cp_rd_b13_str
000006fc l       .text.rvtest	00000000 I_srli_cg_cp_rd_b14
00004ca5 l       .data	00000000 I_srli_cg_cp_rd_b14_str
00000720 l       .text.rvtest	00000000 I_srli_cg_cp_rd_b15
00004cd4 l       .data	00000000 I_srli_cg_cp_rd_b15_str
00000744 l       .text.rvtest	00000000 I_srli_cg_cp_rd_b16
00004d03 l       .data	00000000 I_srli_cg_cp_rd_b16_str
00000768 l       .text.rvtest	00000000 I_srli_cg_cp_rd_b17
00004d32 l       .data	00000000 I_srli_cg_cp_rd_b17_str
0000078c l       .text.rvtest	00000000 I_srli_cg_cp_rd_b18
00004d61 l       .data	00000000 I_srli_cg_cp_rd_b18_str
000007b0 l       .text.rvtest	00000000 I_srli_cg_cp_rd_b19
00004d90 l       .data	00000000 I_srli_cg_cp_rd_b19_str
000007d4 l       .text.rvtest	00000000 I_srli_cg_cp_rd_b20
00004dbf l       .data	00000000 I_srli_cg_cp_rd_b20_str
000007f8 l       .text.rvtest	00000000 I_srli_cg_cp_rd_b21
00004dee l       .data	00000000 I_srli_cg_cp_rd_b21_str
00000820 l       .text.rvtest	00000000 I_srli_cg_cp_rd_b22
00004e1d l       .data	00000000 I_srli_cg_cp_rd_b22_str
00000844 l       .text.rvtest	00000000 I_srli_cg_cp_rd_b23
00004e4c l       .data	00000000 I_srli_cg_cp_rd_b23_str
00000868 l       .text.rvtest	00000000 I_srli_cg_cp_rd_b24
00004e7b l       .data	00000000 I_srli_cg_cp_rd_b24_str
0000088c l       .text.rvtest	00000000 I_srli_cg_cp_rd_b25
00004eaa l       .data	00000000 I_srli_cg_cp_rd_b25_str
000008b0 l       .text.rvtest	00000000 I_srli_cg_cp_rd_b26
00004ed9 l       .data	00000000 I_srli_cg_cp_rd_b26_str
000008d4 l       .text.rvtest	00000000 I_srli_cg_cp_rd_b27
00004f08 l       .data	00000000 I_srli_cg_cp_rd_b27_str
000008fc l       .text.rvtest	00000000 I_srli_cg_cp_rd_b28
00004f37 l       .data	00000000 I_srli_cg_cp_rd_b28_str
00000920 l       .text.rvtest	00000000 I_srli_cg_cp_rd_b29
00004f66 l       .data	00000000 I_srli_cg_cp_rd_b29_str
00000948 l       .text.rvtest	00000000 I_srli_cg_cp_rd_b30
00004f95 l       .data	00000000 I_srli_cg_cp_rd_b30_str
0000096c l       .text.rvtest	00000000 I_srli_cg_cp_rd_b31
00004fc4 l       .data	00000000 I_srli_cg_cp_rd_b31_str
00000990 l       .text.rvtest	00000000 I_srli_cg_cp_rs1_edges_0x0
00004ff3 l       .data	00000000 I_srli_cg_cp_rs1_edges_0x0_str
000009b4 l       .text.rvtest	00000000 I_srli_cg_cp_rs1_edges_0x1
00005029 l       .data	00000000 I_srli_cg_cp_rs1_edges_0x1_str
000009d8 l       .text.rvtest	00000000 I_srli_cg_cp_rs1_edges_0x2
0000505f l       .data	00000000 I_srli_cg_cp_rs1_edges_0x2_str
000009fc l       .text.rvtest	00000000 I_srli_cg_cp_rs1_edges_0x80000000
00005095 l       .data	00000000 I_srli_cg_cp_rs1_edges_0x80000000_str
00000a20 l       .text.rvtest	00000000 I_srli_cg_cp_rs1_edges_0x80000001
000050d2 l       .data	00000000 I_srli_cg_cp_rs1_edges_0x80000001_str
00000a44 l       .text.rvtest	00000000 I_srli_cg_cp_rs1_edges_0x7fffffff
0000510f l       .data	00000000 I_srli_cg_cp_rs1_edges_0x7fffffff_str
00000a68 l       .text.rvtest	00000000 I_srli_cg_cp_rs1_edges_0x7ffffffe
0000514c l       .data	00000000 I_srli_cg_cp_rs1_edges_0x7ffffffe_str
00000a8c l       .text.rvtest	00000000 I_srli_cg_cp_rs1_edges_0xffffffff
00005189 l       .data	00000000 I_srli_cg_cp_rs1_edges_0xffffffff_str
00000ab0 l       .text.rvtest	00000000 I_srli_cg_cp_rs1_edges_0xfffffffe
000051c6 l       .data	00000000 I_srli_cg_cp_rs1_edges_0xfffffffe_str
00000ad4 l       .text.rvtest	00000000 I_srli_cg_cp_rs1_edges_0x5bbc8872
00005203 l       .data	00000000 I_srli_cg_cp_rs1_edges_0x5bbc8872_str
00000af8 l       .text.rvtest	00000000 I_srli_cg_cp_rs1_edges_0xaaaaaaaa
00005240 l       .data	00000000 I_srli_cg_cp_rs1_edges_0xaaaaaaaa_str
00000b1c l       .text.rvtest	00000000 I_srli_cg_cp_rs1_edges_0x55555555
0000527d l       .data	00000000 I_srli_cg_cp_rs1_edges_0x55555555_str
00000b40 l       .text.rvtest	00000000 I_srli_cg_cr_rs1_imm_edges_uimm_rs1val_0x0_immval_0x0
000052ba l       .data	00000000 I_srli_cg_cr_rs1_imm_edges_uimm_rs1val_0x0_immval_0x0_str
00000b64 l       .text.rvtest	00000000 I_srli_cg_cr_rs1_imm_edges_uimm_rs1val_0x0_immval_0x1
0000530c l       .data	00000000 I_srli_cg_cr_rs1_imm_edges_uimm_rs1val_0x0_immval_0x1_str
00000b88 l       .text.rvtest	00000000 I_srli_cg_cr_rs1_imm_edges_uimm_rs1val_0x0_immval_0x13
0000535e l       .data	00000000 I_srli_cg_cr_rs1_imm_edges_uimm_rs1val_0x0_immval_0x13_str
00000bac l       .text.rvtest	00000000 I_srli_cg_cr_rs1_imm_edges_uimm_rs1val_0x0_immval_0x1e
000053b1 l       .data	00000000 I_srli_cg_cr_rs1_imm_edges_uimm_rs1val_0x0_immval_0x1e_str
00000bd0 l       .text.rvtest	00000000 I_srli_cg_cr_rs1_imm_edges_uimm_rs1val_0x0_immval_0x1f
00005404 l       .data	00000000 I_srli_cg_cr_rs1_imm_edges_uimm_rs1val_0x0_immval_0x1f_str
00000bf4 l       .text.rvtest	00000000 I_srli_cg_cr_rs1_imm_edges_uimm_rs1val_0x1_immval_0x0
00005457 l       .data	00000000 I_srli_cg_cr_rs1_imm_edges_uimm_rs1val_0x1_immval_0x0_str
00000c18 l       .text.rvtest	00000000 I_srli_cg_cr_rs1_imm_edges_uimm_rs1val_0x1_immval_0x1
000054a9 l       .data	00000000 I_srli_cg_cr_rs1_imm_edges_uimm_rs1val_0x1_immval_0x1_str
00000c3c l       .text.rvtest	00000000 I_srli_cg_cr_rs1_imm_edges_uimm_rs1val_0x1_immval_0x13
000054fb l       .data	00000000 I_srli_cg_cr_rs1_imm_edges_uimm_rs1val_0x1_immval_0x13_str
00000c60 l       .text.rvtest	00000000 I_srli_cg_cr_rs1_imm_edges_uimm_rs1val_0x1_immval_0x1e
0000554e l       .data	00000000 I_srli_cg_cr_rs1_imm_edges_uimm_rs1val_0x1_immval_0x1e_str
00000c84 l       .text.rvtest	00000000 I_srli_cg_cr_rs1_imm_edges_uimm_rs1val_0x1_immval_0x1f
000055a1 l       .data	00000000 I_srli_cg_cr_rs1_imm_edges_uimm_rs1val_0x1_immval_0x1f_str
00000ca8 l       .text.rvtest	00000000 I_srli_cg_cr_rs1_imm_edges_uimm_rs1val_0x2_immval_0x0
000055f4 l       .data	00000000 I_srli_cg_cr_rs1_imm_edges_uimm_rs1val_0x2_immval_0x0_str
00000ccc l       .text.rvtest	00000000 I_srli_cg_cr_rs1_imm_edges_uimm_rs1val_0x2_immval_0x1
00005646 l       .data	00000000 I_srli_cg_cr_rs1_imm_edges_uimm_rs1val_0x2_immval_0x1_str
00000cf0 l       .text.rvtest	00000000 I_srli_cg_cr_rs1_imm_edges_uimm_rs1val_0x2_immval_0x13
00005698 l       .data	00000000 I_srli_cg_cr_rs1_imm_edges_uimm_rs1val_0x2_immval_0x13_str
00000d14 l       .text.rvtest	00000000 I_srli_cg_cr_rs1_imm_edges_uimm_rs1val_0x2_immval_0x1e
000056eb l       .data	00000000 I_srli_cg_cr_rs1_imm_edges_uimm_rs1val_0x2_immval_0x1e_str
00000d38 l       .text.rvtest	00000000 I_srli_cg_cr_rs1_imm_edges_uimm_rs1val_0x2_immval_0x1f
0000573e l       .data	00000000 I_srli_cg_cr_rs1_imm_edges_uimm_rs1val_0x2_immval_0x1f_str
00000d5c l       .text.rvtest	00000000 I_srli_cg_cr_rs1_imm_edges_uimm_rs1val_0x80000000_immval_0x0
00005791 l       .data	00000000 I_srli_cg_cr_rs1_imm_edges_uimm_rs1val_0x80000000_immval_0x0_str
00000d80 l       .text.rvtest	00000000 I_srli_cg_cr_rs1_imm_edges_uimm_rs1val_0x80000000_immval_0x1
000057ea l       .data	00000000 I_srli_cg_cr_rs1_imm_edges_uimm_rs1val_0x80000000_immval_0x1_str
00000da4 l       .text.rvtest	00000000 I_srli_cg_cr_rs1_imm_edges_uimm_rs1val_0x80000000_immval_0x13
00005843 l       .data	00000000 I_srli_cg_cr_rs1_imm_edges_uimm_rs1val_0x80000000_immval_0x13_str
00000dc8 l       .text.rvtest	00000000 I_srli_cg_cr_rs1_imm_edges_uimm_rs1val_0x80000000_immval_0x1e
0000589d l       .data	00000000 I_srli_cg_cr_rs1_imm_edges_uimm_rs1val_0x80000000_immval_0x1e_str
00000dec l       .text.rvtest	00000000 I_srli_cg_cr_rs1_imm_edges_uimm_rs1val_0x80000000_immval_0x1f
000058f7 l       .data	00000000 I_srli_cg_cr_rs1_imm_edges_uimm_rs1val_0x80000000_immval_0x1f_str
00000e10 l       .text.rvtest	00000000 I_srli_cg_cr_rs1_imm_edges_uimm_rs1val_0x80000001_immval_0x0
00005951 l       .data	00000000 I_srli_cg_cr_rs1_imm_edges_uimm_rs1val_0x80000001_immval_0x0_str
00000e34 l       .text.rvtest	00000000 I_srli_cg_cr_rs1_imm_edges_uimm_rs1val_0x80000001_immval_0x1
000059aa l       .data	00000000 I_srli_cg_cr_rs1_imm_edges_uimm_rs1val_0x80000001_immval_0x1_str
00000e58 l       .text.rvtest	00000000 I_srli_cg_cr_rs1_imm_edges_uimm_rs1val_0x80000001_immval_0x13
00005a03 l       .data	00000000 I_srli_cg_cr_rs1_imm_edges_uimm_rs1val_0x80000001_immval_0x13_str
00000e7c l       .text.rvtest	00000000 I_srli_cg_cr_rs1_imm_edges_uimm_rs1val_0x80000001_immval_0x1e
00005a5d l       .data	00000000 I_srli_cg_cr_rs1_imm_edges_uimm_rs1val_0x80000001_immval_0x1e_str
00000ea0 l       .text.rvtest	00000000 I_srli_cg_cr_rs1_imm_edges_uimm_rs1val_0x80000001_immval_0x1f
00005ab8 l       .data	00000000 I_srli_cg_cr_rs1_imm_edges_uimm_rs1val_0x80000001_immval_0x1f_str
00000ec4 l       .text.rvtest	00000000 I_srli_cg_cr_rs1_imm_edges_uimm_rs1val_0x7fffffff_immval_0x0
00005b13 l       .data	00000000 I_srli_cg_cr_rs1_imm_edges_uimm_rs1val_0x7fffffff_immval_0x0_str
00000ee8 l       .text.rvtest	00000000 I_srli_cg_cr_rs1_imm_edges_uimm_rs1val_0x7fffffff_immval_0x1
00005b6d l       .data	00000000 I_srli_cg_cr_rs1_imm_edges_uimm_rs1val_0x7fffffff_immval_0x1_str
00000f0c l       .text.rvtest	00000000 I_srli_cg_cr_rs1_imm_edges_uimm_rs1val_0x7fffffff_immval_0x13
00005bc7 l       .data	00000000 I_srli_cg_cr_rs1_imm_edges_uimm_rs1val_0x7fffffff_immval_0x13_str
00000f30 l       .text.rvtest	00000000 I_srli_cg_cr_rs1_imm_edges_uimm_rs1val_0x7fffffff_immval_0x1e
00005c22 l       .data	00000000 I_srli_cg_cr_rs1_imm_edges_uimm_rs1val_0x7fffffff_immval_0x1e_str
00000f54 l       .text.rvtest	00000000 I_srli_cg_cr_rs1_imm_edges_uimm_rs1val_0x7fffffff_immval_0x1f
00005c7d l       .data	00000000 I_srli_cg_cr_rs1_imm_edges_uimm_rs1val_0x7fffffff_immval_0x1f_str
00000f78 l       .text.rvtest	00000000 I_srli_cg_cr_rs1_imm_edges_uimm_rs1val_0x7ffffffe_immval_0x0
00005cd8 l       .data	00000000 I_srli_cg_cr_rs1_imm_edges_uimm_rs1val_0x7ffffffe_immval_0x0_str
00000f9c l       .text.rvtest	00000000 I_srli_cg_cr_rs1_imm_edges_uimm_rs1val_0x7ffffffe_immval_0x1
00005d32 l       .data	00000000 I_srli_cg_cr_rs1_imm_edges_uimm_rs1val_0x7ffffffe_immval_0x1_str
00000fc0 l       .text.rvtest	00000000 I_srli_cg_cr_rs1_imm_edges_uimm_rs1val_0x7ffffffe_immval_0x13
00005d8c l       .data	00000000 I_srli_cg_cr_rs1_imm_edges_uimm_rs1val_0x7ffffffe_immval_0x13_str
00000fe4 l       .text.rvtest	00000000 I_srli_cg_cr_rs1_imm_edges_uimm_rs1val_0x7ffffffe_immval_0x1e
00005de7 l       .data	00000000 I_srli_cg_cr_rs1_imm_edges_uimm_rs1val_0x7ffffffe_immval_0x1e_str
00001008 l       .text.rvtest	00000000 I_srli_cg_cr_rs1_imm_edges_uimm_rs1val_0x7ffffffe_immval_0x1f
00005e42 l       .data	00000000 I_srli_cg_cr_rs1_imm_edges_uimm_rs1val_0x7ffffffe_immval_0x1f_str
0000102c l       .text.rvtest	00000000 I_srli_cg_cr_rs1_imm_edges_uimm_rs1val_0xffffffff_immval_0x0
00005e9d l       .data	00000000 I_srli_cg_cr_rs1_imm_edges_uimm_rs1val_0xffffffff_immval_0x0_str
00001050 l       .text.rvtest	00000000 I_srli_cg_cr_rs1_imm_edges_uimm_rs1val_0xffffffff_immval_0x1
00005ef7 l       .data	00000000 I_srli_cg_cr_rs1_imm_edges_uimm_rs1val_0xffffffff_immval_0x1_str
00001074 l       .text.rvtest	00000000 I_srli_cg_cr_rs1_imm_edges_uimm_rs1val_0xffffffff_immval_0x13
00005f51 l       .data	00000000 I_srli_cg_cr_rs1_imm_edges_uimm_rs1val_0xffffffff_immval_0x13_str
00001098 l       .text.rvtest	00000000 I_srli_cg_cr_rs1_imm_edges_uimm_rs1val_0xffffffff_immval_0x1e
00005fac l       .data	00000000 I_srli_cg_cr_rs1_imm_edges_uimm_rs1val_0xffffffff_immval_0x1e_str
000010bc l       .text.rvtest	00000000 I_srli_cg_cr_rs1_imm_edges_uimm_rs1val_0xffffffff_immval_0x1f
00006007 l       .data	00000000 I_srli_cg_cr_rs1_imm_edges_uimm_rs1val_0xffffffff_immval_0x1f_str
000010e0 l       .text.rvtest	00000000 I_srli_cg_cr_rs1_imm_edges_uimm_rs1val_0xfffffffe_immval_0x0
00006062 l       .data	00000000 I_srli_cg_cr_rs1_imm_edges_uimm_rs1val_0xfffffffe_immval_0x0_str
00001104 l       .text.rvtest	00000000 I_srli_cg_cr_rs1_imm_edges_uimm_rs1val_0xfffffffe_immval_0x1
000060bc l       .data	00000000 I_srli_cg_cr_rs1_imm_edges_uimm_rs1val_0xfffffffe_immval_0x1_str
00001128 l       .text.rvtest	00000000 I_srli_cg_cr_rs1_imm_edges_uimm_rs1val_0xfffffffe_immval_0x13
00006116 l       .data	00000000 I_srli_cg_cr_rs1_imm_edges_uimm_rs1val_0xfffffffe_immval_0x13_str
0000114c l       .text.rvtest	00000000 I_srli_cg_cr_rs1_imm_edges_uimm_rs1val_0xfffffffe_immval_0x1e
00006171 l       .data	00000000 I_srli_cg_cr_rs1_imm_edges_uimm_rs1val_0xfffffffe_immval_0x1e_str
00001170 l       .text.rvtest	00000000 I_srli_cg_cr_rs1_imm_edges_uimm_rs1val_0xfffffffe_immval_0x1f
000061cc l       .data	00000000 I_srli_cg_cr_rs1_imm_edges_uimm_rs1val_0xfffffffe_immval_0x1f_str
00001194 l       .text.rvtest	00000000 I_srli_cg_cr_rs1_imm_edges_uimm_rs1val_0x5bbc8872_immval_0x0
00006227 l       .data	00000000 I_srli_cg_cr_rs1_imm_edges_uimm_rs1val_0x5bbc8872_immval_0x0_str
000011b8 l       .text.rvtest	00000000 I_srli_cg_cr_rs1_imm_edges_uimm_rs1val_0x5bbc8872_immval_0x1
00006281 l       .data	00000000 I_srli_cg_cr_rs1_imm_edges_uimm_rs1val_0x5bbc8872_immval_0x1_str
000011dc l       .text.rvtest	00000000 I_srli_cg_cr_rs1_imm_edges_uimm_rs1val_0x5bbc8872_immval_0x13
000062db l       .data	00000000 I_srli_cg_cr_rs1_imm_edges_uimm_rs1val_0x5bbc8872_immval_0x13_str
00001200 l       .text.rvtest	00000000 I_srli_cg_cr_rs1_imm_edges_uimm_rs1val_0x5bbc8872_immval_0x1e
00006336 l       .data	00000000 I_srli_cg_cr_rs1_imm_edges_uimm_rs1val_0x5bbc8872_immval_0x1e_str
00001224 l       .text.rvtest	00000000 I_srli_cg_cr_rs1_imm_edges_uimm_rs1val_0x5bbc8872_immval_0x1f
00006391 l       .data	00000000 I_srli_cg_cr_rs1_imm_edges_uimm_rs1val_0x5bbc8872_immval_0x1f_str
00001248 l       .text.rvtest	00000000 I_srli_cg_cr_rs1_imm_edges_uimm_rs1val_0xaaaaaaaa_immval_0x0
000063ec l       .data	00000000 I_srli_cg_cr_rs1_imm_edges_uimm_rs1val_0xaaaaaaaa_immval_0x0_str
0000126c l       .text.rvtest	00000000 I_srli_cg_cr_rs1_imm_edges_uimm_rs1val_0xaaaaaaaa_immval_0x1
00006446 l       .data	00000000 I_srli_cg_cr_rs1_imm_edges_uimm_rs1val_0xaaaaaaaa_immval_0x1_str
00001290 l       .text.rvtest	00000000 I_srli_cg_cr_rs1_imm_edges_uimm_rs1val_0xaaaaaaaa_immval_0x13
000064a0 l       .data	00000000 I_srli_cg_cr_rs1_imm_edges_uimm_rs1val_0xaaaaaaaa_immval_0x13_str
000012b4 l       .text.rvtest	00000000 I_srli_cg_cr_rs1_imm_edges_uimm_rs1val_0xaaaaaaaa_immval_0x1e
000064fb l       .data	00000000 I_srli_cg_cr_rs1_imm_edges_uimm_rs1val_0xaaaaaaaa_immval_0x1e_str
000012d8 l       .text.rvtest	00000000 I_srli_cg_cr_rs1_imm_edges_uimm_rs1val_0xaaaaaaaa_immval_0x1f
00006556 l       .data	00000000 I_srli_cg_cr_rs1_imm_edges_uimm_rs1val_0xaaaaaaaa_immval_0x1f_str
000012fc l       .text.rvtest	00000000 I_srli_cg_cr_rs1_imm_edges_uimm_rs1val_0x55555555_immval_0x0
000065b1 l       .data	00000000 I_srli_cg_cr_rs1_imm_edges_uimm_rs1val_0x55555555_immval_0x0_str
00001320 l       .text.rvtest	00000000 I_srli_cg_cr_rs1_imm_edges_uimm_rs1val_0x55555555_immval_0x1
0000660b l       .data	00000000 I_srli_cg_cr_rs1_imm_edges_uimm_rs1val_0x55555555_immval_0x1_str
00001344 l       .text.rvtest	00000000 I_srli_cg_cr_rs1_imm_edges_uimm_rs1val_0x55555555_immval_0x13
00006665 l       .data	00000000 I_srli_cg_cr_rs1_imm_edges_uimm_rs1val_0x55555555_immval_0x13_str
00001368 l       .text.rvtest	00000000 I_srli_cg_cr_rs1_imm_edges_uimm_rs1val_0x55555555_immval_0x1e
000066c0 l       .data	00000000 I_srli_cg_cr_rs1_imm_edges_uimm_rs1val_0x55555555_immval_0x1e_str
0000138c l       .text.rvtest	00000000 I_srli_cg_cr_rs1_imm_edges_uimm_rs1val_0x55555555_immval_0x1f
0000671b l       .data	00000000 I_srli_cg_cr_rs1_imm_edges_uimm_rs1val_0x55555555_immval_0x1f_str
000013b0 l       .text.rvtest	00000000 I_srli_cg_cmp_rd_rs1_b0
00006776 l       .data	00000000 I_srli_cg_cmp_rd_rs1_b0_str
000013d4 l       .text.rvtest	00000000 I_srli_cg_cmp_rd_rs1_b1
000067aa l       .data	00000000 I_srli_cg_cmp_rd_rs1_b1_str
000013f8 l       .text.rvtest	00000000 I_srli_cg_cmp_rd_rs1_b2
000067de l       .data	00000000 I_srli_cg_cmp_rd_rs1_b2_str
0000141c l       .text.rvtest	00000000 I_srli_cg_cmp_rd_rs1_b3
00006812 l       .data	00000000 I_srli_cg_cmp_rd_rs1_b3_str
00001448 l       .text.rvtest	00000000 I_srli_cg_cmp_rd_rs1_b4
00006846 l       .data	00000000 I_srli_cg_cmp_rd_rs1_b4_str
0000146c l       .text.rvtest	00000000 I_srli_cg_cmp_rd_rs1_b5
0000687a l       .data	00000000 I_srli_cg_cmp_rd_rs1_b5_str
00001490 l       .text.rvtest	00000000 I_srli_cg_cmp_rd_rs1_b6
000068ae l       .data	00000000 I_srli_cg_cmp_rd_rs1_b6_str
000014b4 l       .text.rvtest	00000000 I_srli_cg_cmp_rd_rs1_b7
000068e2 l       .data	00000000 I_srli_cg_cmp_rd_rs1_b7_str
000014d8 l       .text.rvtest	00000000 I_srli_cg_cmp_rd_rs1_b8
00006916 l       .data	00000000 I_srli_cg_cmp_rd_rs1_b8_str
000014fc l       .text.rvtest	00000000 I_srli_cg_cmp_rd_rs1_b9
0000694a l       .data	00000000 I_srli_cg_cmp_rd_rs1_b9_str
00001520 l       .text.rvtest	00000000 I_srli_cg_cmp_rd_rs1_b10
0000697e l       .data	00000000 I_srli_cg_cmp_rd_rs1_b10_str
00001548 l       .text.rvtest	00000000 I_srli_cg_cmp_rd_rs1_b11
000069b3 l       .data	00000000 I_srli_cg_cmp_rd_rs1_b11_str
0000156c l       .text.rvtest	00000000 I_srli_cg_cmp_rd_rs1_b12
000069e8 l       .data	00000000 I_srli_cg_cmp_rd_rs1_b12_str
00001598 l       .text.rvtest	00000000 I_srli_cg_cmp_rd_rs1_b13
00006a1d l       .data	00000000 I_srli_cg_cmp_rd_rs1_b13_str
000015bc l       .text.rvtest	00000000 I_srli_cg_cmp_rd_rs1_b14
00006a52 l       .data	00000000 I_srli_cg_cmp_rd_rs1_b14_str
000015e0 l       .text.rvtest	00000000 I_srli_cg_cmp_rd_rs1_b15
00006a87 l       .data	00000000 I_srli_cg_cmp_rd_rs1_b15_str
00001604 l       .text.rvtest	00000000 I_srli_cg_cmp_rd_rs1_b16
00006abc l       .data	00000000 I_srli_cg_cmp_rd_rs1_b16_str
00001628 l       .text.rvtest	00000000 I_srli_cg_cmp_rd_rs1_b17
00006af1 l       .data	00000000 I_srli_cg_cmp_rd_rs1_b17_str
0000164c l       .text.rvtest	00000000 I_srli_cg_cmp_rd_rs1_b18
00006b26 l       .data	00000000 I_srli_cg_cmp_rd_rs1_b18_str
00001670 l       .text.rvtest	00000000 I_srli_cg_cmp_rd_rs1_b19
00006b5b l       .data	00000000 I_srli_cg_cmp_rd_rs1_b19_str
00001698 l       .text.rvtest	00000000 I_srli_cg_cmp_rd_rs1_b20
00006b90 l       .data	00000000 I_srli_cg_cmp_rd_rs1_b20_str
000016bc l       .text.rvtest	00000000 I_srli_cg_cmp_rd_rs1_b21
00006bc5 l       .data	00000000 I_srli_cg_cmp_rd_rs1_b21_str
000016e4 l       .text.rvtest	00000000 I_srli_cg_cmp_rd_rs1_b22
00006bfa l       .data	00000000 I_srli_cg_cmp_rd_rs1_b22_str
00001708 l       .text.rvtest	00000000 I_srli_cg_cmp_rd_rs1_b23
00006c2f l       .data	00000000 I_srli_cg_cmp_rd_rs1_b23_str
0000172c l       .text.rvtest	00000000 I_srli_cg_cmp_rd_rs1_b24
00006c64 l       .data	00000000 I_srli_cg_cmp_rd_rs1_b24_str
00001750 l       .text.rvtest	00000000 I_srli_cg_cmp_rd_rs1_b25
00006c99 l       .data	00000000 I_srli_cg_cmp_rd_rs1_b25_str
00001774 l       .text.rvtest	00000000 I_srli_cg_cmp_rd_rs1_b26
00006cce l       .data	00000000 I_srli_cg_cmp_rd_rs1_b26_str
00001798 l       .text.rvtest	00000000 I_srli_cg_cmp_rd_rs1_b27
00006d03 l       .data	00000000 I_srli_cg_cmp_rd_rs1_b27_str
000017bc l       .text.rvtest	00000000 I_srli_cg_cmp_rd_rs1_b28
00006d38 l       .data	00000000 I_srli_cg_cmp_rd_rs1_b28_str
000017e4 l       .text.rvtest	00000000 I_srli_cg_cmp_rd_rs1_b29
00006d6d l       .data	00000000 I_srli_cg_cmp_rd_rs1_b29_str
0000180c l       .text.rvtest	00000000 I_srli_cg_cmp_rd_rs1_b30
00006da2 l       .data	00000000 I_srli_cg_cmp_rd_rs1_b30_str
00001830 l       .text.rvtest	00000000 I_srli_cg_cmp_rd_rs1_b31
00006dd7 l       .data	00000000 I_srli_cg_cmp_rd_rs1_b31_str
00001854 l       .text.rvtest	00000000 I_srli_cg_cp_uimm_uimm0
00006e0c l       .data	00000000 I_srli_cg_cp_uimm_uimm0_str
00001878 l       .text.rvtest	00000000 I_srli_cg_cp_uimm_uimm1
00006e40 l       .data	00000000 I_srli_cg_cp_uimm_uimm1_str
0000189c l       .text.rvtest	00000000 I_srli_cg_cp_uimm_uimm2
00006e74 l       .data	00000000 I_srli_cg_cp_uimm_uimm2_str
000018c0 l       .text.rvtest	00000000 I_srli_cg_cp_uimm_uimm3
00006ea8 l       .data	00000000 I_srli_cg_cp_uimm_uimm3_str
000018e4 l       .text.rvtest	00000000 I_srli_cg_cp_uimm_uimm4
00006edc l       .data	00000000 I_srli_cg_cp_uimm_uimm4_str
00001908 l       .text.rvtest	00000000 I_srli_cg_cp_uimm_uimm5
00006f10 l       .data	00000000 I_srli_cg_cp_uimm_uimm5_str
0000192c l       .text.rvtest	00000000 I_srli_cg_cp_uimm_uimm6
00006f44 l       .data	00000000 I_srli_cg_cp_uimm_uimm6_str
00001950 l       .text.rvtest	00000000 I_srli_cg_cp_uimm_uimm7
00006f78 l       .data	00000000 I_srli_cg_cp_uimm_uimm7_str
00001974 l       .text.rvtest	00000000 I_srli_cg_cp_uimm_uimm8
00006fac l       .data	00000000 I_srli_cg_cp_uimm_uimm8_str
00001998 l       .text.rvtest	00000000 I_srli_cg_cp_uimm_uimm9
00006fe0 l       .data	00000000 I_srli_cg_cp_uimm_uimm9_str
000019bc l       .text.rvtest	00000000 I_srli_cg_cp_uimm_uimm10
00007014 l       .data	00000000 I_srli_cg_cp_uimm_uimm10_str
000019e0 l       .text.rvtest	00000000 I_srli_cg_cp_uimm_uimm11
00007049 l       .data	00000000 I_srli_cg_cp_uimm_uimm11_str
00001a04 l       .text.rvtest	00000000 I_srli_cg_cp_uimm_uimm12
0000707e l       .data	00000000 I_srli_cg_cp_uimm_uimm12_str
00001a28 l       .text.rvtest	00000000 I_srli_cg_cp_uimm_uimm13
000070b3 l       .data	00000000 I_srli_cg_cp_uimm_uimm13_str
00001a4c l       .text.rvtest	00000000 I_srli_cg_cp_uimm_uimm14
000070e8 l       .data	00000000 I_srli_cg_cp_uimm_uimm14_str
00001a70 l       .text.rvtest	00000000 I_srli_cg_cp_uimm_uimm15
0000711d l       .data	00000000 I_srli_cg_cp_uimm_uimm15_str
00001a94 l       .text.rvtest	00000000 I_srli_cg_cp_uimm_uimm16
00007152 l       .data	00000000 I_srli_cg_cp_uimm_uimm16_str
00001ab8 l       .text.rvtest	00000000 I_srli_cg_cp_uimm_uimm17
00007187 l       .data	00000000 I_srli_cg_cp_uimm_uimm17_str
00001adc l       .text.rvtest	00000000 I_srli_cg_cp_uimm_uimm18
000071bc l       .data	00000000 I_srli_cg_cp_uimm_uimm18_str
00001b00 l       .text.rvtest	00000000 I_srli_cg_cp_uimm_uimm19
000071f1 l       .data	00000000 I_srli_cg_cp_uimm_uimm19_str
00001b24 l       .text.rvtest	00000000 I_srli_cg_cp_uimm_uimm20
00007226 l       .data	00000000 I_srli_cg_cp_uimm_uimm20_str
00001b48 l       .text.rvtest	00000000 I_srli_cg_cp_uimm_uimm21
0000725b l       .data	00000000 I_srli_cg_cp_uimm_uimm21_str
00001b6c l       .text.rvtest	00000000 I_srli_cg_cp_uimm_uimm22
00007290 l       .data	00000000 I_srli_cg_cp_uimm_uimm22_str
00001b90 l       .text.rvtest	00000000 I_srli_cg_cp_uimm_uimm23
000072c5 l       .data	00000000 I_srli_cg_cp_uimm_uimm23_str
00001bb4 l       .text.rvtest	00000000 I_srli_cg_cp_uimm_uimm24
000072fa l       .data	00000000 I_srli_cg_cp_uimm_uimm24_str
00001bd8 l       .text.rvtest	00000000 I_srli_cg_cp_uimm_uimm25
0000732f l       .data	00000000 I_srli_cg_cp_uimm_uimm25_str
00001bfc l       .text.rvtest	00000000 I_srli_cg_cp_uimm_uimm26
00007364 l       .data	00000000 I_srli_cg_cp_uimm_uimm26_str
00001c20 l       .text.rvtest	00000000 I_srli_cg_cp_uimm_uimm27
00007399 l       .data	00000000 I_srli_cg_cp_uimm_uimm27_str
00001c44 l       .text.rvtest	00000000 I_srli_cg_cp_uimm_uimm28
000073ce l       .data	00000000 I_srli_cg_cp_uimm_uimm28_str
00001c68 l       .text.rvtest	00000000 I_srli_cg_cp_uimm_uimm29
00007403 l       .data	00000000 I_srli_cg_cp_uimm_uimm29_str
00001c8c l       .text.rvtest	00000000 I_srli_cg_cp_uimm_uimm30
00007438 l       .data	00000000 I_srli_cg_cp_uimm_uimm30_str
00001cb0 l       .text.rvtest	00000000 I_srli_cg_cp_uimm_uimm31
0000746d l       .data	00000000 I_srli_cg_cp_uimm_uimm31_str
00001cd0 l       .text.rvtest	00000000 exit_cleanup
00007b14 l       .data	00000000 successstr
00018204 l       .text.rvmodel	00000000 rvmodel_io_write_str
00018208 l       .text.rvmodel	00000000 rvmodel_halt_pass
00001d10 l       .text.rvtest	00000000 abort_test
6f5ca309 l       *ABS*	00000000 immx
6f5ca309 l       *ABS*	00000000 absimm
00000000 l       *ABS*	00000000 cry
00000309 l       *ABS*	00000000 imm12
000074b0 l       .data	00000000 begin_failure_scratch
00001de0 l       .text.rvtest	00000000 failedtest_saveregs
00001d84 l       .text.rvtest	00000000 failedtest_trap_x7_x9
00007620 l       .data	00000000 saved_mcause
00007628 l       .data	00000000 saved_mtval
00007630 l       .data	00000000 saved_mstatus
00001e50 l       .text.rvtest	00000000 failedtest_saveresults
000074b0 l       .data	00000000 failure_type
00001ecc l       .text.rvtest	00000000 failedtest_saveresults_trap
00001e60 l       .text.rvtest	00000000 failedtest_saveresults_int
000022a0 l       .text.rvtest	00000000 failedtest_saveresults_common
00007608 l       .data	00000000 trap_diag_fail_str_ptr
00007cdc l       .data	00000000 trap_sig_offset_mismatch
00002180 l       .text.rvtest	00000000 trap_diag_offset_mismatch
000075e0 l       .data	00000000 trap_diag_subtype
00007d40 l       .data	00000000 sv_Mvect_str
00002200 l       .text.rvtest	00000000 trap_diag_field_identified
00007e42 l       .data	00000000 sv_Mcause_str
00007f3d l       .data	00000000 sv_Mepc_str
00008030 l       .data	00000000 sv_Mtval_str
000081a3 l       .data	00000000 sv_Mip_str
00008127 l       .data	00000000 sv_Mtval2_str
00008165 l       .data	00000000 sv_Mtinst_str
00007d80 l       .data	00000000 sv_Svect_str
00007e80 l       .data	00000000 sv_Scause_str
00007f79 l       .data	00000000 sv_Sepc_str
0000806d l       .data	00000000 sv_Stval_str
000081de l       .data	00000000 sv_Sip_str
00007dc0 l       .data	00000000 sv_Hvect_str
00007ebe l       .data	00000000 sv_Hcause_str
00007fb5 l       .data	00000000 sv_Hepc_str
000080aa l       .data	00000000 sv_Htval_str
00008219 l       .data	00000000 sv_Hip_str
00007e01 l       .data	00000000 sv_Vvect_str
00007efd l       .data	00000000 sv_Vcause_str
00007ff2 l       .data	00000000 sv_Vepc_str
000080e8 l       .data	00000000 sv_Vtval_str
00008255 l       .data	00000000 sv_Vip_str
00008292 l       .data	00000000 Mclr_Mext_int_str
000082e1 l       .data	00000000 Mclr_Sext_int_str
000083dc l       .data	00000000 Sclr_Sext_int_str
000084d8 l       .data	00000000 Hclr_Sext_int_str
00002290 l       .text.rvtest	00000000 trap_diag_generic_report
000075f8 l       .data	00000000 trap_diag_actual_offset
00007600 l       .data	00000000 trap_diag_expected_offset
000075e4 l       .data	00000000 trap_diag_mode
000075e8 l       .data	00000000 trap_diag_actual_value
000075f0 l       .data	00000000 trap_diag_expected_value
000022d0 l       .text.rvtest	00000000 failedtest_report
000022d0 l       .text.rvtest	00000000 print_failstr
00007b4b l       .data	00000000 failstr
00002308 l       .text.rvtest	00000000 print_testnamestr
00007bdf l       .data	00000000 testnamestr
00002348 l       .text.rvtest	00000000 print_failure_test_name_str
000075d0 l       .data	00000000 failure_string_ptr
00002358 l       .text.rvtest	00000000 print_newline_str
00007bf1 l       .data	00000000 newlinestr
0000278c l       .text.rvtest	00000000 failedtest_report_trap_detailed
00007bf3 l       .data	00000000 inststr
000075b0 l       .data	00000000 failing_instruction
000036d8 l       .text.rvtest	00000000 failedtest_hex_to_str
00007638 l       .data	00000000 ascii_buffer
00007c07 l       .data	00000000 addrstr
000075b8 l       .data	00000000 failing_addr
00008684 l       .data	00000000 regstr
00002538 l       .text.rvtest	00000000 failedtest_report_not_intreg
000075b4 l       .data	00000000 failing_reg
00003754 l       .text.rvtest	00000000 failedtest_dec_to_str
00002614 l       .text.rvtest	00000000 failedtest_report_print_regstr
0000258c l       .text.rvtest	00000000 failedtest_report_fpreg
000025d8 l       .text.rvtest	00000000 failedtest_report_vecreg
000086e4 l       .data	00000000 fflagsstr
00002648 l       .text.rvtest	00000000 failedtest_report_after_reg
00008695 l       .data	00000000 badvalstr
000026ac l       .text.rvtest	00000000 failedtest_report_badval_not_fp
000075c0 l       .data	00000000 failing_value
000026bc l       .text.rvtest	00000000 failedtest_report_badval_done
000086ac l       .data	00000000 expvalstr
0000274c l       .text.rvtest	00000000 failedtest_report_expval_not_fp
000075c8 l       .data	00000000 expected_value
0000275c l       .text.rvtest	00000000 failedtest_report_expval_done
00003484 l       .text.rvtest	00000000 failedtest_report_end
00008710 l       .data	00000000 trap_diag_header_str
0000873c l       .data	00000000 trap_diag_origstr_label
00002860 l       .text.rvtest	00000000 trap_report_offset_mismatch
00003310 l       .text.rvtest	00000000 trap_report_generic
00002bd4 l       .text.rvtest	00000000 trap_report_field_mismatch
0000874c l       .data	00000000 trap_diag_count_mismatch_str
000087ad l       .data	00000000 trap_diag_expected_offset_str
000087d4 l       .data	00000000 trap_diag_actual_offset_str
00002ab4 l       .text.rvtest	00000000 trap_report_missing_traps
0000299c l       .text.rvtest	00000000 trap_report_extra_traps
000087fb l       .data	00000000 trap_diag_extra_traps_str
00008880 l       .data	00000000 trap_diag_extra_bytes_str
000088ab l       .data	00000000 trap_diag_extra_hint_str
000034d0 l       .text.rvtest	00000000 failedtest_print_csr_context
00008835 l       .data	00000000 trap_diag_missing_traps_str
00008993 l       .data	00000000 trap_diag_missing_hint_str
00008a7a l       .data	00000000 trap_diag_handler_mode_str
00002c64 l       .text.rvtest	00000000 trap_mode_m
00002ca4 l       .text.rvtest	00000000 trap_mode_s
00002ce4 l       .text.rvtest	00000000 trap_mode_h
00002d24 l       .text.rvtest	00000000 trap_mode_v
00008ab6 l       .data	00000000 trap_diag_mode_unknown_str
00002d60 l       .text.rvtest	00000000 trap_mode_print
00008a94 l       .data	00000000 trap_diag_mode_m_str
00008a9c l       .data	00000000 trap_diag_mode_s_str
00008aa4 l       .data	00000000 trap_diag_mode_hs_str
00008aad l       .data	00000000 trap_diag_mode_vs_str
00008abf l       .data	00000000 trap_diag_field_str
00002e24 l       .text.rvtest	00000000 trap_field_vect
00002e64 l       .text.rvtest	00000000 trap_field_cause
00002ea4 l       .text.rvtest	00000000 trap_field_epc
00002ee4 l       .text.rvtest	00000000 trap_field_tval
00002f24 l       .text.rvtest	00000000 trap_field_ip
00002f64 l       .text.rvtest	00000000 trap_field_tval2
00002fa4 l       .text.rvtest	00000000 trap_field_tinst
00002fe4 l       .text.rvtest	00000000 trap_field_intid
00008c16 l       .data	00000000 trap_diag_field_unknown_str
00003020 l       .text.rvtest	00000000 trap_field_print
00008ad9 l       .data	00000000 trap_diag_field_vect_str
00008b0a l       .data	00000000 trap_diag_field_cause_str
00008b2a l       .data	00000000 trap_diag_field_epc_str
00008b48 l       .data	00000000 trap_diag_field_tval_str
00008b67 l       .data	00000000 trap_diag_field_ip_str
00008b8f l       .data	00000000 trap_diag_field_tval2_str
00008bbb l       .data	00000000 trap_diag_field_tinst_str
00008be7 l       .data	00000000 trap_diag_field_intid_str
00008c25 l       .data	00000000 trap_diag_expected_str
00008c3c l       .data	00000000 trap_diag_actual_str
000031bc l       .text.rvtest	00000000 trap_field_not_cause
00008c53 l       .data	00000000 trap_diag_expected_cause_name_str
000033f4 l       .text.rvtest	00000000 trap_cause_to_str
00008c6a l       .data	00000000 trap_diag_actual_cause_name_str
000031bc l       .text.rvtest	00000000 trap_field_not_epc
00008ce0 l       .data	00000000 trap_diag_hint_vect_str
00008db6 l       .data	00000000 trap_diag_hint_cause_str
00008ea9 l       .data	00000000 trap_diag_hint_epc_str
00008fa4 l       .data	00000000 trap_diag_hint_tval_str
0000908b l       .data	00000000 trap_diag_hint_ip_str
00008c98 l       .data	00000000 trap_diag_generic_str
00007618 l       .data	00000000 saved_mepc
00007c7b l       .data	00000000 xepcinstrstr
00003418 l       .text.rvtest	00000000 trap_cause_interrupt
000033f8 l       .text.rvtest	00000000 trap_cause_exception
00003444 l       .text.rvtest	00000000 trap_cause_unknown
00007660 l       .data	00000000 trap_excpt_name_tbl
000076c0 l       .data	00000000 trap_int_name_tbl
00007afe l       .data	00000000 trap_cause_unknown_str
000086c3 l       .data	00000000 endstr
000034c8 l       .text.rvtest	00000000 failedtest_terminate
00018214 l       .text.rvmodel	00000000 rvmodel_halt_fail
00007610 l       .data	00000000 csr_context_ret_addr
00007c9c l       .data	00000000 mepcstr
00007cac l       .data	00000000 mcausestr
00007cbc l       .data	00000000 mtvalstr
00007ccc l       .data	00000000 mstatusstr
00003718 l       .text.rvtest	00000000 failedtest_hex_to_str_loop
00003734 l       .text.rvtest	00000000 failedtest_hex_to_str_digit
00003738 l       .text.rvtest	00000000 failedtest_hex_to_str_write
00018000 l       .text.rvmodel	00000000 rvtest_boot_to_mmode
00018000 l       .text.rvmodel	00000000 rvtest_init_regs
00009170 l       .data	00000000 signature_base
000181a0 l       .text.rvmodel	00000000 canary_check
000086ec l       .data	00000000 canary_mismatch
00004000 l       .data	00000000 scratch
00007660 l       .data	00000000 end_failure_scratch
00007700 l       .data	00000000 trap_excpt_name_0
00007720 l       .data	00000000 trap_excpt_name_1
0000773a l       .data	00000000 trap_excpt_name_2
0000774f l       .data	00000000 trap_excpt_name_3
0000775b l       .data	00000000 trap_excpt_name_4
00007774 l       .data	00000000 trap_excpt_name_5
00007787 l       .data	00000000 trap_excpt_name_6
000077a5 l       .data	00000000 trap_excpt_name_7
000077bd l       .data	00000000 trap_excpt_name_8
000077db l       .data	00000000 trap_excpt_name_9
000077f9 l       .data	00000000 trap_excpt_name_10
00007818 l       .data	00000000 trap_excpt_name_11
00007836 l       .data	00000000 trap_excpt_name_12
0000784e l       .data	00000000 trap_excpt_name_13
0000785f l       .data	00000000 trap_excpt_name_14
0000786e l       .data	00000000 trap_excpt_name_15
00007884 l       .data	00000000 trap_excpt_name_16
00007891 l       .data	00000000 trap_excpt_name_17
000078a0 l       .data	00000000 trap_excpt_name_18
000078b0 l       .data	00000000 trap_excpt_name_19
000078c0 l       .data	00000000 trap_excpt_name_20
000078de l       .data	00000000 trap_excpt_name_21
000078f5 l       .data	00000000 trap_excpt_name_22
0000790a l       .data	00000000 trap_excpt_name_23
00007926 l       .data	00000000 trap_int_name_0
0000793e l       .data	00000000 trap_int_name_1
0000795d l       .data	00000000 trap_int_name_2
00007984 l       .data	00000000 trap_int_name_3
000079a0 l       .data	00000000 trap_int_name_4
000079b8 l       .data	00000000 trap_int_name_5
000079d4 l       .data	00000000 trap_int_name_6
000079f8 l       .data	00000000 trap_int_name_7
00007a11 l       .data	00000000 trap_int_name_8
00007a29 l       .data	00000000 trap_int_name_9
00007a48 l       .data	00000000 trap_int_name_10
00007a6f l       .data	00000000 trap_int_name_11
00007a8b l       .data	00000000 trap_int_name_12
00007ab0 l       .data	00000000 trap_int_name_13
00007acc l       .data	00000000 trap_int_name_14
00007ae5 l       .data	00000000 trap_int_name_15
00007ba1 l       .data	00000000 abortstr
00007c48 l       .data	00000000 xepcstr
00008333 l       .data	00000000 Mclr_Vext_int_str
0000838d l       .data	00000000 Sclr_Mext_int_str
0000842e l       .data	00000000 Sclr_Vext_int_str
00008488 l       .data	00000000 Hclr_Mext_int_str
0000852b l       .data	00000000 Hclr_Vext_int_str
00008586 l       .data	00000000 Vclr_Mext_int_str
000085d6 l       .data	00000000 Vclr_Sext_int_str
00008629 l       .data	00000000 Vclr_Vext_int_str
00008c81 l       .data	00000000 trap_diag_curr_xepc_str
000094c0 l       .data	00000000 trap_sigptr
00017f30 g       .data	00000000 end_signature
00017f30 g       .data	00000000 rvtest_sig_end
00000000 g       .text.init	00000000 rvtest_entry_point
00009170 g       .data	00000000 begin_signature
00001cd0 g       .text.rvtest	00000000 rvtest_code_end
00000040 g       .text.rvtest	00000000 rvtest_code_begin
00009170 g       .data	00000000 rvtest_sig_begin
00004110 g       .data	00000000 rvtest_data_begin
00009170 g       .data	00000000 rvtest_data_end
00001cd0 g       .text.rvtest	00000000 cleanup_epilogs
00019000 g       .text.rvmodel	00000000 _end



Disassembly of section .text.init:

00000000 <rvtest_entry_point>:

// Include framework macros
#include "riscv_arch_test.h"

// Set up test environment and declare main entry point
RVTEST_BEGIN
   0:	00018097          	auipc	x1,0x18
   4:	00008093          	addi	x1,x1,0 # 18000 <rvmodel_boot>
   8:	00000013          	addi	x0,x0,0
   c:	00000013          	addi	x0,x0,0
  10:	00000013          	addi	x0,x0,0
  14:	00000013          	addi	x0,x0,0
  18:	00000013          	addi	x0,x0,0
  1c:	00000013          	addi	x0,x0,0
  20:	000080e7          	jalr	x1,0(x1)
  24:	00000013          	addi	x0,x0,0
  28:	00000013          	addi	x0,x0,0
  2c:	00000013          	addi	x0,x0,0
  30:	00000013          	addi	x0,x0,0
  34:	00000013          	addi	x0,x0,0
  38:	00000013          	addi	x0,x0,0
  3c:	00000013          	addi	x0,x0,0

Disassembly of section .text.rvtest:

00000040 <rvtest_code_begin>:
/////////////////////////////////
// cp_rs1
/////////////////////////////////

# Testcase cp_rs1 (Test source rs1 = x0)
  RVTEST_TESTDATA_LOAD_INT(x3, x0) # load rs1: x0 = 0x8790382e
      40:	0001a003          	lw	x0,0(x3)
      44:	00418193          	addi	x3,x3,4

00000048 <I_srli_cg_cp_rs1_b0>:
I_srli_cg_cp_rs1_b0:
  srli x8, x0, 21 # perform operation
      48:	01505413          	srli	x8,x0,0x15
  # Check if x8 contains the expected result. x2 is the signature ptr, x5 is the link ptr, x4 is a temp reg.
  RVTEST_SIGUPD(x2, x5, x4, x8, I_srli_cg_cp_rs1_b0, I_srli_cg_cp_rs1_b0_str)
      4c:	00012203          	lw	x4,0(x2)
      50:	00820863          	beq	x4,x8,60 <I_srli_cg_cp_rs1_b0+0x18>
      54:	4c9012ef          	jal	x5,1d1c <failedtest_x5_x4>
      58:	00000048          	.word	0x00000048
      5c:	00004430          	.word	0x00004430
      60:	00410113          	addi	x2,x2,4

# Testcase cp_rs1 (Test source rs1 = x1)
  RVTEST_TESTDATA_LOAD_INT(x3, x1) # load rs1: x1 = 0x5e7e7171
      64:	0001a083          	lw	x1,0(x3)
      68:	00418193          	addi	x3,x3,4

0000006c <I_srli_cg_cp_rs1_b1>:
I_srli_cg_cp_rs1_b1:
  srli x13, x1, 24 # perform operation
      6c:	0180d693          	srli	x13,x1,0x18
  # Check if x13 contains the expected result. x2 is the signature ptr, x5 is the link ptr, x4 is a temp reg.
  RVTEST_SIGUPD(x2, x5, x4, x13, I_srli_cg_cp_rs1_b1, I_srli_cg_cp_rs1_b1_str)
      70:	00012203          	lw	x4,0(x2)
      74:	00d20863          	beq	x4,x13,84 <I_srli_cg_cp_rs1_b1+0x18>
      78:	4a5012ef          	jal	x5,1d1c <failedtest_x5_x4>
      7c:	0000006c          	.word	0x0000006c
      80:	0000445e          	.word	0x0000445e
      84:	00410113          	addi	x2,x2,4

  mv x15, x2 # switch signature pointer register to avoid conflict with test
      88:	00010793          	addi	x15,x2,0
# Testcase cp_rs1 (Test source rs1 = x2)
  RVTEST_TESTDATA_LOAD_INT(x3, x2) # load rs1: x2 = 0x5d2fb393
      8c:	0001a103          	lw	x2,0(x3)
      90:	00418193          	addi	x3,x3,4

00000094 <I_srli_cg_cp_rs1_b2>:
I_srli_cg_cp_rs1_b2:
  srli x31, x2, 5 # perform operation
      94:	00515f93          	srli	x31,x2,0x5
  # Check if x31 contains the expected result. x15 is the signature ptr, x5 is the link ptr, x4 is a temp reg.
  RVTEST_SIGUPD(x15, x5, x4, x31, I_srli_cg_cp_rs1_b2, I_srli_cg_cp_rs1_b2_str)
      98:	0007a203          	lw	x4,0(x15)
      9c:	01f20863          	beq	x4,x31,ac <I_srli_cg_cp_rs1_b2+0x18>
      a0:	47d012ef          	jal	x5,1d1c <failedtest_x5_x4>
      a4:	00000094          	.word	0x00000094
      a8:	0000448c          	.word	0x0000448c
      ac:	00478793          	addi	x15,x15,4

  mv x19, x3 # switch data pointer register to avoid conflict with test
      b0:	00018993          	addi	x19,x3,0
# Testcase cp_rs1 (Test source rs1 = x3)
  RVTEST_TESTDATA_LOAD_INT(x19, x3) # load rs1: x3 = 0x8a2547aa
      b4:	0009a183          	lw	x3,0(x19)
      b8:	00498993          	addi	x19,x19,4

000000bc <I_srli_cg_cp_rs1_b3>:
I_srli_cg_cp_rs1_b3:
  srli x14, x3, 15 # perform operation
      bc:	00f1d713          	srli	x14,x3,0xf
  # Check if x14 contains the expected result. x15 is the signature ptr, x5 is the link ptr, x4 is a temp reg.
  RVTEST_SIGUPD(x15, x5, x4, x14, I_srli_cg_cp_rs1_b3, I_srli_cg_cp_rs1_b3_str)
      c0:	0007a203          	lw	x4,0(x15)
      c4:	00e20863          	beq	x4,x14,d4 <I_srli_cg_cp_rs1_b3+0x18>
      c8:	455012ef          	jal	x5,1d1c <failedtest_x5_x4>
      cc:	000000bc          	.word	0x000000bc
      d0:	000044ba          	.word	0x000044ba
      d4:	00478793          	addi	x15,x15,4

  mv x13, x4 # switch temp register to avoid conflict with test
      d8:	00020693          	addi	x13,x4,0 # 0 <rvtest_entry_point>
  mv x14, x5 # switch link pointer register to avoid conflict with test
      dc:	00028713          	addi	x14,x5,0
# Testcase cp_rs1 (Test source rs1 = x4)
  RVTEST_TESTDATA_LOAD_INT(x19, x4) # load rs1: x4 = 0x962bd17f
      e0:	0009a203          	lw	x4,0(x19)
      e4:	00498993          	addi	x19,x19,4

000000e8 <I_srli_cg_cp_rs1_b4>:
I_srli_cg_cp_rs1_b4:
  srli x31, x4, 16 # perform operation
      e8:	01025f93          	srli	x31,x4,0x10
  # Check if x31 contains the expected result. x15 is the signature ptr, x14 is the link ptr, x13 is a temp reg.
  RVTEST_SIGUPD(x15, x14, x13, x31, I_srli_cg_cp_rs1_b4, I_srli_cg_cp_rs1_b4_str)
      ec:	0007a683          	lw	x13,0(x15)
      f0:	01f68863          	beq	x13,x31,100 <I_srli_cg_cp_rs1_b4+0x18>
      f4:	4690176f          	jal	x14,1d5c <failedtest_x14_x13>
      f8:	000000e8          	.word	0x000000e8
      fc:	000044e8          	.word	0x000044e8
     100:	00478793          	addi	x15,x15,4

# Testcase cp_rs1 (Test source rs1 = x5)
  RVTEST_TESTDATA_LOAD_INT(x19, x5) # load rs1: x5 = 0xf5b52adc
     104:	0009a283          	lw	x5,0(x19)
     108:	00498993          	addi	x19,x19,4

0000010c <I_srli_cg_cp_rs1_b5>:
I_srli_cg_cp_rs1_b5:
  srli x6, x5, 13 # perform operation
     10c:	00d2d313          	srli	x6,x5,0xd
  # Check if x6 contains the expected result. x15 is the signature ptr, x14 is the link ptr, x13 is a temp reg.
  RVTEST_SIGUPD(x15, x14, x13, x6, I_srli_cg_cp_rs1_b5, I_srli_cg_cp_rs1_b5_str)
     110:	0007a683          	lw	x13,0(x15)
     114:	00668863          	beq	x13,x6,124 <I_srli_cg_cp_rs1_b5+0x18>
     118:	4450176f          	jal	x14,1d5c <failedtest_x14_x13>
     11c:	0000010c          	.word	0x0000010c
     120:	00004516          	.word	0x00004516
     124:	00478793          	addi	x15,x15,4

# Testcase cp_rs1 (Test source rs1 = x6)
  RVTEST_TESTDATA_LOAD_INT(x19, x6) # load rs1: x6 = 0xc890c1c5
     128:	0009a303          	lw	x6,0(x19)
     12c:	00498993          	addi	x19,x19,4

00000130 <I_srli_cg_cp_rs1_b6>:
I_srli_cg_cp_rs1_b6:
  srli x1, x6, 12 # perform operation
     130:	00c35093          	srli	x1,x6,0xc
  # Check if x1 contains the expected result. x15 is the signature ptr, x14 is the link ptr, x13 is a temp reg.
  RVTEST_SIGUPD(x15, x14, x13, x1, I_srli_cg_cp_rs1_b6, I_srli_cg_cp_rs1_b6_str)
     134:	0007a683          	lw	x13,0(x15)
     138:	00168863          	beq	x13,x1,148 <I_srli_cg_cp_rs1_b6+0x18>
     13c:	4210176f          	jal	x14,1d5c <failedtest_x14_x13>
     140:	00000130          	.word	0x00000130
     144:	00004544          	.word	0x00004544
     148:	00478793          	addi	x15,x15,4

# Testcase cp_rs1 (Test source rs1 = x7)
  RVTEST_TESTDATA_LOAD_INT(x19, x7) # load rs1: x7 = 0xe4ebf19d
     14c:	0009a383          	lw	x7,0(x19)
     150:	00498993          	addi	x19,x19,4

00000154 <I_srli_cg_cp_rs1_b7>:
I_srli_cg_cp_rs1_b7:
  srli x21, x7, 5 # perform operation
     154:	0053da93          	srli	x21,x7,0x5
  # Check if x21 contains the expected result. x15 is the signature ptr, x14 is the link ptr, x13 is a temp reg.
  RVTEST_SIGUPD(x15, x14, x13, x21, I_srli_cg_cp_rs1_b7, I_srli_cg_cp_rs1_b7_str)
     158:	0007a683          	lw	x13,0(x15)
     15c:	01568863          	beq	x13,x21,16c <I_srli_cg_cp_rs1_b7+0x18>
     160:	3fd0176f          	jal	x14,1d5c <failedtest_x14_x13>
     164:	00000154          	.word	0x00000154
     168:	00004572          	.word	0x00004572
     16c:	00478793          	addi	x15,x15,4

# Testcase cp_rs1 (Test source rs1 = x8)
  RVTEST_TESTDATA_LOAD_INT(x19, x8) # load rs1: x8 = 0x96a9c926
     170:	0009a403          	lw	x8,0(x19)
     174:	00498993          	addi	x19,x19,4

00000178 <I_srli_cg_cp_rs1_b8>:
I_srli_cg_cp_rs1_b8:
  srli x4, x8, 21 # perform operation
     178:	01545213          	srli	x4,x8,0x15
  # Check if x4 contains the expected result. x15 is the signature ptr, x14 is the link ptr, x13 is a temp reg.
  RVTEST_SIGUPD(x15, x14, x13, x4, I_srli_cg_cp_rs1_b8, I_srli_cg_cp_rs1_b8_str)
     17c:	0007a683          	lw	x13,0(x15)
     180:	00468863          	beq	x13,x4,190 <I_srli_cg_cp_rs1_b8+0x18>
     184:	3d90176f          	jal	x14,1d5c <failedtest_x14_x13>
     188:	00000178          	.word	0x00000178
     18c:	000045a0          	.word	0x000045a0
     190:	00478793          	addi	x15,x15,4

# Testcase cp_rs1 (Test source rs1 = x9)
  RVTEST_TESTDATA_LOAD_INT(x19, x9) # load rs1: x9 = 0x0b314c2b
     194:	0009a483          	lw	x9,0(x19)
     198:	00498993          	addi	x19,x19,4

0000019c <I_srli_cg_cp_rs1_b9>:
I_srli_cg_cp_rs1_b9:
  srli x29, x9, 3 # perform operation
     19c:	0034de93          	srli	x29,x9,0x3
  # Check if x29 contains the expected result. x15 is the signature ptr, x14 is the link ptr, x13 is a temp reg.
  RVTEST_SIGUPD(x15, x14, x13, x29, I_srli_cg_cp_rs1_b9, I_srli_cg_cp_rs1_b9_str)
     1a0:	0007a683          	lw	x13,0(x15)
     1a4:	01d68863          	beq	x13,x29,1b4 <I_srli_cg_cp_rs1_b9+0x18>
     1a8:	3b50176f          	jal	x14,1d5c <failedtest_x14_x13>
     1ac:	0000019c          	.word	0x0000019c
     1b0:	000045ce          	.word	0x000045ce
     1b4:	00478793          	addi	x15,x15,4

# Testcase cp_rs1 (Test source rs1 = x10)
  RVTEST_TESTDATA_LOAD_INT(x19, x10) # load rs1: x10 = 0x8837c128
     1b8:	0009a503          	lw	x10,0(x19)
     1bc:	00498993          	addi	x19,x19,4

000001c0 <I_srli_cg_cp_rs1_b10>:
I_srli_cg_cp_rs1_b10:
  srli x8, x10, 26 # perform operation
     1c0:	01a55413          	srli	x8,x10,0x1a
  # Check if x8 contains the expected result. x15 is the signature ptr, x14 is the link ptr, x13 is a temp reg.
  RVTEST_SIGUPD(x15, x14, x13, x8, I_srli_cg_cp_rs1_b10, I_srli_cg_cp_rs1_b10_str)
     1c4:	0007a683          	lw	x13,0(x15)
     1c8:	00868863          	beq	x13,x8,1d8 <I_srli_cg_cp_rs1_b10+0x18>
     1cc:	3910176f          	jal	x14,1d5c <failedtest_x14_x13>
     1d0:	000001c0          	.word	0x000001c0
     1d4:	000045fd          	.word	0x000045fd
     1d8:	00478793          	addi	x15,x15,4

# Testcase cp_rs1 (Test source rs1 = x11)
  RVTEST_TESTDATA_LOAD_INT(x19, x11) # load rs1: x11 = 0x3ae84679
     1dc:	0009a583          	lw	x11,0(x19)
     1e0:	00498993          	addi	x19,x19,4

000001e4 <I_srli_cg_cp_rs1_b11>:
I_srli_cg_cp_rs1_b11:
  srli x7, x11, 24 # perform operation
     1e4:	0185d393          	srli	x7,x11,0x18
  # Check if x7 contains the expected result. x15 is the signature ptr, x14 is the link ptr, x13 is a temp reg.
  RVTEST_SIGUPD(x15, x14, x13, x7, I_srli_cg_cp_rs1_b11, I_srli_cg_cp_rs1_b11_str)
     1e8:	0007a683          	lw	x13,0(x15)
     1ec:	00768863          	beq	x13,x7,1fc <I_srli_cg_cp_rs1_b11+0x18>
     1f0:	36d0176f          	jal	x14,1d5c <failedtest_x14_x13>
     1f4:	000001e4          	.word	0x000001e4
     1f8:	0000462d          	.word	0x0000462d
     1fc:	00478793          	addi	x15,x15,4

# Testcase cp_rs1 (Test source rs1 = x12)
  RVTEST_TESTDATA_LOAD_INT(x19, x12) # load rs1: x12 = 0x7f9b1f55
     200:	0009a603          	lw	x12,0(x19)
     204:	00498993          	addi	x19,x19,4

00000208 <I_srli_cg_cp_rs1_b12>:
I_srli_cg_cp_rs1_b12:
  srli x30, x12, 0 # perform operation
     208:	00065f13          	srli	x30,x12,0x0
  # Check if x30 contains the expected result. x15 is the signature ptr, x14 is the link ptr, x13 is a temp reg.
  RVTEST_SIGUPD(x15, x14, x13, x30, I_srli_cg_cp_rs1_b12, I_srli_cg_cp_rs1_b12_str)
     20c:	0007a683          	lw	x13,0(x15)
     210:	01e68863          	beq	x13,x30,220 <I_srli_cg_cp_rs1_b12+0x18>
     214:	3490176f          	jal	x14,1d5c <failedtest_x14_x13>
     218:	00000208          	.word	0x00000208
     21c:	0000465d          	.word	0x0000465d
     220:	00478793          	addi	x15,x15,4

  mv x4, x13 # switch temp register to avoid conflict with test
     224:	00068213          	addi	x4,x13,0
  mv x5, x14 # switch link pointer register to avoid conflict with test
     228:	00070293          	addi	x5,x14,0
# Testcase cp_rs1 (Test source rs1 = x13)
  RVTEST_TESTDATA_LOAD_INT(x19, x13) # load rs1: x13 = 0xfa959d8e
     22c:	0009a683          	lw	x13,0(x19)
     230:	00498993          	addi	x19,x19,4

00000234 <I_srli_cg_cp_rs1_b13>:
I_srli_cg_cp_rs1_b13:
  srli x17, x13, 31 # perform operation
     234:	01f6d893          	srli	x17,x13,0x1f
  # Check if x17 contains the expected result. x15 is the signature ptr, x5 is the link ptr, x4 is a temp reg.
  RVTEST_SIGUPD(x15, x5, x4, x17, I_srli_cg_cp_rs1_b13, I_srli_cg_cp_rs1_b13_str)
     238:	0007a203          	lw	x4,0(x15)
     23c:	01120863          	beq	x4,x17,24c <I_srli_cg_cp_rs1_b13+0x18>
     240:	2dd012ef          	jal	x5,1d1c <failedtest_x5_x4>
     244:	00000234          	.word	0x00000234
     248:	0000468d          	.word	0x0000468d
     24c:	00478793          	addi	x15,x15,4

# Testcase cp_rs1 (Test source rs1 = x14)
  RVTEST_TESTDATA_LOAD_INT(x19, x14) # load rs1: x14 = 0xb2a20db4
     250:	0009a703          	lw	x14,0(x19)
     254:	00498993          	addi	x19,x19,4

00000258 <I_srli_cg_cp_rs1_b14>:
I_srli_cg_cp_rs1_b14:
  srli x11, x14, 26 # perform operation
     258:	01a75593          	srli	x11,x14,0x1a
  # Check if x11 contains the expected result. x15 is the signature ptr, x5 is the link ptr, x4 is a temp reg.
  RVTEST_SIGUPD(x15, x5, x4, x11, I_srli_cg_cp_rs1_b14, I_srli_cg_cp_rs1_b14_str)
     25c:	0007a203          	lw	x4,0(x15)
     260:	00b20863          	beq	x4,x11,270 <I_srli_cg_cp_rs1_b14+0x18>
     264:	2b9012ef          	jal	x5,1d1c <failedtest_x5_x4>
     268:	00000258          	.word	0x00000258
     26c:	000046bd          	.word	0x000046bd
     270:	00478793          	addi	x15,x15,4

  mv x17, x15 # switch signature pointer register to avoid conflict with test
     274:	00078893          	addi	x17,x15,0
# Testcase cp_rs1 (Test source rs1 = x15)
  RVTEST_TESTDATA_LOAD_INT(x19, x15) # load rs1: x15 = 0x2232ddbb
     278:	0009a783          	lw	x15,0(x19)
     27c:	00498993          	addi	x19,x19,4

00000280 <I_srli_cg_cp_rs1_b15>:
I_srli_cg_cp_rs1_b15:
  srli x22, x15, 27 # perform operation
     280:	01b7db13          	srli	x22,x15,0x1b
  # Check if x22 contains the expected result. x17 is the signature ptr, x5 is the link ptr, x4 is a temp reg.
  RVTEST_SIGUPD(x17, x5, x4, x22, I_srli_cg_cp_rs1_b15, I_srli_cg_cp_rs1_b15_str)
     284:	0008a203          	lw	x4,0(x17)
     288:	01620863          	beq	x4,x22,298 <I_srli_cg_cp_rs1_b15+0x18>
     28c:	291012ef          	jal	x5,1d1c <failedtest_x5_x4>
     290:	00000280          	.word	0x00000280
     294:	000046ed          	.word	0x000046ed
     298:	00488893          	addi	x17,x17,4

# Testcase cp_rs1 (Test source rs1 = x16)
  RVTEST_TESTDATA_LOAD_INT(x19, x16) # load rs1: x16 = 0x0ec1265c
     29c:	0009a803          	lw	x16,0(x19)
     2a0:	00498993          	addi	x19,x19,4

000002a4 <I_srli_cg_cp_rs1_b16>:
I_srli_cg_cp_rs1_b16:
  srli x23, x16, 25 # perform operation
     2a4:	01985b93          	srli	x23,x16,0x19
  # Check if x23 contains the expected result. x17 is the signature ptr, x5 is the link ptr, x4 is a temp reg.
  RVTEST_SIGUPD(x17, x5, x4, x23, I_srli_cg_cp_rs1_b16, I_srli_cg_cp_rs1_b16_str)
     2a8:	0008a203          	lw	x4,0(x17)
     2ac:	01720863          	beq	x4,x23,2bc <I_srli_cg_cp_rs1_b16+0x18>
     2b0:	26d012ef          	jal	x5,1d1c <failedtest_x5_x4>
     2b4:	000002a4          	.word	0x000002a4
     2b8:	0000471d          	.word	0x0000471d
     2bc:	00488893          	addi	x17,x17,4

  mv x9, x17 # switch signature pointer register to avoid conflict with test
     2c0:	00088493          	addi	x9,x17,0
# Testcase cp_rs1 (Test source rs1 = x17)
  RVTEST_TESTDATA_LOAD_INT(x19, x17) # load rs1: x17 = 0x4d417d95
     2c4:	0009a883          	lw	x17,0(x19)
     2c8:	00498993          	addi	x19,x19,4

000002cc <I_srli_cg_cp_rs1_b17>:
I_srli_cg_cp_rs1_b17:
  srli x14, x17, 21 # perform operation
     2cc:	0158d713          	srli	x14,x17,0x15
  # Check if x14 contains the expected result. x9 is the signature ptr, x5 is the link ptr, x4 is a temp reg.
  RVTEST_SIGUPD(x9, x5, x4, x14, I_srli_cg_cp_rs1_b17, I_srli_cg_cp_rs1_b17_str)
     2d0:	0004a203          	lw	x4,0(x9)
     2d4:	00e20863          	beq	x4,x14,2e4 <I_srli_cg_cp_rs1_b17+0x18>
     2d8:	245012ef          	jal	x5,1d1c <failedtest_x5_x4>
     2dc:	000002cc          	.word	0x000002cc
     2e0:	0000474d          	.word	0x0000474d
     2e4:	00448493          	addi	x9,x9,4

# Testcase cp_rs1 (Test source rs1 = x18)
  RVTEST_TESTDATA_LOAD_INT(x19, x18) # load rs1: x18 = 0xdb1cbac7
     2e8:	0009a903          	lw	x18,0(x19)
     2ec:	00498993          	addi	x19,x19,4

000002f0 <I_srli_cg_cp_rs1_b18>:
I_srli_cg_cp_rs1_b18:
  srli x17, x18, 26 # perform operation
     2f0:	01a95893          	srli	x17,x18,0x1a
  # Check if x17 contains the expected result. x9 is the signature ptr, x5 is the link ptr, x4 is a temp reg.
  RVTEST_SIGUPD(x9, x5, x4, x17, I_srli_cg_cp_rs1_b18, I_srli_cg_cp_rs1_b18_str)
     2f4:	0004a203          	lw	x4,0(x9)
     2f8:	01120863          	beq	x4,x17,308 <I_srli_cg_cp_rs1_b18+0x18>
     2fc:	221012ef          	jal	x5,1d1c <failedtest_x5_x4>
     300:	000002f0          	.word	0x000002f0
     304:	0000477d          	.word	0x0000477d
     308:	00448493          	addi	x9,x9,4

  mv x29, x19 # switch data pointer register to avoid conflict with test
     30c:	00098e93          	addi	x29,x19,0
# Testcase cp_rs1 (Test source rs1 = x19)
  RVTEST_TESTDATA_LOAD_INT(x29, x19) # load rs1: x19 = 0x4cb44395
     310:	000ea983          	lw	x19,0(x29)
     314:	004e8e93          	addi	x29,x29,4

00000318 <I_srli_cg_cp_rs1_b19>:
I_srli_cg_cp_rs1_b19:
  srli x24, x19, 17 # perform operation
     318:	0119dc13          	srli	x24,x19,0x11
  # Check if x24 contains the expected result. x9 is the signature ptr, x5 is the link ptr, x4 is a temp reg.
  RVTEST_SIGUPD(x9, x5, x4, x24, I_srli_cg_cp_rs1_b19, I_srli_cg_cp_rs1_b19_str)
     31c:	0004a203          	lw	x4,0(x9)
     320:	01820863          	beq	x4,x24,330 <I_srli_cg_cp_rs1_b19+0x18>
     324:	1f9012ef          	jal	x5,1d1c <failedtest_x5_x4>
     328:	00000318          	.word	0x00000318
     32c:	000047ad          	.word	0x000047ad
     330:	00448493          	addi	x9,x9,4

# Testcase cp_rs1 (Test source rs1 = x20)
  RVTEST_TESTDATA_LOAD_INT(x29, x20) # load rs1: x20 = 0x4c55bafc
     334:	000eaa03          	lw	x20,0(x29)
     338:	004e8e93          	addi	x29,x29,4

0000033c <I_srli_cg_cp_rs1_b20>:
I_srli_cg_cp_rs1_b20:
  srli x25, x20, 1 # perform operation
     33c:	001a5c93          	srli	x25,x20,0x1
  # Check if x25 contains the expected result. x9 is the signature ptr, x5 is the link ptr, x4 is a temp reg.
  RVTEST_SIGUPD(x9, x5, x4, x25, I_srli_cg_cp_rs1_b20, I_srli_cg_cp_rs1_b20_str)
     340:	0004a203          	lw	x4,0(x9)
     344:	01920863          	beq	x4,x25,354 <I_srli_cg_cp_rs1_b20+0x18>
     348:	1d5012ef          	jal	x5,1d1c <failedtest_x5_x4>
     34c:	0000033c          	.word	0x0000033c
     350:	000047dd          	.word	0x000047dd
     354:	00448493          	addi	x9,x9,4

# Testcase cp_rs1 (Test source rs1 = x21)
  RVTEST_TESTDATA_LOAD_INT(x29, x21) # load rs1: x21 = 0xe77c29d3
     358:	000eaa83          	lw	x21,0(x29)
     35c:	004e8e93          	addi	x29,x29,4

00000360 <I_srli_cg_cp_rs1_b21>:
I_srli_cg_cp_rs1_b21:
  srli x20, x21, 16 # perform operation
     360:	010ada13          	srli	x20,x21,0x10
  # Check if x20 contains the expected result. x9 is the signature ptr, x5 is the link ptr, x4 is a temp reg.
  RVTEST_SIGUPD(x9, x5, x4, x20, I_srli_cg_cp_rs1_b21, I_srli_cg_cp_rs1_b21_str)
     364:	0004a203          	lw	x4,0(x9)
     368:	01420863          	beq	x4,x20,378 <I_srli_cg_cp_rs1_b21+0x18>
     36c:	1b1012ef          	jal	x5,1d1c <failedtest_x5_x4>
     370:	00000360          	.word	0x00000360
     374:	0000480d          	.word	0x0000480d
     378:	00448493          	addi	x9,x9,4

# Testcase cp_rs1 (Test source rs1 = x22)
  RVTEST_TESTDATA_LOAD_INT(x29, x22) # load rs1: x22 = 0x9476f681
     37c:	000eab03          	lw	x22,0(x29)
     380:	004e8e93          	addi	x29,x29,4

00000384 <I_srli_cg_cp_rs1_b22>:
I_srli_cg_cp_rs1_b22:
  srli x7, x22, 25 # perform operation
     384:	019b5393          	srli	x7,x22,0x19
  # Check if x7 contains the expected result. x9 is the signature ptr, x5 is the link ptr, x4 is a temp reg.
  RVTEST_SIGUPD(x9, x5, x4, x7, I_srli_cg_cp_rs1_b22, I_srli_cg_cp_rs1_b22_str)
     388:	0004a203          	lw	x4,0(x9)
     38c:	00720863          	beq	x4,x7,39c <I_srli_cg_cp_rs1_b22+0x18>
     390:	18d012ef          	jal	x5,1d1c <failedtest_x5_x4>
     394:	00000384          	.word	0x00000384
     398:	0000483d          	.word	0x0000483d
     39c:	00448493          	addi	x9,x9,4

# Testcase cp_rs1 (Test source rs1 = x23)
  RVTEST_TESTDATA_LOAD_INT(x29, x23) # load rs1: x23 = 0x0cd6e6d7
     3a0:	000eab83          	lw	x23,0(x29)
     3a4:	004e8e93          	addi	x29,x29,4

000003a8 <I_srli_cg_cp_rs1_b23>:
I_srli_cg_cp_rs1_b23:
  srli x7, x23, 21 # perform operation
     3a8:	015bd393          	srli	x7,x23,0x15
  # Check if x7 contains the expected result. x9 is the signature ptr, x5 is the link ptr, x4 is a temp reg.
  RVTEST_SIGUPD(x9, x5, x4, x7, I_srli_cg_cp_rs1_b23, I_srli_cg_cp_rs1_b23_str)
     3ac:	0004a203          	lw	x4,0(x9)
     3b0:	00720863          	beq	x4,x7,3c0 <I_srli_cg_cp_rs1_b23+0x18>
     3b4:	169012ef          	jal	x5,1d1c <failedtest_x5_x4>
     3b8:	000003a8          	.word	0x000003a8
     3bc:	0000486d          	.word	0x0000486d
     3c0:	00448493          	addi	x9,x9,4

# Testcase cp_rs1 (Test source rs1 = x24)
  RVTEST_TESTDATA_LOAD_INT(x29, x24) # load rs1: x24 = 0xfa54ecd0
     3c4:	000eac03          	lw	x24,0(x29)
     3c8:	004e8e93          	addi	x29,x29,4

000003cc <I_srli_cg_cp_rs1_b24>:
I_srli_cg_cp_rs1_b24:
  srli x19, x24, 19 # perform operation
     3cc:	013c5993          	srli	x19,x24,0x13
  # Check if x19 contains the expected result. x9 is the signature ptr, x5 is the link ptr, x4 is a temp reg.
  RVTEST_SIGUPD(x9, x5, x4, x19, I_srli_cg_cp_rs1_b24, I_srli_cg_cp_rs1_b24_str)
     3d0:	0004a203          	lw	x4,0(x9)
     3d4:	01320863          	beq	x4,x19,3e4 <I_srli_cg_cp_rs1_b24+0x18>
     3d8:	145012ef          	jal	x5,1d1c <failedtest_x5_x4>
     3dc:	000003cc          	.word	0x000003cc
     3e0:	0000489d          	.word	0x0000489d
     3e4:	00448493          	addi	x9,x9,4

# Testcase cp_rs1 (Test source rs1 = x25)
  RVTEST_TESTDATA_LOAD_INT(x29, x25) # load rs1: x25 = 0x8b5aa0b4
     3e8:	000eac83          	lw	x25,0(x29)
     3ec:	004e8e93          	addi	x29,x29,4

000003f0 <I_srli_cg_cp_rs1_b25>:
I_srli_cg_cp_rs1_b25:
  srli x18, x25, 12 # perform operation
     3f0:	00ccd913          	srli	x18,x25,0xc
  # Check if x18 contains the expected result. x9 is the signature ptr, x5 is the link ptr, x4 is a temp reg.
  RVTEST_SIGUPD(x9, x5, x4, x18, I_srli_cg_cp_rs1_b25, I_srli_cg_cp_rs1_b25_str)
     3f4:	0004a203          	lw	x4,0(x9)
     3f8:	01220863          	beq	x4,x18,408 <I_srli_cg_cp_rs1_b25+0x18>
     3fc:	121012ef          	jal	x5,1d1c <failedtest_x5_x4>
     400:	000003f0          	.word	0x000003f0
     404:	000048cd          	.word	0x000048cd
     408:	00448493          	addi	x9,x9,4

# Testcase cp_rs1 (Test source rs1 = x26)
  RVTEST_TESTDATA_LOAD_INT(x29, x26) # load rs1: x26 = 0x84421a03
     40c:	000ead03          	lw	x26,0(x29)
     410:	004e8e93          	addi	x29,x29,4

00000414 <I_srli_cg_cp_rs1_b26>:
I_srli_cg_cp_rs1_b26:
  srli x16, x26, 14 # perform operation
     414:	00ed5813          	srli	x16,x26,0xe
  # Check if x16 contains the expected result. x9 is the signature ptr, x5 is the link ptr, x4 is a temp reg.
  RVTEST_SIGUPD(x9, x5, x4, x16, I_srli_cg_cp_rs1_b26, I_srli_cg_cp_rs1_b26_str)
     418:	0004a203          	lw	x4,0(x9)
     41c:	01020863          	beq	x4,x16,42c <I_srli_cg_cp_rs1_b26+0x18>
     420:	0fd012ef          	jal	x5,1d1c <failedtest_x5_x4>
     424:	00000414          	.word	0x00000414
     428:	000048fd          	.word	0x000048fd
     42c:	00448493          	addi	x9,x9,4

# Testcase cp_rs1 (Test source rs1 = x27)
  RVTEST_TESTDATA_LOAD_INT(x29, x27) # load rs1: x27 = 0x5ff2ad0f
     430:	000ead83          	lw	x27,0(x29)
     434:	004e8e93          	addi	x29,x29,4

00000438 <I_srli_cg_cp_rs1_b27>:
I_srli_cg_cp_rs1_b27:
  srli x28, x27, 9 # perform operation
     438:	009dde13          	srli	x28,x27,0x9
  # Check if x28 contains the expected result. x9 is the signature ptr, x5 is the link ptr, x4 is a temp reg.
  RVTEST_SIGUPD(x9, x5, x4, x28, I_srli_cg_cp_rs1_b27, I_srli_cg_cp_rs1_b27_str)
     43c:	0004a203          	lw	x4,0(x9)
     440:	01c20863          	beq	x4,x28,450 <I_srli_cg_cp_rs1_b27+0x18>
     444:	0d9012ef          	jal	x5,1d1c <failedtest_x5_x4>
     448:	00000438          	.word	0x00000438
     44c:	0000492d          	.word	0x0000492d
     450:	00448493          	addi	x9,x9,4

# Testcase cp_rs1 (Test source rs1 = x28)
  RVTEST_TESTDATA_LOAD_INT(x29, x28) # load rs1: x28 = 0x1634ece9
     454:	000eae03          	lw	x28,0(x29)
     458:	004e8e93          	addi	x29,x29,4

0000045c <I_srli_cg_cp_rs1_b28>:
I_srli_cg_cp_rs1_b28:
  srli x27, x28, 25 # perform operation
     45c:	019e5d93          	srli	x27,x28,0x19
  # Check if x27 contains the expected result. x9 is the signature ptr, x5 is the link ptr, x4 is a temp reg.
  RVTEST_SIGUPD(x9, x5, x4, x27, I_srli_cg_cp_rs1_b28, I_srli_cg_cp_rs1_b28_str)
     460:	0004a203          	lw	x4,0(x9)
     464:	01b20863          	beq	x4,x27,474 <I_srli_cg_cp_rs1_b28+0x18>
     468:	0b5012ef          	jal	x5,1d1c <failedtest_x5_x4>
     46c:	0000045c          	.word	0x0000045c
     470:	0000495d          	.word	0x0000495d
     474:	00448493          	addi	x9,x9,4

  mv x22, x29 # switch data pointer register to avoid conflict with test
     478:	000e8b13          	addi	x22,x29,0
# Testcase cp_rs1 (Test source rs1 = x29)
  RVTEST_TESTDATA_LOAD_INT(x22, x29) # load rs1: x29 = 0x1bf93182
     47c:	000b2e83          	lw	x29,0(x22)
     480:	004b0b13          	addi	x22,x22,4

00000484 <I_srli_cg_cp_rs1_b29>:
I_srli_cg_cp_rs1_b29:
  srli x24, x29, 11 # perform operation
     484:	00bedc13          	srli	x24,x29,0xb
  # Check if x24 contains the expected result. x9 is the signature ptr, x5 is the link ptr, x4 is a temp reg.
  RVTEST_SIGUPD(x9, x5, x4, x24, I_srli_cg_cp_rs1_b29, I_srli_cg_cp_rs1_b29_str)
     488:	0004a203          	lw	x4,0(x9)
     48c:	01820863          	beq	x4,x24,49c <I_srli_cg_cp_rs1_b29+0x18>
     490:	08d012ef          	jal	x5,1d1c <failedtest_x5_x4>
     494:	00000484          	.word	0x00000484
     498:	0000498d          	.word	0x0000498d
     49c:	00448493          	addi	x9,x9,4

# Testcase cp_rs1 (Test source rs1 = x30)
  RVTEST_TESTDATA_LOAD_INT(x22, x30) # load rs1: x30 = 0x6b365503
     4a0:	000b2f03          	lw	x30,0(x22)
     4a4:	004b0b13          	addi	x22,x22,4

000004a8 <I_srli_cg_cp_rs1_b30>:
I_srli_cg_cp_rs1_b30:
  srli x25, x30, 17 # perform operation
     4a8:	011f5c93          	srli	x25,x30,0x11
  # Check if x25 contains the expected result. x9 is the signature ptr, x5 is the link ptr, x4 is a temp reg.
  RVTEST_SIGUPD(x9, x5, x4, x25, I_srli_cg_cp_rs1_b30, I_srli_cg_cp_rs1_b30_str)
     4ac:	0004a203          	lw	x4,0(x9)
     4b0:	01920863          	beq	x4,x25,4c0 <I_srli_cg_cp_rs1_b30+0x18>
     4b4:	069012ef          	jal	x5,1d1c <failedtest_x5_x4>
     4b8:	000004a8          	.word	0x000004a8
     4bc:	000049bd          	.word	0x000049bd
     4c0:	00448493          	addi	x9,x9,4

# Testcase cp_rs1 (Test source rs1 = x31)
  RVTEST_TESTDATA_LOAD_INT(x22, x31) # load rs1: x31 = 0x838b9f4c
     4c4:	000b2f83          	lw	x31,0(x22)
     4c8:	004b0b13          	addi	x22,x22,4

000004cc <I_srli_cg_cp_rs1_b31>:
I_srli_cg_cp_rs1_b31:
  srli x26, x31, 19 # perform operation
     4cc:	013fdd13          	srli	x26,x31,0x13
  # Check if x26 contains the expected result. x9 is the signature ptr, x5 is the link ptr, x4 is a temp reg.
  RVTEST_SIGUPD(x9, x5, x4, x26, I_srli_cg_cp_rs1_b31, I_srli_cg_cp_rs1_b31_str)
     4d0:	0004a203          	lw	x4,0(x9)
     4d4:	01a20863          	beq	x4,x26,4e4 <I_srli_cg_cp_rs1_b31+0x18>
     4d8:	045012ef          	jal	x5,1d1c <failedtest_x5_x4>
     4dc:	000004cc          	.word	0x000004cc
     4e0:	000049ed          	.word	0x000049ed
     4e4:	00448493          	addi	x9,x9,4
/////////////////////////////////
// cp_rd
/////////////////////////////////

# Testcase cp_rd (Test destination rd = x0)
  RVTEST_TESTDATA_LOAD_INT(x22, x8) # load rs1: x8 = 0x436a6d75
     4e8:	000b2403          	lw	x8,0(x22)
     4ec:	004b0b13          	addi	x22,x22,4

000004f0 <I_srli_cg_cp_rd_b0>:
I_srli_cg_cp_rd_b0:
  srli x0, x8, 16 # perform operation
     4f0:	01045013          	srli	x0,x8,0x10
  # Check if x0 contains the expected result. x9 is the signature ptr, x5 is the link ptr, x4 is a temp reg.
  RVTEST_SIGUPD(x9, x5, x4, x0, I_srli_cg_cp_rd_b0, I_srli_cg_cp_rd_b0_str)
     4f4:	0004a203          	lw	x4,0(x9)
     4f8:	00020863          	beq	x4,x0,508 <I_srli_cg_cp_rd_b0+0x18>
     4fc:	021012ef          	jal	x5,1d1c <failedtest_x5_x4>
     500:	000004f0          	.word	0x000004f0
     504:	00004a1d          	.word	0x00004a1d
     508:	00448493          	addi	x9,x9,4

# Testcase cp_rd (Test destination rd = x1)
  RVTEST_TESTDATA_LOAD_INT(x22, x18) # load rs1: x18 = 0x40bbd80c
     50c:	000b2903          	lw	x18,0(x22)
     510:	004b0b13          	addi	x22,x22,4

00000514 <I_srli_cg_cp_rd_b1>:
I_srli_cg_cp_rd_b1:
  srli x1, x18, 18 # perform operation
     514:	01295093          	srli	x1,x18,0x12
  # Check if x1 contains the expected result. x9 is the signature ptr, x5 is the link ptr, x4 is a temp reg.
  RVTEST_SIGUPD(x9, x5, x4, x1, I_srli_cg_cp_rd_b1, I_srli_cg_cp_rd_b1_str)
     518:	0004a203          	lw	x4,0(x9)
     51c:	00120863          	beq	x4,x1,52c <I_srli_cg_cp_rd_b1+0x18>
     520:	7fc012ef          	jal	x5,1d1c <failedtest_x5_x4>
     524:	00000514          	.word	0x00000514
     528:	00004a4b          	.word	0x00004a4b
     52c:	00448493          	addi	x9,x9,4

# Testcase cp_rd (Test destination rd = x2)
  RVTEST_TESTDATA_LOAD_INT(x22, x8) # load rs1: x8 = 0xbe4356e2
     530:	000b2403          	lw	x8,0(x22)
     534:	004b0b13          	addi	x22,x22,4

00000538 <I_srli_cg_cp_rd_b2>:
I_srli_cg_cp_rd_b2:
  srli x2, x8, 0 # perform operation
     538:	00045113          	srli	x2,x8,0x0
  # Check if x2 contains the expected result. x9 is the signature ptr, x5 is the link ptr, x4 is a temp reg.
  RVTEST_SIGUPD(x9, x5, x4, x2, I_srli_cg_cp_rd_b2, I_srli_cg_cp_rd_b2_str)
     53c:	0004a203          	lw	x4,0(x9)
     540:	00220863          	beq	x4,x2,550 <I_srli_cg_cp_rd_b2+0x18>
     544:	7d8012ef          	jal	x5,1d1c <failedtest_x5_x4>
     548:	00000538          	.word	0x00000538
     54c:	00004a79          	.word	0x00004a79
     550:	00448493          	addi	x9,x9,4

# Testcase cp_rd (Test destination rd = x3)
  RVTEST_TESTDATA_LOAD_INT(x22, x18) # load rs1: x18 = 0xd1ab32b0
     554:	000b2903          	lw	x18,0(x22)
     558:	004b0b13          	addi	x22,x22,4

0000055c <I_srli_cg_cp_rd_b3>:
I_srli_cg_cp_rd_b3:
  srli x3, x18, 10 # perform operation
     55c:	00a95193          	srli	x3,x18,0xa
  # Check if x3 contains the expected result. x9 is the signature ptr, x5 is the link ptr, x4 is a temp reg.
  RVTEST_SIGUPD(x9, x5, x4, x3, I_srli_cg_cp_rd_b3, I_srli_cg_cp_rd_b3_str)
     560:	0004a203          	lw	x4,0(x9)
     564:	00320863          	beq	x4,x3,574 <I_srli_cg_cp_rd_b3+0x18>
     568:	7b4012ef          	jal	x5,1d1c <failedtest_x5_x4>
     56c:	0000055c          	.word	0x0000055c
     570:	00004aa7          	.word	0x00004aa7
     574:	00448493          	addi	x9,x9,4

  mv x7, x4 # switch temp register to avoid conflict with test
     578:	00020393          	addi	x7,x4,0 # 0 <rvtest_entry_point>
  mv x8, x5 # switch link pointer register to avoid conflict with test
     57c:	00028413          	addi	x8,x5,0
# Testcase cp_rd (Test destination rd = x4)
  RVTEST_TESTDATA_LOAD_INT(x22, x28) # load rs1: x28 = 0x7d960b39
     580:	000b2e03          	lw	x28,0(x22)
     584:	004b0b13          	addi	x22,x22,4

00000588 <I_srli_cg_cp_rd_b4>:
I_srli_cg_cp_rd_b4:
  srli x4, x28, 17 # perform operation
     588:	011e5213          	srli	x4,x28,0x11
  # Check if x4 contains the expected result. x9 is the signature ptr, x8 is the link ptr, x7 is a temp reg.
  RVTEST_SIGUPD(x9, x8, x7, x4, I_srli_cg_cp_rd_b4, I_srli_cg_cp_rd_b4_str)
     58c:	0004a383          	lw	x7,0(x9)
     590:	00438863          	beq	x7,x4,5a0 <I_srli_cg_cp_rd_b4+0x18>
     594:	7a00146f          	jal	x8,1d34 <failedtest_x8_x7>
     598:	00000588          	.word	0x00000588
     59c:	00004ad5          	.word	0x00004ad5
     5a0:	00448493          	addi	x9,x9,4

# Testcase cp_rd (Test destination rd = x5)
  RVTEST_TESTDATA_LOAD_INT(x22, x23) # load rs1: x23 = 0xace53c35
     5a4:	000b2b83          	lw	x23,0(x22)
     5a8:	004b0b13          	addi	x22,x22,4

000005ac <I_srli_cg_cp_rd_b5>:
I_srli_cg_cp_rd_b5:
  srli x5, x23, 1 # perform operation
     5ac:	001bd293          	srli	x5,x23,0x1
  # Check if x5 contains the expected result. x9 is the signature ptr, x8 is the link ptr, x7 is a temp reg.
  RVTEST_SIGUPD(x9, x8, x7, x5, I_srli_cg_cp_rd_b5, I_srli_cg_cp_rd_b5_str)
     5b0:	0004a383          	lw	x7,0(x9)
     5b4:	00538863          	beq	x7,x5,5c4 <I_srli_cg_cp_rd_b5+0x18>
     5b8:	77c0146f          	jal	x8,1d34 <failedtest_x8_x7>
     5bc:	000005ac          	.word	0x000005ac
     5c0:	00004b03          	.word	0x00004b03
     5c4:	00448493          	addi	x9,x9,4

# Testcase cp_rd (Test destination rd = x6)
  RVTEST_TESTDATA_LOAD_INT(x22, x0) # load rs1: x0 = 0x5ff7299a
     5c8:	000b2003          	lw	x0,0(x22)
     5cc:	004b0b13          	addi	x22,x22,4

000005d0 <I_srli_cg_cp_rd_b6>:
I_srli_cg_cp_rd_b6:
  srli x6, x0, 19 # perform operation
     5d0:	01305313          	srli	x6,x0,0x13
  # Check if x6 contains the expected result. x9 is the signature ptr, x8 is the link ptr, x7 is a temp reg.
  RVTEST_SIGUPD(x9, x8, x7, x6, I_srli_cg_cp_rd_b6, I_srli_cg_cp_rd_b6_str)
     5d4:	0004a383          	lw	x7,0(x9)
     5d8:	00638863          	beq	x7,x6,5e8 <I_srli_cg_cp_rd_b6+0x18>
     5dc:	7580146f          	jal	x8,1d34 <failedtest_x8_x7>
     5e0:	000005d0          	.word	0x000005d0
     5e4:	00004b31          	.word	0x00004b31
     5e8:	00448493          	addi	x9,x9,4

  mv x4, x7 # switch temp register to avoid conflict with test
     5ec:	00038213          	addi	x4,x7,0
  mv x5, x8 # switch link pointer register to avoid conflict with test
     5f0:	00040293          	addi	x5,x8,0
# Testcase cp_rd (Test destination rd = x7)
  RVTEST_TESTDATA_LOAD_INT(x22, x11) # load rs1: x11 = 0xa6593b12
     5f4:	000b2583          	lw	x11,0(x22)
     5f8:	004b0b13          	addi	x22,x22,4

000005fc <I_srli_cg_cp_rd_b7>:
I_srli_cg_cp_rd_b7:
  srli x7, x11, 25 # perform operation
     5fc:	0195d393          	srli	x7,x11,0x19
  # Check if x7 contains the expected result. x9 is the signature ptr, x5 is the link ptr, x4 is a temp reg.
  RVTEST_SIGUPD(x9, x5, x4, x7, I_srli_cg_cp_rd_b7, I_srli_cg_cp_rd_b7_str)
     600:	0004a203          	lw	x4,0(x9)
     604:	00720863          	beq	x4,x7,614 <I_srli_cg_cp_rd_b7+0x18>
     608:	714012ef          	jal	x5,1d1c <failedtest_x5_x4>
     60c:	000005fc          	.word	0x000005fc
     610:	00004b5f          	.word	0x00004b5f
     614:	00448493          	addi	x9,x9,4

# Testcase cp_rd (Test destination rd = x8)
  RVTEST_TESTDATA_LOAD_INT(x22, x6) # load rs1: x6 = 0x00ccd1a9
     618:	000b2303          	lw	x6,0(x22)
     61c:	004b0b13          	addi	x22,x22,4

00000620 <I_srli_cg_cp_rd_b8>:
I_srli_cg_cp_rd_b8:
  srli x8, x6, 9 # perform operation
     620:	00935413          	srli	x8,x6,0x9
  # Check if x8 contains the expected result. x9 is the signature ptr, x5 is the link ptr, x4 is a temp reg.
  RVTEST_SIGUPD(x9, x5, x4, x8, I_srli_cg_cp_rd_b8, I_srli_cg_cp_rd_b8_str)
     624:	0004a203          	lw	x4,0(x9)
     628:	00820863          	beq	x4,x8,638 <I_srli_cg_cp_rd_b8+0x18>
     62c:	6f0012ef          	jal	x5,1d1c <failedtest_x5_x4>
     630:	00000620          	.word	0x00000620
     634:	00004b8d          	.word	0x00004b8d
     638:	00448493          	addi	x9,x9,4

  mv x28, x9 # switch signature pointer register to avoid conflict with test
     63c:	00048e13          	addi	x28,x9,0
# Testcase cp_rd (Test destination rd = x9)
  RVTEST_TESTDATA_LOAD_INT(x22, x12) # load rs1: x12 = 0x9ce03790
     640:	000b2603          	lw	x12,0(x22)
     644:	004b0b13          	addi	x22,x22,4

00000648 <I_srli_cg_cp_rd_b9>:
I_srli_cg_cp_rd_b9:
  srli x9, x12, 24 # perform operation
     648:	01865493          	srli	x9,x12,0x18
  # Check if x9 contains the expected result. x28 is the signature ptr, x5 is the link ptr, x4 is a temp reg.
  RVTEST_SIGUPD(x28, x5, x4, x9, I_srli_cg_cp_rd_b9, I_srli_cg_cp_rd_b9_str)
     64c:	000e2203          	lw	x4,0(x28)
     650:	00920863          	beq	x4,x9,660 <I_srli_cg_cp_rd_b9+0x18>
     654:	6c8012ef          	jal	x5,1d1c <failedtest_x5_x4>
     658:	00000648          	.word	0x00000648
     65c:	00004bbb          	.word	0x00004bbb
     660:	004e0e13          	addi	x28,x28,4

# Testcase cp_rd (Test destination rd = x10)
  RVTEST_TESTDATA_LOAD_INT(x22, x20) # load rs1: x20 = 0xbfb3c249
     664:	000b2a03          	lw	x20,0(x22)
     668:	004b0b13          	addi	x22,x22,4

0000066c <I_srli_cg_cp_rd_b10>:
I_srli_cg_cp_rd_b10:
  srli x10, x20, 7 # perform operation
     66c:	007a5513          	srli	x10,x20,0x7
  # Check if x10 contains the expected result. x28 is the signature ptr, x5 is the link ptr, x4 is a temp reg.
  RVTEST_SIGUPD(x28, x5, x4, x10, I_srli_cg_cp_rd_b10, I_srli_cg_cp_rd_b10_str)
     670:	000e2203          	lw	x4,0(x28)
     674:	00a20863          	beq	x4,x10,684 <I_srli_cg_cp_rd_b10+0x18>
     678:	6a4012ef          	jal	x5,1d1c <failedtest_x5_x4>
     67c:	0000066c          	.word	0x0000066c
     680:	00004be9          	.word	0x00004be9
     684:	004e0e13          	addi	x28,x28,4

# Testcase cp_rd (Test destination rd = x11)
  RVTEST_TESTDATA_LOAD_INT(x22, x16) # load rs1: x16 = 0xee88dca4
     688:	000b2803          	lw	x16,0(x22)
     68c:	004b0b13          	addi	x22,x22,4

00000690 <I_srli_cg_cp_rd_b11>:
I_srli_cg_cp_rd_b11:
  srli x11, x16, 24 # perform operation
     690:	01885593          	srli	x11,x16,0x18
  # Check if x11 contains the expected result. x28 is the signature ptr, x5 is the link ptr, x4 is a temp reg.
  RVTEST_SIGUPD(x28, x5, x4, x11, I_srli_cg_cp_rd_b11, I_srli_cg_cp_rd_b11_str)
     694:	000e2203          	lw	x4,0(x28)
     698:	00b20863          	beq	x4,x11,6a8 <I_srli_cg_cp_rd_b11+0x18>
     69c:	680012ef          	jal	x5,1d1c <failedtest_x5_x4>
     6a0:	00000690          	.word	0x00000690
     6a4:	00004c18          	.word	0x00004c18
     6a8:	004e0e13          	addi	x28,x28,4

# Testcase cp_rd (Test destination rd = x12)
  RVTEST_TESTDATA_LOAD_INT(x22, x10) # load rs1: x10 = 0x3b5a666f
     6ac:	000b2503          	lw	x10,0(x22)
     6b0:	004b0b13          	addi	x22,x22,4

000006b4 <I_srli_cg_cp_rd_b12>:
I_srli_cg_cp_rd_b12:
  srli x12, x10, 8 # perform operation
     6b4:	00855613          	srli	x12,x10,0x8
  # Check if x12 contains the expected result. x28 is the signature ptr, x5 is the link ptr, x4 is a temp reg.
  RVTEST_SIGUPD(x28, x5, x4, x12, I_srli_cg_cp_rd_b12, I_srli_cg_cp_rd_b12_str)
     6b8:	000e2203          	lw	x4,0(x28)
     6bc:	00c20863          	beq	x4,x12,6cc <I_srli_cg_cp_rd_b12+0x18>
     6c0:	65c012ef          	jal	x5,1d1c <failedtest_x5_x4>
     6c4:	000006b4          	.word	0x000006b4
     6c8:	00004c47          	.word	0x00004c47
     6cc:	004e0e13          	addi	x28,x28,4

# Testcase cp_rd (Test destination rd = x13)
  RVTEST_TESTDATA_LOAD_INT(x22, x16) # load rs1: x16 = 0x59e4c0a9
     6d0:	000b2803          	lw	x16,0(x22)
     6d4:	004b0b13          	addi	x22,x22,4

000006d8 <I_srli_cg_cp_rd_b13>:
I_srli_cg_cp_rd_b13:
  srli x13, x16, 30 # perform operation
     6d8:	01e85693          	srli	x13,x16,0x1e
  # Check if x13 contains the expected result. x28 is the signature ptr, x5 is the link ptr, x4 is a temp reg.
  RVTEST_SIGUPD(x28, x5, x4, x13, I_srli_cg_cp_rd_b13, I_srli_cg_cp_rd_b13_str)
     6dc:	000e2203          	lw	x4,0(x28)
     6e0:	00d20863          	beq	x4,x13,6f0 <I_srli_cg_cp_rd_b13+0x18>
     6e4:	638012ef          	jal	x5,1d1c <failedtest_x5_x4>
     6e8:	000006d8          	.word	0x000006d8
     6ec:	00004c76          	.word	0x00004c76
     6f0:	004e0e13          	addi	x28,x28,4

# Testcase cp_rd (Test destination rd = x14)
  RVTEST_TESTDATA_LOAD_INT(x22, x15) # load rs1: x15 = 0x9abb0dee
     6f4:	000b2783          	lw	x15,0(x22)
     6f8:	004b0b13          	addi	x22,x22,4

000006fc <I_srli_cg_cp_rd_b14>:
I_srli_cg_cp_rd_b14:
  srli x14, x15, 31 # perform operation
     6fc:	01f7d713          	srli	x14,x15,0x1f
  # Check if x14 contains the expected result. x28 is the signature ptr, x5 is the link ptr, x4 is a temp reg.
  RVTEST_SIGUPD(x28, x5, x4, x14, I_srli_cg_cp_rd_b14, I_srli_cg_cp_rd_b14_str)
     700:	000e2203          	lw	x4,0(x28)
     704:	00e20863          	beq	x4,x14,714 <I_srli_cg_cp_rd_b14+0x18>
     708:	614012ef          	jal	x5,1d1c <failedtest_x5_x4>
     70c:	000006fc          	.word	0x000006fc
     710:	00004ca5          	.word	0x00004ca5
     714:	004e0e13          	addi	x28,x28,4

# Testcase cp_rd (Test destination rd = x15)
  RVTEST_TESTDATA_LOAD_INT(x22, x11) # load rs1: x11 = 0x1103fb2f
     718:	000b2583          	lw	x11,0(x22)
     71c:	004b0b13          	addi	x22,x22,4

00000720 <I_srli_cg_cp_rd_b15>:
I_srli_cg_cp_rd_b15:
  srli x15, x11, 17 # perform operation
     720:	0115d793          	srli	x15,x11,0x11
  # Check if x15 contains the expected result. x28 is the signature ptr, x5 is the link ptr, x4 is a temp reg.
  RVTEST_SIGUPD(x28, x5, x4, x15, I_srli_cg_cp_rd_b15, I_srli_cg_cp_rd_b15_str)
     724:	000e2203          	lw	x4,0(x28)
     728:	00f20863          	beq	x4,x15,738 <I_srli_cg_cp_rd_b15+0x18>
     72c:	5f0012ef          	jal	x5,1d1c <failedtest_x5_x4>
     730:	00000720          	.word	0x00000720
     734:	00004cd4          	.word	0x00004cd4
     738:	004e0e13          	addi	x28,x28,4

# Testcase cp_rd (Test destination rd = x16)
  RVTEST_TESTDATA_LOAD_INT(x22, x13) # load rs1: x13 = 0xd0339fb8
     73c:	000b2683          	lw	x13,0(x22)
     740:	004b0b13          	addi	x22,x22,4

00000744 <I_srli_cg_cp_rd_b16>:
I_srli_cg_cp_rd_b16:
  srli x16, x13, 8 # perform operation
     744:	0086d813          	srli	x16,x13,0x8
  # Check if x16 contains the expected result. x28 is the signature ptr, x5 is the link ptr, x4 is a temp reg.
  RVTEST_SIGUPD(x28, x5, x4, x16, I_srli_cg_cp_rd_b16, I_srli_cg_cp_rd_b16_str)
     748:	000e2203          	lw	x4,0(x28)
     74c:	01020863          	beq	x4,x16,75c <I_srli_cg_cp_rd_b16+0x18>
     750:	5cc012ef          	jal	x5,1d1c <failedtest_x5_x4>
     754:	00000744          	.word	0x00000744
     758:	00004d03          	.word	0x00004d03
     75c:	004e0e13          	addi	x28,x28,4

# Testcase cp_rd (Test destination rd = x17)
  RVTEST_TESTDATA_LOAD_INT(x22, x9) # load rs1: x9 = 0xf987fe73
     760:	000b2483          	lw	x9,0(x22)
     764:	004b0b13          	addi	x22,x22,4

00000768 <I_srli_cg_cp_rd_b17>:
I_srli_cg_cp_rd_b17:
  srli x17, x9, 28 # perform operation
     768:	01c4d893          	srli	x17,x9,0x1c
  # Check if x17 contains the expected result. x28 is the signature ptr, x5 is the link ptr, x4 is a temp reg.
  RVTEST_SIGUPD(x28, x5, x4, x17, I_srli_cg_cp_rd_b17, I_srli_cg_cp_rd_b17_str)
     76c:	000e2203          	lw	x4,0(x28)
     770:	01120863          	beq	x4,x17,780 <I_srli_cg_cp_rd_b17+0x18>
     774:	5a8012ef          	jal	x5,1d1c <failedtest_x5_x4>
     778:	00000768          	.word	0x00000768
     77c:	00004d32          	.word	0x00004d32
     780:	004e0e13          	addi	x28,x28,4

# Testcase cp_rd (Test destination rd = x18)
  RVTEST_TESTDATA_LOAD_INT(x22, x2) # load rs1: x2 = 0x8f97ed80
     784:	000b2103          	lw	x2,0(x22)
     788:	004b0b13          	addi	x22,x22,4

0000078c <I_srli_cg_cp_rd_b18>:
I_srli_cg_cp_rd_b18:
  srli x18, x2, 16 # perform operation
     78c:	01015913          	srli	x18,x2,0x10
  # Check if x18 contains the expected result. x28 is the signature ptr, x5 is the link ptr, x4 is a temp reg.
  RVTEST_SIGUPD(x28, x5, x4, x18, I_srli_cg_cp_rd_b18, I_srli_cg_cp_rd_b18_str)
     790:	000e2203          	lw	x4,0(x28)
     794:	01220863          	beq	x4,x18,7a4 <I_srli_cg_cp_rd_b18+0x18>
     798:	584012ef          	jal	x5,1d1c <failedtest_x5_x4>
     79c:	0000078c          	.word	0x0000078c
     7a0:	00004d61          	.word	0x00004d61
     7a4:	004e0e13          	addi	x28,x28,4

# Testcase cp_rd (Test destination rd = x19)
  RVTEST_TESTDATA_LOAD_INT(x22, x30) # load rs1: x30 = 0xe071e0ee
     7a8:	000b2f03          	lw	x30,0(x22)
     7ac:	004b0b13          	addi	x22,x22,4

000007b0 <I_srli_cg_cp_rd_b19>:
I_srli_cg_cp_rd_b19:
  srli x19, x30, 19 # perform operation
     7b0:	013f5993          	srli	x19,x30,0x13
  # Check if x19 contains the expected result. x28 is the signature ptr, x5 is the link ptr, x4 is a temp reg.
  RVTEST_SIGUPD(x28, x5, x4, x19, I_srli_cg_cp_rd_b19, I_srli_cg_cp_rd_b19_str)
     7b4:	000e2203          	lw	x4,0(x28)
     7b8:	01320863          	beq	x4,x19,7c8 <I_srli_cg_cp_rd_b19+0x18>
     7bc:	560012ef          	jal	x5,1d1c <failedtest_x5_x4>
     7c0:	000007b0          	.word	0x000007b0
     7c4:	00004d90          	.word	0x00004d90
     7c8:	004e0e13          	addi	x28,x28,4

# Testcase cp_rd (Test destination rd = x20)
  RVTEST_TESTDATA_LOAD_INT(x22, x1) # load rs1: x1 = 0x8813dccb
     7cc:	000b2083          	lw	x1,0(x22)
     7d0:	004b0b13          	addi	x22,x22,4

000007d4 <I_srli_cg_cp_rd_b20>:
I_srli_cg_cp_rd_b20:
  srli x20, x1, 10 # perform operation
     7d4:	00a0da13          	srli	x20,x1,0xa
  # Check if x20 contains the expected result. x28 is the signature ptr, x5 is the link ptr, x4 is a temp reg.
  RVTEST_SIGUPD(x28, x5, x4, x20, I_srli_cg_cp_rd_b20, I_srli_cg_cp_rd_b20_str)
     7d8:	000e2203          	lw	x4,0(x28)
     7dc:	01420863          	beq	x4,x20,7ec <I_srli_cg_cp_rd_b20+0x18>
     7e0:	53c012ef          	jal	x5,1d1c <failedtest_x5_x4>
     7e4:	000007d4          	.word	0x000007d4
     7e8:	00004dbf          	.word	0x00004dbf
     7ec:	004e0e13          	addi	x28,x28,4

# Testcase cp_rd (Test destination rd = x21)
  RVTEST_TESTDATA_LOAD_INT(x22, x7) # load rs1: x7 = 0x9dc81522
     7f0:	000b2383          	lw	x7,0(x22)
     7f4:	004b0b13          	addi	x22,x22,4

000007f8 <I_srli_cg_cp_rd_b21>:
I_srli_cg_cp_rd_b21:
  srli x21, x7, 24 # perform operation
     7f8:	0183da93          	srli	x21,x7,0x18
  # Check if x21 contains the expected result. x28 is the signature ptr, x5 is the link ptr, x4 is a temp reg.
  RVTEST_SIGUPD(x28, x5, x4, x21, I_srli_cg_cp_rd_b21, I_srli_cg_cp_rd_b21_str)
     7fc:	000e2203          	lw	x4,0(x28)
     800:	01520863          	beq	x4,x21,810 <I_srli_cg_cp_rd_b21+0x18>
     804:	518012ef          	jal	x5,1d1c <failedtest_x5_x4>
     808:	000007f8          	.word	0x000007f8
     80c:	00004dee          	.word	0x00004dee
     810:	004e0e13          	addi	x28,x28,4

  mv x30, x22 # switch data pointer register to avoid conflict with test
     814:	000b0f13          	addi	x30,x22,0
# Testcase cp_rd (Test destination rd = x22)
  RVTEST_TESTDATA_LOAD_INT(x30, x23) # load rs1: x23 = 0x4055f943
     818:	000f2b83          	lw	x23,0(x30)
     81c:	004f0f13          	addi	x30,x30,4

00000820 <I_srli_cg_cp_rd_b22>:
I_srli_cg_cp_rd_b22:
  srli x22, x23, 7 # perform operation
     820:	007bdb13          	srli	x22,x23,0x7
  # Check if x22 contains the expected result. x28 is the signature ptr, x5 is the link ptr, x4 is a temp reg.
  RVTEST_SIGUPD(x28, x5, x4, x22, I_srli_cg_cp_rd_b22, I_srli_cg_cp_rd_b22_str)
     824:	000e2203          	lw	x4,0(x28)
     828:	01620863          	beq	x4,x22,838 <I_srli_cg_cp_rd_b22+0x18>
     82c:	4f0012ef          	jal	x5,1d1c <failedtest_x5_x4>
     830:	00000820          	.word	0x00000820
     834:	00004e1d          	.word	0x00004e1d
     838:	004e0e13          	addi	x28,x28,4

# Testcase cp_rd (Test destination rd = x23)
  RVTEST_TESTDATA_LOAD_INT(x30, x0) # load rs1: x0 = 0xadd90937
     83c:	000f2003          	lw	x0,0(x30)
     840:	004f0f13          	addi	x30,x30,4

00000844 <I_srli_cg_cp_rd_b23>:
I_srli_cg_cp_rd_b23:
  srli x23, x0, 1 # perform operation
     844:	00105b93          	srli	x23,x0,0x1
  # Check if x23 contains the expected result. x28 is the signature ptr, x5 is the link ptr, x4 is a temp reg.
  RVTEST_SIGUPD(x28, x5, x4, x23, I_srli_cg_cp_rd_b23, I_srli_cg_cp_rd_b23_str)
     848:	000e2203          	lw	x4,0(x28)
     84c:	01720863          	beq	x4,x23,85c <I_srli_cg_cp_rd_b23+0x18>
     850:	4cc012ef          	jal	x5,1d1c <failedtest_x5_x4>
     854:	00000844          	.word	0x00000844
     858:	00004e4c          	.word	0x00004e4c
     85c:	004e0e13          	addi	x28,x28,4

# Testcase cp_rd (Test destination rd = x24)
  RVTEST_TESTDATA_LOAD_INT(x30, x19) # load rs1: x19 = 0xc965a0fb
     860:	000f2983          	lw	x19,0(x30)
     864:	004f0f13          	addi	x30,x30,4

00000868 <I_srli_cg_cp_rd_b24>:
I_srli_cg_cp_rd_b24:
  srli x24, x19, 26 # perform operation
     868:	01a9dc13          	srli	x24,x19,0x1a
  # Check if x24 contains the expected result. x28 is the signature ptr, x5 is the link ptr, x4 is a temp reg.
  RVTEST_SIGUPD(x28, x5, x4, x24, I_srli_cg_cp_rd_b24, I_srli_cg_cp_rd_b24_str)
     86c:	000e2203          	lw	x4,0(x28)
     870:	01820863          	beq	x4,x24,880 <I_srli_cg_cp_rd_b24+0x18>
     874:	4a8012ef          	jal	x5,1d1c <failedtest_x5_x4>
     878:	00000868          	.word	0x00000868
     87c:	00004e7b          	.word	0x00004e7b
     880:	004e0e13          	addi	x28,x28,4

# Testcase cp_rd (Test destination rd = x25)
  RVTEST_TESTDATA_LOAD_INT(x30, x2) # load rs1: x2 = 0x7b2939ec
     884:	000f2103          	lw	x2,0(x30)
     888:	004f0f13          	addi	x30,x30,4

0000088c <I_srli_cg_cp_rd_b25>:
I_srli_cg_cp_rd_b25:
  srli x25, x2, 4 # perform operation
     88c:	00415c93          	srli	x25,x2,0x4
  # Check if x25 contains the expected result. x28 is the signature ptr, x5 is the link ptr, x4 is a temp reg.
  RVTEST_SIGUPD(x28, x5, x4, x25, I_srli_cg_cp_rd_b25, I_srli_cg_cp_rd_b25_str)
     890:	000e2203          	lw	x4,0(x28)
     894:	01920863          	beq	x4,x25,8a4 <I_srli_cg_cp_rd_b25+0x18>
     898:	484012ef          	jal	x5,1d1c <failedtest_x5_x4>
     89c:	0000088c          	.word	0x0000088c
     8a0:	00004eaa          	.word	0x00004eaa
     8a4:	004e0e13          	addi	x28,x28,4

# Testcase cp_rd (Test destination rd = x26)
  RVTEST_TESTDATA_LOAD_INT(x30, x12) # load rs1: x12 = 0x7154ad4f
     8a8:	000f2603          	lw	x12,0(x30)
     8ac:	004f0f13          	addi	x30,x30,4

000008b0 <I_srli_cg_cp_rd_b26>:
I_srli_cg_cp_rd_b26:
  srli x26, x12, 24 # perform operation
     8b0:	01865d13          	srli	x26,x12,0x18
  # Check if x26 contains the expected result. x28 is the signature ptr, x5 is the link ptr, x4 is a temp reg.
  RVTEST_SIGUPD(x28, x5, x4, x26, I_srli_cg_cp_rd_b26, I_srli_cg_cp_rd_b26_str)
     8b4:	000e2203          	lw	x4,0(x28)
     8b8:	01a20863          	beq	x4,x26,8c8 <I_srli_cg_cp_rd_b26+0x18>
     8bc:	460012ef          	jal	x5,1d1c <failedtest_x5_x4>
     8c0:	000008b0          	.word	0x000008b0
     8c4:	00004ed9          	.word	0x00004ed9
     8c8:	004e0e13          	addi	x28,x28,4

# Testcase cp_rd (Test destination rd = x27)
  RVTEST_TESTDATA_LOAD_INT(x30, x23) # load rs1: x23 = 0x94f1f027
     8cc:	000f2b83          	lw	x23,0(x30)
     8d0:	004f0f13          	addi	x30,x30,4

000008d4 <I_srli_cg_cp_rd_b27>:
I_srli_cg_cp_rd_b27:
  srli x27, x23, 29 # perform operation
     8d4:	01dbdd93          	srli	x27,x23,0x1d
  # Check if x27 contains the expected result. x28 is the signature ptr, x5 is the link ptr, x4 is a temp reg.
  RVTEST_SIGUPD(x28, x5, x4, x27, I_srli_cg_cp_rd_b27, I_srli_cg_cp_rd_b27_str)
     8d8:	000e2203          	lw	x4,0(x28)
     8dc:	01b20863          	beq	x4,x27,8ec <I_srli_cg_cp_rd_b27+0x18>
     8e0:	43c012ef          	jal	x5,1d1c <failedtest_x5_x4>
     8e4:	000008d4          	.word	0x000008d4
     8e8:	00004f08          	.word	0x00004f08
     8ec:	004e0e13          	addi	x28,x28,4

  mv x20, x28 # switch signature pointer register to avoid conflict with test
     8f0:	000e0a13          	addi	x20,x28,0
# Testcase cp_rd (Test destination rd = x28)
  RVTEST_TESTDATA_LOAD_INT(x30, x16) # load rs1: x16 = 0x89e91282
     8f4:	000f2803          	lw	x16,0(x30)
     8f8:	004f0f13          	addi	x30,x30,4

000008fc <I_srli_cg_cp_rd_b28>:
I_srli_cg_cp_rd_b28:
  srli x28, x16, 26 # perform operation
     8fc:	01a85e13          	srli	x28,x16,0x1a
  # Check if x28 contains the expected result. x20 is the signature ptr, x5 is the link ptr, x4 is a temp reg.
  RVTEST_SIGUPD(x20, x5, x4, x28, I_srli_cg_cp_rd_b28, I_srli_cg_cp_rd_b28_str)
     900:	000a2203          	lw	x4,0(x20)
     904:	01c20863          	beq	x4,x28,914 <I_srli_cg_cp_rd_b28+0x18>
     908:	414012ef          	jal	x5,1d1c <failedtest_x5_x4>
     90c:	000008fc          	.word	0x000008fc
     910:	00004f37          	.word	0x00004f37
     914:	004a0a13          	addi	x20,x20,4

# Testcase cp_rd (Test destination rd = x29)
  RVTEST_TESTDATA_LOAD_INT(x30, x11) # load rs1: x11 = 0xbaf815c6
     918:	000f2583          	lw	x11,0(x30)
     91c:	004f0f13          	addi	x30,x30,4

00000920 <I_srli_cg_cp_rd_b29>:
I_srli_cg_cp_rd_b29:
  srli x29, x11, 25 # perform operation
     920:	0195de93          	srli	x29,x11,0x19
  # Check if x29 contains the expected result. x20 is the signature ptr, x5 is the link ptr, x4 is a temp reg.
  RVTEST_SIGUPD(x20, x5, x4, x29, I_srli_cg_cp_rd_b29, I_srli_cg_cp_rd_b29_str)
     924:	000a2203          	lw	x4,0(x20)
     928:	01d20863          	beq	x4,x29,938 <I_srli_cg_cp_rd_b29+0x18>
     92c:	3f0012ef          	jal	x5,1d1c <failedtest_x5_x4>
     930:	00000920          	.word	0x00000920
     934:	00004f66          	.word	0x00004f66
     938:	004a0a13          	addi	x20,x20,4

  mv x11, x30 # switch data pointer register to avoid conflict with test
     93c:	000f0593          	addi	x11,x30,0
# Testcase cp_rd (Test destination rd = x30)
  RVTEST_TESTDATA_LOAD_INT(x11, x29) # load rs1: x29 = 0x3165519d
     940:	0005ae83          	lw	x29,0(x11)
     944:	00458593          	addi	x11,x11,4

00000948 <I_srli_cg_cp_rd_b30>:
I_srli_cg_cp_rd_b30:
  srli x30, x29, 5 # perform operation
     948:	005edf13          	srli	x30,x29,0x5
  # Check if x30 contains the expected result. x20 is the signature ptr, x5 is the link ptr, x4 is a temp reg.
  RVTEST_SIGUPD(x20, x5, x4, x30, I_srli_cg_cp_rd_b30, I_srli_cg_cp_rd_b30_str)
     94c:	000a2203          	lw	x4,0(x20)
     950:	01e20863          	beq	x4,x30,960 <I_srli_cg_cp_rd_b30+0x18>
     954:	3c8012ef          	jal	x5,1d1c <failedtest_x5_x4>
     958:	00000948          	.word	0x00000948
     95c:	00004f95          	.word	0x00004f95
     960:	004a0a13          	addi	x20,x20,4

# Testcase cp_rd (Test destination rd = x31)
  RVTEST_TESTDATA_LOAD_INT(x11, x23) # load rs1: x23 = 0x58f934cf
     964:	0005ab83          	lw	x23,0(x11)
     968:	00458593          	addi	x11,x11,4

0000096c <I_srli_cg_cp_rd_b31>:
I_srli_cg_cp_rd_b31:
  srli x31, x23, 26 # perform operation
     96c:	01abdf93          	srli	x31,x23,0x1a
  # Check if x31 contains the expected result. x20 is the signature ptr, x5 is the link ptr, x4 is a temp reg.
  RVTEST_SIGUPD(x20, x5, x4, x31, I_srli_cg_cp_rd_b31, I_srli_cg_cp_rd_b31_str)
     970:	000a2203          	lw	x4,0(x20)
     974:	01f20863          	beq	x4,x31,984 <I_srli_cg_cp_rd_b31+0x18>
     978:	3a4012ef          	jal	x5,1d1c <failedtest_x5_x4>
     97c:	0000096c          	.word	0x0000096c
     980:	00004fc4          	.word	0x00004fc4
     984:	004a0a13          	addi	x20,x20,4
/////////////////////////////////
// cp_rs1_edges
/////////////////////////////////

# Testcase cp_rs1_edges (Test source rs1 value = 0x00000000)
  RVTEST_TESTDATA_LOAD_INT(x11, x14) # load rs1: x14 = 0x00000000
     988:	0005a703          	lw	x14,0(x11)
     98c:	00458593          	addi	x11,x11,4

00000990 <I_srli_cg_cp_rs1_edges_0x0>:
I_srli_cg_cp_rs1_edges_0x0:
  srli x6, x14, 0 # perform operation
     990:	00075313          	srli	x6,x14,0x0
  # Check if x6 contains the expected result. x20 is the signature ptr, x5 is the link ptr, x4 is a temp reg.
  RVTEST_SIGUPD(x20, x5, x4, x6, I_srli_cg_cp_rs1_edges_0x0, I_srli_cg_cp_rs1_edges_0x0_str)
     994:	000a2203          	lw	x4,0(x20)
     998:	00620863          	beq	x4,x6,9a8 <I_srli_cg_cp_rs1_edges_0x0+0x18>
     99c:	380012ef          	jal	x5,1d1c <failedtest_x5_x4>
     9a0:	00000990          	.word	0x00000990
     9a4:	00004ff3          	.word	0x00004ff3
     9a8:	004a0a13          	addi	x20,x20,4

# Testcase cp_rs1_edges (Test source rs1 value = 0x00000001)
  RVTEST_TESTDATA_LOAD_INT(x11, x8) # load rs1: x8 = 0x00000001
     9ac:	0005a403          	lw	x8,0(x11)
     9b0:	00458593          	addi	x11,x11,4

000009b4 <I_srli_cg_cp_rs1_edges_0x1>:
I_srli_cg_cp_rs1_edges_0x1:
  srli x26, x8, 11 # perform operation
     9b4:	00b45d13          	srli	x26,x8,0xb
  # Check if x26 contains the expected result. x20 is the signature ptr, x5 is the link ptr, x4 is a temp reg.
  RVTEST_SIGUPD(x20, x5, x4, x26, I_srli_cg_cp_rs1_edges_0x1, I_srli_cg_cp_rs1_edges_0x1_str)
     9b8:	000a2203          	lw	x4,0(x20)
     9bc:	01a20863          	beq	x4,x26,9cc <I_srli_cg_cp_rs1_edges_0x1+0x18>
     9c0:	35c012ef          	jal	x5,1d1c <failedtest_x5_x4>
     9c4:	000009b4          	.word	0x000009b4
     9c8:	00005029          	.word	0x00005029
     9cc:	004a0a13          	addi	x20,x20,4

# Testcase cp_rs1_edges (Test source rs1 value = 0x00000002)
  RVTEST_TESTDATA_LOAD_INT(x11, x30) # load rs1: x30 = 0x00000002
     9d0:	0005af03          	lw	x30,0(x11)
     9d4:	00458593          	addi	x11,x11,4

000009d8 <I_srli_cg_cp_rs1_edges_0x2>:
I_srli_cg_cp_rs1_edges_0x2:
  srli x18, x30, 31 # perform operation
     9d8:	01ff5913          	srli	x18,x30,0x1f
  # Check if x18 contains the expected result. x20 is the signature ptr, x5 is the link ptr, x4 is a temp reg.
  RVTEST_SIGUPD(x20, x5, x4, x18, I_srli_cg_cp_rs1_edges_0x2, I_srli_cg_cp_rs1_edges_0x2_str)
     9dc:	000a2203          	lw	x4,0(x20)
     9e0:	01220863          	beq	x4,x18,9f0 <I_srli_cg_cp_rs1_edges_0x2+0x18>
     9e4:	338012ef          	jal	x5,1d1c <failedtest_x5_x4>
     9e8:	000009d8          	.word	0x000009d8
     9ec:	0000505f          	.word	0x0000505f
     9f0:	004a0a13          	addi	x20,x20,4

# Testcase cp_rs1_edges (Test source rs1 value = 0x80000000)
  RVTEST_TESTDATA_LOAD_INT(x11, x25) # load rs1: x25 = 0x80000000
     9f4:	0005ac83          	lw	x25,0(x11)
     9f8:	00458593          	addi	x11,x11,4

000009fc <I_srli_cg_cp_rs1_edges_0x80000000>:
I_srli_cg_cp_rs1_edges_0x80000000:
  srli x7, x25, 15 # perform operation
     9fc:	00fcd393          	srli	x7,x25,0xf
  # Check if x7 contains the expected result. x20 is the signature ptr, x5 is the link ptr, x4 is a temp reg.
  RVTEST_SIGUPD(x20, x5, x4, x7, I_srli_cg_cp_rs1_edges_0x80000000, I_srli_cg_cp_rs1_edges_0x80000000_str)
     a00:	000a2203          	lw	x4,0(x20)
     a04:	00720863          	beq	x4,x7,a14 <I_srli_cg_cp_rs1_edges_0x80000000+0x18>
     a08:	314012ef          	jal	x5,1d1c <failedtest_x5_x4>
     a0c:	000009fc          	.word	0x000009fc
     a10:	00005095          	.word	0x00005095
     a14:	004a0a13          	addi	x20,x20,4

# Testcase cp_rs1_edges (Test source rs1 value = 0x80000001)
  RVTEST_TESTDATA_LOAD_INT(x11, x9) # load rs1: x9 = 0x80000001
     a18:	0005a483          	lw	x9,0(x11)
     a1c:	00458593          	addi	x11,x11,4

00000a20 <I_srli_cg_cp_rs1_edges_0x80000001>:
I_srli_cg_cp_rs1_edges_0x80000001:
  srli x24, x9, 20 # perform operation
     a20:	0144dc13          	srli	x24,x9,0x14
  # Check if x24 contains the expected result. x20 is the signature ptr, x5 is the link ptr, x4 is a temp reg.
  RVTEST_SIGUPD(x20, x5, x4, x24, I_srli_cg_cp_rs1_edges_0x80000001, I_srli_cg_cp_rs1_edges_0x80000001_str)
     a24:	000a2203          	lw	x4,0(x20)
     a28:	01820863          	beq	x4,x24,a38 <I_srli_cg_cp_rs1_edges_0x80000001+0x18>
     a2c:	2f0012ef          	jal	x5,1d1c <failedtest_x5_x4>
     a30:	00000a20          	.word	0x00000a20
     a34:	000050d2          	.word	0x000050d2
     a38:	004a0a13          	addi	x20,x20,4

# Testcase cp_rs1_edges (Test source rs1 value = 0x7fffffff)
  RVTEST_TESTDATA_LOAD_INT(x11, x23) # load rs1: x23 = 0x7fffffff
     a3c:	0005ab83          	lw	x23,0(x11)
     a40:	00458593          	addi	x11,x11,4

00000a44 <I_srli_cg_cp_rs1_edges_0x7fffffff>:
I_srli_cg_cp_rs1_edges_0x7fffffff:
  srli x29, x23, 1 # perform operation
     a44:	001bde93          	srli	x29,x23,0x1
  # Check if x29 contains the expected result. x20 is the signature ptr, x5 is the link ptr, x4 is a temp reg.
  RVTEST_SIGUPD(x20, x5, x4, x29, I_srli_cg_cp_rs1_edges_0x7fffffff, I_srli_cg_cp_rs1_edges_0x7fffffff_str)
     a48:	000a2203          	lw	x4,0(x20)
     a4c:	01d20863          	beq	x4,x29,a5c <I_srli_cg_cp_rs1_edges_0x7fffffff+0x18>
     a50:	2cc012ef          	jal	x5,1d1c <failedtest_x5_x4>
     a54:	00000a44          	.word	0x00000a44
     a58:	0000510f          	.word	0x0000510f
     a5c:	004a0a13          	addi	x20,x20,4

# Testcase cp_rs1_edges (Test source rs1 value = 0x7ffffffe)
  RVTEST_TESTDATA_LOAD_INT(x11, x6) # load rs1: x6 = 0x7ffffffe
     a60:	0005a303          	lw	x6,0(x11)
     a64:	00458593          	addi	x11,x11,4

00000a68 <I_srli_cg_cp_rs1_edges_0x7ffffffe>:
I_srli_cg_cp_rs1_edges_0x7ffffffe:
  srli x18, x6, 9 # perform operation
     a68:	00935913          	srli	x18,x6,0x9
  # Check if x18 contains the expected result. x20 is the signature ptr, x5 is the link ptr, x4 is a temp reg.
  RVTEST_SIGUPD(x20, x5, x4, x18, I_srli_cg_cp_rs1_edges_0x7ffffffe, I_srli_cg_cp_rs1_edges_0x7ffffffe_str)
     a6c:	000a2203          	lw	x4,0(x20)
     a70:	01220863          	beq	x4,x18,a80 <I_srli_cg_cp_rs1_edges_0x7ffffffe+0x18>
     a74:	2a8012ef          	jal	x5,1d1c <failedtest_x5_x4>
     a78:	00000a68          	.word	0x00000a68
     a7c:	0000514c          	.word	0x0000514c
     a80:	004a0a13          	addi	x20,x20,4

# Testcase cp_rs1_edges (Test source rs1 value = 0xffffffff)
  RVTEST_TESTDATA_LOAD_INT(x11, x3) # load rs1: x3 = 0xffffffff
     a84:	0005a183          	lw	x3,0(x11)
     a88:	00458593          	addi	x11,x11,4

00000a8c <I_srli_cg_cp_rs1_edges_0xffffffff>:
I_srli_cg_cp_rs1_edges_0xffffffff:
  srli x17, x3, 17 # perform operation
     a8c:	0111d893          	srli	x17,x3,0x11
  # Check if x17 contains the expected result. x20 is the signature ptr, x5 is the link ptr, x4 is a temp reg.
  RVTEST_SIGUPD(x20, x5, x4, x17, I_srli_cg_cp_rs1_edges_0xffffffff, I_srli_cg_cp_rs1_edges_0xffffffff_str)
     a90:	000a2203          	lw	x4,0(x20)
     a94:	01120863          	beq	x4,x17,aa4 <I_srli_cg_cp_rs1_edges_0xffffffff+0x18>
     a98:	284012ef          	jal	x5,1d1c <failedtest_x5_x4>
     a9c:	00000a8c          	.word	0x00000a8c
     aa0:	00005189          	.word	0x00005189
     aa4:	004a0a13          	addi	x20,x20,4

# Testcase cp_rs1_edges (Test source rs1 value = 0xfffffffe)
  RVTEST_TESTDATA_LOAD_INT(x11, x15) # load rs1: x15 = 0xfffffffe
     aa8:	0005a783          	lw	x15,0(x11)
     aac:	00458593          	addi	x11,x11,4

00000ab0 <I_srli_cg_cp_rs1_edges_0xfffffffe>:
I_srli_cg_cp_rs1_edges_0xfffffffe:
  srli x2, x15, 22 # perform operation
     ab0:	0167d113          	srli	x2,x15,0x16
  # Check if x2 contains the expected result. x20 is the signature ptr, x5 is the link ptr, x4 is a temp reg.
  RVTEST_SIGUPD(x20, x5, x4, x2, I_srli_cg_cp_rs1_edges_0xfffffffe, I_srli_cg_cp_rs1_edges_0xfffffffe_str)
     ab4:	000a2203          	lw	x4,0(x20)
     ab8:	00220863          	beq	x4,x2,ac8 <I_srli_cg_cp_rs1_edges_0xfffffffe+0x18>
     abc:	260012ef          	jal	x5,1d1c <failedtest_x5_x4>
     ac0:	00000ab0          	.word	0x00000ab0
     ac4:	000051c6          	.word	0x000051c6
     ac8:	004a0a13          	addi	x20,x20,4

# Testcase cp_rs1_edges (Test source rs1 value = 0x5bbc8872)
  RVTEST_TESTDATA_LOAD_INT(x11, x18) # load rs1: x18 = 0x5bbc8872
     acc:	0005a903          	lw	x18,0(x11)
     ad0:	00458593          	addi	x11,x11,4

00000ad4 <I_srli_cg_cp_rs1_edges_0x5bbc8872>:
I_srli_cg_cp_rs1_edges_0x5bbc8872:
  srli x6, x18, 29 # perform operation
     ad4:	01d95313          	srli	x6,x18,0x1d
  # Check if x6 contains the expected result. x20 is the signature ptr, x5 is the link ptr, x4 is a temp reg.
  RVTEST_SIGUPD(x20, x5, x4, x6, I_srli_cg_cp_rs1_edges_0x5bbc8872, I_srli_cg_cp_rs1_edges_0x5bbc8872_str)
     ad8:	000a2203          	lw	x4,0(x20)
     adc:	00620863          	beq	x4,x6,aec <I_srli_cg_cp_rs1_edges_0x5bbc8872+0x18>
     ae0:	23c012ef          	jal	x5,1d1c <failedtest_x5_x4>
     ae4:	00000ad4          	.word	0x00000ad4
     ae8:	00005203          	.word	0x00005203
     aec:	004a0a13          	addi	x20,x20,4

# Testcase cp_rs1_edges (Test source rs1 value = 0xaaaaaaaa)
  RVTEST_TESTDATA_LOAD_INT(x11, x24) # load rs1: x24 = 0xaaaaaaaa
     af0:	0005ac03          	lw	x24,0(x11)
     af4:	00458593          	addi	x11,x11,4

00000af8 <I_srli_cg_cp_rs1_edges_0xaaaaaaaa>:
I_srli_cg_cp_rs1_edges_0xaaaaaaaa:
  srli x2, x24, 8 # perform operation
     af8:	008c5113          	srli	x2,x24,0x8
  # Check if x2 contains the expected result. x20 is the signature ptr, x5 is the link ptr, x4 is a temp reg.
  RVTEST_SIGUPD(x20, x5, x4, x2, I_srli_cg_cp_rs1_edges_0xaaaaaaaa, I_srli_cg_cp_rs1_edges_0xaaaaaaaa_str)
     afc:	000a2203          	lw	x4,0(x20)
     b00:	00220863          	beq	x4,x2,b10 <I_srli_cg_cp_rs1_edges_0xaaaaaaaa+0x18>
     b04:	218012ef          	jal	x5,1d1c <failedtest_x5_x4>
     b08:	00000af8          	.word	0x00000af8
     b0c:	00005240          	.word	0x00005240
     b10:	004a0a13          	addi	x20,x20,4

# Testcase cp_rs1_edges (Test source rs1 value = 0x55555555)
  RVTEST_TESTDATA_LOAD_INT(x11, x22) # load rs1: x22 = 0x55555555
     b14:	0005ab03          	lw	x22,0(x11)
     b18:	00458593          	addi	x11,x11,4

00000b1c <I_srli_cg_cp_rs1_edges_0x55555555>:
I_srli_cg_cp_rs1_edges_0x55555555:
  srli x13, x22, 23 # perform operation
     b1c:	017b5693          	srli	x13,x22,0x17
  # Check if x13 contains the expected result. x20 is the signature ptr, x5 is the link ptr, x4 is a temp reg.
  RVTEST_SIGUPD(x20, x5, x4, x13, I_srli_cg_cp_rs1_edges_0x55555555, I_srli_cg_cp_rs1_edges_0x55555555_str)
     b20:	000a2203          	lw	x4,0(x20)
     b24:	00d20863          	beq	x4,x13,b34 <I_srli_cg_cp_rs1_edges_0x55555555+0x18>
     b28:	1f4012ef          	jal	x5,1d1c <failedtest_x5_x4>
     b2c:	00000b1c          	.word	0x00000b1c
     b30:	0000527d          	.word	0x0000527d
     b34:	004a0a13          	addi	x20,x20,4
/////////////////////////////////
// cr_rs1_imm_edges_uimm
/////////////////////////////////

# Testcase cr_rs1_imm_edges_uimm (rs1 = 0x00000000, imm = 0)
  RVTEST_TESTDATA_LOAD_INT(x11, x17) # load rs1: x17 = 0x00000000
     b38:	0005a883          	lw	x17,0(x11)
     b3c:	00458593          	addi	x11,x11,4

00000b40 <I_srli_cg_cr_rs1_imm_edges_uimm_rs1val_0x0_immval_0x0>:
I_srli_cg_cr_rs1_imm_edges_uimm_rs1val_0x0_immval_0x0:
  srli x25, x17, 0 # perform operation
     b40:	0008dc93          	srli	x25,x17,0x0
  # Check if x25 contains the expected result. x20 is the signature ptr, x5 is the link ptr, x4 is a temp reg.
  RVTEST_SIGUPD(x20, x5, x4, x25, I_srli_cg_cr_rs1_imm_edges_uimm_rs1val_0x0_immval_0x0, I_srli_cg_cr_rs1_imm_edges_uimm_rs1val_0x0_immval_0x0_str)
     b44:	000a2203          	lw	x4,0(x20)
     b48:	01920863          	beq	x4,x25,b58 <I_srli_cg_cr_rs1_imm_edges_uimm_rs1val_0x0_immval_0x0+0x18>
     b4c:	1d0012ef          	jal	x5,1d1c <failedtest_x5_x4>
     b50:	00000b40          	.word	0x00000b40
     b54:	000052ba          	.word	0x000052ba
     b58:	004a0a13          	addi	x20,x20,4

# Testcase cr_rs1_imm_edges_uimm (rs1 = 0x00000000, imm = 1)
  RVTEST_TESTDATA_LOAD_INT(x11, x12) # load rs1: x12 = 0x00000000
     b5c:	0005a603          	lw	x12,0(x11)
     b60:	00458593          	addi	x11,x11,4

00000b64 <I_srli_cg_cr_rs1_imm_edges_uimm_rs1val_0x0_immval_0x1>:
I_srli_cg_cr_rs1_imm_edges_uimm_rs1val_0x0_immval_0x1:
  srli x2, x12, 1 # perform operation
     b64:	00165113          	srli	x2,x12,0x1
  # Check if x2 contains the expected result. x20 is the signature ptr, x5 is the link ptr, x4 is a temp reg.
  RVTEST_SIGUPD(x20, x5, x4, x2, I_srli_cg_cr_rs1_imm_edges_uimm_rs1val_0x0_immval_0x1, I_srli_cg_cr_rs1_imm_edges_uimm_rs1val_0x0_immval_0x1_str)
     b68:	000a2203          	lw	x4,0(x20)
     b6c:	00220863          	beq	x4,x2,b7c <I_srli_cg_cr_rs1_imm_edges_uimm_rs1val_0x0_immval_0x1+0x18>
     b70:	1ac012ef          	jal	x5,1d1c <failedtest_x5_x4>
     b74:	00000b64          	.word	0x00000b64
     b78:	0000530c          	.word	0x0000530c
     b7c:	004a0a13          	addi	x20,x20,4

# Testcase cr_rs1_imm_edges_uimm (rs1 = 0x00000000, imm = 19)
  RVTEST_TESTDATA_LOAD_INT(x11, x24) # load rs1: x24 = 0x00000000
     b80:	0005ac03          	lw	x24,0(x11)
     b84:	00458593          	addi	x11,x11,4

00000b88 <I_srli_cg_cr_rs1_imm_edges_uimm_rs1val_0x0_immval_0x13>:
I_srli_cg_cr_rs1_imm_edges_uimm_rs1val_0x0_immval_0x13:
  srli x10, x24, 19 # perform operation
     b88:	013c5513          	srli	x10,x24,0x13
  # Check if x10 contains the expected result. x20 is the signature ptr, x5 is the link ptr, x4 is a temp reg.
  RVTEST_SIGUPD(x20, x5, x4, x10, I_srli_cg_cr_rs1_imm_edges_uimm_rs1val_0x0_immval_0x13, I_srli_cg_cr_rs1_imm_edges_uimm_rs1val_0x0_immval_0x13_str)
     b8c:	000a2203          	lw	x4,0(x20)
     b90:	00a20863          	beq	x4,x10,ba0 <I_srli_cg_cr_rs1_imm_edges_uimm_rs1val_0x0_immval_0x13+0x18>
     b94:	188012ef          	jal	x5,1d1c <failedtest_x5_x4>
     b98:	00000b88          	.word	0x00000b88
     b9c:	0000535e          	.word	0x0000535e
     ba0:	004a0a13          	addi	x20,x20,4

# Testcase cr_rs1_imm_edges_uimm (rs1 = 0x00000000, imm = 30)
  RVTEST_TESTDATA_LOAD_INT(x11, x6) # load rs1: x6 = 0x00000000
     ba4:	0005a303          	lw	x6,0(x11)
     ba8:	00458593          	addi	x11,x11,4

00000bac <I_srli_cg_cr_rs1_imm_edges_uimm_rs1val_0x0_immval_0x1e>:
I_srli_cg_cr_rs1_imm_edges_uimm_rs1val_0x0_immval_0x1e:
  srli x22, x6, 30 # perform operation
     bac:	01e35b13          	srli	x22,x6,0x1e
  # Check if x22 contains the expected result. x20 is the signature ptr, x5 is the link ptr, x4 is a temp reg.
  RVTEST_SIGUPD(x20, x5, x4, x22, I_srli_cg_cr_rs1_imm_edges_uimm_rs1val_0x0_immval_0x1e, I_srli_cg_cr_rs1_imm_edges_uimm_rs1val_0x0_immval_0x1e_str)
     bb0:	000a2203          	lw	x4,0(x20)
     bb4:	01620863          	beq	x4,x22,bc4 <I_srli_cg_cr_rs1_imm_edges_uimm_rs1val_0x0_immval_0x1e+0x18>
     bb8:	164012ef          	jal	x5,1d1c <failedtest_x5_x4>
     bbc:	00000bac          	.word	0x00000bac
     bc0:	000053b1          	.word	0x000053b1
     bc4:	004a0a13          	addi	x20,x20,4

# Testcase cr_rs1_imm_edges_uimm (rs1 = 0x00000000, imm = 31)
  RVTEST_TESTDATA_LOAD_INT(x11, x10) # load rs1: x10 = 0x00000000
     bc8:	0005a503          	lw	x10,0(x11)
     bcc:	00458593          	addi	x11,x11,4

00000bd0 <I_srli_cg_cr_rs1_imm_edges_uimm_rs1val_0x0_immval_0x1f>:
I_srli_cg_cr_rs1_imm_edges_uimm_rs1val_0x0_immval_0x1f:
  srli x26, x10, 31 # perform operation
     bd0:	01f55d13          	srli	x26,x10,0x1f
  # Check if x26 contains the expected result. x20 is the signature ptr, x5 is the link ptr, x4 is a temp reg.
  RVTEST_SIGUPD(x20, x5, x4, x26, I_srli_cg_cr_rs1_imm_edges_uimm_rs1val_0x0_immval_0x1f, I_srli_cg_cr_rs1_imm_edges_uimm_rs1val_0x0_immval_0x1f_str)
     bd4:	000a2203          	lw	x4,0(x20)
     bd8:	01a20863          	beq	x4,x26,be8 <I_srli_cg_cr_rs1_imm_edges_uimm_rs1val_0x0_immval_0x1f+0x18>
     bdc:	140012ef          	jal	x5,1d1c <failedtest_x5_x4>
     be0:	00000bd0          	.word	0x00000bd0
     be4:	00005404          	.word	0x00005404
     be8:	004a0a13          	addi	x20,x20,4

# Testcase cr_rs1_imm_edges_uimm (rs1 = 0x00000001, imm = 0)
  RVTEST_TESTDATA_LOAD_INT(x11, x2) # load rs1: x2 = 0x00000001
     bec:	0005a103          	lw	x2,0(x11)
     bf0:	00458593          	addi	x11,x11,4

00000bf4 <I_srli_cg_cr_rs1_imm_edges_uimm_rs1val_0x1_immval_0x0>:
I_srli_cg_cr_rs1_imm_edges_uimm_rs1val_0x1_immval_0x0:
  srli x6, x2, 0 # perform operation
     bf4:	00015313          	srli	x6,x2,0x0
  # Check if x6 contains the expected result. x20 is the signature ptr, x5 is the link ptr, x4 is a temp reg.
  RVTEST_SIGUPD(x20, x5, x4, x6, I_srli_cg_cr_rs1_imm_edges_uimm_rs1val_0x1_immval_0x0, I_srli_cg_cr_rs1_imm_edges_uimm_rs1val_0x1_immval_0x0_str)
     bf8:	000a2203          	lw	x4,0(x20)
     bfc:	00620863          	beq	x4,x6,c0c <I_srli_cg_cr_rs1_imm_edges_uimm_rs1val_0x1_immval_0x0+0x18>
     c00:	11c012ef          	jal	x5,1d1c <failedtest_x5_x4>
     c04:	00000bf4          	.word	0x00000bf4
     c08:	00005457          	.word	0x00005457
     c0c:	004a0a13          	addi	x20,x20,4

# Testcase cr_rs1_imm_edges_uimm (rs1 = 0x00000001, imm = 1)
  RVTEST_TESTDATA_LOAD_INT(x11, x15) # load rs1: x15 = 0x00000001
     c10:	0005a783          	lw	x15,0(x11)
     c14:	00458593          	addi	x11,x11,4

00000c18 <I_srli_cg_cr_rs1_imm_edges_uimm_rs1val_0x1_immval_0x1>:
I_srli_cg_cr_rs1_imm_edges_uimm_rs1val_0x1_immval_0x1:
  srli x14, x15, 1 # perform operation
     c18:	0017d713          	srli	x14,x15,0x1
  # Check if x14 contains the expected result. x20 is the signature ptr, x5 is the link ptr, x4 is a temp reg.
  RVTEST_SIGUPD(x20, x5, x4, x14, I_srli_cg_cr_rs1_imm_edges_uimm_rs1val_0x1_immval_0x1, I_srli_cg_cr_rs1_imm_edges_uimm_rs1val_0x1_immval_0x1_str)
     c1c:	000a2203          	lw	x4,0(x20)
     c20:	00e20863          	beq	x4,x14,c30 <I_srli_cg_cr_rs1_imm_edges_uimm_rs1val_0x1_immval_0x1+0x18>
     c24:	0f8012ef          	jal	x5,1d1c <failedtest_x5_x4>
     c28:	00000c18          	.word	0x00000c18
     c2c:	000054a9          	.word	0x000054a9
     c30:	004a0a13          	addi	x20,x20,4

# Testcase cr_rs1_imm_edges_uimm (rs1 = 0x00000001, imm = 19)
  RVTEST_TESTDATA_LOAD_INT(x11, x25) # load rs1: x25 = 0x00000001
     c34:	0005ac83          	lw	x25,0(x11)
     c38:	00458593          	addi	x11,x11,4

00000c3c <I_srli_cg_cr_rs1_imm_edges_uimm_rs1val_0x1_immval_0x13>:
I_srli_cg_cr_rs1_imm_edges_uimm_rs1val_0x1_immval_0x13:
  srli x13, x25, 19 # perform operation
     c3c:	013cd693          	srli	x13,x25,0x13
  # Check if x13 contains the expected result. x20 is the signature ptr, x5 is the link ptr, x4 is a temp reg.
  RVTEST_SIGUPD(x20, x5, x4, x13, I_srli_cg_cr_rs1_imm_edges_uimm_rs1val_0x1_immval_0x13, I_srli_cg_cr_rs1_imm_edges_uimm_rs1val_0x1_immval_0x13_str)
     c40:	000a2203          	lw	x4,0(x20)
     c44:	00d20863          	beq	x4,x13,c54 <I_srli_cg_cr_rs1_imm_edges_uimm_rs1val_0x1_immval_0x13+0x18>
     c48:	0d4012ef          	jal	x5,1d1c <failedtest_x5_x4>
     c4c:	00000c3c          	.word	0x00000c3c
     c50:	000054fb          	.word	0x000054fb
     c54:	004a0a13          	addi	x20,x20,4

# Testcase cr_rs1_imm_edges_uimm (rs1 = 0x00000001, imm = 30)
  RVTEST_TESTDATA_LOAD_INT(x11, x26) # load rs1: x26 = 0x00000001
     c58:	0005ad03          	lw	x26,0(x11)
     c5c:	00458593          	addi	x11,x11,4

00000c60 <I_srli_cg_cr_rs1_imm_edges_uimm_rs1val_0x1_immval_0x1e>:
I_srli_cg_cr_rs1_imm_edges_uimm_rs1val_0x1_immval_0x1e:
  srli x22, x26, 30 # perform operation
     c60:	01ed5b13          	srli	x22,x26,0x1e
  # Check if x22 contains the expected result. x20 is the signature ptr, x5 is the link ptr, x4 is a temp reg.
  RVTEST_SIGUPD(x20, x5, x4, x22, I_srli_cg_cr_rs1_imm_edges_uimm_rs1val_0x1_immval_0x1e, I_srli_cg_cr_rs1_imm_edges_uimm_rs1val_0x1_immval_0x1e_str)
     c64:	000a2203          	lw	x4,0(x20)
     c68:	01620863          	beq	x4,x22,c78 <I_srli_cg_cr_rs1_imm_edges_uimm_rs1val_0x1_immval_0x1e+0x18>
     c6c:	0b0012ef          	jal	x5,1d1c <failedtest_x5_x4>
     c70:	00000c60          	.word	0x00000c60
     c74:	0000554e          	.word	0x0000554e
     c78:	004a0a13          	addi	x20,x20,4

# Testcase cr_rs1_imm_edges_uimm (rs1 = 0x00000001, imm = 31)
  RVTEST_TESTDATA_LOAD_INT(x11, x7) # load rs1: x7 = 0x00000001
     c7c:	0005a383          	lw	x7,0(x11)
     c80:	00458593          	addi	x11,x11,4

00000c84 <I_srli_cg_cr_rs1_imm_edges_uimm_rs1val_0x1_immval_0x1f>:
I_srli_cg_cr_rs1_imm_edges_uimm_rs1val_0x1_immval_0x1f:
  srli x19, x7, 31 # perform operation
     c84:	01f3d993          	srli	x19,x7,0x1f
  # Check if x19 contains the expected result. x20 is the signature ptr, x5 is the link ptr, x4 is a temp reg.
  RVTEST_SIGUPD(x20, x5, x4, x19, I_srli_cg_cr_rs1_imm_edges_uimm_rs1val_0x1_immval_0x1f, I_srli_cg_cr_rs1_imm_edges_uimm_rs1val_0x1_immval_0x1f_str)
     c88:	000a2203          	lw	x4,0(x20)
     c8c:	01320863          	beq	x4,x19,c9c <I_srli_cg_cr_rs1_imm_edges_uimm_rs1val_0x1_immval_0x1f+0x18>
     c90:	08c012ef          	jal	x5,1d1c <failedtest_x5_x4>
     c94:	00000c84          	.word	0x00000c84
     c98:	000055a1          	.word	0x000055a1
     c9c:	004a0a13          	addi	x20,x20,4

# Testcase cr_rs1_imm_edges_uimm (rs1 = 0x00000002, imm = 0)
  RVTEST_TESTDATA_LOAD_INT(x11, x14) # load rs1: x14 = 0x00000002
     ca0:	0005a703          	lw	x14,0(x11)
     ca4:	00458593          	addi	x11,x11,4

00000ca8 <I_srli_cg_cr_rs1_imm_edges_uimm_rs1val_0x2_immval_0x0>:
I_srli_cg_cr_rs1_imm_edges_uimm_rs1val_0x2_immval_0x0:
  srli x6, x14, 0 # perform operation
     ca8:	00075313          	srli	x6,x14,0x0
  # Check if x6 contains the expected result. x20 is the signature ptr, x5 is the link ptr, x4 is a temp reg.
  RVTEST_SIGUPD(x20, x5, x4, x6, I_srli_cg_cr_rs1_imm_edges_uimm_rs1val_0x2_immval_0x0, I_srli_cg_cr_rs1_imm_edges_uimm_rs1val_0x2_immval_0x0_str)
     cac:	000a2203          	lw	x4,0(x20)
     cb0:	00620863          	beq	x4,x6,cc0 <I_srli_cg_cr_rs1_imm_edges_uimm_rs1val_0x2_immval_0x0+0x18>
     cb4:	068012ef          	jal	x5,1d1c <failedtest_x5_x4>
     cb8:	00000ca8          	.word	0x00000ca8
     cbc:	000055f4          	.word	0x000055f4
     cc0:	004a0a13          	addi	x20,x20,4

# Testcase cr_rs1_imm_edges_uimm (rs1 = 0x00000002, imm = 1)
  RVTEST_TESTDATA_LOAD_INT(x11, x14) # load rs1: x14 = 0x00000002
     cc4:	0005a703          	lw	x14,0(x11)
     cc8:	00458593          	addi	x11,x11,4

00000ccc <I_srli_cg_cr_rs1_imm_edges_uimm_rs1val_0x2_immval_0x1>:
I_srli_cg_cr_rs1_imm_edges_uimm_rs1val_0x2_immval_0x1:
  srli x31, x14, 1 # perform operation
     ccc:	00175f93          	srli	x31,x14,0x1
  # Check if x31 contains the expected result. x20 is the signature ptr, x5 is the link ptr, x4 is a temp reg.
  RVTEST_SIGUPD(x20, x5, x4, x31, I_srli_cg_cr_rs1_imm_edges_uimm_rs1val_0x2_immval_0x1, I_srli_cg_cr_rs1_imm_edges_uimm_rs1val_0x2_immval_0x1_str)
     cd0:	000a2203          	lw	x4,0(x20)
     cd4:	01f20863          	beq	x4,x31,ce4 <I_srli_cg_cr_rs1_imm_edges_uimm_rs1val_0x2_immval_0x1+0x18>
     cd8:	044012ef          	jal	x5,1d1c <failedtest_x5_x4>
     cdc:	00000ccc          	.word	0x00000ccc
     ce0:	00005646          	.word	0x00005646
     ce4:	004a0a13          	addi	x20,x20,4

# Testcase cr_rs1_imm_edges_uimm (rs1 = 0x00000002, imm = 19)
  RVTEST_TESTDATA_LOAD_INT(x11, x10) # load rs1: x10 = 0x00000002
     ce8:	0005a503          	lw	x10,0(x11)
     cec:	00458593          	addi	x11,x11,4

00000cf0 <I_srli_cg_cr_rs1_imm_edges_uimm_rs1val_0x2_immval_0x13>:
I_srli_cg_cr_rs1_imm_edges_uimm_rs1val_0x2_immval_0x13:
  srli x3, x10, 19 # perform operation
     cf0:	01355193          	srli	x3,x10,0x13
  # Check if x3 contains the expected result. x20 is the signature ptr, x5 is the link ptr, x4 is a temp reg.
  RVTEST_SIGUPD(x20, x5, x4, x3, I_srli_cg_cr_rs1_imm_edges_uimm_rs1val_0x2_immval_0x13, I_srli_cg_cr_rs1_imm_edges_uimm_rs1val_0x2_immval_0x13_str)
     cf4:	000a2203          	lw	x4,0(x20)
     cf8:	00320863          	beq	x4,x3,d08 <I_srli_cg_cr_rs1_imm_edges_uimm_rs1val_0x2_immval_0x13+0x18>
     cfc:	020012ef          	jal	x5,1d1c <failedtest_x5_x4>
     d00:	00000cf0          	.word	0x00000cf0
     d04:	00005698          	.word	0x00005698
     d08:	004a0a13          	addi	x20,x20,4

# Testcase cr_rs1_imm_edges_uimm (rs1 = 0x00000002, imm = 30)
  RVTEST_TESTDATA_LOAD_INT(x11, x16) # load rs1: x16 = 0x00000002
     d0c:	0005a803          	lw	x16,0(x11)
     d10:	00458593          	addi	x11,x11,4

00000d14 <I_srli_cg_cr_rs1_imm_edges_uimm_rs1val_0x2_immval_0x1e>:
I_srli_cg_cr_rs1_imm_edges_uimm_rs1val_0x2_immval_0x1e:
  srli x13, x16, 30 # perform operation
     d14:	01e85693          	srli	x13,x16,0x1e
  # Check if x13 contains the expected result. x20 is the signature ptr, x5 is the link ptr, x4 is a temp reg.
  RVTEST_SIGUPD(x20, x5, x4, x13, I_srli_cg_cr_rs1_imm_edges_uimm_rs1val_0x2_immval_0x1e, I_srli_cg_cr_rs1_imm_edges_uimm_rs1val_0x2_immval_0x1e_str)
     d18:	000a2203          	lw	x4,0(x20)
     d1c:	00d20863          	beq	x4,x13,d2c <I_srli_cg_cr_rs1_imm_edges_uimm_rs1val_0x2_immval_0x1e+0x18>
     d20:	7fd002ef          	jal	x5,1d1c <failedtest_x5_x4>
     d24:	00000d14          	.word	0x00000d14
     d28:	000056eb          	.word	0x000056eb
     d2c:	004a0a13          	addi	x20,x20,4

# Testcase cr_rs1_imm_edges_uimm (rs1 = 0x00000002, imm = 31)
  RVTEST_TESTDATA_LOAD_INT(x11, x7) # load rs1: x7 = 0x00000002
     d30:	0005a383          	lw	x7,0(x11)
     d34:	00458593          	addi	x11,x11,4

00000d38 <I_srli_cg_cr_rs1_imm_edges_uimm_rs1val_0x2_immval_0x1f>:
I_srli_cg_cr_rs1_imm_edges_uimm_rs1val_0x2_immval_0x1f:
  srli x16, x7, 31 # perform operation
     d38:	01f3d813          	srli	x16,x7,0x1f
  # Check if x16 contains the expected result. x20 is the signature ptr, x5 is the link ptr, x4 is a temp reg.
  RVTEST_SIGUPD(x20, x5, x4, x16, I_srli_cg_cr_rs1_imm_edges_uimm_rs1val_0x2_immval_0x1f, I_srli_cg_cr_rs1_imm_edges_uimm_rs1val_0x2_immval_0x1f_str)
     d3c:	000a2203          	lw	x4,0(x20)
     d40:	01020863          	beq	x4,x16,d50 <I_srli_cg_cr_rs1_imm_edges_uimm_rs1val_0x2_immval_0x1f+0x18>
     d44:	7d9002ef          	jal	x5,1d1c <failedtest_x5_x4>
     d48:	00000d38          	.word	0x00000d38
     d4c:	0000573e          	.word	0x0000573e
     d50:	004a0a13          	addi	x20,x20,4

# Testcase cr_rs1_imm_edges_uimm (rs1 = 0x80000000, imm = 0)
  RVTEST_TESTDATA_LOAD_INT(x11, x24) # load rs1: x24 = 0x80000000
     d54:	0005ac03          	lw	x24,0(x11)
     d58:	00458593          	addi	x11,x11,4

00000d5c <I_srli_cg_cr_rs1_imm_edges_uimm_rs1val_0x80000000_immval_0x0>:
I_srli_cg_cr_rs1_imm_edges_uimm_rs1val_0x80000000_immval_0x0:
  srli x18, x24, 0 # perform operation
     d5c:	000c5913          	srli	x18,x24,0x0
  # Check if x18 contains the expected result. x20 is the signature ptr, x5 is the link ptr, x4 is a temp reg.
  RVTEST_SIGUPD(x20, x5, x4, x18, I_srli_cg_cr_rs1_imm_edges_uimm_rs1val_0x80000000_immval_0x0, I_srli_cg_cr_rs1_imm_edges_uimm_rs1val_0x80000000_immval_0x0_str)
     d60:	000a2203          	lw	x4,0(x20)
     d64:	01220863          	beq	x4,x18,d74 <I_srli_cg_cr_rs1_imm_edges_uimm_rs1val_0x80000000_immval_0x0+0x18>
     d68:	7b5002ef          	jal	x5,1d1c <failedtest_x5_x4>
     d6c:	00000d5c          	.word	0x00000d5c
     d70:	00005791          	.word	0x00005791
     d74:	004a0a13          	addi	x20,x20,4

# Testcase cr_rs1_imm_edges_uimm (rs1 = 0x80000000, imm = 1)
  RVTEST_TESTDATA_LOAD_INT(x11, x16) # load rs1: x16 = 0x80000000
     d78:	0005a803          	lw	x16,0(x11)
     d7c:	00458593          	addi	x11,x11,4

00000d80 <I_srli_cg_cr_rs1_imm_edges_uimm_rs1val_0x80000000_immval_0x1>:
I_srli_cg_cr_rs1_imm_edges_uimm_rs1val_0x80000000_immval_0x1:
  srli x27, x16, 1 # perform operation
     d80:	00185d93          	srli	x27,x16,0x1
  # Check if x27 contains the expected result. x20 is the signature ptr, x5 is the link ptr, x4 is a temp reg.
  RVTEST_SIGUPD(x20, x5, x4, x27, I_srli_cg_cr_rs1_imm_edges_uimm_rs1val_0x80000000_immval_0x1, I_srli_cg_cr_rs1_imm_edges_uimm_rs1val_0x80000000_immval_0x1_str)
     d84:	000a2203          	lw	x4,0(x20)
     d88:	01b20863          	beq	x4,x27,d98 <I_srli_cg_cr_rs1_imm_edges_uimm_rs1val_0x80000000_immval_0x1+0x18>
     d8c:	791002ef          	jal	x5,1d1c <failedtest_x5_x4>
     d90:	00000d80          	.word	0x00000d80
     d94:	000057ea          	.word	0x000057ea
     d98:	004a0a13          	addi	x20,x20,4

# Testcase cr_rs1_imm_edges_uimm (rs1 = 0x80000000, imm = 19)
  RVTEST_TESTDATA_LOAD_INT(x11, x15) # load rs1: x15 = 0x80000000
     d9c:	0005a783          	lw	x15,0(x11)
     da0:	00458593          	addi	x11,x11,4

00000da4 <I_srli_cg_cr_rs1_imm_edges_uimm_rs1val_0x80000000_immval_0x13>:
I_srli_cg_cr_rs1_imm_edges_uimm_rs1val_0x80000000_immval_0x13:
  srli x3, x15, 19 # perform operation
     da4:	0137d193          	srli	x3,x15,0x13
  # Check if x3 contains the expected result. x20 is the signature ptr, x5 is the link ptr, x4 is a temp reg.
  RVTEST_SIGUPD(x20, x5, x4, x3, I_srli_cg_cr_rs1_imm_edges_uimm_rs1val_0x80000000_immval_0x13, I_srli_cg_cr_rs1_imm_edges_uimm_rs1val_0x80000000_immval_0x13_str)
     da8:	000a2203          	lw	x4,0(x20)
     dac:	00320863          	beq	x4,x3,dbc <I_srli_cg_cr_rs1_imm_edges_uimm_rs1val_0x80000000_immval_0x13+0x18>
     db0:	76d002ef          	jal	x5,1d1c <failedtest_x5_x4>
     db4:	00000da4          	.word	0x00000da4
     db8:	00005843          	.word	0x00005843
     dbc:	004a0a13          	addi	x20,x20,4

# Testcase cr_rs1_imm_edges_uimm (rs1 = 0x80000000, imm = 30)
  RVTEST_TESTDATA_LOAD_INT(x11, x18) # load rs1: x18 = 0x80000000
     dc0:	0005a903          	lw	x18,0(x11)
     dc4:	00458593          	addi	x11,x11,4

00000dc8 <I_srli_cg_cr_rs1_imm_edges_uimm_rs1val_0x80000000_immval_0x1e>:
I_srli_cg_cr_rs1_imm_edges_uimm_rs1val_0x80000000_immval_0x1e:
  srli x22, x18, 30 # perform operation
     dc8:	01e95b13          	srli	x22,x18,0x1e
  # Check if x22 contains the expected result. x20 is the signature ptr, x5 is the link ptr, x4 is a temp reg.
  RVTEST_SIGUPD(x20, x5, x4, x22, I_srli_cg_cr_rs1_imm_edges_uimm_rs1val_0x80000000_immval_0x1e, I_srli_cg_cr_rs1_imm_edges_uimm_rs1val_0x80000000_immval_0x1e_str)
     dcc:	000a2203          	lw	x4,0(x20)
     dd0:	01620863          	beq	x4,x22,de0 <I_srli_cg_cr_rs1_imm_edges_uimm_rs1val_0x80000000_immval_0x1e+0x18>
     dd4:	749002ef          	jal	x5,1d1c <failedtest_x5_x4>
     dd8:	00000dc8          	.word	0x00000dc8
     ddc:	0000589d          	.word	0x0000589d
     de0:	004a0a13          	addi	x20,x20,4

# Testcase cr_rs1_imm_edges_uimm (rs1 = 0x80000000, imm = 31)
  RVTEST_TESTDATA_LOAD_INT(x11, x21) # load rs1: x21 = 0x80000000
     de4:	0005aa83          	lw	x21,0(x11)
     de8:	00458593          	addi	x11,x11,4

00000dec <I_srli_cg_cr_rs1_imm_edges_uimm_rs1val_0x80000000_immval_0x1f>:
I_srli_cg_cr_rs1_imm_edges_uimm_rs1val_0x80000000_immval_0x1f:
  srli x16, x21, 31 # perform operation
     dec:	01fad813          	srli	x16,x21,0x1f
  # Check if x16 contains the expected result. x20 is the signature ptr, x5 is the link ptr, x4 is a temp reg.
  RVTEST_SIGUPD(x20, x5, x4, x16, I_srli_cg_cr_rs1_imm_edges_uimm_rs1val_0x80000000_immval_0x1f, I_srli_cg_cr_rs1_imm_edges_uimm_rs1val_0x80000000_immval_0x1f_str)
     df0:	000a2203          	lw	x4,0(x20)
     df4:	01020863          	beq	x4,x16,e04 <I_srli_cg_cr_rs1_imm_edges_uimm_rs1val_0x80000000_immval_0x1f+0x18>
     df8:	725002ef          	jal	x5,1d1c <failedtest_x5_x4>
     dfc:	00000dec          	.word	0x00000dec
     e00:	000058f7          	.word	0x000058f7
     e04:	004a0a13          	addi	x20,x20,4

# Testcase cr_rs1_imm_edges_uimm (rs1 = 0x80000001, imm = 0)
  RVTEST_TESTDATA_LOAD_INT(x11, x19) # load rs1: x19 = 0x80000001
     e08:	0005a983          	lw	x19,0(x11)
     e0c:	00458593          	addi	x11,x11,4

00000e10 <I_srli_cg_cr_rs1_imm_edges_uimm_rs1val_0x80000001_immval_0x0>:
I_srli_cg_cr_rs1_imm_edges_uimm_rs1val_0x80000001_immval_0x0:
  srli x7, x19, 0 # perform operation
     e10:	0009d393          	srli	x7,x19,0x0
  # Check if x7 contains the expected result. x20 is the signature ptr, x5 is the link ptr, x4 is a temp reg.
  RVTEST_SIGUPD(x20, x5, x4, x7, I_srli_cg_cr_rs1_imm_edges_uimm_rs1val_0x80000001_immval_0x0, I_srli_cg_cr_rs1_imm_edges_uimm_rs1val_0x80000001_immval_0x0_str)
     e14:	000a2203          	lw	x4,0(x20)
     e18:	00720863          	beq	x4,x7,e28 <I_srli_cg_cr_rs1_imm_edges_uimm_rs1val_0x80000001_immval_0x0+0x18>
     e1c:	701002ef          	jal	x5,1d1c <failedtest_x5_x4>
     e20:	00000e10          	.word	0x00000e10
     e24:	00005951          	.word	0x00005951
     e28:	004a0a13          	addi	x20,x20,4

# Testcase cr_rs1_imm_edges_uimm (rs1 = 0x80000001, imm = 1)
  RVTEST_TESTDATA_LOAD_INT(x11, x25) # load rs1: x25 = 0x80000001
     e2c:	0005ac83          	lw	x25,0(x11)
     e30:	00458593          	addi	x11,x11,4

00000e34 <I_srli_cg_cr_rs1_imm_edges_uimm_rs1val_0x80000001_immval_0x1>:
I_srli_cg_cr_rs1_imm_edges_uimm_rs1val_0x80000001_immval_0x1:
  srli x26, x25, 1 # perform operation
     e34:	001cdd13          	srli	x26,x25,0x1
  # Check if x26 contains the expected result. x20 is the signature ptr, x5 is the link ptr, x4 is a temp reg.
  RVTEST_SIGUPD(x20, x5, x4, x26, I_srli_cg_cr_rs1_imm_edges_uimm_rs1val_0x80000001_immval_0x1, I_srli_cg_cr_rs1_imm_edges_uimm_rs1val_0x80000001_immval_0x1_str)
     e38:	000a2203          	lw	x4,0(x20)
     e3c:	01a20863          	beq	x4,x26,e4c <I_srli_cg_cr_rs1_imm_edges_uimm_rs1val_0x80000001_immval_0x1+0x18>
     e40:	6dd002ef          	jal	x5,1d1c <failedtest_x5_x4>
     e44:	00000e34          	.word	0x00000e34
     e48:	000059aa          	.word	0x000059aa
     e4c:	004a0a13          	addi	x20,x20,4

# Testcase cr_rs1_imm_edges_uimm (rs1 = 0x80000001, imm = 19)
  RVTEST_TESTDATA_LOAD_INT(x11, x31) # load rs1: x31 = 0x80000001
     e50:	0005af83          	lw	x31,0(x11)
     e54:	00458593          	addi	x11,x11,4

00000e58 <I_srli_cg_cr_rs1_imm_edges_uimm_rs1val_0x80000001_immval_0x13>:
I_srli_cg_cr_rs1_imm_edges_uimm_rs1val_0x80000001_immval_0x13:
  srli x27, x31, 19 # perform operation
     e58:	013fdd93          	srli	x27,x31,0x13
  # Check if x27 contains the expected result. x20 is the signature ptr, x5 is the link ptr, x4 is a temp reg.
  RVTEST_SIGUPD(x20, x5, x4, x27, I_srli_cg_cr_rs1_imm_edges_uimm_rs1val_0x80000001_immval_0x13, I_srli_cg_cr_rs1_imm_edges_uimm_rs1val_0x80000001_immval_0x13_str)
     e5c:	000a2203          	lw	x4,0(x20)
     e60:	01b20863          	beq	x4,x27,e70 <I_srli_cg_cr_rs1_imm_edges_uimm_rs1val_0x80000001_immval_0x13+0x18>
     e64:	6b9002ef          	jal	x5,1d1c <failedtest_x5_x4>
     e68:	00000e58          	.word	0x00000e58
     e6c:	00005a03          	.word	0x00005a03
     e70:	004a0a13          	addi	x20,x20,4

# Testcase cr_rs1_imm_edges_uimm (rs1 = 0x80000001, imm = 30)
  RVTEST_TESTDATA_LOAD_INT(x11, x6) # load rs1: x6 = 0x80000001
     e74:	0005a303          	lw	x6,0(x11)
     e78:	00458593          	addi	x11,x11,4

00000e7c <I_srli_cg_cr_rs1_imm_edges_uimm_rs1val_0x80000001_immval_0x1e>:
I_srli_cg_cr_rs1_imm_edges_uimm_rs1val_0x80000001_immval_0x1e:
  srli x15, x6, 30 # perform operation
     e7c:	01e35793          	srli	x15,x6,0x1e
  # Check if x15 contains the expected result. x20 is the signature ptr, x5 is the link ptr, x4 is a temp reg.
  RVTEST_SIGUPD(x20, x5, x4, x15, I_srli_cg_cr_rs1_imm_edges_uimm_rs1val_0x80000001_immval_0x1e, I_srli_cg_cr_rs1_imm_edges_uimm_rs1val_0x80000001_immval_0x1e_str)
     e80:	000a2203          	lw	x4,0(x20)
     e84:	00f20863          	beq	x4,x15,e94 <I_srli_cg_cr_rs1_imm_edges_uimm_rs1val_0x80000001_immval_0x1e+0x18>
     e88:	695002ef          	jal	x5,1d1c <failedtest_x5_x4>
     e8c:	00000e7c          	.word	0x00000e7c
     e90:	00005a5d          	.word	0x00005a5d
     e94:	004a0a13          	addi	x20,x20,4

# Testcase cr_rs1_imm_edges_uimm (rs1 = 0x80000001, imm = 31)
  RVTEST_TESTDATA_LOAD_INT(x11, x25) # load rs1: x25 = 0x80000001
     e98:	0005ac83          	lw	x25,0(x11)
     e9c:	00458593          	addi	x11,x11,4

00000ea0 <I_srli_cg_cr_rs1_imm_edges_uimm_rs1val_0x80000001_immval_0x1f>:
I_srli_cg_cr_rs1_imm_edges_uimm_rs1val_0x80000001_immval_0x1f:
  srli x23, x25, 31 # perform operation
     ea0:	01fcdb93          	srli	x23,x25,0x1f
  # Check if x23 contains the expected result. x20 is the signature ptr, x5 is the link ptr, x4 is a temp reg.
  RVTEST_SIGUPD(x20, x5, x4, x23, I_srli_cg_cr_rs1_imm_edges_uimm_rs1val_0x80000001_immval_0x1f, I_srli_cg_cr_rs1_imm_edges_uimm_rs1val_0x80000001_immval_0x1f_str)
     ea4:	000a2203          	lw	x4,0(x20)
     ea8:	01720863          	beq	x4,x23,eb8 <I_srli_cg_cr_rs1_imm_edges_uimm_rs1val_0x80000001_immval_0x1f+0x18>
     eac:	671002ef          	jal	x5,1d1c <failedtest_x5_x4>
     eb0:	00000ea0          	.word	0x00000ea0
     eb4:	00005ab8          	.word	0x00005ab8
     eb8:	004a0a13          	addi	x20,x20,4

# Testcase cr_rs1_imm_edges_uimm (rs1 = 0x7fffffff, imm = 0)
  RVTEST_TESTDATA_LOAD_INT(x11, x10) # load rs1: x10 = 0x7fffffff
     ebc:	0005a503          	lw	x10,0(x11)
     ec0:	00458593          	addi	x11,x11,4

00000ec4 <I_srli_cg_cr_rs1_imm_edges_uimm_rs1val_0x7fffffff_immval_0x0>:
I_srli_cg_cr_rs1_imm_edges_uimm_rs1val_0x7fffffff_immval_0x0:
  srli x21, x10, 0 # perform operation
     ec4:	00055a93          	srli	x21,x10,0x0
  # Check if x21 contains the expected result. x20 is the signature ptr, x5 is the link ptr, x4 is a temp reg.
  RVTEST_SIGUPD(x20, x5, x4, x21, I_srli_cg_cr_rs1_imm_edges_uimm_rs1val_0x7fffffff_immval_0x0, I_srli_cg_cr_rs1_imm_edges_uimm_rs1val_0x7fffffff_immval_0x0_str)
     ec8:	000a2203          	lw	x4,0(x20)
     ecc:	01520863          	beq	x4,x21,edc <I_srli_cg_cr_rs1_imm_edges_uimm_rs1val_0x7fffffff_immval_0x0+0x18>
     ed0:	64d002ef          	jal	x5,1d1c <failedtest_x5_x4>
     ed4:	00000ec4          	.word	0x00000ec4
     ed8:	00005b13          	.word	0x00005b13
     edc:	004a0a13          	addi	x20,x20,4

# Testcase cr_rs1_imm_edges_uimm (rs1 = 0x7fffffff, imm = 1)
  RVTEST_TESTDATA_LOAD_INT(x11, x31) # load rs1: x31 = 0x7fffffff
     ee0:	0005af83          	lw	x31,0(x11)
     ee4:	00458593          	addi	x11,x11,4

00000ee8 <I_srli_cg_cr_rs1_imm_edges_uimm_rs1val_0x7fffffff_immval_0x1>:
I_srli_cg_cr_rs1_imm_edges_uimm_rs1val_0x7fffffff_immval_0x1:
  srli x14, x31, 1 # perform operation
     ee8:	001fd713          	srli	x14,x31,0x1
  # Check if x14 contains the expected result. x20 is the signature ptr, x5 is the link ptr, x4 is a temp reg.
  RVTEST_SIGUPD(x20, x5, x4, x14, I_srli_cg_cr_rs1_imm_edges_uimm_rs1val_0x7fffffff_immval_0x1, I_srli_cg_cr_rs1_imm_edges_uimm_rs1val_0x7fffffff_immval_0x1_str)
     eec:	000a2203          	lw	x4,0(x20)
     ef0:	00e20863          	beq	x4,x14,f00 <I_srli_cg_cr_rs1_imm_edges_uimm_rs1val_0x7fffffff_immval_0x1+0x18>
     ef4:	629002ef          	jal	x5,1d1c <failedtest_x5_x4>
     ef8:	00000ee8          	.word	0x00000ee8
     efc:	00005b6d          	.word	0x00005b6d
     f00:	004a0a13          	addi	x20,x20,4

# Testcase cr_rs1_imm_edges_uimm (rs1 = 0x7fffffff, imm = 19)
  RVTEST_TESTDATA_LOAD_INT(x11, x24) # load rs1: x24 = 0x7fffffff
     f04:	0005ac03          	lw	x24,0(x11)
     f08:	00458593          	addi	x11,x11,4

00000f0c <I_srli_cg_cr_rs1_imm_edges_uimm_rs1val_0x7fffffff_immval_0x13>:
I_srli_cg_cr_rs1_imm_edges_uimm_rs1val_0x7fffffff_immval_0x13:
  srli x9, x24, 19 # perform operation
     f0c:	013c5493          	srli	x9,x24,0x13
  # Check if x9 contains the expected result. x20 is the signature ptr, x5 is the link ptr, x4 is a temp reg.
  RVTEST_SIGUPD(x20, x5, x4, x9, I_srli_cg_cr_rs1_imm_edges_uimm_rs1val_0x7fffffff_immval_0x13, I_srli_cg_cr_rs1_imm_edges_uimm_rs1val_0x7fffffff_immval_0x13_str)
     f10:	000a2203          	lw	x4,0(x20)
     f14:	00920863          	beq	x4,x9,f24 <I_srli_cg_cr_rs1_imm_edges_uimm_rs1val_0x7fffffff_immval_0x13+0x18>
     f18:	605002ef          	jal	x5,1d1c <failedtest_x5_x4>
     f1c:	00000f0c          	.word	0x00000f0c
     f20:	00005bc7          	.word	0x00005bc7
     f24:	004a0a13          	addi	x20,x20,4

# Testcase cr_rs1_imm_edges_uimm (rs1 = 0x7fffffff, imm = 30)
  RVTEST_TESTDATA_LOAD_INT(x11, x19) # load rs1: x19 = 0x7fffffff
     f28:	0005a983          	lw	x19,0(x11)
     f2c:	00458593          	addi	x11,x11,4

00000f30 <I_srli_cg_cr_rs1_imm_edges_uimm_rs1val_0x7fffffff_immval_0x1e>:
I_srli_cg_cr_rs1_imm_edges_uimm_rs1val_0x7fffffff_immval_0x1e:
  srli x12, x19, 30 # perform operation
     f30:	01e9d613          	srli	x12,x19,0x1e
  # Check if x12 contains the expected result. x20 is the signature ptr, x5 is the link ptr, x4 is a temp reg.
  RVTEST_SIGUPD(x20, x5, x4, x12, I_srli_cg_cr_rs1_imm_edges_uimm_rs1val_0x7fffffff_immval_0x1e, I_srli_cg_cr_rs1_imm_edges_uimm_rs1val_0x7fffffff_immval_0x1e_str)
     f34:	000a2203          	lw	x4,0(x20)
     f38:	00c20863          	beq	x4,x12,f48 <I_srli_cg_cr_rs1_imm_edges_uimm_rs1val_0x7fffffff_immval_0x1e+0x18>
     f3c:	5e1002ef          	jal	x5,1d1c <failedtest_x5_x4>
     f40:	00000f30          	.word	0x00000f30
     f44:	00005c22          	.word	0x00005c22
     f48:	004a0a13          	addi	x20,x20,4

# Testcase cr_rs1_imm_edges_uimm (rs1 = 0x7fffffff, imm = 31)
  RVTEST_TESTDATA_LOAD_INT(x11, x12) # load rs1: x12 = 0x7fffffff
     f4c:	0005a603          	lw	x12,0(x11)
     f50:	00458593          	addi	x11,x11,4

00000f54 <I_srli_cg_cr_rs1_imm_edges_uimm_rs1val_0x7fffffff_immval_0x1f>:
I_srli_cg_cr_rs1_imm_edges_uimm_rs1val_0x7fffffff_immval_0x1f:
  srli x19, x12, 31 # perform operation
     f54:	01f65993          	srli	x19,x12,0x1f
  # Check if x19 contains the expected result. x20 is the signature ptr, x5 is the link ptr, x4 is a temp reg.
  RVTEST_SIGUPD(x20, x5, x4, x19, I_srli_cg_cr_rs1_imm_edges_uimm_rs1val_0x7fffffff_immval_0x1f, I_srli_cg_cr_rs1_imm_edges_uimm_rs1val_0x7fffffff_immval_0x1f_str)
     f58:	000a2203          	lw	x4,0(x20)
     f5c:	01320863          	beq	x4,x19,f6c <I_srli_cg_cr_rs1_imm_edges_uimm_rs1val_0x7fffffff_immval_0x1f+0x18>
     f60:	5bd002ef          	jal	x5,1d1c <failedtest_x5_x4>
     f64:	00000f54          	.word	0x00000f54
     f68:	00005c7d          	.word	0x00005c7d
     f6c:	004a0a13          	addi	x20,x20,4

# Testcase cr_rs1_imm_edges_uimm (rs1 = 0x7ffffffe, imm = 0)
  RVTEST_TESTDATA_LOAD_INT(x11, x17) # load rs1: x17 = 0x7ffffffe
     f70:	0005a883          	lw	x17,0(x11)
     f74:	00458593          	addi	x11,x11,4

00000f78 <I_srli_cg_cr_rs1_imm_edges_uimm_rs1val_0x7ffffffe_immval_0x0>:
I_srli_cg_cr_rs1_imm_edges_uimm_rs1val_0x7ffffffe_immval_0x0:
  srli x26, x17, 0 # perform operation
     f78:	0008dd13          	srli	x26,x17,0x0
  # Check if x26 contains the expected result. x20 is the signature ptr, x5 is the link ptr, x4 is a temp reg.
  RVTEST_SIGUPD(x20, x5, x4, x26, I_srli_cg_cr_rs1_imm_edges_uimm_rs1val_0x7ffffffe_immval_0x0, I_srli_cg_cr_rs1_imm_edges_uimm_rs1val_0x7ffffffe_immval_0x0_str)
     f7c:	000a2203          	lw	x4,0(x20)
     f80:	01a20863          	beq	x4,x26,f90 <I_srli_cg_cr_rs1_imm_edges_uimm_rs1val_0x7ffffffe_immval_0x0+0x18>
     f84:	599002ef          	jal	x5,1d1c <failedtest_x5_x4>
     f88:	00000f78          	.word	0x00000f78
     f8c:	00005cd8          	.word	0x00005cd8
     f90:	004a0a13          	addi	x20,x20,4

# Testcase cr_rs1_imm_edges_uimm (rs1 = 0x7ffffffe, imm = 1)
  RVTEST_TESTDATA_LOAD_INT(x11, x26) # load rs1: x26 = 0x7ffffffe
     f94:	0005ad03          	lw	x26,0(x11)
     f98:	00458593          	addi	x11,x11,4

00000f9c <I_srli_cg_cr_rs1_imm_edges_uimm_rs1val_0x7ffffffe_immval_0x1>:
I_srli_cg_cr_rs1_imm_edges_uimm_rs1val_0x7ffffffe_immval_0x1:
  srli x24, x26, 1 # perform operation
     f9c:	001d5c13          	srli	x24,x26,0x1
  # Check if x24 contains the expected result. x20 is the signature ptr, x5 is the link ptr, x4 is a temp reg.
  RVTEST_SIGUPD(x20, x5, x4, x24, I_srli_cg_cr_rs1_imm_edges_uimm_rs1val_0x7ffffffe_immval_0x1, I_srli_cg_cr_rs1_imm_edges_uimm_rs1val_0x7ffffffe_immval_0x1_str)
     fa0:	000a2203          	lw	x4,0(x20)
     fa4:	01820863          	beq	x4,x24,fb4 <I_srli_cg_cr_rs1_imm_edges_uimm_rs1val_0x7ffffffe_immval_0x1+0x18>
     fa8:	575002ef          	jal	x5,1d1c <failedtest_x5_x4>
     fac:	00000f9c          	.word	0x00000f9c
     fb0:	00005d32          	.word	0x00005d32
     fb4:	004a0a13          	addi	x20,x20,4

# Testcase cr_rs1_imm_edges_uimm (rs1 = 0x7ffffffe, imm = 19)
  RVTEST_TESTDATA_LOAD_INT(x11, x8) # load rs1: x8 = 0x7ffffffe
     fb8:	0005a403          	lw	x8,0(x11)
     fbc:	00458593          	addi	x11,x11,4

00000fc0 <I_srli_cg_cr_rs1_imm_edges_uimm_rs1val_0x7ffffffe_immval_0x13>:
I_srli_cg_cr_rs1_imm_edges_uimm_rs1val_0x7ffffffe_immval_0x13:
  srli x18, x8, 19 # perform operation
     fc0:	01345913          	srli	x18,x8,0x13
  # Check if x18 contains the expected result. x20 is the signature ptr, x5 is the link ptr, x4 is a temp reg.
  RVTEST_SIGUPD(x20, x5, x4, x18, I_srli_cg_cr_rs1_imm_edges_uimm_rs1val_0x7ffffffe_immval_0x13, I_srli_cg_cr_rs1_imm_edges_uimm_rs1val_0x7ffffffe_immval_0x13_str)
     fc4:	000a2203          	lw	x4,0(x20)
     fc8:	01220863          	beq	x4,x18,fd8 <I_srli_cg_cr_rs1_imm_edges_uimm_rs1val_0x7ffffffe_immval_0x13+0x18>
     fcc:	551002ef          	jal	x5,1d1c <failedtest_x5_x4>
     fd0:	00000fc0          	.word	0x00000fc0
     fd4:	00005d8c          	.word	0x00005d8c
     fd8:	004a0a13          	addi	x20,x20,4

# Testcase cr_rs1_imm_edges_uimm (rs1 = 0x7ffffffe, imm = 30)
  RVTEST_TESTDATA_LOAD_INT(x11, x6) # load rs1: x6 = 0x7ffffffe
     fdc:	0005a303          	lw	x6,0(x11)
     fe0:	00458593          	addi	x11,x11,4

00000fe4 <I_srli_cg_cr_rs1_imm_edges_uimm_rs1val_0x7ffffffe_immval_0x1e>:
I_srli_cg_cr_rs1_imm_edges_uimm_rs1val_0x7ffffffe_immval_0x1e:
  srli x1, x6, 30 # perform operation
     fe4:	01e35093          	srli	x1,x6,0x1e
  # Check if x1 contains the expected result. x20 is the signature ptr, x5 is the link ptr, x4 is a temp reg.
  RVTEST_SIGUPD(x20, x5, x4, x1, I_srli_cg_cr_rs1_imm_edges_uimm_rs1val_0x7ffffffe_immval_0x1e, I_srli_cg_cr_rs1_imm_edges_uimm_rs1val_0x7ffffffe_immval_0x1e_str)
     fe8:	000a2203          	lw	x4,0(x20)
     fec:	00120863          	beq	x4,x1,ffc <I_srli_cg_cr_rs1_imm_edges_uimm_rs1val_0x7ffffffe_immval_0x1e+0x18>
     ff0:	52d002ef          	jal	x5,1d1c <failedtest_x5_x4>
     ff4:	00000fe4          	.word	0x00000fe4
     ff8:	00005de7          	.word	0x00005de7
     ffc:	004a0a13          	addi	x20,x20,4

# Testcase cr_rs1_imm_edges_uimm (rs1 = 0x7ffffffe, imm = 31)
  RVTEST_TESTDATA_LOAD_INT(x11, x21) # load rs1: x21 = 0x7ffffffe
    1000:	0005aa83          	lw	x21,0(x11)
    1004:	00458593          	addi	x11,x11,4

00001008 <I_srli_cg_cr_rs1_imm_edges_uimm_rs1val_0x7ffffffe_immval_0x1f>:
I_srli_cg_cr_rs1_imm_edges_uimm_rs1val_0x7ffffffe_immval_0x1f:
  srli x25, x21, 31 # perform operation
    1008:	01fadc93          	srli	x25,x21,0x1f
  # Check if x25 contains the expected result. x20 is the signature ptr, x5 is the link ptr, x4 is a temp reg.
  RVTEST_SIGUPD(x20, x5, x4, x25, I_srli_cg_cr_rs1_imm_edges_uimm_rs1val_0x7ffffffe_immval_0x1f, I_srli_cg_cr_rs1_imm_edges_uimm_rs1val_0x7ffffffe_immval_0x1f_str)
    100c:	000a2203          	lw	x4,0(x20)
    1010:	01920863          	beq	x4,x25,1020 <I_srli_cg_cr_rs1_imm_edges_uimm_rs1val_0x7ffffffe_immval_0x1f+0x18>
    1014:	509002ef          	jal	x5,1d1c <failedtest_x5_x4>
    1018:	00001008          	.word	0x00001008
    101c:	00005e42          	.word	0x00005e42
    1020:	004a0a13          	addi	x20,x20,4

# Testcase cr_rs1_imm_edges_uimm (rs1 = 0xffffffff, imm = 0)
  RVTEST_TESTDATA_LOAD_INT(x11, x6) # load rs1: x6 = 0xffffffff
    1024:	0005a303          	lw	x6,0(x11)
    1028:	00458593          	addi	x11,x11,4

0000102c <I_srli_cg_cr_rs1_imm_edges_uimm_rs1val_0xffffffff_immval_0x0>:
I_srli_cg_cr_rs1_imm_edges_uimm_rs1val_0xffffffff_immval_0x0:
  srli x29, x6, 0 # perform operation
    102c:	00035e93          	srli	x29,x6,0x0
  # Check if x29 contains the expected result. x20 is the signature ptr, x5 is the link ptr, x4 is a temp reg.
  RVTEST_SIGUPD(x20, x5, x4, x29, I_srli_cg_cr_rs1_imm_edges_uimm_rs1val_0xffffffff_immval_0x0, I_srli_cg_cr_rs1_imm_edges_uimm_rs1val_0xffffffff_immval_0x0_str)
    1030:	000a2203          	lw	x4,0(x20)
    1034:	01d20863          	beq	x4,x29,1044 <I_srli_cg_cr_rs1_imm_edges_uimm_rs1val_0xffffffff_immval_0x0+0x18>
    1038:	4e5002ef          	jal	x5,1d1c <failedtest_x5_x4>
    103c:	0000102c          	.word	0x0000102c
    1040:	00005e9d          	.word	0x00005e9d
    1044:	004a0a13          	addi	x20,x20,4

# Testcase cr_rs1_imm_edges_uimm (rs1 = 0xffffffff, imm = 1)
  RVTEST_TESTDATA_LOAD_INT(x11, x2) # load rs1: x2 = 0xffffffff
    1048:	0005a103          	lw	x2,0(x11)
    104c:	00458593          	addi	x11,x11,4

00001050 <I_srli_cg_cr_rs1_imm_edges_uimm_rs1val_0xffffffff_immval_0x1>:
I_srli_cg_cr_rs1_imm_edges_uimm_rs1val_0xffffffff_immval_0x1:
  srli x7, x2, 1 # perform operation
    1050:	00115393          	srli	x7,x2,0x1
  # Check if x7 contains the expected result. x20 is the signature ptr, x5 is the link ptr, x4 is a temp reg.
  RVTEST_SIGUPD(x20, x5, x4, x7, I_srli_cg_cr_rs1_imm_edges_uimm_rs1val_0xffffffff_immval_0x1, I_srli_cg_cr_rs1_imm_edges_uimm_rs1val_0xffffffff_immval_0x1_str)
    1054:	000a2203          	lw	x4,0(x20)
    1058:	00720863          	beq	x4,x7,1068 <I_srli_cg_cr_rs1_imm_edges_uimm_rs1val_0xffffffff_immval_0x1+0x18>
    105c:	4c1002ef          	jal	x5,1d1c <failedtest_x5_x4>
    1060:	00001050          	.word	0x00001050
    1064:	00005ef7          	.word	0x00005ef7
    1068:	004a0a13          	addi	x20,x20,4

# Testcase cr_rs1_imm_edges_uimm (rs1 = 0xffffffff, imm = 19)
  RVTEST_TESTDATA_LOAD_INT(x11, x25) # load rs1: x25 = 0xffffffff
    106c:	0005ac83          	lw	x25,0(x11)
    1070:	00458593          	addi	x11,x11,4

00001074 <I_srli_cg_cr_rs1_imm_edges_uimm_rs1val_0xffffffff_immval_0x13>:
I_srli_cg_cr_rs1_imm_edges_uimm_rs1val_0xffffffff_immval_0x13:
  srli x22, x25, 19 # perform operation
    1074:	013cdb13          	srli	x22,x25,0x13
  # Check if x22 contains the expected result. x20 is the signature ptr, x5 is the link ptr, x4 is a temp reg.
  RVTEST_SIGUPD(x20, x5, x4, x22, I_srli_cg_cr_rs1_imm_edges_uimm_rs1val_0xffffffff_immval_0x13, I_srli_cg_cr_rs1_imm_edges_uimm_rs1val_0xffffffff_immval_0x13_str)
    1078:	000a2203          	lw	x4,0(x20)
    107c:	01620863          	beq	x4,x22,108c <I_srli_cg_cr_rs1_imm_edges_uimm_rs1val_0xffffffff_immval_0x13+0x18>
    1080:	49d002ef          	jal	x5,1d1c <failedtest_x5_x4>
    1084:	00001074          	.word	0x00001074
    1088:	00005f51          	.word	0x00005f51
    108c:	004a0a13          	addi	x20,x20,4

# Testcase cr_rs1_imm_edges_uimm (rs1 = 0xffffffff, imm = 30)
  RVTEST_TESTDATA_LOAD_INT(x11, x19) # load rs1: x19 = 0xffffffff
    1090:	0005a983          	lw	x19,0(x11)
    1094:	00458593          	addi	x11,x11,4

00001098 <I_srli_cg_cr_rs1_imm_edges_uimm_rs1val_0xffffffff_immval_0x1e>:
I_srli_cg_cr_rs1_imm_edges_uimm_rs1val_0xffffffff_immval_0x1e:
  srli x22, x19, 30 # perform operation
    1098:	01e9db13          	srli	x22,x19,0x1e
  # Check if x22 contains the expected result. x20 is the signature ptr, x5 is the link ptr, x4 is a temp reg.
  RVTEST_SIGUPD(x20, x5, x4, x22, I_srli_cg_cr_rs1_imm_edges_uimm_rs1val_0xffffffff_immval_0x1e, I_srli_cg_cr_rs1_imm_edges_uimm_rs1val_0xffffffff_immval_0x1e_str)
    109c:	000a2203          	lw	x4,0(x20)
    10a0:	01620863          	beq	x4,x22,10b0 <I_srli_cg_cr_rs1_imm_edges_uimm_rs1val_0xffffffff_immval_0x1e+0x18>
    10a4:	479002ef          	jal	x5,1d1c <failedtest_x5_x4>
    10a8:	00001098          	.word	0x00001098
    10ac:	00005fac          	.word	0x00005fac
    10b0:	004a0a13          	addi	x20,x20,4

# Testcase cr_rs1_imm_edges_uimm (rs1 = 0xffffffff, imm = 31)
  RVTEST_TESTDATA_LOAD_INT(x11, x21) # load rs1: x21 = 0xffffffff
    10b4:	0005aa83          	lw	x21,0(x11)
    10b8:	00458593          	addi	x11,x11,4

000010bc <I_srli_cg_cr_rs1_imm_edges_uimm_rs1val_0xffffffff_immval_0x1f>:
I_srli_cg_cr_rs1_imm_edges_uimm_rs1val_0xffffffff_immval_0x1f:
  srli x3, x21, 31 # perform operation
    10bc:	01fad193          	srli	x3,x21,0x1f
  # Check if x3 contains the expected result. x20 is the signature ptr, x5 is the link ptr, x4 is a temp reg.
  RVTEST_SIGUPD(x20, x5, x4, x3, I_srli_cg_cr_rs1_imm_edges_uimm_rs1val_0xffffffff_immval_0x1f, I_srli_cg_cr_rs1_imm_edges_uimm_rs1val_0xffffffff_immval_0x1f_str)
    10c0:	000a2203          	lw	x4,0(x20)
    10c4:	00320863          	beq	x4,x3,10d4 <I_srli_cg_cr_rs1_imm_edges_uimm_rs1val_0xffffffff_immval_0x1f+0x18>
    10c8:	455002ef          	jal	x5,1d1c <failedtest_x5_x4>
    10cc:	000010bc          	.word	0x000010bc
    10d0:	00006007          	.word	0x00006007
    10d4:	004a0a13          	addi	x20,x20,4

# Testcase cr_rs1_imm_edges_uimm (rs1 = 0xfffffffe, imm = 0)
  RVTEST_TESTDATA_LOAD_INT(x11, x6) # load rs1: x6 = 0xfffffffe
    10d8:	0005a303          	lw	x6,0(x11)
    10dc:	00458593          	addi	x11,x11,4

000010e0 <I_srli_cg_cr_rs1_imm_edges_uimm_rs1val_0xfffffffe_immval_0x0>:
I_srli_cg_cr_rs1_imm_edges_uimm_rs1val_0xfffffffe_immval_0x0:
  srli x15, x6, 0 # perform operation
    10e0:	00035793          	srli	x15,x6,0x0
  # Check if x15 contains the expected result. x20 is the signature ptr, x5 is the link ptr, x4 is a temp reg.
  RVTEST_SIGUPD(x20, x5, x4, x15, I_srli_cg_cr_rs1_imm_edges_uimm_rs1val_0xfffffffe_immval_0x0, I_srli_cg_cr_rs1_imm_edges_uimm_rs1val_0xfffffffe_immval_0x0_str)
    10e4:	000a2203          	lw	x4,0(x20)
    10e8:	00f20863          	beq	x4,x15,10f8 <I_srli_cg_cr_rs1_imm_edges_uimm_rs1val_0xfffffffe_immval_0x0+0x18>
    10ec:	431002ef          	jal	x5,1d1c <failedtest_x5_x4>
    10f0:	000010e0          	.word	0x000010e0
    10f4:	00006062          	.word	0x00006062
    10f8:	004a0a13          	addi	x20,x20,4

# Testcase cr_rs1_imm_edges_uimm (rs1 = 0xfffffffe, imm = 1)
  RVTEST_TESTDATA_LOAD_INT(x11, x28) # load rs1: x28 = 0xfffffffe
    10fc:	0005ae03          	lw	x28,0(x11)
    1100:	00458593          	addi	x11,x11,4

00001104 <I_srli_cg_cr_rs1_imm_edges_uimm_rs1val_0xfffffffe_immval_0x1>:
I_srli_cg_cr_rs1_imm_edges_uimm_rs1val_0xfffffffe_immval_0x1:
  srli x3, x28, 1 # perform operation
    1104:	001e5193          	srli	x3,x28,0x1
  # Check if x3 contains the expected result. x20 is the signature ptr, x5 is the link ptr, x4 is a temp reg.
  RVTEST_SIGUPD(x20, x5, x4, x3, I_srli_cg_cr_rs1_imm_edges_uimm_rs1val_0xfffffffe_immval_0x1, I_srli_cg_cr_rs1_imm_edges_uimm_rs1val_0xfffffffe_immval_0x1_str)
    1108:	000a2203          	lw	x4,0(x20)
    110c:	00320863          	beq	x4,x3,111c <I_srli_cg_cr_rs1_imm_edges_uimm_rs1val_0xfffffffe_immval_0x1+0x18>
    1110:	40d002ef          	jal	x5,1d1c <failedtest_x5_x4>
    1114:	00001104          	.word	0x00001104
    1118:	000060bc          	.word	0x000060bc
    111c:	004a0a13          	addi	x20,x20,4

# Testcase cr_rs1_imm_edges_uimm (rs1 = 0xfffffffe, imm = 19)
  RVTEST_TESTDATA_LOAD_INT(x11, x18) # load rs1: x18 = 0xfffffffe
    1120:	0005a903          	lw	x18,0(x11)
    1124:	00458593          	addi	x11,x11,4

00001128 <I_srli_cg_cr_rs1_imm_edges_uimm_rs1val_0xfffffffe_immval_0x13>:
I_srli_cg_cr_rs1_imm_edges_uimm_rs1val_0xfffffffe_immval_0x13:
  srli x2, x18, 19 # perform operation
    1128:	01395113          	srli	x2,x18,0x13
  # Check if x2 contains the expected result. x20 is the signature ptr, x5 is the link ptr, x4 is a temp reg.
  RVTEST_SIGUPD(x20, x5, x4, x2, I_srli_cg_cr_rs1_imm_edges_uimm_rs1val_0xfffffffe_immval_0x13, I_srli_cg_cr_rs1_imm_edges_uimm_rs1val_0xfffffffe_immval_0x13_str)
    112c:	000a2203          	lw	x4,0(x20)
    1130:	00220863          	beq	x4,x2,1140 <I_srli_cg_cr_rs1_imm_edges_uimm_rs1val_0xfffffffe_immval_0x13+0x18>
    1134:	3e9002ef          	jal	x5,1d1c <failedtest_x5_x4>
    1138:	00001128          	.word	0x00001128
    113c:	00006116          	.word	0x00006116
    1140:	004a0a13          	addi	x20,x20,4

# Testcase cr_rs1_imm_edges_uimm (rs1 = 0xfffffffe, imm = 30)
  RVTEST_TESTDATA_LOAD_INT(x11, x14) # load rs1: x14 = 0xfffffffe
    1144:	0005a703          	lw	x14,0(x11)
    1148:	00458593          	addi	x11,x11,4

0000114c <I_srli_cg_cr_rs1_imm_edges_uimm_rs1val_0xfffffffe_immval_0x1e>:
I_srli_cg_cr_rs1_imm_edges_uimm_rs1val_0xfffffffe_immval_0x1e:
  srli x16, x14, 30 # perform operation
    114c:	01e75813          	srli	x16,x14,0x1e
  # Check if x16 contains the expected result. x20 is the signature ptr, x5 is the link ptr, x4 is a temp reg.
  RVTEST_SIGUPD(x20, x5, x4, x16, I_srli_cg_cr_rs1_imm_edges_uimm_rs1val_0xfffffffe_immval_0x1e, I_srli_cg_cr_rs1_imm_edges_uimm_rs1val_0xfffffffe_immval_0x1e_str)
    1150:	000a2203          	lw	x4,0(x20)
    1154:	01020863          	beq	x4,x16,1164 <I_srli_cg_cr_rs1_imm_edges_uimm_rs1val_0xfffffffe_immval_0x1e+0x18>
    1158:	3c5002ef          	jal	x5,1d1c <failedtest_x5_x4>
    115c:	0000114c          	.word	0x0000114c
    1160:	00006171          	.word	0x00006171
    1164:	004a0a13          	addi	x20,x20,4

# Testcase cr_rs1_imm_edges_uimm (rs1 = 0xfffffffe, imm = 31)
  RVTEST_TESTDATA_LOAD_INT(x11, x21) # load rs1: x21 = 0xfffffffe
    1168:	0005aa83          	lw	x21,0(x11)
    116c:	00458593          	addi	x11,x11,4

00001170 <I_srli_cg_cr_rs1_imm_edges_uimm_rs1val_0xfffffffe_immval_0x1f>:
I_srli_cg_cr_rs1_imm_edges_uimm_rs1val_0xfffffffe_immval_0x1f:
  srli x15, x21, 31 # perform operation
    1170:	01fad793          	srli	x15,x21,0x1f
  # Check if x15 contains the expected result. x20 is the signature ptr, x5 is the link ptr, x4 is a temp reg.
  RVTEST_SIGUPD(x20, x5, x4, x15, I_srli_cg_cr_rs1_imm_edges_uimm_rs1val_0xfffffffe_immval_0x1f, I_srli_cg_cr_rs1_imm_edges_uimm_rs1val_0xfffffffe_immval_0x1f_str)
    1174:	000a2203          	lw	x4,0(x20)
    1178:	00f20863          	beq	x4,x15,1188 <I_srli_cg_cr_rs1_imm_edges_uimm_rs1val_0xfffffffe_immval_0x1f+0x18>
    117c:	3a1002ef          	jal	x5,1d1c <failedtest_x5_x4>
    1180:	00001170          	.word	0x00001170
    1184:	000061cc          	.word	0x000061cc
    1188:	004a0a13          	addi	x20,x20,4

# Testcase cr_rs1_imm_edges_uimm (rs1 = 0x5bbc8872, imm = 0)
  RVTEST_TESTDATA_LOAD_INT(x11, x26) # load rs1: x26 = 0x5bbc8872
    118c:	0005ad03          	lw	x26,0(x11)
    1190:	00458593          	addi	x11,x11,4

00001194 <I_srli_cg_cr_rs1_imm_edges_uimm_rs1val_0x5bbc8872_immval_0x0>:
I_srli_cg_cr_rs1_imm_edges_uimm_rs1val_0x5bbc8872_immval_0x0:
  srli x16, x26, 0 # perform operation
    1194:	000d5813          	srli	x16,x26,0x0
  # Check if x16 contains the expected result. x20 is the signature ptr, x5 is the link ptr, x4 is a temp reg.
  RVTEST_SIGUPD(x20, x5, x4, x16, I_srli_cg_cr_rs1_imm_edges_uimm_rs1val_0x5bbc8872_immval_0x0, I_srli_cg_cr_rs1_imm_edges_uimm_rs1val_0x5bbc8872_immval_0x0_str)
    1198:	000a2203          	lw	x4,0(x20)
    119c:	01020863          	beq	x4,x16,11ac <I_srli_cg_cr_rs1_imm_edges_uimm_rs1val_0x5bbc8872_immval_0x0+0x18>
    11a0:	37d002ef          	jal	x5,1d1c <failedtest_x5_x4>
    11a4:	00001194          	.word	0x00001194
    11a8:	00006227          	.word	0x00006227
    11ac:	004a0a13          	addi	x20,x20,4

# Testcase cr_rs1_imm_edges_uimm (rs1 = 0x5bbc8872, imm = 1)
  RVTEST_TESTDATA_LOAD_INT(x11, x12) # load rs1: x12 = 0x5bbc8872
    11b0:	0005a603          	lw	x12,0(x11)
    11b4:	00458593          	addi	x11,x11,4

000011b8 <I_srli_cg_cr_rs1_imm_edges_uimm_rs1val_0x5bbc8872_immval_0x1>:
I_srli_cg_cr_rs1_imm_edges_uimm_rs1val_0x5bbc8872_immval_0x1:
  srli x7, x12, 1 # perform operation
    11b8:	00165393          	srli	x7,x12,0x1
  # Check if x7 contains the expected result. x20 is the signature ptr, x5 is the link ptr, x4 is a temp reg.
  RVTEST_SIGUPD(x20, x5, x4, x7, I_srli_cg_cr_rs1_imm_edges_uimm_rs1val_0x5bbc8872_immval_0x1, I_srli_cg_cr_rs1_imm_edges_uimm_rs1val_0x5bbc8872_immval_0x1_str)
    11bc:	000a2203          	lw	x4,0(x20)
    11c0:	00720863          	beq	x4,x7,11d0 <I_srli_cg_cr_rs1_imm_edges_uimm_rs1val_0x5bbc8872_immval_0x1+0x18>
    11c4:	359002ef          	jal	x5,1d1c <failedtest_x5_x4>
    11c8:	000011b8          	.word	0x000011b8
    11cc:	00006281          	.word	0x00006281
    11d0:	004a0a13          	addi	x20,x20,4

# Testcase cr_rs1_imm_edges_uimm (rs1 = 0x5bbc8872, imm = 19)
  RVTEST_TESTDATA_LOAD_INT(x11, x22) # load rs1: x22 = 0x5bbc8872
    11d4:	0005ab03          	lw	x22,0(x11)
    11d8:	00458593          	addi	x11,x11,4

000011dc <I_srli_cg_cr_rs1_imm_edges_uimm_rs1val_0x5bbc8872_immval_0x13>:
I_srli_cg_cr_rs1_imm_edges_uimm_rs1val_0x5bbc8872_immval_0x13:
  srli x8, x22, 19 # perform operation
    11dc:	013b5413          	srli	x8,x22,0x13
  # Check if x8 contains the expected result. x20 is the signature ptr, x5 is the link ptr, x4 is a temp reg.
  RVTEST_SIGUPD(x20, x5, x4, x8, I_srli_cg_cr_rs1_imm_edges_uimm_rs1val_0x5bbc8872_immval_0x13, I_srli_cg_cr_rs1_imm_edges_uimm_rs1val_0x5bbc8872_immval_0x13_str)
    11e0:	000a2203          	lw	x4,0(x20)
    11e4:	00820863          	beq	x4,x8,11f4 <I_srli_cg_cr_rs1_imm_edges_uimm_rs1val_0x5bbc8872_immval_0x13+0x18>
    11e8:	335002ef          	jal	x5,1d1c <failedtest_x5_x4>
    11ec:	000011dc          	.word	0x000011dc
    11f0:	000062db          	.word	0x000062db
    11f4:	004a0a13          	addi	x20,x20,4

# Testcase cr_rs1_imm_edges_uimm (rs1 = 0x5bbc8872, imm = 30)
  RVTEST_TESTDATA_LOAD_INT(x11, x26) # load rs1: x26 = 0x5bbc8872
    11f8:	0005ad03          	lw	x26,0(x11)
    11fc:	00458593          	addi	x11,x11,4

00001200 <I_srli_cg_cr_rs1_imm_edges_uimm_rs1val_0x5bbc8872_immval_0x1e>:
I_srli_cg_cr_rs1_imm_edges_uimm_rs1val_0x5bbc8872_immval_0x1e:
  srli x3, x26, 30 # perform operation
    1200:	01ed5193          	srli	x3,x26,0x1e
  # Check if x3 contains the expected result. x20 is the signature ptr, x5 is the link ptr, x4 is a temp reg.
  RVTEST_SIGUPD(x20, x5, x4, x3, I_srli_cg_cr_rs1_imm_edges_uimm_rs1val_0x5bbc8872_immval_0x1e, I_srli_cg_cr_rs1_imm_edges_uimm_rs1val_0x5bbc8872_immval_0x1e_str)
    1204:	000a2203          	lw	x4,0(x20)
    1208:	00320863          	beq	x4,x3,1218 <I_srli_cg_cr_rs1_imm_edges_uimm_rs1val_0x5bbc8872_immval_0x1e+0x18>
    120c:	311002ef          	jal	x5,1d1c <failedtest_x5_x4>
    1210:	00001200          	.word	0x00001200
    1214:	00006336          	.word	0x00006336
    1218:	004a0a13          	addi	x20,x20,4

# Testcase cr_rs1_imm_edges_uimm (rs1 = 0x5bbc8872, imm = 31)
  RVTEST_TESTDATA_LOAD_INT(x11, x29) # load rs1: x29 = 0x5bbc8872
    121c:	0005ae83          	lw	x29,0(x11)
    1220:	00458593          	addi	x11,x11,4

00001224 <I_srli_cg_cr_rs1_imm_edges_uimm_rs1val_0x5bbc8872_immval_0x1f>:
I_srli_cg_cr_rs1_imm_edges_uimm_rs1val_0x5bbc8872_immval_0x1f:
  srli x27, x29, 31 # perform operation
    1224:	01fedd93          	srli	x27,x29,0x1f
  # Check if x27 contains the expected result. x20 is the signature ptr, x5 is the link ptr, x4 is a temp reg.
  RVTEST_SIGUPD(x20, x5, x4, x27, I_srli_cg_cr_rs1_imm_edges_uimm_rs1val_0x5bbc8872_immval_0x1f, I_srli_cg_cr_rs1_imm_edges_uimm_rs1val_0x5bbc8872_immval_0x1f_str)
    1228:	000a2203          	lw	x4,0(x20)
    122c:	01b20863          	beq	x4,x27,123c <I_srli_cg_cr_rs1_imm_edges_uimm_rs1val_0x5bbc8872_immval_0x1f+0x18>
    1230:	2ed002ef          	jal	x5,1d1c <failedtest_x5_x4>
    1234:	00001224          	.word	0x00001224
    1238:	00006391          	.word	0x00006391
    123c:	004a0a13          	addi	x20,x20,4

# Testcase cr_rs1_imm_edges_uimm (rs1 = 0xaaaaaaaa, imm = 0)
  RVTEST_TESTDATA_LOAD_INT(x11, x17) # load rs1: x17 = 0xaaaaaaaa
    1240:	0005a883          	lw	x17,0(x11)
    1244:	00458593          	addi	x11,x11,4

00001248 <I_srli_cg_cr_rs1_imm_edges_uimm_rs1val_0xaaaaaaaa_immval_0x0>:
I_srli_cg_cr_rs1_imm_edges_uimm_rs1val_0xaaaaaaaa_immval_0x0:
  srli x2, x17, 0 # perform operation
    1248:	0008d113          	srli	x2,x17,0x0
  # Check if x2 contains the expected result. x20 is the signature ptr, x5 is the link ptr, x4 is a temp reg.
  RVTEST_SIGUPD(x20, x5, x4, x2, I_srli_cg_cr_rs1_imm_edges_uimm_rs1val_0xaaaaaaaa_immval_0x0, I_srli_cg_cr_rs1_imm_edges_uimm_rs1val_0xaaaaaaaa_immval_0x0_str)
    124c:	000a2203          	lw	x4,0(x20)
    1250:	00220863          	beq	x4,x2,1260 <I_srli_cg_cr_rs1_imm_edges_uimm_rs1val_0xaaaaaaaa_immval_0x0+0x18>
    1254:	2c9002ef          	jal	x5,1d1c <failedtest_x5_x4>
    1258:	00001248          	.word	0x00001248
    125c:	000063ec          	.word	0x000063ec
    1260:	004a0a13          	addi	x20,x20,4

# Testcase cr_rs1_imm_edges_uimm (rs1 = 0xaaaaaaaa, imm = 1)
  RVTEST_TESTDATA_LOAD_INT(x11, x3) # load rs1: x3 = 0xaaaaaaaa
    1264:	0005a183          	lw	x3,0(x11)
    1268:	00458593          	addi	x11,x11,4

0000126c <I_srli_cg_cr_rs1_imm_edges_uimm_rs1val_0xaaaaaaaa_immval_0x1>:
I_srli_cg_cr_rs1_imm_edges_uimm_rs1val_0xaaaaaaaa_immval_0x1:
  srli x26, x3, 1 # perform operation
    126c:	0011dd13          	srli	x26,x3,0x1
  # Check if x26 contains the expected result. x20 is the signature ptr, x5 is the link ptr, x4 is a temp reg.
  RVTEST_SIGUPD(x20, x5, x4, x26, I_srli_cg_cr_rs1_imm_edges_uimm_rs1val_0xaaaaaaaa_immval_0x1, I_srli_cg_cr_rs1_imm_edges_uimm_rs1val_0xaaaaaaaa_immval_0x1_str)
    1270:	000a2203          	lw	x4,0(x20)
    1274:	01a20863          	beq	x4,x26,1284 <I_srli_cg_cr_rs1_imm_edges_uimm_rs1val_0xaaaaaaaa_immval_0x1+0x18>
    1278:	2a5002ef          	jal	x5,1d1c <failedtest_x5_x4>
    127c:	0000126c          	.word	0x0000126c
    1280:	00006446          	.word	0x00006446
    1284:	004a0a13          	addi	x20,x20,4

# Testcase cr_rs1_imm_edges_uimm (rs1 = 0xaaaaaaaa, imm = 19)
  RVTEST_TESTDATA_LOAD_INT(x11, x26) # load rs1: x26 = 0xaaaaaaaa
    1288:	0005ad03          	lw	x26,0(x11)
    128c:	00458593          	addi	x11,x11,4

00001290 <I_srli_cg_cr_rs1_imm_edges_uimm_rs1val_0xaaaaaaaa_immval_0x13>:
I_srli_cg_cr_rs1_imm_edges_uimm_rs1val_0xaaaaaaaa_immval_0x13:
  srli x17, x26, 19 # perform operation
    1290:	013d5893          	srli	x17,x26,0x13
  # Check if x17 contains the expected result. x20 is the signature ptr, x5 is the link ptr, x4 is a temp reg.
  RVTEST_SIGUPD(x20, x5, x4, x17, I_srli_cg_cr_rs1_imm_edges_uimm_rs1val_0xaaaaaaaa_immval_0x13, I_srli_cg_cr_rs1_imm_edges_uimm_rs1val_0xaaaaaaaa_immval_0x13_str)
    1294:	000a2203          	lw	x4,0(x20)
    1298:	01120863          	beq	x4,x17,12a8 <I_srli_cg_cr_rs1_imm_edges_uimm_rs1val_0xaaaaaaaa_immval_0x13+0x18>
    129c:	281002ef          	jal	x5,1d1c <failedtest_x5_x4>
    12a0:	00001290          	.word	0x00001290
    12a4:	000064a0          	.word	0x000064a0
    12a8:	004a0a13          	addi	x20,x20,4

# Testcase cr_rs1_imm_edges_uimm (rs1 = 0xaaaaaaaa, imm = 30)
  RVTEST_TESTDATA_LOAD_INT(x11, x28) # load rs1: x28 = 0xaaaaaaaa
    12ac:	0005ae03          	lw	x28,0(x11)
    12b0:	00458593          	addi	x11,x11,4

000012b4 <I_srli_cg_cr_rs1_imm_edges_uimm_rs1val_0xaaaaaaaa_immval_0x1e>:
I_srli_cg_cr_rs1_imm_edges_uimm_rs1val_0xaaaaaaaa_immval_0x1e:
  srli x6, x28, 30 # perform operation
    12b4:	01ee5313          	srli	x6,x28,0x1e
  # Check if x6 contains the expected result. x20 is the signature ptr, x5 is the link ptr, x4 is a temp reg.
  RVTEST_SIGUPD(x20, x5, x4, x6, I_srli_cg_cr_rs1_imm_edges_uimm_rs1val_0xaaaaaaaa_immval_0x1e, I_srli_cg_cr_rs1_imm_edges_uimm_rs1val_0xaaaaaaaa_immval_0x1e_str)
    12b8:	000a2203          	lw	x4,0(x20)
    12bc:	00620863          	beq	x4,x6,12cc <I_srli_cg_cr_rs1_imm_edges_uimm_rs1val_0xaaaaaaaa_immval_0x1e+0x18>
    12c0:	25d002ef          	jal	x5,1d1c <failedtest_x5_x4>
    12c4:	000012b4          	.word	0x000012b4
    12c8:	000064fb          	.word	0x000064fb
    12cc:	004a0a13          	addi	x20,x20,4

# Testcase cr_rs1_imm_edges_uimm (rs1 = 0xaaaaaaaa, imm = 31)
  RVTEST_TESTDATA_LOAD_INT(x11, x28) # load rs1: x28 = 0xaaaaaaaa
    12d0:	0005ae03          	lw	x28,0(x11)
    12d4:	00458593          	addi	x11,x11,4

000012d8 <I_srli_cg_cr_rs1_imm_edges_uimm_rs1val_0xaaaaaaaa_immval_0x1f>:
I_srli_cg_cr_rs1_imm_edges_uimm_rs1val_0xaaaaaaaa_immval_0x1f:
  srli x10, x28, 31 # perform operation
    12d8:	01fe5513          	srli	x10,x28,0x1f
  # Check if x10 contains the expected result. x20 is the signature ptr, x5 is the link ptr, x4 is a temp reg.
  RVTEST_SIGUPD(x20, x5, x4, x10, I_srli_cg_cr_rs1_imm_edges_uimm_rs1val_0xaaaaaaaa_immval_0x1f, I_srli_cg_cr_rs1_imm_edges_uimm_rs1val_0xaaaaaaaa_immval_0x1f_str)
    12dc:	000a2203          	lw	x4,0(x20)
    12e0:	00a20863          	beq	x4,x10,12f0 <I_srli_cg_cr_rs1_imm_edges_uimm_rs1val_0xaaaaaaaa_immval_0x1f+0x18>
    12e4:	239002ef          	jal	x5,1d1c <failedtest_x5_x4>
    12e8:	000012d8          	.word	0x000012d8
    12ec:	00006556          	.word	0x00006556
    12f0:	004a0a13          	addi	x20,x20,4

# Testcase cr_rs1_imm_edges_uimm (rs1 = 0x55555555, imm = 0)
  RVTEST_TESTDATA_LOAD_INT(x11, x16) # load rs1: x16 = 0x55555555
    12f4:	0005a803          	lw	x16,0(x11)
    12f8:	00458593          	addi	x11,x11,4

000012fc <I_srli_cg_cr_rs1_imm_edges_uimm_rs1val_0x55555555_immval_0x0>:
I_srli_cg_cr_rs1_imm_edges_uimm_rs1val_0x55555555_immval_0x0:
  srli x9, x16, 0 # perform operation
    12fc:	00085493          	srli	x9,x16,0x0
  # Check if x9 contains the expected result. x20 is the signature ptr, x5 is the link ptr, x4 is a temp reg.
  RVTEST_SIGUPD(x20, x5, x4, x9, I_srli_cg_cr_rs1_imm_edges_uimm_rs1val_0x55555555_immval_0x0, I_srli_cg_cr_rs1_imm_edges_uimm_rs1val_0x55555555_immval_0x0_str)
    1300:	000a2203          	lw	x4,0(x20)
    1304:	00920863          	beq	x4,x9,1314 <I_srli_cg_cr_rs1_imm_edges_uimm_rs1val_0x55555555_immval_0x0+0x18>
    1308:	215002ef          	jal	x5,1d1c <failedtest_x5_x4>
    130c:	000012fc          	.word	0x000012fc
    1310:	000065b1          	.word	0x000065b1
    1314:	004a0a13          	addi	x20,x20,4

# Testcase cr_rs1_imm_edges_uimm (rs1 = 0x55555555, imm = 1)
  RVTEST_TESTDATA_LOAD_INT(x11, x21) # load rs1: x21 = 0x55555555
    1318:	0005aa83          	lw	x21,0(x11)
    131c:	00458593          	addi	x11,x11,4

00001320 <I_srli_cg_cr_rs1_imm_edges_uimm_rs1val_0x55555555_immval_0x1>:
I_srli_cg_cr_rs1_imm_edges_uimm_rs1val_0x55555555_immval_0x1:
  srli x16, x21, 1 # perform operation
    1320:	001ad813          	srli	x16,x21,0x1
  # Check if x16 contains the expected result. x20 is the signature ptr, x5 is the link ptr, x4 is a temp reg.
  RVTEST_SIGUPD(x20, x5, x4, x16, I_srli_cg_cr_rs1_imm_edges_uimm_rs1val_0x55555555_immval_0x1, I_srli_cg_cr_rs1_imm_edges_uimm_rs1val_0x55555555_immval_0x1_str)
    1324:	000a2203          	lw	x4,0(x20)
    1328:	01020863          	beq	x4,x16,1338 <I_srli_cg_cr_rs1_imm_edges_uimm_rs1val_0x55555555_immval_0x1+0x18>
    132c:	1f1002ef          	jal	x5,1d1c <failedtest_x5_x4>
    1330:	00001320          	.word	0x00001320
    1334:	0000660b          	.word	0x0000660b
    1338:	004a0a13          	addi	x20,x20,4

# Testcase cr_rs1_imm_edges_uimm (rs1 = 0x55555555, imm = 19)
  RVTEST_TESTDATA_LOAD_INT(x11, x21) # load rs1: x21 = 0x55555555
    133c:	0005aa83          	lw	x21,0(x11)
    1340:	00458593          	addi	x11,x11,4

00001344 <I_srli_cg_cr_rs1_imm_edges_uimm_rs1val_0x55555555_immval_0x13>:
I_srli_cg_cr_rs1_imm_edges_uimm_rs1val_0x55555555_immval_0x13:
  srli x27, x21, 19 # perform operation
    1344:	013add93          	srli	x27,x21,0x13
  # Check if x27 contains the expected result. x20 is the signature ptr, x5 is the link ptr, x4 is a temp reg.
  RVTEST_SIGUPD(x20, x5, x4, x27, I_srli_cg_cr_rs1_imm_edges_uimm_rs1val_0x55555555_immval_0x13, I_srli_cg_cr_rs1_imm_edges_uimm_rs1val_0x55555555_immval_0x13_str)
    1348:	000a2203          	lw	x4,0(x20)
    134c:	01b20863          	beq	x4,x27,135c <I_srli_cg_cr_rs1_imm_edges_uimm_rs1val_0x55555555_immval_0x13+0x18>
    1350:	1cd002ef          	jal	x5,1d1c <failedtest_x5_x4>
    1354:	00001344          	.word	0x00001344
    1358:	00006665          	.word	0x00006665
    135c:	004a0a13          	addi	x20,x20,4

# Testcase cr_rs1_imm_edges_uimm (rs1 = 0x55555555, imm = 30)
  RVTEST_TESTDATA_LOAD_INT(x11, x21) # load rs1: x21 = 0x55555555
    1360:	0005aa83          	lw	x21,0(x11)
    1364:	00458593          	addi	x11,x11,4

00001368 <I_srli_cg_cr_rs1_imm_edges_uimm_rs1val_0x55555555_immval_0x1e>:
I_srli_cg_cr_rs1_imm_edges_uimm_rs1val_0x55555555_immval_0x1e:
  srli x29, x21, 30 # perform operation
    1368:	01eade93          	srli	x29,x21,0x1e
  # Check if x29 contains the expected result. x20 is the signature ptr, x5 is the link ptr, x4 is a temp reg.
  RVTEST_SIGUPD(x20, x5, x4, x29, I_srli_cg_cr_rs1_imm_edges_uimm_rs1val_0x55555555_immval_0x1e, I_srli_cg_cr_rs1_imm_edges_uimm_rs1val_0x55555555_immval_0x1e_str)
    136c:	000a2203          	lw	x4,0(x20)
    1370:	01d20863          	beq	x4,x29,1380 <I_srli_cg_cr_rs1_imm_edges_uimm_rs1val_0x55555555_immval_0x1e+0x18>
    1374:	1a9002ef          	jal	x5,1d1c <failedtest_x5_x4>
    1378:	00001368          	.word	0x00001368
    137c:	000066c0          	.word	0x000066c0
    1380:	004a0a13          	addi	x20,x20,4

# Testcase cr_rs1_imm_edges_uimm (rs1 = 0x55555555, imm = 31)
  RVTEST_TESTDATA_LOAD_INT(x11, x27) # load rs1: x27 = 0x55555555
    1384:	0005ad83          	lw	x27,0(x11)
    1388:	00458593          	addi	x11,x11,4

0000138c <I_srli_cg_cr_rs1_imm_edges_uimm_rs1val_0x55555555_immval_0x1f>:
I_srli_cg_cr_rs1_imm_edges_uimm_rs1val_0x55555555_immval_0x1f:
  srli x17, x27, 31 # perform operation
    138c:	01fdd893          	srli	x17,x27,0x1f
  # Check if x17 contains the expected result. x20 is the signature ptr, x5 is the link ptr, x4 is a temp reg.
  RVTEST_SIGUPD(x20, x5, x4, x17, I_srli_cg_cr_rs1_imm_edges_uimm_rs1val_0x55555555_immval_0x1f, I_srli_cg_cr_rs1_imm_edges_uimm_rs1val_0x55555555_immval_0x1f_str)
    1390:	000a2203          	lw	x4,0(x20)
    1394:	01120863          	beq	x4,x17,13a4 <I_srli_cg_cr_rs1_imm_edges_uimm_rs1val_0x55555555_immval_0x1f+0x18>
    1398:	185002ef          	jal	x5,1d1c <failedtest_x5_x4>
    139c:	0000138c          	.word	0x0000138c
    13a0:	0000671b          	.word	0x0000671b
    13a4:	004a0a13          	addi	x20,x20,4
/////////////////////////////////
// cmp_rd_rs1
/////////////////////////////////

# Testcase cmp_rd_rs1 (Test rd = rs1 = x0)
  RVTEST_TESTDATA_LOAD_INT(x11, x0) # load rs1: x0 = 0xb4e6a4a5
    13a8:	0005a003          	lw	x0,0(x11)
    13ac:	00458593          	addi	x11,x11,4

000013b0 <I_srli_cg_cmp_rd_rs1_b0>:
I_srli_cg_cmp_rd_rs1_b0:
  srli x0, x0, 28 # perform operation
    13b0:	01c05013          	srli	x0,x0,0x1c
  # Check if x0 contains the expected result. x20 is the signature ptr, x5 is the link ptr, x4 is a temp reg.
  RVTEST_SIGUPD(x20, x5, x4, x0, I_srli_cg_cmp_rd_rs1_b0, I_srli_cg_cmp_rd_rs1_b0_str)
    13b4:	000a2203          	lw	x4,0(x20)
    13b8:	00020863          	beq	x4,x0,13c8 <I_srli_cg_cmp_rd_rs1_b0+0x18>
    13bc:	161002ef          	jal	x5,1d1c <failedtest_x5_x4>
    13c0:	000013b0          	.word	0x000013b0
    13c4:	00006776          	.word	0x00006776
    13c8:	004a0a13          	addi	x20,x20,4

# Testcase cmp_rd_rs1 (Test rd = rs1 = x1)
  RVTEST_TESTDATA_LOAD_INT(x11, x1) # load rs1: x1 = 0x359bdfd1
    13cc:	0005a083          	lw	x1,0(x11)
    13d0:	00458593          	addi	x11,x11,4

000013d4 <I_srli_cg_cmp_rd_rs1_b1>:
I_srli_cg_cmp_rd_rs1_b1:
  srli x1, x1, 11 # perform operation
    13d4:	00b0d093          	srli	x1,x1,0xb
  # Check if x1 contains the expected result. x20 is the signature ptr, x5 is the link ptr, x4 is a temp reg.
  RVTEST_SIGUPD(x20, x5, x4, x1, I_srli_cg_cmp_rd_rs1_b1, I_srli_cg_cmp_rd_rs1_b1_str)
    13d8:	000a2203          	lw	x4,0(x20)
    13dc:	00120863          	beq	x4,x1,13ec <I_srli_cg_cmp_rd_rs1_b1+0x18>
    13e0:	13d002ef          	jal	x5,1d1c <failedtest_x5_x4>
    13e4:	000013d4          	.word	0x000013d4
    13e8:	000067aa          	.word	0x000067aa
    13ec:	004a0a13          	addi	x20,x20,4

# Testcase cmp_rd_rs1 (Test rd = rs1 = x2)
  RVTEST_TESTDATA_LOAD_INT(x11, x2) # load rs1: x2 = 0x5c7ef4ab
    13f0:	0005a103          	lw	x2,0(x11)
    13f4:	00458593          	addi	x11,x11,4

000013f8 <I_srli_cg_cmp_rd_rs1_b2>:
I_srli_cg_cmp_rd_rs1_b2:
  srli x2, x2, 19 # perform operation
    13f8:	01315113          	srli	x2,x2,0x13
  # Check if x2 contains the expected result. x20 is the signature ptr, x5 is the link ptr, x4 is a temp reg.
  RVTEST_SIGUPD(x20, x5, x4, x2, I_srli_cg_cmp_rd_rs1_b2, I_srli_cg_cmp_rd_rs1_b2_str)
    13fc:	000a2203          	lw	x4,0(x20)
    1400:	00220863          	beq	x4,x2,1410 <I_srli_cg_cmp_rd_rs1_b2+0x18>
    1404:	119002ef          	jal	x5,1d1c <failedtest_x5_x4>
    1408:	000013f8          	.word	0x000013f8
    140c:	000067de          	.word	0x000067de
    1410:	004a0a13          	addi	x20,x20,4

# Testcase cmp_rd_rs1 (Test rd = rs1 = x3)
  RVTEST_TESTDATA_LOAD_INT(x11, x3) # load rs1: x3 = 0x385624a7
    1414:	0005a183          	lw	x3,0(x11)
    1418:	00458593          	addi	x11,x11,4

0000141c <I_srli_cg_cmp_rd_rs1_b3>:
I_srli_cg_cmp_rd_rs1_b3:
  srli x3, x3, 15 # perform operation
    141c:	00f1d193          	srli	x3,x3,0xf
  # Check if x3 contains the expected result. x20 is the signature ptr, x5 is the link ptr, x4 is a temp reg.
  RVTEST_SIGUPD(x20, x5, x4, x3, I_srli_cg_cmp_rd_rs1_b3, I_srli_cg_cmp_rd_rs1_b3_str)
    1420:	000a2203          	lw	x4,0(x20)
    1424:	00320863          	beq	x4,x3,1434 <I_srli_cg_cmp_rd_rs1_b3+0x18>
    1428:	0f5002ef          	jal	x5,1d1c <failedtest_x5_x4>
    142c:	0000141c          	.word	0x0000141c
    1430:	00006812          	.word	0x00006812
    1434:	004a0a13          	addi	x20,x20,4

  mv x13, x4 # switch temp register to avoid conflict with test
    1438:	00020693          	addi	x13,x4,0 # 0 <rvtest_entry_point>
  mv x14, x5 # switch link pointer register to avoid conflict with test
    143c:	00028713          	addi	x14,x5,0
# Testcase cmp_rd_rs1 (Test rd = rs1 = x4)
  RVTEST_TESTDATA_LOAD_INT(x11, x4) # load rs1: x4 = 0x36305b1b
    1440:	0005a203          	lw	x4,0(x11)
    1444:	00458593          	addi	x11,x11,4

00001448 <I_srli_cg_cmp_rd_rs1_b4>:
I_srli_cg_cmp_rd_rs1_b4:
  srli x4, x4, 10 # perform operation
    1448:	00a25213          	srli	x4,x4,0xa
  # Check if x4 contains the expected result. x20 is the signature ptr, x14 is the link ptr, x13 is a temp reg.
  RVTEST_SIGUPD(x20, x14, x13, x4, I_srli_cg_cmp_rd_rs1_b4, I_srli_cg_cmp_rd_rs1_b4_str)
    144c:	000a2683          	lw	x13,0(x20)
    1450:	00468863          	beq	x13,x4,1460 <I_srli_cg_cmp_rd_rs1_b4+0x18>
    1454:	1090076f          	jal	x14,1d5c <failedtest_x14_x13>
    1458:	00001448          	.word	0x00001448
    145c:	00006846          	.word	0x00006846
    1460:	004a0a13          	addi	x20,x20,4

# Testcase cmp_rd_rs1 (Test rd = rs1 = x5)
  RVTEST_TESTDATA_LOAD_INT(x11, x5) # load rs1: x5 = 0x7432afb1
    1464:	0005a283          	lw	x5,0(x11)
    1468:	00458593          	addi	x11,x11,4

0000146c <I_srli_cg_cmp_rd_rs1_b5>:
I_srli_cg_cmp_rd_rs1_b5:
  srli x5, x5, 31 # perform operation
    146c:	01f2d293          	srli	x5,x5,0x1f
  # Check if x5 contains the expected result. x20 is the signature ptr, x14 is the link ptr, x13 is a temp reg.
  RVTEST_SIGUPD(x20, x14, x13, x5, I_srli_cg_cmp_rd_rs1_b5, I_srli_cg_cmp_rd_rs1_b5_str)
    1470:	000a2683          	lw	x13,0(x20)
    1474:	00568863          	beq	x13,x5,1484 <I_srli_cg_cmp_rd_rs1_b5+0x18>
    1478:	0e50076f          	jal	x14,1d5c <failedtest_x14_x13>
    147c:	0000146c          	.word	0x0000146c
    1480:	0000687a          	.word	0x0000687a
    1484:	004a0a13          	addi	x20,x20,4

# Testcase cmp_rd_rs1 (Test rd = rs1 = x6)
  RVTEST_TESTDATA_LOAD_INT(x11, x6) # load rs1: x6 = 0x708e4002
    1488:	0005a303          	lw	x6,0(x11)
    148c:	00458593          	addi	x11,x11,4

00001490 <I_srli_cg_cmp_rd_rs1_b6>:
I_srli_cg_cmp_rd_rs1_b6:
  srli x6, x6, 17 # perform operation
    1490:	01135313          	srli	x6,x6,0x11
  # Check if x6 contains the expected result. x20 is the signature ptr, x14 is the link ptr, x13 is a temp reg.
  RVTEST_SIGUPD(x20, x14, x13, x6, I_srli_cg_cmp_rd_rs1_b6, I_srli_cg_cmp_rd_rs1_b6_str)
    1494:	000a2683          	lw	x13,0(x20)
    1498:	00668863          	beq	x13,x6,14a8 <I_srli_cg_cmp_rd_rs1_b6+0x18>
    149c:	0c10076f          	jal	x14,1d5c <failedtest_x14_x13>
    14a0:	00001490          	.word	0x00001490
    14a4:	000068ae          	.word	0x000068ae
    14a8:	004a0a13          	addi	x20,x20,4

# Testcase cmp_rd_rs1 (Test rd = rs1 = x7)
  RVTEST_TESTDATA_LOAD_INT(x11, x7) # load rs1: x7 = 0xca6d8d8c
    14ac:	0005a383          	lw	x7,0(x11)
    14b0:	00458593          	addi	x11,x11,4

000014b4 <I_srli_cg_cmp_rd_rs1_b7>:
I_srli_cg_cmp_rd_rs1_b7:
  srli x7, x7, 18 # perform operation
    14b4:	0123d393          	srli	x7,x7,0x12
  # Check if x7 contains the expected result. x20 is the signature ptr, x14 is the link ptr, x13 is a temp reg.
  RVTEST_SIGUPD(x20, x14, x13, x7, I_srli_cg_cmp_rd_rs1_b7, I_srli_cg_cmp_rd_rs1_b7_str)
    14b8:	000a2683          	lw	x13,0(x20)
    14bc:	00768863          	beq	x13,x7,14cc <I_srli_cg_cmp_rd_rs1_b7+0x18>
    14c0:	09d0076f          	jal	x14,1d5c <failedtest_x14_x13>
    14c4:	000014b4          	.word	0x000014b4
    14c8:	000068e2          	.word	0x000068e2
    14cc:	004a0a13          	addi	x20,x20,4

# Testcase cmp_rd_rs1 (Test rd = rs1 = x8)
  RVTEST_TESTDATA_LOAD_INT(x11, x8) # load rs1: x8 = 0x1f2cda79
    14d0:	0005a403          	lw	x8,0(x11)
    14d4:	00458593          	addi	x11,x11,4

000014d8 <I_srli_cg_cmp_rd_rs1_b8>:
I_srli_cg_cmp_rd_rs1_b8:
  srli x8, x8, 28 # perform operation
    14d8:	01c45413          	srli	x8,x8,0x1c
  # Check if x8 contains the expected result. x20 is the signature ptr, x14 is the link ptr, x13 is a temp reg.
  RVTEST_SIGUPD(x20, x14, x13, x8, I_srli_cg_cmp_rd_rs1_b8, I_srli_cg_cmp_rd_rs1_b8_str)
    14dc:	000a2683          	lw	x13,0(x20)
    14e0:	00868863          	beq	x13,x8,14f0 <I_srli_cg_cmp_rd_rs1_b8+0x18>
    14e4:	0790076f          	jal	x14,1d5c <failedtest_x14_x13>
    14e8:	000014d8          	.word	0x000014d8
    14ec:	00006916          	.word	0x00006916
    14f0:	004a0a13          	addi	x20,x20,4

# Testcase cmp_rd_rs1 (Test rd = rs1 = x9)
  RVTEST_TESTDATA_LOAD_INT(x11, x9) # load rs1: x9 = 0x7c253968
    14f4:	0005a483          	lw	x9,0(x11)
    14f8:	00458593          	addi	x11,x11,4

000014fc <I_srli_cg_cmp_rd_rs1_b9>:
I_srli_cg_cmp_rd_rs1_b9:
  srli x9, x9, 25 # perform operation
    14fc:	0194d493          	srli	x9,x9,0x19
  # Check if x9 contains the expected result. x20 is the signature ptr, x14 is the link ptr, x13 is a temp reg.
  RVTEST_SIGUPD(x20, x14, x13, x9, I_srli_cg_cmp_rd_rs1_b9, I_srli_cg_cmp_rd_rs1_b9_str)
    1500:	000a2683          	lw	x13,0(x20)
    1504:	00968863          	beq	x13,x9,1514 <I_srli_cg_cmp_rd_rs1_b9+0x18>
    1508:	0550076f          	jal	x14,1d5c <failedtest_x14_x13>
    150c:	000014fc          	.word	0x000014fc
    1510:	0000694a          	.word	0x0000694a
    1514:	004a0a13          	addi	x20,x20,4

# Testcase cmp_rd_rs1 (Test rd = rs1 = x10)
  RVTEST_TESTDATA_LOAD_INT(x11, x10) # load rs1: x10 = 0x81f4adb6
    1518:	0005a503          	lw	x10,0(x11)
    151c:	00458593          	addi	x11,x11,4

00001520 <I_srli_cg_cmp_rd_rs1_b10>:
I_srli_cg_cmp_rd_rs1_b10:
  srli x10, x10, 3 # perform operation
    1520:	00355513          	srli	x10,x10,0x3
  # Check if x10 contains the expected result. x20 is the signature ptr, x14 is the link ptr, x13 is a temp reg.
  RVTEST_SIGUPD(x20, x14, x13, x10, I_srli_cg_cmp_rd_rs1_b10, I_srli_cg_cmp_rd_rs1_b10_str)
    1524:	000a2683          	lw	x13,0(x20)
    1528:	00a68863          	beq	x13,x10,1538 <I_srli_cg_cmp_rd_rs1_b10+0x18>
    152c:	0310076f          	jal	x14,1d5c <failedtest_x14_x13>
    1530:	00001520          	.word	0x00001520
    1534:	0000697e          	.word	0x0000697e
    1538:	004a0a13          	addi	x20,x20,4

  mv x29, x11 # switch data pointer register to avoid conflict with test
    153c:	00058e93          	addi	x29,x11,0
# Testcase cmp_rd_rs1 (Test rd = rs1 = x11)
  RVTEST_TESTDATA_LOAD_INT(x29, x11) # load rs1: x11 = 0xcf100168
    1540:	000ea583          	lw	x11,0(x29)
    1544:	004e8e93          	addi	x29,x29,4

00001548 <I_srli_cg_cmp_rd_rs1_b11>:
I_srli_cg_cmp_rd_rs1_b11:
  srli x11, x11, 15 # perform operation
    1548:	00f5d593          	srli	x11,x11,0xf
  # Check if x11 contains the expected result. x20 is the signature ptr, x14 is the link ptr, x13 is a temp reg.
  RVTEST_SIGUPD(x20, x14, x13, x11, I_srli_cg_cmp_rd_rs1_b11, I_srli_cg_cmp_rd_rs1_b11_str)
    154c:	000a2683          	lw	x13,0(x20)
    1550:	00b68863          	beq	x13,x11,1560 <I_srli_cg_cmp_rd_rs1_b11+0x18>
    1554:	0090076f          	jal	x14,1d5c <failedtest_x14_x13>
    1558:	00001548          	.word	0x00001548
    155c:	000069b3          	.word	0x000069b3
    1560:	004a0a13          	addi	x20,x20,4

# Testcase cmp_rd_rs1 (Test rd = rs1 = x12)
  RVTEST_TESTDATA_LOAD_INT(x29, x12) # load rs1: x12 = 0xe617b559
    1564:	000ea603          	lw	x12,0(x29)
    1568:	004e8e93          	addi	x29,x29,4

0000156c <I_srli_cg_cmp_rd_rs1_b12>:
I_srli_cg_cmp_rd_rs1_b12:
  srli x12, x12, 12 # perform operation
    156c:	00c65613          	srli	x12,x12,0xc
  # Check if x12 contains the expected result. x20 is the signature ptr, x14 is the link ptr, x13 is a temp reg.
  RVTEST_SIGUPD(x20, x14, x13, x12, I_srli_cg_cmp_rd_rs1_b12, I_srli_cg_cmp_rd_rs1_b12_str)
    1570:	000a2683          	lw	x13,0(x20)
    1574:	00c68863          	beq	x13,x12,1584 <I_srli_cg_cmp_rd_rs1_b12+0x18>
    1578:	7e40076f          	jal	x14,1d5c <failedtest_x14_x13>
    157c:	0000156c          	.word	0x0000156c
    1580:	000069e8          	.word	0x000069e8
    1584:	004a0a13          	addi	x20,x20,4

  mv x4, x13 # switch temp register to avoid conflict with test
    1588:	00068213          	addi	x4,x13,0
  mv x5, x14 # switch link pointer register to avoid conflict with test
    158c:	00070293          	addi	x5,x14,0
# Testcase cmp_rd_rs1 (Test rd = rs1 = x13)
  RVTEST_TESTDATA_LOAD_INT(x29, x13) # load rs1: x13 = 0x443439e4
    1590:	000ea683          	lw	x13,0(x29)
    1594:	004e8e93          	addi	x29,x29,4

00001598 <I_srli_cg_cmp_rd_rs1_b13>:
I_srli_cg_cmp_rd_rs1_b13:
  srli x13, x13, 8 # perform operation
    1598:	0086d693          	srli	x13,x13,0x8
  # Check if x13 contains the expected result. x20 is the signature ptr, x5 is the link ptr, x4 is a temp reg.
  RVTEST_SIGUPD(x20, x5, x4, x13, I_srli_cg_cmp_rd_rs1_b13, I_srli_cg_cmp_rd_rs1_b13_str)
    159c:	000a2203          	lw	x4,0(x20)
    15a0:	00d20863          	beq	x4,x13,15b0 <I_srli_cg_cmp_rd_rs1_b13+0x18>
    15a4:	778002ef          	jal	x5,1d1c <failedtest_x5_x4>
    15a8:	00001598          	.word	0x00001598
    15ac:	00006a1d          	.word	0x00006a1d
    15b0:	004a0a13          	addi	x20,x20,4

# Testcase cmp_rd_rs1 (Test rd = rs1 = x14)
  RVTEST_TESTDATA_LOAD_INT(x29, x14) # load rs1: x14 = 0x00cf3548
    15b4:	000ea703          	lw	x14,0(x29)
    15b8:	004e8e93          	addi	x29,x29,4

000015bc <I_srli_cg_cmp_rd_rs1_b14>:
I_srli_cg_cmp_rd_rs1_b14:
  srli x14, x14, 4 # perform operation
    15bc:	00475713          	srli	x14,x14,0x4
  # Check if x14 contains the expected result. x20 is the signature ptr, x5 is the link ptr, x4 is a temp reg.
  RVTEST_SIGUPD(x20, x5, x4, x14, I_srli_cg_cmp_rd_rs1_b14, I_srli_cg_cmp_rd_rs1_b14_str)
    15c0:	000a2203          	lw	x4,0(x20)
    15c4:	00e20863          	beq	x4,x14,15d4 <I_srli_cg_cmp_rd_rs1_b14+0x18>
    15c8:	754002ef          	jal	x5,1d1c <failedtest_x5_x4>
    15cc:	000015bc          	.word	0x000015bc
    15d0:	00006a52          	.word	0x00006a52
    15d4:	004a0a13          	addi	x20,x20,4

# Testcase cmp_rd_rs1 (Test rd = rs1 = x15)
  RVTEST_TESTDATA_LOAD_INT(x29, x15) # load rs1: x15 = 0x1a33c34a
    15d8:	000ea783          	lw	x15,0(x29)
    15dc:	004e8e93          	addi	x29,x29,4

000015e0 <I_srli_cg_cmp_rd_rs1_b15>:
I_srli_cg_cmp_rd_rs1_b15:
  srli x15, x15, 4 # perform operation
    15e0:	0047d793          	srli	x15,x15,0x4
  # Check if x15 contains the expected result. x20 is the signature ptr, x5 is the link ptr, x4 is a temp reg.
  RVTEST_SIGUPD(x20, x5, x4, x15, I_srli_cg_cmp_rd_rs1_b15, I_srli_cg_cmp_rd_rs1_b15_str)
    15e4:	000a2203          	lw	x4,0(x20)
    15e8:	00f20863          	beq	x4,x15,15f8 <I_srli_cg_cmp_rd_rs1_b15+0x18>
    15ec:	730002ef          	jal	x5,1d1c <failedtest_x5_x4>
    15f0:	000015e0          	.word	0x000015e0
    15f4:	00006a87          	.word	0x00006a87
    15f8:	004a0a13          	addi	x20,x20,4

# Testcase cmp_rd_rs1 (Test rd = rs1 = x16)
  RVTEST_TESTDATA_LOAD_INT(x29, x16) # load rs1: x16 = 0x4743add9
    15fc:	000ea803          	lw	x16,0(x29)
    1600:	004e8e93          	addi	x29,x29,4

00001604 <I_srli_cg_cmp_rd_rs1_b16>:
I_srli_cg_cmp_rd_rs1_b16:
  srli x16, x16, 19 # perform operation
    1604:	01385813          	srli	x16,x16,0x13
  # Check if x16 contains the expected result. x20 is the signature ptr, x5 is the link ptr, x4 is a temp reg.
  RVTEST_SIGUPD(x20, x5, x4, x16, I_srli_cg_cmp_rd_rs1_b16, I_srli_cg_cmp_rd_rs1_b16_str)
    1608:	000a2203          	lw	x4,0(x20)
    160c:	01020863          	beq	x4,x16,161c <I_srli_cg_cmp_rd_rs1_b16+0x18>
    1610:	70c002ef          	jal	x5,1d1c <failedtest_x5_x4>
    1614:	00001604          	.word	0x00001604
    1618:	00006abc          	.word	0x00006abc
    161c:	004a0a13          	addi	x20,x20,4

# Testcase cmp_rd_rs1 (Test rd = rs1 = x17)
  RVTEST_TESTDATA_LOAD_INT(x29, x17) # load rs1: x17 = 0x9eece861
    1620:	000ea883          	lw	x17,0(x29)
    1624:	004e8e93          	addi	x29,x29,4

00001628 <I_srli_cg_cmp_rd_rs1_b17>:
I_srli_cg_cmp_rd_rs1_b17:
  srli x17, x17, 7 # perform operation
    1628:	0078d893          	srli	x17,x17,0x7
  # Check if x17 contains the expected result. x20 is the signature ptr, x5 is the link ptr, x4 is a temp reg.
  RVTEST_SIGUPD(x20, x5, x4, x17, I_srli_cg_cmp_rd_rs1_b17, I_srli_cg_cmp_rd_rs1_b17_str)
    162c:	000a2203          	lw	x4,0(x20)
    1630:	01120863          	beq	x4,x17,1640 <I_srli_cg_cmp_rd_rs1_b17+0x18>
    1634:	6e8002ef          	jal	x5,1d1c <failedtest_x5_x4>
    1638:	00001628          	.word	0x00001628
    163c:	00006af1          	.word	0x00006af1
    1640:	004a0a13          	addi	x20,x20,4

# Testcase cmp_rd_rs1 (Test rd = rs1 = x18)
  RVTEST_TESTDATA_LOAD_INT(x29, x18) # load rs1: x18 = 0xa221c1fb
    1644:	000ea903          	lw	x18,0(x29)
    1648:	004e8e93          	addi	x29,x29,4

0000164c <I_srli_cg_cmp_rd_rs1_b18>:
I_srli_cg_cmp_rd_rs1_b18:
  srli x18, x18, 4 # perform operation
    164c:	00495913          	srli	x18,x18,0x4
  # Check if x18 contains the expected result. x20 is the signature ptr, x5 is the link ptr, x4 is a temp reg.
  RVTEST_SIGUPD(x20, x5, x4, x18, I_srli_cg_cmp_rd_rs1_b18, I_srli_cg_cmp_rd_rs1_b18_str)
    1650:	000a2203          	lw	x4,0(x20)
    1654:	01220863          	beq	x4,x18,1664 <I_srli_cg_cmp_rd_rs1_b18+0x18>
    1658:	6c4002ef          	jal	x5,1d1c <failedtest_x5_x4>
    165c:	0000164c          	.word	0x0000164c
    1660:	00006b26          	.word	0x00006b26
    1664:	004a0a13          	addi	x20,x20,4

# Testcase cmp_rd_rs1 (Test rd = rs1 = x19)
  RVTEST_TESTDATA_LOAD_INT(x29, x19) # load rs1: x19 = 0x36e3da3d
    1668:	000ea983          	lw	x19,0(x29)
    166c:	004e8e93          	addi	x29,x29,4

00001670 <I_srli_cg_cmp_rd_rs1_b19>:
I_srli_cg_cmp_rd_rs1_b19:
  srli x19, x19, 28 # perform operation
    1670:	01c9d993          	srli	x19,x19,0x1c
  # Check if x19 contains the expected result. x20 is the signature ptr, x5 is the link ptr, x4 is a temp reg.
  RVTEST_SIGUPD(x20, x5, x4, x19, I_srli_cg_cmp_rd_rs1_b19, I_srli_cg_cmp_rd_rs1_b19_str)
    1674:	000a2203          	lw	x4,0(x20)
    1678:	01320863          	beq	x4,x19,1688 <I_srli_cg_cmp_rd_rs1_b19+0x18>
    167c:	6a0002ef          	jal	x5,1d1c <failedtest_x5_x4>
    1680:	00001670          	.word	0x00001670
    1684:	00006b5b          	.word	0x00006b5b
    1688:	004a0a13          	addi	x20,x20,4

  mv x22, x20 # switch signature pointer register to avoid conflict with test
    168c:	000a0b13          	addi	x22,x20,0
# Testcase cmp_rd_rs1 (Test rd = rs1 = x20)
  RVTEST_TESTDATA_LOAD_INT(x29, x20) # load rs1: x20 = 0x57313d26
    1690:	000eaa03          	lw	x20,0(x29)
    1694:	004e8e93          	addi	x29,x29,4

00001698 <I_srli_cg_cmp_rd_rs1_b20>:
I_srli_cg_cmp_rd_rs1_b20:
  srli x20, x20, 10 # perform operation
    1698:	00aa5a13          	srli	x20,x20,0xa
  # Check if x20 contains the expected result. x22 is the signature ptr, x5 is the link ptr, x4 is a temp reg.
  RVTEST_SIGUPD(x22, x5, x4, x20, I_srli_cg_cmp_rd_rs1_b20, I_srli_cg_cmp_rd_rs1_b20_str)
    169c:	000b2203          	lw	x4,0(x22)
    16a0:	01420863          	beq	x4,x20,16b0 <I_srli_cg_cmp_rd_rs1_b20+0x18>
    16a4:	678002ef          	jal	x5,1d1c <failedtest_x5_x4>
    16a8:	00001698          	.word	0x00001698
    16ac:	00006b90          	.word	0x00006b90
    16b0:	004b0b13          	addi	x22,x22,4

# Testcase cmp_rd_rs1 (Test rd = rs1 = x21)
  RVTEST_TESTDATA_LOAD_INT(x29, x21) # load rs1: x21 = 0x777cc3ad
    16b4:	000eaa83          	lw	x21,0(x29)
    16b8:	004e8e93          	addi	x29,x29,4

000016bc <I_srli_cg_cmp_rd_rs1_b21>:
I_srli_cg_cmp_rd_rs1_b21:
  srli x21, x21, 17 # perform operation
    16bc:	011ada93          	srli	x21,x21,0x11
  # Check if x21 contains the expected result. x22 is the signature ptr, x5 is the link ptr, x4 is a temp reg.
  RVTEST_SIGUPD(x22, x5, x4, x21, I_srli_cg_cmp_rd_rs1_b21, I_srli_cg_cmp_rd_rs1_b21_str)
    16c0:	000b2203          	lw	x4,0(x22)
    16c4:	01520863          	beq	x4,x21,16d4 <I_srli_cg_cmp_rd_rs1_b21+0x18>
    16c8:	654002ef          	jal	x5,1d1c <failedtest_x5_x4>
    16cc:	000016bc          	.word	0x000016bc
    16d0:	00006bc5          	.word	0x00006bc5
    16d4:	004b0b13          	addi	x22,x22,4

  mv x15, x22 # switch signature pointer register to avoid conflict with test
    16d8:	000b0793          	addi	x15,x22,0
# Testcase cmp_rd_rs1 (Test rd = rs1 = x22)
  RVTEST_TESTDATA_LOAD_INT(x29, x22) # load rs1: x22 = 0x34cc2844
    16dc:	000eab03          	lw	x22,0(x29)
    16e0:	004e8e93          	addi	x29,x29,4

000016e4 <I_srli_cg_cmp_rd_rs1_b22>:
I_srli_cg_cmp_rd_rs1_b22:
  srli x22, x22, 13 # perform operation
    16e4:	00db5b13          	srli	x22,x22,0xd
  # Check if x22 contains the expected result. x15 is the signature ptr, x5 is the link ptr, x4 is a temp reg.
  RVTEST_SIGUPD(x15, x5, x4, x22, I_srli_cg_cmp_rd_rs1_b22, I_srli_cg_cmp_rd_rs1_b22_str)
    16e8:	0007a203          	lw	x4,0(x15)
    16ec:	01620863          	beq	x4,x22,16fc <I_srli_cg_cmp_rd_rs1_b22+0x18>
    16f0:	62c002ef          	jal	x5,1d1c <failedtest_x5_x4>
    16f4:	000016e4          	.word	0x000016e4
    16f8:	00006bfa          	.word	0x00006bfa
    16fc:	00478793          	addi	x15,x15,4

# Testcase cmp_rd_rs1 (Test rd = rs1 = x23)
  RVTEST_TESTDATA_LOAD_INT(x29, x23) # load rs1: x23 = 0xd2213466
    1700:	000eab83          	lw	x23,0(x29)
    1704:	004e8e93          	addi	x29,x29,4

00001708 <I_srli_cg_cmp_rd_rs1_b23>:
I_srli_cg_cmp_rd_rs1_b23:
  srli x23, x23, 24 # perform operation
    1708:	018bdb93          	srli	x23,x23,0x18
  # Check if x23 contains the expected result. x15 is the signature ptr, x5 is the link ptr, x4 is a temp reg.
  RVTEST_SIGUPD(x15, x5, x4, x23, I_srli_cg_cmp_rd_rs1_b23, I_srli_cg_cmp_rd_rs1_b23_str)
    170c:	0007a203          	lw	x4,0(x15)
    1710:	01720863          	beq	x4,x23,1720 <I_srli_cg_cmp_rd_rs1_b23+0x18>
    1714:	608002ef          	jal	x5,1d1c <failedtest_x5_x4>
    1718:	00001708          	.word	0x00001708
    171c:	00006c2f          	.word	0x00006c2f
    1720:	00478793          	addi	x15,x15,4

# Testcase cmp_rd_rs1 (Test rd = rs1 = x24)
  RVTEST_TESTDATA_LOAD_INT(x29, x24) # load rs1: x24 = 0xd59d7723
    1724:	000eac03          	lw	x24,0(x29)
    1728:	004e8e93          	addi	x29,x29,4

0000172c <I_srli_cg_cmp_rd_rs1_b24>:
I_srli_cg_cmp_rd_rs1_b24:
  srli x24, x24, 12 # perform operation
    172c:	00cc5c13          	srli	x24,x24,0xc
  # Check if x24 contains the expected result. x15 is the signature ptr, x5 is the link ptr, x4 is a temp reg.
  RVTEST_SIGUPD(x15, x5, x4, x24, I_srli_cg_cmp_rd_rs1_b24, I_srli_cg_cmp_rd_rs1_b24_str)
    1730:	0007a203          	lw	x4,0(x15)
    1734:	01820863          	beq	x4,x24,1744 <I_srli_cg_cmp_rd_rs1_b24+0x18>
    1738:	5e4002ef          	jal	x5,1d1c <failedtest_x5_x4>
    173c:	0000172c          	.word	0x0000172c
    1740:	00006c64          	.word	0x00006c64
    1744:	00478793          	addi	x15,x15,4

# Testcase cmp_rd_rs1 (Test rd = rs1 = x25)
  RVTEST_TESTDATA_LOAD_INT(x29, x25) # load rs1: x25 = 0xed90d4b2
    1748:	000eac83          	lw	x25,0(x29)
    174c:	004e8e93          	addi	x29,x29,4

00001750 <I_srli_cg_cmp_rd_rs1_b25>:
I_srli_cg_cmp_rd_rs1_b25:
  srli x25, x25, 26 # perform operation
    1750:	01acdc93          	srli	x25,x25,0x1a
  # Check if x25 contains the expected result. x15 is the signature ptr, x5 is the link ptr, x4 is a temp reg.
  RVTEST_SIGUPD(x15, x5, x4, x25, I_srli_cg_cmp_rd_rs1_b25, I_srli_cg_cmp_rd_rs1_b25_str)
    1754:	0007a203          	lw	x4,0(x15)
    1758:	01920863          	beq	x4,x25,1768 <I_srli_cg_cmp_rd_rs1_b25+0x18>
    175c:	5c0002ef          	jal	x5,1d1c <failedtest_x5_x4>
    1760:	00001750          	.word	0x00001750
    1764:	00006c99          	.word	0x00006c99
    1768:	00478793          	addi	x15,x15,4

# Testcase cmp_rd_rs1 (Test rd = rs1 = x26)
  RVTEST_TESTDATA_LOAD_INT(x29, x26) # load rs1: x26 = 0x1c3178e8
    176c:	000ead03          	lw	x26,0(x29)
    1770:	004e8e93          	addi	x29,x29,4

00001774 <I_srli_cg_cmp_rd_rs1_b26>:
I_srli_cg_cmp_rd_rs1_b26:
  srli x26, x26, 12 # perform operation
    1774:	00cd5d13          	srli	x26,x26,0xc
  # Check if x26 contains the expected result. x15 is the signature ptr, x5 is the link ptr, x4 is a temp reg.
  RVTEST_SIGUPD(x15, x5, x4, x26, I_srli_cg_cmp_rd_rs1_b26, I_srli_cg_cmp_rd_rs1_b26_str)
    1778:	0007a203          	lw	x4,0(x15)
    177c:	01a20863          	beq	x4,x26,178c <I_srli_cg_cmp_rd_rs1_b26+0x18>
    1780:	59c002ef          	jal	x5,1d1c <failedtest_x5_x4>
    1784:	00001774          	.word	0x00001774
    1788:	00006cce          	.word	0x00006cce
    178c:	00478793          	addi	x15,x15,4

# Testcase cmp_rd_rs1 (Test rd = rs1 = x27)
  RVTEST_TESTDATA_LOAD_INT(x29, x27) # load rs1: x27 = 0xe810ca2d
    1790:	000ead83          	lw	x27,0(x29)
    1794:	004e8e93          	addi	x29,x29,4

00001798 <I_srli_cg_cmp_rd_rs1_b27>:
I_srli_cg_cmp_rd_rs1_b27:
  srli x27, x27, 25 # perform operation
    1798:	019ddd93          	srli	x27,x27,0x19
  # Check if x27 contains the expected result. x15 is the signature ptr, x5 is the link ptr, x4 is a temp reg.
  RVTEST_SIGUPD(x15, x5, x4, x27, I_srli_cg_cmp_rd_rs1_b27, I_srli_cg_cmp_rd_rs1_b27_str)
    179c:	0007a203          	lw	x4,0(x15)
    17a0:	01b20863          	beq	x4,x27,17b0 <I_srli_cg_cmp_rd_rs1_b27+0x18>
    17a4:	578002ef          	jal	x5,1d1c <failedtest_x5_x4>
    17a8:	00001798          	.word	0x00001798
    17ac:	00006d03          	.word	0x00006d03
    17b0:	00478793          	addi	x15,x15,4

# Testcase cmp_rd_rs1 (Test rd = rs1 = x28)
  RVTEST_TESTDATA_LOAD_INT(x29, x28) # load rs1: x28 = 0xe4096bf6
    17b4:	000eae03          	lw	x28,0(x29)
    17b8:	004e8e93          	addi	x29,x29,4

000017bc <I_srli_cg_cmp_rd_rs1_b28>:
I_srli_cg_cmp_rd_rs1_b28:
  srli x28, x28, 25 # perform operation
    17bc:	019e5e13          	srli	x28,x28,0x19
  # Check if x28 contains the expected result. x15 is the signature ptr, x5 is the link ptr, x4 is a temp reg.
  RVTEST_SIGUPD(x15, x5, x4, x28, I_srli_cg_cmp_rd_rs1_b28, I_srli_cg_cmp_rd_rs1_b28_str)
    17c0:	0007a203          	lw	x4,0(x15)
    17c4:	01c20863          	beq	x4,x28,17d4 <I_srli_cg_cmp_rd_rs1_b28+0x18>
    17c8:	554002ef          	jal	x5,1d1c <failedtest_x5_x4>
    17cc:	000017bc          	.word	0x000017bc
    17d0:	00006d38          	.word	0x00006d38
    17d4:	00478793          	addi	x15,x15,4

  mv x30, x29 # switch data pointer register to avoid conflict with test
    17d8:	000e8f13          	addi	x30,x29,0
# Testcase cmp_rd_rs1 (Test rd = rs1 = x29)
  RVTEST_TESTDATA_LOAD_INT(x30, x29) # load rs1: x29 = 0xc4f93036
    17dc:	000f2e83          	lw	x29,0(x30)
    17e0:	004f0f13          	addi	x30,x30,4

000017e4 <I_srli_cg_cmp_rd_rs1_b29>:
I_srli_cg_cmp_rd_rs1_b29:
  srli x29, x29, 31 # perform operation
    17e4:	01fede93          	srli	x29,x29,0x1f
  # Check if x29 contains the expected result. x15 is the signature ptr, x5 is the link ptr, x4 is a temp reg.
  RVTEST_SIGUPD(x15, x5, x4, x29, I_srli_cg_cmp_rd_rs1_b29, I_srli_cg_cmp_rd_rs1_b29_str)
    17e8:	0007a203          	lw	x4,0(x15)
    17ec:	01d20863          	beq	x4,x29,17fc <I_srli_cg_cmp_rd_rs1_b29+0x18>
    17f0:	52c002ef          	jal	x5,1d1c <failedtest_x5_x4>
    17f4:	000017e4          	.word	0x000017e4
    17f8:	00006d6d          	.word	0x00006d6d
    17fc:	00478793          	addi	x15,x15,4

  mv x2, x30 # switch data pointer register to avoid conflict with test
    1800:	000f0113          	addi	x2,x30,0
# Testcase cmp_rd_rs1 (Test rd = rs1 = x30)
  RVTEST_TESTDATA_LOAD_INT(x2, x30) # load rs1: x30 = 0x7aa70bfe
    1804:	00012f03          	lw	x30,0(x2)
    1808:	00410113          	addi	x2,x2,4

0000180c <I_srli_cg_cmp_rd_rs1_b30>:
I_srli_cg_cmp_rd_rs1_b30:
  srli x30, x30, 11 # perform operation
    180c:	00bf5f13          	srli	x30,x30,0xb
  # Check if x30 contains the expected result. x15 is the signature ptr, x5 is the link ptr, x4 is a temp reg.
  RVTEST_SIGUPD(x15, x5, x4, x30, I_srli_cg_cmp_rd_rs1_b30, I_srli_cg_cmp_rd_rs1_b30_str)
    1810:	0007a203          	lw	x4,0(x15)
    1814:	01e20863          	beq	x4,x30,1824 <I_srli_cg_cmp_rd_rs1_b30+0x18>
    1818:	504002ef          	jal	x5,1d1c <failedtest_x5_x4>
    181c:	0000180c          	.word	0x0000180c
    1820:	00006da2          	.word	0x00006da2
    1824:	00478793          	addi	x15,x15,4

# Testcase cmp_rd_rs1 (Test rd = rs1 = x31)
  RVTEST_TESTDATA_LOAD_INT(x2, x31) # load rs1: x31 = 0xd7f60ed0
    1828:	00012f83          	lw	x31,0(x2)
    182c:	00410113          	addi	x2,x2,4

00001830 <I_srli_cg_cmp_rd_rs1_b31>:
I_srli_cg_cmp_rd_rs1_b31:
  srli x31, x31, 0 # perform operation
    1830:	000fdf93          	srli	x31,x31,0x0
  # Check if x31 contains the expected result. x15 is the signature ptr, x5 is the link ptr, x4 is a temp reg.
  RVTEST_SIGUPD(x15, x5, x4, x31, I_srli_cg_cmp_rd_rs1_b31, I_srli_cg_cmp_rd_rs1_b31_str)
    1834:	0007a203          	lw	x4,0(x15)
    1838:	01f20863          	beq	x4,x31,1848 <I_srli_cg_cmp_rd_rs1_b31+0x18>
    183c:	4e0002ef          	jal	x5,1d1c <failedtest_x5_x4>
    1840:	00001830          	.word	0x00001830
    1844:	00006dd7          	.word	0x00006dd7
    1848:	00478793          	addi	x15,x15,4
/////////////////////////////////
// cp_uimm
/////////////////////////////////

# Testcase cp_uimm: imm=0
  RVTEST_TESTDATA_LOAD_INT(x2, x30) # load rs1: x30 = 0xc81e0ec3
    184c:	00012f03          	lw	x30,0(x2)
    1850:	00410113          	addi	x2,x2,4

00001854 <I_srli_cg_cp_uimm_uimm0>:
I_srli_cg_cp_uimm_uimm0:
  srli x31, x30, 0 # perform operation
    1854:	000f5f93          	srli	x31,x30,0x0
  # Check if x31 contains the expected result. x15 is the signature ptr, x5 is the link ptr, x4 is a temp reg.
  RVTEST_SIGUPD(x15, x5, x4, x31, I_srli_cg_cp_uimm_uimm0, I_srli_cg_cp_uimm_uimm0_str)
    1858:	0007a203          	lw	x4,0(x15)
    185c:	01f20863          	beq	x4,x31,186c <I_srli_cg_cp_uimm_uimm0+0x18>
    1860:	4bc002ef          	jal	x5,1d1c <failedtest_x5_x4>
    1864:	00001854          	.word	0x00001854
    1868:	00006e0c          	.word	0x00006e0c
    186c:	00478793          	addi	x15,x15,4

# Testcase cp_uimm: imm=1
  RVTEST_TESTDATA_LOAD_INT(x2, x25) # load rs1: x25 = 0xc71c0b4f
    1870:	00012c83          	lw	x25,0(x2)
    1874:	00410113          	addi	x2,x2,4

00001878 <I_srli_cg_cp_uimm_uimm1>:
I_srli_cg_cp_uimm_uimm1:
  srli x21, x25, 1 # perform operation
    1878:	001cda93          	srli	x21,x25,0x1
  # Check if x21 contains the expected result. x15 is the signature ptr, x5 is the link ptr, x4 is a temp reg.
  RVTEST_SIGUPD(x15, x5, x4, x21, I_srli_cg_cp_uimm_uimm1, I_srli_cg_cp_uimm_uimm1_str)
    187c:	0007a203          	lw	x4,0(x15)
    1880:	01520863          	beq	x4,x21,1890 <I_srli_cg_cp_uimm_uimm1+0x18>
    1884:	498002ef          	jal	x5,1d1c <failedtest_x5_x4>
    1888:	00001878          	.word	0x00001878
    188c:	00006e40          	.word	0x00006e40
    1890:	00478793          	addi	x15,x15,4

# Testcase cp_uimm: imm=2
  RVTEST_TESTDATA_LOAD_INT(x2, x28) # load rs1: x28 = 0xcf1074b3
    1894:	00012e03          	lw	x28,0(x2)
    1898:	00410113          	addi	x2,x2,4

0000189c <I_srli_cg_cp_uimm_uimm2>:
I_srli_cg_cp_uimm_uimm2:
  srli x18, x28, 2 # perform operation
    189c:	002e5913          	srli	x18,x28,0x2
  # Check if x18 contains the expected result. x15 is the signature ptr, x5 is the link ptr, x4 is a temp reg.
  RVTEST_SIGUPD(x15, x5, x4, x18, I_srli_cg_cp_uimm_uimm2, I_srli_cg_cp_uimm_uimm2_str)
    18a0:	0007a203          	lw	x4,0(x15)
    18a4:	01220863          	beq	x4,x18,18b4 <I_srli_cg_cp_uimm_uimm2+0x18>
    18a8:	474002ef          	jal	x5,1d1c <failedtest_x5_x4>
    18ac:	0000189c          	.word	0x0000189c
    18b0:	00006e74          	.word	0x00006e74
    18b4:	00478793          	addi	x15,x15,4

# Testcase cp_uimm: imm=3
  RVTEST_TESTDATA_LOAD_INT(x2, x0) # load rs1: x0 = 0x0b566a61
    18b8:	00012003          	lw	x0,0(x2)
    18bc:	00410113          	addi	x2,x2,4

000018c0 <I_srli_cg_cp_uimm_uimm3>:
I_srli_cg_cp_uimm_uimm3:
  srli x12, x0, 3 # perform operation
    18c0:	00305613          	srli	x12,x0,0x3
  # Check if x12 contains the expected result. x15 is the signature ptr, x5 is the link ptr, x4 is a temp reg.
  RVTEST_SIGUPD(x15, x5, x4, x12, I_srli_cg_cp_uimm_uimm3, I_srli_cg_cp_uimm_uimm3_str)
    18c4:	0007a203          	lw	x4,0(x15)
    18c8:	00c20863          	beq	x4,x12,18d8 <I_srli_cg_cp_uimm_uimm3+0x18>
    18cc:	450002ef          	jal	x5,1d1c <failedtest_x5_x4>
    18d0:	000018c0          	.word	0x000018c0
    18d4:	00006ea8          	.word	0x00006ea8
    18d8:	00478793          	addi	x15,x15,4

# Testcase cp_uimm: imm=4
  RVTEST_TESTDATA_LOAD_INT(x2, x7) # load rs1: x7 = 0xf5b8f5d4
    18dc:	00012383          	lw	x7,0(x2)
    18e0:	00410113          	addi	x2,x2,4

000018e4 <I_srli_cg_cp_uimm_uimm4>:
I_srli_cg_cp_uimm_uimm4:
  srli x28, x7, 4 # perform operation
    18e4:	0043de13          	srli	x28,x7,0x4
  # Check if x28 contains the expected result. x15 is the signature ptr, x5 is the link ptr, x4 is a temp reg.
  RVTEST_SIGUPD(x15, x5, x4, x28, I_srli_cg_cp_uimm_uimm4, I_srli_cg_cp_uimm_uimm4_str)
    18e8:	0007a203          	lw	x4,0(x15)
    18ec:	01c20863          	beq	x4,x28,18fc <I_srli_cg_cp_uimm_uimm4+0x18>
    18f0:	42c002ef          	jal	x5,1d1c <failedtest_x5_x4>
    18f4:	000018e4          	.word	0x000018e4
    18f8:	00006edc          	.word	0x00006edc
    18fc:	00478793          	addi	x15,x15,4

# Testcase cp_uimm: imm=5
  RVTEST_TESTDATA_LOAD_INT(x2, x28) # load rs1: x28 = 0xfd3f7b32
    1900:	00012e03          	lw	x28,0(x2)
    1904:	00410113          	addi	x2,x2,4

00001908 <I_srli_cg_cp_uimm_uimm5>:
I_srli_cg_cp_uimm_uimm5:
  srli x1, x28, 5 # perform operation
    1908:	005e5093          	srli	x1,x28,0x5
  # Check if x1 contains the expected result. x15 is the signature ptr, x5 is the link ptr, x4 is a temp reg.
  RVTEST_SIGUPD(x15, x5, x4, x1, I_srli_cg_cp_uimm_uimm5, I_srli_cg_cp_uimm_uimm5_str)
    190c:	0007a203          	lw	x4,0(x15)
    1910:	00120863          	beq	x4,x1,1920 <I_srli_cg_cp_uimm_uimm5+0x18>
    1914:	408002ef          	jal	x5,1d1c <failedtest_x5_x4>
    1918:	00001908          	.word	0x00001908
    191c:	00006f10          	.word	0x00006f10
    1920:	00478793          	addi	x15,x15,4

# Testcase cp_uimm: imm=6
  RVTEST_TESTDATA_LOAD_INT(x2, x20) # load rs1: x20 = 0x28e09100
    1924:	00012a03          	lw	x20,0(x2)
    1928:	00410113          	addi	x2,x2,4

0000192c <I_srli_cg_cp_uimm_uimm6>:
I_srli_cg_cp_uimm_uimm6:
  srli x10, x20, 6 # perform operation
    192c:	006a5513          	srli	x10,x20,0x6
  # Check if x10 contains the expected result. x15 is the signature ptr, x5 is the link ptr, x4 is a temp reg.
  RVTEST_SIGUPD(x15, x5, x4, x10, I_srli_cg_cp_uimm_uimm6, I_srli_cg_cp_uimm_uimm6_str)
    1930:	0007a203          	lw	x4,0(x15)
    1934:	00a20863          	beq	x4,x10,1944 <I_srli_cg_cp_uimm_uimm6+0x18>
    1938:	3e4002ef          	jal	x5,1d1c <failedtest_x5_x4>
    193c:	0000192c          	.word	0x0000192c
    1940:	00006f44          	.word	0x00006f44
    1944:	00478793          	addi	x15,x15,4

# Testcase cp_uimm: imm=7
  RVTEST_TESTDATA_LOAD_INT(x2, x14) # load rs1: x14 = 0xc72dce4d
    1948:	00012703          	lw	x14,0(x2)
    194c:	00410113          	addi	x2,x2,4

00001950 <I_srli_cg_cp_uimm_uimm7>:
I_srli_cg_cp_uimm_uimm7:
  srli x20, x14, 7 # perform operation
    1950:	00775a13          	srli	x20,x14,0x7
  # Check if x20 contains the expected result. x15 is the signature ptr, x5 is the link ptr, x4 is a temp reg.
  RVTEST_SIGUPD(x15, x5, x4, x20, I_srli_cg_cp_uimm_uimm7, I_srli_cg_cp_uimm_uimm7_str)
    1954:	0007a203          	lw	x4,0(x15)
    1958:	01420863          	beq	x4,x20,1968 <I_srli_cg_cp_uimm_uimm7+0x18>
    195c:	3c0002ef          	jal	x5,1d1c <failedtest_x5_x4>
    1960:	00001950          	.word	0x00001950
    1964:	00006f78          	.word	0x00006f78
    1968:	00478793          	addi	x15,x15,4

# Testcase cp_uimm: imm=8
  RVTEST_TESTDATA_LOAD_INT(x2, x26) # load rs1: x26 = 0x34652992
    196c:	00012d03          	lw	x26,0(x2)
    1970:	00410113          	addi	x2,x2,4

00001974 <I_srli_cg_cp_uimm_uimm8>:
I_srli_cg_cp_uimm_uimm8:
  srli x13, x26, 8 # perform operation
    1974:	008d5693          	srli	x13,x26,0x8
  # Check if x13 contains the expected result. x15 is the signature ptr, x5 is the link ptr, x4 is a temp reg.
  RVTEST_SIGUPD(x15, x5, x4, x13, I_srli_cg_cp_uimm_uimm8, I_srli_cg_cp_uimm_uimm8_str)
    1978:	0007a203          	lw	x4,0(x15)
    197c:	00d20863          	beq	x4,x13,198c <I_srli_cg_cp_uimm_uimm8+0x18>
    1980:	39c002ef          	jal	x5,1d1c <failedtest_x5_x4>
    1984:	00001974          	.word	0x00001974
    1988:	00006fac          	.word	0x00006fac
    198c:	00478793          	addi	x15,x15,4

# Testcase cp_uimm: imm=9
  RVTEST_TESTDATA_LOAD_INT(x2, x8) # load rs1: x8 = 0xee6e1821
    1990:	00012403          	lw	x8,0(x2)
    1994:	00410113          	addi	x2,x2,4

00001998 <I_srli_cg_cp_uimm_uimm9>:
I_srli_cg_cp_uimm_uimm9:
  srli x18, x8, 9 # perform operation
    1998:	00945913          	srli	x18,x8,0x9
  # Check if x18 contains the expected result. x15 is the signature ptr, x5 is the link ptr, x4 is a temp reg.
  RVTEST_SIGUPD(x15, x5, x4, x18, I_srli_cg_cp_uimm_uimm9, I_srli_cg_cp_uimm_uimm9_str)
    199c:	0007a203          	lw	x4,0(x15)
    19a0:	01220863          	beq	x4,x18,19b0 <I_srli_cg_cp_uimm_uimm9+0x18>
    19a4:	378002ef          	jal	x5,1d1c <failedtest_x5_x4>
    19a8:	00001998          	.word	0x00001998
    19ac:	00006fe0          	.word	0x00006fe0
    19b0:	00478793          	addi	x15,x15,4

# Testcase cp_uimm: imm=10
  RVTEST_TESTDATA_LOAD_INT(x2, x27) # load rs1: x27 = 0xa2dad264
    19b4:	00012d83          	lw	x27,0(x2)
    19b8:	00410113          	addi	x2,x2,4

000019bc <I_srli_cg_cp_uimm_uimm10>:
I_srli_cg_cp_uimm_uimm10:
  srli x9, x27, 10 # perform operation
    19bc:	00add493          	srli	x9,x27,0xa
  # Check if x9 contains the expected result. x15 is the signature ptr, x5 is the link ptr, x4 is a temp reg.
  RVTEST_SIGUPD(x15, x5, x4, x9, I_srli_cg_cp_uimm_uimm10, I_srli_cg_cp_uimm_uimm10_str)
    19c0:	0007a203          	lw	x4,0(x15)
    19c4:	00920863          	beq	x4,x9,19d4 <I_srli_cg_cp_uimm_uimm10+0x18>
    19c8:	354002ef          	jal	x5,1d1c <failedtest_x5_x4>
    19cc:	000019bc          	.word	0x000019bc
    19d0:	00007014          	.word	0x00007014
    19d4:	00478793          	addi	x15,x15,4

# Testcase cp_uimm: imm=11
  RVTEST_TESTDATA_LOAD_INT(x2, x10) # load rs1: x10 = 0x8bc6b08b
    19d8:	00012503          	lw	x10,0(x2)
    19dc:	00410113          	addi	x2,x2,4

000019e0 <I_srli_cg_cp_uimm_uimm11>:
I_srli_cg_cp_uimm_uimm11:
  srli x16, x10, 11 # perform operation
    19e0:	00b55813          	srli	x16,x10,0xb
  # Check if x16 contains the expected result. x15 is the signature ptr, x5 is the link ptr, x4 is a temp reg.
  RVTEST_SIGUPD(x15, x5, x4, x16, I_srli_cg_cp_uimm_uimm11, I_srli_cg_cp_uimm_uimm11_str)
    19e4:	0007a203          	lw	x4,0(x15)
    19e8:	01020863          	beq	x4,x16,19f8 <I_srli_cg_cp_uimm_uimm11+0x18>
    19ec:	330002ef          	jal	x5,1d1c <failedtest_x5_x4>
    19f0:	000019e0          	.word	0x000019e0
    19f4:	00007049          	.word	0x00007049
    19f8:	00478793          	addi	x15,x15,4

# Testcase cp_uimm: imm=12
  RVTEST_TESTDATA_LOAD_INT(x2, x14) # load rs1: x14 = 0x6bfd691a
    19fc:	00012703          	lw	x14,0(x2)
    1a00:	00410113          	addi	x2,x2,4

00001a04 <I_srli_cg_cp_uimm_uimm12>:
I_srli_cg_cp_uimm_uimm12:
  srli x1, x14, 12 # perform operation
    1a04:	00c75093          	srli	x1,x14,0xc
  # Check if x1 contains the expected result. x15 is the signature ptr, x5 is the link ptr, x4 is a temp reg.
  RVTEST_SIGUPD(x15, x5, x4, x1, I_srli_cg_cp_uimm_uimm12, I_srli_cg_cp_uimm_uimm12_str)
    1a08:	0007a203          	lw	x4,0(x15)
    1a0c:	00120863          	beq	x4,x1,1a1c <I_srli_cg_cp_uimm_uimm12+0x18>
    1a10:	30c002ef          	jal	x5,1d1c <failedtest_x5_x4>
    1a14:	00001a04          	.word	0x00001a04
    1a18:	0000707e          	.word	0x0000707e
    1a1c:	00478793          	addi	x15,x15,4

# Testcase cp_uimm: imm=13
  RVTEST_TESTDATA_LOAD_INT(x2, x22) # load rs1: x22 = 0x12fd2bd9
    1a20:	00012b03          	lw	x22,0(x2)
    1a24:	00410113          	addi	x2,x2,4

00001a28 <I_srli_cg_cp_uimm_uimm13>:
I_srli_cg_cp_uimm_uimm13:
  srli x19, x22, 13 # perform operation
    1a28:	00db5993          	srli	x19,x22,0xd
  # Check if x19 contains the expected result. x15 is the signature ptr, x5 is the link ptr, x4 is a temp reg.
  RVTEST_SIGUPD(x15, x5, x4, x19, I_srli_cg_cp_uimm_uimm13, I_srli_cg_cp_uimm_uimm13_str)
    1a2c:	0007a203          	lw	x4,0(x15)
    1a30:	01320863          	beq	x4,x19,1a40 <I_srli_cg_cp_uimm_uimm13+0x18>
    1a34:	2e8002ef          	jal	x5,1d1c <failedtest_x5_x4>
    1a38:	00001a28          	.word	0x00001a28
    1a3c:	000070b3          	.word	0x000070b3
    1a40:	00478793          	addi	x15,x15,4

# Testcase cp_uimm: imm=14
  RVTEST_TESTDATA_LOAD_INT(x2, x16) # load rs1: x16 = 0x09b314c1
    1a44:	00012803          	lw	x16,0(x2)
    1a48:	00410113          	addi	x2,x2,4

00001a4c <I_srli_cg_cp_uimm_uimm14>:
I_srli_cg_cp_uimm_uimm14:
  srli x11, x16, 14 # perform operation
    1a4c:	00e85593          	srli	x11,x16,0xe
  # Check if x11 contains the expected result. x15 is the signature ptr, x5 is the link ptr, x4 is a temp reg.
  RVTEST_SIGUPD(x15, x5, x4, x11, I_srli_cg_cp_uimm_uimm14, I_srli_cg_cp_uimm_uimm14_str)
    1a50:	0007a203          	lw	x4,0(x15)
    1a54:	00b20863          	beq	x4,x11,1a64 <I_srli_cg_cp_uimm_uimm14+0x18>
    1a58:	2c4002ef          	jal	x5,1d1c <failedtest_x5_x4>
    1a5c:	00001a4c          	.word	0x00001a4c
    1a60:	000070e8          	.word	0x000070e8
    1a64:	00478793          	addi	x15,x15,4

# Testcase cp_uimm: imm=15
  RVTEST_TESTDATA_LOAD_INT(x2, x10) # load rs1: x10 = 0xb8def33f
    1a68:	00012503          	lw	x10,0(x2)
    1a6c:	00410113          	addi	x2,x2,4

00001a70 <I_srli_cg_cp_uimm_uimm15>:
I_srli_cg_cp_uimm_uimm15:
  srli x20, x10, 15 # perform operation
    1a70:	00f55a13          	srli	x20,x10,0xf
  # Check if x20 contains the expected result. x15 is the signature ptr, x5 is the link ptr, x4 is a temp reg.
  RVTEST_SIGUPD(x15, x5, x4, x20, I_srli_cg_cp_uimm_uimm15, I_srli_cg_cp_uimm_uimm15_str)
    1a74:	0007a203          	lw	x4,0(x15)
    1a78:	01420863          	beq	x4,x20,1a88 <I_srli_cg_cp_uimm_uimm15+0x18>
    1a7c:	2a0002ef          	jal	x5,1d1c <failedtest_x5_x4>
    1a80:	00001a70          	.word	0x00001a70
    1a84:	0000711d          	.word	0x0000711d
    1a88:	00478793          	addi	x15,x15,4

# Testcase cp_uimm: imm=16
  RVTEST_TESTDATA_LOAD_INT(x2, x9) # load rs1: x9 = 0xb9df3c1c
    1a8c:	00012483          	lw	x9,0(x2)
    1a90:	00410113          	addi	x2,x2,4

00001a94 <I_srli_cg_cp_uimm_uimm16>:
I_srli_cg_cp_uimm_uimm16:
  srli x30, x9, 16 # perform operation
    1a94:	0104df13          	srli	x30,x9,0x10
  # Check if x30 contains the expected result. x15 is the signature ptr, x5 is the link ptr, x4 is a temp reg.
  RVTEST_SIGUPD(x15, x5, x4, x30, I_srli_cg_cp_uimm_uimm16, I_srli_cg_cp_uimm_uimm16_str)
    1a98:	0007a203          	lw	x4,0(x15)
    1a9c:	01e20863          	beq	x4,x30,1aac <I_srli_cg_cp_uimm_uimm16+0x18>
    1aa0:	27c002ef          	jal	x5,1d1c <failedtest_x5_x4>
    1aa4:	00001a94          	.word	0x00001a94
    1aa8:	00007152          	.word	0x00007152
    1aac:	00478793          	addi	x15,x15,4

# Testcase cp_uimm: imm=17
  RVTEST_TESTDATA_LOAD_INT(x2, x12) # load rs1: x12 = 0x2be85822
    1ab0:	00012603          	lw	x12,0(x2)
    1ab4:	00410113          	addi	x2,x2,4

00001ab8 <I_srli_cg_cp_uimm_uimm17>:
I_srli_cg_cp_uimm_uimm17:
  srli x29, x12, 17 # perform operation
    1ab8:	01165e93          	srli	x29,x12,0x11
  # Check if x29 contains the expected result. x15 is the signature ptr, x5 is the link ptr, x4 is a temp reg.
  RVTEST_SIGUPD(x15, x5, x4, x29, I_srli_cg_cp_uimm_uimm17, I_srli_cg_cp_uimm_uimm17_str)
    1abc:	0007a203          	lw	x4,0(x15)
    1ac0:	01d20863          	beq	x4,x29,1ad0 <I_srli_cg_cp_uimm_uimm17+0x18>
    1ac4:	258002ef          	jal	x5,1d1c <failedtest_x5_x4>
    1ac8:	00001ab8          	.word	0x00001ab8
    1acc:	00007187          	.word	0x00007187
    1ad0:	00478793          	addi	x15,x15,4

# Testcase cp_uimm: imm=18
  RVTEST_TESTDATA_LOAD_INT(x2, x7) # load rs1: x7 = 0xb4594338
    1ad4:	00012383          	lw	x7,0(x2)
    1ad8:	00410113          	addi	x2,x2,4

00001adc <I_srli_cg_cp_uimm_uimm18>:
I_srli_cg_cp_uimm_uimm18:
  srli x11, x7, 18 # perform operation
    1adc:	0123d593          	srli	x11,x7,0x12
  # Check if x11 contains the expected result. x15 is the signature ptr, x5 is the link ptr, x4 is a temp reg.
  RVTEST_SIGUPD(x15, x5, x4, x11, I_srli_cg_cp_uimm_uimm18, I_srli_cg_cp_uimm_uimm18_str)
    1ae0:	0007a203          	lw	x4,0(x15)
    1ae4:	00b20863          	beq	x4,x11,1af4 <I_srli_cg_cp_uimm_uimm18+0x18>
    1ae8:	234002ef          	jal	x5,1d1c <failedtest_x5_x4>
    1aec:	00001adc          	.word	0x00001adc
    1af0:	000071bc          	.word	0x000071bc
    1af4:	00478793          	addi	x15,x15,4

# Testcase cp_uimm: imm=19
  RVTEST_TESTDATA_LOAD_INT(x2, x28) # load rs1: x28 = 0x39fea134
    1af8:	00012e03          	lw	x28,0(x2)
    1afc:	00410113          	addi	x2,x2,4

00001b00 <I_srli_cg_cp_uimm_uimm19>:
I_srli_cg_cp_uimm_uimm19:
  srli x13, x28, 19 # perform operation
    1b00:	013e5693          	srli	x13,x28,0x13
  # Check if x13 contains the expected result. x15 is the signature ptr, x5 is the link ptr, x4 is a temp reg.
  RVTEST_SIGUPD(x15, x5, x4, x13, I_srli_cg_cp_uimm_uimm19, I_srli_cg_cp_uimm_uimm19_str)
    1b04:	0007a203          	lw	x4,0(x15)
    1b08:	00d20863          	beq	x4,x13,1b18 <I_srli_cg_cp_uimm_uimm19+0x18>
    1b0c:	210002ef          	jal	x5,1d1c <failedtest_x5_x4>
    1b10:	00001b00          	.word	0x00001b00
    1b14:	000071f1          	.word	0x000071f1
    1b18:	00478793          	addi	x15,x15,4

# Testcase cp_uimm: imm=20
  RVTEST_TESTDATA_LOAD_INT(x2, x27) # load rs1: x27 = 0xfca16fae
    1b1c:	00012d83          	lw	x27,0(x2)
    1b20:	00410113          	addi	x2,x2,4

00001b24 <I_srli_cg_cp_uimm_uimm20>:
I_srli_cg_cp_uimm_uimm20:
  srli x29, x27, 20 # perform operation
    1b24:	014dde93          	srli	x29,x27,0x14
  # Check if x29 contains the expected result. x15 is the signature ptr, x5 is the link ptr, x4 is a temp reg.
  RVTEST_SIGUPD(x15, x5, x4, x29, I_srli_cg_cp_uimm_uimm20, I_srli_cg_cp_uimm_uimm20_str)
    1b28:	0007a203          	lw	x4,0(x15)
    1b2c:	01d20863          	beq	x4,x29,1b3c <I_srli_cg_cp_uimm_uimm20+0x18>
    1b30:	1ec002ef          	jal	x5,1d1c <failedtest_x5_x4>
    1b34:	00001b24          	.word	0x00001b24
    1b38:	00007226          	.word	0x00007226
    1b3c:	00478793          	addi	x15,x15,4

# Testcase cp_uimm: imm=21
  RVTEST_TESTDATA_LOAD_INT(x2, x11) # load rs1: x11 = 0xfa3e1ba1
    1b40:	00012583          	lw	x11,0(x2)
    1b44:	00410113          	addi	x2,x2,4

00001b48 <I_srli_cg_cp_uimm_uimm21>:
I_srli_cg_cp_uimm_uimm21:
  srli x8, x11, 21 # perform operation
    1b48:	0155d413          	srli	x8,x11,0x15
  # Check if x8 contains the expected result. x15 is the signature ptr, x5 is the link ptr, x4 is a temp reg.
  RVTEST_SIGUPD(x15, x5, x4, x8, I_srli_cg_cp_uimm_uimm21, I_srli_cg_cp_uimm_uimm21_str)
    1b4c:	0007a203          	lw	x4,0(x15)
    1b50:	00820863          	beq	x4,x8,1b60 <I_srli_cg_cp_uimm_uimm21+0x18>
    1b54:	1c8002ef          	jal	x5,1d1c <failedtest_x5_x4>
    1b58:	00001b48          	.word	0x00001b48
    1b5c:	0000725b          	.word	0x0000725b
    1b60:	00478793          	addi	x15,x15,4

# Testcase cp_uimm: imm=22
  RVTEST_TESTDATA_LOAD_INT(x2, x27) # load rs1: x27 = 0x00b6035e
    1b64:	00012d83          	lw	x27,0(x2)
    1b68:	00410113          	addi	x2,x2,4

00001b6c <I_srli_cg_cp_uimm_uimm22>:
I_srli_cg_cp_uimm_uimm22:
  srli x1, x27, 22 # perform operation
    1b6c:	016dd093          	srli	x1,x27,0x16
  # Check if x1 contains the expected result. x15 is the signature ptr, x5 is the link ptr, x4 is a temp reg.
  RVTEST_SIGUPD(x15, x5, x4, x1, I_srli_cg_cp_uimm_uimm22, I_srli_cg_cp_uimm_uimm22_str)
    1b70:	0007a203          	lw	x4,0(x15)
    1b74:	00120863          	beq	x4,x1,1b84 <I_srli_cg_cp_uimm_uimm22+0x18>
    1b78:	1a4002ef          	jal	x5,1d1c <failedtest_x5_x4>
    1b7c:	00001b6c          	.word	0x00001b6c
    1b80:	00007290          	.word	0x00007290
    1b84:	00478793          	addi	x15,x15,4

# Testcase cp_uimm: imm=23
  RVTEST_TESTDATA_LOAD_INT(x2, x20) # load rs1: x20 = 0xc081324e
    1b88:	00012a03          	lw	x20,0(x2)
    1b8c:	00410113          	addi	x2,x2,4

00001b90 <I_srli_cg_cp_uimm_uimm23>:
I_srli_cg_cp_uimm_uimm23:
  srli x13, x20, 23 # perform operation
    1b90:	017a5693          	srli	x13,x20,0x17
  # Check if x13 contains the expected result. x15 is the signature ptr, x5 is the link ptr, x4 is a temp reg.
  RVTEST_SIGUPD(x15, x5, x4, x13, I_srli_cg_cp_uimm_uimm23, I_srli_cg_cp_uimm_uimm23_str)
    1b94:	0007a203          	lw	x4,0(x15)
    1b98:	00d20863          	beq	x4,x13,1ba8 <I_srli_cg_cp_uimm_uimm23+0x18>
    1b9c:	180002ef          	jal	x5,1d1c <failedtest_x5_x4>
    1ba0:	00001b90          	.word	0x00001b90
    1ba4:	000072c5          	.word	0x000072c5
    1ba8:	00478793          	addi	x15,x15,4

# Testcase cp_uimm: imm=24
  RVTEST_TESTDATA_LOAD_INT(x2, x1) # load rs1: x1 = 0x942dff11
    1bac:	00012083          	lw	x1,0(x2)
    1bb0:	00410113          	addi	x2,x2,4

00001bb4 <I_srli_cg_cp_uimm_uimm24>:
I_srli_cg_cp_uimm_uimm24:
  srli x30, x1, 24 # perform operation
    1bb4:	0180df13          	srli	x30,x1,0x18
  # Check if x30 contains the expected result. x15 is the signature ptr, x5 is the link ptr, x4 is a temp reg.
  RVTEST_SIGUPD(x15, x5, x4, x30, I_srli_cg_cp_uimm_uimm24, I_srli_cg_cp_uimm_uimm24_str)
    1bb8:	0007a203          	lw	x4,0(x15)
    1bbc:	01e20863          	beq	x4,x30,1bcc <I_srli_cg_cp_uimm_uimm24+0x18>
    1bc0:	15c002ef          	jal	x5,1d1c <failedtest_x5_x4>
    1bc4:	00001bb4          	.word	0x00001bb4
    1bc8:	000072fa          	.word	0x000072fa
    1bcc:	00478793          	addi	x15,x15,4

# Testcase cp_uimm: imm=25
  RVTEST_TESTDATA_LOAD_INT(x2, x19) # load rs1: x19 = 0x9967d0b3
    1bd0:	00012983          	lw	x19,0(x2)
    1bd4:	00410113          	addi	x2,x2,4

00001bd8 <I_srli_cg_cp_uimm_uimm25>:
I_srli_cg_cp_uimm_uimm25:
  srli x6, x19, 25 # perform operation
    1bd8:	0199d313          	srli	x6,x19,0x19
  # Check if x6 contains the expected result. x15 is the signature ptr, x5 is the link ptr, x4 is a temp reg.
  RVTEST_SIGUPD(x15, x5, x4, x6, I_srli_cg_cp_uimm_uimm25, I_srli_cg_cp_uimm_uimm25_str)
    1bdc:	0007a203          	lw	x4,0(x15)
    1be0:	00620863          	beq	x4,x6,1bf0 <I_srli_cg_cp_uimm_uimm25+0x18>
    1be4:	138002ef          	jal	x5,1d1c <failedtest_x5_x4>
    1be8:	00001bd8          	.word	0x00001bd8
    1bec:	0000732f          	.word	0x0000732f
    1bf0:	00478793          	addi	x15,x15,4

# Testcase cp_uimm: imm=26
  RVTEST_TESTDATA_LOAD_INT(x2, x0) # load rs1: x0 = 0xae46b22b
    1bf4:	00012003          	lw	x0,0(x2)
    1bf8:	00410113          	addi	x2,x2,4

00001bfc <I_srli_cg_cp_uimm_uimm26>:
I_srli_cg_cp_uimm_uimm26:
  srli x9, x0, 26 # perform operation
    1bfc:	01a05493          	srli	x9,x0,0x1a
  # Check if x9 contains the expected result. x15 is the signature ptr, x5 is the link ptr, x4 is a temp reg.
  RVTEST_SIGUPD(x15, x5, x4, x9, I_srli_cg_cp_uimm_uimm26, I_srli_cg_cp_uimm_uimm26_str)
    1c00:	0007a203          	lw	x4,0(x15)
    1c04:	00920863          	beq	x4,x9,1c14 <I_srli_cg_cp_uimm_uimm26+0x18>
    1c08:	114002ef          	jal	x5,1d1c <failedtest_x5_x4>
    1c0c:	00001bfc          	.word	0x00001bfc
    1c10:	00007364          	.word	0x00007364
    1c14:	00478793          	addi	x15,x15,4

# Testcase cp_uimm: imm=27
  RVTEST_TESTDATA_LOAD_INT(x2, x3) # load rs1: x3 = 0xf6d7fd39
    1c18:	00012183          	lw	x3,0(x2)
    1c1c:	00410113          	addi	x2,x2,4

00001c20 <I_srli_cg_cp_uimm_uimm27>:
I_srli_cg_cp_uimm_uimm27:
  srli x28, x3, 27 # perform operation
    1c20:	01b1de13          	srli	x28,x3,0x1b
  # Check if x28 contains the expected result. x15 is the signature ptr, x5 is the link ptr, x4 is a temp reg.
  RVTEST_SIGUPD(x15, x5, x4, x28, I_srli_cg_cp_uimm_uimm27, I_srli_cg_cp_uimm_uimm27_str)
    1c24:	0007a203          	lw	x4,0(x15)
    1c28:	01c20863          	beq	x4,x28,1c38 <I_srli_cg_cp_uimm_uimm27+0x18>
    1c2c:	0f0002ef          	jal	x5,1d1c <failedtest_x5_x4>
    1c30:	00001c20          	.word	0x00001c20
    1c34:	00007399          	.word	0x00007399
    1c38:	00478793          	addi	x15,x15,4

# Testcase cp_uimm: imm=28
  RVTEST_TESTDATA_LOAD_INT(x2, x19) # load rs1: x19 = 0x180d235b
    1c3c:	00012983          	lw	x19,0(x2)
    1c40:	00410113          	addi	x2,x2,4

00001c44 <I_srli_cg_cp_uimm_uimm28>:
I_srli_cg_cp_uimm_uimm28:
  srli x10, x19, 28 # perform operation
    1c44:	01c9d513          	srli	x10,x19,0x1c
  # Check if x10 contains the expected result. x15 is the signature ptr, x5 is the link ptr, x4 is a temp reg.
  RVTEST_SIGUPD(x15, x5, x4, x10, I_srli_cg_cp_uimm_uimm28, I_srli_cg_cp_uimm_uimm28_str)
    1c48:	0007a203          	lw	x4,0(x15)
    1c4c:	00a20863          	beq	x4,x10,1c5c <I_srli_cg_cp_uimm_uimm28+0x18>
    1c50:	0cc002ef          	jal	x5,1d1c <failedtest_x5_x4>
    1c54:	00001c44          	.word	0x00001c44
    1c58:	000073ce          	.word	0x000073ce
    1c5c:	00478793          	addi	x15,x15,4

# Testcase cp_uimm: imm=29
  RVTEST_TESTDATA_LOAD_INT(x2, x14) # load rs1: x14 = 0x9b788576
    1c60:	00012703          	lw	x14,0(x2)
    1c64:	00410113          	addi	x2,x2,4

00001c68 <I_srli_cg_cp_uimm_uimm29>:
I_srli_cg_cp_uimm_uimm29:
  srli x9, x14, 29 # perform operation
    1c68:	01d75493          	srli	x9,x14,0x1d
  # Check if x9 contains the expected result. x15 is the signature ptr, x5 is the link ptr, x4 is a temp reg.
  RVTEST_SIGUPD(x15, x5, x4, x9, I_srli_cg_cp_uimm_uimm29, I_srli_cg_cp_uimm_uimm29_str)
    1c6c:	0007a203          	lw	x4,0(x15)
    1c70:	00920863          	beq	x4,x9,1c80 <I_srli_cg_cp_uimm_uimm29+0x18>
    1c74:	0a8002ef          	jal	x5,1d1c <failedtest_x5_x4>
    1c78:	00001c68          	.word	0x00001c68
    1c7c:	00007403          	.word	0x00007403
    1c80:	00478793          	addi	x15,x15,4

# Testcase cp_uimm: imm=30
  RVTEST_TESTDATA_LOAD_INT(x2, x21) # load rs1: x21 = 0x1986e832
    1c84:	00012a83          	lw	x21,0(x2)
    1c88:	00410113          	addi	x2,x2,4

00001c8c <I_srli_cg_cp_uimm_uimm30>:
I_srli_cg_cp_uimm_uimm30:
  srli x23, x21, 30 # perform operation
    1c8c:	01eadb93          	srli	x23,x21,0x1e
  # Check if x23 contains the expected result. x15 is the signature ptr, x5 is the link ptr, x4 is a temp reg.
  RVTEST_SIGUPD(x15, x5, x4, x23, I_srli_cg_cp_uimm_uimm30, I_srli_cg_cp_uimm_uimm30_str)
    1c90:	0007a203          	lw	x4,0(x15)
    1c94:	01720863          	beq	x4,x23,1ca4 <I_srli_cg_cp_uimm_uimm30+0x18>
    1c98:	084002ef          	jal	x5,1d1c <failedtest_x5_x4>
    1c9c:	00001c8c          	.word	0x00001c8c
    1ca0:	00007438          	.word	0x00007438
    1ca4:	00478793          	addi	x15,x15,4

# Testcase cp_uimm: imm=31
  RVTEST_TESTDATA_LOAD_INT(x2, x17) # load rs1: x17 = 0xd0e30059
    1ca8:	00012883          	lw	x17,0(x2)
    1cac:	00410113          	addi	x2,x2,4

00001cb0 <I_srli_cg_cp_uimm_uimm31>:
I_srli_cg_cp_uimm_uimm31:
  srli x16, x17, 31 # perform operation
    1cb0:	01f8d813          	srli	x16,x17,0x1f
  # Check if x16 contains the expected result. x15 is the signature ptr, x5 is the link ptr, x4 is a temp reg.
  RVTEST_SIGUPD(x15, x5, x4, x16, I_srli_cg_cp_uimm_uimm31, I_srli_cg_cp_uimm_uimm31_str)
    1cb4:	0007a203          	lw	x4,0(x15)
    1cb8:	01020863          	beq	x4,x16,1cc8 <I_srli_cg_cp_uimm_uimm31+0x18>
    1cbc:	060002ef          	jal	x5,1d1c <failedtest_x5_x4>
    1cc0:	00001cb0          	.word	0x00001cb0
    1cc4:	0000746d          	.word	0x0000746d
    1cc8:	00478793          	addi	x15,x15,4

  mv x2, x15 # restore signature pointer to default register for teardown
    1ccc:	00078113          	addi	x2,x15,0

00001cd0 <cleanup_epilogs>:
    1cd0:	00000013          	addi	x0,x0,0
    1cd4:	00000013          	addi	x0,x0,0
    1cd8:	00000013          	addi	x0,x0,0
    1cdc:	00000013          	addi	x0,x0,0

// Instantiate trap handlers and other epilog code, call RVMODEL_HALT at end of test
RVTEST_CODE_END
    1ce0:	00006517          	auipc	x10,0x6
    1ce4:	e3450513          	addi	x10,x10,-460 # 7b14 <successstr>
    1ce8:	00000013          	addi	x0,x0,0
    1cec:	00000013          	addi	x0,x0,0
    1cf0:	00000013          	addi	x0,x0,0
    1cf4:	00000013          	addi	x0,x0,0
    1cf8:	00000013          	addi	x0,x0,0
    1cfc:	00000013          	addi	x0,x0,0
    1d00:	00016097          	auipc	x1,0x16
    1d04:	504080e7          	jalr	x1,1284(x1) # 18204 <rvmodel_io_write_str>
    1d08:	00016097          	auipc	x1,0x16
    1d0c:	500080e7          	jalr	x1,1280(x1) # 18208 <rvmodel_halt_pass>

00001d10 <abort_test>:
    1d10:	bad0e737          	lui	x14,0xbad0e
    1d14:	ead70713          	addi	x14,x14,-339 # bad0dead <absimm+0x4b743ba4>
    1d18:	fb9ff06f          	jal	x0,1cd0 <cleanup_epilogs>

00001d1c <failedtest_x5_x4>:
    1d1c:	00005217          	auipc	x4,0x5
    1d20:	79420213          	addi	x4,x4,1940 # 74b0 <begin_failure_scratch>
    1d24:	02522423          	sw	x5,40(x4) # 28 <MMODE_SIG+0x25>
    1d28:	00122423          	sw	x1,8(x4) # 8 <MMODE_SIG+0x5>
    1d2c:	00022023          	sw	x0,0(x4) # 0 <rvtest_entry_point>
    1d30:	0b00006f          	jal	x0,1de0 <failedtest_saveregs>

00001d34 <failedtest_x8_x7>:
    1d34:	00005397          	auipc	x7,0x5
    1d38:	77c38393          	addi	x7,x7,1916 # 74b0 <begin_failure_scratch>
    1d3c:	0483a023          	sw	x8,64(x7)
    1d40:	0243a023          	sw	x4,32(x7)
    1d44:	0253a423          	sw	x5,40(x7)
    1d48:	0013a423          	sw	x1,8(x7)
    1d4c:	0003a023          	sw	x0,0(x7)
    1d50:	00038213          	addi	x4,x7,0
    1d54:	00040293          	addi	x5,x8,0
    1d58:	0880006f          	jal	x0,1de0 <failedtest_saveregs>

00001d5c <failedtest_x14_x13>:
    1d5c:	00005697          	auipc	x13,0x5
    1d60:	75468693          	addi	x13,x13,1876 # 74b0 <begin_failure_scratch>
    1d64:	06e6a823          	sw	x14,112(x13)
    1d68:	0246a023          	sw	x4,32(x13)
    1d6c:	0256a423          	sw	x5,40(x13)
    1d70:	0016a423          	sw	x1,8(x13)
    1d74:	0006a023          	sw	x0,0(x13)
    1d78:	00068213          	addi	x4,x13,0
    1d7c:	00070293          	addi	x5,x14,0
    1d80:	0600006f          	jal	x0,1de0 <failedtest_saveregs>

00001d84 <failedtest_trap_x7_x9>:
    1d84:	00005497          	auipc	x9,0x5
    1d88:	72c48493          	addi	x9,x9,1836 # 74b0 <begin_failure_scratch>
    1d8c:	0674a423          	sw	x7,104(x9)
    1d90:	0244a023          	sw	x4,32(x9)
    1d94:	0254a423          	sw	x5,40(x9)
    1d98:	0014a423          	sw	x1,8(x9)
    1d9c:	00300093          	addi	x1,x0,3
    1da0:	0014a023          	sw	x1,0(x9)
    1da4:	00048213          	addi	x4,x9,0
    1da8:	00038293          	addi	x5,x7,0
    1dac:	342020f3          	csrrs	x1,mcause,x0
    1db0:	00006497          	auipc	x9,0x6
    1db4:	87048493          	addi	x9,x9,-1936 # 7620 <saved_mcause>
    1db8:	0014a023          	sw	x1,0(x9)
    1dbc:	343020f3          	csrrs	x1,mtval,x0
    1dc0:	00006497          	auipc	x9,0x6
    1dc4:	86848493          	addi	x9,x9,-1944 # 7628 <saved_mtval>
    1dc8:	0014a023          	sw	x1,0(x9)
    1dcc:	300020f3          	csrrs	x1,mstatus,x0
    1dd0:	00006497          	auipc	x9,0x6
    1dd4:	86048493          	addi	x9,x9,-1952 # 7630 <saved_mstatus>
    1dd8:	0014a023          	sw	x1,0(x9)
    1ddc:	0040006f          	jal	x0,1de0 <failedtest_saveregs>

00001de0 <failedtest_saveregs>:
    1de0:	00222823          	sw	x2,16(x4) # 10 <MMODE_SIG+0xd>
    1de4:	00322c23          	sw	x3,24(x4) # 18 <MMODE_SIG+0x15>
    1de8:	02622823          	sw	x6,48(x4) # 30 <MMODE_SIG+0x2d>
    1dec:	02722c23          	sw	x7,56(x4) # 38 <MMODE_SIG+0x35>
    1df0:	04822023          	sw	x8,64(x4) # 40 <rvtest_code_begin>
    1df4:	04922423          	sw	x9,72(x4) # 48 <I_srli_cg_cp_rs1_b0>
    1df8:	04a22823          	sw	x10,80(x4) # 50 <I_srli_cg_cp_rs1_b0+0x8>
    1dfc:	04b22c23          	sw	x11,88(x4) # 58 <I_srli_cg_cp_rs1_b0+0x10>
    1e00:	06c22023          	sw	x12,96(x4) # 60 <I_srli_cg_cp_rs1_b0+0x18>
    1e04:	06d22423          	sw	x13,104(x4) # 68 <I_srli_cg_cp_rs1_b0+0x20>
    1e08:	06e22823          	sw	x14,112(x4) # 70 <I_srli_cg_cp_rs1_b1+0x4>
    1e0c:	06f22c23          	sw	x15,120(x4) # 78 <I_srli_cg_cp_rs1_b1+0xc>
    1e10:	09022023          	sw	x16,128(x4) # 80 <I_srli_cg_cp_rs1_b1+0x14>
    1e14:	09122423          	sw	x17,136(x4) # 88 <I_srli_cg_cp_rs1_b1+0x1c>
    1e18:	09222823          	sw	x18,144(x4) # 90 <I_srli_cg_cp_rs1_b1+0x24>
    1e1c:	09322c23          	sw	x19,152(x4) # 98 <I_srli_cg_cp_rs1_b2+0x4>
    1e20:	0b422023          	sw	x20,160(x4) # a0 <I_srli_cg_cp_rs1_b2+0xc>
    1e24:	0b522423          	sw	x21,168(x4) # a8 <I_srli_cg_cp_rs1_b2+0x14>
    1e28:	0b622823          	sw	x22,176(x4) # b0 <I_srli_cg_cp_rs1_b2+0x1c>
    1e2c:	0b722c23          	sw	x23,184(x4) # b8 <I_srli_cg_cp_rs1_b2+0x24>
    1e30:	0d822023          	sw	x24,192(x4) # c0 <I_srli_cg_cp_rs1_b3+0x4>
    1e34:	0d922423          	sw	x25,200(x4) # c8 <I_srli_cg_cp_rs1_b3+0xc>
    1e38:	0da22823          	sw	x26,208(x4) # d0 <I_srli_cg_cp_rs1_b3+0x14>
    1e3c:	0db22c23          	sw	x27,216(x4) # d8 <I_srli_cg_cp_rs1_b3+0x1c>
    1e40:	0fc22023          	sw	x28,224(x4) # e0 <I_srli_cg_cp_rs1_b3+0x24>
    1e44:	0fd22423          	sw	x29,232(x4) # e8 <I_srli_cg_cp_rs1_b4>
    1e48:	0fe22823          	sw	x30,240(x4) # f0 <I_srli_cg_cp_rs1_b4+0x8>
    1e4c:	0ff22c23          	sw	x31,248(x4) # f8 <I_srli_cg_cp_rs1_b4+0x10>

00001e50 <failedtest_saveresults>:
    1e50:	00005497          	auipc	x9,0x5
    1e54:	6604a483          	lw	x9,1632(x9) # 74b0 <begin_failure_scratch>
    1e58:	00300513          	addi	x10,x0,3
    1e5c:	06a48863          	beq	x9,x10,1ecc <failedtest_saveresults_trap>

00001e60 <failedtest_saveresults_int>:
    1e60:	ffa2d303          	lhu	x6,-6(x5)
    1e64:	ff82d383          	lhu	x7,-8(x5)
    1e68:	01031313          	slli	x6,x6,0x10
    1e6c:	00736333          	or	x6,x6,x7
    1e70:	00f35393          	srli	x7,x6,0xf
    1e74:	01f3f393          	andi	x7,x7,31
    1e78:	01435413          	srli	x8,x6,0x14
    1e7c:	01f47413          	andi	x8,x8,31
    1e80:	10822223          	sw	x8,260(x4) # 104 <I_srli_cg_cp_rs1_b4+0x1c>
    1e84:	00341313          	slli	x6,x8,0x3
    1e88:	00620333          	add	x6,x4,x6
    1e8c:	00032303          	lw	x6,0(x6)
    1e90:	10622823          	sw	x6,272(x4) # 110 <I_srli_cg_cp_rs1_b5+0x4>
    1e94:	ff62d303          	lhu	x6,-10(x5)
    1e98:	ff42d383          	lhu	x7,-12(x5)
    1e9c:	01031313          	slli	x6,x6,0x10
    1ea0:	00736333          	or	x6,x6,x7
    1ea4:	41435393          	srai	x7,x6,0x14
    1ea8:	00f35313          	srli	x6,x6,0xf
    1eac:	01f37313          	andi	x6,x6,31
    1eb0:	00331313          	slli	x6,x6,0x3
    1eb4:	00620333          	add	x6,x4,x6
    1eb8:	00032303          	lw	x6,0(x6)
    1ebc:	00730333          	add	x6,x6,x7
    1ec0:	00032303          	lw	x6,0(x6)
    1ec4:	10622c23          	sw	x6,280(x4) # 118 <I_srli_cg_cp_rs1_b5+0xc>
    1ec8:	3d80006f          	jal	x0,22a0 <failedtest_saveresults_common>

00001ecc <failedtest_saveresults_trap>:
    1ecc:	0042a303          	lw	x6,4(x5)
    1ed0:	00005817          	auipc	x16,0x5
    1ed4:	73880813          	addi	x16,x16,1848 # 7608 <trap_diag_fail_str_ptr>
    1ed8:	00682023          	sw	x6,0(x16)
    1edc:	0002a303          	lw	x6,0(x5)
    1ee0:	10622423          	sw	x6,264(x4) # 108 <I_srli_cg_cp_rs1_b4+0x20>
    1ee4:	00005817          	auipc	x16,0x5
    1ee8:	72480813          	addi	x16,x16,1828 # 7608 <trap_diag_fail_str_ptr>
    1eec:	00082303          	lw	x6,0(x16)
    1ef0:	00006397          	auipc	x7,0x6
    1ef4:	dec38393          	addi	x7,x7,-532 # 7cdc <trap_sig_offset_mismatch>
    1ef8:	28730463          	beq	x6,x7,2180 <trap_diag_offset_mismatch>
    1efc:	00000413          	addi	x8,x0,0
    1f00:	00005817          	auipc	x16,0x5
    1f04:	6e080813          	addi	x16,x16,1760 # 75e0 <trap_diag_subtype>
    1f08:	00882023          	sw	x8,0(x16)
    1f0c:	00006397          	auipc	x7,0x6
    1f10:	e3438393          	addi	x7,x7,-460 # 7d40 <sv_Mvect_str>
    1f14:	00731863          	bne	x6,x7,1f24 <failedtest_saveresults_trap+0x58>
    1f18:	00100413          	addi	x8,x0,1
    1f1c:	00000493          	addi	x9,x0,0
    1f20:	2e00006f          	jal	x0,2200 <trap_diag_field_identified>
    1f24:	00006397          	auipc	x7,0x6
    1f28:	f1e38393          	addi	x7,x7,-226 # 7e42 <sv_Mcause_str>
    1f2c:	00731863          	bne	x6,x7,1f3c <failedtest_saveresults_trap+0x70>
    1f30:	00200413          	addi	x8,x0,2
    1f34:	00000493          	addi	x9,x0,0
    1f38:	2c80006f          	jal	x0,2200 <trap_diag_field_identified>
    1f3c:	00006397          	auipc	x7,0x6
    1f40:	00138393          	addi	x7,x7,1 # 7f3d <sv_Mepc_str>
    1f44:	00731863          	bne	x6,x7,1f54 <failedtest_saveresults_trap+0x88>
    1f48:	00300413          	addi	x8,x0,3
    1f4c:	00000493          	addi	x9,x0,0
    1f50:	2b00006f          	jal	x0,2200 <trap_diag_field_identified>
    1f54:	00006397          	auipc	x7,0x6
    1f58:	0dc38393          	addi	x7,x7,220 # 8030 <sv_Mtval_str>
    1f5c:	00731863          	bne	x6,x7,1f6c <failedtest_saveresults_trap+0xa0>
    1f60:	00400413          	addi	x8,x0,4
    1f64:	00000493          	addi	x9,x0,0
    1f68:	2980006f          	jal	x0,2200 <trap_diag_field_identified>
    1f6c:	00006397          	auipc	x7,0x6
    1f70:	23738393          	addi	x7,x7,567 # 81a3 <sv_Mip_str>
    1f74:	00731863          	bne	x6,x7,1f84 <failedtest_saveresults_trap+0xb8>
    1f78:	00500413          	addi	x8,x0,5
    1f7c:	00000493          	addi	x9,x0,0
    1f80:	2800006f          	jal	x0,2200 <trap_diag_field_identified>
    1f84:	00006397          	auipc	x7,0x6
    1f88:	1a338393          	addi	x7,x7,419 # 8127 <sv_Mtval2_str>
    1f8c:	00731863          	bne	x6,x7,1f9c <failedtest_saveresults_trap+0xd0>
    1f90:	00600413          	addi	x8,x0,6
    1f94:	00000493          	addi	x9,x0,0
    1f98:	2680006f          	jal	x0,2200 <trap_diag_field_identified>
    1f9c:	00006397          	auipc	x7,0x6
    1fa0:	1c938393          	addi	x7,x7,457 # 8165 <sv_Mtinst_str>
    1fa4:	00731863          	bne	x6,x7,1fb4 <failedtest_saveresults_trap+0xe8>
    1fa8:	00700413          	addi	x8,x0,7
    1fac:	00000493          	addi	x9,x0,0
    1fb0:	2500006f          	jal	x0,2200 <trap_diag_field_identified>
    1fb4:	00006397          	auipc	x7,0x6
    1fb8:	dcc38393          	addi	x7,x7,-564 # 7d80 <sv_Svect_str>
    1fbc:	00731863          	bne	x6,x7,1fcc <failedtest_saveresults_trap+0x100>
    1fc0:	00100413          	addi	x8,x0,1
    1fc4:	00100493          	addi	x9,x0,1
    1fc8:	2380006f          	jal	x0,2200 <trap_diag_field_identified>
    1fcc:	00006397          	auipc	x7,0x6
    1fd0:	eb438393          	addi	x7,x7,-332 # 7e80 <sv_Scause_str>
    1fd4:	00731863          	bne	x6,x7,1fe4 <failedtest_saveresults_trap+0x118>
    1fd8:	00200413          	addi	x8,x0,2
    1fdc:	00100493          	addi	x9,x0,1
    1fe0:	2200006f          	jal	x0,2200 <trap_diag_field_identified>
    1fe4:	00006397          	auipc	x7,0x6
    1fe8:	f9538393          	addi	x7,x7,-107 # 7f79 <sv_Sepc_str>
    1fec:	00731863          	bne	x6,x7,1ffc <failedtest_saveresults_trap+0x130>
    1ff0:	00300413          	addi	x8,x0,3
    1ff4:	00100493          	addi	x9,x0,1
    1ff8:	2080006f          	jal	x0,2200 <trap_diag_field_identified>
    1ffc:	00006397          	auipc	x7,0x6
    2000:	07138393          	addi	x7,x7,113 # 806d <sv_Stval_str>
    2004:	00731863          	bne	x6,x7,2014 <failedtest_saveresults_trap+0x148>
    2008:	00400413          	addi	x8,x0,4
    200c:	00100493          	addi	x9,x0,1
    2010:	1f00006f          	jal	x0,2200 <trap_diag_field_identified>
    2014:	00006397          	auipc	x7,0x6
    2018:	1ca38393          	addi	x7,x7,458 # 81de <sv_Sip_str>
    201c:	00731863          	bne	x6,x7,202c <failedtest_saveresults_trap+0x160>
    2020:	00500413          	addi	x8,x0,5
    2024:	00100493          	addi	x9,x0,1
    2028:	1d80006f          	jal	x0,2200 <trap_diag_field_identified>
    202c:	00006397          	auipc	x7,0x6
    2030:	d9438393          	addi	x7,x7,-620 # 7dc0 <sv_Hvect_str>
    2034:	00731863          	bne	x6,x7,2044 <failedtest_saveresults_trap+0x178>
    2038:	00100413          	addi	x8,x0,1
    203c:	00200493          	addi	x9,x0,2
    2040:	1c00006f          	jal	x0,2200 <trap_diag_field_identified>
    2044:	00006397          	auipc	x7,0x6
    2048:	e7a38393          	addi	x7,x7,-390 # 7ebe <sv_Hcause_str>
    204c:	00731863          	bne	x6,x7,205c <failedtest_saveresults_trap+0x190>
    2050:	00200413          	addi	x8,x0,2
    2054:	00200493          	addi	x9,x0,2
    2058:	1a80006f          	jal	x0,2200 <trap_diag_field_identified>
    205c:	00006397          	auipc	x7,0x6
    2060:	f5938393          	addi	x7,x7,-167 # 7fb5 <sv_Hepc_str>
    2064:	00731863          	bne	x6,x7,2074 <failedtest_saveresults_trap+0x1a8>
    2068:	00300413          	addi	x8,x0,3
    206c:	00200493          	addi	x9,x0,2
    2070:	1900006f          	jal	x0,2200 <trap_diag_field_identified>
    2074:	00006397          	auipc	x7,0x6
    2078:	03638393          	addi	x7,x7,54 # 80aa <sv_Htval_str>
    207c:	00731863          	bne	x6,x7,208c <failedtest_saveresults_trap+0x1c0>
    2080:	00400413          	addi	x8,x0,4
    2084:	00200493          	addi	x9,x0,2
    2088:	1780006f          	jal	x0,2200 <trap_diag_field_identified>
    208c:	00006397          	auipc	x7,0x6
    2090:	18d38393          	addi	x7,x7,397 # 8219 <sv_Hip_str>
    2094:	00731863          	bne	x6,x7,20a4 <failedtest_saveresults_trap+0x1d8>
    2098:	00500413          	addi	x8,x0,5
    209c:	00200493          	addi	x9,x0,2
    20a0:	1600006f          	jal	x0,2200 <trap_diag_field_identified>
    20a4:	00006397          	auipc	x7,0x6
    20a8:	d5d38393          	addi	x7,x7,-675 # 7e01 <sv_Vvect_str>
    20ac:	00731863          	bne	x6,x7,20bc <failedtest_saveresults_trap+0x1f0>
    20b0:	00100413          	addi	x8,x0,1
    20b4:	00300493          	addi	x9,x0,3
    20b8:	1480006f          	jal	x0,2200 <trap_diag_field_identified>
    20bc:	00006397          	auipc	x7,0x6
    20c0:	e4138393          	addi	x7,x7,-447 # 7efd <sv_Vcause_str>
    20c4:	00731863          	bne	x6,x7,20d4 <failedtest_saveresults_trap+0x208>
    20c8:	00200413          	addi	x8,x0,2
    20cc:	00300493          	addi	x9,x0,3
    20d0:	1300006f          	jal	x0,2200 <trap_diag_field_identified>
    20d4:	00006397          	auipc	x7,0x6
    20d8:	f1e38393          	addi	x7,x7,-226 # 7ff2 <sv_Vepc_str>
    20dc:	00731863          	bne	x6,x7,20ec <failedtest_saveresults_trap+0x220>
    20e0:	00300413          	addi	x8,x0,3
    20e4:	00300493          	addi	x9,x0,3
    20e8:	1180006f          	jal	x0,2200 <trap_diag_field_identified>
    20ec:	00006397          	auipc	x7,0x6
    20f0:	ffc38393          	addi	x7,x7,-4 # 80e8 <sv_Vtval_str>
    20f4:	00731863          	bne	x6,x7,2104 <failedtest_saveresults_trap+0x238>
    20f8:	00400413          	addi	x8,x0,4
    20fc:	00300493          	addi	x9,x0,3
    2100:	1000006f          	jal	x0,2200 <trap_diag_field_identified>
    2104:	00006397          	auipc	x7,0x6
    2108:	15138393          	addi	x7,x7,337 # 8255 <sv_Vip_str>
    210c:	00731863          	bne	x6,x7,211c <failedtest_saveresults_trap+0x250>
    2110:	00500413          	addi	x8,x0,5
    2114:	00300493          	addi	x9,x0,3
    2118:	0e80006f          	jal	x0,2200 <trap_diag_field_identified>
    211c:	00006397          	auipc	x7,0x6
    2120:	17638393          	addi	x7,x7,374 # 8292 <Mclr_Mext_int_str>
    2124:	00731863          	bne	x6,x7,2134 <failedtest_saveresults_trap+0x268>
    2128:	00800413          	addi	x8,x0,8
    212c:	00000493          	addi	x9,x0,0
    2130:	0d00006f          	jal	x0,2200 <trap_diag_field_identified>
    2134:	00006397          	auipc	x7,0x6
    2138:	1ad38393          	addi	x7,x7,429 # 82e1 <Mclr_Sext_int_str>
    213c:	00731863          	bne	x6,x7,214c <failedtest_saveresults_trap+0x280>
    2140:	00800413          	addi	x8,x0,8
    2144:	00000493          	addi	x9,x0,0
    2148:	0b80006f          	jal	x0,2200 <trap_diag_field_identified>
    214c:	00006397          	auipc	x7,0x6
    2150:	29038393          	addi	x7,x7,656 # 83dc <Sclr_Sext_int_str>
    2154:	00731863          	bne	x6,x7,2164 <failedtest_saveresults_trap+0x298>
    2158:	00800413          	addi	x8,x0,8
    215c:	00100493          	addi	x9,x0,1
    2160:	0a00006f          	jal	x0,2200 <trap_diag_field_identified>
    2164:	00006397          	auipc	x7,0x6
    2168:	37438393          	addi	x7,x7,884 # 84d8 <Hclr_Sext_int_str>
    216c:	00731863          	bne	x6,x7,217c <failedtest_saveresults_trap+0x2b0>
    2170:	00800413          	addi	x8,x0,8
    2174:	00200493          	addi	x9,x0,2
    2178:	0880006f          	jal	x0,2200 <trap_diag_field_identified>
    217c:	1140006f          	jal	x0,2290 <trap_diag_generic_report>

00002180 <trap_diag_offset_mismatch>:
    2180:	00900413          	addi	x8,x0,9
    2184:	00005817          	auipc	x16,0x5
    2188:	45c80813          	addi	x16,x16,1116 # 75e0 <trap_diag_subtype>
    218c:	00882023          	sw	x8,0(x16)
    2190:	ffa2d303          	lhu	x6,-6(x5)
    2194:	ff82d383          	lhu	x7,-8(x5)
    2198:	01031313          	slli	x6,x6,0x10
    219c:	00736333          	or	x6,x6,x7
    21a0:	01435413          	srli	x8,x6,0x14
    21a4:	01f47413          	andi	x8,x8,31
    21a8:	00341313          	slli	x6,x8,0x3
    21ac:	00620333          	add	x6,x4,x6
    21b0:	00032303          	lw	x6,0(x6)
    21b4:	00005817          	auipc	x16,0x5
    21b8:	44480813          	addi	x16,x16,1092 # 75f8 <trap_diag_actual_offset>
    21bc:	00682023          	sw	x6,0(x16)
    21c0:	ff62d303          	lhu	x6,-10(x5)
    21c4:	ff42d383          	lhu	x7,-12(x5)
    21c8:	01031313          	slli	x6,x6,0x10
    21cc:	00736333          	or	x6,x6,x7
    21d0:	41435393          	srai	x7,x6,0x14
    21d4:	00f35313          	srli	x6,x6,0xf
    21d8:	01f37313          	andi	x6,x6,31
    21dc:	00331313          	slli	x6,x6,0x3
    21e0:	00620333          	add	x6,x4,x6
    21e4:	00032303          	lw	x6,0(x6)
    21e8:	00730333          	add	x6,x6,x7
    21ec:	00032303          	lw	x6,0(x6)
    21f0:	00005817          	auipc	x16,0x5
    21f4:	41080813          	addi	x16,x16,1040 # 7600 <trap_diag_expected_offset>
    21f8:	00682023          	sw	x6,0(x16)
    21fc:	0a40006f          	jal	x0,22a0 <failedtest_saveresults_common>

00002200 <trap_diag_field_identified>:
    2200:	00005817          	auipc	x16,0x5
    2204:	3e080813          	addi	x16,x16,992 # 75e0 <trap_diag_subtype>
    2208:	00882023          	sw	x8,0(x16)
    220c:	00005817          	auipc	x16,0x5
    2210:	3d880813          	addi	x16,x16,984 # 75e4 <trap_diag_mode>
    2214:	00982023          	sw	x9,0(x16)
    2218:	ffa2d303          	lhu	x6,-6(x5)
    221c:	ff82d383          	lhu	x7,-8(x5)
    2220:	01031313          	slli	x6,x6,0x10
    2224:	00736333          	or	x6,x6,x7
    2228:	01435713          	srli	x14,x6,0x14
    222c:	01f77713          	andi	x14,x14,31
    2230:	00371313          	slli	x6,x14,0x3
    2234:	00620333          	add	x6,x4,x6
    2238:	00032303          	lw	x6,0(x6)
    223c:	10622823          	sw	x6,272(x4) # 110 <I_srli_cg_cp_rs1_b5+0x4>
    2240:	00005817          	auipc	x16,0x5
    2244:	3a880813          	addi	x16,x16,936 # 75e8 <trap_diag_actual_value>
    2248:	00682023          	sw	x6,0(x16)
    224c:	ff62d303          	lhu	x6,-10(x5)
    2250:	ff42d383          	lhu	x7,-12(x5)
    2254:	01031313          	slli	x6,x6,0x10
    2258:	00736333          	or	x6,x6,x7
    225c:	41435393          	srai	x7,x6,0x14
    2260:	00f35313          	srli	x6,x6,0xf
    2264:	01f37313          	andi	x6,x6,31
    2268:	00331313          	slli	x6,x6,0x3
    226c:	00620333          	add	x6,x4,x6
    2270:	00032303          	lw	x6,0(x6)
    2274:	00730333          	add	x6,x6,x7
    2278:	00032303          	lw	x6,0(x6)
    227c:	10622c23          	sw	x6,280(x4) # 118 <I_srli_cg_cp_rs1_b5+0xc>
    2280:	00005817          	auipc	x16,0x5
    2284:	37080813          	addi	x16,x16,880 # 75f0 <trap_diag_expected_value>
    2288:	00682023          	sw	x6,0(x16)
    228c:	0140006f          	jal	x0,22a0 <failedtest_saveresults_common>

00002290 <trap_diag_generic_report>:
    2290:	00005817          	auipc	x16,0x5
    2294:	35080813          	addi	x16,x16,848 # 75e0 <trap_diag_subtype>
    2298:	00082023          	sw	x0,0(x16)
    229c:	0040006f          	jal	x0,22a0 <failedtest_saveresults_common>

000022a0 <failedtest_saveresults_common>:
    22a0:	0002a303          	lw	x6,0(x5)
    22a4:	10622423          	sw	x6,264(x4) # 108 <I_srli_cg_cp_rs1_b4+0x20>
    22a8:	00035383          	lhu	x7,0(x6)
    22ac:	0033f413          	andi	x8,x7,3
    22b0:	00300493          	addi	x9,x0,3
    22b4:	00941863          	bne	x8,x9,22c4 <failedtest_saveresults_common+0x24>
    22b8:	00235403          	lhu	x8,2(x6)
    22bc:	01041413          	slli	x8,x8,0x10
    22c0:	0083e3b3          	or	x7,x7,x8
    22c4:	10722023          	sw	x7,256(x4) # 100 <I_srli_cg_cp_rs1_b4+0x18>
    22c8:	0042a303          	lw	x6,4(x5)
    22cc:	12622023          	sw	x6,288(x4) # 120 <I_srli_cg_cp_rs1_b5+0x14>

000022d0 <failedtest_report>:
    22d0:	00000013          	addi	x0,x0,0
    22d4:	00000013          	addi	x0,x0,0
    22d8:	00000013          	addi	x0,x0,0
    22dc:	00000013          	addi	x0,x0,0
    22e0:	00006517          	auipc	x10,0x6
    22e4:	86b50513          	addi	x10,x10,-1941 # 7b4b <failstr>
    22e8:	00000013          	addi	x0,x0,0
    22ec:	00000013          	addi	x0,x0,0
    22f0:	00000013          	addi	x0,x0,0
    22f4:	00000013          	addi	x0,x0,0
    22f8:	00000013          	addi	x0,x0,0
    22fc:	00000013          	addi	x0,x0,0
    2300:	00016097          	auipc	x1,0x16
    2304:	f04080e7          	jalr	x1,-252(x1) # 18204 <rvmodel_io_write_str>

00002308 <print_testnamestr>:
    2308:	00000013          	addi	x0,x0,0
    230c:	00000013          	addi	x0,x0,0
    2310:	00000013          	addi	x0,x0,0
    2314:	00000013          	addi	x0,x0,0
    2318:	00000013          	addi	x0,x0,0
    231c:	00000013          	addi	x0,x0,0
    2320:	00006517          	auipc	x10,0x6
    2324:	8bf50513          	addi	x10,x10,-1857 # 7bdf <testnamestr>
    2328:	00000013          	addi	x0,x0,0
    232c:	00000013          	addi	x0,x0,0
    2330:	00000013          	addi	x0,x0,0
    2334:	00000013          	addi	x0,x0,0
    2338:	00000013          	addi	x0,x0,0
    233c:	00000013          	addi	x0,x0,0
    2340:	00016097          	auipc	x1,0x16
    2344:	ec4080e7          	jalr	x1,-316(x1) # 18204 <rvmodel_io_write_str>

00002348 <print_failure_test_name_str>:
    2348:	00005517          	auipc	x10,0x5
    234c:	28852503          	lw	x10,648(x10) # 75d0 <failure_string_ptr>
    2350:	00016097          	auipc	x1,0x16
    2354:	eb4080e7          	jalr	x1,-332(x1) # 18204 <rvmodel_io_write_str>

00002358 <print_newline_str>:
    2358:	00000013          	addi	x0,x0,0
    235c:	00000013          	addi	x0,x0,0
    2360:	00006517          	auipc	x10,0x6
    2364:	89150513          	addi	x10,x10,-1903 # 7bf1 <newlinestr>
    2368:	00000013          	addi	x0,x0,0
    236c:	00000013          	addi	x0,x0,0
    2370:	00000013          	addi	x0,x0,0
    2374:	00000013          	addi	x0,x0,0
    2378:	00000013          	addi	x0,x0,0
    237c:	00000013          	addi	x0,x0,0
    2380:	00016097          	auipc	x1,0x16
    2384:	e84080e7          	jalr	x1,-380(x1) # 18204 <rvmodel_io_write_str>
    2388:	00005517          	auipc	x10,0x5
    238c:	12852503          	lw	x10,296(x10) # 74b0 <begin_failure_scratch>
    2390:	00300593          	addi	x11,x0,3
    2394:	3eb50c63          	beq	x10,x11,278c <failedtest_report_trap_detailed>
    2398:	00000013          	addi	x0,x0,0
    239c:	00000013          	addi	x0,x0,0
    23a0:	00006517          	auipc	x10,0x6
    23a4:	85350513          	addi	x10,x10,-1965 # 7bf3 <inststr>
    23a8:	00000013          	addi	x0,x0,0
    23ac:	00000013          	addi	x0,x0,0
    23b0:	00000013          	addi	x0,x0,0
    23b4:	00000013          	addi	x0,x0,0
    23b8:	00000013          	addi	x0,x0,0
    23bc:	00000013          	addi	x0,x0,0
    23c0:	00016097          	auipc	x1,0x16
    23c4:	e44080e7          	jalr	x1,-444(x1) # 18204 <rvmodel_io_write_str>
    23c8:	00005517          	auipc	x10,0x5
    23cc:	1e852503          	lw	x10,488(x10) # 75b0 <failing_instruction>
    23d0:	02000593          	addi	x11,x0,32
    23d4:	00357613          	andi	x12,x10,3
    23d8:	00300693          	addi	x13,x0,3
    23dc:	00d60463          	beq	x12,x13,23e4 <print_newline_str+0x8c>
    23e0:	01000593          	addi	x11,x0,16
    23e4:	2f4010ef          	jal	x1,36d8 <failedtest_hex_to_str>
    23e8:	00000013          	addi	x0,x0,0
    23ec:	00000013          	addi	x0,x0,0
    23f0:	00000013          	addi	x0,x0,0
    23f4:	00000013          	addi	x0,x0,0
    23f8:	00000013          	addi	x0,x0,0
    23fc:	00000013          	addi	x0,x0,0
    2400:	00005517          	auipc	x10,0x5
    2404:	23850513          	addi	x10,x10,568 # 7638 <ascii_buffer>
    2408:	00000013          	addi	x0,x0,0
    240c:	00000013          	addi	x0,x0,0
    2410:	00000013          	addi	x0,x0,0
    2414:	00000013          	addi	x0,x0,0
    2418:	00000013          	addi	x0,x0,0
    241c:	00000013          	addi	x0,x0,0
    2420:	00016097          	auipc	x1,0x16
    2424:	de4080e7          	jalr	x1,-540(x1) # 18204 <rvmodel_io_write_str>
    2428:	00000013          	addi	x0,x0,0
    242c:	00000013          	addi	x0,x0,0
    2430:	00000013          	addi	x0,x0,0
    2434:	00000013          	addi	x0,x0,0
    2438:	00000013          	addi	x0,x0,0
    243c:	00000013          	addi	x0,x0,0
    2440:	00005517          	auipc	x10,0x5
    2444:	7c750513          	addi	x10,x10,1991 # 7c07 <addrstr>
    2448:	00000013          	addi	x0,x0,0
    244c:	00000013          	addi	x0,x0,0
    2450:	00000013          	addi	x0,x0,0
    2454:	00000013          	addi	x0,x0,0
    2458:	00000013          	addi	x0,x0,0
    245c:	00000013          	addi	x0,x0,0
    2460:	00016097          	auipc	x1,0x16
    2464:	da4080e7          	jalr	x1,-604(x1) # 18204 <rvmodel_io_write_str>
    2468:	00005517          	auipc	x10,0x5
    246c:	15052503          	lw	x10,336(x10) # 75b8 <failing_addr>
    2470:	02000593          	addi	x11,x0,32
    2474:	264010ef          	jal	x1,36d8 <failedtest_hex_to_str>
    2478:	00000013          	addi	x0,x0,0
    247c:	00000013          	addi	x0,x0,0
    2480:	00005517          	auipc	x10,0x5
    2484:	1b850513          	addi	x10,x10,440 # 7638 <ascii_buffer>
    2488:	00000013          	addi	x0,x0,0
    248c:	00000013          	addi	x0,x0,0
    2490:	00000013          	addi	x0,x0,0
    2494:	00000013          	addi	x0,x0,0
    2498:	00000013          	addi	x0,x0,0
    249c:	00000013          	addi	x0,x0,0
    24a0:	00016097          	auipc	x1,0x16
    24a4:	d64080e7          	jalr	x1,-668(x1) # 18204 <rvmodel_io_write_str>
    24a8:	00000013          	addi	x0,x0,0
    24ac:	00000013          	addi	x0,x0,0
    24b0:	00000013          	addi	x0,x0,0
    24b4:	00000013          	addi	x0,x0,0
    24b8:	00000013          	addi	x0,x0,0
    24bc:	00000013          	addi	x0,x0,0
    24c0:	00006517          	auipc	x10,0x6
    24c4:	1c450513          	addi	x10,x10,452 # 8684 <regstr>
    24c8:	00000013          	addi	x0,x0,0
    24cc:	00000013          	addi	x0,x0,0
    24d0:	00000013          	addi	x0,x0,0
    24d4:	00000013          	addi	x0,x0,0
    24d8:	00000013          	addi	x0,x0,0
    24dc:	00000013          	addi	x0,x0,0
    24e0:	00016097          	auipc	x1,0x16
    24e4:	d24080e7          	jalr	x1,-732(x1) # 18204 <rvmodel_io_write_str>
    24e8:	00005517          	auipc	x10,0x5
    24ec:	fc852503          	lw	x10,-56(x10) # 74b0 <begin_failure_scratch>
    24f0:	00050663          	beq	x10,x0,24fc <print_newline_str+0x1a4>
    24f4:	00300593          	addi	x11,x0,3
    24f8:	04b51063          	bne	x10,x11,2538 <failedtest_report_not_intreg>
    24fc:	07800593          	addi	x11,x0,120
    2500:	00005617          	auipc	x12,0x5
    2504:	13860613          	addi	x12,x12,312 # 7638 <ascii_buffer>
    2508:	00000013          	addi	x0,x0,0
    250c:	00000013          	addi	x0,x0,0
    2510:	00000013          	addi	x0,x0,0
    2514:	00000013          	addi	x0,x0,0
    2518:	00000013          	addi	x0,x0,0
    251c:	00000013          	addi	x0,x0,0
    2520:	00b60023          	sb	x11,0(x12)
    2524:	00160613          	addi	x12,x12,1
    2528:	00005517          	auipc	x10,0x5
    252c:	08c52503          	lw	x10,140(x10) # 75b4 <failing_reg>
    2530:	224010ef          	jal	x1,3754 <failedtest_dec_to_str>
    2534:	0e00006f          	jal	x0,2614 <failedtest_report_print_regstr>

00002538 <failedtest_report_not_intreg>:
    2538:	00100593          	addi	x11,x0,1
    253c:	04b50863          	beq	x10,x11,258c <failedtest_report_fpreg>
    2540:	00400593          	addi	x11,x0,4
    2544:	08b50a63          	beq	x10,x11,25d8 <failedtest_report_vecreg>
    2548:	00000013          	addi	x0,x0,0
    254c:	00000013          	addi	x0,x0,0
    2550:	00000013          	addi	x0,x0,0
    2554:	00000013          	addi	x0,x0,0
    2558:	00000013          	addi	x0,x0,0
    255c:	00000013          	addi	x0,x0,0
    2560:	00006517          	auipc	x10,0x6
    2564:	18450513          	addi	x10,x10,388 # 86e4 <fflagsstr>
    2568:	00000013          	addi	x0,x0,0
    256c:	00000013          	addi	x0,x0,0
    2570:	00000013          	addi	x0,x0,0
    2574:	00000013          	addi	x0,x0,0
    2578:	00000013          	addi	x0,x0,0
    257c:	00000013          	addi	x0,x0,0
    2580:	00016097          	auipc	x1,0x16
    2584:	c84080e7          	jalr	x1,-892(x1) # 18204 <rvmodel_io_write_str>
    2588:	0c00006f          	jal	x0,2648 <failedtest_report_after_reg>

0000258c <failedtest_report_fpreg>:
    258c:	06600593          	addi	x11,x0,102
    2590:	00000013          	addi	x0,x0,0
    2594:	00000013          	addi	x0,x0,0
    2598:	00000013          	addi	x0,x0,0
    259c:	00000013          	addi	x0,x0,0
    25a0:	00005617          	auipc	x12,0x5
    25a4:	09860613          	addi	x12,x12,152 # 7638 <ascii_buffer>
    25a8:	00000013          	addi	x0,x0,0
    25ac:	00000013          	addi	x0,x0,0
    25b0:	00000013          	addi	x0,x0,0
    25b4:	00000013          	addi	x0,x0,0
    25b8:	00000013          	addi	x0,x0,0
    25bc:	00000013          	addi	x0,x0,0
    25c0:	00b60023          	sb	x11,0(x12)
    25c4:	00160613          	addi	x12,x12,1
    25c8:	00005517          	auipc	x10,0x5
    25cc:	fec52503          	lw	x10,-20(x10) # 75b4 <failing_reg>
    25d0:	184010ef          	jal	x1,3754 <failedtest_dec_to_str>
    25d4:	0400006f          	jal	x0,2614 <failedtest_report_print_regstr>

000025d8 <failedtest_report_vecreg>:
    25d8:	07600593          	addi	x11,x0,118
    25dc:	00000013          	addi	x0,x0,0
    25e0:	00005617          	auipc	x12,0x5
    25e4:	05860613          	addi	x12,x12,88 # 7638 <ascii_buffer>
    25e8:	00000013          	addi	x0,x0,0
    25ec:	00000013          	addi	x0,x0,0
    25f0:	00000013          	addi	x0,x0,0
    25f4:	00000013          	addi	x0,x0,0
    25f8:	00000013          	addi	x0,x0,0
    25fc:	00000013          	addi	x0,x0,0
    2600:	00b60023          	sb	x11,0(x12)
    2604:	00160613          	addi	x12,x12,1
    2608:	00005517          	auipc	x10,0x5
    260c:	fac52503          	lw	x10,-84(x10) # 75b4 <failing_reg>
    2610:	144010ef          	jal	x1,3754 <failedtest_dec_to_str>

00002614 <failedtest_report_print_regstr>:
    2614:	00000013          	addi	x0,x0,0
    2618:	00000013          	addi	x0,x0,0
    261c:	00000013          	addi	x0,x0,0
    2620:	00005517          	auipc	x10,0x5
    2624:	01850513          	addi	x10,x10,24 # 7638 <ascii_buffer>
    2628:	00000013          	addi	x0,x0,0
    262c:	00000013          	addi	x0,x0,0
    2630:	00000013          	addi	x0,x0,0
    2634:	00000013          	addi	x0,x0,0
    2638:	00000013          	addi	x0,x0,0
    263c:	00000013          	addi	x0,x0,0
    2640:	00016097          	auipc	x1,0x16
    2644:	bc4080e7          	jalr	x1,-1084(x1) # 18204 <rvmodel_io_write_str>

00002648 <failedtest_report_after_reg>:
    2648:	00000013          	addi	x0,x0,0
    264c:	00000013          	addi	x0,x0,0
    2650:	00000013          	addi	x0,x0,0
    2654:	00000013          	addi	x0,x0,0
    2658:	00000013          	addi	x0,x0,0
    265c:	00000013          	addi	x0,x0,0
    2660:	00006517          	auipc	x10,0x6
    2664:	03550513          	addi	x10,x10,53 # 8695 <badvalstr>
    2668:	00000013          	addi	x0,x0,0
    266c:	00000013          	addi	x0,x0,0
    2670:	00000013          	addi	x0,x0,0
    2674:	00000013          	addi	x0,x0,0
    2678:	00000013          	addi	x0,x0,0
    267c:	00000013          	addi	x0,x0,0
    2680:	00016097          	auipc	x1,0x16
    2684:	b84080e7          	jalr	x1,-1148(x1) # 18204 <rvmodel_io_write_str>
    2688:	00005517          	auipc	x10,0x5
    268c:	e2852503          	lw	x10,-472(x10) # 74b0 <begin_failure_scratch>
    2690:	00100593          	addi	x11,x0,1
    2694:	00b51c63          	bne	x10,x11,26ac <failedtest_report_badval_not_fp>
    2698:	00005517          	auipc	x10,0x5
    269c:	f2852503          	lw	x10,-216(x10) # 75c0 <failing_value>
    26a0:	02000593          	addi	x11,x0,32
    26a4:	034010ef          	jal	x1,36d8 <failedtest_hex_to_str>
    26a8:	0140006f          	jal	x0,26bc <failedtest_report_badval_done>

000026ac <failedtest_report_badval_not_fp>:
    26ac:	00005517          	auipc	x10,0x5
    26b0:	f1452503          	lw	x10,-236(x10) # 75c0 <failing_value>
    26b4:	02000593          	addi	x11,x0,32
    26b8:	020010ef          	jal	x1,36d8 <failedtest_hex_to_str>

000026bc <failedtest_report_badval_done>:
    26bc:	00000013          	addi	x0,x0,0
    26c0:	00005517          	auipc	x10,0x5
    26c4:	f7850513          	addi	x10,x10,-136 # 7638 <ascii_buffer>
    26c8:	00000013          	addi	x0,x0,0
    26cc:	00000013          	addi	x0,x0,0
    26d0:	00000013          	addi	x0,x0,0
    26d4:	00000013          	addi	x0,x0,0
    26d8:	00000013          	addi	x0,x0,0
    26dc:	00000013          	addi	x0,x0,0
    26e0:	00016097          	auipc	x1,0x16
    26e4:	b24080e7          	jalr	x1,-1244(x1) # 18204 <rvmodel_io_write_str>
    26e8:	00000013          	addi	x0,x0,0
    26ec:	00000013          	addi	x0,x0,0
    26f0:	00000013          	addi	x0,x0,0
    26f4:	00000013          	addi	x0,x0,0
    26f8:	00000013          	addi	x0,x0,0
    26fc:	00000013          	addi	x0,x0,0
    2700:	00006517          	auipc	x10,0x6
    2704:	fac50513          	addi	x10,x10,-84 # 86ac <expvalstr>
    2708:	00000013          	addi	x0,x0,0
    270c:	00000013          	addi	x0,x0,0
    2710:	00000013          	addi	x0,x0,0
    2714:	00000013          	addi	x0,x0,0
    2718:	00000013          	addi	x0,x0,0
    271c:	00000013          	addi	x0,x0,0
    2720:	00016097          	auipc	x1,0x16
    2724:	ae4080e7          	jalr	x1,-1308(x1) # 18204 <rvmodel_io_write_str>
    2728:	00005517          	auipc	x10,0x5
    272c:	d8852503          	lw	x10,-632(x10) # 74b0 <begin_failure_scratch>
    2730:	00100593          	addi	x11,x0,1
    2734:	00b51c63          	bne	x10,x11,274c <failedtest_report_expval_not_fp>
    2738:	00005517          	auipc	x10,0x5
    273c:	e9052503          	lw	x10,-368(x10) # 75c8 <expected_value>
    2740:	02000593          	addi	x11,x0,32
    2744:	795000ef          	jal	x1,36d8 <failedtest_hex_to_str>
    2748:	0140006f          	jal	x0,275c <failedtest_report_expval_done>

0000274c <failedtest_report_expval_not_fp>:
    274c:	00005517          	auipc	x10,0x5
    2750:	e7c52503          	lw	x10,-388(x10) # 75c8 <expected_value>
    2754:	02000593          	addi	x11,x0,32
    2758:	781000ef          	jal	x1,36d8 <failedtest_hex_to_str>

0000275c <failedtest_report_expval_done>:
    275c:	00000013          	addi	x0,x0,0
    2760:	00005517          	auipc	x10,0x5
    2764:	ed850513          	addi	x10,x10,-296 # 7638 <ascii_buffer>
    2768:	00000013          	addi	x0,x0,0
    276c:	00000013          	addi	x0,x0,0
    2770:	00000013          	addi	x0,x0,0
    2774:	00000013          	addi	x0,x0,0
    2778:	00000013          	addi	x0,x0,0
    277c:	00000013          	addi	x0,x0,0
    2780:	00016097          	auipc	x1,0x16
    2784:	a84080e7          	jalr	x1,-1404(x1) # 18204 <rvmodel_io_write_str>
    2788:	4fd0006f          	jal	x0,3484 <failedtest_report_end>

0000278c <failedtest_report_trap_detailed>:
    278c:	00000013          	addi	x0,x0,0
    2790:	00000013          	addi	x0,x0,0
    2794:	00000013          	addi	x0,x0,0
    2798:	00000013          	addi	x0,x0,0
    279c:	00000013          	addi	x0,x0,0
    27a0:	00006517          	auipc	x10,0x6
    27a4:	f7050513          	addi	x10,x10,-144 # 8710 <trap_diag_header_str>
    27a8:	00000013          	addi	x0,x0,0
    27ac:	00000013          	addi	x0,x0,0
    27b0:	00000013          	addi	x0,x0,0
    27b4:	00000013          	addi	x0,x0,0
    27b8:	00000013          	addi	x0,x0,0
    27bc:	00000013          	addi	x0,x0,0
    27c0:	00016097          	auipc	x1,0x16
    27c4:	a44080e7          	jalr	x1,-1468(x1) # 18204 <rvmodel_io_write_str>
    27c8:	00000013          	addi	x0,x0,0
    27cc:	00000013          	addi	x0,x0,0
    27d0:	00000013          	addi	x0,x0,0
    27d4:	00000013          	addi	x0,x0,0
    27d8:	00000013          	addi	x0,x0,0
    27dc:	00000013          	addi	x0,x0,0
    27e0:	00006517          	auipc	x10,0x6
    27e4:	f5c50513          	addi	x10,x10,-164 # 873c <trap_diag_origstr_label>
    27e8:	00000013          	addi	x0,x0,0
    27ec:	00000013          	addi	x0,x0,0
    27f0:	00000013          	addi	x0,x0,0
    27f4:	00000013          	addi	x0,x0,0
    27f8:	00000013          	addi	x0,x0,0
    27fc:	00000013          	addi	x0,x0,0
    2800:	00016097          	auipc	x1,0x16
    2804:	a04080e7          	jalr	x1,-1532(x1) # 18204 <rvmodel_io_write_str>
    2808:	00005817          	auipc	x16,0x5
    280c:	e0080813          	addi	x16,x16,-512 # 7608 <trap_diag_fail_str_ptr>
    2810:	00082503          	lw	x10,0(x16)
    2814:	00016097          	auipc	x1,0x16
    2818:	9f0080e7          	jalr	x1,-1552(x1) # 18204 <rvmodel_io_write_str>
    281c:	00000013          	addi	x0,x0,0
    2820:	00005517          	auipc	x10,0x5
    2824:	3d150513          	addi	x10,x10,977 # 7bf1 <newlinestr>
    2828:	00000013          	addi	x0,x0,0
    282c:	00000013          	addi	x0,x0,0
    2830:	00000013          	addi	x0,x0,0
    2834:	00000013          	addi	x0,x0,0
    2838:	00000013          	addi	x0,x0,0
    283c:	00000013          	addi	x0,x0,0
    2840:	00016097          	auipc	x1,0x16
    2844:	9c4080e7          	jalr	x1,-1596(x1) # 18204 <rvmodel_io_write_str>
    2848:	00005417          	auipc	x8,0x5
    284c:	d9842403          	lw	x8,-616(x8) # 75e0 <trap_diag_subtype>
    2850:	00900493          	addi	x9,x0,9
    2854:	00940663          	beq	x8,x9,2860 <trap_report_offset_mismatch>
    2858:	2a040ce3          	beq	x8,x0,3310 <trap_report_generic>
    285c:	3780006f          	jal	x0,2bd4 <trap_report_field_mismatch>

00002860 <trap_report_offset_mismatch>:
    2860:	00006517          	auipc	x10,0x6
    2864:	eec50513          	addi	x10,x10,-276 # 874c <trap_diag_count_mismatch_str>
    2868:	00000013          	addi	x0,x0,0
    286c:	00000013          	addi	x0,x0,0
    2870:	00000013          	addi	x0,x0,0
    2874:	00000013          	addi	x0,x0,0
    2878:	00000013          	addi	x0,x0,0
    287c:	00000013          	addi	x0,x0,0
    2880:	00016097          	auipc	x1,0x16
    2884:	984080e7          	jalr	x1,-1660(x1) # 18204 <rvmodel_io_write_str>
    2888:	00000013          	addi	x0,x0,0
    288c:	00000013          	addi	x0,x0,0
    2890:	00000013          	addi	x0,x0,0
    2894:	00000013          	addi	x0,x0,0
    2898:	00000013          	addi	x0,x0,0
    289c:	00000013          	addi	x0,x0,0
    28a0:	00006517          	auipc	x10,0x6
    28a4:	f0d50513          	addi	x10,x10,-243 # 87ad <trap_diag_expected_offset_str>
    28a8:	00000013          	addi	x0,x0,0
    28ac:	00000013          	addi	x0,x0,0
    28b0:	00000013          	addi	x0,x0,0
    28b4:	00000013          	addi	x0,x0,0
    28b8:	00000013          	addi	x0,x0,0
    28bc:	00000013          	addi	x0,x0,0
    28c0:	00016097          	auipc	x1,0x16
    28c4:	944080e7          	jalr	x1,-1724(x1) # 18204 <rvmodel_io_write_str>
    28c8:	00005517          	auipc	x10,0x5
    28cc:	d3852503          	lw	x10,-712(x10) # 7600 <trap_diag_expected_offset>
    28d0:	02000593          	addi	x11,x0,32
    28d4:	605000ef          	jal	x1,36d8 <failedtest_hex_to_str>
    28d8:	00000013          	addi	x0,x0,0
    28dc:	00000013          	addi	x0,x0,0
    28e0:	00005517          	auipc	x10,0x5
    28e4:	d5850513          	addi	x10,x10,-680 # 7638 <ascii_buffer>
    28e8:	00000013          	addi	x0,x0,0
    28ec:	00000013          	addi	x0,x0,0
    28f0:	00000013          	addi	x0,x0,0
    28f4:	00000013          	addi	x0,x0,0
    28f8:	00000013          	addi	x0,x0,0
    28fc:	00000013          	addi	x0,x0,0
    2900:	00016097          	auipc	x1,0x16
    2904:	904080e7          	jalr	x1,-1788(x1) # 18204 <rvmodel_io_write_str>
    2908:	00000013          	addi	x0,x0,0
    290c:	00000013          	addi	x0,x0,0
    2910:	00000013          	addi	x0,x0,0
    2914:	00000013          	addi	x0,x0,0
    2918:	00000013          	addi	x0,x0,0
    291c:	00000013          	addi	x0,x0,0
    2920:	00006517          	auipc	x10,0x6
    2924:	eb450513          	addi	x10,x10,-332 # 87d4 <trap_diag_actual_offset_str>
    2928:	00000013          	addi	x0,x0,0
    292c:	00000013          	addi	x0,x0,0
    2930:	00000013          	addi	x0,x0,0
    2934:	00000013          	addi	x0,x0,0
    2938:	00000013          	addi	x0,x0,0
    293c:	00000013          	addi	x0,x0,0
    2940:	00016097          	auipc	x1,0x16
    2944:	8c4080e7          	jalr	x1,-1852(x1) # 18204 <rvmodel_io_write_str>
    2948:	00005517          	auipc	x10,0x5
    294c:	cb052503          	lw	x10,-848(x10) # 75f8 <trap_diag_actual_offset>
    2950:	02000593          	addi	x11,x0,32
    2954:	585000ef          	jal	x1,36d8 <failedtest_hex_to_str>
    2958:	00000013          	addi	x0,x0,0
    295c:	00000013          	addi	x0,x0,0
    2960:	00005517          	auipc	x10,0x5
    2964:	cd850513          	addi	x10,x10,-808 # 7638 <ascii_buffer>
    2968:	00000013          	addi	x0,x0,0
    296c:	00000013          	addi	x0,x0,0
    2970:	00000013          	addi	x0,x0,0
    2974:	00000013          	addi	x0,x0,0
    2978:	00000013          	addi	x0,x0,0
    297c:	00000013          	addi	x0,x0,0
    2980:	00016097          	auipc	x1,0x16
    2984:	884080e7          	jalr	x1,-1916(x1) # 18204 <rvmodel_io_write_str>
    2988:	00005317          	auipc	x6,0x5
    298c:	c7032303          	lw	x6,-912(x6) # 75f8 <trap_diag_actual_offset>
    2990:	00005397          	auipc	x7,0x5
    2994:	c703a383          	lw	x7,-912(x7) # 7600 <trap_diag_expected_offset>
    2998:	10734e63          	blt	x6,x7,2ab4 <trap_report_missing_traps>

0000299c <trap_report_extra_traps>:
    299c:	00000013          	addi	x0,x0,0
    29a0:	00006517          	auipc	x10,0x6
    29a4:	e5b50513          	addi	x10,x10,-421 # 87fb <trap_diag_extra_traps_str>
    29a8:	00000013          	addi	x0,x0,0
    29ac:	00000013          	addi	x0,x0,0
    29b0:	00000013          	addi	x0,x0,0
    29b4:	00000013          	addi	x0,x0,0
    29b8:	00000013          	addi	x0,x0,0
    29bc:	00000013          	addi	x0,x0,0
    29c0:	00016097          	auipc	x1,0x16
    29c4:	844080e7          	jalr	x1,-1980(x1) # 18204 <rvmodel_io_write_str>
    29c8:	00005317          	auipc	x6,0x5
    29cc:	c3032303          	lw	x6,-976(x6) # 75f8 <trap_diag_actual_offset>
    29d0:	00005397          	auipc	x7,0x5
    29d4:	c303a383          	lw	x7,-976(x7) # 7600 <trap_diag_expected_offset>
    29d8:	40730333          	sub	x6,x6,x7
    29dc:	00235313          	srli	x6,x6,0x2
    29e0:	00006517          	auipc	x10,0x6
    29e4:	ea050513          	addi	x10,x10,-352 # 8880 <trap_diag_extra_bytes_str>
    29e8:	00000013          	addi	x0,x0,0
    29ec:	00000013          	addi	x0,x0,0
    29f0:	00000013          	addi	x0,x0,0
    29f4:	00000013          	addi	x0,x0,0
    29f8:	00000013          	addi	x0,x0,0
    29fc:	00000013          	addi	x0,x0,0
    2a00:	00016097          	auipc	x1,0x16
    2a04:	804080e7          	jalr	x1,-2044(x1) # 18204 <rvmodel_io_write_str>
    2a08:	00005317          	auipc	x6,0x5
    2a0c:	bf032303          	lw	x6,-1040(x6) # 75f8 <trap_diag_actual_offset>
    2a10:	00005397          	auipc	x7,0x5
    2a14:	bf03a383          	lw	x7,-1040(x7) # 7600 <trap_diag_expected_offset>
    2a18:	40730533          	sub	x10,x6,x7
    2a1c:	02000593          	addi	x11,x0,32
    2a20:	4b9000ef          	jal	x1,36d8 <failedtest_hex_to_str>
    2a24:	00000013          	addi	x0,x0,0
    2a28:	00000013          	addi	x0,x0,0
    2a2c:	00000013          	addi	x0,x0,0
    2a30:	00000013          	addi	x0,x0,0
    2a34:	00000013          	addi	x0,x0,0
    2a38:	00000013          	addi	x0,x0,0
    2a3c:	00000013          	addi	x0,x0,0
    2a40:	00005517          	auipc	x10,0x5
    2a44:	bf850513          	addi	x10,x10,-1032 # 7638 <ascii_buffer>
    2a48:	00000013          	addi	x0,x0,0
    2a4c:	00000013          	addi	x0,x0,0
    2a50:	00000013          	addi	x0,x0,0
    2a54:	00000013          	addi	x0,x0,0
    2a58:	00000013          	addi	x0,x0,0
    2a5c:	00000013          	addi	x0,x0,0
    2a60:	00015097          	auipc	x1,0x15
    2a64:	7a4080e7          	jalr	x1,1956(x1) # 18204 <rvmodel_io_write_str>
    2a68:	00000013          	addi	x0,x0,0
    2a6c:	00000013          	addi	x0,x0,0
    2a70:	00000013          	addi	x0,x0,0
    2a74:	00000013          	addi	x0,x0,0
    2a78:	00000013          	addi	x0,x0,0
    2a7c:	00000013          	addi	x0,x0,0
    2a80:	00006517          	auipc	x10,0x6
    2a84:	e2b50513          	addi	x10,x10,-469 # 88ab <trap_diag_extra_hint_str>
    2a88:	00000013          	addi	x0,x0,0
    2a8c:	00000013          	addi	x0,x0,0
    2a90:	00000013          	addi	x0,x0,0
    2a94:	00000013          	addi	x0,x0,0
    2a98:	00000013          	addi	x0,x0,0
    2a9c:	00000013          	addi	x0,x0,0
    2aa0:	00015097          	auipc	x1,0x15
    2aa4:	764080e7          	jalr	x1,1892(x1) # 18204 <rvmodel_io_write_str>
    2aa8:	00001097          	auipc	x1,0x1
    2aac:	a28080e7          	jalr	x1,-1496(x1) # 34d0 <failedtest_print_csr_context>
    2ab0:	1d50006f          	jal	x0,3484 <failedtest_report_end>

00002ab4 <trap_report_missing_traps>:
    2ab4:	00000013          	addi	x0,x0,0
    2ab8:	00000013          	addi	x0,x0,0
    2abc:	00000013          	addi	x0,x0,0
    2ac0:	00006517          	auipc	x10,0x6
    2ac4:	d7550513          	addi	x10,x10,-651 # 8835 <trap_diag_missing_traps_str>
    2ac8:	00000013          	addi	x0,x0,0
    2acc:	00000013          	addi	x0,x0,0
    2ad0:	00000013          	addi	x0,x0,0
    2ad4:	00000013          	addi	x0,x0,0
    2ad8:	00000013          	addi	x0,x0,0
    2adc:	00000013          	addi	x0,x0,0
    2ae0:	00015097          	auipc	x1,0x15
    2ae4:	724080e7          	jalr	x1,1828(x1) # 18204 <rvmodel_io_write_str>
    2ae8:	00000013          	addi	x0,x0,0
    2aec:	00000013          	addi	x0,x0,0
    2af0:	00000013          	addi	x0,x0,0
    2af4:	00000013          	addi	x0,x0,0
    2af8:	00000013          	addi	x0,x0,0
    2afc:	00000013          	addi	x0,x0,0
    2b00:	00006517          	auipc	x10,0x6
    2b04:	d8050513          	addi	x10,x10,-640 # 8880 <trap_diag_extra_bytes_str>
    2b08:	00000013          	addi	x0,x0,0
    2b0c:	00000013          	addi	x0,x0,0
    2b10:	00000013          	addi	x0,x0,0
    2b14:	00000013          	addi	x0,x0,0
    2b18:	00000013          	addi	x0,x0,0
    2b1c:	00000013          	addi	x0,x0,0
    2b20:	00015097          	auipc	x1,0x15
    2b24:	6e4080e7          	jalr	x1,1764(x1) # 18204 <rvmodel_io_write_str>
    2b28:	00005317          	auipc	x6,0x5
    2b2c:	ad832303          	lw	x6,-1320(x6) # 7600 <trap_diag_expected_offset>
    2b30:	00005397          	auipc	x7,0x5
    2b34:	ac83a383          	lw	x7,-1336(x7) # 75f8 <trap_diag_actual_offset>
    2b38:	40730533          	sub	x10,x6,x7
    2b3c:	02000593          	addi	x11,x0,32
    2b40:	399000ef          	jal	x1,36d8 <failedtest_hex_to_str>
    2b44:	00000013          	addi	x0,x0,0
    2b48:	00000013          	addi	x0,x0,0
    2b4c:	00000013          	addi	x0,x0,0
    2b50:	00000013          	addi	x0,x0,0
    2b54:	00000013          	addi	x0,x0,0
    2b58:	00000013          	addi	x0,x0,0
    2b5c:	00000013          	addi	x0,x0,0
    2b60:	00005517          	auipc	x10,0x5
    2b64:	ad850513          	addi	x10,x10,-1320 # 7638 <ascii_buffer>
    2b68:	00000013          	addi	x0,x0,0
    2b6c:	00000013          	addi	x0,x0,0
    2b70:	00000013          	addi	x0,x0,0
    2b74:	00000013          	addi	x0,x0,0
    2b78:	00000013          	addi	x0,x0,0
    2b7c:	00000013          	addi	x0,x0,0
    2b80:	00015097          	auipc	x1,0x15
    2b84:	684080e7          	jalr	x1,1668(x1) # 18204 <rvmodel_io_write_str>
    2b88:	00000013          	addi	x0,x0,0
    2b8c:	00000013          	addi	x0,x0,0
    2b90:	00000013          	addi	x0,x0,0
    2b94:	00000013          	addi	x0,x0,0
    2b98:	00000013          	addi	x0,x0,0
    2b9c:	00000013          	addi	x0,x0,0
    2ba0:	00006517          	auipc	x10,0x6
    2ba4:	df350513          	addi	x10,x10,-525 # 8993 <trap_diag_missing_hint_str>
    2ba8:	00000013          	addi	x0,x0,0
    2bac:	00000013          	addi	x0,x0,0
    2bb0:	00000013          	addi	x0,x0,0
    2bb4:	00000013          	addi	x0,x0,0
    2bb8:	00000013          	addi	x0,x0,0
    2bbc:	00000013          	addi	x0,x0,0
    2bc0:	00015097          	auipc	x1,0x15
    2bc4:	644080e7          	jalr	x1,1604(x1) # 18204 <rvmodel_io_write_str>
    2bc8:	00001097          	auipc	x1,0x1
    2bcc:	908080e7          	jalr	x1,-1784(x1) # 34d0 <failedtest_print_csr_context>
    2bd0:	0b50006f          	jal	x0,3484 <failedtest_report_end>

00002bd4 <trap_report_field_mismatch>:
    2bd4:	00000013          	addi	x0,x0,0
    2bd8:	00000013          	addi	x0,x0,0
    2bdc:	00000013          	addi	x0,x0,0
    2be0:	00006517          	auipc	x10,0x6
    2be4:	e9a50513          	addi	x10,x10,-358 # 8a7a <trap_diag_handler_mode_str>
    2be8:	00000013          	addi	x0,x0,0
    2bec:	00000013          	addi	x0,x0,0
    2bf0:	00000013          	addi	x0,x0,0
    2bf4:	00000013          	addi	x0,x0,0
    2bf8:	00000013          	addi	x0,x0,0
    2bfc:	00000013          	addi	x0,x0,0
    2c00:	00015097          	auipc	x1,0x15
    2c04:	604080e7          	jalr	x1,1540(x1) # 18204 <rvmodel_io_write_str>
    2c08:	00005517          	auipc	x10,0x5
    2c0c:	9dc52503          	lw	x10,-1572(x10) # 75e4 <trap_diag_mode>
    2c10:	04050a63          	beq	x10,x0,2c64 <trap_mode_m>
    2c14:	00100593          	addi	x11,x0,1
    2c18:	08b50663          	beq	x10,x11,2ca4 <trap_mode_s>
    2c1c:	00200593          	addi	x11,x0,2
    2c20:	0cb50263          	beq	x10,x11,2ce4 <trap_mode_h>
    2c24:	00300593          	addi	x11,x0,3
    2c28:	0eb50e63          	beq	x10,x11,2d24 <trap_mode_v>
    2c2c:	00000013          	addi	x0,x0,0
    2c30:	00000013          	addi	x0,x0,0
    2c34:	00000013          	addi	x0,x0,0
    2c38:	00000013          	addi	x0,x0,0
    2c3c:	00000013          	addi	x0,x0,0
    2c40:	00006517          	auipc	x10,0x6
    2c44:	e7650513          	addi	x10,x10,-394 # 8ab6 <trap_diag_mode_unknown_str>
    2c48:	00000013          	addi	x0,x0,0
    2c4c:	00000013          	addi	x0,x0,0
    2c50:	00000013          	addi	x0,x0,0
    2c54:	00000013          	addi	x0,x0,0
    2c58:	00000013          	addi	x0,x0,0
    2c5c:	00000013          	addi	x0,x0,0
    2c60:	1000006f          	jal	x0,2d60 <trap_mode_print>

00002c64 <trap_mode_m>:
    2c64:	00000013          	addi	x0,x0,0
    2c68:	00000013          	addi	x0,x0,0
    2c6c:	00000013          	addi	x0,x0,0
    2c70:	00000013          	addi	x0,x0,0
    2c74:	00000013          	addi	x0,x0,0
    2c78:	00000013          	addi	x0,x0,0
    2c7c:	00000013          	addi	x0,x0,0
    2c80:	00006517          	auipc	x10,0x6
    2c84:	e1450513          	addi	x10,x10,-492 # 8a94 <trap_diag_mode_m_str>
    2c88:	00000013          	addi	x0,x0,0
    2c8c:	00000013          	addi	x0,x0,0
    2c90:	00000013          	addi	x0,x0,0
    2c94:	00000013          	addi	x0,x0,0
    2c98:	00000013          	addi	x0,x0,0
    2c9c:	00000013          	addi	x0,x0,0
    2ca0:	0c00006f          	jal	x0,2d60 <trap_mode_print>

00002ca4 <trap_mode_s>:
    2ca4:	00000013          	addi	x0,x0,0
    2ca8:	00000013          	addi	x0,x0,0
    2cac:	00000013          	addi	x0,x0,0
    2cb0:	00000013          	addi	x0,x0,0
    2cb4:	00000013          	addi	x0,x0,0
    2cb8:	00000013          	addi	x0,x0,0
    2cbc:	00000013          	addi	x0,x0,0
    2cc0:	00006517          	auipc	x10,0x6
    2cc4:	ddc50513          	addi	x10,x10,-548 # 8a9c <trap_diag_mode_s_str>
    2cc8:	00000013          	addi	x0,x0,0
    2ccc:	00000013          	addi	x0,x0,0
    2cd0:	00000013          	addi	x0,x0,0
    2cd4:	00000013          	addi	x0,x0,0
    2cd8:	00000013          	addi	x0,x0,0
    2cdc:	00000013          	addi	x0,x0,0
    2ce0:	0800006f          	jal	x0,2d60 <trap_mode_print>

00002ce4 <trap_mode_h>:
    2ce4:	00000013          	addi	x0,x0,0
    2ce8:	00000013          	addi	x0,x0,0
    2cec:	00000013          	addi	x0,x0,0
    2cf0:	00000013          	addi	x0,x0,0
    2cf4:	00000013          	addi	x0,x0,0
    2cf8:	00000013          	addi	x0,x0,0
    2cfc:	00000013          	addi	x0,x0,0
    2d00:	00006517          	auipc	x10,0x6
    2d04:	da450513          	addi	x10,x10,-604 # 8aa4 <trap_diag_mode_hs_str>
    2d08:	00000013          	addi	x0,x0,0
    2d0c:	00000013          	addi	x0,x0,0
    2d10:	00000013          	addi	x0,x0,0
    2d14:	00000013          	addi	x0,x0,0
    2d18:	00000013          	addi	x0,x0,0
    2d1c:	00000013          	addi	x0,x0,0
    2d20:	0400006f          	jal	x0,2d60 <trap_mode_print>

00002d24 <trap_mode_v>:
    2d24:	00000013          	addi	x0,x0,0
    2d28:	00000013          	addi	x0,x0,0
    2d2c:	00000013          	addi	x0,x0,0
    2d30:	00000013          	addi	x0,x0,0
    2d34:	00000013          	addi	x0,x0,0
    2d38:	00000013          	addi	x0,x0,0
    2d3c:	00000013          	addi	x0,x0,0
    2d40:	00006517          	auipc	x10,0x6
    2d44:	d6d50513          	addi	x10,x10,-659 # 8aad <trap_diag_mode_vs_str>
    2d48:	00000013          	addi	x0,x0,0
    2d4c:	00000013          	addi	x0,x0,0
    2d50:	00000013          	addi	x0,x0,0
    2d54:	00000013          	addi	x0,x0,0
    2d58:	00000013          	addi	x0,x0,0
    2d5c:	00000013          	addi	x0,x0,0

00002d60 <trap_mode_print>:
    2d60:	00015097          	auipc	x1,0x15
    2d64:	4a4080e7          	jalr	x1,1188(x1) # 18204 <rvmodel_io_write_str>
    2d68:	00000013          	addi	x0,x0,0
    2d6c:	00000013          	addi	x0,x0,0
    2d70:	00000013          	addi	x0,x0,0
    2d74:	00000013          	addi	x0,x0,0
    2d78:	00000013          	addi	x0,x0,0
    2d7c:	00000013          	addi	x0,x0,0
    2d80:	00006517          	auipc	x10,0x6
    2d84:	d3f50513          	addi	x10,x10,-705 # 8abf <trap_diag_field_str>
    2d88:	00000013          	addi	x0,x0,0
    2d8c:	00000013          	addi	x0,x0,0
    2d90:	00000013          	addi	x0,x0,0
    2d94:	00000013          	addi	x0,x0,0
    2d98:	00000013          	addi	x0,x0,0
    2d9c:	00000013          	addi	x0,x0,0
    2da0:	00015097          	auipc	x1,0x15
    2da4:	464080e7          	jalr	x1,1124(x1) # 18204 <rvmodel_io_write_str>
    2da8:	00005517          	auipc	x10,0x5
    2dac:	83852503          	lw	x10,-1992(x10) # 75e0 <trap_diag_subtype>
    2db0:	00100593          	addi	x11,x0,1
    2db4:	06b50863          	beq	x10,x11,2e24 <trap_field_vect>
    2db8:	00200593          	addi	x11,x0,2
    2dbc:	0ab50463          	beq	x10,x11,2e64 <trap_field_cause>
    2dc0:	00300593          	addi	x11,x0,3
    2dc4:	0eb50063          	beq	x10,x11,2ea4 <trap_field_epc>
    2dc8:	00400593          	addi	x11,x0,4
    2dcc:	10b50c63          	beq	x10,x11,2ee4 <trap_field_tval>
    2dd0:	00500593          	addi	x11,x0,5
    2dd4:	14b50863          	beq	x10,x11,2f24 <trap_field_ip>
    2dd8:	00600593          	addi	x11,x0,6
    2ddc:	18b50463          	beq	x10,x11,2f64 <trap_field_tval2>
    2de0:	00700593          	addi	x11,x0,7
    2de4:	1cb50063          	beq	x10,x11,2fa4 <trap_field_tinst>
    2de8:	00800593          	addi	x11,x0,8
    2dec:	1eb50c63          	beq	x10,x11,2fe4 <trap_field_intid>
    2df0:	00000013          	addi	x0,x0,0
    2df4:	00000013          	addi	x0,x0,0
    2df8:	00000013          	addi	x0,x0,0
    2dfc:	00000013          	addi	x0,x0,0
    2e00:	00006517          	auipc	x10,0x6
    2e04:	e1650513          	addi	x10,x10,-490 # 8c16 <trap_diag_field_unknown_str>
    2e08:	00000013          	addi	x0,x0,0
    2e0c:	00000013          	addi	x0,x0,0
    2e10:	00000013          	addi	x0,x0,0
    2e14:	00000013          	addi	x0,x0,0
    2e18:	00000013          	addi	x0,x0,0
    2e1c:	00000013          	addi	x0,x0,0
    2e20:	2000006f          	jal	x0,3020 <trap_field_print>

00002e24 <trap_field_vect>:
    2e24:	00000013          	addi	x0,x0,0
    2e28:	00000013          	addi	x0,x0,0
    2e2c:	00000013          	addi	x0,x0,0
    2e30:	00000013          	addi	x0,x0,0
    2e34:	00000013          	addi	x0,x0,0
    2e38:	00000013          	addi	x0,x0,0
    2e3c:	00000013          	addi	x0,x0,0
    2e40:	00006517          	auipc	x10,0x6
    2e44:	c9950513          	addi	x10,x10,-871 # 8ad9 <trap_diag_field_vect_str>
    2e48:	00000013          	addi	x0,x0,0
    2e4c:	00000013          	addi	x0,x0,0
    2e50:	00000013          	addi	x0,x0,0
    2e54:	00000013          	addi	x0,x0,0
    2e58:	00000013          	addi	x0,x0,0
    2e5c:	00000013          	addi	x0,x0,0
    2e60:	1c00006f          	jal	x0,3020 <trap_field_print>

00002e64 <trap_field_cause>:
    2e64:	00000013          	addi	x0,x0,0
    2e68:	00000013          	addi	x0,x0,0
    2e6c:	00000013          	addi	x0,x0,0
    2e70:	00000013          	addi	x0,x0,0
    2e74:	00000013          	addi	x0,x0,0
    2e78:	00000013          	addi	x0,x0,0
    2e7c:	00000013          	addi	x0,x0,0
    2e80:	00006517          	auipc	x10,0x6
    2e84:	c8a50513          	addi	x10,x10,-886 # 8b0a <trap_diag_field_cause_str>
    2e88:	00000013          	addi	x0,x0,0
    2e8c:	00000013          	addi	x0,x0,0
    2e90:	00000013          	addi	x0,x0,0
    2e94:	00000013          	addi	x0,x0,0
    2e98:	00000013          	addi	x0,x0,0
    2e9c:	00000013          	addi	x0,x0,0
    2ea0:	1800006f          	jal	x0,3020 <trap_field_print>

00002ea4 <trap_field_epc>:
    2ea4:	00000013          	addi	x0,x0,0
    2ea8:	00000013          	addi	x0,x0,0
    2eac:	00000013          	addi	x0,x0,0
    2eb0:	00000013          	addi	x0,x0,0
    2eb4:	00000013          	addi	x0,x0,0
    2eb8:	00000013          	addi	x0,x0,0
    2ebc:	00000013          	addi	x0,x0,0
    2ec0:	00006517          	auipc	x10,0x6
    2ec4:	c6a50513          	addi	x10,x10,-918 # 8b2a <trap_diag_field_epc_str>
    2ec8:	00000013          	addi	x0,x0,0
    2ecc:	00000013          	addi	x0,x0,0
    2ed0:	00000013          	addi	x0,x0,0
    2ed4:	00000013          	addi	x0,x0,0
    2ed8:	00000013          	addi	x0,x0,0
    2edc:	00000013          	addi	x0,x0,0
    2ee0:	1400006f          	jal	x0,3020 <trap_field_print>

00002ee4 <trap_field_tval>:
    2ee4:	00000013          	addi	x0,x0,0
    2ee8:	00000013          	addi	x0,x0,0
    2eec:	00000013          	addi	x0,x0,0
    2ef0:	00000013          	addi	x0,x0,0
    2ef4:	00000013          	addi	x0,x0,0
    2ef8:	00000013          	addi	x0,x0,0
    2efc:	00000013          	addi	x0,x0,0
    2f00:	00006517          	auipc	x10,0x6
    2f04:	c4850513          	addi	x10,x10,-952 # 8b48 <trap_diag_field_tval_str>
    2f08:	00000013          	addi	x0,x0,0
    2f0c:	00000013          	addi	x0,x0,0
    2f10:	00000013          	addi	x0,x0,0
    2f14:	00000013          	addi	x0,x0,0
    2f18:	00000013          	addi	x0,x0,0
    2f1c:	00000013          	addi	x0,x0,0
    2f20:	1000006f          	jal	x0,3020 <trap_field_print>

00002f24 <trap_field_ip>:
    2f24:	00000013          	addi	x0,x0,0
    2f28:	00000013          	addi	x0,x0,0
    2f2c:	00000013          	addi	x0,x0,0
    2f30:	00000013          	addi	x0,x0,0
    2f34:	00000013          	addi	x0,x0,0
    2f38:	00000013          	addi	x0,x0,0
    2f3c:	00000013          	addi	x0,x0,0
    2f40:	00006517          	auipc	x10,0x6
    2f44:	c2750513          	addi	x10,x10,-985 # 8b67 <trap_diag_field_ip_str>
    2f48:	00000013          	addi	x0,x0,0
    2f4c:	00000013          	addi	x0,x0,0
    2f50:	00000013          	addi	x0,x0,0
    2f54:	00000013          	addi	x0,x0,0
    2f58:	00000013          	addi	x0,x0,0
    2f5c:	00000013          	addi	x0,x0,0
    2f60:	0c00006f          	jal	x0,3020 <trap_field_print>

00002f64 <trap_field_tval2>:
    2f64:	00000013          	addi	x0,x0,0
    2f68:	00000013          	addi	x0,x0,0
    2f6c:	00000013          	addi	x0,x0,0
    2f70:	00000013          	addi	x0,x0,0
    2f74:	00000013          	addi	x0,x0,0
    2f78:	00000013          	addi	x0,x0,0
    2f7c:	00000013          	addi	x0,x0,0
    2f80:	00006517          	auipc	x10,0x6
    2f84:	c0f50513          	addi	x10,x10,-1009 # 8b8f <trap_diag_field_tval2_str>
    2f88:	00000013          	addi	x0,x0,0
    2f8c:	00000013          	addi	x0,x0,0
    2f90:	00000013          	addi	x0,x0,0
    2f94:	00000013          	addi	x0,x0,0
    2f98:	00000013          	addi	x0,x0,0
    2f9c:	00000013          	addi	x0,x0,0
    2fa0:	0800006f          	jal	x0,3020 <trap_field_print>

00002fa4 <trap_field_tinst>:
    2fa4:	00000013          	addi	x0,x0,0
    2fa8:	00000013          	addi	x0,x0,0
    2fac:	00000013          	addi	x0,x0,0
    2fb0:	00000013          	addi	x0,x0,0
    2fb4:	00000013          	addi	x0,x0,0
    2fb8:	00000013          	addi	x0,x0,0
    2fbc:	00000013          	addi	x0,x0,0
    2fc0:	00006517          	auipc	x10,0x6
    2fc4:	bfb50513          	addi	x10,x10,-1029 # 8bbb <trap_diag_field_tinst_str>
    2fc8:	00000013          	addi	x0,x0,0
    2fcc:	00000013          	addi	x0,x0,0
    2fd0:	00000013          	addi	x0,x0,0
    2fd4:	00000013          	addi	x0,x0,0
    2fd8:	00000013          	addi	x0,x0,0
    2fdc:	00000013          	addi	x0,x0,0
    2fe0:	0400006f          	jal	x0,3020 <trap_field_print>

00002fe4 <trap_field_intid>:
    2fe4:	00000013          	addi	x0,x0,0
    2fe8:	00000013          	addi	x0,x0,0
    2fec:	00000013          	addi	x0,x0,0
    2ff0:	00000013          	addi	x0,x0,0
    2ff4:	00000013          	addi	x0,x0,0
    2ff8:	00000013          	addi	x0,x0,0
    2ffc:	00000013          	addi	x0,x0,0
    3000:	00006517          	auipc	x10,0x6
    3004:	be750513          	addi	x10,x10,-1049 # 8be7 <trap_diag_field_intid_str>
    3008:	00000013          	addi	x0,x0,0
    300c:	00000013          	addi	x0,x0,0
    3010:	00000013          	addi	x0,x0,0
    3014:	00000013          	addi	x0,x0,0
    3018:	00000013          	addi	x0,x0,0
    301c:	00000013          	addi	x0,x0,0

00003020 <trap_field_print>:
    3020:	00015097          	auipc	x1,0x15
    3024:	1e4080e7          	jalr	x1,484(x1) # 18204 <rvmodel_io_write_str>
    3028:	00000013          	addi	x0,x0,0
    302c:	00000013          	addi	x0,x0,0
    3030:	00000013          	addi	x0,x0,0
    3034:	00000013          	addi	x0,x0,0
    3038:	00000013          	addi	x0,x0,0
    303c:	00000013          	addi	x0,x0,0
    3040:	00006517          	auipc	x10,0x6
    3044:	be550513          	addi	x10,x10,-1051 # 8c25 <trap_diag_expected_str>
    3048:	00000013          	addi	x0,x0,0
    304c:	00000013          	addi	x0,x0,0
    3050:	00000013          	addi	x0,x0,0
    3054:	00000013          	addi	x0,x0,0
    3058:	00000013          	addi	x0,x0,0
    305c:	00000013          	addi	x0,x0,0
    3060:	00015097          	auipc	x1,0x15
    3064:	1a4080e7          	jalr	x1,420(x1) # 18204 <rvmodel_io_write_str>
    3068:	00004517          	auipc	x10,0x4
    306c:	58852503          	lw	x10,1416(x10) # 75f0 <trap_diag_expected_value>
    3070:	02000593          	addi	x11,x0,32
    3074:	664000ef          	jal	x1,36d8 <failedtest_hex_to_str>
    3078:	00000013          	addi	x0,x0,0
    307c:	00000013          	addi	x0,x0,0
    3080:	00004517          	auipc	x10,0x4
    3084:	5b850513          	addi	x10,x10,1464 # 7638 <ascii_buffer>
    3088:	00000013          	addi	x0,x0,0
    308c:	00000013          	addi	x0,x0,0
    3090:	00000013          	addi	x0,x0,0
    3094:	00000013          	addi	x0,x0,0
    3098:	00000013          	addi	x0,x0,0
    309c:	00000013          	addi	x0,x0,0
    30a0:	00015097          	auipc	x1,0x15
    30a4:	164080e7          	jalr	x1,356(x1) # 18204 <rvmodel_io_write_str>
    30a8:	00000013          	addi	x0,x0,0
    30ac:	00000013          	addi	x0,x0,0
    30b0:	00000013          	addi	x0,x0,0
    30b4:	00000013          	addi	x0,x0,0
    30b8:	00000013          	addi	x0,x0,0
    30bc:	00000013          	addi	x0,x0,0
    30c0:	00006517          	auipc	x10,0x6
    30c4:	b7c50513          	addi	x10,x10,-1156 # 8c3c <trap_diag_actual_str>
    30c8:	00000013          	addi	x0,x0,0
    30cc:	00000013          	addi	x0,x0,0
    30d0:	00000013          	addi	x0,x0,0
    30d4:	00000013          	addi	x0,x0,0
    30d8:	00000013          	addi	x0,x0,0
    30dc:	00000013          	addi	x0,x0,0
    30e0:	00015097          	auipc	x1,0x15
    30e4:	124080e7          	jalr	x1,292(x1) # 18204 <rvmodel_io_write_str>
    30e8:	00004517          	auipc	x10,0x4
    30ec:	50052503          	lw	x10,1280(x10) # 75e8 <trap_diag_actual_value>
    30f0:	02000593          	addi	x11,x0,32
    30f4:	5e4000ef          	jal	x1,36d8 <failedtest_hex_to_str>
    30f8:	00000013          	addi	x0,x0,0
    30fc:	00000013          	addi	x0,x0,0
    3100:	00004517          	auipc	x10,0x4
    3104:	53850513          	addi	x10,x10,1336 # 7638 <ascii_buffer>
    3108:	00000013          	addi	x0,x0,0
    310c:	00000013          	addi	x0,x0,0
    3110:	00000013          	addi	x0,x0,0
    3114:	00000013          	addi	x0,x0,0
    3118:	00000013          	addi	x0,x0,0
    311c:	00000013          	addi	x0,x0,0
    3120:	00015097          	auipc	x1,0x15
    3124:	0e4080e7          	jalr	x1,228(x1) # 18204 <rvmodel_io_write_str>
    3128:	00004517          	auipc	x10,0x4
    312c:	4b852503          	lw	x10,1208(x10) # 75e0 <trap_diag_subtype>
    3130:	00200593          	addi	x11,x0,2
    3134:	08b51463          	bne	x10,x11,31bc <trap_field_not_cause>
    3138:	00000013          	addi	x0,x0,0
    313c:	00000013          	addi	x0,x0,0
    3140:	00006517          	auipc	x10,0x6
    3144:	b1350513          	addi	x10,x10,-1261 # 8c53 <trap_diag_expected_cause_name_str>
    3148:	00000013          	addi	x0,x0,0
    314c:	00000013          	addi	x0,x0,0
    3150:	00000013          	addi	x0,x0,0
    3154:	00000013          	addi	x0,x0,0
    3158:	00000013          	addi	x0,x0,0
    315c:	00000013          	addi	x0,x0,0
    3160:	00015097          	auipc	x1,0x15
    3164:	0a4080e7          	jalr	x1,164(x1) # 18204 <rvmodel_io_write_str>
    3168:	00004517          	auipc	x10,0x4
    316c:	48852503          	lw	x10,1160(x10) # 75f0 <trap_diag_expected_value>
    3170:	284000ef          	jal	x1,33f4 <trap_cause_to_str>
    3174:	00015097          	auipc	x1,0x15
    3178:	090080e7          	jalr	x1,144(x1) # 18204 <rvmodel_io_write_str>
    317c:	00000013          	addi	x0,x0,0
    3180:	00006517          	auipc	x10,0x6
    3184:	aea50513          	addi	x10,x10,-1302 # 8c6a <trap_diag_actual_cause_name_str>
    3188:	00000013          	addi	x0,x0,0
    318c:	00000013          	addi	x0,x0,0
    3190:	00000013          	addi	x0,x0,0
    3194:	00000013          	addi	x0,x0,0
    3198:	00000013          	addi	x0,x0,0
    319c:	00000013          	addi	x0,x0,0
    31a0:	00015097          	auipc	x1,0x15
    31a4:	064080e7          	jalr	x1,100(x1) # 18204 <rvmodel_io_write_str>
    31a8:	00004517          	auipc	x10,0x4
    31ac:	44052503          	lw	x10,1088(x10) # 75e8 <trap_diag_actual_value>
    31b0:	244000ef          	jal	x1,33f4 <trap_cause_to_str>
    31b4:	00015097          	auipc	x1,0x15
    31b8:	050080e7          	jalr	x1,80(x1) # 18204 <rvmodel_io_write_str>

000031bc <trap_field_not_cause>:
    31bc:	00000097          	auipc	x1,0x0
    31c0:	314080e7          	jalr	x1,788(x1) # 34d0 <failedtest_print_csr_context>
    31c4:	00004517          	auipc	x10,0x4
    31c8:	41c52503          	lw	x10,1052(x10) # 75e0 <trap_diag_subtype>
    31cc:	00100593          	addi	x11,x0,1
    31d0:	02b51e63          	bne	x10,x11,320c <trap_field_not_cause+0x50>
    31d4:	00000013          	addi	x0,x0,0
    31d8:	00000013          	addi	x0,x0,0
    31dc:	00000013          	addi	x0,x0,0
    31e0:	00006517          	auipc	x10,0x6
    31e4:	b0050513          	addi	x10,x10,-1280 # 8ce0 <trap_diag_hint_vect_str>
    31e8:	00000013          	addi	x0,x0,0
    31ec:	00000013          	addi	x0,x0,0
    31f0:	00000013          	addi	x0,x0,0
    31f4:	00000013          	addi	x0,x0,0
    31f8:	00000013          	addi	x0,x0,0
    31fc:	00000013          	addi	x0,x0,0
    3200:	00015097          	auipc	x1,0x15
    3204:	004080e7          	jalr	x1,4(x1) # 18204 <rvmodel_io_write_str>
    3208:	27c0006f          	jal	x0,3484 <failedtest_report_end>
    320c:	00200593          	addi	x11,x0,2
    3210:	02b51e63          	bne	x10,x11,324c <trap_field_not_cause+0x90>
    3214:	00000013          	addi	x0,x0,0
    3218:	00000013          	addi	x0,x0,0
    321c:	00000013          	addi	x0,x0,0
    3220:	00006517          	auipc	x10,0x6
    3224:	b9650513          	addi	x10,x10,-1130 # 8db6 <trap_diag_hint_cause_str>
    3228:	00000013          	addi	x0,x0,0
    322c:	00000013          	addi	x0,x0,0
    3230:	00000013          	addi	x0,x0,0
    3234:	00000013          	addi	x0,x0,0
    3238:	00000013          	addi	x0,x0,0
    323c:	00000013          	addi	x0,x0,0
    3240:	00015097          	auipc	x1,0x15
    3244:	fc4080e7          	jalr	x1,-60(x1) # 18204 <rvmodel_io_write_str>
    3248:	23c0006f          	jal	x0,3484 <failedtest_report_end>
    324c:	00300593          	addi	x11,x0,3
    3250:	02b51e63          	bne	x10,x11,328c <trap_field_not_cause+0xd0>
    3254:	00000013          	addi	x0,x0,0
    3258:	00000013          	addi	x0,x0,0
    325c:	00000013          	addi	x0,x0,0
    3260:	00006517          	auipc	x10,0x6
    3264:	c4950513          	addi	x10,x10,-951 # 8ea9 <trap_diag_hint_epc_str>
    3268:	00000013          	addi	x0,x0,0
    326c:	00000013          	addi	x0,x0,0
    3270:	00000013          	addi	x0,x0,0
    3274:	00000013          	addi	x0,x0,0
    3278:	00000013          	addi	x0,x0,0
    327c:	00000013          	addi	x0,x0,0
    3280:	00015097          	auipc	x1,0x15
    3284:	f84080e7          	jalr	x1,-124(x1) # 18204 <rvmodel_io_write_str>
    3288:	1fc0006f          	jal	x0,3484 <failedtest_report_end>
    328c:	00400593          	addi	x11,x0,4
    3290:	02b51e63          	bne	x10,x11,32cc <trap_field_not_cause+0x110>
    3294:	00000013          	addi	x0,x0,0
    3298:	00000013          	addi	x0,x0,0
    329c:	00000013          	addi	x0,x0,0
    32a0:	00006517          	auipc	x10,0x6
    32a4:	d0450513          	addi	x10,x10,-764 # 8fa4 <trap_diag_hint_tval_str>
    32a8:	00000013          	addi	x0,x0,0
    32ac:	00000013          	addi	x0,x0,0
    32b0:	00000013          	addi	x0,x0,0
    32b4:	00000013          	addi	x0,x0,0
    32b8:	00000013          	addi	x0,x0,0
    32bc:	00000013          	addi	x0,x0,0
    32c0:	00015097          	auipc	x1,0x15
    32c4:	f44080e7          	jalr	x1,-188(x1) # 18204 <rvmodel_io_write_str>
    32c8:	1bc0006f          	jal	x0,3484 <failedtest_report_end>
    32cc:	00500593          	addi	x11,x0,5
    32d0:	02b51e63          	bne	x10,x11,330c <trap_field_not_cause+0x150>
    32d4:	00000013          	addi	x0,x0,0
    32d8:	00000013          	addi	x0,x0,0
    32dc:	00000013          	addi	x0,x0,0
    32e0:	00006517          	auipc	x10,0x6
    32e4:	dab50513          	addi	x10,x10,-597 # 908b <trap_diag_hint_ip_str>
    32e8:	00000013          	addi	x0,x0,0
    32ec:	00000013          	addi	x0,x0,0
    32f0:	00000013          	addi	x0,x0,0
    32f4:	00000013          	addi	x0,x0,0
    32f8:	00000013          	addi	x0,x0,0
    32fc:	00000013          	addi	x0,x0,0
    3300:	00015097          	auipc	x1,0x15
    3304:	f04080e7          	jalr	x1,-252(x1) # 18204 <rvmodel_io_write_str>
    3308:	17c0006f          	jal	x0,3484 <failedtest_report_end>
    330c:	1780006f          	jal	x0,3484 <failedtest_report_end>

00003310 <trap_report_generic>:
    3310:	00000013          	addi	x0,x0,0
    3314:	00000013          	addi	x0,x0,0
    3318:	00000013          	addi	x0,x0,0
    331c:	00000013          	addi	x0,x0,0
    3320:	00006517          	auipc	x10,0x6
    3324:	97850513          	addi	x10,x10,-1672 # 8c98 <trap_diag_generic_str>
    3328:	00000013          	addi	x0,x0,0
    332c:	00000013          	addi	x0,x0,0
    3330:	00000013          	addi	x0,x0,0
    3334:	00000013          	addi	x0,x0,0
    3338:	00000013          	addi	x0,x0,0
    333c:	00000013          	addi	x0,x0,0
    3340:	00015097          	auipc	x1,0x15
    3344:	ec4080e7          	jalr	x1,-316(x1) # 18204 <rvmodel_io_write_str>
    3348:	00004617          	auipc	x12,0x4
    334c:	2d062603          	lw	x12,720(x12) # 7618 <saved_mepc>
    3350:	00000013          	addi	x0,x0,0
    3354:	00000013          	addi	x0,x0,0
    3358:	00000013          	addi	x0,x0,0
    335c:	00000013          	addi	x0,x0,0
    3360:	00005517          	auipc	x10,0x5
    3364:	91b50513          	addi	x10,x10,-1765 # 7c7b <xepcinstrstr>
    3368:	00000013          	addi	x0,x0,0
    336c:	00000013          	addi	x0,x0,0
    3370:	00000013          	addi	x0,x0,0
    3374:	00000013          	addi	x0,x0,0
    3378:	00000013          	addi	x0,x0,0
    337c:	00000013          	addi	x0,x0,0
    3380:	00015097          	auipc	x1,0x15
    3384:	e84080e7          	jalr	x1,-380(x1) # 18204 <rvmodel_io_write_str>
    3388:	00065503          	lhu	x10,0(x12)
    338c:	01000593          	addi	x11,x0,16
    3390:	00357413          	andi	x8,x10,3
    3394:	00300493          	addi	x9,x0,3
    3398:	00941a63          	bne	x8,x9,33ac <trap_report_generic+0x9c>
    339c:	00265403          	lhu	x8,2(x12)
    33a0:	01041413          	slli	x8,x8,0x10
    33a4:	00856533          	or	x10,x10,x8
    33a8:	02000593          	addi	x11,x0,32
    33ac:	32c000ef          	jal	x1,36d8 <failedtest_hex_to_str>
    33b0:	00000013          	addi	x0,x0,0
    33b4:	00000013          	addi	x0,x0,0
    33b8:	00000013          	addi	x0,x0,0
    33bc:	00000013          	addi	x0,x0,0
    33c0:	00004517          	auipc	x10,0x4
    33c4:	27850513          	addi	x10,x10,632 # 7638 <ascii_buffer>
    33c8:	00000013          	addi	x0,x0,0
    33cc:	00000013          	addi	x0,x0,0
    33d0:	00000013          	addi	x0,x0,0
    33d4:	00000013          	addi	x0,x0,0
    33d8:	00000013          	addi	x0,x0,0
    33dc:	00000013          	addi	x0,x0,0
    33e0:	00015097          	auipc	x1,0x15
    33e4:	e24080e7          	jalr	x1,-476(x1) # 18204 <rvmodel_io_write_str>
    33e8:	00000097          	auipc	x1,0x0
    33ec:	0e8080e7          	jalr	x1,232(x1) # 34d0 <failedtest_print_csr_context>
    33f0:	0940006f          	jal	x0,3484 <failedtest_report_end>

000033f4 <trap_cause_to_str>:
    33f4:	02054263          	blt	x10,x0,3418 <trap_cause_interrupt>

000033f8 <trap_cause_exception>:
    33f8:	01800593          	addi	x11,x0,24
    33fc:	04b55463          	bge	x10,x11,3444 <trap_cause_unknown>
    3400:	00004597          	auipc	x11,0x4
    3404:	26058593          	addi	x11,x11,608 # 7660 <end_failure_scratch>
    3408:	00251613          	slli	x12,x10,0x2
    340c:	00c585b3          	add	x11,x11,x12
    3410:	0005a503          	lw	x10,0(x11)
    3414:	00008067          	jalr	x0,0(x1)

00003418 <trap_cause_interrupt>:
    3418:	00100593          	addi	x11,x0,1
    341c:	01f59593          	slli	x11,x11,0x1f
    3420:	00b54533          	xor	x10,x10,x11
    3424:	01000593          	addi	x11,x0,16
    3428:	00b55e63          	bge	x10,x11,3444 <trap_cause_unknown>
    342c:	00004597          	auipc	x11,0x4
    3430:	29458593          	addi	x11,x11,660 # 76c0 <trap_int_name_tbl>
    3434:	00251613          	slli	x12,x10,0x2
    3438:	00c585b3          	add	x11,x11,x12
    343c:	0005a503          	lw	x10,0(x11)
    3440:	00008067          	jalr	x0,0(x1)

00003444 <trap_cause_unknown>:
    3444:	00000013          	addi	x0,x0,0
    3448:	00000013          	addi	x0,x0,0
    344c:	00000013          	addi	x0,x0,0
    3450:	00000013          	addi	x0,x0,0
    3454:	00000013          	addi	x0,x0,0
    3458:	00000013          	addi	x0,x0,0
    345c:	00000013          	addi	x0,x0,0
    3460:	00004517          	auipc	x10,0x4
    3464:	69e50513          	addi	x10,x10,1694 # 7afe <trap_cause_unknown_str>
    3468:	00000013          	addi	x0,x0,0
    346c:	00000013          	addi	x0,x0,0
    3470:	00000013          	addi	x0,x0,0
    3474:	00000013          	addi	x0,x0,0
    3478:	00000013          	addi	x0,x0,0
    347c:	00000013          	addi	x0,x0,0
    3480:	00008067          	jalr	x0,0(x1)

00003484 <failedtest_report_end>:
    3484:	00000013          	addi	x0,x0,0
    3488:	00000013          	addi	x0,x0,0
    348c:	00000013          	addi	x0,x0,0
    3490:	00000013          	addi	x0,x0,0
    3494:	00000013          	addi	x0,x0,0
    3498:	00000013          	addi	x0,x0,0
    349c:	00000013          	addi	x0,x0,0
    34a0:	00005517          	auipc	x10,0x5
    34a4:	22350513          	addi	x10,x10,547 # 86c3 <endstr>
    34a8:	00000013          	addi	x0,x0,0
    34ac:	00000013          	addi	x0,x0,0
    34b0:	00000013          	addi	x0,x0,0
    34b4:	00000013          	addi	x0,x0,0
    34b8:	00000013          	addi	x0,x0,0
    34bc:	00000013          	addi	x0,x0,0
    34c0:	00015097          	auipc	x1,0x15
    34c4:	d44080e7          	jalr	x1,-700(x1) # 18204 <rvmodel_io_write_str>

000034c8 <failedtest_terminate>:
    34c8:	00015097          	auipc	x1,0x15
    34cc:	d4c080e7          	jalr	x1,-692(x1) # 18214 <rvmodel_halt_fail>

000034d0 <failedtest_print_csr_context>:
    34d0:	00004617          	auipc	x12,0x4
    34d4:	14060613          	addi	x12,x12,320 # 7610 <csr_context_ret_addr>
    34d8:	00162023          	sw	x1,0(x12)
    34dc:	00000013          	addi	x0,x0,0
    34e0:	00004517          	auipc	x10,0x4
    34e4:	7bc50513          	addi	x10,x10,1980 # 7c9c <mepcstr>
    34e8:	00000013          	addi	x0,x0,0
    34ec:	00000013          	addi	x0,x0,0
    34f0:	00000013          	addi	x0,x0,0
    34f4:	00000013          	addi	x0,x0,0
    34f8:	00000013          	addi	x0,x0,0
    34fc:	00000013          	addi	x0,x0,0
    3500:	00015097          	auipc	x1,0x15
    3504:	d04080e7          	jalr	x1,-764(x1) # 18204 <rvmodel_io_write_str>
    3508:	00004517          	auipc	x10,0x4
    350c:	11052503          	lw	x10,272(x10) # 7618 <saved_mepc>
    3510:	02000593          	addi	x11,x0,32
    3514:	1c4000ef          	jal	x1,36d8 <failedtest_hex_to_str>
    3518:	00000013          	addi	x0,x0,0
    351c:	00000013          	addi	x0,x0,0
    3520:	00004517          	auipc	x10,0x4
    3524:	11850513          	addi	x10,x10,280 # 7638 <ascii_buffer>
    3528:	00000013          	addi	x0,x0,0
    352c:	00000013          	addi	x0,x0,0
    3530:	00000013          	addi	x0,x0,0
    3534:	00000013          	addi	x0,x0,0
    3538:	00000013          	addi	x0,x0,0
    353c:	00000013          	addi	x0,x0,0
    3540:	00015097          	auipc	x1,0x15
    3544:	cc4080e7          	jalr	x1,-828(x1) # 18204 <rvmodel_io_write_str>
    3548:	00000013          	addi	x0,x0,0
    354c:	00000013          	addi	x0,x0,0
    3550:	00000013          	addi	x0,x0,0
    3554:	00000013          	addi	x0,x0,0
    3558:	00000013          	addi	x0,x0,0
    355c:	00000013          	addi	x0,x0,0
    3560:	00004517          	auipc	x10,0x4
    3564:	74c50513          	addi	x10,x10,1868 # 7cac <mcausestr>
    3568:	00000013          	addi	x0,x0,0
    356c:	00000013          	addi	x0,x0,0
    3570:	00000013          	addi	x0,x0,0
    3574:	00000013          	addi	x0,x0,0
    3578:	00000013          	addi	x0,x0,0
    357c:	00000013          	addi	x0,x0,0
    3580:	00015097          	auipc	x1,0x15
    3584:	c84080e7          	jalr	x1,-892(x1) # 18204 <rvmodel_io_write_str>
    3588:	00004517          	auipc	x10,0x4
    358c:	09852503          	lw	x10,152(x10) # 7620 <saved_mcause>
    3590:	02000593          	addi	x11,x0,32
    3594:	144000ef          	jal	x1,36d8 <failedtest_hex_to_str>
    3598:	00000013          	addi	x0,x0,0
    359c:	00000013          	addi	x0,x0,0
    35a0:	00004517          	auipc	x10,0x4
    35a4:	09850513          	addi	x10,x10,152 # 7638 <ascii_buffer>
    35a8:	00000013          	addi	x0,x0,0
    35ac:	00000013          	addi	x0,x0,0
    35b0:	00000013          	addi	x0,x0,0
    35b4:	00000013          	addi	x0,x0,0
    35b8:	00000013          	addi	x0,x0,0
    35bc:	00000013          	addi	x0,x0,0
    35c0:	00015097          	auipc	x1,0x15
    35c4:	c44080e7          	jalr	x1,-956(x1) # 18204 <rvmodel_io_write_str>
    35c8:	00000013          	addi	x0,x0,0
    35cc:	00000013          	addi	x0,x0,0
    35d0:	00000013          	addi	x0,x0,0
    35d4:	00000013          	addi	x0,x0,0
    35d8:	00000013          	addi	x0,x0,0
    35dc:	00000013          	addi	x0,x0,0
    35e0:	00004517          	auipc	x10,0x4
    35e4:	6dc50513          	addi	x10,x10,1756 # 7cbc <mtvalstr>
    35e8:	00000013          	addi	x0,x0,0
    35ec:	00000013          	addi	x0,x0,0
    35f0:	00000013          	addi	x0,x0,0
    35f4:	00000013          	addi	x0,x0,0
    35f8:	00000013          	addi	x0,x0,0
    35fc:	00000013          	addi	x0,x0,0
    3600:	00015097          	auipc	x1,0x15
    3604:	c04080e7          	jalr	x1,-1020(x1) # 18204 <rvmodel_io_write_str>
    3608:	00004517          	auipc	x10,0x4
    360c:	02052503          	lw	x10,32(x10) # 7628 <saved_mtval>
    3610:	02000593          	addi	x11,x0,32
    3614:	0c4000ef          	jal	x1,36d8 <failedtest_hex_to_str>
    3618:	00000013          	addi	x0,x0,0
    361c:	00000013          	addi	x0,x0,0
    3620:	00004517          	auipc	x10,0x4
    3624:	01850513          	addi	x10,x10,24 # 7638 <ascii_buffer>
    3628:	00000013          	addi	x0,x0,0
    362c:	00000013          	addi	x0,x0,0
    3630:	00000013          	addi	x0,x0,0
    3634:	00000013          	addi	x0,x0,0
    3638:	00000013          	addi	x0,x0,0
    363c:	00000013          	addi	x0,x0,0
    3640:	00015097          	auipc	x1,0x15
    3644:	bc4080e7          	jalr	x1,-1084(x1) # 18204 <rvmodel_io_write_str>
    3648:	00000013          	addi	x0,x0,0
    364c:	00000013          	addi	x0,x0,0
    3650:	00000013          	addi	x0,x0,0
    3654:	00000013          	addi	x0,x0,0
    3658:	00000013          	addi	x0,x0,0
    365c:	00000013          	addi	x0,x0,0
    3660:	00004517          	auipc	x10,0x4
    3664:	66c50513          	addi	x10,x10,1644 # 7ccc <mstatusstr>
    3668:	00000013          	addi	x0,x0,0
    366c:	00000013          	addi	x0,x0,0
    3670:	00000013          	addi	x0,x0,0
    3674:	00000013          	addi	x0,x0,0
    3678:	00000013          	addi	x0,x0,0
    367c:	00000013          	addi	x0,x0,0
    3680:	00015097          	auipc	x1,0x15
    3684:	b84080e7          	jalr	x1,-1148(x1) # 18204 <rvmodel_io_write_str>
    3688:	00004517          	auipc	x10,0x4
    368c:	fa852503          	lw	x10,-88(x10) # 7630 <saved_mstatus>
    3690:	02000593          	addi	x11,x0,32
    3694:	044000ef          	jal	x1,36d8 <failedtest_hex_to_str>
    3698:	00000013          	addi	x0,x0,0
    369c:	00000013          	addi	x0,x0,0
    36a0:	00004517          	auipc	x10,0x4
    36a4:	f9850513          	addi	x10,x10,-104 # 7638 <ascii_buffer>
    36a8:	00000013          	addi	x0,x0,0
    36ac:	00000013          	addi	x0,x0,0
    36b0:	00000013          	addi	x0,x0,0
    36b4:	00000013          	addi	x0,x0,0
    36b8:	00000013          	addi	x0,x0,0
    36bc:	00000013          	addi	x0,x0,0
    36c0:	00015097          	auipc	x1,0x15
    36c4:	b44080e7          	jalr	x1,-1212(x1) # 18204 <rvmodel_io_write_str>
    36c8:	00004617          	auipc	x12,0x4
    36cc:	f4860613          	addi	x12,x12,-184 # 7610 <csr_context_ret_addr>
    36d0:	00062083          	lw	x1,0(x12)
    36d4:	00008067          	jalr	x0,0(x1)

000036d8 <failedtest_hex_to_str>:
    36d8:	00000013          	addi	x0,x0,0
    36dc:	00000013          	addi	x0,x0,0
    36e0:	00004617          	auipc	x12,0x4
    36e4:	f5860613          	addi	x12,x12,-168 # 7638 <ascii_buffer>
    36e8:	00000013          	addi	x0,x0,0
    36ec:	00000013          	addi	x0,x0,0
    36f0:	00000013          	addi	x0,x0,0
    36f4:	00000013          	addi	x0,x0,0
    36f8:	00000013          	addi	x0,x0,0
    36fc:	00000013          	addi	x0,x0,0
    3700:	03000693          	addi	x13,x0,48
    3704:	00d60023          	sb	x13,0(x12)
    3708:	07800693          	addi	x13,x0,120
    370c:	00d600a3          	sb	x13,1(x12)
    3710:	00260613          	addi	x12,x12,2
    3714:	00058693          	addi	x13,x11,0

00003718 <failedtest_hex_to_str_loop>:
    3718:	ffc68693          	addi	x13,x13,-4
    371c:	00d55733          	srl	x14,x10,x13
    3720:	00f77713          	andi	x14,x14,15
    3724:	00a00793          	addi	x15,x0,10
    3728:	00f74663          	blt	x14,x15,3734 <failedtest_hex_to_str_digit>
    372c:	05770713          	addi	x14,x14,87
    3730:	0080006f          	jal	x0,3738 <failedtest_hex_to_str_write>

00003734 <failedtest_hex_to_str_digit>:
    3734:	03070713          	addi	x14,x14,48

00003738 <failedtest_hex_to_str_write>:
    3738:	00e60023          	sb	x14,0(x12)
    373c:	00160613          	addi	x12,x12,1
    3740:	fc069ce3          	bne	x13,x0,3718 <failedtest_hex_to_str_loop>
    3744:	00a00693          	addi	x13,x0,10
    3748:	00d60023          	sb	x13,0(x12)
    374c:	000600a3          	sb	x0,1(x12)
    3750:	00008067          	jalr	x0,0(x1)

00003754 <failedtest_dec_to_str>:
    3754:	00a00693          	addi	x13,x0,10
    3758:	02d54663          	blt	x10,x13,3784 <failedtest_dec_to_str+0x30>
    375c:	ff650513          	addi	x10,x10,-10
    3760:	03100713          	addi	x14,x0,49
    3764:	00d54c63          	blt	x10,x13,377c <failedtest_dec_to_str+0x28>
    3768:	ff650513          	addi	x10,x10,-10
    376c:	03200713          	addi	x14,x0,50
    3770:	00d54663          	blt	x10,x13,377c <failedtest_dec_to_str+0x28>
    3774:	ff650513          	addi	x10,x10,-10
    3778:	03300713          	addi	x14,x0,51
    377c:	00e60023          	sb	x14,0(x12)
    3780:	00160613          	addi	x12,x12,1
    3784:	03050513          	addi	x10,x10,48
    3788:	00a60023          	sb	x10,0(x12)
    378c:	00a00693          	addi	x13,x0,10
    3790:	00d600a3          	sb	x13,1(x12)
    3794:	00060123          	sb	x0,2(x12)
    3798:	00008067          	jalr	x0,0(x1)
    379c:	00000013          	addi	x0,x0,0

Disassembly of section .text.rvmodel:

00018000 <rvmodel_boot>:
   18000:	feedc0b7          	lui	x1,0xfeedc
   18004:	ead08093          	addi	x1,x1,-339 # feedbead <absimm+0x8f911ba4>
   18008:	01909793          	slli	x15,x1,0x19
   1800c:	0070d113          	srli	x2,x1,0x7
   18010:	00f16133          	or	x2,x2,x15
   18014:	01911793          	slli	x15,x2,0x19
   18018:	00715193          	srli	x3,x2,0x7
   1801c:	00f1e1b3          	or	x3,x3,x15
   18020:	01919793          	slli	x15,x3,0x19
   18024:	0071d213          	srli	x4,x3,0x7
   18028:	00f26233          	or	x4,x4,x15
   1802c:	01921793          	slli	x15,x4,0x19
   18030:	00725293          	srli	x5,x4,0x7
   18034:	00f2e2b3          	or	x5,x5,x15
   18038:	01929793          	slli	x15,x5,0x19
   1803c:	0072d313          	srli	x6,x5,0x7
   18040:	00f36333          	or	x6,x6,x15
   18044:	01931793          	slli	x15,x6,0x19
   18048:	00735393          	srli	x7,x6,0x7
   1804c:	00f3e3b3          	or	x7,x7,x15
   18050:	01939793          	slli	x15,x7,0x19
   18054:	0073d413          	srli	x8,x7,0x7
   18058:	00f46433          	or	x8,x8,x15
   1805c:	01941793          	slli	x15,x8,0x19
   18060:	00745493          	srli	x9,x8,0x7
   18064:	00f4e4b3          	or	x9,x9,x15
   18068:	01949793          	slli	x15,x9,0x19
   1806c:	0074d513          	srli	x10,x9,0x7
   18070:	00f56533          	or	x10,x10,x15
   18074:	01951793          	slli	x15,x10,0x19
   18078:	00755593          	srli	x11,x10,0x7
   1807c:	00f5e5b3          	or	x11,x11,x15
   18080:	01959793          	slli	x15,x11,0x19
   18084:	0075d613          	srli	x12,x11,0x7
   18088:	00f66633          	or	x12,x12,x15
   1808c:	01961793          	slli	x15,x12,0x19
   18090:	00765693          	srli	x13,x12,0x7
   18094:	00f6e6b3          	or	x13,x13,x15
   18098:	01969793          	slli	x15,x13,0x19
   1809c:	0076d713          	srli	x14,x13,0x7
   180a0:	00f76733          	or	x14,x14,x15
   180a4:	fab807b7          	lui	x15,0xfab80
   180a8:	bb678793          	addi	x15,x15,-1098 # fab7fbb6 <absimm+0x8b5b58ad>
   180ac:	7d5c0837          	lui	x16,0x7d5c0
   180b0:	ddb80813          	addi	x16,x16,-549 # 7d5bfddb <absimm+0xdff5ad2>
   180b4:	01981793          	slli	x15,x16,0x19
   180b8:	00785893          	srli	x17,x16,0x7
   180bc:	00f8e8b3          	or	x17,x17,x15
   180c0:	01989793          	slli	x15,x17,0x19
   180c4:	0078d913          	srli	x18,x17,0x7
   180c8:	00f96933          	or	x18,x18,x15
   180cc:	01991793          	slli	x15,x18,0x19
   180d0:	00795993          	srli	x19,x18,0x7
   180d4:	00f9e9b3          	or	x19,x19,x15
   180d8:	01999793          	slli	x15,x19,0x19
   180dc:	0079da13          	srli	x20,x19,0x7
   180e0:	00fa6a33          	or	x20,x20,x15
   180e4:	019a1793          	slli	x15,x20,0x19
   180e8:	007a5a93          	srli	x21,x20,0x7
   180ec:	00faeab3          	or	x21,x21,x15
   180f0:	019a9793          	slli	x15,x21,0x19
   180f4:	007adb13          	srli	x22,x21,0x7
   180f8:	00fb6b33          	or	x22,x22,x15
   180fc:	019b1793          	slli	x15,x22,0x19
   18100:	007b5b93          	srli	x23,x22,0x7
   18104:	00fbebb3          	or	x23,x23,x15
   18108:	019b9793          	slli	x15,x23,0x19
   1810c:	007bdc13          	srli	x24,x23,0x7
   18110:	00fc6c33          	or	x24,x24,x15
   18114:	019c1793          	slli	x15,x24,0x19
   18118:	007c5c93          	srli	x25,x24,0x7
   1811c:	00fcecb3          	or	x25,x25,x15
   18120:	019c9793          	slli	x15,x25,0x19
   18124:	007cdd13          	srli	x26,x25,0x7
   18128:	00fd6d33          	or	x26,x26,x15
   1812c:	019d1793          	slli	x15,x26,0x19
   18130:	007d5d93          	srli	x27,x26,0x7
   18134:	00fdedb3          	or	x27,x27,x15
   18138:	019d9793          	slli	x15,x27,0x19
   1813c:	007dde13          	srli	x28,x27,0x7
   18140:	00fe6e33          	or	x28,x28,x15
   18144:	019e1793          	slli	x15,x28,0x19
   18148:	007e5e93          	srli	x29,x28,0x7
   1814c:	00feeeb3          	or	x29,x29,x15
   18150:	019e9793          	slli	x15,x29,0x19
   18154:	007edf13          	srli	x30,x29,0x7
   18158:	00ff6f33          	or	x30,x30,x15
   1815c:	019f1793          	slli	x15,x30,0x19
   18160:	007f5f93          	srli	x31,x30,0x7
   18164:	00ffefb3          	or	x31,x31,x15
   18168:	00000013          	addi	x0,x0,0
   1816c:	00000013          	addi	x0,x0,0
   18170:	00000013          	addi	x0,x0,0
   18174:	00000013          	addi	x0,x0,0
   18178:	00000013          	addi	x0,x0,0
   1817c:	00000013          	addi	x0,x0,0
   18180:	ffff1117          	auipc	x2,0xffff1
   18184:	ff010113          	addi	x2,x2,-16 # 9170 <begin_signature>
   18188:	00000013          	addi	x0,x0,0
   1818c:	00000013          	addi	x0,x0,0
   18190:	00000013          	addi	x0,x0,0
   18194:	00000013          	addi	x0,x0,0
   18198:	00000013          	addi	x0,x0,0
   1819c:	00000013          	addi	x0,x0,0

000181a0 <canary_check>:
   181a0:	6f5ca337          	lui	x6,0x6f5ca
   181a4:	30930313          	addi	x6,x6,777 # 6f5ca309 <absimm>
   181a8:	00012203          	lw	x4,0(x2)
   181ac:	00620863          	beq	x4,x6,181bc <canary_check+0x1c>
   181b0:	b6de92ef          	jal	x5,1d1c <failedtest_x5_x4>
   181b4:	000181a0          	.word	0x000181a0
   181b8:	000086ec          	.word	0x000086ec
   181bc:	00410113          	addi	x2,x2,4
   181c0:	fffec197          	auipc	x3,0xfffec
   181c4:	f5018193          	addi	x3,x3,-176 # 4110 <rvtest_data_begin>
   181c8:	00000013          	addi	x0,x0,0
   181cc:	00000013          	addi	x0,x0,0
   181d0:	00000013          	addi	x0,x0,0
   181d4:	00000013          	addi	x0,x0,0
   181d8:	00000013          	addi	x0,x0,0
   181dc:	00000013          	addi	x0,x0,0
   181e0:	fffe8317          	auipc	x6,0xfffe8
   181e4:	e6030313          	addi	x6,x6,-416 # 40 <rvtest_code_begin>
   181e8:	00000013          	addi	x0,x0,0
   181ec:	00000013          	addi	x0,x0,0
   181f0:	00000013          	addi	x0,x0,0
   181f4:	00000013          	addi	x0,x0,0
   181f8:	00000013          	addi	x0,x0,0
   181fc:	00000013          	addi	x0,x0,0
   18200:	00030067          	jalr	x0,0(x6)

00018204 <rvmodel_io_write_str>:
   18204:	00008067          	jalr	x0,0(x1)

00018208 <rvmodel_halt_pass>:
   18208:	00000513          	addi	x10,x0,0
   1820c:	00000073          	ecall
   18210:	0000006f          	jal	x0,18210 <rvmodel_halt_pass+0x8>

00018214 <rvmodel_halt_fail>:
   18214:	00100513          	addi	x10,x0,1
   18218:	00000073          	ecall
   1821c:	0000006f          	jal	x0,1821c <rvmodel_halt_fail+0x8>
   18220:	00000013          	addi	x0,x0,0
   18224:	00000013          	addi	x0,x0,0
   18228:	00000013          	addi	x0,x0,0
   1822c:	00000013          	addi	x0,x0,0
   18230:	00000013          	addi	x0,x0,0
   18234:	00000013          	addi	x0,x0,0
   18238:	00000013          	addi	x0,x0,0
   1823c:	00000013          	addi	x0,x0,0
