
/home/dev/github/clones/riscv-arch-test/work/rv32i-core/elfs/rv32i/I/I-sra-00.elf:     file format elf32-littleriscv
/home/dev/github/clones/riscv-arch-test/work/rv32i-core/elfs/rv32i/I/I-sra-00.elf
architecture: riscv:rv32, flags 0x00000112:
EXEC_P, HAS_SYMS, D_PAGED
start address 0x00000000

Program Header:
0x70000003 off    0x0001f240 vaddr 0x00000000 paddr 0x00000000 align 2**0
         filesz 0x00000033 memsz 0x00000000 flags r--
    LOAD off    0x00001000 vaddr 0x00000000 paddr 0x00000000 align 2**12
         filesz 0x00005f40 memsz 0x00005f40 flags r-x
    LOAD off    0x00007000 vaddr 0x00008000 paddr 0x00008000 align 2**12
         filesz 0x00018240 memsz 0x00018240 flags rwx

Sections:
Idx Name          Size      VMA       LMA       File off  Algn
  0 .text.init    00000040  00000000  00000000  00001000  2**5
                  CONTENTS, ALLOC, LOAD, READONLY, CODE
  1 .text.rvtest  00005f00  00000040  00000040  00001040  2**5
                  CONTENTS, ALLOC, LOAD, READONLY, CODE
  2 .data         00017d70  00008000  00008000  00007000  2**8
                  CONTENTS, ALLOC, LOAD, DATA
  3 .text.rvmodel 00000240  00020000  00020000  0001f000  2**5
                  CONTENTS, ALLOC, LOAD, READONLY, CODE
  4 .riscv.attributes 00000033  00000000  00000000  0001f240  2**0
                  CONTENTS, READONLY
  5 .debug_line   0000265e  00000000  00000000  0001f273  2**0
                  CONTENTS, READONLY, DEBUGGING, OCTETS
  6 .debug_line_str 00000069  00000000  00000000  000218d1  2**0
                  CONTENTS, READONLY, DEBUGGING, OCTETS
  7 .debug_info   00000023  00000000  00000000  0002193a  2**0
                  CONTENTS, READONLY, DEBUGGING, OCTETS
  8 .debug_abbrev 00000012  00000000  00000000  0002195d  2**0
                  CONTENTS, READONLY, DEBUGGING, OCTETS
  9 .debug_aranges 00000028  00000000  00000000  00021970  2**3
                  CONTENTS, READONLY, DEBUGGING, OCTETS
 10 .debug_str    00000075  00000000  00000000  00021998  2**0
                  CONTENTS, READONLY, DEBUGGING, OCTETS
 11 .debug_rnglists 0000001b  00000000  00000000  00021a0d  2**0
                  CONTENTS, READONLY, DEBUGGING, OCTETS
SYMBOL TABLE:
00000000 l    d  .text.init	00000000 .text.init
00000040 l    d  .text.rvtest	00000000 .text.rvtest
00008000 l    d  .data	00000000 .data
00020000 l    d  .text.rvmodel	00000000 .text.rvmodel
00000000 l    d  .riscv.attributes	00000000 .riscv.attributes
00000000 l    d  .debug_line	00000000 .debug_line
00000000 l    d  .debug_line_str	00000000 .debug_line_str
00000000 l    d  .debug_info	00000000 .debug_info
00000000 l    d  .debug_abbrev	00000000 .debug_abbrev
00000000 l    d  .debug_aranges	00000000 .debug_aranges
00000000 l    d  .debug_str	00000000 .debug_str
00000000 l    d  .debug_rnglists	00000000 .debug_rnglists
00000000 l    df *ABS*	00000000 ccBXXf2X.o
00000003 l       *ABS*	00000000 MMODE_SIG
00000001 l       *ABS*	00000000 SMODE_SIG
00000001 l       *ABS*	00000000 HMODE_SIG
00000002 l       *ABS*	00000000 VMODE_SIG
00020000 l       .text.rvmodel	00000000 rvmodel_boot
00000050 l       .text.rvtest	00000000 I_sra_cg_cp_rs1_b0
000044bc l       .text.rvtest	00000000 failedtest_x5_x4
00008d50 l       .data	00000000 I_sra_cg_cp_rs1_b0_str
0000007c l       .text.rvtest	00000000 I_sra_cg_cp_rs1_b1
00008d7d l       .data	00000000 I_sra_cg_cp_rs1_b1_str
000000ac l       .text.rvtest	00000000 I_sra_cg_cp_rs1_b2
00008daa l       .data	00000000 I_sra_cg_cp_rs1_b2_str
000000dc l       .text.rvtest	00000000 I_sra_cg_cp_rs1_b3
00008dd7 l       .data	00000000 I_sra_cg_cp_rs1_b3_str
00000110 l       .text.rvtest	00000000 I_sra_cg_cp_rs1_b4
000044fc l       .text.rvtest	00000000 failedtest_x14_x13
00008e04 l       .data	00000000 I_sra_cg_cp_rs1_b4_str
0000013c l       .text.rvtest	00000000 I_sra_cg_cp_rs1_b5
00008e31 l       .data	00000000 I_sra_cg_cp_rs1_b5_str
00000168 l       .text.rvtest	00000000 I_sra_cg_cp_rs1_b6
00008e5e l       .data	00000000 I_sra_cg_cp_rs1_b6_str
00000194 l       .text.rvtest	00000000 I_sra_cg_cp_rs1_b7
00008e8b l       .data	00000000 I_sra_cg_cp_rs1_b7_str
000001c0 l       .text.rvtest	00000000 I_sra_cg_cp_rs1_b8
00008eb8 l       .data	00000000 I_sra_cg_cp_rs1_b8_str
000001ec l       .text.rvtest	00000000 I_sra_cg_cp_rs1_b9
00008ee5 l       .data	00000000 I_sra_cg_cp_rs1_b9_str
00000218 l       .text.rvtest	00000000 I_sra_cg_cp_rs1_b10
00008f13 l       .data	00000000 I_sra_cg_cp_rs1_b10_str
00000244 l       .text.rvtest	00000000 I_sra_cg_cp_rs1_b11
00008f42 l       .data	00000000 I_sra_cg_cp_rs1_b11_str
00000274 l       .text.rvtest	00000000 I_sra_cg_cp_rs1_b12
00008f71 l       .data	00000000 I_sra_cg_cp_rs1_b12_str
000002a8 l       .text.rvtest	00000000 I_sra_cg_cp_rs1_b13
000044d4 l       .text.rvtest	00000000 failedtest_x8_x7
00008fa0 l       .data	00000000 I_sra_cg_cp_rs1_b13_str
000002d4 l       .text.rvtest	00000000 I_sra_cg_cp_rs1_b14
00008fcf l       .data	00000000 I_sra_cg_cp_rs1_b14_str
00000300 l       .text.rvtest	00000000 I_sra_cg_cp_rs1_b15
00008ffe l       .data	00000000 I_sra_cg_cp_rs1_b15_str
0000032c l       .text.rvtest	00000000 I_sra_cg_cp_rs1_b16
0000902d l       .data	00000000 I_sra_cg_cp_rs1_b16_str
00000358 l       .text.rvtest	00000000 I_sra_cg_cp_rs1_b17
0000905c l       .data	00000000 I_sra_cg_cp_rs1_b17_str
00000384 l       .text.rvtest	00000000 I_sra_cg_cp_rs1_b18
0000908b l       .data	00000000 I_sra_cg_cp_rs1_b18_str
000003b0 l       .text.rvtest	00000000 I_sra_cg_cp_rs1_b19
000090ba l       .data	00000000 I_sra_cg_cp_rs1_b19_str
000003dc l       .text.rvtest	00000000 I_sra_cg_cp_rs1_b20
000090e9 l       .data	00000000 I_sra_cg_cp_rs1_b20_str
00000408 l       .text.rvtest	00000000 I_sra_cg_cp_rs1_b21
00009118 l       .data	00000000 I_sra_cg_cp_rs1_b21_str
00000434 l       .text.rvtest	00000000 I_sra_cg_cp_rs1_b22
00009147 l       .data	00000000 I_sra_cg_cp_rs1_b22_str
00000460 l       .text.rvtest	00000000 I_sra_cg_cp_rs1_b23
00009176 l       .data	00000000 I_sra_cg_cp_rs1_b23_str
0000048c l       .text.rvtest	00000000 I_sra_cg_cp_rs1_b24
000091a5 l       .data	00000000 I_sra_cg_cp_rs1_b24_str
000004b8 l       .text.rvtest	00000000 I_sra_cg_cp_rs1_b25
000091d4 l       .data	00000000 I_sra_cg_cp_rs1_b25_str
000004e4 l       .text.rvtest	00000000 I_sra_cg_cp_rs1_b26
00009203 l       .data	00000000 I_sra_cg_cp_rs1_b26_str
00000510 l       .text.rvtest	00000000 I_sra_cg_cp_rs1_b27
00009232 l       .data	00000000 I_sra_cg_cp_rs1_b27_str
0000053c l       .text.rvtest	00000000 I_sra_cg_cp_rs1_b28
00009261 l       .data	00000000 I_sra_cg_cp_rs1_b28_str
0000056c l       .text.rvtest	00000000 I_sra_cg_cp_rs1_b29
00009290 l       .data	00000000 I_sra_cg_cp_rs1_b29_str
0000059c l       .text.rvtest	00000000 I_sra_cg_cp_rs1_b30
000092bf l       .data	00000000 I_sra_cg_cp_rs1_b30_str
000005c8 l       .text.rvtest	00000000 I_sra_cg_cp_rs1_b31
000092ee l       .data	00000000 I_sra_cg_cp_rs1_b31_str
000005f4 l       .text.rvtest	00000000 I_sra_cg_cp_rs2_b0
0000931d l       .data	00000000 I_sra_cg_cp_rs2_b0_str
00000620 l       .text.rvtest	00000000 I_sra_cg_cp_rs2_b1
0000934b l       .data	00000000 I_sra_cg_cp_rs2_b1_str
0000064c l       .text.rvtest	00000000 I_sra_cg_cp_rs2_b2
00009379 l       .data	00000000 I_sra_cg_cp_rs2_b2_str
00000678 l       .text.rvtest	00000000 I_sra_cg_cp_rs2_b3
000093a7 l       .data	00000000 I_sra_cg_cp_rs2_b3_str
000006a4 l       .text.rvtest	00000000 I_sra_cg_cp_rs2_b4
000093d5 l       .data	00000000 I_sra_cg_cp_rs2_b4_str
000006d0 l       .text.rvtest	00000000 I_sra_cg_cp_rs2_b5
00009403 l       .data	00000000 I_sra_cg_cp_rs2_b5_str
000006fc l       .text.rvtest	00000000 I_sra_cg_cp_rs2_b6
00009431 l       .data	00000000 I_sra_cg_cp_rs2_b6_str
00000730 l       .text.rvtest	00000000 I_sra_cg_cp_rs2_b7
0000945f l       .data	00000000 I_sra_cg_cp_rs2_b7_str
0000075c l       .text.rvtest	00000000 I_sra_cg_cp_rs2_b8
0000948d l       .data	00000000 I_sra_cg_cp_rs2_b8_str
00000788 l       .text.rvtest	00000000 I_sra_cg_cp_rs2_b9
000094bb l       .data	00000000 I_sra_cg_cp_rs2_b9_str
000007b4 l       .text.rvtest	00000000 I_sra_cg_cp_rs2_b10
000094e9 l       .data	00000000 I_sra_cg_cp_rs2_b10_str
000007e0 l       .text.rvtest	00000000 I_sra_cg_cp_rs2_b11
00009518 l       .data	00000000 I_sra_cg_cp_rs2_b11_str
00000810 l       .text.rvtest	00000000 I_sra_cg_cp_rs2_b12
00009547 l       .data	00000000 I_sra_cg_cp_rs2_b12_str
00000844 l       .text.rvtest	00000000 I_sra_cg_cp_rs2_b13
00009576 l       .data	00000000 I_sra_cg_cp_rs2_b13_str
00000870 l       .text.rvtest	00000000 I_sra_cg_cp_rs2_b14
000095a5 l       .data	00000000 I_sra_cg_cp_rs2_b14_str
0000089c l       .text.rvtest	00000000 I_sra_cg_cp_rs2_b15
000095d4 l       .data	00000000 I_sra_cg_cp_rs2_b15_str
000008c8 l       .text.rvtest	00000000 I_sra_cg_cp_rs2_b16
00009603 l       .data	00000000 I_sra_cg_cp_rs2_b16_str
000008f4 l       .text.rvtest	00000000 I_sra_cg_cp_rs2_b17
00009632 l       .data	00000000 I_sra_cg_cp_rs2_b17_str
00000920 l       .text.rvtest	00000000 I_sra_cg_cp_rs2_b18
00009661 l       .data	00000000 I_sra_cg_cp_rs2_b18_str
00000950 l       .text.rvtest	00000000 I_sra_cg_cp_rs2_b19
00009690 l       .data	00000000 I_sra_cg_cp_rs2_b19_str
0000097c l       .text.rvtest	00000000 I_sra_cg_cp_rs2_b20
000096bf l       .data	00000000 I_sra_cg_cp_rs2_b20_str
000009a8 l       .text.rvtest	00000000 I_sra_cg_cp_rs2_b21
000096ee l       .data	00000000 I_sra_cg_cp_rs2_b21_str
000009d4 l       .text.rvtest	00000000 I_sra_cg_cp_rs2_b22
0000971d l       .data	00000000 I_sra_cg_cp_rs2_b22_str
00000a00 l       .text.rvtest	00000000 I_sra_cg_cp_rs2_b23
0000974c l       .data	00000000 I_sra_cg_cp_rs2_b23_str
00000a2c l       .text.rvtest	00000000 I_sra_cg_cp_rs2_b24
0000977b l       .data	00000000 I_sra_cg_cp_rs2_b24_str
00000a58 l       .text.rvtest	00000000 I_sra_cg_cp_rs2_b25
000097aa l       .data	00000000 I_sra_cg_cp_rs2_b25_str
00000a84 l       .text.rvtest	00000000 I_sra_cg_cp_rs2_b26
000097d9 l       .data	00000000 I_sra_cg_cp_rs2_b26_str
00000ab0 l       .text.rvtest	00000000 I_sra_cg_cp_rs2_b27
00009808 l       .data	00000000 I_sra_cg_cp_rs2_b27_str
00000ae0 l       .text.rvtest	00000000 I_sra_cg_cp_rs2_b28
00009837 l       .data	00000000 I_sra_cg_cp_rs2_b28_str
00000b0c l       .text.rvtest	00000000 I_sra_cg_cp_rs2_b29
00009866 l       .data	00000000 I_sra_cg_cp_rs2_b29_str
00000b38 l       .text.rvtest	00000000 I_sra_cg_cp_rs2_b30
00009895 l       .data	00000000 I_sra_cg_cp_rs2_b30_str
00000b68 l       .text.rvtest	00000000 I_sra_cg_cp_rs2_b31
000098c4 l       .data	00000000 I_sra_cg_cp_rs2_b31_str
00000b94 l       .text.rvtest	00000000 I_sra_cg_cp_rd_b0
000098f3 l       .data	00000000 I_sra_cg_cp_rd_b0_str
00000bc0 l       .text.rvtest	00000000 I_sra_cg_cp_rd_b1
00009920 l       .data	00000000 I_sra_cg_cp_rd_b1_str
00000bec l       .text.rvtest	00000000 I_sra_cg_cp_rd_b2
0000994d l       .data	00000000 I_sra_cg_cp_rd_b2_str
00000c18 l       .text.rvtest	00000000 I_sra_cg_cp_rd_b3
0000997a l       .data	00000000 I_sra_cg_cp_rd_b3_str
00000c44 l       .text.rvtest	00000000 I_sra_cg_cp_rd_b4
000099a7 l       .data	00000000 I_sra_cg_cp_rd_b4_str
00000c70 l       .text.rvtest	00000000 I_sra_cg_cp_rd_b5
000099d4 l       .data	00000000 I_sra_cg_cp_rd_b5_str
00000ca0 l       .text.rvtest	00000000 I_sra_cg_cp_rd_b6
00009a01 l       .data	00000000 I_sra_cg_cp_rd_b6_str
00000cd4 l       .text.rvtest	00000000 I_sra_cg_cp_rd_b7
00009a2e l       .data	00000000 I_sra_cg_cp_rd_b7_str
00000d00 l       .text.rvtest	00000000 I_sra_cg_cp_rd_b8
00009a5b l       .data	00000000 I_sra_cg_cp_rd_b8_str
00000d2c l       .text.rvtest	00000000 I_sra_cg_cp_rd_b9
00009a88 l       .data	00000000 I_sra_cg_cp_rd_b9_str
00000d58 l       .text.rvtest	00000000 I_sra_cg_cp_rd_b10
00009ab5 l       .data	00000000 I_sra_cg_cp_rd_b10_str
00000d84 l       .text.rvtest	00000000 I_sra_cg_cp_rd_b11
00009ae3 l       .data	00000000 I_sra_cg_cp_rd_b11_str
00000db0 l       .text.rvtest	00000000 I_sra_cg_cp_rd_b12
00009b11 l       .data	00000000 I_sra_cg_cp_rd_b12_str
00000ddc l       .text.rvtest	00000000 I_sra_cg_cp_rd_b13
00009b3f l       .data	00000000 I_sra_cg_cp_rd_b13_str
00000e08 l       .text.rvtest	00000000 I_sra_cg_cp_rd_b14
00009b6d l       .data	00000000 I_sra_cg_cp_rd_b14_str
00000e38 l       .text.rvtest	00000000 I_sra_cg_cp_rd_b15
00009b9b l       .data	00000000 I_sra_cg_cp_rd_b15_str
00000e64 l       .text.rvtest	00000000 I_sra_cg_cp_rd_b16
00009bc9 l       .data	00000000 I_sra_cg_cp_rd_b16_str
00000e90 l       .text.rvtest	00000000 I_sra_cg_cp_rd_b17
00009bf7 l       .data	00000000 I_sra_cg_cp_rd_b17_str
00000ec0 l       .text.rvtest	00000000 I_sra_cg_cp_rd_b18
00009c25 l       .data	00000000 I_sra_cg_cp_rd_b18_str
00000eec l       .text.rvtest	00000000 I_sra_cg_cp_rd_b19
00009c53 l       .data	00000000 I_sra_cg_cp_rd_b19_str
00000f18 l       .text.rvtest	00000000 I_sra_cg_cp_rd_b20
00009c81 l       .data	00000000 I_sra_cg_cp_rd_b20_str
00000f44 l       .text.rvtest	00000000 I_sra_cg_cp_rd_b21
00009caf l       .data	00000000 I_sra_cg_cp_rd_b21_str
00000f74 l       .text.rvtest	00000000 I_sra_cg_cp_rd_b22
00009cdd l       .data	00000000 I_sra_cg_cp_rd_b22_str
00000fa0 l       .text.rvtest	00000000 I_sra_cg_cp_rd_b23
00009d0b l       .data	00000000 I_sra_cg_cp_rd_b23_str
00000fd0 l       .text.rvtest	00000000 I_sra_cg_cp_rd_b24
00009d39 l       .data	00000000 I_sra_cg_cp_rd_b24_str
00001000 l       .text.rvtest	00000000 I_sra_cg_cp_rd_b25
00009d67 l       .data	00000000 I_sra_cg_cp_rd_b25_str
0000102c l       .text.rvtest	00000000 I_sra_cg_cp_rd_b26
00009d95 l       .data	00000000 I_sra_cg_cp_rd_b26_str
00001058 l       .text.rvtest	00000000 I_sra_cg_cp_rd_b27
00009dc3 l       .data	00000000 I_sra_cg_cp_rd_b27_str
00001084 l       .text.rvtest	00000000 I_sra_cg_cp_rd_b28
00009df1 l       .data	00000000 I_sra_cg_cp_rd_b28_str
000010b0 l       .text.rvtest	00000000 I_sra_cg_cp_rd_b29
00009e1f l       .data	00000000 I_sra_cg_cp_rd_b29_str
000010dc l       .text.rvtest	00000000 I_sra_cg_cp_rd_b30
00009e4d l       .data	00000000 I_sra_cg_cp_rd_b30_str
00001108 l       .text.rvtest	00000000 I_sra_cg_cp_rd_b31
00009e7b l       .data	00000000 I_sra_cg_cp_rd_b31_str
00001134 l       .text.rvtest	00000000 I_sra_cg_cp_rs1_edges_0x0
00009ea9 l       .data	00000000 I_sra_cg_cp_rs1_edges_0x0_str
00001160 l       .text.rvtest	00000000 I_sra_cg_cp_rs1_edges_0x1
00009ede l       .data	00000000 I_sra_cg_cp_rs1_edges_0x1_str
0000118c l       .text.rvtest	00000000 I_sra_cg_cp_rs1_edges_0x2
00009f13 l       .data	00000000 I_sra_cg_cp_rs1_edges_0x2_str
000011b8 l       .text.rvtest	00000000 I_sra_cg_cp_rs1_edges_0x80000000
00009f48 l       .data	00000000 I_sra_cg_cp_rs1_edges_0x80000000_str
000011e4 l       .text.rvtest	00000000 I_sra_cg_cp_rs1_edges_0x80000001
00009f85 l       .data	00000000 I_sra_cg_cp_rs1_edges_0x80000001_str
00001210 l       .text.rvtest	00000000 I_sra_cg_cp_rs1_edges_0x7fffffff
00009fc2 l       .data	00000000 I_sra_cg_cp_rs1_edges_0x7fffffff_str
0000123c l       .text.rvtest	00000000 I_sra_cg_cp_rs1_edges_0x7ffffffe
00009fff l       .data	00000000 I_sra_cg_cp_rs1_edges_0x7ffffffe_str
00001268 l       .text.rvtest	00000000 I_sra_cg_cp_rs1_edges_0xffffffff
0000a03c l       .data	00000000 I_sra_cg_cp_rs1_edges_0xffffffff_str
00001294 l       .text.rvtest	00000000 I_sra_cg_cp_rs1_edges_0xfffffffe
0000a079 l       .data	00000000 I_sra_cg_cp_rs1_edges_0xfffffffe_str
000012c0 l       .text.rvtest	00000000 I_sra_cg_cp_rs1_edges_0x5bbc8872
0000a0b6 l       .data	00000000 I_sra_cg_cp_rs1_edges_0x5bbc8872_str
000012ec l       .text.rvtest	00000000 I_sra_cg_cp_rs1_edges_0xaaaaaaaa
0000a0f3 l       .data	00000000 I_sra_cg_cp_rs1_edges_0xaaaaaaaa_str
00001318 l       .text.rvtest	00000000 I_sra_cg_cp_rs1_edges_0x55555555
0000a130 l       .data	00000000 I_sra_cg_cp_rs1_edges_0x55555555_str
00001344 l       .text.rvtest	00000000 I_sra_cg_cp_rs2_edges_0x0
0000a16d l       .data	00000000 I_sra_cg_cp_rs2_edges_0x0_str
00001370 l       .text.rvtest	00000000 I_sra_cg_cp_rs2_edges_0x1
0000a1a3 l       .data	00000000 I_sra_cg_cp_rs2_edges_0x1_str
0000139c l       .text.rvtest	00000000 I_sra_cg_cp_rs2_edges_0x2
0000a1d9 l       .data	00000000 I_sra_cg_cp_rs2_edges_0x2_str
000013c8 l       .text.rvtest	00000000 I_sra_cg_cp_rs2_edges_0x80000000
0000a20f l       .data	00000000 I_sra_cg_cp_rs2_edges_0x80000000_str
000013f4 l       .text.rvtest	00000000 I_sra_cg_cp_rs2_edges_0x80000001
0000a24c l       .data	00000000 I_sra_cg_cp_rs2_edges_0x80000001_str
00001420 l       .text.rvtest	00000000 I_sra_cg_cp_rs2_edges_0x7fffffff
0000a289 l       .data	00000000 I_sra_cg_cp_rs2_edges_0x7fffffff_str
0000144c l       .text.rvtest	00000000 I_sra_cg_cp_rs2_edges_0x7ffffffe
0000a2c6 l       .data	00000000 I_sra_cg_cp_rs2_edges_0x7ffffffe_str
00001478 l       .text.rvtest	00000000 I_sra_cg_cp_rs2_edges_0xffffffff
0000a303 l       .data	00000000 I_sra_cg_cp_rs2_edges_0xffffffff_str
000014a4 l       .text.rvtest	00000000 I_sra_cg_cp_rs2_edges_0xfffffffe
0000a340 l       .data	00000000 I_sra_cg_cp_rs2_edges_0xfffffffe_str
000014d0 l       .text.rvtest	00000000 I_sra_cg_cp_rs2_edges_0x5bbc8872
0000a37d l       .data	00000000 I_sra_cg_cp_rs2_edges_0x5bbc8872_str
000014fc l       .text.rvtest	00000000 I_sra_cg_cp_rs2_edges_0xaaaaaaaa
0000a3ba l       .data	00000000 I_sra_cg_cp_rs2_edges_0xaaaaaaaa_str
00001528 l       .text.rvtest	00000000 I_sra_cg_cp_rs2_edges_0x55555555
0000a3f7 l       .data	00000000 I_sra_cg_cp_rs2_edges_0x55555555_str
00001554 l       .text.rvtest	00000000 I_sra_cg_cr_rs1_rs2_edges_rs1val_0x0_rs2val_0x0
0000a434 l       .data	00000000 I_sra_cg_cr_rs1_rs2_edges_rs1val_0x0_rs2val_0x0_str
00001580 l       .text.rvtest	00000000 I_sra_cg_cr_rs1_rs2_edges_rs1val_0x0_rs2val_0x1
0000a481 l       .data	00000000 I_sra_cg_cr_rs1_rs2_edges_rs1val_0x0_rs2val_0x1_str
000015ac l       .text.rvtest	00000000 I_sra_cg_cr_rs1_rs2_edges_rs1val_0x0_rs2val_0x2
0000a4ce l       .data	00000000 I_sra_cg_cr_rs1_rs2_edges_rs1val_0x0_rs2val_0x2_str
000015d8 l       .text.rvtest	00000000 I_sra_cg_cr_rs1_rs2_edges_rs1val_0x0_rs2val_0x80000000
0000a51b l       .data	00000000 I_sra_cg_cr_rs1_rs2_edges_rs1val_0x0_rs2val_0x80000000_str
00001604 l       .text.rvtest	00000000 I_sra_cg_cr_rs1_rs2_edges_rs1val_0x0_rs2val_0x80000001
0000a56f l       .data	00000000 I_sra_cg_cr_rs1_rs2_edges_rs1val_0x0_rs2val_0x80000001_str
00001630 l       .text.rvtest	00000000 I_sra_cg_cr_rs1_rs2_edges_rs1val_0x0_rs2val_0x7fffffff
0000a5c3 l       .data	00000000 I_sra_cg_cr_rs1_rs2_edges_rs1val_0x0_rs2val_0x7fffffff_str
0000165c l       .text.rvtest	00000000 I_sra_cg_cr_rs1_rs2_edges_rs1val_0x0_rs2val_0x7ffffffe
0000a617 l       .data	00000000 I_sra_cg_cr_rs1_rs2_edges_rs1val_0x0_rs2val_0x7ffffffe_str
00001688 l       .text.rvtest	00000000 I_sra_cg_cr_rs1_rs2_edges_rs1val_0x0_rs2val_0xffffffff
0000a66b l       .data	00000000 I_sra_cg_cr_rs1_rs2_edges_rs1val_0x0_rs2val_0xffffffff_str
000016b4 l       .text.rvtest	00000000 I_sra_cg_cr_rs1_rs2_edges_rs1val_0x0_rs2val_0xfffffffe
0000a6bf l       .data	00000000 I_sra_cg_cr_rs1_rs2_edges_rs1val_0x0_rs2val_0xfffffffe_str
000016e0 l       .text.rvtest	00000000 I_sra_cg_cr_rs1_rs2_edges_rs1val_0x0_rs2val_0x5bbc8872
0000a713 l       .data	00000000 I_sra_cg_cr_rs1_rs2_edges_rs1val_0x0_rs2val_0x5bbc8872_str
0000170c l       .text.rvtest	00000000 I_sra_cg_cr_rs1_rs2_edges_rs1val_0x0_rs2val_0xaaaaaaaa
0000a767 l       .data	00000000 I_sra_cg_cr_rs1_rs2_edges_rs1val_0x0_rs2val_0xaaaaaaaa_str
00001738 l       .text.rvtest	00000000 I_sra_cg_cr_rs1_rs2_edges_rs1val_0x0_rs2val_0x55555555
0000a7bb l       .data	00000000 I_sra_cg_cr_rs1_rs2_edges_rs1val_0x0_rs2val_0x55555555_str
00001764 l       .text.rvtest	00000000 I_sra_cg_cr_rs1_rs2_edges_rs1val_0x1_rs2val_0x0
0000a80f l       .data	00000000 I_sra_cg_cr_rs1_rs2_edges_rs1val_0x1_rs2val_0x0_str
00001790 l       .text.rvtest	00000000 I_sra_cg_cr_rs1_rs2_edges_rs1val_0x1_rs2val_0x1
0000a85c l       .data	00000000 I_sra_cg_cr_rs1_rs2_edges_rs1val_0x1_rs2val_0x1_str
000017bc l       .text.rvtest	00000000 I_sra_cg_cr_rs1_rs2_edges_rs1val_0x1_rs2val_0x2
0000a8a9 l       .data	00000000 I_sra_cg_cr_rs1_rs2_edges_rs1val_0x1_rs2val_0x2_str
000017e8 l       .text.rvtest	00000000 I_sra_cg_cr_rs1_rs2_edges_rs1val_0x1_rs2val_0x80000000
0000a8f6 l       .data	00000000 I_sra_cg_cr_rs1_rs2_edges_rs1val_0x1_rs2val_0x80000000_str
00001814 l       .text.rvtest	00000000 I_sra_cg_cr_rs1_rs2_edges_rs1val_0x1_rs2val_0x80000001
0000a94a l       .data	00000000 I_sra_cg_cr_rs1_rs2_edges_rs1val_0x1_rs2val_0x80000001_str
00001840 l       .text.rvtest	00000000 I_sra_cg_cr_rs1_rs2_edges_rs1val_0x1_rs2val_0x7fffffff
0000a99e l       .data	00000000 I_sra_cg_cr_rs1_rs2_edges_rs1val_0x1_rs2val_0x7fffffff_str
0000186c l       .text.rvtest	00000000 I_sra_cg_cr_rs1_rs2_edges_rs1val_0x1_rs2val_0x7ffffffe
0000a9f2 l       .data	00000000 I_sra_cg_cr_rs1_rs2_edges_rs1val_0x1_rs2val_0x7ffffffe_str
00001898 l       .text.rvtest	00000000 I_sra_cg_cr_rs1_rs2_edges_rs1val_0x1_rs2val_0xffffffff
0000aa46 l       .data	00000000 I_sra_cg_cr_rs1_rs2_edges_rs1val_0x1_rs2val_0xffffffff_str
000018c4 l       .text.rvtest	00000000 I_sra_cg_cr_rs1_rs2_edges_rs1val_0x1_rs2val_0xfffffffe
0000aa9a l       .data	00000000 I_sra_cg_cr_rs1_rs2_edges_rs1val_0x1_rs2val_0xfffffffe_str
000018f0 l       .text.rvtest	00000000 I_sra_cg_cr_rs1_rs2_edges_rs1val_0x1_rs2val_0x5bbc8872
0000aaee l       .data	00000000 I_sra_cg_cr_rs1_rs2_edges_rs1val_0x1_rs2val_0x5bbc8872_str
0000191c l       .text.rvtest	00000000 I_sra_cg_cr_rs1_rs2_edges_rs1val_0x1_rs2val_0xaaaaaaaa
0000ab42 l       .data	00000000 I_sra_cg_cr_rs1_rs2_edges_rs1val_0x1_rs2val_0xaaaaaaaa_str
00001948 l       .text.rvtest	00000000 I_sra_cg_cr_rs1_rs2_edges_rs1val_0x1_rs2val_0x55555555
0000ab96 l       .data	00000000 I_sra_cg_cr_rs1_rs2_edges_rs1val_0x1_rs2val_0x55555555_str
00001974 l       .text.rvtest	00000000 I_sra_cg_cr_rs1_rs2_edges_rs1val_0x2_rs2val_0x0
0000abea l       .data	00000000 I_sra_cg_cr_rs1_rs2_edges_rs1val_0x2_rs2val_0x0_str
000019a0 l       .text.rvtest	00000000 I_sra_cg_cr_rs1_rs2_edges_rs1val_0x2_rs2val_0x1
0000ac37 l       .data	00000000 I_sra_cg_cr_rs1_rs2_edges_rs1val_0x2_rs2val_0x1_str
000019cc l       .text.rvtest	00000000 I_sra_cg_cr_rs1_rs2_edges_rs1val_0x2_rs2val_0x2
0000ac84 l       .data	00000000 I_sra_cg_cr_rs1_rs2_edges_rs1val_0x2_rs2val_0x2_str
000019f8 l       .text.rvtest	00000000 I_sra_cg_cr_rs1_rs2_edges_rs1val_0x2_rs2val_0x80000000
0000acd1 l       .data	00000000 I_sra_cg_cr_rs1_rs2_edges_rs1val_0x2_rs2val_0x80000000_str
00001a24 l       .text.rvtest	00000000 I_sra_cg_cr_rs1_rs2_edges_rs1val_0x2_rs2val_0x80000001
0000ad25 l       .data	00000000 I_sra_cg_cr_rs1_rs2_edges_rs1val_0x2_rs2val_0x80000001_str
00001a50 l       .text.rvtest	00000000 I_sra_cg_cr_rs1_rs2_edges_rs1val_0x2_rs2val_0x7fffffff
0000ad79 l       .data	00000000 I_sra_cg_cr_rs1_rs2_edges_rs1val_0x2_rs2val_0x7fffffff_str
00001a7c l       .text.rvtest	00000000 I_sra_cg_cr_rs1_rs2_edges_rs1val_0x2_rs2val_0x7ffffffe
0000adcd l       .data	00000000 I_sra_cg_cr_rs1_rs2_edges_rs1val_0x2_rs2val_0x7ffffffe_str
00001aa8 l       .text.rvtest	00000000 I_sra_cg_cr_rs1_rs2_edges_rs1val_0x2_rs2val_0xffffffff
0000ae21 l       .data	00000000 I_sra_cg_cr_rs1_rs2_edges_rs1val_0x2_rs2val_0xffffffff_str
00001ad4 l       .text.rvtest	00000000 I_sra_cg_cr_rs1_rs2_edges_rs1val_0x2_rs2val_0xfffffffe
0000ae75 l       .data	00000000 I_sra_cg_cr_rs1_rs2_edges_rs1val_0x2_rs2val_0xfffffffe_str
00001b00 l       .text.rvtest	00000000 I_sra_cg_cr_rs1_rs2_edges_rs1val_0x2_rs2val_0x5bbc8872
0000aec9 l       .data	00000000 I_sra_cg_cr_rs1_rs2_edges_rs1val_0x2_rs2val_0x5bbc8872_str
00001b2c l       .text.rvtest	00000000 I_sra_cg_cr_rs1_rs2_edges_rs1val_0x2_rs2val_0xaaaaaaaa
0000af1d l       .data	00000000 I_sra_cg_cr_rs1_rs2_edges_rs1val_0x2_rs2val_0xaaaaaaaa_str
00001b58 l       .text.rvtest	00000000 I_sra_cg_cr_rs1_rs2_edges_rs1val_0x2_rs2val_0x55555555
0000af71 l       .data	00000000 I_sra_cg_cr_rs1_rs2_edges_rs1val_0x2_rs2val_0x55555555_str
00001b84 l       .text.rvtest	00000000 I_sra_cg_cr_rs1_rs2_edges_rs1val_0x80000000_rs2val_0x0
0000afc5 l       .data	00000000 I_sra_cg_cr_rs1_rs2_edges_rs1val_0x80000000_rs2val_0x0_str
00001bb0 l       .text.rvtest	00000000 I_sra_cg_cr_rs1_rs2_edges_rs1val_0x80000000_rs2val_0x1
0000b019 l       .data	00000000 I_sra_cg_cr_rs1_rs2_edges_rs1val_0x80000000_rs2val_0x1_str
00001bdc l       .text.rvtest	00000000 I_sra_cg_cr_rs1_rs2_edges_rs1val_0x80000000_rs2val_0x2
0000b06d l       .data	00000000 I_sra_cg_cr_rs1_rs2_edges_rs1val_0x80000000_rs2val_0x2_str
00001c08 l       .text.rvtest	00000000 I_sra_cg_cr_rs1_rs2_edges_rs1val_0x80000000_rs2val_0x80000000
0000b0c1 l       .data	00000000 I_sra_cg_cr_rs1_rs2_edges_rs1val_0x80000000_rs2val_0x80000000_str
00001c34 l       .text.rvtest	00000000 I_sra_cg_cr_rs1_rs2_edges_rs1val_0x80000000_rs2val_0x80000001
0000b11c l       .data	00000000 I_sra_cg_cr_rs1_rs2_edges_rs1val_0x80000000_rs2val_0x80000001_str
00001c60 l       .text.rvtest	00000000 I_sra_cg_cr_rs1_rs2_edges_rs1val_0x80000000_rs2val_0x7fffffff
0000b177 l       .data	00000000 I_sra_cg_cr_rs1_rs2_edges_rs1val_0x80000000_rs2val_0x7fffffff_str
00001c8c l       .text.rvtest	00000000 I_sra_cg_cr_rs1_rs2_edges_rs1val_0x80000000_rs2val_0x7ffffffe
0000b1d2 l       .data	00000000 I_sra_cg_cr_rs1_rs2_edges_rs1val_0x80000000_rs2val_0x7ffffffe_str
00001cb8 l       .text.rvtest	00000000 I_sra_cg_cr_rs1_rs2_edges_rs1val_0x80000000_rs2val_0xffffffff
0000b22d l       .data	00000000 I_sra_cg_cr_rs1_rs2_edges_rs1val_0x80000000_rs2val_0xffffffff_str
00001ce4 l       .text.rvtest	00000000 I_sra_cg_cr_rs1_rs2_edges_rs1val_0x80000000_rs2val_0xfffffffe
0000b288 l       .data	00000000 I_sra_cg_cr_rs1_rs2_edges_rs1val_0x80000000_rs2val_0xfffffffe_str
00001d10 l       .text.rvtest	00000000 I_sra_cg_cr_rs1_rs2_edges_rs1val_0x80000000_rs2val_0x5bbc8872
0000b2e3 l       .data	00000000 I_sra_cg_cr_rs1_rs2_edges_rs1val_0x80000000_rs2val_0x5bbc8872_str
00001d3c l       .text.rvtest	00000000 I_sra_cg_cr_rs1_rs2_edges_rs1val_0x80000000_rs2val_0xaaaaaaaa
0000b33e l       .data	00000000 I_sra_cg_cr_rs1_rs2_edges_rs1val_0x80000000_rs2val_0xaaaaaaaa_str
00001d68 l       .text.rvtest	00000000 I_sra_cg_cr_rs1_rs2_edges_rs1val_0x80000000_rs2val_0x55555555
0000b399 l       .data	00000000 I_sra_cg_cr_rs1_rs2_edges_rs1val_0x80000000_rs2val_0x55555555_str
00001d94 l       .text.rvtest	00000000 I_sra_cg_cr_rs1_rs2_edges_rs1val_0x80000001_rs2val_0x0
0000b3f4 l       .data	00000000 I_sra_cg_cr_rs1_rs2_edges_rs1val_0x80000001_rs2val_0x0_str
00001dc0 l       .text.rvtest	00000000 I_sra_cg_cr_rs1_rs2_edges_rs1val_0x80000001_rs2val_0x1
0000b448 l       .data	00000000 I_sra_cg_cr_rs1_rs2_edges_rs1val_0x80000001_rs2val_0x1_str
00001dec l       .text.rvtest	00000000 I_sra_cg_cr_rs1_rs2_edges_rs1val_0x80000001_rs2val_0x2
0000b49c l       .data	00000000 I_sra_cg_cr_rs1_rs2_edges_rs1val_0x80000001_rs2val_0x2_str
00001e18 l       .text.rvtest	00000000 I_sra_cg_cr_rs1_rs2_edges_rs1val_0x80000001_rs2val_0x80000000
0000b4f0 l       .data	00000000 I_sra_cg_cr_rs1_rs2_edges_rs1val_0x80000001_rs2val_0x80000000_str
00001e44 l       .text.rvtest	00000000 I_sra_cg_cr_rs1_rs2_edges_rs1val_0x80000001_rs2val_0x80000001
0000b54b l       .data	00000000 I_sra_cg_cr_rs1_rs2_edges_rs1val_0x80000001_rs2val_0x80000001_str
00001e70 l       .text.rvtest	00000000 I_sra_cg_cr_rs1_rs2_edges_rs1val_0x80000001_rs2val_0x7fffffff
0000b5a6 l       .data	00000000 I_sra_cg_cr_rs1_rs2_edges_rs1val_0x80000001_rs2val_0x7fffffff_str
00001e9c l       .text.rvtest	00000000 I_sra_cg_cr_rs1_rs2_edges_rs1val_0x80000001_rs2val_0x7ffffffe
0000b601 l       .data	00000000 I_sra_cg_cr_rs1_rs2_edges_rs1val_0x80000001_rs2val_0x7ffffffe_str
00001ec8 l       .text.rvtest	00000000 I_sra_cg_cr_rs1_rs2_edges_rs1val_0x80000001_rs2val_0xffffffff
0000b65c l       .data	00000000 I_sra_cg_cr_rs1_rs2_edges_rs1val_0x80000001_rs2val_0xffffffff_str
00001ef4 l       .text.rvtest	00000000 I_sra_cg_cr_rs1_rs2_edges_rs1val_0x80000001_rs2val_0xfffffffe
0000b6b7 l       .data	00000000 I_sra_cg_cr_rs1_rs2_edges_rs1val_0x80000001_rs2val_0xfffffffe_str
00001f20 l       .text.rvtest	00000000 I_sra_cg_cr_rs1_rs2_edges_rs1val_0x80000001_rs2val_0x5bbc8872
0000b712 l       .data	00000000 I_sra_cg_cr_rs1_rs2_edges_rs1val_0x80000001_rs2val_0x5bbc8872_str
00001f4c l       .text.rvtest	00000000 I_sra_cg_cr_rs1_rs2_edges_rs1val_0x80000001_rs2val_0xaaaaaaaa
0000b76d l       .data	00000000 I_sra_cg_cr_rs1_rs2_edges_rs1val_0x80000001_rs2val_0xaaaaaaaa_str
00001f78 l       .text.rvtest	00000000 I_sra_cg_cr_rs1_rs2_edges_rs1val_0x80000001_rs2val_0x55555555
0000b7c8 l       .data	00000000 I_sra_cg_cr_rs1_rs2_edges_rs1val_0x80000001_rs2val_0x55555555_str
00001fa4 l       .text.rvtest	00000000 I_sra_cg_cr_rs1_rs2_edges_rs1val_0x7fffffff_rs2val_0x0
0000b823 l       .data	00000000 I_sra_cg_cr_rs1_rs2_edges_rs1val_0x7fffffff_rs2val_0x0_str
00001fd0 l       .text.rvtest	00000000 I_sra_cg_cr_rs1_rs2_edges_rs1val_0x7fffffff_rs2val_0x1
0000b877 l       .data	00000000 I_sra_cg_cr_rs1_rs2_edges_rs1val_0x7fffffff_rs2val_0x1_str
00001ffc l       .text.rvtest	00000000 I_sra_cg_cr_rs1_rs2_edges_rs1val_0x7fffffff_rs2val_0x2
0000b8cb l       .data	00000000 I_sra_cg_cr_rs1_rs2_edges_rs1val_0x7fffffff_rs2val_0x2_str
00002028 l       .text.rvtest	00000000 I_sra_cg_cr_rs1_rs2_edges_rs1val_0x7fffffff_rs2val_0x80000000
0000b91f l       .data	00000000 I_sra_cg_cr_rs1_rs2_edges_rs1val_0x7fffffff_rs2val_0x80000000_str
00002054 l       .text.rvtest	00000000 I_sra_cg_cr_rs1_rs2_edges_rs1val_0x7fffffff_rs2val_0x80000001
0000b97a l       .data	00000000 I_sra_cg_cr_rs1_rs2_edges_rs1val_0x7fffffff_rs2val_0x80000001_str
00002080 l       .text.rvtest	00000000 I_sra_cg_cr_rs1_rs2_edges_rs1val_0x7fffffff_rs2val_0x7fffffff
0000b9d5 l       .data	00000000 I_sra_cg_cr_rs1_rs2_edges_rs1val_0x7fffffff_rs2val_0x7fffffff_str
000020ac l       .text.rvtest	00000000 I_sra_cg_cr_rs1_rs2_edges_rs1val_0x7fffffff_rs2val_0x7ffffffe
0000ba30 l       .data	00000000 I_sra_cg_cr_rs1_rs2_edges_rs1val_0x7fffffff_rs2val_0x7ffffffe_str
000020d8 l       .text.rvtest	00000000 I_sra_cg_cr_rs1_rs2_edges_rs1val_0x7fffffff_rs2val_0xffffffff
0000ba8b l       .data	00000000 I_sra_cg_cr_rs1_rs2_edges_rs1val_0x7fffffff_rs2val_0xffffffff_str
00002104 l       .text.rvtest	00000000 I_sra_cg_cr_rs1_rs2_edges_rs1val_0x7fffffff_rs2val_0xfffffffe
0000bae6 l       .data	00000000 I_sra_cg_cr_rs1_rs2_edges_rs1val_0x7fffffff_rs2val_0xfffffffe_str
00002130 l       .text.rvtest	00000000 I_sra_cg_cr_rs1_rs2_edges_rs1val_0x7fffffff_rs2val_0x5bbc8872
0000bb41 l       .data	00000000 I_sra_cg_cr_rs1_rs2_edges_rs1val_0x7fffffff_rs2val_0x5bbc8872_str
0000215c l       .text.rvtest	00000000 I_sra_cg_cr_rs1_rs2_edges_rs1val_0x7fffffff_rs2val_0xaaaaaaaa
0000bb9c l       .data	00000000 I_sra_cg_cr_rs1_rs2_edges_rs1val_0x7fffffff_rs2val_0xaaaaaaaa_str
00002188 l       .text.rvtest	00000000 I_sra_cg_cr_rs1_rs2_edges_rs1val_0x7fffffff_rs2val_0x55555555
0000bbf7 l       .data	00000000 I_sra_cg_cr_rs1_rs2_edges_rs1val_0x7fffffff_rs2val_0x55555555_str
000021b4 l       .text.rvtest	00000000 I_sra_cg_cr_rs1_rs2_edges_rs1val_0x7ffffffe_rs2val_0x0
0000bc52 l       .data	00000000 I_sra_cg_cr_rs1_rs2_edges_rs1val_0x7ffffffe_rs2val_0x0_str
000021e0 l       .text.rvtest	00000000 I_sra_cg_cr_rs1_rs2_edges_rs1val_0x7ffffffe_rs2val_0x1
0000bca6 l       .data	00000000 I_sra_cg_cr_rs1_rs2_edges_rs1val_0x7ffffffe_rs2val_0x1_str
0000220c l       .text.rvtest	00000000 I_sra_cg_cr_rs1_rs2_edges_rs1val_0x7ffffffe_rs2val_0x2
0000bcfa l       .data	00000000 I_sra_cg_cr_rs1_rs2_edges_rs1val_0x7ffffffe_rs2val_0x2_str
00002238 l       .text.rvtest	00000000 I_sra_cg_cr_rs1_rs2_edges_rs1val_0x7ffffffe_rs2val_0x80000000
0000bd4e l       .data	00000000 I_sra_cg_cr_rs1_rs2_edges_rs1val_0x7ffffffe_rs2val_0x80000000_str
00002264 l       .text.rvtest	00000000 I_sra_cg_cr_rs1_rs2_edges_rs1val_0x7ffffffe_rs2val_0x80000001
0000bda9 l       .data	00000000 I_sra_cg_cr_rs1_rs2_edges_rs1val_0x7ffffffe_rs2val_0x80000001_str
00002290 l       .text.rvtest	00000000 I_sra_cg_cr_rs1_rs2_edges_rs1val_0x7ffffffe_rs2val_0x7fffffff
0000be04 l       .data	00000000 I_sra_cg_cr_rs1_rs2_edges_rs1val_0x7ffffffe_rs2val_0x7fffffff_str
000022bc l       .text.rvtest	00000000 I_sra_cg_cr_rs1_rs2_edges_rs1val_0x7ffffffe_rs2val_0x7ffffffe
0000be5f l       .data	00000000 I_sra_cg_cr_rs1_rs2_edges_rs1val_0x7ffffffe_rs2val_0x7ffffffe_str
000022e8 l       .text.rvtest	00000000 I_sra_cg_cr_rs1_rs2_edges_rs1val_0x7ffffffe_rs2val_0xffffffff
0000beba l       .data	00000000 I_sra_cg_cr_rs1_rs2_edges_rs1val_0x7ffffffe_rs2val_0xffffffff_str
00002314 l       .text.rvtest	00000000 I_sra_cg_cr_rs1_rs2_edges_rs1val_0x7ffffffe_rs2val_0xfffffffe
0000bf15 l       .data	00000000 I_sra_cg_cr_rs1_rs2_edges_rs1val_0x7ffffffe_rs2val_0xfffffffe_str
00002340 l       .text.rvtest	00000000 I_sra_cg_cr_rs1_rs2_edges_rs1val_0x7ffffffe_rs2val_0x5bbc8872
0000bf70 l       .data	00000000 I_sra_cg_cr_rs1_rs2_edges_rs1val_0x7ffffffe_rs2val_0x5bbc8872_str
0000236c l       .text.rvtest	00000000 I_sra_cg_cr_rs1_rs2_edges_rs1val_0x7ffffffe_rs2val_0xaaaaaaaa
0000bfcb l       .data	00000000 I_sra_cg_cr_rs1_rs2_edges_rs1val_0x7ffffffe_rs2val_0xaaaaaaaa_str
00002398 l       .text.rvtest	00000000 I_sra_cg_cr_rs1_rs2_edges_rs1val_0x7ffffffe_rs2val_0x55555555
0000c026 l       .data	00000000 I_sra_cg_cr_rs1_rs2_edges_rs1val_0x7ffffffe_rs2val_0x55555555_str
000023c4 l       .text.rvtest	00000000 I_sra_cg_cr_rs1_rs2_edges_rs1val_0xffffffff_rs2val_0x0
0000c081 l       .data	00000000 I_sra_cg_cr_rs1_rs2_edges_rs1val_0xffffffff_rs2val_0x0_str
000023f0 l       .text.rvtest	00000000 I_sra_cg_cr_rs1_rs2_edges_rs1val_0xffffffff_rs2val_0x1
0000c0d5 l       .data	00000000 I_sra_cg_cr_rs1_rs2_edges_rs1val_0xffffffff_rs2val_0x1_str
0000241c l       .text.rvtest	00000000 I_sra_cg_cr_rs1_rs2_edges_rs1val_0xffffffff_rs2val_0x2
0000c129 l       .data	00000000 I_sra_cg_cr_rs1_rs2_edges_rs1val_0xffffffff_rs2val_0x2_str
00002448 l       .text.rvtest	00000000 I_sra_cg_cr_rs1_rs2_edges_rs1val_0xffffffff_rs2val_0x80000000
0000c17d l       .data	00000000 I_sra_cg_cr_rs1_rs2_edges_rs1val_0xffffffff_rs2val_0x80000000_str
00002474 l       .text.rvtest	00000000 I_sra_cg_cr_rs1_rs2_edges_rs1val_0xffffffff_rs2val_0x80000001
0000c1d8 l       .data	00000000 I_sra_cg_cr_rs1_rs2_edges_rs1val_0xffffffff_rs2val_0x80000001_str
000024a0 l       .text.rvtest	00000000 I_sra_cg_cr_rs1_rs2_edges_rs1val_0xffffffff_rs2val_0x7fffffff
0000c233 l       .data	00000000 I_sra_cg_cr_rs1_rs2_edges_rs1val_0xffffffff_rs2val_0x7fffffff_str
000024cc l       .text.rvtest	00000000 I_sra_cg_cr_rs1_rs2_edges_rs1val_0xffffffff_rs2val_0x7ffffffe
0000c28e l       .data	00000000 I_sra_cg_cr_rs1_rs2_edges_rs1val_0xffffffff_rs2val_0x7ffffffe_str
000024f8 l       .text.rvtest	00000000 I_sra_cg_cr_rs1_rs2_edges_rs1val_0xffffffff_rs2val_0xffffffff
0000c2e9 l       .data	00000000 I_sra_cg_cr_rs1_rs2_edges_rs1val_0xffffffff_rs2val_0xffffffff_str
00002524 l       .text.rvtest	00000000 I_sra_cg_cr_rs1_rs2_edges_rs1val_0xffffffff_rs2val_0xfffffffe
0000c344 l       .data	00000000 I_sra_cg_cr_rs1_rs2_edges_rs1val_0xffffffff_rs2val_0xfffffffe_str
00002550 l       .text.rvtest	00000000 I_sra_cg_cr_rs1_rs2_edges_rs1val_0xffffffff_rs2val_0x5bbc8872
0000c39f l       .data	00000000 I_sra_cg_cr_rs1_rs2_edges_rs1val_0xffffffff_rs2val_0x5bbc8872_str
0000257c l       .text.rvtest	00000000 I_sra_cg_cr_rs1_rs2_edges_rs1val_0xffffffff_rs2val_0xaaaaaaaa
0000c3fa l       .data	00000000 I_sra_cg_cr_rs1_rs2_edges_rs1val_0xffffffff_rs2val_0xaaaaaaaa_str
000025a8 l       .text.rvtest	00000000 I_sra_cg_cr_rs1_rs2_edges_rs1val_0xffffffff_rs2val_0x55555555
0000c455 l       .data	00000000 I_sra_cg_cr_rs1_rs2_edges_rs1val_0xffffffff_rs2val_0x55555555_str
000025d4 l       .text.rvtest	00000000 I_sra_cg_cr_rs1_rs2_edges_rs1val_0xfffffffe_rs2val_0x0
0000c4b0 l       .data	00000000 I_sra_cg_cr_rs1_rs2_edges_rs1val_0xfffffffe_rs2val_0x0_str
00002600 l       .text.rvtest	00000000 I_sra_cg_cr_rs1_rs2_edges_rs1val_0xfffffffe_rs2val_0x1
0000c504 l       .data	00000000 I_sra_cg_cr_rs1_rs2_edges_rs1val_0xfffffffe_rs2val_0x1_str
0000262c l       .text.rvtest	00000000 I_sra_cg_cr_rs1_rs2_edges_rs1val_0xfffffffe_rs2val_0x2
0000c558 l       .data	00000000 I_sra_cg_cr_rs1_rs2_edges_rs1val_0xfffffffe_rs2val_0x2_str
00002658 l       .text.rvtest	00000000 I_sra_cg_cr_rs1_rs2_edges_rs1val_0xfffffffe_rs2val_0x80000000
0000c5ac l       .data	00000000 I_sra_cg_cr_rs1_rs2_edges_rs1val_0xfffffffe_rs2val_0x80000000_str
00002684 l       .text.rvtest	00000000 I_sra_cg_cr_rs1_rs2_edges_rs1val_0xfffffffe_rs2val_0x80000001
0000c607 l       .data	00000000 I_sra_cg_cr_rs1_rs2_edges_rs1val_0xfffffffe_rs2val_0x80000001_str
000026b0 l       .text.rvtest	00000000 I_sra_cg_cr_rs1_rs2_edges_rs1val_0xfffffffe_rs2val_0x7fffffff
0000c662 l       .data	00000000 I_sra_cg_cr_rs1_rs2_edges_rs1val_0xfffffffe_rs2val_0x7fffffff_str
000026dc l       .text.rvtest	00000000 I_sra_cg_cr_rs1_rs2_edges_rs1val_0xfffffffe_rs2val_0x7ffffffe
0000c6bd l       .data	00000000 I_sra_cg_cr_rs1_rs2_edges_rs1val_0xfffffffe_rs2val_0x7ffffffe_str
00002708 l       .text.rvtest	00000000 I_sra_cg_cr_rs1_rs2_edges_rs1val_0xfffffffe_rs2val_0xffffffff
0000c718 l       .data	00000000 I_sra_cg_cr_rs1_rs2_edges_rs1val_0xfffffffe_rs2val_0xffffffff_str
00002734 l       .text.rvtest	00000000 I_sra_cg_cr_rs1_rs2_edges_rs1val_0xfffffffe_rs2val_0xfffffffe
0000c773 l       .data	00000000 I_sra_cg_cr_rs1_rs2_edges_rs1val_0xfffffffe_rs2val_0xfffffffe_str
00002760 l       .text.rvtest	00000000 I_sra_cg_cr_rs1_rs2_edges_rs1val_0xfffffffe_rs2val_0x5bbc8872
0000c7ce l       .data	00000000 I_sra_cg_cr_rs1_rs2_edges_rs1val_0xfffffffe_rs2val_0x5bbc8872_str
0000278c l       .text.rvtest	00000000 I_sra_cg_cr_rs1_rs2_edges_rs1val_0xfffffffe_rs2val_0xaaaaaaaa
0000c829 l       .data	00000000 I_sra_cg_cr_rs1_rs2_edges_rs1val_0xfffffffe_rs2val_0xaaaaaaaa_str
000027b8 l       .text.rvtest	00000000 I_sra_cg_cr_rs1_rs2_edges_rs1val_0xfffffffe_rs2val_0x55555555
0000c884 l       .data	00000000 I_sra_cg_cr_rs1_rs2_edges_rs1val_0xfffffffe_rs2val_0x55555555_str
000027e4 l       .text.rvtest	00000000 I_sra_cg_cr_rs1_rs2_edges_rs1val_0x5bbc8872_rs2val_0x0
0000c8df l       .data	00000000 I_sra_cg_cr_rs1_rs2_edges_rs1val_0x5bbc8872_rs2val_0x0_str
00002810 l       .text.rvtest	00000000 I_sra_cg_cr_rs1_rs2_edges_rs1val_0x5bbc8872_rs2val_0x1
0000c933 l       .data	00000000 I_sra_cg_cr_rs1_rs2_edges_rs1val_0x5bbc8872_rs2val_0x1_str
0000283c l       .text.rvtest	00000000 I_sra_cg_cr_rs1_rs2_edges_rs1val_0x5bbc8872_rs2val_0x2
0000c987 l       .data	00000000 I_sra_cg_cr_rs1_rs2_edges_rs1val_0x5bbc8872_rs2val_0x2_str
00002868 l       .text.rvtest	00000000 I_sra_cg_cr_rs1_rs2_edges_rs1val_0x5bbc8872_rs2val_0x80000000
0000c9db l       .data	00000000 I_sra_cg_cr_rs1_rs2_edges_rs1val_0x5bbc8872_rs2val_0x80000000_str
00002894 l       .text.rvtest	00000000 I_sra_cg_cr_rs1_rs2_edges_rs1val_0x5bbc8872_rs2val_0x80000001
0000ca36 l       .data	00000000 I_sra_cg_cr_rs1_rs2_edges_rs1val_0x5bbc8872_rs2val_0x80000001_str
000028c0 l       .text.rvtest	00000000 I_sra_cg_cr_rs1_rs2_edges_rs1val_0x5bbc8872_rs2val_0x7fffffff
0000ca91 l       .data	00000000 I_sra_cg_cr_rs1_rs2_edges_rs1val_0x5bbc8872_rs2val_0x7fffffff_str
000028ec l       .text.rvtest	00000000 I_sra_cg_cr_rs1_rs2_edges_rs1val_0x5bbc8872_rs2val_0x7ffffffe
0000caec l       .data	00000000 I_sra_cg_cr_rs1_rs2_edges_rs1val_0x5bbc8872_rs2val_0x7ffffffe_str
00002918 l       .text.rvtest	00000000 I_sra_cg_cr_rs1_rs2_edges_rs1val_0x5bbc8872_rs2val_0xffffffff
0000cb47 l       .data	00000000 I_sra_cg_cr_rs1_rs2_edges_rs1val_0x5bbc8872_rs2val_0xffffffff_str
00002944 l       .text.rvtest	00000000 I_sra_cg_cr_rs1_rs2_edges_rs1val_0x5bbc8872_rs2val_0xfffffffe
0000cba2 l       .data	00000000 I_sra_cg_cr_rs1_rs2_edges_rs1val_0x5bbc8872_rs2val_0xfffffffe_str
00002970 l       .text.rvtest	00000000 I_sra_cg_cr_rs1_rs2_edges_rs1val_0x5bbc8872_rs2val_0x5bbc8872
0000cbfd l       .data	00000000 I_sra_cg_cr_rs1_rs2_edges_rs1val_0x5bbc8872_rs2val_0x5bbc8872_str
0000299c l       .text.rvtest	00000000 I_sra_cg_cr_rs1_rs2_edges_rs1val_0x5bbc8872_rs2val_0xaaaaaaaa
0000cc58 l       .data	00000000 I_sra_cg_cr_rs1_rs2_edges_rs1val_0x5bbc8872_rs2val_0xaaaaaaaa_str
000029c8 l       .text.rvtest	00000000 I_sra_cg_cr_rs1_rs2_edges_rs1val_0x5bbc8872_rs2val_0x55555555
0000ccb3 l       .data	00000000 I_sra_cg_cr_rs1_rs2_edges_rs1val_0x5bbc8872_rs2val_0x55555555_str
000029f4 l       .text.rvtest	00000000 I_sra_cg_cr_rs1_rs2_edges_rs1val_0xaaaaaaaa_rs2val_0x0
0000cd0e l       .data	00000000 I_sra_cg_cr_rs1_rs2_edges_rs1val_0xaaaaaaaa_rs2val_0x0_str
00002a20 l       .text.rvtest	00000000 I_sra_cg_cr_rs1_rs2_edges_rs1val_0xaaaaaaaa_rs2val_0x1
0000cd62 l       .data	00000000 I_sra_cg_cr_rs1_rs2_edges_rs1val_0xaaaaaaaa_rs2val_0x1_str
00002a4c l       .text.rvtest	00000000 I_sra_cg_cr_rs1_rs2_edges_rs1val_0xaaaaaaaa_rs2val_0x2
0000cdb6 l       .data	00000000 I_sra_cg_cr_rs1_rs2_edges_rs1val_0xaaaaaaaa_rs2val_0x2_str
00002a78 l       .text.rvtest	00000000 I_sra_cg_cr_rs1_rs2_edges_rs1val_0xaaaaaaaa_rs2val_0x80000000
0000ce0a l       .data	00000000 I_sra_cg_cr_rs1_rs2_edges_rs1val_0xaaaaaaaa_rs2val_0x80000000_str
00002aa4 l       .text.rvtest	00000000 I_sra_cg_cr_rs1_rs2_edges_rs1val_0xaaaaaaaa_rs2val_0x80000001
0000ce65 l       .data	00000000 I_sra_cg_cr_rs1_rs2_edges_rs1val_0xaaaaaaaa_rs2val_0x80000001_str
00002ad0 l       .text.rvtest	00000000 I_sra_cg_cr_rs1_rs2_edges_rs1val_0xaaaaaaaa_rs2val_0x7fffffff
0000cec0 l       .data	00000000 I_sra_cg_cr_rs1_rs2_edges_rs1val_0xaaaaaaaa_rs2val_0x7fffffff_str
00002afc l       .text.rvtest	00000000 I_sra_cg_cr_rs1_rs2_edges_rs1val_0xaaaaaaaa_rs2val_0x7ffffffe
0000cf1b l       .data	00000000 I_sra_cg_cr_rs1_rs2_edges_rs1val_0xaaaaaaaa_rs2val_0x7ffffffe_str
00002b28 l       .text.rvtest	00000000 I_sra_cg_cr_rs1_rs2_edges_rs1val_0xaaaaaaaa_rs2val_0xffffffff
0000cf76 l       .data	00000000 I_sra_cg_cr_rs1_rs2_edges_rs1val_0xaaaaaaaa_rs2val_0xffffffff_str
00002b54 l       .text.rvtest	00000000 I_sra_cg_cr_rs1_rs2_edges_rs1val_0xaaaaaaaa_rs2val_0xfffffffe
0000cfd1 l       .data	00000000 I_sra_cg_cr_rs1_rs2_edges_rs1val_0xaaaaaaaa_rs2val_0xfffffffe_str
00002b80 l       .text.rvtest	00000000 I_sra_cg_cr_rs1_rs2_edges_rs1val_0xaaaaaaaa_rs2val_0x5bbc8872
0000d02c l       .data	00000000 I_sra_cg_cr_rs1_rs2_edges_rs1val_0xaaaaaaaa_rs2val_0x5bbc8872_str
00002bac l       .text.rvtest	00000000 I_sra_cg_cr_rs1_rs2_edges_rs1val_0xaaaaaaaa_rs2val_0xaaaaaaaa
0000d087 l       .data	00000000 I_sra_cg_cr_rs1_rs2_edges_rs1val_0xaaaaaaaa_rs2val_0xaaaaaaaa_str
00002bd8 l       .text.rvtest	00000000 I_sra_cg_cr_rs1_rs2_edges_rs1val_0xaaaaaaaa_rs2val_0x55555555
0000d0e2 l       .data	00000000 I_sra_cg_cr_rs1_rs2_edges_rs1val_0xaaaaaaaa_rs2val_0x55555555_str
00002c04 l       .text.rvtest	00000000 I_sra_cg_cr_rs1_rs2_edges_rs1val_0x55555555_rs2val_0x0
0000d13d l       .data	00000000 I_sra_cg_cr_rs1_rs2_edges_rs1val_0x55555555_rs2val_0x0_str
00002c30 l       .text.rvtest	00000000 I_sra_cg_cr_rs1_rs2_edges_rs1val_0x55555555_rs2val_0x1
0000d191 l       .data	00000000 I_sra_cg_cr_rs1_rs2_edges_rs1val_0x55555555_rs2val_0x1_str
00002c5c l       .text.rvtest	00000000 I_sra_cg_cr_rs1_rs2_edges_rs1val_0x55555555_rs2val_0x2
0000d1e5 l       .data	00000000 I_sra_cg_cr_rs1_rs2_edges_rs1val_0x55555555_rs2val_0x2_str
00002c88 l       .text.rvtest	00000000 I_sra_cg_cr_rs1_rs2_edges_rs1val_0x55555555_rs2val_0x80000000
0000d239 l       .data	00000000 I_sra_cg_cr_rs1_rs2_edges_rs1val_0x55555555_rs2val_0x80000000_str
00002cb4 l       .text.rvtest	00000000 I_sra_cg_cr_rs1_rs2_edges_rs1val_0x55555555_rs2val_0x80000001
0000d294 l       .data	00000000 I_sra_cg_cr_rs1_rs2_edges_rs1val_0x55555555_rs2val_0x80000001_str
00002ce0 l       .text.rvtest	00000000 I_sra_cg_cr_rs1_rs2_edges_rs1val_0x55555555_rs2val_0x7fffffff
0000d2ef l       .data	00000000 I_sra_cg_cr_rs1_rs2_edges_rs1val_0x55555555_rs2val_0x7fffffff_str
00002d0c l       .text.rvtest	00000000 I_sra_cg_cr_rs1_rs2_edges_rs1val_0x55555555_rs2val_0x7ffffffe
0000d34a l       .data	00000000 I_sra_cg_cr_rs1_rs2_edges_rs1val_0x55555555_rs2val_0x7ffffffe_str
00002d38 l       .text.rvtest	00000000 I_sra_cg_cr_rs1_rs2_edges_rs1val_0x55555555_rs2val_0xffffffff
0000d3a5 l       .data	00000000 I_sra_cg_cr_rs1_rs2_edges_rs1val_0x55555555_rs2val_0xffffffff_str
00002d64 l       .text.rvtest	00000000 I_sra_cg_cr_rs1_rs2_edges_rs1val_0x55555555_rs2val_0xfffffffe
0000d400 l       .data	00000000 I_sra_cg_cr_rs1_rs2_edges_rs1val_0x55555555_rs2val_0xfffffffe_str
00002d90 l       .text.rvtest	00000000 I_sra_cg_cr_rs1_rs2_edges_rs1val_0x55555555_rs2val_0x5bbc8872
0000d45b l       .data	00000000 I_sra_cg_cr_rs1_rs2_edges_rs1val_0x55555555_rs2val_0x5bbc8872_str
00002dbc l       .text.rvtest	00000000 I_sra_cg_cr_rs1_rs2_edges_rs1val_0x55555555_rs2val_0xaaaaaaaa
0000d4b6 l       .data	00000000 I_sra_cg_cr_rs1_rs2_edges_rs1val_0x55555555_rs2val_0xaaaaaaaa_str
00002de8 l       .text.rvtest	00000000 I_sra_cg_cr_rs1_rs2_edges_rs1val_0x55555555_rs2val_0x55555555
0000d511 l       .data	00000000 I_sra_cg_cr_rs1_rs2_edges_rs1val_0x55555555_rs2val_0x55555555_str
00002e14 l       .text.rvtest	00000000 I_sra_cg_cmp_rs1_rs2_b0
0000d56c l       .data	00000000 I_sra_cg_cmp_rs1_rs2_b0_str
00002e44 l       .text.rvtest	00000000 I_sra_cg_cmp_rs1_rs2_b1
0000d5a0 l       .data	00000000 I_sra_cg_cmp_rs1_rs2_b1_str
00002e70 l       .text.rvtest	00000000 I_sra_cg_cmp_rs1_rs2_b2
0000d5d4 l       .data	00000000 I_sra_cg_cmp_rs1_rs2_b2_str
00002e9c l       .text.rvtest	00000000 I_sra_cg_cmp_rs1_rs2_b3
0000d608 l       .data	00000000 I_sra_cg_cmp_rs1_rs2_b3_str
00002ed0 l       .text.rvtest	00000000 I_sra_cg_cmp_rs1_rs2_b4
0000d63c l       .data	00000000 I_sra_cg_cmp_rs1_rs2_b4_str
00002efc l       .text.rvtest	00000000 I_sra_cg_cmp_rs1_rs2_b5
0000d670 l       .data	00000000 I_sra_cg_cmp_rs1_rs2_b5_str
00002f28 l       .text.rvtest	00000000 I_sra_cg_cmp_rs1_rs2_b6
0000d6a4 l       .data	00000000 I_sra_cg_cmp_rs1_rs2_b6_str
00002f5c l       .text.rvtest	00000000 I_sra_cg_cmp_rs1_rs2_b7
0000d6d8 l       .data	00000000 I_sra_cg_cmp_rs1_rs2_b7_str
00002f88 l       .text.rvtest	00000000 I_sra_cg_cmp_rs1_rs2_b8
0000d70c l       .data	00000000 I_sra_cg_cmp_rs1_rs2_b8_str
00002fb4 l       .text.rvtest	00000000 I_sra_cg_cmp_rs1_rs2_b9
0000d740 l       .data	00000000 I_sra_cg_cmp_rs1_rs2_b9_str
00002fe0 l       .text.rvtest	00000000 I_sra_cg_cmp_rs1_rs2_b10
0000d774 l       .data	00000000 I_sra_cg_cmp_rs1_rs2_b10_str
0000300c l       .text.rvtest	00000000 I_sra_cg_cmp_rs1_rs2_b11
0000d7a9 l       .data	00000000 I_sra_cg_cmp_rs1_rs2_b11_str
00003038 l       .text.rvtest	00000000 I_sra_cg_cmp_rs1_rs2_b12
0000d7de l       .data	00000000 I_sra_cg_cmp_rs1_rs2_b12_str
00003064 l       .text.rvtest	00000000 I_sra_cg_cmp_rs1_rs2_b13
0000d813 l       .data	00000000 I_sra_cg_cmp_rs1_rs2_b13_str
00003090 l       .text.rvtest	00000000 I_sra_cg_cmp_rs1_rs2_b14
0000d848 l       .data	00000000 I_sra_cg_cmp_rs1_rs2_b14_str
000030bc l       .text.rvtest	00000000 I_sra_cg_cmp_rs1_rs2_b15
0000d87d l       .data	00000000 I_sra_cg_cmp_rs1_rs2_b15_str
000030e8 l       .text.rvtest	00000000 I_sra_cg_cmp_rs1_rs2_b16
0000d8b2 l       .data	00000000 I_sra_cg_cmp_rs1_rs2_b16_str
00003114 l       .text.rvtest	00000000 I_sra_cg_cmp_rs1_rs2_b17
0000d8e7 l       .data	00000000 I_sra_cg_cmp_rs1_rs2_b17_str
00003140 l       .text.rvtest	00000000 I_sra_cg_cmp_rs1_rs2_b18
0000d91c l       .data	00000000 I_sra_cg_cmp_rs1_rs2_b18_str
0000316c l       .text.rvtest	00000000 I_sra_cg_cmp_rs1_rs2_b19
0000d951 l       .data	00000000 I_sra_cg_cmp_rs1_rs2_b19_str
00003198 l       .text.rvtest	00000000 I_sra_cg_cmp_rs1_rs2_b20
0000d986 l       .data	00000000 I_sra_cg_cmp_rs1_rs2_b20_str
000031c8 l       .text.rvtest	00000000 I_sra_cg_cmp_rs1_rs2_b21
0000d9bb l       .data	00000000 I_sra_cg_cmp_rs1_rs2_b21_str
000031f4 l       .text.rvtest	00000000 I_sra_cg_cmp_rs1_rs2_b22
0000d9f0 l       .data	00000000 I_sra_cg_cmp_rs1_rs2_b22_str
00003224 l       .text.rvtest	00000000 I_sra_cg_cmp_rs1_rs2_b23
0000da25 l       .data	00000000 I_sra_cg_cmp_rs1_rs2_b23_str
00003250 l       .text.rvtest	00000000 I_sra_cg_cmp_rs1_rs2_b24
0000da5a l       .data	00000000 I_sra_cg_cmp_rs1_rs2_b24_str
0000327c l       .text.rvtest	00000000 I_sra_cg_cmp_rs1_rs2_b25
0000da8f l       .data	00000000 I_sra_cg_cmp_rs1_rs2_b25_str
000032a8 l       .text.rvtest	00000000 I_sra_cg_cmp_rs1_rs2_b26
0000dac4 l       .data	00000000 I_sra_cg_cmp_rs1_rs2_b26_str
000032d4 l       .text.rvtest	00000000 I_sra_cg_cmp_rs1_rs2_b27
0000daf9 l       .data	00000000 I_sra_cg_cmp_rs1_rs2_b27_str
00003300 l       .text.rvtest	00000000 I_sra_cg_cmp_rs1_rs2_b28
0000db2e l       .data	00000000 I_sra_cg_cmp_rs1_rs2_b28_str
0000332c l       .text.rvtest	00000000 I_sra_cg_cmp_rs1_rs2_b29
0000db63 l       .data	00000000 I_sra_cg_cmp_rs1_rs2_b29_str
00003358 l       .text.rvtest	00000000 I_sra_cg_cmp_rs1_rs2_b30
0000db98 l       .data	00000000 I_sra_cg_cmp_rs1_rs2_b30_str
00003384 l       .text.rvtest	00000000 I_sra_cg_cmp_rs1_rs2_b31
0000dbcd l       .data	00000000 I_sra_cg_cmp_rs1_rs2_b31_str
000033b0 l       .text.rvtest	00000000 I_sra_cg_cmp_rd_rs1_b0
0000dc02 l       .data	00000000 I_sra_cg_cmp_rd_rs1_b0_str
000033dc l       .text.rvtest	00000000 I_sra_cg_cmp_rd_rs1_b1
0000dc35 l       .data	00000000 I_sra_cg_cmp_rd_rs1_b1_str
00003408 l       .text.rvtest	00000000 I_sra_cg_cmp_rd_rs1_b2
0000dc68 l       .data	00000000 I_sra_cg_cmp_rd_rs1_b2_str
00003438 l       .text.rvtest	00000000 I_sra_cg_cmp_rd_rs1_b3
0000dc9b l       .data	00000000 I_sra_cg_cmp_rd_rs1_b3_str
0000346c l       .text.rvtest	00000000 I_sra_cg_cmp_rd_rs1_b4
0000dcce l       .data	00000000 I_sra_cg_cmp_rd_rs1_b4_str
00003498 l       .text.rvtest	00000000 I_sra_cg_cmp_rd_rs1_b5
0000dd01 l       .data	00000000 I_sra_cg_cmp_rd_rs1_b5_str
000034c4 l       .text.rvtest	00000000 I_sra_cg_cmp_rd_rs1_b6
0000dd34 l       .data	00000000 I_sra_cg_cmp_rd_rs1_b6_str
000034f0 l       .text.rvtest	00000000 I_sra_cg_cmp_rd_rs1_b7
0000dd67 l       .data	00000000 I_sra_cg_cmp_rd_rs1_b7_str
0000351c l       .text.rvtest	00000000 I_sra_cg_cmp_rd_rs1_b8
0000dd9a l       .data	00000000 I_sra_cg_cmp_rd_rs1_b8_str
00003548 l       .text.rvtest	00000000 I_sra_cg_cmp_rd_rs1_b9
0000ddcd l       .data	00000000 I_sra_cg_cmp_rd_rs1_b9_str
00003574 l       .text.rvtest	00000000 I_sra_cg_cmp_rd_rs1_b10
0000de00 l       .data	00000000 I_sra_cg_cmp_rd_rs1_b10_str
000035a0 l       .text.rvtest	00000000 I_sra_cg_cmp_rd_rs1_b11
0000de34 l       .data	00000000 I_sra_cg_cmp_rd_rs1_b11_str
000035cc l       .text.rvtest	00000000 I_sra_cg_cmp_rd_rs1_b12
0000de68 l       .data	00000000 I_sra_cg_cmp_rd_rs1_b12_str
00003600 l       .text.rvtest	00000000 I_sra_cg_cmp_rd_rs1_b13
0000de9c l       .data	00000000 I_sra_cg_cmp_rd_rs1_b13_str
0000362c l       .text.rvtest	00000000 I_sra_cg_cmp_rd_rs1_b14
0000ded0 l       .data	00000000 I_sra_cg_cmp_rd_rs1_b14_str
00003658 l       .text.rvtest	00000000 I_sra_cg_cmp_rd_rs1_b15
0000df04 l       .data	00000000 I_sra_cg_cmp_rd_rs1_b15_str
00003684 l       .text.rvtest	00000000 I_sra_cg_cmp_rd_rs1_b16
0000df38 l       .data	00000000 I_sra_cg_cmp_rd_rs1_b16_str
000036b0 l       .text.rvtest	00000000 I_sra_cg_cmp_rd_rs1_b17
0000df6c l       .data	00000000 I_sra_cg_cmp_rd_rs1_b17_str
000036e0 l       .text.rvtest	00000000 I_sra_cg_cmp_rd_rs1_b18
0000dfa0 l       .data	00000000 I_sra_cg_cmp_rd_rs1_b18_str
00003710 l       .text.rvtest	00000000 I_sra_cg_cmp_rd_rs1_b19
0000dfd4 l       .data	00000000 I_sra_cg_cmp_rd_rs1_b19_str
0000373c l       .text.rvtest	00000000 I_sra_cg_cmp_rd_rs1_b20
0000e008 l       .data	00000000 I_sra_cg_cmp_rd_rs1_b20_str
00003768 l       .text.rvtest	00000000 I_sra_cg_cmp_rd_rs1_b21
0000e03c l       .data	00000000 I_sra_cg_cmp_rd_rs1_b21_str
00003794 l       .text.rvtest	00000000 I_sra_cg_cmp_rd_rs1_b22
0000e070 l       .data	00000000 I_sra_cg_cmp_rd_rs1_b22_str
000037c4 l       .text.rvtest	00000000 I_sra_cg_cmp_rd_rs1_b23
0000e0a4 l       .data	00000000 I_sra_cg_cmp_rd_rs1_b23_str
000037f0 l       .text.rvtest	00000000 I_sra_cg_cmp_rd_rs1_b24
0000e0d8 l       .data	00000000 I_sra_cg_cmp_rd_rs1_b24_str
0000381c l       .text.rvtest	00000000 I_sra_cg_cmp_rd_rs1_b25
0000e10c l       .data	00000000 I_sra_cg_cmp_rd_rs1_b25_str
00003848 l       .text.rvtest	00000000 I_sra_cg_cmp_rd_rs1_b26
0000e140 l       .data	00000000 I_sra_cg_cmp_rd_rs1_b26_str
00003874 l       .text.rvtest	00000000 I_sra_cg_cmp_rd_rs1_b27
0000e174 l       .data	00000000 I_sra_cg_cmp_rd_rs1_b27_str
000038a0 l       .text.rvtest	00000000 I_sra_cg_cmp_rd_rs1_b28
0000e1a8 l       .data	00000000 I_sra_cg_cmp_rd_rs1_b28_str
000038cc l       .text.rvtest	00000000 I_sra_cg_cmp_rd_rs1_b29
0000e1dc l       .data	00000000 I_sra_cg_cmp_rd_rs1_b29_str
000038f8 l       .text.rvtest	00000000 I_sra_cg_cmp_rd_rs1_b30
0000e210 l       .data	00000000 I_sra_cg_cmp_rd_rs1_b30_str
00003924 l       .text.rvtest	00000000 I_sra_cg_cmp_rd_rs1_b31
0000e244 l       .data	00000000 I_sra_cg_cmp_rd_rs1_b31_str
00003950 l       .text.rvtest	00000000 I_sra_cg_cmp_rd_rs2_b0
0000e278 l       .data	00000000 I_sra_cg_cmp_rd_rs2_b0_str
0000397c l       .text.rvtest	00000000 I_sra_cg_cmp_rd_rs2_b1
0000e2ab l       .data	00000000 I_sra_cg_cmp_rd_rs2_b1_str
000039a8 l       .text.rvtest	00000000 I_sra_cg_cmp_rd_rs2_b2
0000e2de l       .data	00000000 I_sra_cg_cmp_rd_rs2_b2_str
000039d8 l       .text.rvtest	00000000 I_sra_cg_cmp_rd_rs2_b3
0000e311 l       .data	00000000 I_sra_cg_cmp_rd_rs2_b3_str
00003a04 l       .text.rvtest	00000000 I_sra_cg_cmp_rd_rs2_b4
0000e344 l       .data	00000000 I_sra_cg_cmp_rd_rs2_b4_str
00003a30 l       .text.rvtest	00000000 I_sra_cg_cmp_rd_rs2_b5
0000e377 l       .data	00000000 I_sra_cg_cmp_rd_rs2_b5_str
00003a5c l       .text.rvtest	00000000 I_sra_cg_cmp_rd_rs2_b6
0000e3aa l       .data	00000000 I_sra_cg_cmp_rd_rs2_b6_str
00003a90 l       .text.rvtest	00000000 I_sra_cg_cmp_rd_rs2_b7
0000e3dd l       .data	00000000 I_sra_cg_cmp_rd_rs2_b7_str
00003abc l       .text.rvtest	00000000 I_sra_cg_cmp_rd_rs2_b8
0000e410 l       .data	00000000 I_sra_cg_cmp_rd_rs2_b8_str
00003ae8 l       .text.rvtest	00000000 I_sra_cg_cmp_rd_rs2_b9
0000e443 l       .data	00000000 I_sra_cg_cmp_rd_rs2_b9_str
00003b14 l       .text.rvtest	00000000 I_sra_cg_cmp_rd_rs2_b10
0000e476 l       .data	00000000 I_sra_cg_cmp_rd_rs2_b10_str
00003b40 l       .text.rvtest	00000000 I_sra_cg_cmp_rd_rs2_b11
0000e4aa l       .data	00000000 I_sra_cg_cmp_rd_rs2_b11_str
00003b6c l       .text.rvtest	00000000 I_sra_cg_cmp_rd_rs2_b12
0000e4de l       .data	00000000 I_sra_cg_cmp_rd_rs2_b12_str
00003b98 l       .text.rvtest	00000000 I_sra_cg_cmp_rd_rs2_b13
0000e512 l       .data	00000000 I_sra_cg_cmp_rd_rs2_b13_str
00003bc4 l       .text.rvtest	00000000 I_sra_cg_cmp_rd_rs2_b14
0000e546 l       .data	00000000 I_sra_cg_cmp_rd_rs2_b14_str
00003bf0 l       .text.rvtest	00000000 I_sra_cg_cmp_rd_rs2_b15
0000e57a l       .data	00000000 I_sra_cg_cmp_rd_rs2_b15_str
00003c20 l       .text.rvtest	00000000 I_sra_cg_cmp_rd_rs2_b16
0000e5ae l       .data	00000000 I_sra_cg_cmp_rd_rs2_b16_str
00003c4c l       .text.rvtest	00000000 I_sra_cg_cmp_rd_rs2_b17
0000e5e2 l       .data	00000000 I_sra_cg_cmp_rd_rs2_b17_str
00003c78 l       .text.rvtest	00000000 I_sra_cg_cmp_rd_rs2_b18
0000e616 l       .data	00000000 I_sra_cg_cmp_rd_rs2_b18_str
00003ca4 l       .text.rvtest	00000000 I_sra_cg_cmp_rd_rs2_b19
0000e64a l       .data	00000000 I_sra_cg_cmp_rd_rs2_b19_str
00003cd0 l       .text.rvtest	00000000 I_sra_cg_cmp_rd_rs2_b20
0000e67e l       .data	00000000 I_sra_cg_cmp_rd_rs2_b20_str
00003d00 l       .text.rvtest	00000000 I_sra_cg_cmp_rd_rs2_b21
0000e6b2 l       .data	00000000 I_sra_cg_cmp_rd_rs2_b21_str
00003d2c l       .text.rvtest	00000000 I_sra_cg_cmp_rd_rs2_b22
0000e6e6 l       .data	00000000 I_sra_cg_cmp_rd_rs2_b22_str
00003d58 l       .text.rvtest	00000000 I_sra_cg_cmp_rd_rs2_b23
0000e71a l       .data	00000000 I_sra_cg_cmp_rd_rs2_b23_str
00003d84 l       .text.rvtest	00000000 I_sra_cg_cmp_rd_rs2_b24
0000e74e l       .data	00000000 I_sra_cg_cmp_rd_rs2_b24_str
00003db0 l       .text.rvtest	00000000 I_sra_cg_cmp_rd_rs2_b25
0000e782 l       .data	00000000 I_sra_cg_cmp_rd_rs2_b25_str
00003ddc l       .text.rvtest	00000000 I_sra_cg_cmp_rd_rs2_b26
0000e7b6 l       .data	00000000 I_sra_cg_cmp_rd_rs2_b26_str
00003e08 l       .text.rvtest	00000000 I_sra_cg_cmp_rd_rs2_b27
0000e7ea l       .data	00000000 I_sra_cg_cmp_rd_rs2_b27_str
00003e34 l       .text.rvtest	00000000 I_sra_cg_cmp_rd_rs2_b28
0000e81e l       .data	00000000 I_sra_cg_cmp_rd_rs2_b28_str
00003e60 l       .text.rvtest	00000000 I_sra_cg_cmp_rd_rs2_b29
0000e852 l       .data	00000000 I_sra_cg_cmp_rd_rs2_b29_str
00003e8c l       .text.rvtest	00000000 I_sra_cg_cmp_rd_rs2_b30
0000e886 l       .data	00000000 I_sra_cg_cmp_rd_rs2_b30_str
00003eb8 l       .text.rvtest	00000000 I_sra_cg_cmp_rd_rs2_b31
0000e8ba l       .data	00000000 I_sra_cg_cmp_rd_rs2_b31_str
00003ee4 l       .text.rvtest	00000000 I_sra_cg_cmp_rd_rs1_rs2_b0
0000e8ee l       .data	00000000 I_sra_cg_cmp_rd_rs1_rs2_b0_str
00003f10 l       .text.rvtest	00000000 I_sra_cg_cmp_rd_rs1_rs2_b1
0000e925 l       .data	00000000 I_sra_cg_cmp_rd_rs1_rs2_b1_str
00003f3c l       .text.rvtest	00000000 I_sra_cg_cmp_rd_rs1_rs2_b2
0000e95c l       .data	00000000 I_sra_cg_cmp_rd_rs1_rs2_b2_str
00003f68 l       .text.rvtest	00000000 I_sra_cg_cmp_rd_rs1_rs2_b3
0000e993 l       .data	00000000 I_sra_cg_cmp_rd_rs1_rs2_b3_str
00003f9c l       .text.rvtest	00000000 I_sra_cg_cmp_rd_rs1_rs2_b4
0000e9ca l       .data	00000000 I_sra_cg_cmp_rd_rs1_rs2_b4_str
00003fc8 l       .text.rvtest	00000000 I_sra_cg_cmp_rd_rs1_rs2_b5
0000ea01 l       .data	00000000 I_sra_cg_cmp_rd_rs1_rs2_b5_str
00003ff4 l       .text.rvtest	00000000 I_sra_cg_cmp_rd_rs1_rs2_b6
0000ea38 l       .data	00000000 I_sra_cg_cmp_rd_rs1_rs2_b6_str
00004028 l       .text.rvtest	00000000 I_sra_cg_cmp_rd_rs1_rs2_b7
0000ea6f l       .data	00000000 I_sra_cg_cmp_rd_rs1_rs2_b7_str
00004054 l       .text.rvtest	00000000 I_sra_cg_cmp_rd_rs1_rs2_b8
0000eaa6 l       .data	00000000 I_sra_cg_cmp_rd_rs1_rs2_b8_str
00004080 l       .text.rvtest	00000000 I_sra_cg_cmp_rd_rs1_rs2_b9
0000eadd l       .data	00000000 I_sra_cg_cmp_rd_rs1_rs2_b9_str
000040ac l       .text.rvtest	00000000 I_sra_cg_cmp_rd_rs1_rs2_b10
0000eb14 l       .data	00000000 I_sra_cg_cmp_rd_rs1_rs2_b10_str
000040d8 l       .text.rvtest	00000000 I_sra_cg_cmp_rd_rs1_rs2_b11
0000eb4c l       .data	00000000 I_sra_cg_cmp_rd_rs1_rs2_b11_str
00004104 l       .text.rvtest	00000000 I_sra_cg_cmp_rd_rs1_rs2_b12
0000eb84 l       .data	00000000 I_sra_cg_cmp_rd_rs1_rs2_b12_str
00004138 l       .text.rvtest	00000000 I_sra_cg_cmp_rd_rs1_rs2_b13
0000ebbc l       .data	00000000 I_sra_cg_cmp_rd_rs1_rs2_b13_str
00004164 l       .text.rvtest	00000000 I_sra_cg_cmp_rd_rs1_rs2_b14
0000ebf4 l       .data	00000000 I_sra_cg_cmp_rd_rs1_rs2_b14_str
00004194 l       .text.rvtest	00000000 I_sra_cg_cmp_rd_rs1_rs2_b15
0000ec2c l       .data	00000000 I_sra_cg_cmp_rd_rs1_rs2_b15_str
000041c4 l       .text.rvtest	00000000 I_sra_cg_cmp_rd_rs1_rs2_b16
0000ec64 l       .data	00000000 I_sra_cg_cmp_rd_rs1_rs2_b16_str
000041f0 l       .text.rvtest	00000000 I_sra_cg_cmp_rd_rs1_rs2_b17
0000ec9c l       .data	00000000 I_sra_cg_cmp_rd_rs1_rs2_b17_str
0000421c l       .text.rvtest	00000000 I_sra_cg_cmp_rd_rs1_rs2_b18
0000ecd4 l       .data	00000000 I_sra_cg_cmp_rd_rs1_rs2_b18_str
00004248 l       .text.rvtest	00000000 I_sra_cg_cmp_rd_rs1_rs2_b19
0000ed0c l       .data	00000000 I_sra_cg_cmp_rd_rs1_rs2_b19_str
00004274 l       .text.rvtest	00000000 I_sra_cg_cmp_rd_rs1_rs2_b20
0000ed44 l       .data	00000000 I_sra_cg_cmp_rd_rs1_rs2_b20_str
000042a0 l       .text.rvtest	00000000 I_sra_cg_cmp_rd_rs1_rs2_b21
0000ed7c l       .data	00000000 I_sra_cg_cmp_rd_rs1_rs2_b21_str
000042cc l       .text.rvtest	00000000 I_sra_cg_cmp_rd_rs1_rs2_b22
0000edb4 l       .data	00000000 I_sra_cg_cmp_rd_rs1_rs2_b22_str
000042f8 l       .text.rvtest	00000000 I_sra_cg_cmp_rd_rs1_rs2_b23
0000edec l       .data	00000000 I_sra_cg_cmp_rd_rs1_rs2_b23_str
00004324 l       .text.rvtest	00000000 I_sra_cg_cmp_rd_rs1_rs2_b24
0000ee24 l       .data	00000000 I_sra_cg_cmp_rd_rs1_rs2_b24_str
00004350 l       .text.rvtest	00000000 I_sra_cg_cmp_rd_rs1_rs2_b25
0000ee5c l       .data	00000000 I_sra_cg_cmp_rd_rs1_rs2_b25_str
0000437c l       .text.rvtest	00000000 I_sra_cg_cmp_rd_rs1_rs2_b26
0000ee94 l       .data	00000000 I_sra_cg_cmp_rd_rs1_rs2_b26_str
000043a8 l       .text.rvtest	00000000 I_sra_cg_cmp_rd_rs1_rs2_b27
0000eecc l       .data	00000000 I_sra_cg_cmp_rd_rs1_rs2_b27_str
000043d4 l       .text.rvtest	00000000 I_sra_cg_cmp_rd_rs1_rs2_b28
0000ef04 l       .data	00000000 I_sra_cg_cmp_rd_rs1_rs2_b28_str
00004400 l       .text.rvtest	00000000 I_sra_cg_cmp_rd_rs1_rs2_b29
0000ef3c l       .data	00000000 I_sra_cg_cmp_rd_rs1_rs2_b29_str
0000442c l       .text.rvtest	00000000 I_sra_cg_cmp_rd_rs1_rs2_b30
0000ef74 l       .data	00000000 I_sra_cg_cmp_rd_rs1_rs2_b30_str
00004458 l       .text.rvtest	00000000 I_sra_cg_cmp_rd_rs1_rs2_b31
0000efac l       .data	00000000 I_sra_cg_cmp_rd_rs1_rs2_b31_str
00004478 l       .text.rvtest	00000000 exit_cleanup
0000f654 l       .data	00000000 successstr
00020204 l       .text.rvmodel	00000000 rvmodel_io_write_str
00020208 l       .text.rvmodel	00000000 rvmodel_halt_pass
000044b0 l       .text.rvtest	00000000 abort_test
6f5ca309 l       *ABS*	00000000 immx
6f5ca309 l       *ABS*	00000000 absimm
00000000 l       *ABS*	00000000 cry
00000309 l       *ABS*	00000000 imm12
0000eff0 l       .data	00000000 begin_failure_scratch
00004580 l       .text.rvtest	00000000 failedtest_saveregs
00004524 l       .text.rvtest	00000000 failedtest_trap_x7_x9
0000f160 l       .data	00000000 saved_mcause
0000f168 l       .data	00000000 saved_mtval
0000f170 l       .data	00000000 saved_mstatus
000045f0 l       .text.rvtest	00000000 failedtest_saveresults
0000eff0 l       .data	00000000 failure_type
0000466c l       .text.rvtest	00000000 failedtest_saveresults_trap
00004600 l       .text.rvtest	00000000 failedtest_saveresults_int
00004a40 l       .text.rvtest	00000000 failedtest_saveresults_common
0000f148 l       .data	00000000 trap_diag_fail_str_ptr
0000f81a l       .data	00000000 trap_sig_offset_mismatch
00004920 l       .text.rvtest	00000000 trap_diag_offset_mismatch
0000f120 l       .data	00000000 trap_diag_subtype
0000f87e l       .data	00000000 sv_Mvect_str
000049a0 l       .text.rvtest	00000000 trap_diag_field_identified
0000f980 l       .data	00000000 sv_Mcause_str
0000fa7b l       .data	00000000 sv_Mepc_str
0000fb6e l       .data	00000000 sv_Mtval_str
0000fce1 l       .data	00000000 sv_Mip_str
0000fc65 l       .data	00000000 sv_Mtval2_str
0000fca3 l       .data	00000000 sv_Mtinst_str
0000f8be l       .data	00000000 sv_Svect_str
0000f9be l       .data	00000000 sv_Scause_str
0000fab7 l       .data	00000000 sv_Sepc_str
0000fbab l       .data	00000000 sv_Stval_str
0000fd1c l       .data	00000000 sv_Sip_str
0000f8fe l       .data	00000000 sv_Hvect_str
0000f9fc l       .data	00000000 sv_Hcause_str
0000faf3 l       .data	00000000 sv_Hepc_str
0000fbe8 l       .data	00000000 sv_Htval_str
0000fd57 l       .data	00000000 sv_Hip_str
0000f93f l       .data	00000000 sv_Vvect_str
0000fa3b l       .data	00000000 sv_Vcause_str
0000fb30 l       .data	00000000 sv_Vepc_str
0000fc26 l       .data	00000000 sv_Vtval_str
0000fd93 l       .data	00000000 sv_Vip_str
0000fdd0 l       .data	00000000 Mclr_Mext_int_str
0000fe1f l       .data	00000000 Mclr_Sext_int_str
0000ff1a l       .data	00000000 Sclr_Sext_int_str
00010016 l       .data	00000000 Hclr_Sext_int_str
00004a30 l       .text.rvtest	00000000 trap_diag_generic_report
0000f138 l       .data	00000000 trap_diag_actual_offset
0000f140 l       .data	00000000 trap_diag_expected_offset
0000f124 l       .data	00000000 trap_diag_mode
0000f128 l       .data	00000000 trap_diag_actual_value
0000f130 l       .data	00000000 trap_diag_expected_value
00004a70 l       .text.rvtest	00000000 failedtest_report
00004a70 l       .text.rvtest	00000000 print_failstr
0000f68a l       .data	00000000 failstr
00004aa8 l       .text.rvtest	00000000 print_testnamestr
0000f71d l       .data	00000000 testnamestr
00004ae8 l       .text.rvtest	00000000 print_failure_test_name_str
0000f110 l       .data	00000000 failure_string_ptr
00004af8 l       .text.rvtest	00000000 print_newline_str
0000f72f l       .data	00000000 newlinestr
00004f2c l       .text.rvtest	00000000 failedtest_report_trap_detailed
0000f731 l       .data	00000000 inststr
0000f0f0 l       .data	00000000 failing_instruction
00005e78 l       .text.rvtest	00000000 failedtest_hex_to_str
0000f178 l       .data	00000000 ascii_buffer
0000f745 l       .data	00000000 addrstr
0000f0f8 l       .data	00000000 failing_addr
000101c2 l       .data	00000000 regstr
00004cd8 l       .text.rvtest	00000000 failedtest_report_not_intreg
0000f0f4 l       .data	00000000 failing_reg
00005ef4 l       .text.rvtest	00000000 failedtest_dec_to_str
00004db4 l       .text.rvtest	00000000 failedtest_report_print_regstr
00004d2c l       .text.rvtest	00000000 failedtest_report_fpreg
00004d78 l       .text.rvtest	00000000 failedtest_report_vecreg
00010222 l       .data	00000000 fflagsstr
00004de8 l       .text.rvtest	00000000 failedtest_report_after_reg
000101d3 l       .data	00000000 badvalstr
00004e4c l       .text.rvtest	00000000 failedtest_report_badval_not_fp
0000f100 l       .data	00000000 failing_value
00004e5c l       .text.rvtest	00000000 failedtest_report_badval_done
000101ea l       .data	00000000 expvalstr
00004eec l       .text.rvtest	00000000 failedtest_report_expval_not_fp
0000f108 l       .data	00000000 expected_value
00004efc l       .text.rvtest	00000000 failedtest_report_expval_done
00005c24 l       .text.rvtest	00000000 failedtest_report_end
0001024e l       .data	00000000 trap_diag_header_str
0001027a l       .data	00000000 trap_diag_origstr_label
00005000 l       .text.rvtest	00000000 trap_report_offset_mismatch
00005ab0 l       .text.rvtest	00000000 trap_report_generic
00005374 l       .text.rvtest	00000000 trap_report_field_mismatch
0001028a l       .data	00000000 trap_diag_count_mismatch_str
000102eb l       .data	00000000 trap_diag_expected_offset_str
00010312 l       .data	00000000 trap_diag_actual_offset_str
00005254 l       .text.rvtest	00000000 trap_report_missing_traps
0000513c l       .text.rvtest	00000000 trap_report_extra_traps
00010339 l       .data	00000000 trap_diag_extra_traps_str
000103be l       .data	00000000 trap_diag_extra_bytes_str
000103e9 l       .data	00000000 trap_diag_extra_hint_str
00005c70 l       .text.rvtest	00000000 failedtest_print_csr_context
00010373 l       .data	00000000 trap_diag_missing_traps_str
000104d1 l       .data	00000000 trap_diag_missing_hint_str
000105b8 l       .data	00000000 trap_diag_handler_mode_str
00005404 l       .text.rvtest	00000000 trap_mode_m
00005444 l       .text.rvtest	00000000 trap_mode_s
00005484 l       .text.rvtest	00000000 trap_mode_h
000054c4 l       .text.rvtest	00000000 trap_mode_v
000105f4 l       .data	00000000 trap_diag_mode_unknown_str
00005500 l       .text.rvtest	00000000 trap_mode_print
000105d2 l       .data	00000000 trap_diag_mode_m_str
000105da l       .data	00000000 trap_diag_mode_s_str
000105e2 l       .data	00000000 trap_diag_mode_hs_str
000105eb l       .data	00000000 trap_diag_mode_vs_str
000105fd l       .data	00000000 trap_diag_field_str
000055c4 l       .text.rvtest	00000000 trap_field_vect
00005604 l       .text.rvtest	00000000 trap_field_cause
00005644 l       .text.rvtest	00000000 trap_field_epc
00005684 l       .text.rvtest	00000000 trap_field_tval
000056c4 l       .text.rvtest	00000000 trap_field_ip
00005704 l       .text.rvtest	00000000 trap_field_tval2
00005744 l       .text.rvtest	00000000 trap_field_tinst
00005784 l       .text.rvtest	00000000 trap_field_intid
00010754 l       .data	00000000 trap_diag_field_unknown_str
000057c0 l       .text.rvtest	00000000 trap_field_print
00010617 l       .data	00000000 trap_diag_field_vect_str
00010648 l       .data	00000000 trap_diag_field_cause_str
00010668 l       .data	00000000 trap_diag_field_epc_str
00010686 l       .data	00000000 trap_diag_field_tval_str
000106a5 l       .data	00000000 trap_diag_field_ip_str
000106cd l       .data	00000000 trap_diag_field_tval2_str
000106f9 l       .data	00000000 trap_diag_field_tinst_str
00010725 l       .data	00000000 trap_diag_field_intid_str
00010763 l       .data	00000000 trap_diag_expected_str
0001077a l       .data	00000000 trap_diag_actual_str
0000595c l       .text.rvtest	00000000 trap_field_not_cause
00010791 l       .data	00000000 trap_diag_expected_cause_name_str
00005b94 l       .text.rvtest	00000000 trap_cause_to_str
000107a8 l       .data	00000000 trap_diag_actual_cause_name_str
0000595c l       .text.rvtest	00000000 trap_field_not_epc
0001081e l       .data	00000000 trap_diag_hint_vect_str
000108f4 l       .data	00000000 trap_diag_hint_cause_str
000109e7 l       .data	00000000 trap_diag_hint_epc_str
00010ae2 l       .data	00000000 trap_diag_hint_tval_str
00010bc9 l       .data	00000000 trap_diag_hint_ip_str
000107d6 l       .data	00000000 trap_diag_generic_str
0000f158 l       .data	00000000 saved_mepc
0000f7b9 l       .data	00000000 xepcinstrstr
00005bb8 l       .text.rvtest	00000000 trap_cause_interrupt
00005b98 l       .text.rvtest	00000000 trap_cause_exception
00005be4 l       .text.rvtest	00000000 trap_cause_unknown
0000f1a0 l       .data	00000000 trap_excpt_name_tbl
0000f200 l       .data	00000000 trap_int_name_tbl
0000f63e l       .data	00000000 trap_cause_unknown_str
00010201 l       .data	00000000 endstr
00005c68 l       .text.rvtest	00000000 failedtest_terminate
00020214 l       .text.rvmodel	00000000 rvmodel_halt_fail
0000f150 l       .data	00000000 csr_context_ret_addr
0000f7da l       .data	00000000 mepcstr
0000f7ea l       .data	00000000 mcausestr
0000f7fa l       .data	00000000 mtvalstr
0000f80a l       .data	00000000 mstatusstr
00005eb8 l       .text.rvtest	00000000 failedtest_hex_to_str_loop
00005ed4 l       .text.rvtest	00000000 failedtest_hex_to_str_digit
00005ed8 l       .text.rvtest	00000000 failedtest_hex_to_str_write
00020000 l       .text.rvmodel	00000000 rvtest_boot_to_mmode
00020000 l       .text.rvmodel	00000000 rvtest_init_regs
00010cb0 l       .data	00000000 signature_base
000201a0 l       .text.rvmodel	00000000 canary_check
0001022a l       .data	00000000 canary_mismatch
00008000 l       .data	00000000 scratch
0000f1a0 l       .data	00000000 end_failure_scratch
0000f240 l       .data	00000000 trap_excpt_name_0
0000f260 l       .data	00000000 trap_excpt_name_1
0000f27a l       .data	00000000 trap_excpt_name_2
0000f28f l       .data	00000000 trap_excpt_name_3
0000f29b l       .data	00000000 trap_excpt_name_4
0000f2b4 l       .data	00000000 trap_excpt_name_5
0000f2c7 l       .data	00000000 trap_excpt_name_6
0000f2e5 l       .data	00000000 trap_excpt_name_7
0000f2fd l       .data	00000000 trap_excpt_name_8
0000f31b l       .data	00000000 trap_excpt_name_9
0000f339 l       .data	00000000 trap_excpt_name_10
0000f358 l       .data	00000000 trap_excpt_name_11
0000f376 l       .data	00000000 trap_excpt_name_12
0000f38e l       .data	00000000 trap_excpt_name_13
0000f39f l       .data	00000000 trap_excpt_name_14
0000f3ae l       .data	00000000 trap_excpt_name_15
0000f3c4 l       .data	00000000 trap_excpt_name_16
0000f3d1 l       .data	00000000 trap_excpt_name_17
0000f3e0 l       .data	00000000 trap_excpt_name_18
0000f3f0 l       .data	00000000 trap_excpt_name_19
0000f400 l       .data	00000000 trap_excpt_name_20
0000f41e l       .data	00000000 trap_excpt_name_21
0000f435 l       .data	00000000 trap_excpt_name_22
0000f44a l       .data	00000000 trap_excpt_name_23
0000f466 l       .data	00000000 trap_int_name_0
0000f47e l       .data	00000000 trap_int_name_1
0000f49d l       .data	00000000 trap_int_name_2
0000f4c4 l       .data	00000000 trap_int_name_3
0000f4e0 l       .data	00000000 trap_int_name_4
0000f4f8 l       .data	00000000 trap_int_name_5
0000f514 l       .data	00000000 trap_int_name_6
0000f538 l       .data	00000000 trap_int_name_7
0000f551 l       .data	00000000 trap_int_name_8
0000f569 l       .data	00000000 trap_int_name_9
0000f588 l       .data	00000000 trap_int_name_10
0000f5af l       .data	00000000 trap_int_name_11
0000f5cb l       .data	00000000 trap_int_name_12
0000f5f0 l       .data	00000000 trap_int_name_13
0000f60c l       .data	00000000 trap_int_name_14
0000f625 l       .data	00000000 trap_int_name_15
0000f6df l       .data	00000000 abortstr
0000f786 l       .data	00000000 xepcstr
0000fe71 l       .data	00000000 Mclr_Vext_int_str
0000fecb l       .data	00000000 Sclr_Mext_int_str
0000ff6c l       .data	00000000 Sclr_Vext_int_str
0000ffc6 l       .data	00000000 Hclr_Mext_int_str
00010069 l       .data	00000000 Hclr_Vext_int_str
000100c4 l       .data	00000000 Vclr_Mext_int_str
00010114 l       .data	00000000 Vclr_Sext_int_str
00010167 l       .data	00000000 Vclr_Vext_int_str
000107bf l       .data	00000000 trap_diag_curr_xepc_str
00011300 l       .data	00000000 trap_sigptr
0001fd70 g       .data	00000000 end_signature
0001fd70 g       .data	00000000 rvtest_sig_end
00000000 g       .text.init	00000000 rvtest_entry_point
00010cb0 g       .data	00000000 begin_signature
00004478 g       .text.rvtest	00000000 rvtest_code_end
00000040 g       .text.rvtest	00000000 rvtest_code_begin
00010cb0 g       .data	00000000 rvtest_sig_begin
00008110 g       .data	00000000 rvtest_data_begin
00010cae g       .data	00000000 rvtest_data_end
00004478 g       .text.rvtest	00000000 cleanup_epilogs
00021000 g       .text.rvmodel	00000000 _end



Disassembly of section .text.init:

00000000 <rvtest_entry_point>:

// Include framework macros
#include "riscv_arch_test.h"

// Set up test environment and declare main entry point
RVTEST_BEGIN
   0:	00020097          	auipc	x1,0x20
   4:	00008093          	addi	x1,x1,0 # 20000 <rvmodel_boot>
   8:	00000013          	addi	x0,x0,0
   c:	00000013          	addi	x0,x0,0
  10:	00000013          	addi	x0,x0,0
  14:	00000013          	addi	x0,x0,0
  18:	00000013          	addi	x0,x0,0
  1c:	00000013          	addi	x0,x0,0
  20:	000080e7          	jalr	x1,0(x1)
  24:	00000013          	addi	x0,x0,0
  28:	00000013          	addi	x0,x0,0
  2c:	00000013          	addi	x0,x0,0
  30:	00000013          	addi	x0,x0,0
  34:	00000013          	addi	x0,x0,0
  38:	00000013          	addi	x0,x0,0
  3c:	00000013          	addi	x0,x0,0

Disassembly of section .text.rvtest:

00000040 <rvtest_code_begin>:
/////////////////////////////////
// cp_rs1
/////////////////////////////////

# Testcase cp_rs1 (Test source rs1 = x0)
  RVTEST_TESTDATA_LOAD_INT(x3, x0) # load rs1: x0 = 0x16d12b23
      40:	0001a003          	lw	x0,0(x3)
      44:	00418193          	addi	x3,x3,4
  RVTEST_TESTDATA_LOAD_INT(x3, x10) # load rs2: x10 = 0x2e7b31a3
      48:	0001a503          	lw	x10,0(x3)
      4c:	00418193          	addi	x3,x3,4

00000050 <I_sra_cg_cp_rs1_b0>:
I_sra_cg_cp_rs1_b0:
  sra x28, x0, x10 # perform operation
      50:	40a05e33          	sra	x28,x0,x10
  # Check if x28 contains the expected result. x2 is the signature ptr, x5 is the link ptr, x4 is a temp reg.
  RVTEST_SIGUPD(x2, x5, x4, x28, I_sra_cg_cp_rs1_b0, I_sra_cg_cp_rs1_b0_str)
      54:	00012203          	lw	x4,0(x2)
      58:	01c20863          	beq	x4,x28,68 <I_sra_cg_cp_rs1_b0+0x18>
      5c:	460042ef          	jal	x5,44bc <failedtest_x5_x4>
      60:	00000050          	.word	0x00000050
      64:	00008d50          	.word	0x00008d50
      68:	00410113          	addi	x2,x2,4

# Testcase cp_rs1 (Test source rs1 = x1)
  RVTEST_TESTDATA_LOAD_INT(x3, x1) # load rs1: x1 = 0x5a0d3864
      6c:	0001a083          	lw	x1,0(x3)
      70:	00418193          	addi	x3,x3,4
  RVTEST_TESTDATA_LOAD_INT(x3, x18) # load rs2: x18 = 0x5fc3364c
      74:	0001a903          	lw	x18,0(x3)
      78:	00418193          	addi	x3,x3,4

0000007c <I_sra_cg_cp_rs1_b1>:
I_sra_cg_cp_rs1_b1:
  sra x10, x1, x18 # perform operation
      7c:	4120d533          	sra	x10,x1,x18
  # Check if x10 contains the expected result. x2 is the signature ptr, x5 is the link ptr, x4 is a temp reg.
  RVTEST_SIGUPD(x2, x5, x4, x10, I_sra_cg_cp_rs1_b1, I_sra_cg_cp_rs1_b1_str)
      80:	00012203          	lw	x4,0(x2)
      84:	00a20863          	beq	x4,x10,94 <I_sra_cg_cp_rs1_b1+0x18>
      88:	434042ef          	jal	x5,44bc <failedtest_x5_x4>
      8c:	0000007c          	.word	0x0000007c
      90:	00008d7d          	.word	0x00008d7d
      94:	00410113          	addi	x2,x2,4

  mv x12, x2 # switch signature pointer register to avoid conflict with test
      98:	00010613          	addi	x12,x2,0
# Testcase cp_rs1 (Test source rs1 = x2)
  RVTEST_TESTDATA_LOAD_INT(x3, x2) # load rs1: x2 = 0x2822ddd2
      9c:	0001a103          	lw	x2,0(x3)
      a0:	00418193          	addi	x3,x3,4
  RVTEST_TESTDATA_LOAD_INT(x3, x10) # load rs2: x10 = 0x601f626b
      a4:	0001a503          	lw	x10,0(x3)
      a8:	00418193          	addi	x3,x3,4

000000ac <I_sra_cg_cp_rs1_b2>:
I_sra_cg_cp_rs1_b2:
  sra x0, x2, x10 # perform operation
      ac:	40a15033          	sra	x0,x2,x10
  # Check if x0 contains the expected result. x12 is the signature ptr, x5 is the link ptr, x4 is a temp reg.
  RVTEST_SIGUPD(x12, x5, x4, x0, I_sra_cg_cp_rs1_b2, I_sra_cg_cp_rs1_b2_str)
      b0:	00062203          	lw	x4,0(x12)
      b4:	00020863          	beq	x4,x0,c4 <I_sra_cg_cp_rs1_b2+0x18>
      b8:	404042ef          	jal	x5,44bc <failedtest_x5_x4>
      bc:	000000ac          	.word	0x000000ac
      c0:	00008daa          	.word	0x00008daa
      c4:	00460613          	addi	x12,x12,4

  mv x30, x3 # switch data pointer register to avoid conflict with test
      c8:	00018f13          	addi	x30,x3,0
# Testcase cp_rs1 (Test source rs1 = x3)
  RVTEST_TESTDATA_LOAD_INT(x30, x3) # load rs1: x3 = 0x7ad29765
      cc:	000f2183          	lw	x3,0(x30)
      d0:	004f0f13          	addi	x30,x30,4
  RVTEST_TESTDATA_LOAD_INT(x30, x7) # load rs2: x7 = 0xf0f77233
      d4:	000f2383          	lw	x7,0(x30)
      d8:	004f0f13          	addi	x30,x30,4

000000dc <I_sra_cg_cp_rs1_b3>:
I_sra_cg_cp_rs1_b3:
  sra x6, x3, x7 # perform operation
      dc:	4071d333          	sra	x6,x3,x7
  # Check if x6 contains the expected result. x12 is the signature ptr, x5 is the link ptr, x4 is a temp reg.
  RVTEST_SIGUPD(x12, x5, x4, x6, I_sra_cg_cp_rs1_b3, I_sra_cg_cp_rs1_b3_str)
      e0:	00062203          	lw	x4,0(x12)
      e4:	00620863          	beq	x4,x6,f4 <I_sra_cg_cp_rs1_b3+0x18>
      e8:	3d4042ef          	jal	x5,44bc <failedtest_x5_x4>
      ec:	000000dc          	.word	0x000000dc
      f0:	00008dd7          	.word	0x00008dd7
      f4:	00460613          	addi	x12,x12,4

  mv x13, x4 # switch temp register to avoid conflict with test
      f8:	00020693          	addi	x13,x4,0 # 0 <rvtest_entry_point>
  mv x14, x5 # switch link pointer register to avoid conflict with test
      fc:	00028713          	addi	x14,x5,0
# Testcase cp_rs1 (Test source rs1 = x4)
  RVTEST_TESTDATA_LOAD_INT(x30, x4) # load rs1: x4 = 0x580b98df
     100:	000f2203          	lw	x4,0(x30)
     104:	004f0f13          	addi	x30,x30,4
  RVTEST_TESTDATA_LOAD_INT(x30, x2) # load rs2: x2 = 0x8edf6b09
     108:	000f2103          	lw	x2,0(x30)
     10c:	004f0f13          	addi	x30,x30,4

00000110 <I_sra_cg_cp_rs1_b4>:
I_sra_cg_cp_rs1_b4:
  sra x9, x4, x2 # perform operation
     110:	402254b3          	sra	x9,x4,x2
  # Check if x9 contains the expected result. x12 is the signature ptr, x14 is the link ptr, x13 is a temp reg.
  RVTEST_SIGUPD(x12, x14, x13, x9, I_sra_cg_cp_rs1_b4, I_sra_cg_cp_rs1_b4_str)
     114:	00062683          	lw	x13,0(x12)
     118:	00968863          	beq	x13,x9,128 <I_sra_cg_cp_rs1_b4+0x18>
     11c:	3e00476f          	jal	x14,44fc <failedtest_x14_x13>
     120:	00000110          	.word	0x00000110
     124:	00008e04          	.word	0x00008e04
     128:	00460613          	addi	x12,x12,4

# Testcase cp_rs1 (Test source rs1 = x5)
  RVTEST_TESTDATA_LOAD_INT(x30, x5) # load rs1: x5 = 0x7fa5b1d8
     12c:	000f2283          	lw	x5,0(x30)
     130:	004f0f13          	addi	x30,x30,4
  RVTEST_TESTDATA_LOAD_INT(x30, x1) # load rs2: x1 = 0xbdef610c
     134:	000f2083          	lw	x1,0(x30)
     138:	004f0f13          	addi	x30,x30,4

0000013c <I_sra_cg_cp_rs1_b5>:
I_sra_cg_cp_rs1_b5:
  sra x4, x5, x1 # perform operation
     13c:	4012d233          	sra	x4,x5,x1
  # Check if x4 contains the expected result. x12 is the signature ptr, x14 is the link ptr, x13 is a temp reg.
  RVTEST_SIGUPD(x12, x14, x13, x4, I_sra_cg_cp_rs1_b5, I_sra_cg_cp_rs1_b5_str)
     140:	00062683          	lw	x13,0(x12)
     144:	00468863          	beq	x13,x4,154 <I_sra_cg_cp_rs1_b5+0x18>
     148:	3b40476f          	jal	x14,44fc <failedtest_x14_x13>
     14c:	0000013c          	.word	0x0000013c
     150:	00008e31          	.word	0x00008e31
     154:	00460613          	addi	x12,x12,4

# Testcase cp_rs1 (Test source rs1 = x6)
  RVTEST_TESTDATA_LOAD_INT(x30, x6) # load rs1: x6 = 0x70189d4d
     158:	000f2303          	lw	x6,0(x30)
     15c:	004f0f13          	addi	x30,x30,4
  RVTEST_TESTDATA_LOAD_INT(x30, x5) # load rs2: x5 = 0x1b1ad0cc
     160:	000f2283          	lw	x5,0(x30)
     164:	004f0f13          	addi	x30,x30,4

00000168 <I_sra_cg_cp_rs1_b6>:
I_sra_cg_cp_rs1_b6:
  sra x23, x6, x5 # perform operation
     168:	40535bb3          	sra	x23,x6,x5
  # Check if x23 contains the expected result. x12 is the signature ptr, x14 is the link ptr, x13 is a temp reg.
  RVTEST_SIGUPD(x12, x14, x13, x23, I_sra_cg_cp_rs1_b6, I_sra_cg_cp_rs1_b6_str)
     16c:	00062683          	lw	x13,0(x12)
     170:	01768863          	beq	x13,x23,180 <I_sra_cg_cp_rs1_b6+0x18>
     174:	3880476f          	jal	x14,44fc <failedtest_x14_x13>
     178:	00000168          	.word	0x00000168
     17c:	00008e5e          	.word	0x00008e5e
     180:	00460613          	addi	x12,x12,4

# Testcase cp_rs1 (Test source rs1 = x7)
  RVTEST_TESTDATA_LOAD_INT(x30, x7) # load rs1: x7 = 0x06e219a2
     184:	000f2383          	lw	x7,0(x30)
     188:	004f0f13          	addi	x30,x30,4
  RVTEST_TESTDATA_LOAD_INT(x30, x18) # load rs2: x18 = 0xedde8ea5
     18c:	000f2903          	lw	x18,0(x30)
     190:	004f0f13          	addi	x30,x30,4

00000194 <I_sra_cg_cp_rs1_b7>:
I_sra_cg_cp_rs1_b7:
  sra x19, x7, x18 # perform operation
     194:	4123d9b3          	sra	x19,x7,x18
  # Check if x19 contains the expected result. x12 is the signature ptr, x14 is the link ptr, x13 is a temp reg.
  RVTEST_SIGUPD(x12, x14, x13, x19, I_sra_cg_cp_rs1_b7, I_sra_cg_cp_rs1_b7_str)
     198:	00062683          	lw	x13,0(x12)
     19c:	01368863          	beq	x13,x19,1ac <I_sra_cg_cp_rs1_b7+0x18>
     1a0:	35c0476f          	jal	x14,44fc <failedtest_x14_x13>
     1a4:	00000194          	.word	0x00000194
     1a8:	00008e8b          	.word	0x00008e8b
     1ac:	00460613          	addi	x12,x12,4

# Testcase cp_rs1 (Test source rs1 = x8)
  RVTEST_TESTDATA_LOAD_INT(x30, x8) # load rs1: x8 = 0xf5677d3d
     1b0:	000f2403          	lw	x8,0(x30)
     1b4:	004f0f13          	addi	x30,x30,4
  RVTEST_TESTDATA_LOAD_INT(x30, x27) # load rs2: x27 = 0x5cdfecd4
     1b8:	000f2d83          	lw	x27,0(x30)
     1bc:	004f0f13          	addi	x30,x30,4

000001c0 <I_sra_cg_cp_rs1_b8>:
I_sra_cg_cp_rs1_b8:
  sra x17, x8, x27 # perform operation
     1c0:	41b458b3          	sra	x17,x8,x27
  # Check if x17 contains the expected result. x12 is the signature ptr, x14 is the link ptr, x13 is a temp reg.
  RVTEST_SIGUPD(x12, x14, x13, x17, I_sra_cg_cp_rs1_b8, I_sra_cg_cp_rs1_b8_str)
     1c4:	00062683          	lw	x13,0(x12)
     1c8:	01168863          	beq	x13,x17,1d8 <I_sra_cg_cp_rs1_b8+0x18>
     1cc:	3300476f          	jal	x14,44fc <failedtest_x14_x13>
     1d0:	000001c0          	.word	0x000001c0
     1d4:	00008eb8          	.word	0x00008eb8
     1d8:	00460613          	addi	x12,x12,4

# Testcase cp_rs1 (Test source rs1 = x9)
  RVTEST_TESTDATA_LOAD_INT(x30, x9) # load rs1: x9 = 0xa6e5aa25
     1dc:	000f2483          	lw	x9,0(x30)
     1e0:	004f0f13          	addi	x30,x30,4
  RVTEST_TESTDATA_LOAD_INT(x30, x27) # load rs2: x27 = 0x76de6bbb
     1e4:	000f2d83          	lw	x27,0(x30)
     1e8:	004f0f13          	addi	x30,x30,4

000001ec <I_sra_cg_cp_rs1_b9>:
I_sra_cg_cp_rs1_b9:
  sra x19, x9, x27 # perform operation
     1ec:	41b4d9b3          	sra	x19,x9,x27
  # Check if x19 contains the expected result. x12 is the signature ptr, x14 is the link ptr, x13 is a temp reg.
  RVTEST_SIGUPD(x12, x14, x13, x19, I_sra_cg_cp_rs1_b9, I_sra_cg_cp_rs1_b9_str)
     1f0:	00062683          	lw	x13,0(x12)
     1f4:	01368863          	beq	x13,x19,204 <I_sra_cg_cp_rs1_b9+0x18>
     1f8:	3040476f          	jal	x14,44fc <failedtest_x14_x13>
     1fc:	000001ec          	.word	0x000001ec
     200:	00008ee5          	.word	0x00008ee5
     204:	00460613          	addi	x12,x12,4

# Testcase cp_rs1 (Test source rs1 = x10)
  RVTEST_TESTDATA_LOAD_INT(x30, x10) # load rs1: x10 = 0xd0e69d25
     208:	000f2503          	lw	x10,0(x30)
     20c:	004f0f13          	addi	x30,x30,4
  RVTEST_TESTDATA_LOAD_INT(x30, x28) # load rs2: x28 = 0x41940e3c
     210:	000f2e03          	lw	x28,0(x30)
     214:	004f0f13          	addi	x30,x30,4

00000218 <I_sra_cg_cp_rs1_b10>:
I_sra_cg_cp_rs1_b10:
  sra x1, x10, x28 # perform operation
     218:	41c550b3          	sra	x1,x10,x28
  # Check if x1 contains the expected result. x12 is the signature ptr, x14 is the link ptr, x13 is a temp reg.
  RVTEST_SIGUPD(x12, x14, x13, x1, I_sra_cg_cp_rs1_b10, I_sra_cg_cp_rs1_b10_str)
     21c:	00062683          	lw	x13,0(x12)
     220:	00168863          	beq	x13,x1,230 <I_sra_cg_cp_rs1_b10+0x18>
     224:	2d80476f          	jal	x14,44fc <failedtest_x14_x13>
     228:	00000218          	.word	0x00000218
     22c:	00008f13          	.word	0x00008f13
     230:	00460613          	addi	x12,x12,4

# Testcase cp_rs1 (Test source rs1 = x11)
  RVTEST_TESTDATA_LOAD_INT(x30, x11) # load rs1: x11 = 0x979d5990
     234:	000f2583          	lw	x11,0(x30)
     238:	004f0f13          	addi	x30,x30,4
  RVTEST_TESTDATA_LOAD_INT(x30, x28) # load rs2: x28 = 0xf922aa27
     23c:	000f2e03          	lw	x28,0(x30)
     240:	004f0f13          	addi	x30,x30,4

00000244 <I_sra_cg_cp_rs1_b11>:
I_sra_cg_cp_rs1_b11:
  sra x3, x11, x28 # perform operation
     244:	41c5d1b3          	sra	x3,x11,x28
  # Check if x3 contains the expected result. x12 is the signature ptr, x14 is the link ptr, x13 is a temp reg.
  RVTEST_SIGUPD(x12, x14, x13, x3, I_sra_cg_cp_rs1_b11, I_sra_cg_cp_rs1_b11_str)
     248:	00062683          	lw	x13,0(x12)
     24c:	00368863          	beq	x13,x3,25c <I_sra_cg_cp_rs1_b11+0x18>
     250:	2ac0476f          	jal	x14,44fc <failedtest_x14_x13>
     254:	00000244          	.word	0x00000244
     258:	00008f42          	.word	0x00008f42
     25c:	00460613          	addi	x12,x12,4

  mv x29, x12 # switch signature pointer register to avoid conflict with test
     260:	00060e93          	addi	x29,x12,0
# Testcase cp_rs1 (Test source rs1 = x12)
  RVTEST_TESTDATA_LOAD_INT(x30, x12) # load rs1: x12 = 0x7ea8de99
     264:	000f2603          	lw	x12,0(x30)
     268:	004f0f13          	addi	x30,x30,4
  RVTEST_TESTDATA_LOAD_INT(x30, x10) # load rs2: x10 = 0xcfa19ba8
     26c:	000f2503          	lw	x10,0(x30)
     270:	004f0f13          	addi	x30,x30,4

00000274 <I_sra_cg_cp_rs1_b12>:
I_sra_cg_cp_rs1_b12:
  sra x18, x12, x10 # perform operation
     274:	40a65933          	sra	x18,x12,x10
  # Check if x18 contains the expected result. x29 is the signature ptr, x14 is the link ptr, x13 is a temp reg.
  RVTEST_SIGUPD(x29, x14, x13, x18, I_sra_cg_cp_rs1_b12, I_sra_cg_cp_rs1_b12_str)
     278:	000ea683          	lw	x13,0(x29)
     27c:	01268863          	beq	x13,x18,28c <I_sra_cg_cp_rs1_b12+0x18>
     280:	27c0476f          	jal	x14,44fc <failedtest_x14_x13>
     284:	00000274          	.word	0x00000274
     288:	00008f71          	.word	0x00008f71
     28c:	004e8e93          	addi	x29,x29,4

  mv x7, x13 # switch temp register to avoid conflict with test
     290:	00068393          	addi	x7,x13,0
  mv x8, x14 # switch link pointer register to avoid conflict with test
     294:	00070413          	addi	x8,x14,0
# Testcase cp_rs1 (Test source rs1 = x13)
  RVTEST_TESTDATA_LOAD_INT(x30, x13) # load rs1: x13 = 0x06dea17b
     298:	000f2683          	lw	x13,0(x30)
     29c:	004f0f13          	addi	x30,x30,4
  RVTEST_TESTDATA_LOAD_INT(x30, x6) # load rs2: x6 = 0x208f896d
     2a0:	000f2303          	lw	x6,0(x30)
     2a4:	004f0f13          	addi	x30,x30,4

000002a8 <I_sra_cg_cp_rs1_b13>:
I_sra_cg_cp_rs1_b13:
  sra x1, x13, x6 # perform operation
     2a8:	4066d0b3          	sra	x1,x13,x6
  # Check if x1 contains the expected result. x29 is the signature ptr, x8 is the link ptr, x7 is a temp reg.
  RVTEST_SIGUPD(x29, x8, x7, x1, I_sra_cg_cp_rs1_b13, I_sra_cg_cp_rs1_b13_str)
     2ac:	000ea383          	lw	x7,0(x29)
     2b0:	00138863          	beq	x7,x1,2c0 <I_sra_cg_cp_rs1_b13+0x18>
     2b4:	2200446f          	jal	x8,44d4 <failedtest_x8_x7>
     2b8:	000002a8          	.word	0x000002a8
     2bc:	00008fa0          	.word	0x00008fa0
     2c0:	004e8e93          	addi	x29,x29,4

# Testcase cp_rs1 (Test source rs1 = x14)
  RVTEST_TESTDATA_LOAD_INT(x30, x14) # load rs1: x14 = 0xab0bad06
     2c4:	000f2703          	lw	x14,0(x30)
     2c8:	004f0f13          	addi	x30,x30,4
  RVTEST_TESTDATA_LOAD_INT(x30, x2) # load rs2: x2 = 0xa3e3cb8a
     2cc:	000f2103          	lw	x2,0(x30)
     2d0:	004f0f13          	addi	x30,x30,4

000002d4 <I_sra_cg_cp_rs1_b14>:
I_sra_cg_cp_rs1_b14:
  sra x31, x14, x2 # perform operation
     2d4:	40275fb3          	sra	x31,x14,x2
  # Check if x31 contains the expected result. x29 is the signature ptr, x8 is the link ptr, x7 is a temp reg.
  RVTEST_SIGUPD(x29, x8, x7, x31, I_sra_cg_cp_rs1_b14, I_sra_cg_cp_rs1_b14_str)
     2d8:	000ea383          	lw	x7,0(x29)
     2dc:	01f38863          	beq	x7,x31,2ec <I_sra_cg_cp_rs1_b14+0x18>
     2e0:	1f40446f          	jal	x8,44d4 <failedtest_x8_x7>
     2e4:	000002d4          	.word	0x000002d4
     2e8:	00008fcf          	.word	0x00008fcf
     2ec:	004e8e93          	addi	x29,x29,4

# Testcase cp_rs1 (Test source rs1 = x15)
  RVTEST_TESTDATA_LOAD_INT(x30, x15) # load rs1: x15 = 0x35f04382
     2f0:	000f2783          	lw	x15,0(x30)
     2f4:	004f0f13          	addi	x30,x30,4
  RVTEST_TESTDATA_LOAD_INT(x30, x31) # load rs2: x31 = 0x6d8ed9ae
     2f8:	000f2f83          	lw	x31,0(x30)
     2fc:	004f0f13          	addi	x30,x30,4

00000300 <I_sra_cg_cp_rs1_b15>:
I_sra_cg_cp_rs1_b15:
  sra x19, x15, x31 # perform operation
     300:	41f7d9b3          	sra	x19,x15,x31
  # Check if x19 contains the expected result. x29 is the signature ptr, x8 is the link ptr, x7 is a temp reg.
  RVTEST_SIGUPD(x29, x8, x7, x19, I_sra_cg_cp_rs1_b15, I_sra_cg_cp_rs1_b15_str)
     304:	000ea383          	lw	x7,0(x29)
     308:	01338863          	beq	x7,x19,318 <imm12+0xf>
     30c:	1c80446f          	jal	x8,44d4 <failedtest_x8_x7>
     310:	00000300          	.word	0x00000300
     314:	00008ffe          	.word	0x00008ffe
     318:	004e8e93          	addi	x29,x29,4

# Testcase cp_rs1 (Test source rs1 = x16)
  RVTEST_TESTDATA_LOAD_INT(x30, x16) # load rs1: x16 = 0x80b1a093
     31c:	000f2803          	lw	x16,0(x30)
     320:	004f0f13          	addi	x30,x30,4
  RVTEST_TESTDATA_LOAD_INT(x30, x1) # load rs2: x1 = 0xe033f777
     324:	000f2083          	lw	x1,0(x30)
     328:	004f0f13          	addi	x30,x30,4

0000032c <I_sra_cg_cp_rs1_b16>:
I_sra_cg_cp_rs1_b16:
  sra x24, x16, x1 # perform operation
     32c:	40185c33          	sra	x24,x16,x1
  # Check if x24 contains the expected result. x29 is the signature ptr, x8 is the link ptr, x7 is a temp reg.
  RVTEST_SIGUPD(x29, x8, x7, x24, I_sra_cg_cp_rs1_b16, I_sra_cg_cp_rs1_b16_str)
     330:	000ea383          	lw	x7,0(x29)
     334:	01838863          	beq	x7,x24,344 <I_sra_cg_cp_rs1_b16+0x18>
     338:	19c0446f          	jal	x8,44d4 <failedtest_x8_x7>
     33c:	0000032c          	.word	0x0000032c
     340:	0000902d          	.word	0x0000902d
     344:	004e8e93          	addi	x29,x29,4

# Testcase cp_rs1 (Test source rs1 = x17)
  RVTEST_TESTDATA_LOAD_INT(x30, x17) # load rs1: x17 = 0x33ee469b
     348:	000f2883          	lw	x17,0(x30)
     34c:	004f0f13          	addi	x30,x30,4
  RVTEST_TESTDATA_LOAD_INT(x30, x27) # load rs2: x27 = 0x2cf759fe
     350:	000f2d83          	lw	x27,0(x30)
     354:	004f0f13          	addi	x30,x30,4

00000358 <I_sra_cg_cp_rs1_b17>:
I_sra_cg_cp_rs1_b17:
  sra x18, x17, x27 # perform operation
     358:	41b8d933          	sra	x18,x17,x27
  # Check if x18 contains the expected result. x29 is the signature ptr, x8 is the link ptr, x7 is a temp reg.
  RVTEST_SIGUPD(x29, x8, x7, x18, I_sra_cg_cp_rs1_b17, I_sra_cg_cp_rs1_b17_str)
     35c:	000ea383          	lw	x7,0(x29)
     360:	01238863          	beq	x7,x18,370 <I_sra_cg_cp_rs1_b17+0x18>
     364:	1700446f          	jal	x8,44d4 <failedtest_x8_x7>
     368:	00000358          	.word	0x00000358
     36c:	0000905c          	.word	0x0000905c
     370:	004e8e93          	addi	x29,x29,4

# Testcase cp_rs1 (Test source rs1 = x18)
  RVTEST_TESTDATA_LOAD_INT(x30, x18) # load rs1: x18 = 0x8da307be
     374:	000f2903          	lw	x18,0(x30)
     378:	004f0f13          	addi	x30,x30,4
  RVTEST_TESTDATA_LOAD_INT(x30, x19) # load rs2: x19 = 0xb173590d
     37c:	000f2983          	lw	x19,0(x30)
     380:	004f0f13          	addi	x30,x30,4

00000384 <I_sra_cg_cp_rs1_b18>:
I_sra_cg_cp_rs1_b18:
  sra x31, x18, x19 # perform operation
     384:	41395fb3          	sra	x31,x18,x19
  # Check if x31 contains the expected result. x29 is the signature ptr, x8 is the link ptr, x7 is a temp reg.
  RVTEST_SIGUPD(x29, x8, x7, x31, I_sra_cg_cp_rs1_b18, I_sra_cg_cp_rs1_b18_str)
     388:	000ea383          	lw	x7,0(x29)
     38c:	01f38863          	beq	x7,x31,39c <I_sra_cg_cp_rs1_b18+0x18>
     390:	1440446f          	jal	x8,44d4 <failedtest_x8_x7>
     394:	00000384          	.word	0x00000384
     398:	0000908b          	.word	0x0000908b
     39c:	004e8e93          	addi	x29,x29,4

# Testcase cp_rs1 (Test source rs1 = x19)
  RVTEST_TESTDATA_LOAD_INT(x30, x19) # load rs1: x19 = 0x09a74887
     3a0:	000f2983          	lw	x19,0(x30)
     3a4:	004f0f13          	addi	x30,x30,4
  RVTEST_TESTDATA_LOAD_INT(x30, x16) # load rs2: x16 = 0x3fd9f5ea
     3a8:	000f2803          	lw	x16,0(x30)
     3ac:	004f0f13          	addi	x30,x30,4

000003b0 <I_sra_cg_cp_rs1_b19>:
I_sra_cg_cp_rs1_b19:
  sra x1, x19, x16 # perform operation
     3b0:	4109d0b3          	sra	x1,x19,x16
  # Check if x1 contains the expected result. x29 is the signature ptr, x8 is the link ptr, x7 is a temp reg.
  RVTEST_SIGUPD(x29, x8, x7, x1, I_sra_cg_cp_rs1_b19, I_sra_cg_cp_rs1_b19_str)
     3b4:	000ea383          	lw	x7,0(x29)
     3b8:	00138863          	beq	x7,x1,3c8 <I_sra_cg_cp_rs1_b19+0x18>
     3bc:	1180446f          	jal	x8,44d4 <failedtest_x8_x7>
     3c0:	000003b0          	.word	0x000003b0
     3c4:	000090ba          	.word	0x000090ba
     3c8:	004e8e93          	addi	x29,x29,4

# Testcase cp_rs1 (Test source rs1 = x20)
  RVTEST_TESTDATA_LOAD_INT(x30, x20) # load rs1: x20 = 0x6e445031
     3cc:	000f2a03          	lw	x20,0(x30)
     3d0:	004f0f13          	addi	x30,x30,4
  RVTEST_TESTDATA_LOAD_INT(x30, x24) # load rs2: x24 = 0x20cf021f
     3d4:	000f2c03          	lw	x24,0(x30)
     3d8:	004f0f13          	addi	x30,x30,4

000003dc <I_sra_cg_cp_rs1_b20>:
I_sra_cg_cp_rs1_b20:
  sra x13, x20, x24 # perform operation
     3dc:	418a56b3          	sra	x13,x20,x24
  # Check if x13 contains the expected result. x29 is the signature ptr, x8 is the link ptr, x7 is a temp reg.
  RVTEST_SIGUPD(x29, x8, x7, x13, I_sra_cg_cp_rs1_b20, I_sra_cg_cp_rs1_b20_str)
     3e0:	000ea383          	lw	x7,0(x29)
     3e4:	00d38863          	beq	x7,x13,3f4 <I_sra_cg_cp_rs1_b20+0x18>
     3e8:	0ec0446f          	jal	x8,44d4 <failedtest_x8_x7>
     3ec:	000003dc          	.word	0x000003dc
     3f0:	000090e9          	.word	0x000090e9
     3f4:	004e8e93          	addi	x29,x29,4

# Testcase cp_rs1 (Test source rs1 = x21)
  RVTEST_TESTDATA_LOAD_INT(x30, x21) # load rs1: x21 = 0x41aab850
     3f8:	000f2a83          	lw	x21,0(x30)
     3fc:	004f0f13          	addi	x30,x30,4
  RVTEST_TESTDATA_LOAD_INT(x30, x16) # load rs2: x16 = 0xa501bbdb
     400:	000f2803          	lw	x16,0(x30)
     404:	004f0f13          	addi	x30,x30,4

00000408 <I_sra_cg_cp_rs1_b21>:
I_sra_cg_cp_rs1_b21:
  sra x0, x21, x16 # perform operation
     408:	410ad033          	sra	x0,x21,x16
  # Check if x0 contains the expected result. x29 is the signature ptr, x8 is the link ptr, x7 is a temp reg.
  RVTEST_SIGUPD(x29, x8, x7, x0, I_sra_cg_cp_rs1_b21, I_sra_cg_cp_rs1_b21_str)
     40c:	000ea383          	lw	x7,0(x29)
     410:	00038863          	beq	x7,x0,420 <I_sra_cg_cp_rs1_b21+0x18>
     414:	0c00446f          	jal	x8,44d4 <failedtest_x8_x7>
     418:	00000408          	.word	0x00000408
     41c:	00009118          	.word	0x00009118
     420:	004e8e93          	addi	x29,x29,4

# Testcase cp_rs1 (Test source rs1 = x22)
  RVTEST_TESTDATA_LOAD_INT(x30, x22) # load rs1: x22 = 0x6877e78c
     424:	000f2b03          	lw	x22,0(x30)
     428:	004f0f13          	addi	x30,x30,4
  RVTEST_TESTDATA_LOAD_INT(x30, x25) # load rs2: x25 = 0x65245a59
     42c:	000f2c83          	lw	x25,0(x30)
     430:	004f0f13          	addi	x30,x30,4

00000434 <I_sra_cg_cp_rs1_b22>:
I_sra_cg_cp_rs1_b22:
  sra x2, x22, x25 # perform operation
     434:	419b5133          	sra	x2,x22,x25
  # Check if x2 contains the expected result. x29 is the signature ptr, x8 is the link ptr, x7 is a temp reg.
  RVTEST_SIGUPD(x29, x8, x7, x2, I_sra_cg_cp_rs1_b22, I_sra_cg_cp_rs1_b22_str)
     438:	000ea383          	lw	x7,0(x29)
     43c:	00238863          	beq	x7,x2,44c <I_sra_cg_cp_rs1_b22+0x18>
     440:	0940446f          	jal	x8,44d4 <failedtest_x8_x7>
     444:	00000434          	.word	0x00000434
     448:	00009147          	.word	0x00009147
     44c:	004e8e93          	addi	x29,x29,4

# Testcase cp_rs1 (Test source rs1 = x23)
  RVTEST_TESTDATA_LOAD_INT(x30, x23) # load rs1: x23 = 0x63ad20f2
     450:	000f2b83          	lw	x23,0(x30)
     454:	004f0f13          	addi	x30,x30,4
  RVTEST_TESTDATA_LOAD_INT(x30, x17) # load rs2: x17 = 0xdc677d37
     458:	000f2883          	lw	x17,0(x30)
     45c:	004f0f13          	addi	x30,x30,4

00000460 <I_sra_cg_cp_rs1_b23>:
I_sra_cg_cp_rs1_b23:
  sra x11, x23, x17 # perform operation
     460:	411bd5b3          	sra	x11,x23,x17
  # Check if x11 contains the expected result. x29 is the signature ptr, x8 is the link ptr, x7 is a temp reg.
  RVTEST_SIGUPD(x29, x8, x7, x11, I_sra_cg_cp_rs1_b23, I_sra_cg_cp_rs1_b23_str)
     464:	000ea383          	lw	x7,0(x29)
     468:	00b38863          	beq	x7,x11,478 <I_sra_cg_cp_rs1_b23+0x18>
     46c:	0680446f          	jal	x8,44d4 <failedtest_x8_x7>
     470:	00000460          	.word	0x00000460
     474:	00009176          	.word	0x00009176
     478:	004e8e93          	addi	x29,x29,4

# Testcase cp_rs1 (Test source rs1 = x24)
  RVTEST_TESTDATA_LOAD_INT(x30, x24) # load rs1: x24 = 0xd01789a8
     47c:	000f2c03          	lw	x24,0(x30)
     480:	004f0f13          	addi	x30,x30,4
  RVTEST_TESTDATA_LOAD_INT(x30, x26) # load rs2: x26 = 0xa5c87b89
     484:	000f2d03          	lw	x26,0(x30)
     488:	004f0f13          	addi	x30,x30,4

0000048c <I_sra_cg_cp_rs1_b24>:
I_sra_cg_cp_rs1_b24:
  sra x10, x24, x26 # perform operation
     48c:	41ac5533          	sra	x10,x24,x26
  # Check if x10 contains the expected result. x29 is the signature ptr, x8 is the link ptr, x7 is a temp reg.
  RVTEST_SIGUPD(x29, x8, x7, x10, I_sra_cg_cp_rs1_b24, I_sra_cg_cp_rs1_b24_str)
     490:	000ea383          	lw	x7,0(x29)
     494:	00a38863          	beq	x7,x10,4a4 <I_sra_cg_cp_rs1_b24+0x18>
     498:	03c0446f          	jal	x8,44d4 <failedtest_x8_x7>
     49c:	0000048c          	.word	0x0000048c
     4a0:	000091a5          	.word	0x000091a5
     4a4:	004e8e93          	addi	x29,x29,4

# Testcase cp_rs1 (Test source rs1 = x25)
  RVTEST_TESTDATA_LOAD_INT(x30, x25) # load rs1: x25 = 0x12cf894a
     4a8:	000f2c83          	lw	x25,0(x30)
     4ac:	004f0f13          	addi	x30,x30,4
  RVTEST_TESTDATA_LOAD_INT(x30, x3) # load rs2: x3 = 0x471fb30a
     4b0:	000f2183          	lw	x3,0(x30)
     4b4:	004f0f13          	addi	x30,x30,4

000004b8 <I_sra_cg_cp_rs1_b25>:
I_sra_cg_cp_rs1_b25:
  sra x22, x25, x3 # perform operation
     4b8:	403cdb33          	sra	x22,x25,x3
  # Check if x22 contains the expected result. x29 is the signature ptr, x8 is the link ptr, x7 is a temp reg.
  RVTEST_SIGUPD(x29, x8, x7, x22, I_sra_cg_cp_rs1_b25, I_sra_cg_cp_rs1_b25_str)
     4bc:	000ea383          	lw	x7,0(x29)
     4c0:	01638863          	beq	x7,x22,4d0 <I_sra_cg_cp_rs1_b25+0x18>
     4c4:	0100446f          	jal	x8,44d4 <failedtest_x8_x7>
     4c8:	000004b8          	.word	0x000004b8
     4cc:	000091d4          	.word	0x000091d4
     4d0:	004e8e93          	addi	x29,x29,4

# Testcase cp_rs1 (Test source rs1 = x26)
  RVTEST_TESTDATA_LOAD_INT(x30, x26) # load rs1: x26 = 0xcd458a35
     4d4:	000f2d03          	lw	x26,0(x30)
     4d8:	004f0f13          	addi	x30,x30,4
  RVTEST_TESTDATA_LOAD_INT(x30, x10) # load rs2: x10 = 0x5fd063f9
     4dc:	000f2503          	lw	x10,0(x30)
     4e0:	004f0f13          	addi	x30,x30,4

000004e4 <I_sra_cg_cp_rs1_b26>:
I_sra_cg_cp_rs1_b26:
  sra x27, x26, x10 # perform operation
     4e4:	40ad5db3          	sra	x27,x26,x10
  # Check if x27 contains the expected result. x29 is the signature ptr, x8 is the link ptr, x7 is a temp reg.
  RVTEST_SIGUPD(x29, x8, x7, x27, I_sra_cg_cp_rs1_b26, I_sra_cg_cp_rs1_b26_str)
     4e8:	000ea383          	lw	x7,0(x29)
     4ec:	01b38863          	beq	x7,x27,4fc <I_sra_cg_cp_rs1_b26+0x18>
     4f0:	7e50346f          	jal	x8,44d4 <failedtest_x8_x7>
     4f4:	000004e4          	.word	0x000004e4
     4f8:	00009203          	.word	0x00009203
     4fc:	004e8e93          	addi	x29,x29,4

# Testcase cp_rs1 (Test source rs1 = x27)
  RVTEST_TESTDATA_LOAD_INT(x30, x27) # load rs1: x27 = 0x1e77a6bf
     500:	000f2d83          	lw	x27,0(x30)
     504:	004f0f13          	addi	x30,x30,4
  RVTEST_TESTDATA_LOAD_INT(x30, x15) # load rs2: x15 = 0xe36e92d1
     508:	000f2783          	lw	x15,0(x30)
     50c:	004f0f13          	addi	x30,x30,4

00000510 <I_sra_cg_cp_rs1_b27>:
I_sra_cg_cp_rs1_b27:
  sra x20, x27, x15 # perform operation
     510:	40fdda33          	sra	x20,x27,x15
  # Check if x20 contains the expected result. x29 is the signature ptr, x8 is the link ptr, x7 is a temp reg.
  RVTEST_SIGUPD(x29, x8, x7, x20, I_sra_cg_cp_rs1_b27, I_sra_cg_cp_rs1_b27_str)
     514:	000ea383          	lw	x7,0(x29)
     518:	01438863          	beq	x7,x20,528 <I_sra_cg_cp_rs1_b27+0x18>
     51c:	7b90346f          	jal	x8,44d4 <failedtest_x8_x7>
     520:	00000510          	.word	0x00000510
     524:	00009232          	.word	0x00009232
     528:	004e8e93          	addi	x29,x29,4

# Testcase cp_rs1 (Test source rs1 = x28)
  RVTEST_TESTDATA_LOAD_INT(x30, x28) # load rs1: x28 = 0x31a7e6b5
     52c:	000f2e03          	lw	x28,0(x30)
     530:	004f0f13          	addi	x30,x30,4
  RVTEST_TESTDATA_LOAD_INT(x30, x12) # load rs2: x12 = 0xaeed3088
     534:	000f2603          	lw	x12,0(x30)
     538:	004f0f13          	addi	x30,x30,4

0000053c <I_sra_cg_cp_rs1_b28>:
I_sra_cg_cp_rs1_b28:
  sra x1, x28, x12 # perform operation
     53c:	40ce50b3          	sra	x1,x28,x12
  # Check if x1 contains the expected result. x29 is the signature ptr, x8 is the link ptr, x7 is a temp reg.
  RVTEST_SIGUPD(x29, x8, x7, x1, I_sra_cg_cp_rs1_b28, I_sra_cg_cp_rs1_b28_str)
     540:	000ea383          	lw	x7,0(x29)
     544:	00138863          	beq	x7,x1,554 <I_sra_cg_cp_rs1_b28+0x18>
     548:	78d0346f          	jal	x8,44d4 <failedtest_x8_x7>
     54c:	0000053c          	.word	0x0000053c
     550:	00009261          	.word	0x00009261
     554:	004e8e93          	addi	x29,x29,4

  mv x12, x29 # switch signature pointer register to avoid conflict with test
     558:	000e8613          	addi	x12,x29,0
# Testcase cp_rs1 (Test source rs1 = x29)
  RVTEST_TESTDATA_LOAD_INT(x30, x29) # load rs1: x29 = 0xa89b8fd2
     55c:	000f2e83          	lw	x29,0(x30)
     560:	004f0f13          	addi	x30,x30,4
  RVTEST_TESTDATA_LOAD_INT(x30, x14) # load rs2: x14 = 0xe63d0eb8
     564:	000f2703          	lw	x14,0(x30)
     568:	004f0f13          	addi	x30,x30,4

0000056c <I_sra_cg_cp_rs1_b29>:
I_sra_cg_cp_rs1_b29:
  sra x19, x29, x14 # perform operation
     56c:	40eed9b3          	sra	x19,x29,x14
  # Check if x19 contains the expected result. x12 is the signature ptr, x8 is the link ptr, x7 is a temp reg.
  RVTEST_SIGUPD(x12, x8, x7, x19, I_sra_cg_cp_rs1_b29, I_sra_cg_cp_rs1_b29_str)
     570:	00062383          	lw	x7,0(x12)
     574:	01338863          	beq	x7,x19,584 <I_sra_cg_cp_rs1_b29+0x18>
     578:	75d0346f          	jal	x8,44d4 <failedtest_x8_x7>
     57c:	0000056c          	.word	0x0000056c
     580:	00009290          	.word	0x00009290
     584:	00460613          	addi	x12,x12,4

  mv x28, x30 # switch data pointer register to avoid conflict with test
     588:	000f0e13          	addi	x28,x30,0
# Testcase cp_rs1 (Test source rs1 = x30)
  RVTEST_TESTDATA_LOAD_INT(x28, x30) # load rs1: x30 = 0x0c1600f2
     58c:	000e2f03          	lw	x30,0(x28)
     590:	004e0e13          	addi	x28,x28,4
  RVTEST_TESTDATA_LOAD_INT(x28, x11) # load rs2: x11 = 0xa24a1462
     594:	000e2583          	lw	x11,0(x28)
     598:	004e0e13          	addi	x28,x28,4

0000059c <I_sra_cg_cp_rs1_b30>:
I_sra_cg_cp_rs1_b30:
  sra x23, x30, x11 # perform operation
     59c:	40bf5bb3          	sra	x23,x30,x11
  # Check if x23 contains the expected result. x12 is the signature ptr, x8 is the link ptr, x7 is a temp reg.
  RVTEST_SIGUPD(x12, x8, x7, x23, I_sra_cg_cp_rs1_b30, I_sra_cg_cp_rs1_b30_str)
     5a0:	00062383          	lw	x7,0(x12)
     5a4:	01738863          	beq	x7,x23,5b4 <I_sra_cg_cp_rs1_b30+0x18>
     5a8:	72d0346f          	jal	x8,44d4 <failedtest_x8_x7>
     5ac:	0000059c          	.word	0x0000059c
     5b0:	000092bf          	.word	0x000092bf
     5b4:	00460613          	addi	x12,x12,4

# Testcase cp_rs1 (Test source rs1 = x31)
  RVTEST_TESTDATA_LOAD_INT(x28, x31) # load rs1: x31 = 0x3163c3e9
     5b8:	000e2f83          	lw	x31,0(x28)
     5bc:	004e0e13          	addi	x28,x28,4
  RVTEST_TESTDATA_LOAD_INT(x28, x19) # load rs2: x19 = 0x806cbdbc
     5c0:	000e2983          	lw	x19,0(x28)
     5c4:	004e0e13          	addi	x28,x28,4

000005c8 <I_sra_cg_cp_rs1_b31>:
I_sra_cg_cp_rs1_b31:
  sra x2, x31, x19 # perform operation
     5c8:	413fd133          	sra	x2,x31,x19
  # Check if x2 contains the expected result. x12 is the signature ptr, x8 is the link ptr, x7 is a temp reg.
  RVTEST_SIGUPD(x12, x8, x7, x2, I_sra_cg_cp_rs1_b31, I_sra_cg_cp_rs1_b31_str)
     5cc:	00062383          	lw	x7,0(x12)
     5d0:	00238863          	beq	x7,x2,5e0 <I_sra_cg_cp_rs1_b31+0x18>
     5d4:	7010346f          	jal	x8,44d4 <failedtest_x8_x7>
     5d8:	000005c8          	.word	0x000005c8
     5dc:	000092ee          	.word	0x000092ee
     5e0:	00460613          	addi	x12,x12,4
/////////////////////////////////
// cp_rs2
/////////////////////////////////

# Testcase cp_rs2 (Test source rs2 = x0)
  RVTEST_TESTDATA_LOAD_INT(x28, x26) # load rs1: x26 = 0xce21d93b
     5e4:	000e2d03          	lw	x26,0(x28)
     5e8:	004e0e13          	addi	x28,x28,4
  RVTEST_TESTDATA_LOAD_INT(x28, x0) # load rs2: x0 = 0x1a3fa9d6
     5ec:	000e2003          	lw	x0,0(x28)
     5f0:	004e0e13          	addi	x28,x28,4

000005f4 <I_sra_cg_cp_rs2_b0>:
I_sra_cg_cp_rs2_b0:
  sra x23, x26, x0 # perform operation
     5f4:	400d5bb3          	sra	x23,x26,x0
  # Check if x23 contains the expected result. x12 is the signature ptr, x8 is the link ptr, x7 is a temp reg.
  RVTEST_SIGUPD(x12, x8, x7, x23, I_sra_cg_cp_rs2_b0, I_sra_cg_cp_rs2_b0_str)
     5f8:	00062383          	lw	x7,0(x12)
     5fc:	01738863          	beq	x7,x23,60c <I_sra_cg_cp_rs2_b0+0x18>
     600:	6d50346f          	jal	x8,44d4 <failedtest_x8_x7>
     604:	000005f4          	.word	0x000005f4
     608:	0000931d          	.word	0x0000931d
     60c:	00460613          	addi	x12,x12,4

# Testcase cp_rs2 (Test source rs2 = x1)
  RVTEST_TESTDATA_LOAD_INT(x28, x2) # load rs1: x2 = 0x0358ddeb
     610:	000e2103          	lw	x2,0(x28)
     614:	004e0e13          	addi	x28,x28,4
  RVTEST_TESTDATA_LOAD_INT(x28, x1) # load rs2: x1 = 0x34dff5ba
     618:	000e2083          	lw	x1,0(x28)
     61c:	004e0e13          	addi	x28,x28,4

00000620 <I_sra_cg_cp_rs2_b1>:
I_sra_cg_cp_rs2_b1:
  sra x20, x2, x1 # perform operation
     620:	40115a33          	sra	x20,x2,x1
  # Check if x20 contains the expected result. x12 is the signature ptr, x8 is the link ptr, x7 is a temp reg.
  RVTEST_SIGUPD(x12, x8, x7, x20, I_sra_cg_cp_rs2_b1, I_sra_cg_cp_rs2_b1_str)
     624:	00062383          	lw	x7,0(x12)
     628:	01438863          	beq	x7,x20,638 <I_sra_cg_cp_rs2_b1+0x18>
     62c:	6a90346f          	jal	x8,44d4 <failedtest_x8_x7>
     630:	00000620          	.word	0x00000620
     634:	0000934b          	.word	0x0000934b
     638:	00460613          	addi	x12,x12,4

# Testcase cp_rs2 (Test source rs2 = x2)
  RVTEST_TESTDATA_LOAD_INT(x28, x11) # load rs1: x11 = 0xa05a1d52
     63c:	000e2583          	lw	x11,0(x28)
     640:	004e0e13          	addi	x28,x28,4
  RVTEST_TESTDATA_LOAD_INT(x28, x2) # load rs2: x2 = 0xc3df274a
     644:	000e2103          	lw	x2,0(x28)
     648:	004e0e13          	addi	x28,x28,4

0000064c <I_sra_cg_cp_rs2_b2>:
I_sra_cg_cp_rs2_b2:
  sra x30, x11, x2 # perform operation
     64c:	4025df33          	sra	x30,x11,x2
  # Check if x30 contains the expected result. x12 is the signature ptr, x8 is the link ptr, x7 is a temp reg.
  RVTEST_SIGUPD(x12, x8, x7, x30, I_sra_cg_cp_rs2_b2, I_sra_cg_cp_rs2_b2_str)
     650:	00062383          	lw	x7,0(x12)
     654:	01e38863          	beq	x7,x30,664 <I_sra_cg_cp_rs2_b2+0x18>
     658:	67d0346f          	jal	x8,44d4 <failedtest_x8_x7>
     65c:	0000064c          	.word	0x0000064c
     660:	00009379          	.word	0x00009379
     664:	00460613          	addi	x12,x12,4

# Testcase cp_rs2 (Test source rs2 = x3)
  RVTEST_TESTDATA_LOAD_INT(x28, x11) # load rs1: x11 = 0xc200aa04
     668:	000e2583          	lw	x11,0(x28)
     66c:	004e0e13          	addi	x28,x28,4
  RVTEST_TESTDATA_LOAD_INT(x28, x3) # load rs2: x3 = 0x81e97bcb
     670:	000e2183          	lw	x3,0(x28)
     674:	004e0e13          	addi	x28,x28,4

00000678 <I_sra_cg_cp_rs2_b3>:
I_sra_cg_cp_rs2_b3:
  sra x30, x11, x3 # perform operation
     678:	4035df33          	sra	x30,x11,x3
  # Check if x30 contains the expected result. x12 is the signature ptr, x8 is the link ptr, x7 is a temp reg.
  RVTEST_SIGUPD(x12, x8, x7, x30, I_sra_cg_cp_rs2_b3, I_sra_cg_cp_rs2_b3_str)
     67c:	00062383          	lw	x7,0(x12)
     680:	01e38863          	beq	x7,x30,690 <I_sra_cg_cp_rs2_b3+0x18>
     684:	6510346f          	jal	x8,44d4 <failedtest_x8_x7>
     688:	00000678          	.word	0x00000678
     68c:	000093a7          	.word	0x000093a7
     690:	00460613          	addi	x12,x12,4

# Testcase cp_rs2 (Test source rs2 = x4)
  RVTEST_TESTDATA_LOAD_INT(x28, x0) # load rs1: x0 = 0xe42a196e
     694:	000e2003          	lw	x0,0(x28)
     698:	004e0e13          	addi	x28,x28,4
  RVTEST_TESTDATA_LOAD_INT(x28, x4) # load rs2: x4 = 0xe922a4fd
     69c:	000e2203          	lw	x4,0(x28)
     6a0:	004e0e13          	addi	x28,x28,4

000006a4 <I_sra_cg_cp_rs2_b4>:
I_sra_cg_cp_rs2_b4:
  sra x23, x0, x4 # perform operation
     6a4:	40405bb3          	sra	x23,x0,x4
  # Check if x23 contains the expected result. x12 is the signature ptr, x8 is the link ptr, x7 is a temp reg.
  RVTEST_SIGUPD(x12, x8, x7, x23, I_sra_cg_cp_rs2_b4, I_sra_cg_cp_rs2_b4_str)
     6a8:	00062383          	lw	x7,0(x12)
     6ac:	01738863          	beq	x7,x23,6bc <I_sra_cg_cp_rs2_b4+0x18>
     6b0:	6250346f          	jal	x8,44d4 <failedtest_x8_x7>
     6b4:	000006a4          	.word	0x000006a4
     6b8:	000093d5          	.word	0x000093d5
     6bc:	00460613          	addi	x12,x12,4

# Testcase cp_rs2 (Test source rs2 = x5)
  RVTEST_TESTDATA_LOAD_INT(x28, x0) # load rs1: x0 = 0x1acfccc2
     6c0:	000e2003          	lw	x0,0(x28)
     6c4:	004e0e13          	addi	x28,x28,4
  RVTEST_TESTDATA_LOAD_INT(x28, x5) # load rs2: x5 = 0x944cea53
     6c8:	000e2283          	lw	x5,0(x28)
     6cc:	004e0e13          	addi	x28,x28,4

000006d0 <I_sra_cg_cp_rs2_b5>:
I_sra_cg_cp_rs2_b5:
  sra x31, x0, x5 # perform operation
     6d0:	40505fb3          	sra	x31,x0,x5
  # Check if x31 contains the expected result. x12 is the signature ptr, x8 is the link ptr, x7 is a temp reg.
  RVTEST_SIGUPD(x12, x8, x7, x31, I_sra_cg_cp_rs2_b5, I_sra_cg_cp_rs2_b5_str)
     6d4:	00062383          	lw	x7,0(x12)
     6d8:	01f38863          	beq	x7,x31,6e8 <I_sra_cg_cp_rs2_b5+0x18>
     6dc:	5f90346f          	jal	x8,44d4 <failedtest_x8_x7>
     6e0:	000006d0          	.word	0x000006d0
     6e4:	00009403          	.word	0x00009403
     6e8:	00460613          	addi	x12,x12,4

# Testcase cp_rs2 (Test source rs2 = x6)
  RVTEST_TESTDATA_LOAD_INT(x28, x18) # load rs1: x18 = 0x84e3be0b
     6ec:	000e2903          	lw	x18,0(x28)
     6f0:	004e0e13          	addi	x28,x28,4
  RVTEST_TESTDATA_LOAD_INT(x28, x6) # load rs2: x6 = 0x7c5db039
     6f4:	000e2303          	lw	x6,0(x28)
     6f8:	004e0e13          	addi	x28,x28,4

000006fc <I_sra_cg_cp_rs2_b6>:
I_sra_cg_cp_rs2_b6:
  sra x30, x18, x6 # perform operation
     6fc:	40695f33          	sra	x30,x18,x6
  # Check if x30 contains the expected result. x12 is the signature ptr, x8 is the link ptr, x7 is a temp reg.
  RVTEST_SIGUPD(x12, x8, x7, x30, I_sra_cg_cp_rs2_b6, I_sra_cg_cp_rs2_b6_str)
     700:	00062383          	lw	x7,0(x12)
     704:	01e38863          	beq	x7,x30,714 <I_sra_cg_cp_rs2_b6+0x18>
     708:	5cd0346f          	jal	x8,44d4 <failedtest_x8_x7>
     70c:	000006fc          	.word	0x000006fc
     710:	00009431          	.word	0x00009431
     714:	00460613          	addi	x12,x12,4

  mv x13, x7 # switch temp register to avoid conflict with test
     718:	00038693          	addi	x13,x7,0
  mv x14, x8 # switch link pointer register to avoid conflict with test
     71c:	00040713          	addi	x14,x8,0
# Testcase cp_rs2 (Test source rs2 = x7)
  RVTEST_TESTDATA_LOAD_INT(x28, x18) # load rs1: x18 = 0x62974b9f
     720:	000e2903          	lw	x18,0(x28)
     724:	004e0e13          	addi	x28,x28,4
  RVTEST_TESTDATA_LOAD_INT(x28, x7) # load rs2: x7 = 0x41afe950
     728:	000e2383          	lw	x7,0(x28)
     72c:	004e0e13          	addi	x28,x28,4

00000730 <I_sra_cg_cp_rs2_b7>:
I_sra_cg_cp_rs2_b7:
  sra x5, x18, x7 # perform operation
     730:	407952b3          	sra	x5,x18,x7
  # Check if x5 contains the expected result. x12 is the signature ptr, x14 is the link ptr, x13 is a temp reg.
  RVTEST_SIGUPD(x12, x14, x13, x5, I_sra_cg_cp_rs2_b7, I_sra_cg_cp_rs2_b7_str)
     734:	00062683          	lw	x13,0(x12)
     738:	00568863          	beq	x13,x5,748 <I_sra_cg_cp_rs2_b7+0x18>
     73c:	5c10376f          	jal	x14,44fc <failedtest_x14_x13>
     740:	00000730          	.word	0x00000730
     744:	0000945f          	.word	0x0000945f
     748:	00460613          	addi	x12,x12,4

# Testcase cp_rs2 (Test source rs2 = x8)
  RVTEST_TESTDATA_LOAD_INT(x28, x19) # load rs1: x19 = 0xe1087a3a
     74c:	000e2983          	lw	x19,0(x28)
     750:	004e0e13          	addi	x28,x28,4
  RVTEST_TESTDATA_LOAD_INT(x28, x8) # load rs2: x8 = 0xcef6b3ab
     754:	000e2403          	lw	x8,0(x28)
     758:	004e0e13          	addi	x28,x28,4

0000075c <I_sra_cg_cp_rs2_b8>:
I_sra_cg_cp_rs2_b8:
  sra x24, x19, x8 # perform operation
     75c:	4089dc33          	sra	x24,x19,x8
  # Check if x24 contains the expected result. x12 is the signature ptr, x14 is the link ptr, x13 is a temp reg.
  RVTEST_SIGUPD(x12, x14, x13, x24, I_sra_cg_cp_rs2_b8, I_sra_cg_cp_rs2_b8_str)
     760:	00062683          	lw	x13,0(x12)
     764:	01868863          	beq	x13,x24,774 <I_sra_cg_cp_rs2_b8+0x18>
     768:	5950376f          	jal	x14,44fc <failedtest_x14_x13>
     76c:	0000075c          	.word	0x0000075c
     770:	0000948d          	.word	0x0000948d
     774:	00460613          	addi	x12,x12,4

# Testcase cp_rs2 (Test source rs2 = x9)
  RVTEST_TESTDATA_LOAD_INT(x28, x4) # load rs1: x4 = 0x6316b5cd
     778:	000e2203          	lw	x4,0(x28)
     77c:	004e0e13          	addi	x28,x28,4
  RVTEST_TESTDATA_LOAD_INT(x28, x9) # load rs2: x9 = 0xdfb78292
     780:	000e2483          	lw	x9,0(x28)
     784:	004e0e13          	addi	x28,x28,4

00000788 <I_sra_cg_cp_rs2_b9>:
I_sra_cg_cp_rs2_b9:
  sra x18, x4, x9 # perform operation
     788:	40925933          	sra	x18,x4,x9
  # Check if x18 contains the expected result. x12 is the signature ptr, x14 is the link ptr, x13 is a temp reg.
  RVTEST_SIGUPD(x12, x14, x13, x18, I_sra_cg_cp_rs2_b9, I_sra_cg_cp_rs2_b9_str)
     78c:	00062683          	lw	x13,0(x12)
     790:	01268863          	beq	x13,x18,7a0 <I_sra_cg_cp_rs2_b9+0x18>
     794:	5690376f          	jal	x14,44fc <failedtest_x14_x13>
     798:	00000788          	.word	0x00000788
     79c:	000094bb          	.word	0x000094bb
     7a0:	00460613          	addi	x12,x12,4

# Testcase cp_rs2 (Test source rs2 = x10)
  RVTEST_TESTDATA_LOAD_INT(x28, x8) # load rs1: x8 = 0x888656ee
     7a4:	000e2403          	lw	x8,0(x28)
     7a8:	004e0e13          	addi	x28,x28,4
  RVTEST_TESTDATA_LOAD_INT(x28, x10) # load rs2: x10 = 0x1033fd50
     7ac:	000e2503          	lw	x10,0(x28)
     7b0:	004e0e13          	addi	x28,x28,4

000007b4 <I_sra_cg_cp_rs2_b10>:
I_sra_cg_cp_rs2_b10:
  sra x17, x8, x10 # perform operation
     7b4:	40a458b3          	sra	x17,x8,x10
  # Check if x17 contains the expected result. x12 is the signature ptr, x14 is the link ptr, x13 is a temp reg.
  RVTEST_SIGUPD(x12, x14, x13, x17, I_sra_cg_cp_rs2_b10, I_sra_cg_cp_rs2_b10_str)
     7b8:	00062683          	lw	x13,0(x12)
     7bc:	01168863          	beq	x13,x17,7cc <I_sra_cg_cp_rs2_b10+0x18>
     7c0:	53d0376f          	jal	x14,44fc <failedtest_x14_x13>
     7c4:	000007b4          	.word	0x000007b4
     7c8:	000094e9          	.word	0x000094e9
     7cc:	00460613          	addi	x12,x12,4

# Testcase cp_rs2 (Test source rs2 = x11)
  RVTEST_TESTDATA_LOAD_INT(x28, x7) # load rs1: x7 = 0xc58ef57d
     7d0:	000e2383          	lw	x7,0(x28)
     7d4:	004e0e13          	addi	x28,x28,4
  RVTEST_TESTDATA_LOAD_INT(x28, x11) # load rs2: x11 = 0x3ddc31ff
     7d8:	000e2583          	lw	x11,0(x28)
     7dc:	004e0e13          	addi	x28,x28,4

000007e0 <I_sra_cg_cp_rs2_b11>:
I_sra_cg_cp_rs2_b11:
  sra x15, x7, x11 # perform operation
     7e0:	40b3d7b3          	sra	x15,x7,x11
  # Check if x15 contains the expected result. x12 is the signature ptr, x14 is the link ptr, x13 is a temp reg.
  RVTEST_SIGUPD(x12, x14, x13, x15, I_sra_cg_cp_rs2_b11, I_sra_cg_cp_rs2_b11_str)
     7e4:	00062683          	lw	x13,0(x12)
     7e8:	00f68863          	beq	x13,x15,7f8 <I_sra_cg_cp_rs2_b11+0x18>
     7ec:	5110376f          	jal	x14,44fc <failedtest_x14_x13>
     7f0:	000007e0          	.word	0x000007e0
     7f4:	00009518          	.word	0x00009518
     7f8:	00460613          	addi	x12,x12,4

  mv x19, x12 # switch signature pointer register to avoid conflict with test
     7fc:	00060993          	addi	x19,x12,0
# Testcase cp_rs2 (Test source rs2 = x12)
  RVTEST_TESTDATA_LOAD_INT(x28, x6) # load rs1: x6 = 0x7538c082
     800:	000e2303          	lw	x6,0(x28)
     804:	004e0e13          	addi	x28,x28,4
  RVTEST_TESTDATA_LOAD_INT(x28, x12) # load rs2: x12 = 0x25ca5fc4
     808:	000e2603          	lw	x12,0(x28)
     80c:	004e0e13          	addi	x28,x28,4

00000810 <I_sra_cg_cp_rs2_b12>:
I_sra_cg_cp_rs2_b12:
  sra x8, x6, x12 # perform operation
     810:	40c35433          	sra	x8,x6,x12
  # Check if x8 contains the expected result. x19 is the signature ptr, x14 is the link ptr, x13 is a temp reg.
  RVTEST_SIGUPD(x19, x14, x13, x8, I_sra_cg_cp_rs2_b12, I_sra_cg_cp_rs2_b12_str)
     814:	0009a683          	lw	x13,0(x19)
     818:	00868863          	beq	x13,x8,828 <I_sra_cg_cp_rs2_b12+0x18>
     81c:	4e10376f          	jal	x14,44fc <failedtest_x14_x13>
     820:	00000810          	.word	0x00000810
     824:	00009547          	.word	0x00009547
     828:	00498993          	addi	x19,x19,4

  mv x7, x13 # switch temp register to avoid conflict with test
     82c:	00068393          	addi	x7,x13,0
  mv x8, x14 # switch link pointer register to avoid conflict with test
     830:	00070413          	addi	x8,x14,0
# Testcase cp_rs2 (Test source rs2 = x13)
  RVTEST_TESTDATA_LOAD_INT(x28, x14) # load rs1: x14 = 0xea240558
     834:	000e2703          	lw	x14,0(x28)
     838:	004e0e13          	addi	x28,x28,4
  RVTEST_TESTDATA_LOAD_INT(x28, x13) # load rs2: x13 = 0x25e0b6c9
     83c:	000e2683          	lw	x13,0(x28)
     840:	004e0e13          	addi	x28,x28,4

00000844 <I_sra_cg_cp_rs2_b13>:
I_sra_cg_cp_rs2_b13:
  sra x17, x14, x13 # perform operation
     844:	40d758b3          	sra	x17,x14,x13
  # Check if x17 contains the expected result. x19 is the signature ptr, x8 is the link ptr, x7 is a temp reg.
  RVTEST_SIGUPD(x19, x8, x7, x17, I_sra_cg_cp_rs2_b13, I_sra_cg_cp_rs2_b13_str)
     848:	0009a383          	lw	x7,0(x19)
     84c:	01138863          	beq	x7,x17,85c <I_sra_cg_cp_rs2_b13+0x18>
     850:	4850346f          	jal	x8,44d4 <failedtest_x8_x7>
     854:	00000844          	.word	0x00000844
     858:	00009576          	.word	0x00009576
     85c:	00498993          	addi	x19,x19,4

# Testcase cp_rs2 (Test source rs2 = x14)
  RVTEST_TESTDATA_LOAD_INT(x28, x2) # load rs1: x2 = 0x0597db68
     860:	000e2103          	lw	x2,0(x28)
     864:	004e0e13          	addi	x28,x28,4
  RVTEST_TESTDATA_LOAD_INT(x28, x14) # load rs2: x14 = 0xa6200cc6
     868:	000e2703          	lw	x14,0(x28)
     86c:	004e0e13          	addi	x28,x28,4

00000870 <I_sra_cg_cp_rs2_b14>:
I_sra_cg_cp_rs2_b14:
  sra x23, x2, x14 # perform operation
     870:	40e15bb3          	sra	x23,x2,x14
  # Check if x23 contains the expected result. x19 is the signature ptr, x8 is the link ptr, x7 is a temp reg.
  RVTEST_SIGUPD(x19, x8, x7, x23, I_sra_cg_cp_rs2_b14, I_sra_cg_cp_rs2_b14_str)
     874:	0009a383          	lw	x7,0(x19)
     878:	01738863          	beq	x7,x23,888 <I_sra_cg_cp_rs2_b14+0x18>
     87c:	4590346f          	jal	x8,44d4 <failedtest_x8_x7>
     880:	00000870          	.word	0x00000870
     884:	000095a5          	.word	0x000095a5
     888:	00498993          	addi	x19,x19,4

# Testcase cp_rs2 (Test source rs2 = x15)
  RVTEST_TESTDATA_LOAD_INT(x28, x3) # load rs1: x3 = 0x9330ef40
     88c:	000e2183          	lw	x3,0(x28)
     890:	004e0e13          	addi	x28,x28,4
  RVTEST_TESTDATA_LOAD_INT(x28, x15) # load rs2: x15 = 0x073460e1
     894:	000e2783          	lw	x15,0(x28)
     898:	004e0e13          	addi	x28,x28,4

0000089c <I_sra_cg_cp_rs2_b15>:
I_sra_cg_cp_rs2_b15:
  sra x27, x3, x15 # perform operation
     89c:	40f1ddb3          	sra	x27,x3,x15
  # Check if x27 contains the expected result. x19 is the signature ptr, x8 is the link ptr, x7 is a temp reg.
  RVTEST_SIGUPD(x19, x8, x7, x27, I_sra_cg_cp_rs2_b15, I_sra_cg_cp_rs2_b15_str)
     8a0:	0009a383          	lw	x7,0(x19)
     8a4:	01b38863          	beq	x7,x27,8b4 <I_sra_cg_cp_rs2_b15+0x18>
     8a8:	42d0346f          	jal	x8,44d4 <failedtest_x8_x7>
     8ac:	0000089c          	.word	0x0000089c
     8b0:	000095d4          	.word	0x000095d4
     8b4:	00498993          	addi	x19,x19,4

# Testcase cp_rs2 (Test source rs2 = x16)
  RVTEST_TESTDATA_LOAD_INT(x28, x17) # load rs1: x17 = 0x35aa83a3
     8b8:	000e2883          	lw	x17,0(x28)
     8bc:	004e0e13          	addi	x28,x28,4
  RVTEST_TESTDATA_LOAD_INT(x28, x16) # load rs2: x16 = 0x2e7fbc85
     8c0:	000e2803          	lw	x16,0(x28)
     8c4:	004e0e13          	addi	x28,x28,4

000008c8 <I_sra_cg_cp_rs2_b16>:
I_sra_cg_cp_rs2_b16:
  sra x30, x17, x16 # perform operation
     8c8:	4108df33          	sra	x30,x17,x16
  # Check if x30 contains the expected result. x19 is the signature ptr, x8 is the link ptr, x7 is a temp reg.
  RVTEST_SIGUPD(x19, x8, x7, x30, I_sra_cg_cp_rs2_b16, I_sra_cg_cp_rs2_b16_str)
     8cc:	0009a383          	lw	x7,0(x19)
     8d0:	01e38863          	beq	x7,x30,8e0 <I_sra_cg_cp_rs2_b16+0x18>
     8d4:	4010346f          	jal	x8,44d4 <failedtest_x8_x7>
     8d8:	000008c8          	.word	0x000008c8
     8dc:	00009603          	.word	0x00009603
     8e0:	00498993          	addi	x19,x19,4

# Testcase cp_rs2 (Test source rs2 = x17)
  RVTEST_TESTDATA_LOAD_INT(x28, x29) # load rs1: x29 = 0x4d9ba5c5
     8e4:	000e2e83          	lw	x29,0(x28)
     8e8:	004e0e13          	addi	x28,x28,4
  RVTEST_TESTDATA_LOAD_INT(x28, x17) # load rs2: x17 = 0x35075155
     8ec:	000e2883          	lw	x17,0(x28)
     8f0:	004e0e13          	addi	x28,x28,4

000008f4 <I_sra_cg_cp_rs2_b17>:
I_sra_cg_cp_rs2_b17:
  sra x4, x29, x17 # perform operation
     8f4:	411ed233          	sra	x4,x29,x17
  # Check if x4 contains the expected result. x19 is the signature ptr, x8 is the link ptr, x7 is a temp reg.
  RVTEST_SIGUPD(x19, x8, x7, x4, I_sra_cg_cp_rs2_b17, I_sra_cg_cp_rs2_b17_str)
     8f8:	0009a383          	lw	x7,0(x19)
     8fc:	00438863          	beq	x7,x4,90c <I_sra_cg_cp_rs2_b17+0x18>
     900:	3d50346f          	jal	x8,44d4 <failedtest_x8_x7>
     904:	000008f4          	.word	0x000008f4
     908:	00009632          	.word	0x00009632
     90c:	00498993          	addi	x19,x19,4

# Testcase cp_rs2 (Test source rs2 = x18)
  RVTEST_TESTDATA_LOAD_INT(x28, x5) # load rs1: x5 = 0x55900c93
     910:	000e2283          	lw	x5,0(x28)
     914:	004e0e13          	addi	x28,x28,4
  RVTEST_TESTDATA_LOAD_INT(x28, x18) # load rs2: x18 = 0x1ad7feb1
     918:	000e2903          	lw	x18,0(x28)
     91c:	004e0e13          	addi	x28,x28,4

00000920 <I_sra_cg_cp_rs2_b18>:
I_sra_cg_cp_rs2_b18:
  sra x25, x5, x18 # perform operation
     920:	4122dcb3          	sra	x25,x5,x18
  # Check if x25 contains the expected result. x19 is the signature ptr, x8 is the link ptr, x7 is a temp reg.
  RVTEST_SIGUPD(x19, x8, x7, x25, I_sra_cg_cp_rs2_b18, I_sra_cg_cp_rs2_b18_str)
     924:	0009a383          	lw	x7,0(x19)
     928:	01938863          	beq	x7,x25,938 <I_sra_cg_cp_rs2_b18+0x18>
     92c:	3a90346f          	jal	x8,44d4 <failedtest_x8_x7>
     930:	00000920          	.word	0x00000920
     934:	00009661          	.word	0x00009661
     938:	00498993          	addi	x19,x19,4

  mv x31, x19 # switch signature pointer register to avoid conflict with test
     93c:	00098f93          	addi	x31,x19,0
# Testcase cp_rs2 (Test source rs2 = x19)
  RVTEST_TESTDATA_LOAD_INT(x28, x25) # load rs1: x25 = 0x2d911aef
     940:	000e2c83          	lw	x25,0(x28)
     944:	004e0e13          	addi	x28,x28,4
  RVTEST_TESTDATA_LOAD_INT(x28, x19) # load rs2: x19 = 0x1a468601
     948:	000e2983          	lw	x19,0(x28)
     94c:	004e0e13          	addi	x28,x28,4

00000950 <I_sra_cg_cp_rs2_b19>:
I_sra_cg_cp_rs2_b19:
  sra x27, x25, x19 # perform operation
     950:	413cddb3          	sra	x27,x25,x19
  # Check if x27 contains the expected result. x31 is the signature ptr, x8 is the link ptr, x7 is a temp reg.
  RVTEST_SIGUPD(x31, x8, x7, x27, I_sra_cg_cp_rs2_b19, I_sra_cg_cp_rs2_b19_str)
     954:	000fa383          	lw	x7,0(x31)
     958:	01b38863          	beq	x7,x27,968 <I_sra_cg_cp_rs2_b19+0x18>
     95c:	3790346f          	jal	x8,44d4 <failedtest_x8_x7>
     960:	00000950          	.word	0x00000950
     964:	00009690          	.word	0x00009690
     968:	004f8f93          	addi	x31,x31,4

# Testcase cp_rs2 (Test source rs2 = x20)
  RVTEST_TESTDATA_LOAD_INT(x28, x26) # load rs1: x26 = 0x6234b015
     96c:	000e2d03          	lw	x26,0(x28)
     970:	004e0e13          	addi	x28,x28,4
  RVTEST_TESTDATA_LOAD_INT(x28, x20) # load rs2: x20 = 0x46e0fc2e
     974:	000e2a03          	lw	x20,0(x28)
     978:	004e0e13          	addi	x28,x28,4

0000097c <I_sra_cg_cp_rs2_b20>:
I_sra_cg_cp_rs2_b20:
  sra x18, x26, x20 # perform operation
     97c:	414d5933          	sra	x18,x26,x20
  # Check if x18 contains the expected result. x31 is the signature ptr, x8 is the link ptr, x7 is a temp reg.
  RVTEST_SIGUPD(x31, x8, x7, x18, I_sra_cg_cp_rs2_b20, I_sra_cg_cp_rs2_b20_str)
     980:	000fa383          	lw	x7,0(x31)
     984:	01238863          	beq	x7,x18,994 <I_sra_cg_cp_rs2_b20+0x18>
     988:	34d0346f          	jal	x8,44d4 <failedtest_x8_x7>
     98c:	0000097c          	.word	0x0000097c
     990:	000096bf          	.word	0x000096bf
     994:	004f8f93          	addi	x31,x31,4

# Testcase cp_rs2 (Test source rs2 = x21)
  RVTEST_TESTDATA_LOAD_INT(x28, x10) # load rs1: x10 = 0xedb511d7
     998:	000e2503          	lw	x10,0(x28)
     99c:	004e0e13          	addi	x28,x28,4
  RVTEST_TESTDATA_LOAD_INT(x28, x21) # load rs2: x21 = 0xb12df875
     9a0:	000e2a83          	lw	x21,0(x28)
     9a4:	004e0e13          	addi	x28,x28,4

000009a8 <I_sra_cg_cp_rs2_b21>:
I_sra_cg_cp_rs2_b21:
  sra x20, x10, x21 # perform operation
     9a8:	41555a33          	sra	x20,x10,x21
  # Check if x20 contains the expected result. x31 is the signature ptr, x8 is the link ptr, x7 is a temp reg.
  RVTEST_SIGUPD(x31, x8, x7, x20, I_sra_cg_cp_rs2_b21, I_sra_cg_cp_rs2_b21_str)
     9ac:	000fa383          	lw	x7,0(x31)
     9b0:	01438863          	beq	x7,x20,9c0 <I_sra_cg_cp_rs2_b21+0x18>
     9b4:	3210346f          	jal	x8,44d4 <failedtest_x8_x7>
     9b8:	000009a8          	.word	0x000009a8
     9bc:	000096ee          	.word	0x000096ee
     9c0:	004f8f93          	addi	x31,x31,4

# Testcase cp_rs2 (Test source rs2 = x22)
  RVTEST_TESTDATA_LOAD_INT(x28, x16) # load rs1: x16 = 0x5dbbf7c1
     9c4:	000e2803          	lw	x16,0(x28)
     9c8:	004e0e13          	addi	x28,x28,4
  RVTEST_TESTDATA_LOAD_INT(x28, x22) # load rs2: x22 = 0x00894741
     9cc:	000e2b03          	lw	x22,0(x28)
     9d0:	004e0e13          	addi	x28,x28,4

000009d4 <I_sra_cg_cp_rs2_b22>:
I_sra_cg_cp_rs2_b22:
  sra x29, x16, x22 # perform operation
     9d4:	41685eb3          	sra	x29,x16,x22
  # Check if x29 contains the expected result. x31 is the signature ptr, x8 is the link ptr, x7 is a temp reg.
  RVTEST_SIGUPD(x31, x8, x7, x29, I_sra_cg_cp_rs2_b22, I_sra_cg_cp_rs2_b22_str)
     9d8:	000fa383          	lw	x7,0(x31)
     9dc:	01d38863          	beq	x7,x29,9ec <I_sra_cg_cp_rs2_b22+0x18>
     9e0:	2f50346f          	jal	x8,44d4 <failedtest_x8_x7>
     9e4:	000009d4          	.word	0x000009d4
     9e8:	0000971d          	.word	0x0000971d
     9ec:	004f8f93          	addi	x31,x31,4

# Testcase cp_rs2 (Test source rs2 = x23)
  RVTEST_TESTDATA_LOAD_INT(x28, x30) # load rs1: x30 = 0xfac2d29f
     9f0:	000e2f03          	lw	x30,0(x28)
     9f4:	004e0e13          	addi	x28,x28,4
  RVTEST_TESTDATA_LOAD_INT(x28, x23) # load rs2: x23 = 0xfaa123df
     9f8:	000e2b83          	lw	x23,0(x28)
     9fc:	004e0e13          	addi	x28,x28,4

00000a00 <I_sra_cg_cp_rs2_b23>:
I_sra_cg_cp_rs2_b23:
  sra x12, x30, x23 # perform operation
     a00:	417f5633          	sra	x12,x30,x23
  # Check if x12 contains the expected result. x31 is the signature ptr, x8 is the link ptr, x7 is a temp reg.
  RVTEST_SIGUPD(x31, x8, x7, x12, I_sra_cg_cp_rs2_b23, I_sra_cg_cp_rs2_b23_str)
     a04:	000fa383          	lw	x7,0(x31)
     a08:	00c38863          	beq	x7,x12,a18 <I_sra_cg_cp_rs2_b23+0x18>
     a0c:	2c90346f          	jal	x8,44d4 <failedtest_x8_x7>
     a10:	00000a00          	.word	0x00000a00
     a14:	0000974c          	.word	0x0000974c
     a18:	004f8f93          	addi	x31,x31,4

# Testcase cp_rs2 (Test source rs2 = x24)
  RVTEST_TESTDATA_LOAD_INT(x28, x4) # load rs1: x4 = 0x9d743a14
     a1c:	000e2203          	lw	x4,0(x28)
     a20:	004e0e13          	addi	x28,x28,4
  RVTEST_TESTDATA_LOAD_INT(x28, x24) # load rs2: x24 = 0xc484a37f
     a24:	000e2c03          	lw	x24,0(x28)
     a28:	004e0e13          	addi	x28,x28,4

00000a2c <I_sra_cg_cp_rs2_b24>:
I_sra_cg_cp_rs2_b24:
  sra x21, x4, x24 # perform operation
     a2c:	41825ab3          	sra	x21,x4,x24
  # Check if x21 contains the expected result. x31 is the signature ptr, x8 is the link ptr, x7 is a temp reg.
  RVTEST_SIGUPD(x31, x8, x7, x21, I_sra_cg_cp_rs2_b24, I_sra_cg_cp_rs2_b24_str)
     a30:	000fa383          	lw	x7,0(x31)
     a34:	01538863          	beq	x7,x21,a44 <I_sra_cg_cp_rs2_b24+0x18>
     a38:	29d0346f          	jal	x8,44d4 <failedtest_x8_x7>
     a3c:	00000a2c          	.word	0x00000a2c
     a40:	0000977b          	.word	0x0000977b
     a44:	004f8f93          	addi	x31,x31,4

# Testcase cp_rs2 (Test source rs2 = x25)
  RVTEST_TESTDATA_LOAD_INT(x28, x3) # load rs1: x3 = 0xbd3c0637
     a48:	000e2183          	lw	x3,0(x28)
     a4c:	004e0e13          	addi	x28,x28,4
  RVTEST_TESTDATA_LOAD_INT(x28, x25) # load rs2: x25 = 0x10854cb3
     a50:	000e2c83          	lw	x25,0(x28)
     a54:	004e0e13          	addi	x28,x28,4

00000a58 <I_sra_cg_cp_rs2_b25>:
I_sra_cg_cp_rs2_b25:
  sra x21, x3, x25 # perform operation
     a58:	4191dab3          	sra	x21,x3,x25
  # Check if x21 contains the expected result. x31 is the signature ptr, x8 is the link ptr, x7 is a temp reg.
  RVTEST_SIGUPD(x31, x8, x7, x21, I_sra_cg_cp_rs2_b25, I_sra_cg_cp_rs2_b25_str)
     a5c:	000fa383          	lw	x7,0(x31)
     a60:	01538863          	beq	x7,x21,a70 <I_sra_cg_cp_rs2_b25+0x18>
     a64:	2710346f          	jal	x8,44d4 <failedtest_x8_x7>
     a68:	00000a58          	.word	0x00000a58
     a6c:	000097aa          	.word	0x000097aa
     a70:	004f8f93          	addi	x31,x31,4

# Testcase cp_rs2 (Test source rs2 = x26)
  RVTEST_TESTDATA_LOAD_INT(x28, x21) # load rs1: x21 = 0xcf2c14cb
     a74:	000e2a83          	lw	x21,0(x28)
     a78:	004e0e13          	addi	x28,x28,4
  RVTEST_TESTDATA_LOAD_INT(x28, x26) # load rs2: x26 = 0x422356c2
     a7c:	000e2d03          	lw	x26,0(x28)
     a80:	004e0e13          	addi	x28,x28,4

00000a84 <I_sra_cg_cp_rs2_b26>:
I_sra_cg_cp_rs2_b26:
  sra x0, x21, x26 # perform operation
     a84:	41aad033          	sra	x0,x21,x26
  # Check if x0 contains the expected result. x31 is the signature ptr, x8 is the link ptr, x7 is a temp reg.
  RVTEST_SIGUPD(x31, x8, x7, x0, I_sra_cg_cp_rs2_b26, I_sra_cg_cp_rs2_b26_str)
     a88:	000fa383          	lw	x7,0(x31)
     a8c:	00038863          	beq	x7,x0,a9c <I_sra_cg_cp_rs2_b26+0x18>
     a90:	2450346f          	jal	x8,44d4 <failedtest_x8_x7>
     a94:	00000a84          	.word	0x00000a84
     a98:	000097d9          	.word	0x000097d9
     a9c:	004f8f93          	addi	x31,x31,4

# Testcase cp_rs2 (Test source rs2 = x27)
  RVTEST_TESTDATA_LOAD_INT(x28, x22) # load rs1: x22 = 0xb8a563df
     aa0:	000e2b03          	lw	x22,0(x28)
     aa4:	004e0e13          	addi	x28,x28,4
  RVTEST_TESTDATA_LOAD_INT(x28, x27) # load rs2: x27 = 0xd05ccc3f
     aa8:	000e2d83          	lw	x27,0(x28)
     aac:	004e0e13          	addi	x28,x28,4

00000ab0 <I_sra_cg_cp_rs2_b27>:
I_sra_cg_cp_rs2_b27:
  sra x2, x22, x27 # perform operation
     ab0:	41bb5133          	sra	x2,x22,x27
  # Check if x2 contains the expected result. x31 is the signature ptr, x8 is the link ptr, x7 is a temp reg.
  RVTEST_SIGUPD(x31, x8, x7, x2, I_sra_cg_cp_rs2_b27, I_sra_cg_cp_rs2_b27_str)
     ab4:	000fa383          	lw	x7,0(x31)
     ab8:	00238863          	beq	x7,x2,ac8 <I_sra_cg_cp_rs2_b27+0x18>
     abc:	2190346f          	jal	x8,44d4 <failedtest_x8_x7>
     ac0:	00000ab0          	.word	0x00000ab0
     ac4:	00009808          	.word	0x00009808
     ac8:	004f8f93          	addi	x31,x31,4

  mv x6, x28 # switch data pointer register to avoid conflict with test
     acc:	000e0313          	addi	x6,x28,0
# Testcase cp_rs2 (Test source rs2 = x28)
  RVTEST_TESTDATA_LOAD_INT(x6, x24) # load rs1: x24 = 0xf12dcbc5
     ad0:	00032c03          	lw	x24,0(x6)
     ad4:	00430313          	addi	x6,x6,4
  RVTEST_TESTDATA_LOAD_INT(x6, x28) # load rs2: x28 = 0x4c85f5cd
     ad8:	00032e03          	lw	x28,0(x6)
     adc:	00430313          	addi	x6,x6,4

00000ae0 <I_sra_cg_cp_rs2_b28>:
I_sra_cg_cp_rs2_b28:
  sra x13, x24, x28 # perform operation
     ae0:	41cc56b3          	sra	x13,x24,x28
  # Check if x13 contains the expected result. x31 is the signature ptr, x8 is the link ptr, x7 is a temp reg.
  RVTEST_SIGUPD(x31, x8, x7, x13, I_sra_cg_cp_rs2_b28, I_sra_cg_cp_rs2_b28_str)
     ae4:	000fa383          	lw	x7,0(x31)
     ae8:	00d38863          	beq	x7,x13,af8 <I_sra_cg_cp_rs2_b28+0x18>
     aec:	1e90346f          	jal	x8,44d4 <failedtest_x8_x7>
     af0:	00000ae0          	.word	0x00000ae0
     af4:	00009837          	.word	0x00009837
     af8:	004f8f93          	addi	x31,x31,4

# Testcase cp_rs2 (Test source rs2 = x29)
  RVTEST_TESTDATA_LOAD_INT(x6, x26) # load rs1: x26 = 0x95743a42
     afc:	00032d03          	lw	x26,0(x6)
     b00:	00430313          	addi	x6,x6,4
  RVTEST_TESTDATA_LOAD_INT(x6, x29) # load rs2: x29 = 0x76082dbc
     b04:	00032e83          	lw	x29,0(x6)
     b08:	00430313          	addi	x6,x6,4

00000b0c <I_sra_cg_cp_rs2_b29>:
I_sra_cg_cp_rs2_b29:
  sra x15, x26, x29 # perform operation
     b0c:	41dd57b3          	sra	x15,x26,x29
  # Check if x15 contains the expected result. x31 is the signature ptr, x8 is the link ptr, x7 is a temp reg.
  RVTEST_SIGUPD(x31, x8, x7, x15, I_sra_cg_cp_rs2_b29, I_sra_cg_cp_rs2_b29_str)
     b10:	000fa383          	lw	x7,0(x31)
     b14:	00f38863          	beq	x7,x15,b24 <I_sra_cg_cp_rs2_b29+0x18>
     b18:	1bd0346f          	jal	x8,44d4 <failedtest_x8_x7>
     b1c:	00000b0c          	.word	0x00000b0c
     b20:	00009866          	.word	0x00009866
     b24:	004f8f93          	addi	x31,x31,4

# Testcase cp_rs2 (Test source rs2 = x30)
  RVTEST_TESTDATA_LOAD_INT(x6, x13) # load rs1: x13 = 0xe75ce2ce
     b28:	00032683          	lw	x13,0(x6)
     b2c:	00430313          	addi	x6,x6,4
  RVTEST_TESTDATA_LOAD_INT(x6, x30) # load rs2: x30 = 0x6a19fd59
     b30:	00032f03          	lw	x30,0(x6)
     b34:	00430313          	addi	x6,x6,4

00000b38 <I_sra_cg_cp_rs2_b30>:
I_sra_cg_cp_rs2_b30:
  sra x22, x13, x30 # perform operation
     b38:	41e6db33          	sra	x22,x13,x30
  # Check if x22 contains the expected result. x31 is the signature ptr, x8 is the link ptr, x7 is a temp reg.
  RVTEST_SIGUPD(x31, x8, x7, x22, I_sra_cg_cp_rs2_b30, I_sra_cg_cp_rs2_b30_str)
     b3c:	000fa383          	lw	x7,0(x31)
     b40:	01638863          	beq	x7,x22,b50 <I_sra_cg_cp_rs2_b30+0x18>
     b44:	1910346f          	jal	x8,44d4 <failedtest_x8_x7>
     b48:	00000b38          	.word	0x00000b38
     b4c:	00009895          	.word	0x00009895
     b50:	004f8f93          	addi	x31,x31,4

  mv x15, x31 # switch signature pointer register to avoid conflict with test
     b54:	000f8793          	addi	x15,x31,0
# Testcase cp_rs2 (Test source rs2 = x31)
  RVTEST_TESTDATA_LOAD_INT(x6, x18) # load rs1: x18 = 0xd438f889
     b58:	00032903          	lw	x18,0(x6)
     b5c:	00430313          	addi	x6,x6,4
  RVTEST_TESTDATA_LOAD_INT(x6, x31) # load rs2: x31 = 0x693fb52c
     b60:	00032f83          	lw	x31,0(x6)
     b64:	00430313          	addi	x6,x6,4

00000b68 <I_sra_cg_cp_rs2_b31>:
I_sra_cg_cp_rs2_b31:
  sra x12, x18, x31 # perform operation
     b68:	41f95633          	sra	x12,x18,x31
  # Check if x12 contains the expected result. x15 is the signature ptr, x8 is the link ptr, x7 is a temp reg.
  RVTEST_SIGUPD(x15, x8, x7, x12, I_sra_cg_cp_rs2_b31, I_sra_cg_cp_rs2_b31_str)
     b6c:	0007a383          	lw	x7,0(x15)
     b70:	00c38863          	beq	x7,x12,b80 <I_sra_cg_cp_rs2_b31+0x18>
     b74:	1610346f          	jal	x8,44d4 <failedtest_x8_x7>
     b78:	00000b68          	.word	0x00000b68
     b7c:	000098c4          	.word	0x000098c4
     b80:	00478793          	addi	x15,x15,4
/////////////////////////////////
// cp_rd
/////////////////////////////////

# Testcase cp_rd (Test destination rd = x0)
  RVTEST_TESTDATA_LOAD_INT(x6, x10) # load rs1: x10 = 0xd6b7d5cf
     b84:	00032503          	lw	x10,0(x6)
     b88:	00430313          	addi	x6,x6,4
  RVTEST_TESTDATA_LOAD_INT(x6, x24) # load rs2: x24 = 0x5b873d62
     b8c:	00032c03          	lw	x24,0(x6)
     b90:	00430313          	addi	x6,x6,4

00000b94 <I_sra_cg_cp_rd_b0>:
I_sra_cg_cp_rd_b0:
  sra x0, x10, x24 # perform operation
     b94:	41855033          	sra	x0,x10,x24
  # Check if x0 contains the expected result. x15 is the signature ptr, x8 is the link ptr, x7 is a temp reg.
  RVTEST_SIGUPD(x15, x8, x7, x0, I_sra_cg_cp_rd_b0, I_sra_cg_cp_rd_b0_str)
     b98:	0007a383          	lw	x7,0(x15)
     b9c:	00038863          	beq	x7,x0,bac <I_sra_cg_cp_rd_b0+0x18>
     ba0:	1350346f          	jal	x8,44d4 <failedtest_x8_x7>
     ba4:	00000b94          	.word	0x00000b94
     ba8:	000098f3          	.word	0x000098f3
     bac:	00478793          	addi	x15,x15,4

# Testcase cp_rd (Test destination rd = x1)
  RVTEST_TESTDATA_LOAD_INT(x6, x21) # load rs1: x21 = 0xd9815d7e
     bb0:	00032a83          	lw	x21,0(x6)
     bb4:	00430313          	addi	x6,x6,4
  RVTEST_TESTDATA_LOAD_INT(x6, x22) # load rs2: x22 = 0x7d44bcfb
     bb8:	00032b03          	lw	x22,0(x6)
     bbc:	00430313          	addi	x6,x6,4

00000bc0 <I_sra_cg_cp_rd_b1>:
I_sra_cg_cp_rd_b1:
  sra x1, x21, x22 # perform operation
     bc0:	416ad0b3          	sra	x1,x21,x22
  # Check if x1 contains the expected result. x15 is the signature ptr, x8 is the link ptr, x7 is a temp reg.
  RVTEST_SIGUPD(x15, x8, x7, x1, I_sra_cg_cp_rd_b1, I_sra_cg_cp_rd_b1_str)
     bc4:	0007a383          	lw	x7,0(x15)
     bc8:	00138863          	beq	x7,x1,bd8 <I_sra_cg_cp_rd_b1+0x18>
     bcc:	1090346f          	jal	x8,44d4 <failedtest_x8_x7>
     bd0:	00000bc0          	.word	0x00000bc0
     bd4:	00009920          	.word	0x00009920
     bd8:	00478793          	addi	x15,x15,4

# Testcase cp_rd (Test destination rd = x2)
  RVTEST_TESTDATA_LOAD_INT(x6, x13) # load rs1: x13 = 0x7a57a468
     bdc:	00032683          	lw	x13,0(x6)
     be0:	00430313          	addi	x6,x6,4
  RVTEST_TESTDATA_LOAD_INT(x6, x14) # load rs2: x14 = 0x4622f74f
     be4:	00032703          	lw	x14,0(x6)
     be8:	00430313          	addi	x6,x6,4

00000bec <I_sra_cg_cp_rd_b2>:
I_sra_cg_cp_rd_b2:
  sra x2, x13, x14 # perform operation
     bec:	40e6d133          	sra	x2,x13,x14
  # Check if x2 contains the expected result. x15 is the signature ptr, x8 is the link ptr, x7 is a temp reg.
  RVTEST_SIGUPD(x15, x8, x7, x2, I_sra_cg_cp_rd_b2, I_sra_cg_cp_rd_b2_str)
     bf0:	0007a383          	lw	x7,0(x15)
     bf4:	00238863          	beq	x7,x2,c04 <I_sra_cg_cp_rd_b2+0x18>
     bf8:	0dd0346f          	jal	x8,44d4 <failedtest_x8_x7>
     bfc:	00000bec          	.word	0x00000bec
     c00:	0000994d          	.word	0x0000994d
     c04:	00478793          	addi	x15,x15,4

# Testcase cp_rd (Test destination rd = x3)
  RVTEST_TESTDATA_LOAD_INT(x6, x27) # load rs1: x27 = 0x177507b7
     c08:	00032d83          	lw	x27,0(x6)
     c0c:	00430313          	addi	x6,x6,4
  RVTEST_TESTDATA_LOAD_INT(x6, x20) # load rs2: x20 = 0x25c3bf5a
     c10:	00032a03          	lw	x20,0(x6)
     c14:	00430313          	addi	x6,x6,4

00000c18 <I_sra_cg_cp_rd_b3>:
I_sra_cg_cp_rd_b3:
  sra x3, x27, x20 # perform operation
     c18:	414dd1b3          	sra	x3,x27,x20
  # Check if x3 contains the expected result. x15 is the signature ptr, x8 is the link ptr, x7 is a temp reg.
  RVTEST_SIGUPD(x15, x8, x7, x3, I_sra_cg_cp_rd_b3, I_sra_cg_cp_rd_b3_str)
     c1c:	0007a383          	lw	x7,0(x15)
     c20:	00338863          	beq	x7,x3,c30 <I_sra_cg_cp_rd_b3+0x18>
     c24:	0b10346f          	jal	x8,44d4 <failedtest_x8_x7>
     c28:	00000c18          	.word	0x00000c18
     c2c:	0000997a          	.word	0x0000997a
     c30:	00478793          	addi	x15,x15,4

# Testcase cp_rd (Test destination rd = x4)
  RVTEST_TESTDATA_LOAD_INT(x6, x18) # load rs1: x18 = 0x285f6b3a
     c34:	00032903          	lw	x18,0(x6)
     c38:	00430313          	addi	x6,x6,4
  RVTEST_TESTDATA_LOAD_INT(x6, x31) # load rs2: x31 = 0xbd72a4f2
     c3c:	00032f83          	lw	x31,0(x6)
     c40:	00430313          	addi	x6,x6,4

00000c44 <I_sra_cg_cp_rd_b4>:
I_sra_cg_cp_rd_b4:
  sra x4, x18, x31 # perform operation
     c44:	41f95233          	sra	x4,x18,x31
  # Check if x4 contains the expected result. x15 is the signature ptr, x8 is the link ptr, x7 is a temp reg.
  RVTEST_SIGUPD(x15, x8, x7, x4, I_sra_cg_cp_rd_b4, I_sra_cg_cp_rd_b4_str)
     c48:	0007a383          	lw	x7,0(x15)
     c4c:	00438863          	beq	x7,x4,c5c <I_sra_cg_cp_rd_b4+0x18>
     c50:	0850346f          	jal	x8,44d4 <failedtest_x8_x7>
     c54:	00000c44          	.word	0x00000c44
     c58:	000099a7          	.word	0x000099a7
     c5c:	00478793          	addi	x15,x15,4

# Testcase cp_rd (Test destination rd = x5)
  RVTEST_TESTDATA_LOAD_INT(x6, x27) # load rs1: x27 = 0x2d6aba95
     c60:	00032d83          	lw	x27,0(x6)
     c64:	00430313          	addi	x6,x6,4
  RVTEST_TESTDATA_LOAD_INT(x6, x23) # load rs2: x23 = 0x5a412038
     c68:	00032b83          	lw	x23,0(x6)
     c6c:	00430313          	addi	x6,x6,4

00000c70 <I_sra_cg_cp_rd_b5>:
I_sra_cg_cp_rd_b5:
  sra x5, x27, x23 # perform operation
     c70:	417dd2b3          	sra	x5,x27,x23
  # Check if x5 contains the expected result. x15 is the signature ptr, x8 is the link ptr, x7 is a temp reg.
  RVTEST_SIGUPD(x15, x8, x7, x5, I_sra_cg_cp_rd_b5, I_sra_cg_cp_rd_b5_str)
     c74:	0007a383          	lw	x7,0(x15)
     c78:	00538863          	beq	x7,x5,c88 <I_sra_cg_cp_rd_b5+0x18>
     c7c:	0590346f          	jal	x8,44d4 <failedtest_x8_x7>
     c80:	00000c70          	.word	0x00000c70
     c84:	000099d4          	.word	0x000099d4
     c88:	00478793          	addi	x15,x15,4

  mv x22, x6 # switch data pointer register to avoid conflict with test
     c8c:	00030b13          	addi	x22,x6,0
# Testcase cp_rd (Test destination rd = x6)
  RVTEST_TESTDATA_LOAD_INT(x22, x25) # load rs1: x25 = 0x67c4d711
     c90:	000b2c83          	lw	x25,0(x22)
     c94:	004b0b13          	addi	x22,x22,4
  RVTEST_TESTDATA_LOAD_INT(x22, x30) # load rs2: x30 = 0x8eea35ab
     c98:	000b2f03          	lw	x30,0(x22)
     c9c:	004b0b13          	addi	x22,x22,4

00000ca0 <I_sra_cg_cp_rd_b6>:
I_sra_cg_cp_rd_b6:
  sra x6, x25, x30 # perform operation
     ca0:	41ecd333          	sra	x6,x25,x30
  # Check if x6 contains the expected result. x15 is the signature ptr, x8 is the link ptr, x7 is a temp reg.
  RVTEST_SIGUPD(x15, x8, x7, x6, I_sra_cg_cp_rd_b6, I_sra_cg_cp_rd_b6_str)
     ca4:	0007a383          	lw	x7,0(x15)
     ca8:	00638863          	beq	x7,x6,cb8 <I_sra_cg_cp_rd_b6+0x18>
     cac:	0290346f          	jal	x8,44d4 <failedtest_x8_x7>
     cb0:	00000ca0          	.word	0x00000ca0
     cb4:	00009a01          	.word	0x00009a01
     cb8:	00478793          	addi	x15,x15,4

  mv x4, x7 # switch temp register to avoid conflict with test
     cbc:	00038213          	addi	x4,x7,0
  mv x5, x8 # switch link pointer register to avoid conflict with test
     cc0:	00040293          	addi	x5,x8,0
# Testcase cp_rd (Test destination rd = x7)
  RVTEST_TESTDATA_LOAD_INT(x22, x12) # load rs1: x12 = 0x08db5472
     cc4:	000b2603          	lw	x12,0(x22)
     cc8:	004b0b13          	addi	x22,x22,4
  RVTEST_TESTDATA_LOAD_INT(x22, x27) # load rs2: x27 = 0x25c5ace9
     ccc:	000b2d83          	lw	x27,0(x22)
     cd0:	004b0b13          	addi	x22,x22,4

00000cd4 <I_sra_cg_cp_rd_b7>:
I_sra_cg_cp_rd_b7:
  sra x7, x12, x27 # perform operation
     cd4:	41b653b3          	sra	x7,x12,x27
  # Check if x7 contains the expected result. x15 is the signature ptr, x5 is the link ptr, x4 is a temp reg.
  RVTEST_SIGUPD(x15, x5, x4, x7, I_sra_cg_cp_rd_b7, I_sra_cg_cp_rd_b7_str)
     cd8:	0007a203          	lw	x4,0(x15)
     cdc:	00720863          	beq	x4,x7,cec <I_sra_cg_cp_rd_b7+0x18>
     ce0:	7dc032ef          	jal	x5,44bc <failedtest_x5_x4>
     ce4:	00000cd4          	.word	0x00000cd4
     ce8:	00009a2e          	.word	0x00009a2e
     cec:	00478793          	addi	x15,x15,4

# Testcase cp_rd (Test destination rd = x8)
  RVTEST_TESTDATA_LOAD_INT(x22, x21) # load rs1: x21 = 0x7a7f81d9
     cf0:	000b2a83          	lw	x21,0(x22)
     cf4:	004b0b13          	addi	x22,x22,4
  RVTEST_TESTDATA_LOAD_INT(x22, x11) # load rs2: x11 = 0xef7ef41e
     cf8:	000b2583          	lw	x11,0(x22)
     cfc:	004b0b13          	addi	x22,x22,4

00000d00 <I_sra_cg_cp_rd_b8>:
I_sra_cg_cp_rd_b8:
  sra x8, x21, x11 # perform operation
     d00:	40bad433          	sra	x8,x21,x11
  # Check if x8 contains the expected result. x15 is the signature ptr, x5 is the link ptr, x4 is a temp reg.
  RVTEST_SIGUPD(x15, x5, x4, x8, I_sra_cg_cp_rd_b8, I_sra_cg_cp_rd_b8_str)
     d04:	0007a203          	lw	x4,0(x15)
     d08:	00820863          	beq	x4,x8,d18 <I_sra_cg_cp_rd_b8+0x18>
     d0c:	7b0032ef          	jal	x5,44bc <failedtest_x5_x4>
     d10:	00000d00          	.word	0x00000d00
     d14:	00009a5b          	.word	0x00009a5b
     d18:	00478793          	addi	x15,x15,4

# Testcase cp_rd (Test destination rd = x9)
  RVTEST_TESTDATA_LOAD_INT(x22, x21) # load rs1: x21 = 0x538e2793
     d1c:	000b2a83          	lw	x21,0(x22)
     d20:	004b0b13          	addi	x22,x22,4
  RVTEST_TESTDATA_LOAD_INT(x22, x23) # load rs2: x23 = 0x845fab80
     d24:	000b2b83          	lw	x23,0(x22)
     d28:	004b0b13          	addi	x22,x22,4

00000d2c <I_sra_cg_cp_rd_b9>:
I_sra_cg_cp_rd_b9:
  sra x9, x21, x23 # perform operation
     d2c:	417ad4b3          	sra	x9,x21,x23
  # Check if x9 contains the expected result. x15 is the signature ptr, x5 is the link ptr, x4 is a temp reg.
  RVTEST_SIGUPD(x15, x5, x4, x9, I_sra_cg_cp_rd_b9, I_sra_cg_cp_rd_b9_str)
     d30:	0007a203          	lw	x4,0(x15)
     d34:	00920863          	beq	x4,x9,d44 <I_sra_cg_cp_rd_b9+0x18>
     d38:	784032ef          	jal	x5,44bc <failedtest_x5_x4>
     d3c:	00000d2c          	.word	0x00000d2c
     d40:	00009a88          	.word	0x00009a88
     d44:	00478793          	addi	x15,x15,4

# Testcase cp_rd (Test destination rd = x10)
  RVTEST_TESTDATA_LOAD_INT(x22, x19) # load rs1: x19 = 0x0eed6f27
     d48:	000b2983          	lw	x19,0(x22)
     d4c:	004b0b13          	addi	x22,x22,4
  RVTEST_TESTDATA_LOAD_INT(x22, x21) # load rs2: x21 = 0x756bcef5
     d50:	000b2a83          	lw	x21,0(x22)
     d54:	004b0b13          	addi	x22,x22,4

00000d58 <I_sra_cg_cp_rd_b10>:
I_sra_cg_cp_rd_b10:
  sra x10, x19, x21 # perform operation
     d58:	4159d533          	sra	x10,x19,x21
  # Check if x10 contains the expected result. x15 is the signature ptr, x5 is the link ptr, x4 is a temp reg.
  RVTEST_SIGUPD(x15, x5, x4, x10, I_sra_cg_cp_rd_b10, I_sra_cg_cp_rd_b10_str)
     d5c:	0007a203          	lw	x4,0(x15)
     d60:	00a20863          	beq	x4,x10,d70 <I_sra_cg_cp_rd_b10+0x18>
     d64:	758032ef          	jal	x5,44bc <failedtest_x5_x4>
     d68:	00000d58          	.word	0x00000d58
     d6c:	00009ab5          	.word	0x00009ab5
     d70:	00478793          	addi	x15,x15,4

# Testcase cp_rd (Test destination rd = x11)
  RVTEST_TESTDATA_LOAD_INT(x22, x14) # load rs1: x14 = 0xffc7407e
     d74:	000b2703          	lw	x14,0(x22)
     d78:	004b0b13          	addi	x22,x22,4
  RVTEST_TESTDATA_LOAD_INT(x22, x29) # load rs2: x29 = 0x77a28e82
     d7c:	000b2e83          	lw	x29,0(x22)
     d80:	004b0b13          	addi	x22,x22,4

00000d84 <I_sra_cg_cp_rd_b11>:
I_sra_cg_cp_rd_b11:
  sra x11, x14, x29 # perform operation
     d84:	41d755b3          	sra	x11,x14,x29
  # Check if x11 contains the expected result. x15 is the signature ptr, x5 is the link ptr, x4 is a temp reg.
  RVTEST_SIGUPD(x15, x5, x4, x11, I_sra_cg_cp_rd_b11, I_sra_cg_cp_rd_b11_str)
     d88:	0007a203          	lw	x4,0(x15)
     d8c:	00b20863          	beq	x4,x11,d9c <I_sra_cg_cp_rd_b11+0x18>
     d90:	72c032ef          	jal	x5,44bc <failedtest_x5_x4>
     d94:	00000d84          	.word	0x00000d84
     d98:	00009ae3          	.word	0x00009ae3
     d9c:	00478793          	addi	x15,x15,4

# Testcase cp_rd (Test destination rd = x12)
  RVTEST_TESTDATA_LOAD_INT(x22, x0) # load rs1: x0 = 0xcb818744
     da0:	000b2003          	lw	x0,0(x22)
     da4:	004b0b13          	addi	x22,x22,4
  RVTEST_TESTDATA_LOAD_INT(x22, x29) # load rs2: x29 = 0x638a503e
     da8:	000b2e83          	lw	x29,0(x22)
     dac:	004b0b13          	addi	x22,x22,4

00000db0 <I_sra_cg_cp_rd_b12>:
I_sra_cg_cp_rd_b12:
  sra x12, x0, x29 # perform operation
     db0:	41d05633          	sra	x12,x0,x29
  # Check if x12 contains the expected result. x15 is the signature ptr, x5 is the link ptr, x4 is a temp reg.
  RVTEST_SIGUPD(x15, x5, x4, x12, I_sra_cg_cp_rd_b12, I_sra_cg_cp_rd_b12_str)
     db4:	0007a203          	lw	x4,0(x15)
     db8:	00c20863          	beq	x4,x12,dc8 <I_sra_cg_cp_rd_b12+0x18>
     dbc:	700032ef          	jal	x5,44bc <failedtest_x5_x4>
     dc0:	00000db0          	.word	0x00000db0
     dc4:	00009b11          	.word	0x00009b11
     dc8:	00478793          	addi	x15,x15,4

# Testcase cp_rd (Test destination rd = x13)
  RVTEST_TESTDATA_LOAD_INT(x22, x21) # load rs1: x21 = 0xc141d2ec
     dcc:	000b2a83          	lw	x21,0(x22)
     dd0:	004b0b13          	addi	x22,x22,4
  RVTEST_TESTDATA_LOAD_INT(x22, x3) # load rs2: x3 = 0x3d386f5f
     dd4:	000b2183          	lw	x3,0(x22)
     dd8:	004b0b13          	addi	x22,x22,4

00000ddc <I_sra_cg_cp_rd_b13>:
I_sra_cg_cp_rd_b13:
  sra x13, x21, x3 # perform operation
     ddc:	403ad6b3          	sra	x13,x21,x3
  # Check if x13 contains the expected result. x15 is the signature ptr, x5 is the link ptr, x4 is a temp reg.
  RVTEST_SIGUPD(x15, x5, x4, x13, I_sra_cg_cp_rd_b13, I_sra_cg_cp_rd_b13_str)
     de0:	0007a203          	lw	x4,0(x15)
     de4:	00d20863          	beq	x4,x13,df4 <I_sra_cg_cp_rd_b13+0x18>
     de8:	6d4032ef          	jal	x5,44bc <failedtest_x5_x4>
     dec:	00000ddc          	.word	0x00000ddc
     df0:	00009b3f          	.word	0x00009b3f
     df4:	00478793          	addi	x15,x15,4

# Testcase cp_rd (Test destination rd = x14)
  RVTEST_TESTDATA_LOAD_INT(x22, x25) # load rs1: x25 = 0x67547ac1
     df8:	000b2c83          	lw	x25,0(x22)
     dfc:	004b0b13          	addi	x22,x22,4
  RVTEST_TESTDATA_LOAD_INT(x22, x24) # load rs2: x24 = 0x599a0001
     e00:	000b2c03          	lw	x24,0(x22)
     e04:	004b0b13          	addi	x22,x22,4

00000e08 <I_sra_cg_cp_rd_b14>:
I_sra_cg_cp_rd_b14:
  sra x14, x25, x24 # perform operation
     e08:	418cd733          	sra	x14,x25,x24
  # Check if x14 contains the expected result. x15 is the signature ptr, x5 is the link ptr, x4 is a temp reg.
  RVTEST_SIGUPD(x15, x5, x4, x14, I_sra_cg_cp_rd_b14, I_sra_cg_cp_rd_b14_str)
     e0c:	0007a203          	lw	x4,0(x15)
     e10:	00e20863          	beq	x4,x14,e20 <I_sra_cg_cp_rd_b14+0x18>
     e14:	6a8032ef          	jal	x5,44bc <failedtest_x5_x4>
     e18:	00000e08          	.word	0x00000e08
     e1c:	00009b6d          	.word	0x00009b6d
     e20:	00478793          	addi	x15,x15,4

  mv x18, x15 # switch signature pointer register to avoid conflict with test
     e24:	00078913          	addi	x18,x15,0
# Testcase cp_rd (Test destination rd = x15)
  RVTEST_TESTDATA_LOAD_INT(x22, x7) # load rs1: x7 = 0x9dd8ac83
     e28:	000b2383          	lw	x7,0(x22)
     e2c:	004b0b13          	addi	x22,x22,4
  RVTEST_TESTDATA_LOAD_INT(x22, x12) # load rs2: x12 = 0x34b2d73a
     e30:	000b2603          	lw	x12,0(x22)
     e34:	004b0b13          	addi	x22,x22,4

00000e38 <I_sra_cg_cp_rd_b15>:
I_sra_cg_cp_rd_b15:
  sra x15, x7, x12 # perform operation
     e38:	40c3d7b3          	sra	x15,x7,x12
  # Check if x15 contains the expected result. x18 is the signature ptr, x5 is the link ptr, x4 is a temp reg.
  RVTEST_SIGUPD(x18, x5, x4, x15, I_sra_cg_cp_rd_b15, I_sra_cg_cp_rd_b15_str)
     e3c:	00092203          	lw	x4,0(x18)
     e40:	00f20863          	beq	x4,x15,e50 <I_sra_cg_cp_rd_b15+0x18>
     e44:	678032ef          	jal	x5,44bc <failedtest_x5_x4>
     e48:	00000e38          	.word	0x00000e38
     e4c:	00009b9b          	.word	0x00009b9b
     e50:	00490913          	addi	x18,x18,4

# Testcase cp_rd (Test destination rd = x16)
  RVTEST_TESTDATA_LOAD_INT(x22, x23) # load rs1: x23 = 0xf401aae1
     e54:	000b2b83          	lw	x23,0(x22)
     e58:	004b0b13          	addi	x22,x22,4
  RVTEST_TESTDATA_LOAD_INT(x22, x19) # load rs2: x19 = 0xa879478c
     e5c:	000b2983          	lw	x19,0(x22)
     e60:	004b0b13          	addi	x22,x22,4

00000e64 <I_sra_cg_cp_rd_b16>:
I_sra_cg_cp_rd_b16:
  sra x16, x23, x19 # perform operation
     e64:	413bd833          	sra	x16,x23,x19
  # Check if x16 contains the expected result. x18 is the signature ptr, x5 is the link ptr, x4 is a temp reg.
  RVTEST_SIGUPD(x18, x5, x4, x16, I_sra_cg_cp_rd_b16, I_sra_cg_cp_rd_b16_str)
     e68:	00092203          	lw	x4,0(x18)
     e6c:	01020863          	beq	x4,x16,e7c <I_sra_cg_cp_rd_b16+0x18>
     e70:	64c032ef          	jal	x5,44bc <failedtest_x5_x4>
     e74:	00000e64          	.word	0x00000e64
     e78:	00009bc9          	.word	0x00009bc9
     e7c:	00490913          	addi	x18,x18,4

# Testcase cp_rd (Test destination rd = x17)
  RVTEST_TESTDATA_LOAD_INT(x22, x12) # load rs1: x12 = 0xb2099086
     e80:	000b2603          	lw	x12,0(x22)
     e84:	004b0b13          	addi	x22,x22,4
  RVTEST_TESTDATA_LOAD_INT(x22, x24) # load rs2: x24 = 0x28662ee2
     e88:	000b2c03          	lw	x24,0(x22)
     e8c:	004b0b13          	addi	x22,x22,4

00000e90 <I_sra_cg_cp_rd_b17>:
I_sra_cg_cp_rd_b17:
  sra x17, x12, x24 # perform operation
     e90:	418658b3          	sra	x17,x12,x24
  # Check if x17 contains the expected result. x18 is the signature ptr, x5 is the link ptr, x4 is a temp reg.
  RVTEST_SIGUPD(x18, x5, x4, x17, I_sra_cg_cp_rd_b17, I_sra_cg_cp_rd_b17_str)
     e94:	00092203          	lw	x4,0(x18)
     e98:	01120863          	beq	x4,x17,ea8 <I_sra_cg_cp_rd_b17+0x18>
     e9c:	620032ef          	jal	x5,44bc <failedtest_x5_x4>
     ea0:	00000e90          	.word	0x00000e90
     ea4:	00009bf7          	.word	0x00009bf7
     ea8:	00490913          	addi	x18,x18,4

  mv x25, x18 # switch signature pointer register to avoid conflict with test
     eac:	00090c93          	addi	x25,x18,0
# Testcase cp_rd (Test destination rd = x18)
  RVTEST_TESTDATA_LOAD_INT(x22, x6) # load rs1: x6 = 0xa24f169b
     eb0:	000b2303          	lw	x6,0(x22)
     eb4:	004b0b13          	addi	x22,x22,4
  RVTEST_TESTDATA_LOAD_INT(x22, x2) # load rs2: x2 = 0x061d6482
     eb8:	000b2103          	lw	x2,0(x22)
     ebc:	004b0b13          	addi	x22,x22,4

00000ec0 <I_sra_cg_cp_rd_b18>:
I_sra_cg_cp_rd_b18:
  sra x18, x6, x2 # perform operation
     ec0:	40235933          	sra	x18,x6,x2
  # Check if x18 contains the expected result. x25 is the signature ptr, x5 is the link ptr, x4 is a temp reg.
  RVTEST_SIGUPD(x25, x5, x4, x18, I_sra_cg_cp_rd_b18, I_sra_cg_cp_rd_b18_str)
     ec4:	000ca203          	lw	x4,0(x25)
     ec8:	01220863          	beq	x4,x18,ed8 <I_sra_cg_cp_rd_b18+0x18>
     ecc:	5f0032ef          	jal	x5,44bc <failedtest_x5_x4>
     ed0:	00000ec0          	.word	0x00000ec0
     ed4:	00009c25          	.word	0x00009c25
     ed8:	004c8c93          	addi	x25,x25,4

# Testcase cp_rd (Test destination rd = x19)
  RVTEST_TESTDATA_LOAD_INT(x22, x1) # load rs1: x1 = 0x5a69a857
     edc:	000b2083          	lw	x1,0(x22)
     ee0:	004b0b13          	addi	x22,x22,4
  RVTEST_TESTDATA_LOAD_INT(x22, x9) # load rs2: x9 = 0xe8c5dd6f
     ee4:	000b2483          	lw	x9,0(x22)
     ee8:	004b0b13          	addi	x22,x22,4

00000eec <I_sra_cg_cp_rd_b19>:
I_sra_cg_cp_rd_b19:
  sra x19, x1, x9 # perform operation
     eec:	4090d9b3          	sra	x19,x1,x9
  # Check if x19 contains the expected result. x25 is the signature ptr, x5 is the link ptr, x4 is a temp reg.
  RVTEST_SIGUPD(x25, x5, x4, x19, I_sra_cg_cp_rd_b19, I_sra_cg_cp_rd_b19_str)
     ef0:	000ca203          	lw	x4,0(x25)
     ef4:	01320863          	beq	x4,x19,f04 <I_sra_cg_cp_rd_b19+0x18>
     ef8:	5c4032ef          	jal	x5,44bc <failedtest_x5_x4>
     efc:	00000eec          	.word	0x00000eec
     f00:	00009c53          	.word	0x00009c53
     f04:	004c8c93          	addi	x25,x25,4

# Testcase cp_rd (Test destination rd = x20)
  RVTEST_TESTDATA_LOAD_INT(x22, x8) # load rs1: x8 = 0x10c23983
     f08:	000b2403          	lw	x8,0(x22)
     f0c:	004b0b13          	addi	x22,x22,4
  RVTEST_TESTDATA_LOAD_INT(x22, x30) # load rs2: x30 = 0x71ffcf6b
     f10:	000b2f03          	lw	x30,0(x22)
     f14:	004b0b13          	addi	x22,x22,4

00000f18 <I_sra_cg_cp_rd_b20>:
I_sra_cg_cp_rd_b20:
  sra x20, x8, x30 # perform operation
     f18:	41e45a33          	sra	x20,x8,x30
  # Check if x20 contains the expected result. x25 is the signature ptr, x5 is the link ptr, x4 is a temp reg.
  RVTEST_SIGUPD(x25, x5, x4, x20, I_sra_cg_cp_rd_b20, I_sra_cg_cp_rd_b20_str)
     f1c:	000ca203          	lw	x4,0(x25)
     f20:	01420863          	beq	x4,x20,f30 <I_sra_cg_cp_rd_b20+0x18>
     f24:	598032ef          	jal	x5,44bc <failedtest_x5_x4>
     f28:	00000f18          	.word	0x00000f18
     f2c:	00009c81          	.word	0x00009c81
     f30:	004c8c93          	addi	x25,x25,4

# Testcase cp_rd (Test destination rd = x21)
  RVTEST_TESTDATA_LOAD_INT(x22, x18) # load rs1: x18 = 0xd3eec80c
     f34:	000b2903          	lw	x18,0(x22)
     f38:	004b0b13          	addi	x22,x22,4
  RVTEST_TESTDATA_LOAD_INT(x22, x26) # load rs2: x26 = 0xeb618bc5
     f3c:	000b2d03          	lw	x26,0(x22)
     f40:	004b0b13          	addi	x22,x22,4

00000f44 <I_sra_cg_cp_rd_b21>:
I_sra_cg_cp_rd_b21:
  sra x21, x18, x26 # perform operation
     f44:	41a95ab3          	sra	x21,x18,x26
  # Check if x21 contains the expected result. x25 is the signature ptr, x5 is the link ptr, x4 is a temp reg.
  RVTEST_SIGUPD(x25, x5, x4, x21, I_sra_cg_cp_rd_b21, I_sra_cg_cp_rd_b21_str)
     f48:	000ca203          	lw	x4,0(x25)
     f4c:	01520863          	beq	x4,x21,f5c <I_sra_cg_cp_rd_b21+0x18>
     f50:	56c032ef          	jal	x5,44bc <failedtest_x5_x4>
     f54:	00000f44          	.word	0x00000f44
     f58:	00009caf          	.word	0x00009caf
     f5c:	004c8c93          	addi	x25,x25,4

  mv x24, x22 # switch data pointer register to avoid conflict with test
     f60:	000b0c13          	addi	x24,x22,0
# Testcase cp_rd (Test destination rd = x22)
  RVTEST_TESTDATA_LOAD_INT(x24, x27) # load rs1: x27 = 0xfa9960cd
     f64:	000c2d83          	lw	x27,0(x24)
     f68:	004c0c13          	addi	x24,x24,4
  RVTEST_TESTDATA_LOAD_INT(x24, x18) # load rs2: x18 = 0x8ab5a21b
     f6c:	000c2903          	lw	x18,0(x24)
     f70:	004c0c13          	addi	x24,x24,4

00000f74 <I_sra_cg_cp_rd_b22>:
I_sra_cg_cp_rd_b22:
  sra x22, x27, x18 # perform operation
     f74:	412ddb33          	sra	x22,x27,x18
  # Check if x22 contains the expected result. x25 is the signature ptr, x5 is the link ptr, x4 is a temp reg.
  RVTEST_SIGUPD(x25, x5, x4, x22, I_sra_cg_cp_rd_b22, I_sra_cg_cp_rd_b22_str)
     f78:	000ca203          	lw	x4,0(x25)
     f7c:	01620863          	beq	x4,x22,f8c <I_sra_cg_cp_rd_b22+0x18>
     f80:	53c032ef          	jal	x5,44bc <failedtest_x5_x4>
     f84:	00000f74          	.word	0x00000f74
     f88:	00009cdd          	.word	0x00009cdd
     f8c:	004c8c93          	addi	x25,x25,4

# Testcase cp_rd (Test destination rd = x23)
  RVTEST_TESTDATA_LOAD_INT(x24, x3) # load rs1: x3 = 0x730e9b30
     f90:	000c2183          	lw	x3,0(x24)
     f94:	004c0c13          	addi	x24,x24,4
  RVTEST_TESTDATA_LOAD_INT(x24, x22) # load rs2: x22 = 0x94d625a9
     f98:	000c2b03          	lw	x22,0(x24)
     f9c:	004c0c13          	addi	x24,x24,4

00000fa0 <I_sra_cg_cp_rd_b23>:
I_sra_cg_cp_rd_b23:
  sra x23, x3, x22 # perform operation
     fa0:	4161dbb3          	sra	x23,x3,x22
  # Check if x23 contains the expected result. x25 is the signature ptr, x5 is the link ptr, x4 is a temp reg.
  RVTEST_SIGUPD(x25, x5, x4, x23, I_sra_cg_cp_rd_b23, I_sra_cg_cp_rd_b23_str)
     fa4:	000ca203          	lw	x4,0(x25)
     fa8:	01720863          	beq	x4,x23,fb8 <I_sra_cg_cp_rd_b23+0x18>
     fac:	510032ef          	jal	x5,44bc <failedtest_x5_x4>
     fb0:	00000fa0          	.word	0x00000fa0
     fb4:	00009d0b          	.word	0x00009d0b
     fb8:	004c8c93          	addi	x25,x25,4

  mv x23, x24 # switch data pointer register to avoid conflict with test
     fbc:	000c0b93          	addi	x23,x24,0
# Testcase cp_rd (Test destination rd = x24)
  RVTEST_TESTDATA_LOAD_INT(x23, x30) # load rs1: x30 = 0xf0c8b480
     fc0:	000baf03          	lw	x30,0(x23)
     fc4:	004b8b93          	addi	x23,x23,4
  RVTEST_TESTDATA_LOAD_INT(x23, x22) # load rs2: x22 = 0x5d2ba71a
     fc8:	000bab03          	lw	x22,0(x23)
     fcc:	004b8b93          	addi	x23,x23,4

00000fd0 <I_sra_cg_cp_rd_b24>:
I_sra_cg_cp_rd_b24:
  sra x24, x30, x22 # perform operation
     fd0:	416f5c33          	sra	x24,x30,x22
  # Check if x24 contains the expected result. x25 is the signature ptr, x5 is the link ptr, x4 is a temp reg.
  RVTEST_SIGUPD(x25, x5, x4, x24, I_sra_cg_cp_rd_b24, I_sra_cg_cp_rd_b24_str)
     fd4:	000ca203          	lw	x4,0(x25)
     fd8:	01820863          	beq	x4,x24,fe8 <I_sra_cg_cp_rd_b24+0x18>
     fdc:	4e0032ef          	jal	x5,44bc <failedtest_x5_x4>
     fe0:	00000fd0          	.word	0x00000fd0
     fe4:	00009d39          	.word	0x00009d39
     fe8:	004c8c93          	addi	x25,x25,4

  mv x1, x25 # switch signature pointer register to avoid conflict with test
     fec:	000c8093          	addi	x1,x25,0
# Testcase cp_rd (Test destination rd = x25)
  RVTEST_TESTDATA_LOAD_INT(x23, x29) # load rs1: x29 = 0x9be9be59
     ff0:	000bae83          	lw	x29,0(x23)
     ff4:	004b8b93          	addi	x23,x23,4
  RVTEST_TESTDATA_LOAD_INT(x23, x27) # load rs2: x27 = 0x96f4a01a
     ff8:	000bad83          	lw	x27,0(x23)
     ffc:	004b8b93          	addi	x23,x23,4

00001000 <I_sra_cg_cp_rd_b25>:
I_sra_cg_cp_rd_b25:
  sra x25, x29, x27 # perform operation
    1000:	41bedcb3          	sra	x25,x29,x27
  # Check if x25 contains the expected result. x1 is the signature ptr, x5 is the link ptr, x4 is a temp reg.
  RVTEST_SIGUPD(x1, x5, x4, x25, I_sra_cg_cp_rd_b25, I_sra_cg_cp_rd_b25_str)
    1004:	0000a203          	lw	x4,0(x1)
    1008:	01920863          	beq	x4,x25,1018 <I_sra_cg_cp_rd_b25+0x18>
    100c:	4b0032ef          	jal	x5,44bc <failedtest_x5_x4>
    1010:	00001000          	.word	0x00001000
    1014:	00009d67          	.word	0x00009d67
    1018:	00408093          	addi	x1,x1,4

# Testcase cp_rd (Test destination rd = x26)
  RVTEST_TESTDATA_LOAD_INT(x23, x29) # load rs1: x29 = 0x8469b779
    101c:	000bae83          	lw	x29,0(x23)
    1020:	004b8b93          	addi	x23,x23,4
  RVTEST_TESTDATA_LOAD_INT(x23, x21) # load rs2: x21 = 0x6049bb01
    1024:	000baa83          	lw	x21,0(x23)
    1028:	004b8b93          	addi	x23,x23,4

0000102c <I_sra_cg_cp_rd_b26>:
I_sra_cg_cp_rd_b26:
  sra x26, x29, x21 # perform operation
    102c:	415edd33          	sra	x26,x29,x21
  # Check if x26 contains the expected result. x1 is the signature ptr, x5 is the link ptr, x4 is a temp reg.
  RVTEST_SIGUPD(x1, x5, x4, x26, I_sra_cg_cp_rd_b26, I_sra_cg_cp_rd_b26_str)
    1030:	0000a203          	lw	x4,0(x1)
    1034:	01a20863          	beq	x4,x26,1044 <I_sra_cg_cp_rd_b26+0x18>
    1038:	484032ef          	jal	x5,44bc <failedtest_x5_x4>
    103c:	0000102c          	.word	0x0000102c
    1040:	00009d95          	.word	0x00009d95
    1044:	00408093          	addi	x1,x1,4

# Testcase cp_rd (Test destination rd = x27)
  RVTEST_TESTDATA_LOAD_INT(x23, x26) # load rs1: x26 = 0x84d82964
    1048:	000bad03          	lw	x26,0(x23)
    104c:	004b8b93          	addi	x23,x23,4
  RVTEST_TESTDATA_LOAD_INT(x23, x7) # load rs2: x7 = 0x02d4ba5d
    1050:	000ba383          	lw	x7,0(x23)
    1054:	004b8b93          	addi	x23,x23,4

00001058 <I_sra_cg_cp_rd_b27>:
I_sra_cg_cp_rd_b27:
  sra x27, x26, x7 # perform operation
    1058:	407d5db3          	sra	x27,x26,x7
  # Check if x27 contains the expected result. x1 is the signature ptr, x5 is the link ptr, x4 is a temp reg.
  RVTEST_SIGUPD(x1, x5, x4, x27, I_sra_cg_cp_rd_b27, I_sra_cg_cp_rd_b27_str)
    105c:	0000a203          	lw	x4,0(x1)
    1060:	01b20863          	beq	x4,x27,1070 <I_sra_cg_cp_rd_b27+0x18>
    1064:	458032ef          	jal	x5,44bc <failedtest_x5_x4>
    1068:	00001058          	.word	0x00001058
    106c:	00009dc3          	.word	0x00009dc3
    1070:	00408093          	addi	x1,x1,4

# Testcase cp_rd (Test destination rd = x28)
  RVTEST_TESTDATA_LOAD_INT(x23, x11) # load rs1: x11 = 0x3f550231
    1074:	000ba583          	lw	x11,0(x23)
    1078:	004b8b93          	addi	x23,x23,4
  RVTEST_TESTDATA_LOAD_INT(x23, x29) # load rs2: x29 = 0x0e7f9b87
    107c:	000bae83          	lw	x29,0(x23)
    1080:	004b8b93          	addi	x23,x23,4

00001084 <I_sra_cg_cp_rd_b28>:
I_sra_cg_cp_rd_b28:
  sra x28, x11, x29 # perform operation
    1084:	41d5de33          	sra	x28,x11,x29
  # Check if x28 contains the expected result. x1 is the signature ptr, x5 is the link ptr, x4 is a temp reg.
  RVTEST_SIGUPD(x1, x5, x4, x28, I_sra_cg_cp_rd_b28, I_sra_cg_cp_rd_b28_str)
    1088:	0000a203          	lw	x4,0(x1)
    108c:	01c20863          	beq	x4,x28,109c <I_sra_cg_cp_rd_b28+0x18>
    1090:	42c032ef          	jal	x5,44bc <failedtest_x5_x4>
    1094:	00001084          	.word	0x00001084
    1098:	00009df1          	.word	0x00009df1
    109c:	00408093          	addi	x1,x1,4

# Testcase cp_rd (Test destination rd = x29)
  RVTEST_TESTDATA_LOAD_INT(x23, x31) # load rs1: x31 = 0xe8ad6f02
    10a0:	000baf83          	lw	x31,0(x23)
    10a4:	004b8b93          	addi	x23,x23,4
  RVTEST_TESTDATA_LOAD_INT(x23, x14) # load rs2: x14 = 0x9a10700b
    10a8:	000ba703          	lw	x14,0(x23)
    10ac:	004b8b93          	addi	x23,x23,4

000010b0 <I_sra_cg_cp_rd_b29>:
I_sra_cg_cp_rd_b29:
  sra x29, x31, x14 # perform operation
    10b0:	40efdeb3          	sra	x29,x31,x14
  # Check if x29 contains the expected result. x1 is the signature ptr, x5 is the link ptr, x4 is a temp reg.
  RVTEST_SIGUPD(x1, x5, x4, x29, I_sra_cg_cp_rd_b29, I_sra_cg_cp_rd_b29_str)
    10b4:	0000a203          	lw	x4,0(x1)
    10b8:	01d20863          	beq	x4,x29,10c8 <I_sra_cg_cp_rd_b29+0x18>
    10bc:	400032ef          	jal	x5,44bc <failedtest_x5_x4>
    10c0:	000010b0          	.word	0x000010b0
    10c4:	00009e1f          	.word	0x00009e1f
    10c8:	00408093          	addi	x1,x1,4

# Testcase cp_rd (Test destination rd = x30)
  RVTEST_TESTDATA_LOAD_INT(x23, x22) # load rs1: x22 = 0x5b69cbb8
    10cc:	000bab03          	lw	x22,0(x23)
    10d0:	004b8b93          	addi	x23,x23,4
  RVTEST_TESTDATA_LOAD_INT(x23, x2) # load rs2: x2 = 0xd5801147
    10d4:	000ba103          	lw	x2,0(x23)
    10d8:	004b8b93          	addi	x23,x23,4

000010dc <I_sra_cg_cp_rd_b30>:
I_sra_cg_cp_rd_b30:
  sra x30, x22, x2 # perform operation
    10dc:	402b5f33          	sra	x30,x22,x2
  # Check if x30 contains the expected result. x1 is the signature ptr, x5 is the link ptr, x4 is a temp reg.
  RVTEST_SIGUPD(x1, x5, x4, x30, I_sra_cg_cp_rd_b30, I_sra_cg_cp_rd_b30_str)
    10e0:	0000a203          	lw	x4,0(x1)
    10e4:	01e20863          	beq	x4,x30,10f4 <I_sra_cg_cp_rd_b30+0x18>
    10e8:	3d4032ef          	jal	x5,44bc <failedtest_x5_x4>
    10ec:	000010dc          	.word	0x000010dc
    10f0:	00009e4d          	.word	0x00009e4d
    10f4:	00408093          	addi	x1,x1,4

# Testcase cp_rd (Test destination rd = x31)
  RVTEST_TESTDATA_LOAD_INT(x23, x27) # load rs1: x27 = 0x5341de81
    10f8:	000bad83          	lw	x27,0(x23)
    10fc:	004b8b93          	addi	x23,x23,4
  RVTEST_TESTDATA_LOAD_INT(x23, x30) # load rs2: x30 = 0x3b95d84b
    1100:	000baf03          	lw	x30,0(x23)
    1104:	004b8b93          	addi	x23,x23,4

00001108 <I_sra_cg_cp_rd_b31>:
I_sra_cg_cp_rd_b31:
  sra x31, x27, x30 # perform operation
    1108:	41eddfb3          	sra	x31,x27,x30
  # Check if x31 contains the expected result. x1 is the signature ptr, x5 is the link ptr, x4 is a temp reg.
  RVTEST_SIGUPD(x1, x5, x4, x31, I_sra_cg_cp_rd_b31, I_sra_cg_cp_rd_b31_str)
    110c:	0000a203          	lw	x4,0(x1)
    1110:	01f20863          	beq	x4,x31,1120 <I_sra_cg_cp_rd_b31+0x18>
    1114:	3a8032ef          	jal	x5,44bc <failedtest_x5_x4>
    1118:	00001108          	.word	0x00001108
    111c:	00009e7b          	.word	0x00009e7b
    1120:	00408093          	addi	x1,x1,4
/////////////////////////////////
// cp_rs1_edges
/////////////////////////////////

# Testcase cp_rs1_edges (Test source rs1 value = 0x00000000)
  RVTEST_TESTDATA_LOAD_INT(x23, x26) # load rs1: x26 = 0x00000000
    1124:	000bad03          	lw	x26,0(x23)
    1128:	004b8b93          	addi	x23,x23,4
  RVTEST_TESTDATA_LOAD_INT(x23, x25) # load rs2: x25 = 0x017fe542
    112c:	000bac83          	lw	x25,0(x23)
    1130:	004b8b93          	addi	x23,x23,4

00001134 <I_sra_cg_cp_rs1_edges_0x0>:
I_sra_cg_cp_rs1_edges_0x0:
  sra x2, x26, x25 # perform operation
    1134:	419d5133          	sra	x2,x26,x25
  # Check if x2 contains the expected result. x1 is the signature ptr, x5 is the link ptr, x4 is a temp reg.
  RVTEST_SIGUPD(x1, x5, x4, x2, I_sra_cg_cp_rs1_edges_0x0, I_sra_cg_cp_rs1_edges_0x0_str)
    1138:	0000a203          	lw	x4,0(x1)
    113c:	00220863          	beq	x4,x2,114c <I_sra_cg_cp_rs1_edges_0x0+0x18>
    1140:	37c032ef          	jal	x5,44bc <failedtest_x5_x4>
    1144:	00001134          	.word	0x00001134
    1148:	00009ea9          	.word	0x00009ea9
    114c:	00408093          	addi	x1,x1,4

# Testcase cp_rs1_edges (Test source rs1 value = 0x00000001)
  RVTEST_TESTDATA_LOAD_INT(x23, x18) # load rs1: x18 = 0x00000001
    1150:	000ba903          	lw	x18,0(x23)
    1154:	004b8b93          	addi	x23,x23,4
  RVTEST_TESTDATA_LOAD_INT(x23, x17) # load rs2: x17 = 0x2db8d366
    1158:	000ba883          	lw	x17,0(x23)
    115c:	004b8b93          	addi	x23,x23,4

00001160 <I_sra_cg_cp_rs1_edges_0x1>:
I_sra_cg_cp_rs1_edges_0x1:
  sra x26, x18, x17 # perform operation
    1160:	41195d33          	sra	x26,x18,x17
  # Check if x26 contains the expected result. x1 is the signature ptr, x5 is the link ptr, x4 is a temp reg.
  RVTEST_SIGUPD(x1, x5, x4, x26, I_sra_cg_cp_rs1_edges_0x1, I_sra_cg_cp_rs1_edges_0x1_str)
    1164:	0000a203          	lw	x4,0(x1)
    1168:	01a20863          	beq	x4,x26,1178 <I_sra_cg_cp_rs1_edges_0x1+0x18>
    116c:	350032ef          	jal	x5,44bc <failedtest_x5_x4>
    1170:	00001160          	.word	0x00001160
    1174:	00009ede          	.word	0x00009ede
    1178:	00408093          	addi	x1,x1,4

# Testcase cp_rs1_edges (Test source rs1 value = 0x00000002)
  RVTEST_TESTDATA_LOAD_INT(x23, x16) # load rs1: x16 = 0x00000002
    117c:	000ba803          	lw	x16,0(x23)
    1180:	004b8b93          	addi	x23,x23,4
  RVTEST_TESTDATA_LOAD_INT(x23, x21) # load rs2: x21 = 0xe103c82c
    1184:	000baa83          	lw	x21,0(x23)
    1188:	004b8b93          	addi	x23,x23,4

0000118c <I_sra_cg_cp_rs1_edges_0x2>:
I_sra_cg_cp_rs1_edges_0x2:
  sra x13, x16, x21 # perform operation
    118c:	415856b3          	sra	x13,x16,x21
  # Check if x13 contains the expected result. x1 is the signature ptr, x5 is the link ptr, x4 is a temp reg.
  RVTEST_SIGUPD(x1, x5, x4, x13, I_sra_cg_cp_rs1_edges_0x2, I_sra_cg_cp_rs1_edges_0x2_str)
    1190:	0000a203          	lw	x4,0(x1)
    1194:	00d20863          	beq	x4,x13,11a4 <I_sra_cg_cp_rs1_edges_0x2+0x18>
    1198:	324032ef          	jal	x5,44bc <failedtest_x5_x4>
    119c:	0000118c          	.word	0x0000118c
    11a0:	00009f13          	.word	0x00009f13
    11a4:	00408093          	addi	x1,x1,4

# Testcase cp_rs1_edges (Test source rs1 value = 0x80000000)
  RVTEST_TESTDATA_LOAD_INT(x23, x15) # load rs1: x15 = 0x80000000
    11a8:	000ba783          	lw	x15,0(x23)
    11ac:	004b8b93          	addi	x23,x23,4
  RVTEST_TESTDATA_LOAD_INT(x23, x13) # load rs2: x13 = 0xfcc5e93f
    11b0:	000ba683          	lw	x13,0(x23)
    11b4:	004b8b93          	addi	x23,x23,4

000011b8 <I_sra_cg_cp_rs1_edges_0x80000000>:
I_sra_cg_cp_rs1_edges_0x80000000:
  sra x10, x15, x13 # perform operation
    11b8:	40d7d533          	sra	x10,x15,x13
  # Check if x10 contains the expected result. x1 is the signature ptr, x5 is the link ptr, x4 is a temp reg.
  RVTEST_SIGUPD(x1, x5, x4, x10, I_sra_cg_cp_rs1_edges_0x80000000, I_sra_cg_cp_rs1_edges_0x80000000_str)
    11bc:	0000a203          	lw	x4,0(x1)
    11c0:	00a20863          	beq	x4,x10,11d0 <I_sra_cg_cp_rs1_edges_0x80000000+0x18>
    11c4:	2f8032ef          	jal	x5,44bc <failedtest_x5_x4>
    11c8:	000011b8          	.word	0x000011b8
    11cc:	00009f48          	.word	0x00009f48
    11d0:	00408093          	addi	x1,x1,4

# Testcase cp_rs1_edges (Test source rs1 value = 0x80000001)
  RVTEST_TESTDATA_LOAD_INT(x23, x26) # load rs1: x26 = 0x80000001
    11d4:	000bad03          	lw	x26,0(x23)
    11d8:	004b8b93          	addi	x23,x23,4
  RVTEST_TESTDATA_LOAD_INT(x23, x24) # load rs2: x24 = 0x2b4f6150
    11dc:	000bac03          	lw	x24,0(x23)
    11e0:	004b8b93          	addi	x23,x23,4

000011e4 <I_sra_cg_cp_rs1_edges_0x80000001>:
I_sra_cg_cp_rs1_edges_0x80000001:
  sra x3, x26, x24 # perform operation
    11e4:	418d51b3          	sra	x3,x26,x24
  # Check if x3 contains the expected result. x1 is the signature ptr, x5 is the link ptr, x4 is a temp reg.
  RVTEST_SIGUPD(x1, x5, x4, x3, I_sra_cg_cp_rs1_edges_0x80000001, I_sra_cg_cp_rs1_edges_0x80000001_str)
    11e8:	0000a203          	lw	x4,0(x1)
    11ec:	00320863          	beq	x4,x3,11fc <I_sra_cg_cp_rs1_edges_0x80000001+0x18>
    11f0:	2cc032ef          	jal	x5,44bc <failedtest_x5_x4>
    11f4:	000011e4          	.word	0x000011e4
    11f8:	00009f85          	.word	0x00009f85
    11fc:	00408093          	addi	x1,x1,4

# Testcase cp_rs1_edges (Test source rs1 value = 0x7fffffff)
  RVTEST_TESTDATA_LOAD_INT(x23, x20) # load rs1: x20 = 0x7fffffff
    1200:	000baa03          	lw	x20,0(x23)
    1204:	004b8b93          	addi	x23,x23,4
  RVTEST_TESTDATA_LOAD_INT(x23, x15) # load rs2: x15 = 0x1a21e350
    1208:	000ba783          	lw	x15,0(x23)
    120c:	004b8b93          	addi	x23,x23,4

00001210 <I_sra_cg_cp_rs1_edges_0x7fffffff>:
I_sra_cg_cp_rs1_edges_0x7fffffff:
  sra x27, x20, x15 # perform operation
    1210:	40fa5db3          	sra	x27,x20,x15
  # Check if x27 contains the expected result. x1 is the signature ptr, x5 is the link ptr, x4 is a temp reg.
  RVTEST_SIGUPD(x1, x5, x4, x27, I_sra_cg_cp_rs1_edges_0x7fffffff, I_sra_cg_cp_rs1_edges_0x7fffffff_str)
    1214:	0000a203          	lw	x4,0(x1)
    1218:	01b20863          	beq	x4,x27,1228 <I_sra_cg_cp_rs1_edges_0x7fffffff+0x18>
    121c:	2a0032ef          	jal	x5,44bc <failedtest_x5_x4>
    1220:	00001210          	.word	0x00001210
    1224:	00009fc2          	.word	0x00009fc2
    1228:	00408093          	addi	x1,x1,4

# Testcase cp_rs1_edges (Test source rs1 value = 0x7ffffffe)
  RVTEST_TESTDATA_LOAD_INT(x23, x21) # load rs1: x21 = 0x7ffffffe
    122c:	000baa83          	lw	x21,0(x23)
    1230:	004b8b93          	addi	x23,x23,4
  RVTEST_TESTDATA_LOAD_INT(x23, x10) # load rs2: x10 = 0xe87a57a6
    1234:	000ba503          	lw	x10,0(x23)
    1238:	004b8b93          	addi	x23,x23,4

0000123c <I_sra_cg_cp_rs1_edges_0x7ffffffe>:
I_sra_cg_cp_rs1_edges_0x7ffffffe:
  sra x22, x21, x10 # perform operation
    123c:	40aadb33          	sra	x22,x21,x10
  # Check if x22 contains the expected result. x1 is the signature ptr, x5 is the link ptr, x4 is a temp reg.
  RVTEST_SIGUPD(x1, x5, x4, x22, I_sra_cg_cp_rs1_edges_0x7ffffffe, I_sra_cg_cp_rs1_edges_0x7ffffffe_str)
    1240:	0000a203          	lw	x4,0(x1)
    1244:	01620863          	beq	x4,x22,1254 <I_sra_cg_cp_rs1_edges_0x7ffffffe+0x18>
    1248:	274032ef          	jal	x5,44bc <failedtest_x5_x4>
    124c:	0000123c          	.word	0x0000123c
    1250:	00009fff          	.word	0x00009fff
    1254:	00408093          	addi	x1,x1,4

# Testcase cp_rs1_edges (Test source rs1 value = 0xffffffff)
  RVTEST_TESTDATA_LOAD_INT(x23, x27) # load rs1: x27 = 0xffffffff
    1258:	000bad83          	lw	x27,0(x23)
    125c:	004b8b93          	addi	x23,x23,4
  RVTEST_TESTDATA_LOAD_INT(x23, x24) # load rs2: x24 = 0xeee98bbc
    1260:	000bac03          	lw	x24,0(x23)
    1264:	004b8b93          	addi	x23,x23,4

00001268 <I_sra_cg_cp_rs1_edges_0xffffffff>:
I_sra_cg_cp_rs1_edges_0xffffffff:
  sra x3, x27, x24 # perform operation
    1268:	418dd1b3          	sra	x3,x27,x24
  # Check if x3 contains the expected result. x1 is the signature ptr, x5 is the link ptr, x4 is a temp reg.
  RVTEST_SIGUPD(x1, x5, x4, x3, I_sra_cg_cp_rs1_edges_0xffffffff, I_sra_cg_cp_rs1_edges_0xffffffff_str)
    126c:	0000a203          	lw	x4,0(x1)
    1270:	00320863          	beq	x4,x3,1280 <I_sra_cg_cp_rs1_edges_0xffffffff+0x18>
    1274:	248032ef          	jal	x5,44bc <failedtest_x5_x4>
    1278:	00001268          	.word	0x00001268
    127c:	0000a03c          	.word	0x0000a03c
    1280:	00408093          	addi	x1,x1,4

# Testcase cp_rs1_edges (Test source rs1 value = 0xfffffffe)
  RVTEST_TESTDATA_LOAD_INT(x23, x6) # load rs1: x6 = 0xfffffffe
    1284:	000ba303          	lw	x6,0(x23)
    1288:	004b8b93          	addi	x23,x23,4
  RVTEST_TESTDATA_LOAD_INT(x23, x25) # load rs2: x25 = 0x1e50e837
    128c:	000bac83          	lw	x25,0(x23)
    1290:	004b8b93          	addi	x23,x23,4

00001294 <I_sra_cg_cp_rs1_edges_0xfffffffe>:
I_sra_cg_cp_rs1_edges_0xfffffffe:
  sra x11, x6, x25 # perform operation
    1294:	419355b3          	sra	x11,x6,x25
  # Check if x11 contains the expected result. x1 is the signature ptr, x5 is the link ptr, x4 is a temp reg.
  RVTEST_SIGUPD(x1, x5, x4, x11, I_sra_cg_cp_rs1_edges_0xfffffffe, I_sra_cg_cp_rs1_edges_0xfffffffe_str)
    1298:	0000a203          	lw	x4,0(x1)
    129c:	00b20863          	beq	x4,x11,12ac <I_sra_cg_cp_rs1_edges_0xfffffffe+0x18>
    12a0:	21c032ef          	jal	x5,44bc <failedtest_x5_x4>
    12a4:	00001294          	.word	0x00001294
    12a8:	0000a079          	.word	0x0000a079
    12ac:	00408093          	addi	x1,x1,4

# Testcase cp_rs1_edges (Test source rs1 value = 0x5bbc8872)
  RVTEST_TESTDATA_LOAD_INT(x23, x24) # load rs1: x24 = 0x5bbc8872
    12b0:	000bac03          	lw	x24,0(x23)
    12b4:	004b8b93          	addi	x23,x23,4
  RVTEST_TESTDATA_LOAD_INT(x23, x8) # load rs2: x8 = 0xfa8db5f1
    12b8:	000ba403          	lw	x8,0(x23)
    12bc:	004b8b93          	addi	x23,x23,4

000012c0 <I_sra_cg_cp_rs1_edges_0x5bbc8872>:
I_sra_cg_cp_rs1_edges_0x5bbc8872:
  sra x18, x24, x8 # perform operation
    12c0:	408c5933          	sra	x18,x24,x8
  # Check if x18 contains the expected result. x1 is the signature ptr, x5 is the link ptr, x4 is a temp reg.
  RVTEST_SIGUPD(x1, x5, x4, x18, I_sra_cg_cp_rs1_edges_0x5bbc8872, I_sra_cg_cp_rs1_edges_0x5bbc8872_str)
    12c4:	0000a203          	lw	x4,0(x1)
    12c8:	01220863          	beq	x4,x18,12d8 <I_sra_cg_cp_rs1_edges_0x5bbc8872+0x18>
    12cc:	1f0032ef          	jal	x5,44bc <failedtest_x5_x4>
    12d0:	000012c0          	.word	0x000012c0
    12d4:	0000a0b6          	.word	0x0000a0b6
    12d8:	00408093          	addi	x1,x1,4

# Testcase cp_rs1_edges (Test source rs1 value = 0xaaaaaaaa)
  RVTEST_TESTDATA_LOAD_INT(x23, x26) # load rs1: x26 = 0xaaaaaaaa
    12dc:	000bad03          	lw	x26,0(x23)
    12e0:	004b8b93          	addi	x23,x23,4
  RVTEST_TESTDATA_LOAD_INT(x23, x25) # load rs2: x25 = 0xa1b43bb1
    12e4:	000bac83          	lw	x25,0(x23)
    12e8:	004b8b93          	addi	x23,x23,4

000012ec <I_sra_cg_cp_rs1_edges_0xaaaaaaaa>:
I_sra_cg_cp_rs1_edges_0xaaaaaaaa:
  sra x29, x26, x25 # perform operation
    12ec:	419d5eb3          	sra	x29,x26,x25
  # Check if x29 contains the expected result. x1 is the signature ptr, x5 is the link ptr, x4 is a temp reg.
  RVTEST_SIGUPD(x1, x5, x4, x29, I_sra_cg_cp_rs1_edges_0xaaaaaaaa, I_sra_cg_cp_rs1_edges_0xaaaaaaaa_str)
    12f0:	0000a203          	lw	x4,0(x1)
    12f4:	01d20863          	beq	x4,x29,1304 <I_sra_cg_cp_rs1_edges_0xaaaaaaaa+0x18>
    12f8:	1c4032ef          	jal	x5,44bc <failedtest_x5_x4>
    12fc:	000012ec          	.word	0x000012ec
    1300:	0000a0f3          	.word	0x0000a0f3
    1304:	00408093          	addi	x1,x1,4

# Testcase cp_rs1_edges (Test source rs1 value = 0x55555555)
  RVTEST_TESTDATA_LOAD_INT(x23, x28) # load rs1: x28 = 0x55555555
    1308:	000bae03          	lw	x28,0(x23)
    130c:	004b8b93          	addi	x23,x23,4
  RVTEST_TESTDATA_LOAD_INT(x23, x16) # load rs2: x16 = 0x44336d0f
    1310:	000ba803          	lw	x16,0(x23)
    1314:	004b8b93          	addi	x23,x23,4

00001318 <I_sra_cg_cp_rs1_edges_0x55555555>:
I_sra_cg_cp_rs1_edges_0x55555555:
  sra x10, x28, x16 # perform operation
    1318:	410e5533          	sra	x10,x28,x16
  # Check if x10 contains the expected result. x1 is the signature ptr, x5 is the link ptr, x4 is a temp reg.
  RVTEST_SIGUPD(x1, x5, x4, x10, I_sra_cg_cp_rs1_edges_0x55555555, I_sra_cg_cp_rs1_edges_0x55555555_str)
    131c:	0000a203          	lw	x4,0(x1)
    1320:	00a20863          	beq	x4,x10,1330 <I_sra_cg_cp_rs1_edges_0x55555555+0x18>
    1324:	198032ef          	jal	x5,44bc <failedtest_x5_x4>
    1328:	00001318          	.word	0x00001318
    132c:	0000a130          	.word	0x0000a130
    1330:	00408093          	addi	x1,x1,4
/////////////////////////////////
// cp_rs2_edges
/////////////////////////////////

# Testcase cp_rs2_edges (Test source rs2 value = 0x00000000)
  RVTEST_TESTDATA_LOAD_INT(x23, x27) # load rs1: x27 = 0xe7c9af15
    1334:	000bad83          	lw	x27,0(x23)
    1338:	004b8b93          	addi	x23,x23,4
  RVTEST_TESTDATA_LOAD_INT(x23, x29) # load rs2: x29 = 0x00000000
    133c:	000bae83          	lw	x29,0(x23)
    1340:	004b8b93          	addi	x23,x23,4

00001344 <I_sra_cg_cp_rs2_edges_0x0>:
I_sra_cg_cp_rs2_edges_0x0:
  sra x16, x27, x29 # perform operation
    1344:	41ddd833          	sra	x16,x27,x29
  # Check if x16 contains the expected result. x1 is the signature ptr, x5 is the link ptr, x4 is a temp reg.
  RVTEST_SIGUPD(x1, x5, x4, x16, I_sra_cg_cp_rs2_edges_0x0, I_sra_cg_cp_rs2_edges_0x0_str)
    1348:	0000a203          	lw	x4,0(x1)
    134c:	01020863          	beq	x4,x16,135c <I_sra_cg_cp_rs2_edges_0x0+0x18>
    1350:	16c032ef          	jal	x5,44bc <failedtest_x5_x4>
    1354:	00001344          	.word	0x00001344
    1358:	0000a16d          	.word	0x0000a16d
    135c:	00408093          	addi	x1,x1,4

# Testcase cp_rs2_edges (Test source rs2 value = 0x00000001)
  RVTEST_TESTDATA_LOAD_INT(x23, x25) # load rs1: x25 = 0x2ad00e8f
    1360:	000bac83          	lw	x25,0(x23)
    1364:	004b8b93          	addi	x23,x23,4
  RVTEST_TESTDATA_LOAD_INT(x23, x29) # load rs2: x29 = 0x00000001
    1368:	000bae83          	lw	x29,0(x23)
    136c:	004b8b93          	addi	x23,x23,4

00001370 <I_sra_cg_cp_rs2_edges_0x1>:
I_sra_cg_cp_rs2_edges_0x1:
  sra x31, x25, x29 # perform operation
    1370:	41dcdfb3          	sra	x31,x25,x29
  # Check if x31 contains the expected result. x1 is the signature ptr, x5 is the link ptr, x4 is a temp reg.
  RVTEST_SIGUPD(x1, x5, x4, x31, I_sra_cg_cp_rs2_edges_0x1, I_sra_cg_cp_rs2_edges_0x1_str)
    1374:	0000a203          	lw	x4,0(x1)
    1378:	01f20863          	beq	x4,x31,1388 <I_sra_cg_cp_rs2_edges_0x1+0x18>
    137c:	140032ef          	jal	x5,44bc <failedtest_x5_x4>
    1380:	00001370          	.word	0x00001370
    1384:	0000a1a3          	.word	0x0000a1a3
    1388:	00408093          	addi	x1,x1,4

# Testcase cp_rs2_edges (Test source rs2 value = 0x00000002)
  RVTEST_TESTDATA_LOAD_INT(x23, x28) # load rs1: x28 = 0xceac4450
    138c:	000bae03          	lw	x28,0(x23)
    1390:	004b8b93          	addi	x23,x23,4
  RVTEST_TESTDATA_LOAD_INT(x23, x24) # load rs2: x24 = 0x00000002
    1394:	000bac03          	lw	x24,0(x23)
    1398:	004b8b93          	addi	x23,x23,4

0000139c <I_sra_cg_cp_rs2_edges_0x2>:
I_sra_cg_cp_rs2_edges_0x2:
  sra x27, x28, x24 # perform operation
    139c:	418e5db3          	sra	x27,x28,x24
  # Check if x27 contains the expected result. x1 is the signature ptr, x5 is the link ptr, x4 is a temp reg.
  RVTEST_SIGUPD(x1, x5, x4, x27, I_sra_cg_cp_rs2_edges_0x2, I_sra_cg_cp_rs2_edges_0x2_str)
    13a0:	0000a203          	lw	x4,0(x1)
    13a4:	01b20863          	beq	x4,x27,13b4 <I_sra_cg_cp_rs2_edges_0x2+0x18>
    13a8:	114032ef          	jal	x5,44bc <failedtest_x5_x4>
    13ac:	0000139c          	.word	0x0000139c
    13b0:	0000a1d9          	.word	0x0000a1d9
    13b4:	00408093          	addi	x1,x1,4

# Testcase cp_rs2_edges (Test source rs2 value = 0x80000000)
  RVTEST_TESTDATA_LOAD_INT(x23, x24) # load rs1: x24 = 0xa76e103e
    13b8:	000bac03          	lw	x24,0(x23)
    13bc:	004b8b93          	addi	x23,x23,4
  RVTEST_TESTDATA_LOAD_INT(x23, x9) # load rs2: x9 = 0x80000000
    13c0:	000ba483          	lw	x9,0(x23)
    13c4:	004b8b93          	addi	x23,x23,4

000013c8 <I_sra_cg_cp_rs2_edges_0x80000000>:
I_sra_cg_cp_rs2_edges_0x80000000:
  sra x21, x24, x9 # perform operation
    13c8:	409c5ab3          	sra	x21,x24,x9
  # Check if x21 contains the expected result. x1 is the signature ptr, x5 is the link ptr, x4 is a temp reg.
  RVTEST_SIGUPD(x1, x5, x4, x21, I_sra_cg_cp_rs2_edges_0x80000000, I_sra_cg_cp_rs2_edges_0x80000000_str)
    13cc:	0000a203          	lw	x4,0(x1)
    13d0:	01520863          	beq	x4,x21,13e0 <I_sra_cg_cp_rs2_edges_0x80000000+0x18>
    13d4:	0e8032ef          	jal	x5,44bc <failedtest_x5_x4>
    13d8:	000013c8          	.word	0x000013c8
    13dc:	0000a20f          	.word	0x0000a20f
    13e0:	00408093          	addi	x1,x1,4

# Testcase cp_rs2_edges (Test source rs2 value = 0x80000001)
  RVTEST_TESTDATA_LOAD_INT(x23, x14) # load rs1: x14 = 0x9b40f071
    13e4:	000ba703          	lw	x14,0(x23)
    13e8:	004b8b93          	addi	x23,x23,4
  RVTEST_TESTDATA_LOAD_INT(x23, x9) # load rs2: x9 = 0x80000001
    13ec:	000ba483          	lw	x9,0(x23)
    13f0:	004b8b93          	addi	x23,x23,4

000013f4 <I_sra_cg_cp_rs2_edges_0x80000001>:
I_sra_cg_cp_rs2_edges_0x80000001:
  sra x11, x14, x9 # perform operation
    13f4:	409755b3          	sra	x11,x14,x9
  # Check if x11 contains the expected result. x1 is the signature ptr, x5 is the link ptr, x4 is a temp reg.
  RVTEST_SIGUPD(x1, x5, x4, x11, I_sra_cg_cp_rs2_edges_0x80000001, I_sra_cg_cp_rs2_edges_0x80000001_str)
    13f8:	0000a203          	lw	x4,0(x1)
    13fc:	00b20863          	beq	x4,x11,140c <I_sra_cg_cp_rs2_edges_0x80000001+0x18>
    1400:	0bc032ef          	jal	x5,44bc <failedtest_x5_x4>
    1404:	000013f4          	.word	0x000013f4
    1408:	0000a24c          	.word	0x0000a24c
    140c:	00408093          	addi	x1,x1,4

# Testcase cp_rs2_edges (Test source rs2 value = 0x7fffffff)
  RVTEST_TESTDATA_LOAD_INT(x23, x17) # load rs1: x17 = 0xe47170b6
    1410:	000ba883          	lw	x17,0(x23)
    1414:	004b8b93          	addi	x23,x23,4
  RVTEST_TESTDATA_LOAD_INT(x23, x11) # load rs2: x11 = 0x7fffffff
    1418:	000ba583          	lw	x11,0(x23)
    141c:	004b8b93          	addi	x23,x23,4

00001420 <I_sra_cg_cp_rs2_edges_0x7fffffff>:
I_sra_cg_cp_rs2_edges_0x7fffffff:
  sra x21, x17, x11 # perform operation
    1420:	40b8dab3          	sra	x21,x17,x11
  # Check if x21 contains the expected result. x1 is the signature ptr, x5 is the link ptr, x4 is a temp reg.
  RVTEST_SIGUPD(x1, x5, x4, x21, I_sra_cg_cp_rs2_edges_0x7fffffff, I_sra_cg_cp_rs2_edges_0x7fffffff_str)
    1424:	0000a203          	lw	x4,0(x1)
    1428:	01520863          	beq	x4,x21,1438 <I_sra_cg_cp_rs2_edges_0x7fffffff+0x18>
    142c:	090032ef          	jal	x5,44bc <failedtest_x5_x4>
    1430:	00001420          	.word	0x00001420
    1434:	0000a289          	.word	0x0000a289
    1438:	00408093          	addi	x1,x1,4

# Testcase cp_rs2_edges (Test source rs2 value = 0x7ffffffe)
  RVTEST_TESTDATA_LOAD_INT(x23, x13) # load rs1: x13 = 0x5a6c0cef
    143c:	000ba683          	lw	x13,0(x23)
    1440:	004b8b93          	addi	x23,x23,4
  RVTEST_TESTDATA_LOAD_INT(x23, x12) # load rs2: x12 = 0x7ffffffe
    1444:	000ba603          	lw	x12,0(x23)
    1448:	004b8b93          	addi	x23,x23,4

0000144c <I_sra_cg_cp_rs2_edges_0x7ffffffe>:
I_sra_cg_cp_rs2_edges_0x7ffffffe:
  sra x30, x13, x12 # perform operation
    144c:	40c6df33          	sra	x30,x13,x12
  # Check if x30 contains the expected result. x1 is the signature ptr, x5 is the link ptr, x4 is a temp reg.
  RVTEST_SIGUPD(x1, x5, x4, x30, I_sra_cg_cp_rs2_edges_0x7ffffffe, I_sra_cg_cp_rs2_edges_0x7ffffffe_str)
    1450:	0000a203          	lw	x4,0(x1)
    1454:	01e20863          	beq	x4,x30,1464 <I_sra_cg_cp_rs2_edges_0x7ffffffe+0x18>
    1458:	064032ef          	jal	x5,44bc <failedtest_x5_x4>
    145c:	0000144c          	.word	0x0000144c
    1460:	0000a2c6          	.word	0x0000a2c6
    1464:	00408093          	addi	x1,x1,4

# Testcase cp_rs2_edges (Test source rs2 value = 0xffffffff)
  RVTEST_TESTDATA_LOAD_INT(x23, x11) # load rs1: x11 = 0x46fcee21
    1468:	000ba583          	lw	x11,0(x23)
    146c:	004b8b93          	addi	x23,x23,4
  RVTEST_TESTDATA_LOAD_INT(x23, x13) # load rs2: x13 = 0xffffffff
    1470:	000ba683          	lw	x13,0(x23)
    1474:	004b8b93          	addi	x23,x23,4

00001478 <I_sra_cg_cp_rs2_edges_0xffffffff>:
I_sra_cg_cp_rs2_edges_0xffffffff:
  sra x10, x11, x13 # perform operation
    1478:	40d5d533          	sra	x10,x11,x13
  # Check if x10 contains the expected result. x1 is the signature ptr, x5 is the link ptr, x4 is a temp reg.
  RVTEST_SIGUPD(x1, x5, x4, x10, I_sra_cg_cp_rs2_edges_0xffffffff, I_sra_cg_cp_rs2_edges_0xffffffff_str)
    147c:	0000a203          	lw	x4,0(x1)
    1480:	00a20863          	beq	x4,x10,1490 <I_sra_cg_cp_rs2_edges_0xffffffff+0x18>
    1484:	038032ef          	jal	x5,44bc <failedtest_x5_x4>
    1488:	00001478          	.word	0x00001478
    148c:	0000a303          	.word	0x0000a303
    1490:	00408093          	addi	x1,x1,4

# Testcase cp_rs2_edges (Test source rs2 value = 0xfffffffe)
  RVTEST_TESTDATA_LOAD_INT(x23, x11) # load rs1: x11 = 0x9740d3e9
    1494:	000ba583          	lw	x11,0(x23)
    1498:	004b8b93          	addi	x23,x23,4
  RVTEST_TESTDATA_LOAD_INT(x23, x6) # load rs2: x6 = 0xfffffffe
    149c:	000ba303          	lw	x6,0(x23)
    14a0:	004b8b93          	addi	x23,x23,4

000014a4 <I_sra_cg_cp_rs2_edges_0xfffffffe>:
I_sra_cg_cp_rs2_edges_0xfffffffe:
  sra x20, x11, x6 # perform operation
    14a4:	4065da33          	sra	x20,x11,x6
  # Check if x20 contains the expected result. x1 is the signature ptr, x5 is the link ptr, x4 is a temp reg.
  RVTEST_SIGUPD(x1, x5, x4, x20, I_sra_cg_cp_rs2_edges_0xfffffffe, I_sra_cg_cp_rs2_edges_0xfffffffe_str)
    14a8:	0000a203          	lw	x4,0(x1)
    14ac:	01420863          	beq	x4,x20,14bc <I_sra_cg_cp_rs2_edges_0xfffffffe+0x18>
    14b0:	00c032ef          	jal	x5,44bc <failedtest_x5_x4>
    14b4:	000014a4          	.word	0x000014a4
    14b8:	0000a340          	.word	0x0000a340
    14bc:	00408093          	addi	x1,x1,4

# Testcase cp_rs2_edges (Test source rs2 value = 0x5bbc8872)
  RVTEST_TESTDATA_LOAD_INT(x23, x19) # load rs1: x19 = 0xfcb6e454
    14c0:	000ba983          	lw	x19,0(x23)
    14c4:	004b8b93          	addi	x23,x23,4
  RVTEST_TESTDATA_LOAD_INT(x23, x8) # load rs2: x8 = 0x5bbc8872
    14c8:	000ba403          	lw	x8,0(x23)
    14cc:	004b8b93          	addi	x23,x23,4

000014d0 <I_sra_cg_cp_rs2_edges_0x5bbc8872>:
I_sra_cg_cp_rs2_edges_0x5bbc8872:
  sra x31, x19, x8 # perform operation
    14d0:	4089dfb3          	sra	x31,x19,x8
  # Check if x31 contains the expected result. x1 is the signature ptr, x5 is the link ptr, x4 is a temp reg.
  RVTEST_SIGUPD(x1, x5, x4, x31, I_sra_cg_cp_rs2_edges_0x5bbc8872, I_sra_cg_cp_rs2_edges_0x5bbc8872_str)
    14d4:	0000a203          	lw	x4,0(x1)
    14d8:	01f20863          	beq	x4,x31,14e8 <I_sra_cg_cp_rs2_edges_0x5bbc8872+0x18>
    14dc:	7e1022ef          	jal	x5,44bc <failedtest_x5_x4>
    14e0:	000014d0          	.word	0x000014d0
    14e4:	0000a37d          	.word	0x0000a37d
    14e8:	00408093          	addi	x1,x1,4

# Testcase cp_rs2_edges (Test source rs2 value = 0xaaaaaaaa)
  RVTEST_TESTDATA_LOAD_INT(x23, x21) # load rs1: x21 = 0x6ffe548d
    14ec:	000baa83          	lw	x21,0(x23)
    14f0:	004b8b93          	addi	x23,x23,4
  RVTEST_TESTDATA_LOAD_INT(x23, x11) # load rs2: x11 = 0xaaaaaaaa
    14f4:	000ba583          	lw	x11,0(x23)
    14f8:	004b8b93          	addi	x23,x23,4

000014fc <I_sra_cg_cp_rs2_edges_0xaaaaaaaa>:
I_sra_cg_cp_rs2_edges_0xaaaaaaaa:
  sra x14, x21, x11 # perform operation
    14fc:	40bad733          	sra	x14,x21,x11
  # Check if x14 contains the expected result. x1 is the signature ptr, x5 is the link ptr, x4 is a temp reg.
  RVTEST_SIGUPD(x1, x5, x4, x14, I_sra_cg_cp_rs2_edges_0xaaaaaaaa, I_sra_cg_cp_rs2_edges_0xaaaaaaaa_str)
    1500:	0000a203          	lw	x4,0(x1)
    1504:	00e20863          	beq	x4,x14,1514 <I_sra_cg_cp_rs2_edges_0xaaaaaaaa+0x18>
    1508:	7b5022ef          	jal	x5,44bc <failedtest_x5_x4>
    150c:	000014fc          	.word	0x000014fc
    1510:	0000a3ba          	.word	0x0000a3ba
    1514:	00408093          	addi	x1,x1,4

# Testcase cp_rs2_edges (Test source rs2 value = 0x55555555)
  RVTEST_TESTDATA_LOAD_INT(x23, x7) # load rs1: x7 = 0x69949a47
    1518:	000ba383          	lw	x7,0(x23)
    151c:	004b8b93          	addi	x23,x23,4
  RVTEST_TESTDATA_LOAD_INT(x23, x17) # load rs2: x17 = 0x55555555
    1520:	000ba883          	lw	x17,0(x23)
    1524:	004b8b93          	addi	x23,x23,4

00001528 <I_sra_cg_cp_rs2_edges_0x55555555>:
I_sra_cg_cp_rs2_edges_0x55555555:
  sra x10, x7, x17 # perform operation
    1528:	4113d533          	sra	x10,x7,x17
  # Check if x10 contains the expected result. x1 is the signature ptr, x5 is the link ptr, x4 is a temp reg.
  RVTEST_SIGUPD(x1, x5, x4, x10, I_sra_cg_cp_rs2_edges_0x55555555, I_sra_cg_cp_rs2_edges_0x55555555_str)
    152c:	0000a203          	lw	x4,0(x1)
    1530:	00a20863          	beq	x4,x10,1540 <I_sra_cg_cp_rs2_edges_0x55555555+0x18>
    1534:	789022ef          	jal	x5,44bc <failedtest_x5_x4>
    1538:	00001528          	.word	0x00001528
    153c:	0000a3f7          	.word	0x0000a3f7
    1540:	00408093          	addi	x1,x1,4
/////////////////////////////////
// cr_rs1_rs2_edges
/////////////////////////////////

# Testcase cr_rs1_rs2_edges (Test source rs1 = 0x00000000 rs2 = 0x00000000)
  RVTEST_TESTDATA_LOAD_INT(x23, x26) # load rs1: x26 = 0x00000000
    1544:	000bad03          	lw	x26,0(x23)
    1548:	004b8b93          	addi	x23,x23,4
  RVTEST_TESTDATA_LOAD_INT(x23, x3) # load rs2: x3 = 0x00000000
    154c:	000ba183          	lw	x3,0(x23)
    1550:	004b8b93          	addi	x23,x23,4

00001554 <I_sra_cg_cr_rs1_rs2_edges_rs1val_0x0_rs2val_0x0>:
I_sra_cg_cr_rs1_rs2_edges_rs1val_0x0_rs2val_0x0:
  sra x2, x26, x3 # perform operation
    1554:	403d5133          	sra	x2,x26,x3
  # Check if x2 contains the expected result. x1 is the signature ptr, x5 is the link ptr, x4 is a temp reg.
  RVTEST_SIGUPD(x1, x5, x4, x2, I_sra_cg_cr_rs1_rs2_edges_rs1val_0x0_rs2val_0x0, I_sra_cg_cr_rs1_rs2_edges_rs1val_0x0_rs2val_0x0_str)
    1558:	0000a203          	lw	x4,0(x1)
    155c:	00220863          	beq	x4,x2,156c <I_sra_cg_cr_rs1_rs2_edges_rs1val_0x0_rs2val_0x0+0x18>
    1560:	75d022ef          	jal	x5,44bc <failedtest_x5_x4>
    1564:	00001554          	.word	0x00001554
    1568:	0000a434          	.word	0x0000a434
    156c:	00408093          	addi	x1,x1,4

# Testcase cr_rs1_rs2_edges (Test source rs1 = 0x00000000 rs2 = 0x00000001)
  RVTEST_TESTDATA_LOAD_INT(x23, x30) # load rs1: x30 = 0x00000000
    1570:	000baf03          	lw	x30,0(x23)
    1574:	004b8b93          	addi	x23,x23,4
  RVTEST_TESTDATA_LOAD_INT(x23, x9) # load rs2: x9 = 0x00000001
    1578:	000ba483          	lw	x9,0(x23)
    157c:	004b8b93          	addi	x23,x23,4

00001580 <I_sra_cg_cr_rs1_rs2_edges_rs1val_0x0_rs2val_0x1>:
I_sra_cg_cr_rs1_rs2_edges_rs1val_0x0_rs2val_0x1:
  sra x8, x30, x9 # perform operation
    1580:	409f5433          	sra	x8,x30,x9
  # Check if x8 contains the expected result. x1 is the signature ptr, x5 is the link ptr, x4 is a temp reg.
  RVTEST_SIGUPD(x1, x5, x4, x8, I_sra_cg_cr_rs1_rs2_edges_rs1val_0x0_rs2val_0x1, I_sra_cg_cr_rs1_rs2_edges_rs1val_0x0_rs2val_0x1_str)
    1584:	0000a203          	lw	x4,0(x1)
    1588:	00820863          	beq	x4,x8,1598 <I_sra_cg_cr_rs1_rs2_edges_rs1val_0x0_rs2val_0x1+0x18>
    158c:	731022ef          	jal	x5,44bc <failedtest_x5_x4>
    1590:	00001580          	.word	0x00001580
    1594:	0000a481          	.word	0x0000a481
    1598:	00408093          	addi	x1,x1,4

# Testcase cr_rs1_rs2_edges (Test source rs1 = 0x00000000 rs2 = 0x00000002)
  RVTEST_TESTDATA_LOAD_INT(x23, x2) # load rs1: x2 = 0x00000000
    159c:	000ba103          	lw	x2,0(x23)
    15a0:	004b8b93          	addi	x23,x23,4
  RVTEST_TESTDATA_LOAD_INT(x23, x8) # load rs2: x8 = 0x00000002
    15a4:	000ba403          	lw	x8,0(x23)
    15a8:	004b8b93          	addi	x23,x23,4

000015ac <I_sra_cg_cr_rs1_rs2_edges_rs1val_0x0_rs2val_0x2>:
I_sra_cg_cr_rs1_rs2_edges_rs1val_0x0_rs2val_0x2:
  sra x10, x2, x8 # perform operation
    15ac:	40815533          	sra	x10,x2,x8
  # Check if x10 contains the expected result. x1 is the signature ptr, x5 is the link ptr, x4 is a temp reg.
  RVTEST_SIGUPD(x1, x5, x4, x10, I_sra_cg_cr_rs1_rs2_edges_rs1val_0x0_rs2val_0x2, I_sra_cg_cr_rs1_rs2_edges_rs1val_0x0_rs2val_0x2_str)
    15b0:	0000a203          	lw	x4,0(x1)
    15b4:	00a20863          	beq	x4,x10,15c4 <I_sra_cg_cr_rs1_rs2_edges_rs1val_0x0_rs2val_0x2+0x18>
    15b8:	705022ef          	jal	x5,44bc <failedtest_x5_x4>
    15bc:	000015ac          	.word	0x000015ac
    15c0:	0000a4ce          	.word	0x0000a4ce
    15c4:	00408093          	addi	x1,x1,4

# Testcase cr_rs1_rs2_edges (Test source rs1 = 0x00000000 rs2 = 0x80000000)
  RVTEST_TESTDATA_LOAD_INT(x23, x14) # load rs1: x14 = 0x00000000
    15c8:	000ba703          	lw	x14,0(x23)
    15cc:	004b8b93          	addi	x23,x23,4
  RVTEST_TESTDATA_LOAD_INT(x23, x6) # load rs2: x6 = 0x80000000
    15d0:	000ba303          	lw	x6,0(x23)
    15d4:	004b8b93          	addi	x23,x23,4

000015d8 <I_sra_cg_cr_rs1_rs2_edges_rs1val_0x0_rs2val_0x80000000>:
I_sra_cg_cr_rs1_rs2_edges_rs1val_0x0_rs2val_0x80000000:
  sra x12, x14, x6 # perform operation
    15d8:	40675633          	sra	x12,x14,x6
  # Check if x12 contains the expected result. x1 is the signature ptr, x5 is the link ptr, x4 is a temp reg.
  RVTEST_SIGUPD(x1, x5, x4, x12, I_sra_cg_cr_rs1_rs2_edges_rs1val_0x0_rs2val_0x80000000, I_sra_cg_cr_rs1_rs2_edges_rs1val_0x0_rs2val_0x80000000_str)
    15dc:	0000a203          	lw	x4,0(x1)
    15e0:	00c20863          	beq	x4,x12,15f0 <I_sra_cg_cr_rs1_rs2_edges_rs1val_0x0_rs2val_0x80000000+0x18>
    15e4:	6d9022ef          	jal	x5,44bc <failedtest_x5_x4>
    15e8:	000015d8          	.word	0x000015d8
    15ec:	0000a51b          	.word	0x0000a51b
    15f0:	00408093          	addi	x1,x1,4

# Testcase cr_rs1_rs2_edges (Test source rs1 = 0x00000000 rs2 = 0x80000001)
  RVTEST_TESTDATA_LOAD_INT(x23, x3) # load rs1: x3 = 0x00000000
    15f4:	000ba183          	lw	x3,0(x23)
    15f8:	004b8b93          	addi	x23,x23,4
  RVTEST_TESTDATA_LOAD_INT(x23, x19) # load rs2: x19 = 0x80000001
    15fc:	000ba983          	lw	x19,0(x23)
    1600:	004b8b93          	addi	x23,x23,4

00001604 <I_sra_cg_cr_rs1_rs2_edges_rs1val_0x0_rs2val_0x80000001>:
I_sra_cg_cr_rs1_rs2_edges_rs1val_0x0_rs2val_0x80000001:
  sra x26, x3, x19 # perform operation
    1604:	4131dd33          	sra	x26,x3,x19
  # Check if x26 contains the expected result. x1 is the signature ptr, x5 is the link ptr, x4 is a temp reg.
  RVTEST_SIGUPD(x1, x5, x4, x26, I_sra_cg_cr_rs1_rs2_edges_rs1val_0x0_rs2val_0x80000001, I_sra_cg_cr_rs1_rs2_edges_rs1val_0x0_rs2val_0x80000001_str)
    1608:	0000a203          	lw	x4,0(x1)
    160c:	01a20863          	beq	x4,x26,161c <I_sra_cg_cr_rs1_rs2_edges_rs1val_0x0_rs2val_0x80000001+0x18>
    1610:	6ad022ef          	jal	x5,44bc <failedtest_x5_x4>
    1614:	00001604          	.word	0x00001604
    1618:	0000a56f          	.word	0x0000a56f
    161c:	00408093          	addi	x1,x1,4

# Testcase cr_rs1_rs2_edges (Test source rs1 = 0x00000000 rs2 = 0x7fffffff)
  RVTEST_TESTDATA_LOAD_INT(x23, x31) # load rs1: x31 = 0x00000000
    1620:	000baf83          	lw	x31,0(x23)
    1624:	004b8b93          	addi	x23,x23,4
  RVTEST_TESTDATA_LOAD_INT(x23, x30) # load rs2: x30 = 0x7fffffff
    1628:	000baf03          	lw	x30,0(x23)
    162c:	004b8b93          	addi	x23,x23,4

00001630 <I_sra_cg_cr_rs1_rs2_edges_rs1val_0x0_rs2val_0x7fffffff>:
I_sra_cg_cr_rs1_rs2_edges_rs1val_0x0_rs2val_0x7fffffff:
  sra x19, x31, x30 # perform operation
    1630:	41efd9b3          	sra	x19,x31,x30
  # Check if x19 contains the expected result. x1 is the signature ptr, x5 is the link ptr, x4 is a temp reg.
  RVTEST_SIGUPD(x1, x5, x4, x19, I_sra_cg_cr_rs1_rs2_edges_rs1val_0x0_rs2val_0x7fffffff, I_sra_cg_cr_rs1_rs2_edges_rs1val_0x0_rs2val_0x7fffffff_str)
    1634:	0000a203          	lw	x4,0(x1)
    1638:	01320863          	beq	x4,x19,1648 <I_sra_cg_cr_rs1_rs2_edges_rs1val_0x0_rs2val_0x7fffffff+0x18>
    163c:	681022ef          	jal	x5,44bc <failedtest_x5_x4>
    1640:	00001630          	.word	0x00001630
    1644:	0000a5c3          	.word	0x0000a5c3
    1648:	00408093          	addi	x1,x1,4

# Testcase cr_rs1_rs2_edges (Test source rs1 = 0x00000000 rs2 = 0x7ffffffe)
  RVTEST_TESTDATA_LOAD_INT(x23, x21) # load rs1: x21 = 0x00000000
    164c:	000baa83          	lw	x21,0(x23)
    1650:	004b8b93          	addi	x23,x23,4
  RVTEST_TESTDATA_LOAD_INT(x23, x7) # load rs2: x7 = 0x7ffffffe
    1654:	000ba383          	lw	x7,0(x23)
    1658:	004b8b93          	addi	x23,x23,4

0000165c <I_sra_cg_cr_rs1_rs2_edges_rs1val_0x0_rs2val_0x7ffffffe>:
I_sra_cg_cr_rs1_rs2_edges_rs1val_0x0_rs2val_0x7ffffffe:
  sra x10, x21, x7 # perform operation
    165c:	407ad533          	sra	x10,x21,x7
  # Check if x10 contains the expected result. x1 is the signature ptr, x5 is the link ptr, x4 is a temp reg.
  RVTEST_SIGUPD(x1, x5, x4, x10, I_sra_cg_cr_rs1_rs2_edges_rs1val_0x0_rs2val_0x7ffffffe, I_sra_cg_cr_rs1_rs2_edges_rs1val_0x0_rs2val_0x7ffffffe_str)
    1660:	0000a203          	lw	x4,0(x1)
    1664:	00a20863          	beq	x4,x10,1674 <I_sra_cg_cr_rs1_rs2_edges_rs1val_0x0_rs2val_0x7ffffffe+0x18>
    1668:	655022ef          	jal	x5,44bc <failedtest_x5_x4>
    166c:	0000165c          	.word	0x0000165c
    1670:	0000a617          	.word	0x0000a617
    1674:	00408093          	addi	x1,x1,4

# Testcase cr_rs1_rs2_edges (Test source rs1 = 0x00000000 rs2 = 0xffffffff)
  RVTEST_TESTDATA_LOAD_INT(x23, x18) # load rs1: x18 = 0x00000000
    1678:	000ba903          	lw	x18,0(x23)
    167c:	004b8b93          	addi	x23,x23,4
  RVTEST_TESTDATA_LOAD_INT(x23, x31) # load rs2: x31 = 0xffffffff
    1680:	000baf83          	lw	x31,0(x23)
    1684:	004b8b93          	addi	x23,x23,4

00001688 <I_sra_cg_cr_rs1_rs2_edges_rs1val_0x0_rs2val_0xffffffff>:
I_sra_cg_cr_rs1_rs2_edges_rs1val_0x0_rs2val_0xffffffff:
  sra x22, x18, x31 # perform operation
    1688:	41f95b33          	sra	x22,x18,x31
  # Check if x22 contains the expected result. x1 is the signature ptr, x5 is the link ptr, x4 is a temp reg.
  RVTEST_SIGUPD(x1, x5, x4, x22, I_sra_cg_cr_rs1_rs2_edges_rs1val_0x0_rs2val_0xffffffff, I_sra_cg_cr_rs1_rs2_edges_rs1val_0x0_rs2val_0xffffffff_str)
    168c:	0000a203          	lw	x4,0(x1)
    1690:	01620863          	beq	x4,x22,16a0 <I_sra_cg_cr_rs1_rs2_edges_rs1val_0x0_rs2val_0xffffffff+0x18>
    1694:	629022ef          	jal	x5,44bc <failedtest_x5_x4>
    1698:	00001688          	.word	0x00001688
    169c:	0000a66b          	.word	0x0000a66b
    16a0:	00408093          	addi	x1,x1,4

# Testcase cr_rs1_rs2_edges (Test source rs1 = 0x00000000 rs2 = 0xfffffffe)
  RVTEST_TESTDATA_LOAD_INT(x23, x18) # load rs1: x18 = 0x00000000
    16a4:	000ba903          	lw	x18,0(x23)
    16a8:	004b8b93          	addi	x23,x23,4
  RVTEST_TESTDATA_LOAD_INT(x23, x30) # load rs2: x30 = 0xfffffffe
    16ac:	000baf03          	lw	x30,0(x23)
    16b0:	004b8b93          	addi	x23,x23,4

000016b4 <I_sra_cg_cr_rs1_rs2_edges_rs1val_0x0_rs2val_0xfffffffe>:
I_sra_cg_cr_rs1_rs2_edges_rs1val_0x0_rs2val_0xfffffffe:
  sra x10, x18, x30 # perform operation
    16b4:	41e95533          	sra	x10,x18,x30
  # Check if x10 contains the expected result. x1 is the signature ptr, x5 is the link ptr, x4 is a temp reg.
  RVTEST_SIGUPD(x1, x5, x4, x10, I_sra_cg_cr_rs1_rs2_edges_rs1val_0x0_rs2val_0xfffffffe, I_sra_cg_cr_rs1_rs2_edges_rs1val_0x0_rs2val_0xfffffffe_str)
    16b8:	0000a203          	lw	x4,0(x1)
    16bc:	00a20863          	beq	x4,x10,16cc <I_sra_cg_cr_rs1_rs2_edges_rs1val_0x0_rs2val_0xfffffffe+0x18>
    16c0:	5fd022ef          	jal	x5,44bc <failedtest_x5_x4>
    16c4:	000016b4          	.word	0x000016b4
    16c8:	0000a6bf          	.word	0x0000a6bf
    16cc:	00408093          	addi	x1,x1,4

# Testcase cr_rs1_rs2_edges (Test source rs1 = 0x00000000 rs2 = 0x5bbc8872)
  RVTEST_TESTDATA_LOAD_INT(x23, x21) # load rs1: x21 = 0x00000000
    16d0:	000baa83          	lw	x21,0(x23)
    16d4:	004b8b93          	addi	x23,x23,4
  RVTEST_TESTDATA_LOAD_INT(x23, x29) # load rs2: x29 = 0x5bbc8872
    16d8:	000bae83          	lw	x29,0(x23)
    16dc:	004b8b93          	addi	x23,x23,4

000016e0 <I_sra_cg_cr_rs1_rs2_edges_rs1val_0x0_rs2val_0x5bbc8872>:
I_sra_cg_cr_rs1_rs2_edges_rs1val_0x0_rs2val_0x5bbc8872:
  sra x11, x21, x29 # perform operation
    16e0:	41dad5b3          	sra	x11,x21,x29
  # Check if x11 contains the expected result. x1 is the signature ptr, x5 is the link ptr, x4 is a temp reg.
  RVTEST_SIGUPD(x1, x5, x4, x11, I_sra_cg_cr_rs1_rs2_edges_rs1val_0x0_rs2val_0x5bbc8872, I_sra_cg_cr_rs1_rs2_edges_rs1val_0x0_rs2val_0x5bbc8872_str)
    16e4:	0000a203          	lw	x4,0(x1)
    16e8:	00b20863          	beq	x4,x11,16f8 <I_sra_cg_cr_rs1_rs2_edges_rs1val_0x0_rs2val_0x5bbc8872+0x18>
    16ec:	5d1022ef          	jal	x5,44bc <failedtest_x5_x4>
    16f0:	000016e0          	.word	0x000016e0
    16f4:	0000a713          	.word	0x0000a713
    16f8:	00408093          	addi	x1,x1,4

# Testcase cr_rs1_rs2_edges (Test source rs1 = 0x00000000 rs2 = 0xaaaaaaaa)
  RVTEST_TESTDATA_LOAD_INT(x23, x11) # load rs1: x11 = 0x00000000
    16fc:	000ba583          	lw	x11,0(x23)
    1700:	004b8b93          	addi	x23,x23,4
  RVTEST_TESTDATA_LOAD_INT(x23, x19) # load rs2: x19 = 0xaaaaaaaa
    1704:	000ba983          	lw	x19,0(x23)
    1708:	004b8b93          	addi	x23,x23,4

0000170c <I_sra_cg_cr_rs1_rs2_edges_rs1val_0x0_rs2val_0xaaaaaaaa>:
I_sra_cg_cr_rs1_rs2_edges_rs1val_0x0_rs2val_0xaaaaaaaa:
  sra x18, x11, x19 # perform operation
    170c:	4135d933          	sra	x18,x11,x19
  # Check if x18 contains the expected result. x1 is the signature ptr, x5 is the link ptr, x4 is a temp reg.
  RVTEST_SIGUPD(x1, x5, x4, x18, I_sra_cg_cr_rs1_rs2_edges_rs1val_0x0_rs2val_0xaaaaaaaa, I_sra_cg_cr_rs1_rs2_edges_rs1val_0x0_rs2val_0xaaaaaaaa_str)
    1710:	0000a203          	lw	x4,0(x1)
    1714:	01220863          	beq	x4,x18,1724 <I_sra_cg_cr_rs1_rs2_edges_rs1val_0x0_rs2val_0xaaaaaaaa+0x18>
    1718:	5a5022ef          	jal	x5,44bc <failedtest_x5_x4>
    171c:	0000170c          	.word	0x0000170c
    1720:	0000a767          	.word	0x0000a767
    1724:	00408093          	addi	x1,x1,4

# Testcase cr_rs1_rs2_edges (Test source rs1 = 0x00000000 rs2 = 0x55555555)
  RVTEST_TESTDATA_LOAD_INT(x23, x9) # load rs1: x9 = 0x00000000
    1728:	000ba483          	lw	x9,0(x23)
    172c:	004b8b93          	addi	x23,x23,4
  RVTEST_TESTDATA_LOAD_INT(x23, x6) # load rs2: x6 = 0x55555555
    1730:	000ba303          	lw	x6,0(x23)
    1734:	004b8b93          	addi	x23,x23,4

00001738 <I_sra_cg_cr_rs1_rs2_edges_rs1val_0x0_rs2val_0x55555555>:
I_sra_cg_cr_rs1_rs2_edges_rs1val_0x0_rs2val_0x55555555:
  sra x25, x9, x6 # perform operation
    1738:	4064dcb3          	sra	x25,x9,x6
  # Check if x25 contains the expected result. x1 is the signature ptr, x5 is the link ptr, x4 is a temp reg.
  RVTEST_SIGUPD(x1, x5, x4, x25, I_sra_cg_cr_rs1_rs2_edges_rs1val_0x0_rs2val_0x55555555, I_sra_cg_cr_rs1_rs2_edges_rs1val_0x0_rs2val_0x55555555_str)
    173c:	0000a203          	lw	x4,0(x1)
    1740:	01920863          	beq	x4,x25,1750 <I_sra_cg_cr_rs1_rs2_edges_rs1val_0x0_rs2val_0x55555555+0x18>
    1744:	579022ef          	jal	x5,44bc <failedtest_x5_x4>
    1748:	00001738          	.word	0x00001738
    174c:	0000a7bb          	.word	0x0000a7bb
    1750:	00408093          	addi	x1,x1,4

# Testcase cr_rs1_rs2_edges (Test source rs1 = 0x00000001 rs2 = 0x00000000)
  RVTEST_TESTDATA_LOAD_INT(x23, x27) # load rs1: x27 = 0x00000001
    1754:	000bad83          	lw	x27,0(x23)
    1758:	004b8b93          	addi	x23,x23,4
  RVTEST_TESTDATA_LOAD_INT(x23, x22) # load rs2: x22 = 0x00000000
    175c:	000bab03          	lw	x22,0(x23)
    1760:	004b8b93          	addi	x23,x23,4

00001764 <I_sra_cg_cr_rs1_rs2_edges_rs1val_0x1_rs2val_0x0>:
I_sra_cg_cr_rs1_rs2_edges_rs1val_0x1_rs2val_0x0:
  sra x6, x27, x22 # perform operation
    1764:	416dd333          	sra	x6,x27,x22
  # Check if x6 contains the expected result. x1 is the signature ptr, x5 is the link ptr, x4 is a temp reg.
  RVTEST_SIGUPD(x1, x5, x4, x6, I_sra_cg_cr_rs1_rs2_edges_rs1val_0x1_rs2val_0x0, I_sra_cg_cr_rs1_rs2_edges_rs1val_0x1_rs2val_0x0_str)
    1768:	0000a203          	lw	x4,0(x1)
    176c:	00620863          	beq	x4,x6,177c <I_sra_cg_cr_rs1_rs2_edges_rs1val_0x1_rs2val_0x0+0x18>
    1770:	54d022ef          	jal	x5,44bc <failedtest_x5_x4>
    1774:	00001764          	.word	0x00001764
    1778:	0000a80f          	.word	0x0000a80f
    177c:	00408093          	addi	x1,x1,4

# Testcase cr_rs1_rs2_edges (Test source rs1 = 0x00000001 rs2 = 0x00000001)
  RVTEST_TESTDATA_LOAD_INT(x23, x11) # load rs1: x11 = 0x00000001
    1780:	000ba583          	lw	x11,0(x23)
    1784:	004b8b93          	addi	x23,x23,4
  RVTEST_TESTDATA_LOAD_INT(x23, x17) # load rs2: x17 = 0x00000001
    1788:	000ba883          	lw	x17,0(x23)
    178c:	004b8b93          	addi	x23,x23,4

00001790 <I_sra_cg_cr_rs1_rs2_edges_rs1val_0x1_rs2val_0x1>:
I_sra_cg_cr_rs1_rs2_edges_rs1val_0x1_rs2val_0x1:
  sra x6, x11, x17 # perform operation
    1790:	4115d333          	sra	x6,x11,x17
  # Check if x6 contains the expected result. x1 is the signature ptr, x5 is the link ptr, x4 is a temp reg.
  RVTEST_SIGUPD(x1, x5, x4, x6, I_sra_cg_cr_rs1_rs2_edges_rs1val_0x1_rs2val_0x1, I_sra_cg_cr_rs1_rs2_edges_rs1val_0x1_rs2val_0x1_str)
    1794:	0000a203          	lw	x4,0(x1)
    1798:	00620863          	beq	x4,x6,17a8 <I_sra_cg_cr_rs1_rs2_edges_rs1val_0x1_rs2val_0x1+0x18>
    179c:	521022ef          	jal	x5,44bc <failedtest_x5_x4>
    17a0:	00001790          	.word	0x00001790
    17a4:	0000a85c          	.word	0x0000a85c
    17a8:	00408093          	addi	x1,x1,4

# Testcase cr_rs1_rs2_edges (Test source rs1 = 0x00000001 rs2 = 0x00000002)
  RVTEST_TESTDATA_LOAD_INT(x23, x21) # load rs1: x21 = 0x00000001
    17ac:	000baa83          	lw	x21,0(x23)
    17b0:	004b8b93          	addi	x23,x23,4
  RVTEST_TESTDATA_LOAD_INT(x23, x6) # load rs2: x6 = 0x00000002
    17b4:	000ba303          	lw	x6,0(x23)
    17b8:	004b8b93          	addi	x23,x23,4

000017bc <I_sra_cg_cr_rs1_rs2_edges_rs1val_0x1_rs2val_0x2>:
I_sra_cg_cr_rs1_rs2_edges_rs1val_0x1_rs2val_0x2:
  sra x12, x21, x6 # perform operation
    17bc:	406ad633          	sra	x12,x21,x6
  # Check if x12 contains the expected result. x1 is the signature ptr, x5 is the link ptr, x4 is a temp reg.
  RVTEST_SIGUPD(x1, x5, x4, x12, I_sra_cg_cr_rs1_rs2_edges_rs1val_0x1_rs2val_0x2, I_sra_cg_cr_rs1_rs2_edges_rs1val_0x1_rs2val_0x2_str)
    17c0:	0000a203          	lw	x4,0(x1)
    17c4:	00c20863          	beq	x4,x12,17d4 <I_sra_cg_cr_rs1_rs2_edges_rs1val_0x1_rs2val_0x2+0x18>
    17c8:	4f5022ef          	jal	x5,44bc <failedtest_x5_x4>
    17cc:	000017bc          	.word	0x000017bc
    17d0:	0000a8a9          	.word	0x0000a8a9
    17d4:	00408093          	addi	x1,x1,4

# Testcase cr_rs1_rs2_edges (Test source rs1 = 0x00000001 rs2 = 0x80000000)
  RVTEST_TESTDATA_LOAD_INT(x23, x19) # load rs1: x19 = 0x00000001
    17d8:	000ba983          	lw	x19,0(x23)
    17dc:	004b8b93          	addi	x23,x23,4
  RVTEST_TESTDATA_LOAD_INT(x23, x13) # load rs2: x13 = 0x80000000
    17e0:	000ba683          	lw	x13,0(x23)
    17e4:	004b8b93          	addi	x23,x23,4

000017e8 <I_sra_cg_cr_rs1_rs2_edges_rs1val_0x1_rs2val_0x80000000>:
I_sra_cg_cr_rs1_rs2_edges_rs1val_0x1_rs2val_0x80000000:
  sra x21, x19, x13 # perform operation
    17e8:	40d9dab3          	sra	x21,x19,x13
  # Check if x21 contains the expected result. x1 is the signature ptr, x5 is the link ptr, x4 is a temp reg.
  RVTEST_SIGUPD(x1, x5, x4, x21, I_sra_cg_cr_rs1_rs2_edges_rs1val_0x1_rs2val_0x80000000, I_sra_cg_cr_rs1_rs2_edges_rs1val_0x1_rs2val_0x80000000_str)
    17ec:	0000a203          	lw	x4,0(x1)
    17f0:	01520863          	beq	x4,x21,1800 <I_sra_cg_cr_rs1_rs2_edges_rs1val_0x1_rs2val_0x80000000+0x18>
    17f4:	4c9022ef          	jal	x5,44bc <failedtest_x5_x4>
    17f8:	000017e8          	.word	0x000017e8
    17fc:	0000a8f6          	.word	0x0000a8f6
    1800:	00408093          	addi	x1,x1,4

# Testcase cr_rs1_rs2_edges (Test source rs1 = 0x00000001 rs2 = 0x80000001)
  RVTEST_TESTDATA_LOAD_INT(x23, x6) # load rs1: x6 = 0x00000001
    1804:	000ba303          	lw	x6,0(x23)
    1808:	004b8b93          	addi	x23,x23,4
  RVTEST_TESTDATA_LOAD_INT(x23, x25) # load rs2: x25 = 0x80000001
    180c:	000bac83          	lw	x25,0(x23)
    1810:	004b8b93          	addi	x23,x23,4

00001814 <I_sra_cg_cr_rs1_rs2_edges_rs1val_0x1_rs2val_0x80000001>:
I_sra_cg_cr_rs1_rs2_edges_rs1val_0x1_rs2val_0x80000001:
  sra x8, x6, x25 # perform operation
    1814:	41935433          	sra	x8,x6,x25
  # Check if x8 contains the expected result. x1 is the signature ptr, x5 is the link ptr, x4 is a temp reg.
  RVTEST_SIGUPD(x1, x5, x4, x8, I_sra_cg_cr_rs1_rs2_edges_rs1val_0x1_rs2val_0x80000001, I_sra_cg_cr_rs1_rs2_edges_rs1val_0x1_rs2val_0x80000001_str)
    1818:	0000a203          	lw	x4,0(x1)
    181c:	00820863          	beq	x4,x8,182c <I_sra_cg_cr_rs1_rs2_edges_rs1val_0x1_rs2val_0x80000001+0x18>
    1820:	49d022ef          	jal	x5,44bc <failedtest_x5_x4>
    1824:	00001814          	.word	0x00001814
    1828:	0000a94a          	.word	0x0000a94a
    182c:	00408093          	addi	x1,x1,4

# Testcase cr_rs1_rs2_edges (Test source rs1 = 0x00000001 rs2 = 0x7fffffff)
  RVTEST_TESTDATA_LOAD_INT(x23, x2) # load rs1: x2 = 0x00000001
    1830:	000ba103          	lw	x2,0(x23)
    1834:	004b8b93          	addi	x23,x23,4
  RVTEST_TESTDATA_LOAD_INT(x23, x16) # load rs2: x16 = 0x7fffffff
    1838:	000ba803          	lw	x16,0(x23)
    183c:	004b8b93          	addi	x23,x23,4

00001840 <I_sra_cg_cr_rs1_rs2_edges_rs1val_0x1_rs2val_0x7fffffff>:
I_sra_cg_cr_rs1_rs2_edges_rs1val_0x1_rs2val_0x7fffffff:
  sra x8, x2, x16 # perform operation
    1840:	41015433          	sra	x8,x2,x16
  # Check if x8 contains the expected result. x1 is the signature ptr, x5 is the link ptr, x4 is a temp reg.
  RVTEST_SIGUPD(x1, x5, x4, x8, I_sra_cg_cr_rs1_rs2_edges_rs1val_0x1_rs2val_0x7fffffff, I_sra_cg_cr_rs1_rs2_edges_rs1val_0x1_rs2val_0x7fffffff_str)
    1844:	0000a203          	lw	x4,0(x1)
    1848:	00820863          	beq	x4,x8,1858 <I_sra_cg_cr_rs1_rs2_edges_rs1val_0x1_rs2val_0x7fffffff+0x18>
    184c:	471022ef          	jal	x5,44bc <failedtest_x5_x4>
    1850:	00001840          	.word	0x00001840
    1854:	0000a99e          	.word	0x0000a99e
    1858:	00408093          	addi	x1,x1,4

# Testcase cr_rs1_rs2_edges (Test source rs1 = 0x00000001 rs2 = 0x7ffffffe)
  RVTEST_TESTDATA_LOAD_INT(x23, x26) # load rs1: x26 = 0x00000001
    185c:	000bad03          	lw	x26,0(x23)
    1860:	004b8b93          	addi	x23,x23,4
  RVTEST_TESTDATA_LOAD_INT(x23, x10) # load rs2: x10 = 0x7ffffffe
    1864:	000ba503          	lw	x10,0(x23)
    1868:	004b8b93          	addi	x23,x23,4

0000186c <I_sra_cg_cr_rs1_rs2_edges_rs1val_0x1_rs2val_0x7ffffffe>:
I_sra_cg_cr_rs1_rs2_edges_rs1val_0x1_rs2val_0x7ffffffe:
  sra x30, x26, x10 # perform operation
    186c:	40ad5f33          	sra	x30,x26,x10
  # Check if x30 contains the expected result. x1 is the signature ptr, x5 is the link ptr, x4 is a temp reg.
  RVTEST_SIGUPD(x1, x5, x4, x30, I_sra_cg_cr_rs1_rs2_edges_rs1val_0x1_rs2val_0x7ffffffe, I_sra_cg_cr_rs1_rs2_edges_rs1val_0x1_rs2val_0x7ffffffe_str)
    1870:	0000a203          	lw	x4,0(x1)
    1874:	01e20863          	beq	x4,x30,1884 <I_sra_cg_cr_rs1_rs2_edges_rs1val_0x1_rs2val_0x7ffffffe+0x18>
    1878:	445022ef          	jal	x5,44bc <failedtest_x5_x4>
    187c:	0000186c          	.word	0x0000186c
    1880:	0000a9f2          	.word	0x0000a9f2
    1884:	00408093          	addi	x1,x1,4

# Testcase cr_rs1_rs2_edges (Test source rs1 = 0x00000001 rs2 = 0xffffffff)
  RVTEST_TESTDATA_LOAD_INT(x23, x28) # load rs1: x28 = 0x00000001
    1888:	000bae03          	lw	x28,0(x23)
    188c:	004b8b93          	addi	x23,x23,4
  RVTEST_TESTDATA_LOAD_INT(x23, x15) # load rs2: x15 = 0xffffffff
    1890:	000ba783          	lw	x15,0(x23)
    1894:	004b8b93          	addi	x23,x23,4

00001898 <I_sra_cg_cr_rs1_rs2_edges_rs1val_0x1_rs2val_0xffffffff>:
I_sra_cg_cr_rs1_rs2_edges_rs1val_0x1_rs2val_0xffffffff:
  sra x20, x28, x15 # perform operation
    1898:	40fe5a33          	sra	x20,x28,x15
  # Check if x20 contains the expected result. x1 is the signature ptr, x5 is the link ptr, x4 is a temp reg.
  RVTEST_SIGUPD(x1, x5, x4, x20, I_sra_cg_cr_rs1_rs2_edges_rs1val_0x1_rs2val_0xffffffff, I_sra_cg_cr_rs1_rs2_edges_rs1val_0x1_rs2val_0xffffffff_str)
    189c:	0000a203          	lw	x4,0(x1)
    18a0:	01420863          	beq	x4,x20,18b0 <I_sra_cg_cr_rs1_rs2_edges_rs1val_0x1_rs2val_0xffffffff+0x18>
    18a4:	419022ef          	jal	x5,44bc <failedtest_x5_x4>
    18a8:	00001898          	.word	0x00001898
    18ac:	0000aa46          	.word	0x0000aa46
    18b0:	00408093          	addi	x1,x1,4

# Testcase cr_rs1_rs2_edges (Test source rs1 = 0x00000001 rs2 = 0xfffffffe)
  RVTEST_TESTDATA_LOAD_INT(x23, x6) # load rs1: x6 = 0x00000001
    18b4:	000ba303          	lw	x6,0(x23)
    18b8:	004b8b93          	addi	x23,x23,4
  RVTEST_TESTDATA_LOAD_INT(x23, x17) # load rs2: x17 = 0xfffffffe
    18bc:	000ba883          	lw	x17,0(x23)
    18c0:	004b8b93          	addi	x23,x23,4

000018c4 <I_sra_cg_cr_rs1_rs2_edges_rs1val_0x1_rs2val_0xfffffffe>:
I_sra_cg_cr_rs1_rs2_edges_rs1val_0x1_rs2val_0xfffffffe:
  sra x3, x6, x17 # perform operation
    18c4:	411351b3          	sra	x3,x6,x17
  # Check if x3 contains the expected result. x1 is the signature ptr, x5 is the link ptr, x4 is a temp reg.
  RVTEST_SIGUPD(x1, x5, x4, x3, I_sra_cg_cr_rs1_rs2_edges_rs1val_0x1_rs2val_0xfffffffe, I_sra_cg_cr_rs1_rs2_edges_rs1val_0x1_rs2val_0xfffffffe_str)
    18c8:	0000a203          	lw	x4,0(x1)
    18cc:	00320863          	beq	x4,x3,18dc <I_sra_cg_cr_rs1_rs2_edges_rs1val_0x1_rs2val_0xfffffffe+0x18>
    18d0:	3ed022ef          	jal	x5,44bc <failedtest_x5_x4>
    18d4:	000018c4          	.word	0x000018c4
    18d8:	0000aa9a          	.word	0x0000aa9a
    18dc:	00408093          	addi	x1,x1,4

# Testcase cr_rs1_rs2_edges (Test source rs1 = 0x00000001 rs2 = 0x5bbc8872)
  RVTEST_TESTDATA_LOAD_INT(x23, x25) # load rs1: x25 = 0x00000001
    18e0:	000bac83          	lw	x25,0(x23)
    18e4:	004b8b93          	addi	x23,x23,4
  RVTEST_TESTDATA_LOAD_INT(x23, x31) # load rs2: x31 = 0x5bbc8872
    18e8:	000baf83          	lw	x31,0(x23)
    18ec:	004b8b93          	addi	x23,x23,4

000018f0 <I_sra_cg_cr_rs1_rs2_edges_rs1val_0x1_rs2val_0x5bbc8872>:
I_sra_cg_cr_rs1_rs2_edges_rs1val_0x1_rs2val_0x5bbc8872:
  sra x3, x25, x31 # perform operation
    18f0:	41fcd1b3          	sra	x3,x25,x31
  # Check if x3 contains the expected result. x1 is the signature ptr, x5 is the link ptr, x4 is a temp reg.
  RVTEST_SIGUPD(x1, x5, x4, x3, I_sra_cg_cr_rs1_rs2_edges_rs1val_0x1_rs2val_0x5bbc8872, I_sra_cg_cr_rs1_rs2_edges_rs1val_0x1_rs2val_0x5bbc8872_str)
    18f4:	0000a203          	lw	x4,0(x1)
    18f8:	00320863          	beq	x4,x3,1908 <I_sra_cg_cr_rs1_rs2_edges_rs1val_0x1_rs2val_0x5bbc8872+0x18>
    18fc:	3c1022ef          	jal	x5,44bc <failedtest_x5_x4>
    1900:	000018f0          	.word	0x000018f0
    1904:	0000aaee          	.word	0x0000aaee
    1908:	00408093          	addi	x1,x1,4

# Testcase cr_rs1_rs2_edges (Test source rs1 = 0x00000001 rs2 = 0xaaaaaaaa)
  RVTEST_TESTDATA_LOAD_INT(x23, x2) # load rs1: x2 = 0x00000001
    190c:	000ba103          	lw	x2,0(x23)
    1910:	004b8b93          	addi	x23,x23,4
  RVTEST_TESTDATA_LOAD_INT(x23, x14) # load rs2: x14 = 0xaaaaaaaa
    1914:	000ba703          	lw	x14,0(x23)
    1918:	004b8b93          	addi	x23,x23,4

0000191c <I_sra_cg_cr_rs1_rs2_edges_rs1val_0x1_rs2val_0xaaaaaaaa>:
I_sra_cg_cr_rs1_rs2_edges_rs1val_0x1_rs2val_0xaaaaaaaa:
  sra x30, x2, x14 # perform operation
    191c:	40e15f33          	sra	x30,x2,x14
  # Check if x30 contains the expected result. x1 is the signature ptr, x5 is the link ptr, x4 is a temp reg.
  RVTEST_SIGUPD(x1, x5, x4, x30, I_sra_cg_cr_rs1_rs2_edges_rs1val_0x1_rs2val_0xaaaaaaaa, I_sra_cg_cr_rs1_rs2_edges_rs1val_0x1_rs2val_0xaaaaaaaa_str)
    1920:	0000a203          	lw	x4,0(x1)
    1924:	01e20863          	beq	x4,x30,1934 <I_sra_cg_cr_rs1_rs2_edges_rs1val_0x1_rs2val_0xaaaaaaaa+0x18>
    1928:	395022ef          	jal	x5,44bc <failedtest_x5_x4>
    192c:	0000191c          	.word	0x0000191c
    1930:	0000ab42          	.word	0x0000ab42
    1934:	00408093          	addi	x1,x1,4

# Testcase cr_rs1_rs2_edges (Test source rs1 = 0x00000001 rs2 = 0x55555555)
  RVTEST_TESTDATA_LOAD_INT(x23, x31) # load rs1: x31 = 0x00000001
    1938:	000baf83          	lw	x31,0(x23)
    193c:	004b8b93          	addi	x23,x23,4
  RVTEST_TESTDATA_LOAD_INT(x23, x30) # load rs2: x30 = 0x55555555
    1940:	000baf03          	lw	x30,0(x23)
    1944:	004b8b93          	addi	x23,x23,4

00001948 <I_sra_cg_cr_rs1_rs2_edges_rs1val_0x1_rs2val_0x55555555>:
I_sra_cg_cr_rs1_rs2_edges_rs1val_0x1_rs2val_0x55555555:
  sra x7, x31, x30 # perform operation
    1948:	41efd3b3          	sra	x7,x31,x30
  # Check if x7 contains the expected result. x1 is the signature ptr, x5 is the link ptr, x4 is a temp reg.
  RVTEST_SIGUPD(x1, x5, x4, x7, I_sra_cg_cr_rs1_rs2_edges_rs1val_0x1_rs2val_0x55555555, I_sra_cg_cr_rs1_rs2_edges_rs1val_0x1_rs2val_0x55555555_str)
    194c:	0000a203          	lw	x4,0(x1)
    1950:	00720863          	beq	x4,x7,1960 <I_sra_cg_cr_rs1_rs2_edges_rs1val_0x1_rs2val_0x55555555+0x18>
    1954:	369022ef          	jal	x5,44bc <failedtest_x5_x4>
    1958:	00001948          	.word	0x00001948
    195c:	0000ab96          	.word	0x0000ab96
    1960:	00408093          	addi	x1,x1,4

# Testcase cr_rs1_rs2_edges (Test source rs1 = 0x00000002 rs2 = 0x00000000)
  RVTEST_TESTDATA_LOAD_INT(x23, x31) # load rs1: x31 = 0x00000002
    1964:	000baf83          	lw	x31,0(x23)
    1968:	004b8b93          	addi	x23,x23,4
  RVTEST_TESTDATA_LOAD_INT(x23, x7) # load rs2: x7 = 0x00000000
    196c:	000ba383          	lw	x7,0(x23)
    1970:	004b8b93          	addi	x23,x23,4

00001974 <I_sra_cg_cr_rs1_rs2_edges_rs1val_0x2_rs2val_0x0>:
I_sra_cg_cr_rs1_rs2_edges_rs1val_0x2_rs2val_0x0:
  sra x10, x31, x7 # perform operation
    1974:	407fd533          	sra	x10,x31,x7
  # Check if x10 contains the expected result. x1 is the signature ptr, x5 is the link ptr, x4 is a temp reg.
  RVTEST_SIGUPD(x1, x5, x4, x10, I_sra_cg_cr_rs1_rs2_edges_rs1val_0x2_rs2val_0x0, I_sra_cg_cr_rs1_rs2_edges_rs1val_0x2_rs2val_0x0_str)
    1978:	0000a203          	lw	x4,0(x1)
    197c:	00a20863          	beq	x4,x10,198c <I_sra_cg_cr_rs1_rs2_edges_rs1val_0x2_rs2val_0x0+0x18>
    1980:	33d022ef          	jal	x5,44bc <failedtest_x5_x4>
    1984:	00001974          	.word	0x00001974
    1988:	0000abea          	.word	0x0000abea
    198c:	00408093          	addi	x1,x1,4

# Testcase cr_rs1_rs2_edges (Test source rs1 = 0x00000002 rs2 = 0x00000001)
  RVTEST_TESTDATA_LOAD_INT(x23, x8) # load rs1: x8 = 0x00000002
    1990:	000ba403          	lw	x8,0(x23)
    1994:	004b8b93          	addi	x23,x23,4
  RVTEST_TESTDATA_LOAD_INT(x23, x25) # load rs2: x25 = 0x00000001
    1998:	000bac83          	lw	x25,0(x23)
    199c:	004b8b93          	addi	x23,x23,4

000019a0 <I_sra_cg_cr_rs1_rs2_edges_rs1val_0x2_rs2val_0x1>:
I_sra_cg_cr_rs1_rs2_edges_rs1val_0x2_rs2val_0x1:
  sra x24, x8, x25 # perform operation
    19a0:	41945c33          	sra	x24,x8,x25
  # Check if x24 contains the expected result. x1 is the signature ptr, x5 is the link ptr, x4 is a temp reg.
  RVTEST_SIGUPD(x1, x5, x4, x24, I_sra_cg_cr_rs1_rs2_edges_rs1val_0x2_rs2val_0x1, I_sra_cg_cr_rs1_rs2_edges_rs1val_0x2_rs2val_0x1_str)
    19a4:	0000a203          	lw	x4,0(x1)
    19a8:	01820863          	beq	x4,x24,19b8 <I_sra_cg_cr_rs1_rs2_edges_rs1val_0x2_rs2val_0x1+0x18>
    19ac:	311022ef          	jal	x5,44bc <failedtest_x5_x4>
    19b0:	000019a0          	.word	0x000019a0
    19b4:	0000ac37          	.word	0x0000ac37
    19b8:	00408093          	addi	x1,x1,4

# Testcase cr_rs1_rs2_edges (Test source rs1 = 0x00000002 rs2 = 0x00000002)
  RVTEST_TESTDATA_LOAD_INT(x23, x27) # load rs1: x27 = 0x00000002
    19bc:	000bad83          	lw	x27,0(x23)
    19c0:	004b8b93          	addi	x23,x23,4
  RVTEST_TESTDATA_LOAD_INT(x23, x31) # load rs2: x31 = 0x00000002
    19c4:	000baf83          	lw	x31,0(x23)
    19c8:	004b8b93          	addi	x23,x23,4

000019cc <I_sra_cg_cr_rs1_rs2_edges_rs1val_0x2_rs2val_0x2>:
I_sra_cg_cr_rs1_rs2_edges_rs1val_0x2_rs2val_0x2:
  sra x20, x27, x31 # perform operation
    19cc:	41fdda33          	sra	x20,x27,x31
  # Check if x20 contains the expected result. x1 is the signature ptr, x5 is the link ptr, x4 is a temp reg.
  RVTEST_SIGUPD(x1, x5, x4, x20, I_sra_cg_cr_rs1_rs2_edges_rs1val_0x2_rs2val_0x2, I_sra_cg_cr_rs1_rs2_edges_rs1val_0x2_rs2val_0x2_str)
    19d0:	0000a203          	lw	x4,0(x1)
    19d4:	01420863          	beq	x4,x20,19e4 <I_sra_cg_cr_rs1_rs2_edges_rs1val_0x2_rs2val_0x2+0x18>
    19d8:	2e5022ef          	jal	x5,44bc <failedtest_x5_x4>
    19dc:	000019cc          	.word	0x000019cc
    19e0:	0000ac84          	.word	0x0000ac84
    19e4:	00408093          	addi	x1,x1,4

# Testcase cr_rs1_rs2_edges (Test source rs1 = 0x00000002 rs2 = 0x80000000)
  RVTEST_TESTDATA_LOAD_INT(x23, x31) # load rs1: x31 = 0x00000002
    19e8:	000baf83          	lw	x31,0(x23)
    19ec:	004b8b93          	addi	x23,x23,4
  RVTEST_TESTDATA_LOAD_INT(x23, x16) # load rs2: x16 = 0x80000000
    19f0:	000ba803          	lw	x16,0(x23)
    19f4:	004b8b93          	addi	x23,x23,4

000019f8 <I_sra_cg_cr_rs1_rs2_edges_rs1val_0x2_rs2val_0x80000000>:
I_sra_cg_cr_rs1_rs2_edges_rs1val_0x2_rs2val_0x80000000:
  sra x12, x31, x16 # perform operation
    19f8:	410fd633          	sra	x12,x31,x16
  # Check if x12 contains the expected result. x1 is the signature ptr, x5 is the link ptr, x4 is a temp reg.
  RVTEST_SIGUPD(x1, x5, x4, x12, I_sra_cg_cr_rs1_rs2_edges_rs1val_0x2_rs2val_0x80000000, I_sra_cg_cr_rs1_rs2_edges_rs1val_0x2_rs2val_0x80000000_str)
    19fc:	0000a203          	lw	x4,0(x1)
    1a00:	00c20863          	beq	x4,x12,1a10 <I_sra_cg_cr_rs1_rs2_edges_rs1val_0x2_rs2val_0x80000000+0x18>
    1a04:	2b9022ef          	jal	x5,44bc <failedtest_x5_x4>
    1a08:	000019f8          	.word	0x000019f8
    1a0c:	0000acd1          	.word	0x0000acd1
    1a10:	00408093          	addi	x1,x1,4

# Testcase cr_rs1_rs2_edges (Test source rs1 = 0x00000002 rs2 = 0x80000001)
  RVTEST_TESTDATA_LOAD_INT(x23, x18) # load rs1: x18 = 0x00000002
    1a14:	000ba903          	lw	x18,0(x23)
    1a18:	004b8b93          	addi	x23,x23,4
  RVTEST_TESTDATA_LOAD_INT(x23, x26) # load rs2: x26 = 0x80000001
    1a1c:	000bad03          	lw	x26,0(x23)
    1a20:	004b8b93          	addi	x23,x23,4

00001a24 <I_sra_cg_cr_rs1_rs2_edges_rs1val_0x2_rs2val_0x80000001>:
I_sra_cg_cr_rs1_rs2_edges_rs1val_0x2_rs2val_0x80000001:
  sra x11, x18, x26 # perform operation
    1a24:	41a955b3          	sra	x11,x18,x26
  # Check if x11 contains the expected result. x1 is the signature ptr, x5 is the link ptr, x4 is a temp reg.
  RVTEST_SIGUPD(x1, x5, x4, x11, I_sra_cg_cr_rs1_rs2_edges_rs1val_0x2_rs2val_0x80000001, I_sra_cg_cr_rs1_rs2_edges_rs1val_0x2_rs2val_0x80000001_str)
    1a28:	0000a203          	lw	x4,0(x1)
    1a2c:	00b20863          	beq	x4,x11,1a3c <I_sra_cg_cr_rs1_rs2_edges_rs1val_0x2_rs2val_0x80000001+0x18>
    1a30:	28d022ef          	jal	x5,44bc <failedtest_x5_x4>
    1a34:	00001a24          	.word	0x00001a24
    1a38:	0000ad25          	.word	0x0000ad25
    1a3c:	00408093          	addi	x1,x1,4

# Testcase cr_rs1_rs2_edges (Test source rs1 = 0x00000002 rs2 = 0x7fffffff)
  RVTEST_TESTDATA_LOAD_INT(x23, x22) # load rs1: x22 = 0x00000002
    1a40:	000bab03          	lw	x22,0(x23)
    1a44:	004b8b93          	addi	x23,x23,4
  RVTEST_TESTDATA_LOAD_INT(x23, x16) # load rs2: x16 = 0x7fffffff
    1a48:	000ba803          	lw	x16,0(x23)
    1a4c:	004b8b93          	addi	x23,x23,4

00001a50 <I_sra_cg_cr_rs1_rs2_edges_rs1val_0x2_rs2val_0x7fffffff>:
I_sra_cg_cr_rs1_rs2_edges_rs1val_0x2_rs2val_0x7fffffff:
  sra x20, x22, x16 # perform operation
    1a50:	410b5a33          	sra	x20,x22,x16
  # Check if x20 contains the expected result. x1 is the signature ptr, x5 is the link ptr, x4 is a temp reg.
  RVTEST_SIGUPD(x1, x5, x4, x20, I_sra_cg_cr_rs1_rs2_edges_rs1val_0x2_rs2val_0x7fffffff, I_sra_cg_cr_rs1_rs2_edges_rs1val_0x2_rs2val_0x7fffffff_str)
    1a54:	0000a203          	lw	x4,0(x1)
    1a58:	01420863          	beq	x4,x20,1a68 <I_sra_cg_cr_rs1_rs2_edges_rs1val_0x2_rs2val_0x7fffffff+0x18>
    1a5c:	261022ef          	jal	x5,44bc <failedtest_x5_x4>
    1a60:	00001a50          	.word	0x00001a50
    1a64:	0000ad79          	.word	0x0000ad79
    1a68:	00408093          	addi	x1,x1,4

# Testcase cr_rs1_rs2_edges (Test source rs1 = 0x00000002 rs2 = 0x7ffffffe)
  RVTEST_TESTDATA_LOAD_INT(x23, x20) # load rs1: x20 = 0x00000002
    1a6c:	000baa03          	lw	x20,0(x23)
    1a70:	004b8b93          	addi	x23,x23,4
  RVTEST_TESTDATA_LOAD_INT(x23, x6) # load rs2: x6 = 0x7ffffffe
    1a74:	000ba303          	lw	x6,0(x23)
    1a78:	004b8b93          	addi	x23,x23,4

00001a7c <I_sra_cg_cr_rs1_rs2_edges_rs1val_0x2_rs2val_0x7ffffffe>:
I_sra_cg_cr_rs1_rs2_edges_rs1val_0x2_rs2val_0x7ffffffe:
  sra x8, x20, x6 # perform operation
    1a7c:	406a5433          	sra	x8,x20,x6
  # Check if x8 contains the expected result. x1 is the signature ptr, x5 is the link ptr, x4 is a temp reg.
  RVTEST_SIGUPD(x1, x5, x4, x8, I_sra_cg_cr_rs1_rs2_edges_rs1val_0x2_rs2val_0x7ffffffe, I_sra_cg_cr_rs1_rs2_edges_rs1val_0x2_rs2val_0x7ffffffe_str)
    1a80:	0000a203          	lw	x4,0(x1)
    1a84:	00820863          	beq	x4,x8,1a94 <I_sra_cg_cr_rs1_rs2_edges_rs1val_0x2_rs2val_0x7ffffffe+0x18>
    1a88:	235022ef          	jal	x5,44bc <failedtest_x5_x4>
    1a8c:	00001a7c          	.word	0x00001a7c
    1a90:	0000adcd          	.word	0x0000adcd
    1a94:	00408093          	addi	x1,x1,4

# Testcase cr_rs1_rs2_edges (Test source rs1 = 0x00000002 rs2 = 0xffffffff)
  RVTEST_TESTDATA_LOAD_INT(x23, x7) # load rs1: x7 = 0x00000002
    1a98:	000ba383          	lw	x7,0(x23)
    1a9c:	004b8b93          	addi	x23,x23,4
  RVTEST_TESTDATA_LOAD_INT(x23, x30) # load rs2: x30 = 0xffffffff
    1aa0:	000baf03          	lw	x30,0(x23)
    1aa4:	004b8b93          	addi	x23,x23,4

00001aa8 <I_sra_cg_cr_rs1_rs2_edges_rs1val_0x2_rs2val_0xffffffff>:
I_sra_cg_cr_rs1_rs2_edges_rs1val_0x2_rs2val_0xffffffff:
  sra x14, x7, x30 # perform operation
    1aa8:	41e3d733          	sra	x14,x7,x30
  # Check if x14 contains the expected result. x1 is the signature ptr, x5 is the link ptr, x4 is a temp reg.
  RVTEST_SIGUPD(x1, x5, x4, x14, I_sra_cg_cr_rs1_rs2_edges_rs1val_0x2_rs2val_0xffffffff, I_sra_cg_cr_rs1_rs2_edges_rs1val_0x2_rs2val_0xffffffff_str)
    1aac:	0000a203          	lw	x4,0(x1)
    1ab0:	00e20863          	beq	x4,x14,1ac0 <I_sra_cg_cr_rs1_rs2_edges_rs1val_0x2_rs2val_0xffffffff+0x18>
    1ab4:	209022ef          	jal	x5,44bc <failedtest_x5_x4>
    1ab8:	00001aa8          	.word	0x00001aa8
    1abc:	0000ae21          	.word	0x0000ae21
    1ac0:	00408093          	addi	x1,x1,4

# Testcase cr_rs1_rs2_edges (Test source rs1 = 0x00000002 rs2 = 0xfffffffe)
  RVTEST_TESTDATA_LOAD_INT(x23, x14) # load rs1: x14 = 0x00000002
    1ac4:	000ba703          	lw	x14,0(x23)
    1ac8:	004b8b93          	addi	x23,x23,4
  RVTEST_TESTDATA_LOAD_INT(x23, x3) # load rs2: x3 = 0xfffffffe
    1acc:	000ba183          	lw	x3,0(x23)
    1ad0:	004b8b93          	addi	x23,x23,4

00001ad4 <I_sra_cg_cr_rs1_rs2_edges_rs1val_0x2_rs2val_0xfffffffe>:
I_sra_cg_cr_rs1_rs2_edges_rs1val_0x2_rs2val_0xfffffffe:
  sra x11, x14, x3 # perform operation
    1ad4:	403755b3          	sra	x11,x14,x3
  # Check if x11 contains the expected result. x1 is the signature ptr, x5 is the link ptr, x4 is a temp reg.
  RVTEST_SIGUPD(x1, x5, x4, x11, I_sra_cg_cr_rs1_rs2_edges_rs1val_0x2_rs2val_0xfffffffe, I_sra_cg_cr_rs1_rs2_edges_rs1val_0x2_rs2val_0xfffffffe_str)
    1ad8:	0000a203          	lw	x4,0(x1)
    1adc:	00b20863          	beq	x4,x11,1aec <I_sra_cg_cr_rs1_rs2_edges_rs1val_0x2_rs2val_0xfffffffe+0x18>
    1ae0:	1dd022ef          	jal	x5,44bc <failedtest_x5_x4>
    1ae4:	00001ad4          	.word	0x00001ad4
    1ae8:	0000ae75          	.word	0x0000ae75
    1aec:	00408093          	addi	x1,x1,4

# Testcase cr_rs1_rs2_edges (Test source rs1 = 0x00000002 rs2 = 0x5bbc8872)
  RVTEST_TESTDATA_LOAD_INT(x23, x11) # load rs1: x11 = 0x00000002
    1af0:	000ba583          	lw	x11,0(x23)
    1af4:	004b8b93          	addi	x23,x23,4
  RVTEST_TESTDATA_LOAD_INT(x23, x16) # load rs2: x16 = 0x5bbc8872
    1af8:	000ba803          	lw	x16,0(x23)
    1afc:	004b8b93          	addi	x23,x23,4

00001b00 <I_sra_cg_cr_rs1_rs2_edges_rs1val_0x2_rs2val_0x5bbc8872>:
I_sra_cg_cr_rs1_rs2_edges_rs1val_0x2_rs2val_0x5bbc8872:
  sra x30, x11, x16 # perform operation
    1b00:	4105df33          	sra	x30,x11,x16
  # Check if x30 contains the expected result. x1 is the signature ptr, x5 is the link ptr, x4 is a temp reg.
  RVTEST_SIGUPD(x1, x5, x4, x30, I_sra_cg_cr_rs1_rs2_edges_rs1val_0x2_rs2val_0x5bbc8872, I_sra_cg_cr_rs1_rs2_edges_rs1val_0x2_rs2val_0x5bbc8872_str)
    1b04:	0000a203          	lw	x4,0(x1)
    1b08:	01e20863          	beq	x4,x30,1b18 <I_sra_cg_cr_rs1_rs2_edges_rs1val_0x2_rs2val_0x5bbc8872+0x18>
    1b0c:	1b1022ef          	jal	x5,44bc <failedtest_x5_x4>
    1b10:	00001b00          	.word	0x00001b00
    1b14:	0000aec9          	.word	0x0000aec9
    1b18:	00408093          	addi	x1,x1,4

# Testcase cr_rs1_rs2_edges (Test source rs1 = 0x00000002 rs2 = 0xaaaaaaaa)
  RVTEST_TESTDATA_LOAD_INT(x23, x14) # load rs1: x14 = 0x00000002
    1b1c:	000ba703          	lw	x14,0(x23)
    1b20:	004b8b93          	addi	x23,x23,4
  RVTEST_TESTDATA_LOAD_INT(x23, x27) # load rs2: x27 = 0xaaaaaaaa
    1b24:	000bad83          	lw	x27,0(x23)
    1b28:	004b8b93          	addi	x23,x23,4

00001b2c <I_sra_cg_cr_rs1_rs2_edges_rs1val_0x2_rs2val_0xaaaaaaaa>:
I_sra_cg_cr_rs1_rs2_edges_rs1val_0x2_rs2val_0xaaaaaaaa:
  sra x17, x14, x27 # perform operation
    1b2c:	41b758b3          	sra	x17,x14,x27
  # Check if x17 contains the expected result. x1 is the signature ptr, x5 is the link ptr, x4 is a temp reg.
  RVTEST_SIGUPD(x1, x5, x4, x17, I_sra_cg_cr_rs1_rs2_edges_rs1val_0x2_rs2val_0xaaaaaaaa, I_sra_cg_cr_rs1_rs2_edges_rs1val_0x2_rs2val_0xaaaaaaaa_str)
    1b30:	0000a203          	lw	x4,0(x1)
    1b34:	01120863          	beq	x4,x17,1b44 <I_sra_cg_cr_rs1_rs2_edges_rs1val_0x2_rs2val_0xaaaaaaaa+0x18>
    1b38:	185022ef          	jal	x5,44bc <failedtest_x5_x4>
    1b3c:	00001b2c          	.word	0x00001b2c
    1b40:	0000af1d          	.word	0x0000af1d
    1b44:	00408093          	addi	x1,x1,4

# Testcase cr_rs1_rs2_edges (Test source rs1 = 0x00000002 rs2 = 0x55555555)
  RVTEST_TESTDATA_LOAD_INT(x23, x27) # load rs1: x27 = 0x00000002
    1b48:	000bad83          	lw	x27,0(x23)
    1b4c:	004b8b93          	addi	x23,x23,4
  RVTEST_TESTDATA_LOAD_INT(x23, x12) # load rs2: x12 = 0x55555555
    1b50:	000ba603          	lw	x12,0(x23)
    1b54:	004b8b93          	addi	x23,x23,4

00001b58 <I_sra_cg_cr_rs1_rs2_edges_rs1val_0x2_rs2val_0x55555555>:
I_sra_cg_cr_rs1_rs2_edges_rs1val_0x2_rs2val_0x55555555:
  sra x2, x27, x12 # perform operation
    1b58:	40cdd133          	sra	x2,x27,x12
  # Check if x2 contains the expected result. x1 is the signature ptr, x5 is the link ptr, x4 is a temp reg.
  RVTEST_SIGUPD(x1, x5, x4, x2, I_sra_cg_cr_rs1_rs2_edges_rs1val_0x2_rs2val_0x55555555, I_sra_cg_cr_rs1_rs2_edges_rs1val_0x2_rs2val_0x55555555_str)
    1b5c:	0000a203          	lw	x4,0(x1)
    1b60:	00220863          	beq	x4,x2,1b70 <I_sra_cg_cr_rs1_rs2_edges_rs1val_0x2_rs2val_0x55555555+0x18>
    1b64:	159022ef          	jal	x5,44bc <failedtest_x5_x4>
    1b68:	00001b58          	.word	0x00001b58
    1b6c:	0000af71          	.word	0x0000af71
    1b70:	00408093          	addi	x1,x1,4

# Testcase cr_rs1_rs2_edges (Test source rs1 = 0x80000000 rs2 = 0x00000000)
  RVTEST_TESTDATA_LOAD_INT(x23, x6) # load rs1: x6 = 0x80000000
    1b74:	000ba303          	lw	x6,0(x23)
    1b78:	004b8b93          	addi	x23,x23,4
  RVTEST_TESTDATA_LOAD_INT(x23, x22) # load rs2: x22 = 0x00000000
    1b7c:	000bab03          	lw	x22,0(x23)
    1b80:	004b8b93          	addi	x23,x23,4

00001b84 <I_sra_cg_cr_rs1_rs2_edges_rs1val_0x80000000_rs2val_0x0>:
I_sra_cg_cr_rs1_rs2_edges_rs1val_0x80000000_rs2val_0x0:
  sra x24, x6, x22 # perform operation
    1b84:	41635c33          	sra	x24,x6,x22
  # Check if x24 contains the expected result. x1 is the signature ptr, x5 is the link ptr, x4 is a temp reg.
  RVTEST_SIGUPD(x1, x5, x4, x24, I_sra_cg_cr_rs1_rs2_edges_rs1val_0x80000000_rs2val_0x0, I_sra_cg_cr_rs1_rs2_edges_rs1val_0x80000000_rs2val_0x0_str)
    1b88:	0000a203          	lw	x4,0(x1)
    1b8c:	01820863          	beq	x4,x24,1b9c <I_sra_cg_cr_rs1_rs2_edges_rs1val_0x80000000_rs2val_0x0+0x18>
    1b90:	12d022ef          	jal	x5,44bc <failedtest_x5_x4>
    1b94:	00001b84          	.word	0x00001b84
    1b98:	0000afc5          	.word	0x0000afc5
    1b9c:	00408093          	addi	x1,x1,4

# Testcase cr_rs1_rs2_edges (Test source rs1 = 0x80000000 rs2 = 0x00000001)
  RVTEST_TESTDATA_LOAD_INT(x23, x26) # load rs1: x26 = 0x80000000
    1ba0:	000bad03          	lw	x26,0(x23)
    1ba4:	004b8b93          	addi	x23,x23,4
  RVTEST_TESTDATA_LOAD_INT(x23, x25) # load rs2: x25 = 0x00000001
    1ba8:	000bac83          	lw	x25,0(x23)
    1bac:	004b8b93          	addi	x23,x23,4

00001bb0 <I_sra_cg_cr_rs1_rs2_edges_rs1val_0x80000000_rs2val_0x1>:
I_sra_cg_cr_rs1_rs2_edges_rs1val_0x80000000_rs2val_0x1:
  sra x8, x26, x25 # perform operation
    1bb0:	419d5433          	sra	x8,x26,x25
  # Check if x8 contains the expected result. x1 is the signature ptr, x5 is the link ptr, x4 is a temp reg.
  RVTEST_SIGUPD(x1, x5, x4, x8, I_sra_cg_cr_rs1_rs2_edges_rs1val_0x80000000_rs2val_0x1, I_sra_cg_cr_rs1_rs2_edges_rs1val_0x80000000_rs2val_0x1_str)
    1bb4:	0000a203          	lw	x4,0(x1)
    1bb8:	00820863          	beq	x4,x8,1bc8 <I_sra_cg_cr_rs1_rs2_edges_rs1val_0x80000000_rs2val_0x1+0x18>
    1bbc:	101022ef          	jal	x5,44bc <failedtest_x5_x4>
    1bc0:	00001bb0          	.word	0x00001bb0
    1bc4:	0000b019          	.word	0x0000b019
    1bc8:	00408093          	addi	x1,x1,4

# Testcase cr_rs1_rs2_edges (Test source rs1 = 0x80000000 rs2 = 0x00000002)
  RVTEST_TESTDATA_LOAD_INT(x23, x24) # load rs1: x24 = 0x80000000
    1bcc:	000bac03          	lw	x24,0(x23)
    1bd0:	004b8b93          	addi	x23,x23,4
  RVTEST_TESTDATA_LOAD_INT(x23, x11) # load rs2: x11 = 0x00000002
    1bd4:	000ba583          	lw	x11,0(x23)
    1bd8:	004b8b93          	addi	x23,x23,4

00001bdc <I_sra_cg_cr_rs1_rs2_edges_rs1val_0x80000000_rs2val_0x2>:
I_sra_cg_cr_rs1_rs2_edges_rs1val_0x80000000_rs2val_0x2:
  sra x15, x24, x11 # perform operation
    1bdc:	40bc57b3          	sra	x15,x24,x11
  # Check if x15 contains the expected result. x1 is the signature ptr, x5 is the link ptr, x4 is a temp reg.
  RVTEST_SIGUPD(x1, x5, x4, x15, I_sra_cg_cr_rs1_rs2_edges_rs1val_0x80000000_rs2val_0x2, I_sra_cg_cr_rs1_rs2_edges_rs1val_0x80000000_rs2val_0x2_str)
    1be0:	0000a203          	lw	x4,0(x1)
    1be4:	00f20863          	beq	x4,x15,1bf4 <I_sra_cg_cr_rs1_rs2_edges_rs1val_0x80000000_rs2val_0x2+0x18>
    1be8:	0d5022ef          	jal	x5,44bc <failedtest_x5_x4>
    1bec:	00001bdc          	.word	0x00001bdc
    1bf0:	0000b06d          	.word	0x0000b06d
    1bf4:	00408093          	addi	x1,x1,4

# Testcase cr_rs1_rs2_edges (Test source rs1 = 0x80000000 rs2 = 0x80000000)
  RVTEST_TESTDATA_LOAD_INT(x23, x28) # load rs1: x28 = 0x80000000
    1bf8:	000bae03          	lw	x28,0(x23)
    1bfc:	004b8b93          	addi	x23,x23,4
  RVTEST_TESTDATA_LOAD_INT(x23, x11) # load rs2: x11 = 0x80000000
    1c00:	000ba583          	lw	x11,0(x23)
    1c04:	004b8b93          	addi	x23,x23,4

00001c08 <I_sra_cg_cr_rs1_rs2_edges_rs1val_0x80000000_rs2val_0x80000000>:
I_sra_cg_cr_rs1_rs2_edges_rs1val_0x80000000_rs2val_0x80000000:
  sra x27, x28, x11 # perform operation
    1c08:	40be5db3          	sra	x27,x28,x11
  # Check if x27 contains the expected result. x1 is the signature ptr, x5 is the link ptr, x4 is a temp reg.
  RVTEST_SIGUPD(x1, x5, x4, x27, I_sra_cg_cr_rs1_rs2_edges_rs1val_0x80000000_rs2val_0x80000000, I_sra_cg_cr_rs1_rs2_edges_rs1val_0x80000000_rs2val_0x80000000_str)
    1c0c:	0000a203          	lw	x4,0(x1)
    1c10:	01b20863          	beq	x4,x27,1c20 <I_sra_cg_cr_rs1_rs2_edges_rs1val_0x80000000_rs2val_0x80000000+0x18>
    1c14:	0a9022ef          	jal	x5,44bc <failedtest_x5_x4>
    1c18:	00001c08          	.word	0x00001c08
    1c1c:	0000b0c1          	.word	0x0000b0c1
    1c20:	00408093          	addi	x1,x1,4

# Testcase cr_rs1_rs2_edges (Test source rs1 = 0x80000000 rs2 = 0x80000001)
  RVTEST_TESTDATA_LOAD_INT(x23, x15) # load rs1: x15 = 0x80000000
    1c24:	000ba783          	lw	x15,0(x23)
    1c28:	004b8b93          	addi	x23,x23,4
  RVTEST_TESTDATA_LOAD_INT(x23, x8) # load rs2: x8 = 0x80000001
    1c2c:	000ba403          	lw	x8,0(x23)
    1c30:	004b8b93          	addi	x23,x23,4

00001c34 <I_sra_cg_cr_rs1_rs2_edges_rs1val_0x80000000_rs2val_0x80000001>:
I_sra_cg_cr_rs1_rs2_edges_rs1val_0x80000000_rs2val_0x80000001:
  sra x19, x15, x8 # perform operation
    1c34:	4087d9b3          	sra	x19,x15,x8
  # Check if x19 contains the expected result. x1 is the signature ptr, x5 is the link ptr, x4 is a temp reg.
  RVTEST_SIGUPD(x1, x5, x4, x19, I_sra_cg_cr_rs1_rs2_edges_rs1val_0x80000000_rs2val_0x80000001, I_sra_cg_cr_rs1_rs2_edges_rs1val_0x80000000_rs2val_0x80000001_str)
    1c38:	0000a203          	lw	x4,0(x1)
    1c3c:	01320863          	beq	x4,x19,1c4c <I_sra_cg_cr_rs1_rs2_edges_rs1val_0x80000000_rs2val_0x80000001+0x18>
    1c40:	07d022ef          	jal	x5,44bc <failedtest_x5_x4>
    1c44:	00001c34          	.word	0x00001c34
    1c48:	0000b11c          	.word	0x0000b11c
    1c4c:	00408093          	addi	x1,x1,4

# Testcase cr_rs1_rs2_edges (Test source rs1 = 0x80000000 rs2 = 0x7fffffff)
  RVTEST_TESTDATA_LOAD_INT(x23, x9) # load rs1: x9 = 0x80000000
    1c50:	000ba483          	lw	x9,0(x23)
    1c54:	004b8b93          	addi	x23,x23,4
  RVTEST_TESTDATA_LOAD_INT(x23, x30) # load rs2: x30 = 0x7fffffff
    1c58:	000baf03          	lw	x30,0(x23)
    1c5c:	004b8b93          	addi	x23,x23,4

00001c60 <I_sra_cg_cr_rs1_rs2_edges_rs1val_0x80000000_rs2val_0x7fffffff>:
I_sra_cg_cr_rs1_rs2_edges_rs1val_0x80000000_rs2val_0x7fffffff:
  sra x28, x9, x30 # perform operation
    1c60:	41e4de33          	sra	x28,x9,x30
  # Check if x28 contains the expected result. x1 is the signature ptr, x5 is the link ptr, x4 is a temp reg.
  RVTEST_SIGUPD(x1, x5, x4, x28, I_sra_cg_cr_rs1_rs2_edges_rs1val_0x80000000_rs2val_0x7fffffff, I_sra_cg_cr_rs1_rs2_edges_rs1val_0x80000000_rs2val_0x7fffffff_str)
    1c64:	0000a203          	lw	x4,0(x1)
    1c68:	01c20863          	beq	x4,x28,1c78 <I_sra_cg_cr_rs1_rs2_edges_rs1val_0x80000000_rs2val_0x7fffffff+0x18>
    1c6c:	051022ef          	jal	x5,44bc <failedtest_x5_x4>
    1c70:	00001c60          	.word	0x00001c60
    1c74:	0000b177          	.word	0x0000b177
    1c78:	00408093          	addi	x1,x1,4

# Testcase cr_rs1_rs2_edges (Test source rs1 = 0x80000000 rs2 = 0x7ffffffe)
  RVTEST_TESTDATA_LOAD_INT(x23, x3) # load rs1: x3 = 0x80000000
    1c7c:	000ba183          	lw	x3,0(x23)
    1c80:	004b8b93          	addi	x23,x23,4
  RVTEST_TESTDATA_LOAD_INT(x23, x30) # load rs2: x30 = 0x7ffffffe
    1c84:	000baf03          	lw	x30,0(x23)
    1c88:	004b8b93          	addi	x23,x23,4

00001c8c <I_sra_cg_cr_rs1_rs2_edges_rs1val_0x80000000_rs2val_0x7ffffffe>:
I_sra_cg_cr_rs1_rs2_edges_rs1val_0x80000000_rs2val_0x7ffffffe:
  sra x31, x3, x30 # perform operation
    1c8c:	41e1dfb3          	sra	x31,x3,x30
  # Check if x31 contains the expected result. x1 is the signature ptr, x5 is the link ptr, x4 is a temp reg.
  RVTEST_SIGUPD(x1, x5, x4, x31, I_sra_cg_cr_rs1_rs2_edges_rs1val_0x80000000_rs2val_0x7ffffffe, I_sra_cg_cr_rs1_rs2_edges_rs1val_0x80000000_rs2val_0x7ffffffe_str)
    1c90:	0000a203          	lw	x4,0(x1)
    1c94:	01f20863          	beq	x4,x31,1ca4 <I_sra_cg_cr_rs1_rs2_edges_rs1val_0x80000000_rs2val_0x7ffffffe+0x18>
    1c98:	025022ef          	jal	x5,44bc <failedtest_x5_x4>
    1c9c:	00001c8c          	.word	0x00001c8c
    1ca0:	0000b1d2          	.word	0x0000b1d2
    1ca4:	00408093          	addi	x1,x1,4

# Testcase cr_rs1_rs2_edges (Test source rs1 = 0x80000000 rs2 = 0xffffffff)
  RVTEST_TESTDATA_LOAD_INT(x23, x9) # load rs1: x9 = 0x80000000
    1ca8:	000ba483          	lw	x9,0(x23)
    1cac:	004b8b93          	addi	x23,x23,4
  RVTEST_TESTDATA_LOAD_INT(x23, x14) # load rs2: x14 = 0xffffffff
    1cb0:	000ba703          	lw	x14,0(x23)
    1cb4:	004b8b93          	addi	x23,x23,4

00001cb8 <I_sra_cg_cr_rs1_rs2_edges_rs1val_0x80000000_rs2val_0xffffffff>:
I_sra_cg_cr_rs1_rs2_edges_rs1val_0x80000000_rs2val_0xffffffff:
  sra x26, x9, x14 # perform operation
    1cb8:	40e4dd33          	sra	x26,x9,x14
  # Check if x26 contains the expected result. x1 is the signature ptr, x5 is the link ptr, x4 is a temp reg.
  RVTEST_SIGUPD(x1, x5, x4, x26, I_sra_cg_cr_rs1_rs2_edges_rs1val_0x80000000_rs2val_0xffffffff, I_sra_cg_cr_rs1_rs2_edges_rs1val_0x80000000_rs2val_0xffffffff_str)
    1cbc:	0000a203          	lw	x4,0(x1)
    1cc0:	01a20863          	beq	x4,x26,1cd0 <I_sra_cg_cr_rs1_rs2_edges_rs1val_0x80000000_rs2val_0xffffffff+0x18>
    1cc4:	7f8022ef          	jal	x5,44bc <failedtest_x5_x4>
    1cc8:	00001cb8          	.word	0x00001cb8
    1ccc:	0000b22d          	.word	0x0000b22d
    1cd0:	00408093          	addi	x1,x1,4

# Testcase cr_rs1_rs2_edges (Test source rs1 = 0x80000000 rs2 = 0xfffffffe)
  RVTEST_TESTDATA_LOAD_INT(x23, x21) # load rs1: x21 = 0x80000000
    1cd4:	000baa83          	lw	x21,0(x23)
    1cd8:	004b8b93          	addi	x23,x23,4
  RVTEST_TESTDATA_LOAD_INT(x23, x25) # load rs2: x25 = 0xfffffffe
