
/home/dev/github/clones/riscv-arch-test/work/rv32i-core/elfs/rv32i/I/I-sra-00.elf:     file format elf32-littleriscv
/home/dev/github/clones/riscv-arch-test/work/rv32i-core/elfs/rv32i/I/I-sra-00.elf
architecture: riscv:rv32, flags 0x00000112:
EXEC_P, HAS_SYMS, D_PAGED
start address 0x00000000

Program Header:
0x70000003 off    0x0001f240 vaddr 0x00000000 paddr 0x00000000 align 2**0
         filesz 0x00000033 memsz 0x00000000 flags r--
    LOAD off    0x00001000 vaddr 0x00000000 paddr 0x00000000 align 2**12
         filesz 0x00005f40 memsz 0x00005f40 flags r-x
    LOAD off    0x00007000 vaddr 0x00008000 paddr 0x00008000 align 2**12
         filesz 0x00018240 memsz 0x00018240 flags rwx

Sections:
Idx Name          Size      VMA       LMA       File off  Algn
  0 .text.init    00000040  00000000  00000000  00001000  2**5
                  CONTENTS, ALLOC, LOAD, READONLY, CODE
  1 .text.rvtest  00005f00  00000040  00000040  00001040  2**5
                  CONTENTS, ALLOC, LOAD, READONLY, CODE
  2 .data         00017d70  00008000  00008000  00007000  2**8
                  CONTENTS, ALLOC, LOAD, DATA
  3 .text.rvmodel 00000240  00020000  00020000  0001f000  2**5
                  CONTENTS, ALLOC, LOAD, READONLY, CODE
  4 .riscv.attributes 00000033  00000000  00000000  0001f240  2**0
                  CONTENTS, READONLY
  5 .debug_line   0000265e  00000000  00000000  0001f273  2**0
                  CONTENTS, READONLY, DEBUGGING, OCTETS
  6 .debug_line_str 00000069  00000000  00000000  000218d1  2**0
                  CONTENTS, READONLY, DEBUGGING, OCTETS
  7 .debug_info   00000023  00000000  00000000  0002193a  2**0
                  CONTENTS, READONLY, DEBUGGING, OCTETS
  8 .debug_abbrev 00000012  00000000  00000000  0002195d  2**0
                  CONTENTS, READONLY, DEBUGGING, OCTETS
  9 .debug_aranges 00000028  00000000  00000000  00021970  2**3
                  CONTENTS, READONLY, DEBUGGING, OCTETS
 10 .debug_str    00000075  00000000  00000000  00021998  2**0
                  CONTENTS, READONLY, DEBUGGING, OCTETS
 11 .debug_rnglists 0000001b  00000000  00000000  00021a0d  2**0
                  CONTENTS, READONLY, DEBUGGING, OCTETS
SYMBOL TABLE:
00000000 l    d  .text.init	00000000 .text.init
00000040 l    d  .text.rvtest	00000000 .text.rvtest
00008000 l    d  .data	00000000 .data
00020000 l    d  .text.rvmodel	00000000 .text.rvmodel
00000000 l    d  .riscv.attributes	00000000 .riscv.attributes
00000000 l    d  .debug_line	00000000 .debug_line
00000000 l    d  .debug_line_str	00000000 .debug_line_str
00000000 l    d  .debug_info	00000000 .debug_info
00000000 l    d  .debug_abbrev	00000000 .debug_abbrev
00000000 l    d  .debug_aranges	00000000 .debug_aranges
00000000 l    d  .debug_str	00000000 .debug_str
00000000 l    d  .debug_rnglists	00000000 .debug_rnglists
00000000 l    df *ABS*	00000000 ccBXXf2X.o
00000003 l       *ABS*	00000000 MMODE_SIG
00000001 l       *ABS*	00000000 SMODE_SIG
00000001 l       *ABS*	00000000 HMODE_SIG
00000002 l       *ABS*	00000000 VMODE_SIG
00020000 l       .text.rvmodel	00000000 rvmodel_boot
00000050 l       .text.rvtest	00000000 I_sra_cg_cp_rs1_b0
000044bc l       .text.rvtest	00000000 failedtest_x5_x4
00008d50 l       .data	00000000 I_sra_cg_cp_rs1_b0_str
0000007c l       .text.rvtest	00000000 I_sra_cg_cp_rs1_b1
00008d7d l       .data	00000000 I_sra_cg_cp_rs1_b1_str
000000ac l       .text.rvtest	00000000 I_sra_cg_cp_rs1_b2
00008daa l       .data	00000000 I_sra_cg_cp_rs1_b2_str
000000dc l       .text.rvtest	00000000 I_sra_cg_cp_rs1_b3
00008dd7 l       .data	00000000 I_sra_cg_cp_rs1_b3_str
00000110 l       .text.rvtest	00000000 I_sra_cg_cp_rs1_b4
000044fc l       .text.rvtest	00000000 failedtest_x14_x13
00008e04 l       .data	00000000 I_sra_cg_cp_rs1_b4_str
0000013c l       .text.rvtest	00000000 I_sra_cg_cp_rs1_b5
00008e31 l       .data	00000000 I_sra_cg_cp_rs1_b5_str
00000168 l       .text.rvtest	00000000 I_sra_cg_cp_rs1_b6
00008e5e l       .data	00000000 I_sra_cg_cp_rs1_b6_str
00000194 l       .text.rvtest	00000000 I_sra_cg_cp_rs1_b7
00008e8b l       .data	00000000 I_sra_cg_cp_rs1_b7_str
000001c0 l       .text.rvtest	00000000 I_sra_cg_cp_rs1_b8
00008eb8 l       .data	00000000 I_sra_cg_cp_rs1_b8_str
000001ec l       .text.rvtest	00000000 I_sra_cg_cp_rs1_b9
00008ee5 l       .data	00000000 I_sra_cg_cp_rs1_b9_str
00000218 l       .text.rvtest	00000000 I_sra_cg_cp_rs1_b10
00008f13 l       .data	00000000 I_sra_cg_cp_rs1_b10_str
00000244 l       .text.rvtest	00000000 I_sra_cg_cp_rs1_b11
00008f42 l       .data	00000000 I_sra_cg_cp_rs1_b11_str
00000274 l       .text.rvtest	00000000 I_sra_cg_cp_rs1_b12
00008f71 l       .data	00000000 I_sra_cg_cp_rs1_b12_str
000002a8 l       .text.rvtest	00000000 I_sra_cg_cp_rs1_b13
000044d4 l       .text.rvtest	00000000 failedtest_x8_x7
00008fa0 l       .data	00000000 I_sra_cg_cp_rs1_b13_str
000002d4 l       .text.rvtest	00000000 I_sra_cg_cp_rs1_b14
00008fcf l       .data	00000000 I_sra_cg_cp_rs1_b14_str
00000300 l       .text.rvtest	00000000 I_sra_cg_cp_rs1_b15
00008ffe l       .data	00000000 I_sra_cg_cp_rs1_b15_str
0000032c l       .text.rvtest	00000000 I_sra_cg_cp_rs1_b16
0000902d l       .data	00000000 I_sra_cg_cp_rs1_b16_str
00000358 l       .text.rvtest	00000000 I_sra_cg_cp_rs1_b17
0000905c l       .data	00000000 I_sra_cg_cp_rs1_b17_str
00000384 l       .text.rvtest	00000000 I_sra_cg_cp_rs1_b18
0000908b l       .data	00000000 I_sra_cg_cp_rs1_b18_str
000003b0 l       .text.rvtest	00000000 I_sra_cg_cp_rs1_b19
000090ba l       .data	00000000 I_sra_cg_cp_rs1_b19_str
000003dc l       .text.rvtest	00000000 I_sra_cg_cp_rs1_b20
000090e9 l       .data	00000000 I_sra_cg_cp_rs1_b20_str
00000408 l       .text.rvtest	00000000 I_sra_cg_cp_rs1_b21
00009118 l       .data	00000000 I_sra_cg_cp_rs1_b21_str
00000434 l       .text.rvtest	00000000 I_sra_cg_cp_rs1_b22
00009147 l       .data	00000000 I_sra_cg_cp_rs1_b22_str
00000460 l       .text.rvtest	00000000 I_sra_cg_cp_rs1_b23
00009176 l       .data	00000000 I_sra_cg_cp_rs1_b23_str
0000048c l       .text.rvtest	00000000 I_sra_cg_cp_rs1_b24
000091a5 l       .data	00000000 I_sra_cg_cp_rs1_b24_str
000004b8 l       .text.rvtest	00000000 I_sra_cg_cp_rs1_b25
000091d4 l       .data	00000000 I_sra_cg_cp_rs1_b25_str
000004e4 l       .text.rvtest	00000000 I_sra_cg_cp_rs1_b26
00009203 l       .data	00000000 I_sra_cg_cp_rs1_b26_str
00000510 l       .text.rvtest	00000000 I_sra_cg_cp_rs1_b27
00009232 l       .data	00000000 I_sra_cg_cp_rs1_b27_str
0000053c l       .text.rvtest	00000000 I_sra_cg_cp_rs1_b28
00009261 l       .data	00000000 I_sra_cg_cp_rs1_b28_str
0000056c l       .text.rvtest	00000000 I_sra_cg_cp_rs1_b29
00009290 l       .data	00000000 I_sra_cg_cp_rs1_b29_str
0000059c l       .text.rvtest	00000000 I_sra_cg_cp_rs1_b30
000092bf l       .data	00000000 I_sra_cg_cp_rs1_b30_str
000005c8 l       .text.rvtest	00000000 I_sra_cg_cp_rs1_b31
000092ee l       .data	00000000 I_sra_cg_cp_rs1_b31_str
000005f4 l       .text.rvtest	00000000 I_sra_cg_cp_rs2_b0
0000931d l       .data	00000000 I_sra_cg_cp_rs2_b0_str
00000620 l       .text.rvtest	00000000 I_sra_cg_cp_rs2_b1
0000934b l       .data	00000000 I_sra_cg_cp_rs2_b1_str
0000064c l       .text.rvtest	00000000 I_sra_cg_cp_rs2_b2
00009379 l       .data	00000000 I_sra_cg_cp_rs2_b2_str
00000678 l       .text.rvtest	00000000 I_sra_cg_cp_rs2_b3
000093a7 l       .data	00000000 I_sra_cg_cp_rs2_b3_str
000006a4 l       .text.rvtest	00000000 I_sra_cg_cp_rs2_b4
000093d5 l       .data	00000000 I_sra_cg_cp_rs2_b4_str
000006d0 l       .text.rvtest	00000000 I_sra_cg_cp_rs2_b5
00009403 l       .data	00000000 I_sra_cg_cp_rs2_b5_str
000006fc l       .text.rvtest	00000000 I_sra_cg_cp_rs2_b6
00009431 l       .data	00000000 I_sra_cg_cp_rs2_b6_str
00000730 l       .text.rvtest	00000000 I_sra_cg_cp_rs2_b7
0000945f l       .data	00000000 I_sra_cg_cp_rs2_b7_str
0000075c l       .text.rvtest	00000000 I_sra_cg_cp_rs2_b8
0000948d l       .data	00000000 I_sra_cg_cp_rs2_b8_str
00000788 l       .text.rvtest	00000000 I_sra_cg_cp_rs2_b9
000094bb l       .data	00000000 I_sra_cg_cp_rs2_b9_str
000007b4 l       .text.rvtest	00000000 I_sra_cg_cp_rs2_b10
000094e9 l       .data	00000000 I_sra_cg_cp_rs2_b10_str
000007e0 l       .text.rvtest	00000000 I_sra_cg_cp_rs2_b11
00009518 l       .data	00000000 I_sra_cg_cp_rs2_b11_str
00000810 l       .text.rvtest	00000000 I_sra_cg_cp_rs2_b12
00009547 l       .data	00000000 I_sra_cg_cp_rs2_b12_str
00000844 l       .text.rvtest	00000000 I_sra_cg_cp_rs2_b13
00009576 l       .data	00000000 I_sra_cg_cp_rs2_b13_str
00000870 l       .text.rvtest	00000000 I_sra_cg_cp_rs2_b14
000095a5 l       .data	00000000 I_sra_cg_cp_rs2_b14_str
0000089c l       .text.rvtest	00000000 I_sra_cg_cp_rs2_b15
000095d4 l       .data	00000000 I_sra_cg_cp_rs2_b15_str
000008c8 l       .text.rvtest	00000000 I_sra_cg_cp_rs2_b16
00009603 l       .data	00000000 I_sra_cg_cp_rs2_b16_str
000008f4 l       .text.rvtest	00000000 I_sra_cg_cp_rs2_b17
00009632 l       .data	00000000 I_sra_cg_cp_rs2_b17_str
00000920 l       .text.rvtest	00000000 I_sra_cg_cp_rs2_b18
00009661 l       .data	00000000 I_sra_cg_cp_rs2_b18_str
00000950 l       .text.rvtest	00000000 I_sra_cg_cp_rs2_b19
00009690 l       .data	00000000 I_sra_cg_cp_rs2_b19_str
0000097c l       .text.rvtest	00000000 I_sra_cg_cp_rs2_b20
000096bf l       .data	00000000 I_sra_cg_cp_rs2_b20_str
000009a8 l       .text.rvtest	00000000 I_sra_cg_cp_rs2_b21
000096ee l       .data	00000000 I_sra_cg_cp_rs2_b21_str
000009d4 l       .text.rvtest	00000000 I_sra_cg_cp_rs2_b22
0000971d l       .data	00000000 I_sra_cg_cp_rs2_b22_str
00000a00 l       .text.rvtest	00000000 I_sra_cg_cp_rs2_b23
0000974c l       .data	00000000 I_sra_cg_cp_rs2_b23_str
00000a2c l       .text.rvtest	00000000 I_sra_cg_cp_rs2_b24
0000977b l       .data	00000000 I_sra_cg_cp_rs2_b24_str
00000a58 l       .text.rvtest	00000000 I_sra_cg_cp_rs2_b25
000097aa l       .data	00000000 I_sra_cg_cp_rs2_b25_str
00000a84 l       .text.rvtest	00000000 I_sra_cg_cp_rs2_b26
000097d9 l       .data	00000000 I_sra_cg_cp_rs2_b26_str
00000ab0 l       .text.rvtest	00000000 I_sra_cg_cp_rs2_b27
00009808 l       .data	00000000 I_sra_cg_cp_rs2_b27_str
00000ae0 l       .text.rvtest	00000000 I_sra_cg_cp_rs2_b28
00009837 l       .data	00000000 I_sra_cg_cp_rs2_b28_str
00000b0c l       .text.rvtest	00000000 I_sra_cg_cp_rs2_b29
00009866 l       .data	00000000 I_sra_cg_cp_rs2_b29_str
00000b38 l       .text.rvtest	00000000 I_sra_cg_cp_rs2_b30
00009895 l       .data	00000000 I_sra_cg_cp_rs2_b30_str
00000b68 l       .text.rvtest	00000000 I_sra_cg_cp_rs2_b31
000098c4 l       .data	00000000 I_sra_cg_cp_rs2_b31_str
00000b94 l       .text.rvtest	00000000 I_sra_cg_cp_rd_b0
000098f3 l       .data	00000000 I_sra_cg_cp_rd_b0_str
00000bc0 l       .text.rvtest	00000000 I_sra_cg_cp_rd_b1
00009920 l       .data	00000000 I_sra_cg_cp_rd_b1_str
00000bec l       .text.rvtest	00000000 I_sra_cg_cp_rd_b2
0000994d l       .data	00000000 I_sra_cg_cp_rd_b2_str
00000c18 l       .text.rvtest	00000000 I_sra_cg_cp_rd_b3
0000997a l       .data	00000000 I_sra_cg_cp_rd_b3_str
00000c44 l       .text.rvtest	00000000 I_sra_cg_cp_rd_b4
000099a7 l       .data	00000000 I_sra_cg_cp_rd_b4_str
00000c70 l       .text.rvtest	00000000 I_sra_cg_cp_rd_b5
000099d4 l       .data	00000000 I_sra_cg_cp_rd_b5_str
00000ca0 l       .text.rvtest	00000000 I_sra_cg_cp_rd_b6
00009a01 l       .data	00000000 I_sra_cg_cp_rd_b6_str
00000cd4 l       .text.rvtest	00000000 I_sra_cg_cp_rd_b7
00009a2e l       .data	00000000 I_sra_cg_cp_rd_b7_str
00000d00 l       .text.rvtest	00000000 I_sra_cg_cp_rd_b8
00009a5b l       .data	00000000 I_sra_cg_cp_rd_b8_str
00000d2c l       .text.rvtest	00000000 I_sra_cg_cp_rd_b9
00009a88 l       .data	00000000 I_sra_cg_cp_rd_b9_str
00000d58 l       .text.rvtest	00000000 I_sra_cg_cp_rd_b10
00009ab5 l       .data	00000000 I_sra_cg_cp_rd_b10_str
00000d84 l       .text.rvtest	00000000 I_sra_cg_cp_rd_b11
00009ae3 l       .data	00000000 I_sra_cg_cp_rd_b11_str
00000db0 l       .text.rvtest	00000000 I_sra_cg_cp_rd_b12
00009b11 l       .data	00000000 I_sra_cg_cp_rd_b12_str
00000ddc l       .text.rvtest	00000000 I_sra_cg_cp_rd_b13
00009b3f l       .data	00000000 I_sra_cg_cp_rd_b13_str
00000e08 l       .text.rvtest	00000000 I_sra_cg_cp_rd_b14
00009b6d l       .data	00000000 I_sra_cg_cp_rd_b14_str
00000e38 l       .text.rvtest	00000000 I_sra_cg_cp_rd_b15
00009b9b l       .data	00000000 I_sra_cg_cp_rd_b15_str
00000e64 l       .text.rvtest	00000000 I_sra_cg_cp_rd_b16
00009bc9 l       .data	00000000 I_sra_cg_cp_rd_b16_str
00000e90 l       .text.rvtest	00000000 I_sra_cg_cp_rd_b17
00009bf7 l       .data	00000000 I_sra_cg_cp_rd_b17_str
00000ec0 l       .text.rvtest	00000000 I_sra_cg_cp_rd_b18
00009c25 l       .data	00000000 I_sra_cg_cp_rd_b18_str
00000eec l       .text.rvtest	00000000 I_sra_cg_cp_rd_b19
00009c53 l       .data	00000000 I_sra_cg_cp_rd_b19_str
00000f18 l       .text.rvtest	00000000 I_sra_cg_cp_rd_b20
00009c81 l       .data	00000000 I_sra_cg_cp_rd_b20_str
00000f44 l       .text.rvtest	00000000 I_sra_cg_cp_rd_b21
00009caf l       .data	00000000 I_sra_cg_cp_rd_b21_str
00000f74 l       .text.rvtest	00000000 I_sra_cg_cp_rd_b22
00009cdd l       .data	00000000 I_sra_cg_cp_rd_b22_str
00000fa0 l       .text.rvtest	00000000 I_sra_cg_cp_rd_b23
00009d0b l       .data	00000000 I_sra_cg_cp_rd_b23_str
00000fd0 l       .text.rvtest	00000000 I_sra_cg_cp_rd_b24
00009d39 l       .data	00000000 I_sra_cg_cp_rd_b24_str
00001000 l       .text.rvtest	00000000 I_sra_cg_cp_rd_b25
00009d67 l       .data	00000000 I_sra_cg_cp_rd_b25_str
0000102c l       .text.rvtest	00000000 I_sra_cg_cp_rd_b26
00009d95 l       .data	00000000 I_sra_cg_cp_rd_b26_str
00001058 l       .text.rvtest	00000000 I_sra_cg_cp_rd_b27
00009dc3 l       .data	00000000 I_sra_cg_cp_rd_b27_str
00001084 l       .text.rvtest	00000000 I_sra_cg_cp_rd_b28
00009df1 l       .data	00000000 I_sra_cg_cp_rd_b28_str
000010b0 l       .text.rvtest	00000000 I_sra_cg_cp_rd_b29
00009e1f l       .data	00000000 I_sra_cg_cp_rd_b29_str
000010dc l       .text.rvtest	00000000 I_sra_cg_cp_rd_b30
00009e4d l       .data	00000000 I_sra_cg_cp_rd_b30_str
00001108 l       .text.rvtest	00000000 I_sra_cg_cp_rd_b31
00009e7b l       .data	00000000 I_sra_cg_cp_rd_b31_str
00001134 l       .text.rvtest	00000000 I_sra_cg_cp_rs1_edges_0x0
00009ea9 l       .data	00000000 I_sra_cg_cp_rs1_edges_0x0_str
00001160 l       .text.rvtest	00000000 I_sra_cg_cp_rs1_edges_0x1
00009ede l       .data	00000000 I_sra_cg_cp_rs1_edges_0x1_str
0000118c l       .text.rvtest	00000000 I_sra_cg_cp_rs1_edges_0x2
00009f13 l       .data	00000000 I_sra_cg_cp_rs1_edges_0x2_str
000011b8 l       .text.rvtest	00000000 I_sra_cg_cp_rs1_edges_0x80000000
00009f48 l       .data	00000000 I_sra_cg_cp_rs1_edges_0x80000000_str
000011e4 l       .text.rvtest	00000000 I_sra_cg_cp_rs1_edges_0x80000001
00009f85 l       .data	00000000 I_sra_cg_cp_rs1_edges_0x80000001_str
00001210 l       .text.rvtest	00000000 I_sra_cg_cp_rs1_edges_0x7fffffff
00009fc2 l       .data	00000000 I_sra_cg_cp_rs1_edges_0x7fffffff_str
0000123c l       .text.rvtest	00000000 I_sra_cg_cp_rs1_edges_0x7ffffffe
00009fff l       .data	00000000 I_sra_cg_cp_rs1_edges_0x7ffffffe_str
00001268 l       .text.rvtest	00000000 I_sra_cg_cp_rs1_edges_0xffffffff
0000a03c l       .data	00000000 I_sra_cg_cp_rs1_edges_0xffffffff_str
00001294 l       .text.rvtest	00000000 I_sra_cg_cp_rs1_edges_0xfffffffe
0000a079 l       .data	00000000 I_sra_cg_cp_rs1_edges_0xfffffffe_str
000012c0 l       .text.rvtest	00000000 I_sra_cg_cp_rs1_edges_0x5bbc8872
0000a0b6 l       .data	00000000 I_sra_cg_cp_rs1_edges_0x5bbc8872_str
000012ec l       .text.rvtest	00000000 I_sra_cg_cp_rs1_edges_0xaaaaaaaa
0000a0f3 l       .data	00000000 I_sra_cg_cp_rs1_edges_0xaaaaaaaa_str
00001318 l       .text.rvtest	00000000 I_sra_cg_cp_rs1_edges_0x55555555
0000a130 l       .data	00000000 I_sra_cg_cp_rs1_edges_0x55555555_str
00001344 l       .text.rvtest	00000000 I_sra_cg_cp_rs2_edges_0x0
0000a16d l       .data	00000000 I_sra_cg_cp_rs2_edges_0x0_str
00001370 l       .text.rvtest	00000000 I_sra_cg_cp_rs2_edges_0x1
0000a1a3 l       .data	00000000 I_sra_cg_cp_rs2_edges_0x1_str
0000139c l       .text.rvtest	00000000 I_sra_cg_cp_rs2_edges_0x2
0000a1d9 l       .data	00000000 I_sra_cg_cp_rs2_edges_0x2_str
000013c8 l       .text.rvtest	00000000 I_sra_cg_cp_rs2_edges_0x80000000
0000a20f l       .data	00000000 I_sra_cg_cp_rs2_edges_0x80000000_str
000013f4 l       .text.rvtest	00000000 I_sra_cg_cp_rs2_edges_0x80000001
0000a24c l       .data	00000000 I_sra_cg_cp_rs2_edges_0x80000001_str
00001420 l       .text.rvtest	00000000 I_sra_cg_cp_rs2_edges_0x7fffffff
0000a289 l       .data	00000000 I_sra_cg_cp_rs2_edges_0x7fffffff_str
0000144c l       .text.rvtest	00000000 I_sra_cg_cp_rs2_edges_0x7ffffffe
0000a2c6 l       .data	00000000 I_sra_cg_cp_rs2_edges_0x7ffffffe_str
00001478 l       .text.rvtest	00000000 I_sra_cg_cp_rs2_edges_0xffffffff
0000a303 l       .data	00000000 I_sra_cg_cp_rs2_edges_0xffffffff_str
000014a4 l       .text.rvtest	00000000 I_sra_cg_cp_rs2_edges_0xfffffffe
0000a340 l       .data	00000000 I_sra_cg_cp_rs2_edges_0xfffffffe_str
000014d0 l       .text.rvtest	00000000 I_sra_cg_cp_rs2_edges_0x5bbc8872
0000a37d l       .data	00000000 I_sra_cg_cp_rs2_edges_0x5bbc8872_str
000014fc l       .text.rvtest	00000000 I_sra_cg_cp_rs2_edges_0xaaaaaaaa
0000a3ba l       .data	00000000 I_sra_cg_cp_rs2_edges_0xaaaaaaaa_str
00001528 l       .text.rvtest	00000000 I_sra_cg_cp_rs2_edges_0x55555555
0000a3f7 l       .data	00000000 I_sra_cg_cp_rs2_edges_0x55555555_str
00001554 l       .text.rvtest	00000000 I_sra_cg_cr_rs1_rs2_edges_rs1val_0x0_rs2val_0x0
0000a434 l       .data	00000000 I_sra_cg_cr_rs1_rs2_edges_rs1val_0x0_rs2val_0x0_str
00001580 l       .text.rvtest	00000000 I_sra_cg_cr_rs1_rs2_edges_rs1val_0x0_rs2val_0x1
0000a481 l       .data	00000000 I_sra_cg_cr_rs1_rs2_edges_rs1val_0x0_rs2val_0x1_str
000015ac l       .text.rvtest	00000000 I_sra_cg_cr_rs1_rs2_edges_rs1val_0x0_rs2val_0x2
0000a4ce l       .data	00000000 I_sra_cg_cr_rs1_rs2_edges_rs1val_0x0_rs2val_0x2_str
000015d8 l       .text.rvtest	00000000 I_sra_cg_cr_rs1_rs2_edges_rs1val_0x0_rs2val_0x80000000
0000a51b l       .data	00000000 I_sra_cg_cr_rs1_rs2_edges_rs1val_0x0_rs2val_0x80000000_str
00001604 l       .text.rvtest	00000000 I_sra_cg_cr_rs1_rs2_edges_rs1val_0x0_rs2val_0x80000001
0000a56f l       .data	00000000 I_sra_cg_cr_rs1_rs2_edges_rs1val_0x0_rs2val_0x80000001_str
00001630 l       .text.rvtest	00000000 I_sra_cg_cr_rs1_rs2_edges_rs1val_0x0_rs2val_0x7fffffff
0000a5c3 l       .data	00000000 I_sra_cg_cr_rs1_rs2_edges_rs1val_0x0_rs2val_0x7fffffff_str
0000165c l       .text.rvtest	00000000 I_sra_cg_cr_rs1_rs2_edges_rs1val_0x0_rs2val_0x7ffffffe
0000a617 l       .data	00000000 I_sra_cg_cr_rs1_rs2_edges_rs1val_0x0_rs2val_0x7ffffffe_str
00001688 l       .text.rvtest	00000000 I_sra_cg_cr_rs1_rs2_edges_rs1val_0x0_rs2val_0xffffffff
0000a66b l       .data	00000000 I_sra_cg_cr_rs1_rs2_edges_rs1val_0x0_rs2val_0xffffffff_str
000016b4 l       .text.rvtest	00000000 I_sra_cg_cr_rs1_rs2_edges_rs1val_0x0_rs2val_0xfffffffe
0000a6bf l       .data	00000000 I_sra_cg_cr_rs1_rs2_edges_rs1val_0x0_rs2val_0xfffffffe_str
000016e0 l       .text.rvtest	00000000 I_sra_cg_cr_rs1_rs2_edges_rs1val_0x0_rs2val_0x5bbc8872
0000a713 l       .data	00000000 I_sra_cg_cr_rs1_rs2_edges_rs1val_0x0_rs2val_0x5bbc8872_str
0000170c l       .text.rvtest	00000000 I_sra_cg_cr_rs1_rs2_edges_rs1val_0x0_rs2val_0xaaaaaaaa
0000a767 l       .data	00000000 I_sra_cg_cr_rs1_rs2_edges_rs1val_0x0_rs2val_0xaaaaaaaa_str
00001738 l       .text.rvtest	00000000 I_sra_cg_cr_rs1_rs2_edges_rs1val_0x0_rs2val_0x55555555
0000a7bb l       .data	00000000 I_sra_cg_cr_rs1_rs2_edges_rs1val_0x0_rs2val_0x55555555_str
00001764 l       .text.rvtest	00000000 I_sra_cg_cr_rs1_rs2_edges_rs1val_0x1_rs2val_0x0
0000a80f l       .data	00000000 I_sra_cg_cr_rs1_rs2_edges_rs1val_0x1_rs2val_0x0_str
00001790 l       .text.rvtest	00000000 I_sra_cg_cr_rs1_rs2_edges_rs1val_0x1_rs2val_0x1
0000a85c l       .data	00000000 I_sra_cg_cr_rs1_rs2_edges_rs1val_0x1_rs2val_0x1_str
000017bc l       .text.rvtest	00000000 I_sra_cg_cr_rs1_rs2_edges_rs1val_0x1_rs2val_0x2
0000a8a9 l       .data	00000000 I_sra_cg_cr_rs1_rs2_edges_rs1val_0x1_rs2val_0x2_str
000017e8 l       .text.rvtest	00000000 I_sra_cg_cr_rs1_rs2_edges_rs1val_0x1_rs2val_0x80000000
0000a8f6 l       .data	00000000 I_sra_cg_cr_rs1_rs2_edges_rs1val_0x1_rs2val_0x80000000_str
00001814 l       .text.rvtest	00000000 I_sra_cg_cr_rs1_rs2_edges_rs1val_0x1_rs2val_0x80000001
0000a94a l       .data	00000000 I_sra_cg_cr_rs1_rs2_edges_rs1val_0x1_rs2val_0x80000001_str
00001840 l       .text.rvtest	00000000 I_sra_cg_cr_rs1_rs2_edges_rs1val_0x1_rs2val_0x7fffffff
0000a99e l       .data	00000000 I_sra_cg_cr_rs1_rs2_edges_rs1val_0x1_rs2val_0x7fffffff_str
0000186c l       .text.rvtest	00000000 I_sra_cg_cr_rs1_rs2_edges_rs1val_0x1_rs2val_0x7ffffffe
0000a9f2 l       .data	00000000 I_sra_cg_cr_rs1_rs2_edges_rs1val_0x1_rs2val_0x7ffffffe_str
00001898 l       .text.rvtest	00000000 I_sra_cg_cr_rs1_rs2_edges_rs1val_0x1_rs2val_0xffffffff
0000aa46 l       .data	00000000 I_sra_cg_cr_rs1_rs2_edges_rs1val_0x1_rs2val_0xffffffff_str
000018c4 l       .text.rvtest	00000000 I_sra_cg_cr_rs1_rs2_edges_rs1val_0x1_rs2val_0xfffffffe
0000aa9a l       .data	00000000 I_sra_cg_cr_rs1_rs2_edges_rs1val_0x1_rs2val_0xfffffffe_str
000018f0 l       .text.rvtest	00000000 I_sra_cg_cr_rs1_rs2_edges_rs1val_0x1_rs2val_0x5bbc8872
0000aaee l       .data	00000000 I_sra_cg_cr_rs1_rs2_edges_rs1val_0x1_rs2val_0x5bbc8872_str
0000191c l       .text.rvtest	00000000 I_sra_cg_cr_rs1_rs2_edges_rs1val_0x1_rs2val_0xaaaaaaaa
0000ab42 l       .data	00000000 I_sra_cg_cr_rs1_rs2_edges_rs1val_0x1_rs2val_0xaaaaaaaa_str
00001948 l       .text.rvtest	00000000 I_sra_cg_cr_rs1_rs2_edges_rs1val_0x1_rs2val_0x55555555
0000ab96 l       .data	00000000 I_sra_cg_cr_rs1_rs2_edges_rs1val_0x1_rs2val_0x55555555_str
00001974 l       .text.rvtest	00000000 I_sra_cg_cr_rs1_rs2_edges_rs1val_0x2_rs2val_0x0
0000abea l       .data	00000000 I_sra_cg_cr_rs1_rs2_edges_rs1val_0x2_rs2val_0x0_str
000019a0 l       .text.rvtest	00000000 I_sra_cg_cr_rs1_rs2_edges_rs1val_0x2_rs2val_0x1
0000ac37 l       .data	00000000 I_sra_cg_cr_rs1_rs2_edges_rs1val_0x2_rs2val_0x1_str
000019cc l       .text.rvtest	00000000 I_sra_cg_cr_rs1_rs2_edges_rs1val_0x2_rs2val_0x2
0000ac84 l       .data	00000000 I_sra_cg_cr_rs1_rs2_edges_rs1val_0x2_rs2val_0x2_str
000019f8 l       .text.rvtest	00000000 I_sra_cg_cr_rs1_rs2_edges_rs1val_0x2_rs2val_0x80000000
0000acd1 l       .data	00000000 I_sra_cg_cr_rs1_rs2_edges_rs1val_0x2_rs2val_0x80000000_str
00001a24 l       .text.rvtest	00000000 I_sra_cg_cr_rs1_rs2_edges_rs1val_0x2_rs2val_0x80000001
0000ad25 l       .data	00000000 I_sra_cg_cr_rs1_rs2_edges_rs1val_0x2_rs2val_0x80000001_str
00001a50 l       .text.rvtest	00000000 I_sra_cg_cr_rs1_rs2_edges_rs1val_0x2_rs2val_0x7fffffff
0000ad79 l       .data	00000000 I_sra_cg_cr_rs1_rs2_edges_rs1val_0x2_rs2val_0x7fffffff_str
00001a7c l       .text.rvtest	00000000 I_sra_cg_cr_rs1_rs2_edges_rs1val_0x2_rs2val_0x7ffffffe
0000adcd l       .data	00000000 I_sra_cg_cr_rs1_rs2_edges_rs1val_0x2_rs2val_0x7ffffffe_str
00001aa8 l       .text.rvtest	00000000 I_sra_cg_cr_rs1_rs2_edges_rs1val_0x2_rs2val_0xffffffff
0000ae21 l       .data	00000000 I_sra_cg_cr_rs1_rs2_edges_rs1val_0x2_rs2val_0xffffffff_str
00001ad4 l       .text.rvtest	00000000 I_sra_cg_cr_rs1_rs2_edges_rs1val_0x2_rs2val_0xfffffffe
0000ae75 l       .data	00000000 I_sra_cg_cr_rs1_rs2_edges_rs1val_0x2_rs2val_0xfffffffe_str
00001b00 l       .text.rvtest	00000000 I_sra_cg_cr_rs1_rs2_edges_rs1val_0x2_rs2val_0x5bbc8872
0000aec9 l       .data	00000000 I_sra_cg_cr_rs1_rs2_edges_rs1val_0x2_rs2val_0x5bbc8872_str
00001b2c l       .text.rvtest	00000000 I_sra_cg_cr_rs1_rs2_edges_rs1val_0x2_rs2val_0xaaaaaaaa
0000af1d l       .data	00000000 I_sra_cg_cr_rs1_rs2_edges_rs1val_0x2_rs2val_0xaaaaaaaa_str
00001b58 l       .text.rvtest	00000000 I_sra_cg_cr_rs1_rs2_edges_rs1val_0x2_rs2val_0x55555555
0000af71 l       .data	00000000 I_sra_cg_cr_rs1_rs2_edges_rs1val_0x2_rs2val_0x55555555_str
00001b84 l       .text.rvtest	00000000 I_sra_cg_cr_rs1_rs2_edges_rs1val_0x80000000_rs2val_0x0
0000afc5 l       .data	00000000 I_sra_cg_cr_rs1_rs2_edges_rs1val_0x80000000_rs2val_0x0_str
00001bb0 l       .text.rvtest	00000000 I_sra_cg_cr_rs1_rs2_edges_rs1val_0x80000000_rs2val_0x1
0000b019 l       .data	00000000 I_sra_cg_cr_rs1_rs2_edges_rs1val_0x80000000_rs2val_0x1_str
00001bdc l       .text.rvtest	00000000 I_sra_cg_cr_rs1_rs2_edges_rs1val_0x80000000_rs2val_0x2
0000b06d l       .data	00000000 I_sra_cg_cr_rs1_rs2_edges_rs1val_0x80000000_rs2val_0x2_str
00001c08 l       .text.rvtest	00000000 I_sra_cg_cr_rs1_rs2_edges_rs1val_0x80000000_rs2val_0x80000000
0000b0c1 l       .data	00000000 I_sra_cg_cr_rs1_rs2_edges_rs1val_0x80000000_rs2val_0x80000000_str
00001c34 l       .text.rvtest	00000000 I_sra_cg_cr_rs1_rs2_edges_rs1val_0x80000000_rs2val_0x80000001
0000b11c l       .data	00000000 I_sra_cg_cr_rs1_rs2_edges_rs1val_0x80000000_rs2val_0x80000001_str
00001c60 l       .text.rvtest	00000000 I_sra_cg_cr_rs1_rs2_edges_rs1val_0x80000000_rs2val_0x7fffffff
0000b177 l       .data	00000000 I_sra_cg_cr_rs1_rs2_edges_rs1val_0x80000000_rs2val_0x7fffffff_str
00001c8c l       .text.rvtest	00000000 I_sra_cg_cr_rs1_rs2_edges_rs1val_0x80000000_rs2val_0x7ffffffe
0000b1d2 l       .data	00000000 I_sra_cg_cr_rs1_rs2_edges_rs1val_0x80000000_rs2val_0x7ffffffe_str
00001cb8 l       .text.rvtest	00000000 I_sra_cg_cr_rs1_rs2_edges_rs1val_0x80000000_rs2val_0xffffffff
0000b22d l       .data	00000000 I_sra_cg_cr_rs1_rs2_edges_rs1val_0x80000000_rs2val_0xffffffff_str
00001ce4 l       .text.rvtest	00000000 I_sra_cg_cr_rs1_rs2_edges_rs1val_0x80000000_rs2val_0xfffffffe
0000b288 l       .data	00000000 I_sra_cg_cr_rs1_rs2_edges_rs1val_0x80000000_rs2val_0xfffffffe_str
00001d10 l       .text.rvtest	00000000 I_sra_cg_cr_rs1_rs2_edges_rs1val_0x80000000_rs2val_0x5bbc8872
0000b2e3 l       .data	00000000 I_sra_cg_cr_rs1_rs2_edges_rs1val_0x80000000_rs2val_0x5bbc8872_str
00001d3c l       .text.rvtest	00000000 I_sra_cg_cr_rs1_rs2_edges_rs1val_0x80000000_rs2val_0xaaaaaaaa
0000b33e l       .data	00000000 I_sra_cg_cr_rs1_rs2_edges_rs1val_0x80000000_rs2val_0xaaaaaaaa_str
00001d68 l       .text.rvtest	00000000 I_sra_cg_cr_rs1_rs2_edges_rs1val_0x80000000_rs2val_0x55555555
0000b399 l       .data	00000000 I_sra_cg_cr_rs1_rs2_edges_rs1val_0x80000000_rs2val_0x55555555_str
00001d94 l       .text.rvtest	00000000 I_sra_cg_cr_rs1_rs2_edges_rs1val_0x80000001_rs2val_0x0
0000b3f4 l       .data	00000000 I_sra_cg_cr_rs1_rs2_edges_rs1val_0x80000001_rs2val_0x0_str
00001dc0 l       .text.rvtest	00000000 I_sra_cg_cr_rs1_rs2_edges_rs1val_0x80000001_rs2val_0x1
0000b448 l       .data	00000000 I_sra_cg_cr_rs1_rs2_edges_rs1val_0x80000001_rs2val_0x1_str
00001dec l       .text.rvtest	00000000 I_sra_cg_cr_rs1_rs2_edges_rs1val_0x80000001_rs2val_0x2
0000b49c l       .data	00000000 I_sra_cg_cr_rs1_rs2_edges_rs1val_0x80000001_rs2val_0x2_str
00001e18 l       .text.rvtest	00000000 I_sra_cg_cr_rs1_rs2_edges_rs1val_0x80000001_rs2val_0x80000000
0000b4f0 l       .data	00000000 I_sra_cg_cr_rs1_rs2_edges_rs1val_0x80000001_rs2val_0x80000000_str
00001e44 l       .text.rvtest	00000000 I_sra_cg_cr_rs1_rs2_edges_rs1val_0x80000001_rs2val_0x80000001
0000b54b l       .data	00000000 I_sra_cg_cr_rs1_rs2_edges_rs1val_0x80000001_rs2val_0x80000001_str
00001e70 l       .text.rvtest	00000000 I_sra_cg_cr_rs1_rs2_edges_rs1val_0x80000001_rs2val_0x7fffffff
0000b5a6 l       .data	00000000 I_sra_cg_cr_rs1_rs2_edges_rs1val_0x80000001_rs2val_0x7fffffff_str
00001e9c l       .text.rvtest	00000000 I_sra_cg_cr_rs1_rs2_edges_rs1val_0x80000001_rs2val_0x7ffffffe
0000b601 l       .data	00000000 I_sra_cg_cr_rs1_rs2_edges_rs1val_0x80000001_rs2val_0x7ffffffe_str
00001ec8 l       .text.rvtest	00000000 I_sra_cg_cr_rs1_rs2_edges_rs1val_0x80000001_rs2val_0xffffffff
0000b65c l       .data	00000000 I_sra_cg_cr_rs1_rs2_edges_rs1val_0x80000001_rs2val_0xffffffff_str
00001ef4 l       .text.rvtest	00000000 I_sra_cg_cr_rs1_rs2_edges_rs1val_0x80000001_rs2val_0xfffffffe
0000b6b7 l       .data	00000000 I_sra_cg_cr_rs1_rs2_edges_rs1val_0x80000001_rs2val_0xfffffffe_str
00001f20 l       .text.rvtest	00000000 I_sra_cg_cr_rs1_rs2_edges_rs1val_0x80000001_rs2val_0x5bbc8872
0000b712 l       .data	00000000 I_sra_cg_cr_rs1_rs2_edges_rs1val_0x80000001_rs2val_0x5bbc8872_str
00001f4c l       .text.rvtest	00000000 I_sra_cg_cr_rs1_rs2_edges_rs1val_0x80000001_rs2val_0xaaaaaaaa
0000b76d l       .data	00000000 I_sra_cg_cr_rs1_rs2_edges_rs1val_0x80000001_rs2val_0xaaaaaaaa_str
00001f78 l       .text.rvtest	00000000 I_sra_cg_cr_rs1_rs2_edges_rs1val_0x80000001_rs2val_0x55555555
0000b7c8 l       .data	00000000 I_sra_cg_cr_rs1_rs2_edges_rs1val_0x80000001_rs2val_0x55555555_str
00001fa4 l       .text.rvtest	00000000 I_sra_cg_cr_rs1_rs2_edges_rs1val_0x7fffffff_rs2val_0x0
0000b823 l       .data	00000000 I_sra_cg_cr_rs1_rs2_edges_rs1val_0x7fffffff_rs2val_0x0_str
00001fd0 l       .text.rvtest	00000000 I_sra_cg_cr_rs1_rs2_edges_rs1val_0x7fffffff_rs2val_0x1
0000b877 l       .data	00000000 I_sra_cg_cr_rs1_rs2_edges_rs1val_0x7fffffff_rs2val_0x1_str
00001ffc l       .text.rvtest	00000000 I_sra_cg_cr_rs1_rs2_edges_rs1val_0x7fffffff_rs2val_0x2
0000b8cb l       .data	00000000 I_sra_cg_cr_rs1_rs2_edges_rs1val_0x7fffffff_rs2val_0x2_str
00002028 l       .text.rvtest	00000000 I_sra_cg_cr_rs1_rs2_edges_rs1val_0x7fffffff_rs2val_0x80000000
0000b91f l       .data	00000000 I_sra_cg_cr_rs1_rs2_edges_rs1val_0x7fffffff_rs2val_0x80000000_str
00002054 l       .text.rvtest	00000000 I_sra_cg_cr_rs1_rs2_edges_rs1val_0x7fffffff_rs2val_0x80000001
0000b97a l       .data	00000000 I_sra_cg_cr_rs1_rs2_edges_rs1val_0x7fffffff_rs2val_0x80000001_str
00002080 l       .text.rvtest	00000000 I_sra_cg_cr_rs1_rs2_edges_rs1val_0x7fffffff_rs2val_0x7fffffff
0000b9d5 l       .data	00000000 I_sra_cg_cr_rs1_rs2_edges_rs1val_0x7fffffff_rs2val_0x7fffffff_str
000020ac l       .text.rvtest	00000000 I_sra_cg_cr_rs1_rs2_edges_rs1val_0x7fffffff_rs2val_0x7ffffffe
0000ba30 l       .data	00000000 I_sra_cg_cr_rs1_rs2_edges_rs1val_0x7fffffff_rs2val_0x7ffffffe_str
000020d8 l       .text.rvtest	00000000 I_sra_cg_cr_rs1_rs2_edges_rs1val_0x7fffffff_rs2val_0xffffffff
0000ba8b l       .data	00000000 I_sra_cg_cr_rs1_rs2_edges_rs1val_0x7fffffff_rs2val_0xffffffff_str
00002104 l       .text.rvtest	00000000 I_sra_cg_cr_rs1_rs2_edges_rs1val_0x7fffffff_rs2val_0xfffffffe
0000bae6 l       .data	00000000 I_sra_cg_cr_rs1_rs2_edges_rs1val_0x7fffffff_rs2val_0xfffffffe_str
00002130 l       .text.rvtest	00000000 I_sra_cg_cr_rs1_rs2_edges_rs1val_0x7fffffff_rs2val_0x5bbc8872
0000bb41 l       .data	00000000 I_sra_cg_cr_rs1_rs2_edges_rs1val_0x7fffffff_rs2val_0x5bbc8872_str
0000215c l       .text.rvtest	00000000 I_sra_cg_cr_rs1_rs2_edges_rs1val_0x7fffffff_rs2val_0xaaaaaaaa
0000bb9c l       .data	00000000 I_sra_cg_cr_rs1_rs2_edges_rs1val_0x7fffffff_rs2val_0xaaaaaaaa_str
00002188 l       .text.rvtest	00000000 I_sra_cg_cr_rs1_rs2_edges_rs1val_0x7fffffff_rs2val_0x55555555
0000bbf7 l       .data	00000000 I_sra_cg_cr_rs1_rs2_edges_rs1val_0x7fffffff_rs2val_0x55555555_str
000021b4 l       .text.rvtest	00000000 I_sra_cg_cr_rs1_rs2_edges_rs1val_0x7ffffffe_rs2val_0x0
0000bc52 l       .data	00000000 I_sra_cg_cr_rs1_rs2_edges_rs1val_0x7ffffffe_rs2val_0x0_str
000021e0 l       .text.rvtest	00000000 I_sra_cg_cr_rs1_rs2_edges_rs1val_0x7ffffffe_rs2val_0x1
0000bca6 l       .data	00000000 I_sra_cg_cr_rs1_rs2_edges_rs1val_0x7ffffffe_rs2val_0x1_str
0000220c l       .text.rvtest	00000000 I_sra_cg_cr_rs1_rs2_edges_rs1val_0x7ffffffe_rs2val_0x2
0000bcfa l       .data	00000000 I_sra_cg_cr_rs1_rs2_edges_rs1val_0x7ffffffe_rs2val_0x2_str
00002238 l       .text.rvtest	00000000 I_sra_cg_cr_rs1_rs2_edges_rs1val_0x7ffffffe_rs2val_0x80000000
0000bd4e l       .data	00000000 I_sra_cg_cr_rs1_rs2_edges_rs1val_0x7ffffffe_rs2val_0x80000000_str
00002264 l       .text.rvtest	00000000 I_sra_cg_cr_rs1_rs2_edges_rs1val_0x7ffffffe_rs2val_0x80000001
0000bda9 l       .data	00000000 I_sra_cg_cr_rs1_rs2_edges_rs1val_0x7ffffffe_rs2val_0x80000001_str
00002290 l       .text.rvtest	00000000 I_sra_cg_cr_rs1_rs2_edges_rs1val_0x7ffffffe_rs2val_0x7fffffff
0000be04 l       .data	00000000 I_sra_cg_cr_rs1_rs2_edges_rs1val_0x7ffffffe_rs2val_0x7fffffff_str
000022bc l       .text.rvtest	00000000 I_sra_cg_cr_rs1_rs2_edges_rs1val_0x7ffffffe_rs2val_0x7ffffffe
0000be5f l       .data	00000000 I_sra_cg_cr_rs1_rs2_edges_rs1val_0x7ffffffe_rs2val_0x7ffffffe_str
000022e8 l       .text.rvtest	00000000 I_sra_cg_cr_rs1_rs2_edges_rs1val_0x7ffffffe_rs2val_0xffffffff
0000beba l       .data	00000000 I_sra_cg_cr_rs1_rs2_edges_rs1val_0x7ffffffe_rs2val_0xffffffff_str
00002314 l       .text.rvtest	00000000 I_sra_cg_cr_rs1_rs2_edges_rs1val_0x7ffffffe_rs2val_0xfffffffe
0000bf15 l       .data	00000000 I_sra_cg_cr_rs1_rs2_edges_rs1val_0x7ffffffe_rs2val_0xfffffffe_str
00002340 l       .text.rvtest	00000000 I_sra_cg_cr_rs1_rs2_edges_rs1val_0x7ffffffe_rs2val_0x5bbc8872
0000bf70 l       .data	00000000 I_sra_cg_cr_rs1_rs2_edges_rs1val_0x7ffffffe_rs2val_0x5bbc8872_str
0000236c l       .text.rvtest	00000000 I_sra_cg_cr_rs1_rs2_edges_rs1val_0x7ffffffe_rs2val_0xaaaaaaaa
0000bfcb l       .data	00000000 I_sra_cg_cr_rs1_rs2_edges_rs1val_0x7ffffffe_rs2val_0xaaaaaaaa_str
00002398 l       .text.rvtest	00000000 I_sra_cg_cr_rs1_rs2_edges_rs1val_0x7ffffffe_rs2val_0x55555555
0000c026 l       .data	00000000 I_sra_cg_cr_rs1_rs2_edges_rs1val_0x7ffffffe_rs2val_0x55555555_str
000023c4 l       .text.rvtest	00000000 I_sra_cg_cr_rs1_rs2_edges_rs1val_0xffffffff_rs2val_0x0
0000c081 l       .data	00000000 I_sra_cg_cr_rs1_rs2_edges_rs1val_0xffffffff_rs2val_0x0_str
000023f0 l       .text.rvtest	00000000 I_sra_cg_cr_rs1_rs2_edges_rs1val_0xffffffff_rs2val_0x1
0000c0d5 l       .data	00000000 I_sra_cg_cr_rs1_rs2_edges_rs1val_0xffffffff_rs2val_0x1_str
0000241c l       .text.rvtest	00000000 I_sra_cg_cr_rs1_rs2_edges_rs1val_0xffffffff_rs2val_0x2
0000c129 l       .data	00000000 I_sra_cg_cr_rs1_rs2_edges_rs1val_0xffffffff_rs2val_0x2_str
00002448 l       .text.rvtest	00000000 I_sra_cg_cr_rs1_rs2_edges_rs1val_0xffffffff_rs2val_0x80000000
0000c17d l       .data	00000000 I_sra_cg_cr_rs1_rs2_edges_rs1val_0xffffffff_rs2val_0x80000000_str
00002474 l       .text.rvtest	00000000 I_sra_cg_cr_rs1_rs2_edges_rs1val_0xffffffff_rs2val_0x80000001
0000c1d8 l       .data	00000000 I_sra_cg_cr_rs1_rs2_edges_rs1val_0xffffffff_rs2val_0x80000001_str
000024a0 l       .text.rvtest	00000000 I_sra_cg_cr_rs1_rs2_edges_rs1val_0xffffffff_rs2val_0x7fffffff
0000c233 l       .data	00000000 I_sra_cg_cr_rs1_rs2_edges_rs1val_0xffffffff_rs2val_0x7fffffff_str
000024cc l       .text.rvtest	00000000 I_sra_cg_cr_rs1_rs2_edges_rs1val_0xffffffff_rs2val_0x7ffffffe
0000c28e l       .data	00000000 I_sra_cg_cr_rs1_rs2_edges_rs1val_0xffffffff_rs2val_0x7ffffffe_str
000024f8 l       .text.rvtest	00000000 I_sra_cg_cr_rs1_rs2_edges_rs1val_0xffffffff_rs2val_0xffffffff
0000c2e9 l       .data	00000000 I_sra_cg_cr_rs1_rs2_edges_rs1val_0xffffffff_rs2val_0xffffffff_str
00002524 l       .text.rvtest	00000000 I_sra_cg_cr_rs1_rs2_edges_rs1val_0xffffffff_rs2val_0xfffffffe
0000c344 l       .data	00000000 I_sra_cg_cr_rs1_rs2_edges_rs1val_0xffffffff_rs2val_0xfffffffe_str
00002550 l       .text.rvtest	00000000 I_sra_cg_cr_rs1_rs2_edges_rs1val_0xffffffff_rs2val_0x5bbc8872
0000c39f l       .data	00000000 I_sra_cg_cr_rs1_rs2_edges_rs1val_0xffffffff_rs2val_0x5bbc8872_str
0000257c l       .text.rvtest	00000000 I_sra_cg_cr_rs1_rs2_edges_rs1val_0xffffffff_rs2val_0xaaaaaaaa
0000c3fa l       .data	00000000 I_sra_cg_cr_rs1_rs2_edges_rs1val_0xffffffff_rs2val_0xaaaaaaaa_str
000025a8 l       .text.rvtest	00000000 I_sra_cg_cr_rs1_rs2_edges_rs1val_0xffffffff_rs2val_0x55555555
0000c455 l       .data	00000000 I_sra_cg_cr_rs1_rs2_edges_rs1val_0xffffffff_rs2val_0x55555555_str
000025d4 l       .text.rvtest	00000000 I_sra_cg_cr_rs1_rs2_edges_rs1val_0xfffffffe_rs2val_0x0
0000c4b0 l       .data	00000000 I_sra_cg_cr_rs1_rs2_edges_rs1val_0xfffffffe_rs2val_0x0_str
00002600 l       .text.rvtest	00000000 I_sra_cg_cr_rs1_rs2_edges_rs1val_0xfffffffe_rs2val_0x1
0000c504 l       .data	00000000 I_sra_cg_cr_rs1_rs2_edges_rs1val_0xfffffffe_rs2val_0x1_str
0000262c l       .text.rvtest	00000000 I_sra_cg_cr_rs1_rs2_edges_rs1val_0xfffffffe_rs2val_0x2
0000c558 l       .data	00000000 I_sra_cg_cr_rs1_rs2_edges_rs1val_0xfffffffe_rs2val_0x2_str
00002658 l       .text.rvtest	00000000 I_sra_cg_cr_rs1_rs2_edges_rs1val_0xfffffffe_rs2val_0x80000000
0000c5ac l       .data	00000000 I_sra_cg_cr_rs1_rs2_edges_rs1val_0xfffffffe_rs2val_0x80000000_str
00002684 l       .text.rvtest	00000000 I_sra_cg_cr_rs1_rs2_edges_rs1val_0xfffffffe_rs2val_0x80000001
0000c607 l       .data	00000000 I_sra_cg_cr_rs1_rs2_edges_rs1val_0xfffffffe_rs2val_0x80000001_str
000026b0 l       .text.rvtest	00000000 I_sra_cg_cr_rs1_rs2_edges_rs1val_0xfffffffe_rs2val_0x7fffffff
0000c662 l       .data	00000000 I_sra_cg_cr_rs1_rs2_edges_rs1val_0xfffffffe_rs2val_0x7fffffff_str
000026dc l       .text.rvtest	00000000 I_sra_cg_cr_rs1_rs2_edges_rs1val_0xfffffffe_rs2val_0x7ffffffe
0000c6bd l       .data	00000000 I_sra_cg_cr_rs1_rs2_edges_rs1val_0xfffffffe_rs2val_0x7ffffffe_str
00002708 l       .text.rvtest	00000000 I_sra_cg_cr_rs1_rs2_edges_rs1val_0xfffffffe_rs2val_0xffffffff
0000c718 l       .data	00000000 I_sra_cg_cr_rs1_rs2_edges_rs1val_0xfffffffe_rs2val_0xffffffff_str
00002734 l       .text.rvtest	00000000 I_sra_cg_cr_rs1_rs2_edges_rs1val_0xfffffffe_rs2val_0xfffffffe
0000c773 l       .data	00000000 I_sra_cg_cr_rs1_rs2_edges_rs1val_0xfffffffe_rs2val_0xfffffffe_str
00002760 l       .text.rvtest	00000000 I_sra_cg_cr_rs1_rs2_edges_rs1val_0xfffffffe_rs2val_0x5bbc8872
0000c7ce l       .data	00000000 I_sra_cg_cr_rs1_rs2_edges_rs1val_0xfffffffe_rs2val_0x5bbc8872_str
0000278c l       .text.rvtest	00000000 I_sra_cg_cr_rs1_rs2_edges_rs1val_0xfffffffe_rs2val_0xaaaaaaaa
0000c829 l       .data	00000000 I_sra_cg_cr_rs1_rs2_edges_rs1val_0xfffffffe_rs2val_0xaaaaaaaa_str
000027b8 l       .text.rvtest	00000000 I_sra_cg_cr_rs1_rs2_edges_rs1val_0xfffffffe_rs2val_0x55555555
0000c884 l       .data	00000000 I_sra_cg_cr_rs1_rs2_edges_rs1val_0xfffffffe_rs2val_0x55555555_str
000027e4 l       .text.rvtest	00000000 I_sra_cg_cr_rs1_rs2_edges_rs1val_0x5bbc8872_rs2val_0x0
0000c8df l       .data	00000000 I_sra_cg_cr_rs1_rs2_edges_rs1val_0x5bbc8872_rs2val_0x0_str
00002810 l       .text.rvtest	00000000 I_sra_cg_cr_rs1_rs2_edges_rs1val_0x5bbc8872_rs2val_0x1
0000c933 l       .data	00000000 I_sra_cg_cr_rs1_rs2_edges_rs1val_0x5bbc8872_rs2val_0x1_str
0000283c l       .text.rvtest	00000000 I_sra_cg_cr_rs1_rs2_edges_rs1val_0x5bbc8872_rs2val_0x2
0000c987 l       .data	00000000 I_sra_cg_cr_rs1_rs2_edges_rs1val_0x5bbc8872_rs2val_0x2_str
00002868 l       .text.rvtest	00000000 I_sra_cg_cr_rs1_rs2_edges_rs1val_0x5bbc8872_rs2val_0x80000000
0000c9db l       .data	00000000 I_sra_cg_cr_rs1_rs2_edges_rs1val_0x5bbc8872_rs2val_0x80000000_str
00002894 l       .text.rvtest	00000000 I_sra_cg_cr_rs1_rs2_edges_rs1val_0x5bbc8872_rs2val_0x80000001
0000ca36 l       .data	00000000 I_sra_cg_cr_rs1_rs2_edges_rs1val_0x5bbc8872_rs2val_0x80000001_str
000028c0 l       .text.rvtest	00000000 I_sra_cg_cr_rs1_rs2_edges_rs1val_0x5bbc8872_rs2val_0x7fffffff
0000ca91 l       .data	00000000 I_sra_cg_cr_rs1_rs2_edges_rs1val_0x5bbc8872_rs2val_0x7fffffff_str
000028ec l       .text.rvtest	00000000 I_sra_cg_cr_rs1_rs2_edges_rs1val_0x5bbc8872_rs2val_0x7ffffffe
0000caec l       .data	00000000 I_sra_cg_cr_rs1_rs2_edges_rs1val_0x5bbc8872_rs2val_0x7ffffffe_str
00002918 l       .text.rvtest	00000000 I_sra_cg_cr_rs1_rs2_edges_rs1val_0x5bbc8872_rs2val_0xffffffff
0000cb47 l       .data	00000000 I_sra_cg_cr_rs1_rs2_edges_rs1val_0x5bbc8872_rs2val_0xffffffff_str
00002944 l       .text.rvtest	00000000 I_sra_cg_cr_rs1_rs2_edges_rs1val_0x5bbc8872_rs2val_0xfffffffe
0000cba2 l       .data	00000000 I_sra_cg_cr_rs1_rs2_edges_rs1val_0x5bbc8872_rs2val_0xfffffffe_str
00002970 l       .text.rvtest	00000000 I_sra_cg_cr_rs1_rs2_edges_rs1val_0x5bbc8872_rs2val_0x5bbc8872
0000cbfd l       .data	00000000 I_sra_cg_cr_rs1_rs2_edges_rs1val_0x5bbc8872_rs2val_0x5bbc8872_str
0000299c l       .text.rvtest	00000000 I_sra_cg_cr_rs1_rs2_edges_rs1val_0x5bbc8872_rs2val_0xaaaaaaaa
0000cc58 l       .data	00000000 I_sra_cg_cr_rs1_rs2_edges_rs1val_0x5bbc8872_rs2val_0xaaaaaaaa_str
000029c8 l       .text.rvtest	00000000 I_sra_cg_cr_rs1_rs2_edges_rs1val_0x5bbc8872_rs2val_0x55555555
0000ccb3 l       .data	00000000 I_sra_cg_cr_rs1_rs2_edges_rs1val_0x5bbc8872_rs2val_0x55555555_str
000029f4 l       .text.rvtest	00000000 I_sra_cg_cr_rs1_rs2_edges_rs1val_0xaaaaaaaa_rs2val_0x0
0000cd0e l       .data	00000000 I_sra_cg_cr_rs1_rs2_edges_rs1val_0xaaaaaaaa_rs2val_0x0_str
00002a20 l       .text.rvtest	00000000 I_sra_cg_cr_rs1_rs2_edges_rs1val_0xaaaaaaaa_rs2val_0x1
0000cd62 l       .data	00000000 I_sra_cg_cr_rs1_rs2_edges_rs1val_0xaaaaaaaa_rs2val_0x1_str
00002a4c l       .text.rvtest	00000000 I_sra_cg_cr_rs1_rs2_edges_rs1val_0xaaaaaaaa_rs2val_0x2
0000cdb6 l       .data	00000000 I_sra_cg_cr_rs1_rs2_edges_rs1val_0xaaaaaaaa_rs2val_0x2_str
00002a78 l       .text.rvtest	00000000 I_sra_cg_cr_rs1_rs2_edges_rs1val_0xaaaaaaaa_rs2val_0x80000000
0000ce0a l       .data	00000000 I_sra_cg_cr_rs1_rs2_edges_rs1val_0xaaaaaaaa_rs2val_0x80000000_str
00002aa4 l       .text.rvtest	00000000 I_sra_cg_cr_rs1_rs2_edges_rs1val_0xaaaaaaaa_rs2val_0x80000001
0000ce65 l       .data	00000000 I_sra_cg_cr_rs1_rs2_edges_rs1val_0xaaaaaaaa_rs2val_0x80000001_str
00002ad0 l       .text.rvtest	00000000 I_sra_cg_cr_rs1_rs2_edges_rs1val_0xaaaaaaaa_rs2val_0x7fffffff
0000cec0 l       .data	00000000 I_sra_cg_cr_rs1_rs2_edges_rs1val_0xaaaaaaaa_rs2val_0x7fffffff_str
00002afc l       .text.rvtest	00000000 I_sra_cg_cr_rs1_rs2_edges_rs1val_0xaaaaaaaa_rs2val_0x7ffffffe
0000cf1b l       .data	00000000 I_sra_cg_cr_rs1_rs2_edges_rs1val_0xaaaaaaaa_rs2val_0x7ffffffe_str
00002b28 l       .text.rvtest	00000000 I_sra_cg_cr_rs1_rs2_edges_rs1val_0xaaaaaaaa_rs2val_0xffffffff
0000cf76 l       .data	00000000 I_sra_cg_cr_rs1_rs2_edges_rs1val_0xaaaaaaaa_rs2val_0xffffffff_str
00002b54 l       .text.rvtest	00000000 I_sra_cg_cr_rs1_rs2_edges_rs1val_0xaaaaaaaa_rs2val_0xfffffffe
0000cfd1 l       .data	00000000 I_sra_cg_cr_rs1_rs2_edges_rs1val_0xaaaaaaaa_rs2val_0xfffffffe_str
00002b80 l       .text.rvtest	00000000 I_sra_cg_cr_rs1_rs2_edges_rs1val_0xaaaaaaaa_rs2val_0x5bbc8872
0000d02c l       .data	00000000 I_sra_cg_cr_rs1_rs2_edges_rs1val_0xaaaaaaaa_rs2val_0x5bbc8872_str
00002bac l       .text.rvtest	00000000 I_sra_cg_cr_rs1_rs2_edges_rs1val_0xaaaaaaaa_rs2val_0xaaaaaaaa
0000d087 l       .data	00000000 I_sra_cg_cr_rs1_rs2_edges_rs1val_0xaaaaaaaa_rs2val_0xaaaaaaaa_str
00002bd8 l       .text.rvtest	00000000 I_sra_cg_cr_rs1_rs2_edges_rs1val_0xaaaaaaaa_rs2val_0x55555555
0000d0e2 l       .data	00000000 I_sra_cg_cr_rs1_rs2_edges_rs1val_0xaaaaaaaa_rs2val_0x55555555_str
00002c04 l       .text.rvtest	00000000 I_sra_cg_cr_rs1_rs2_edges_rs1val_0x55555555_rs2val_0x0
0000d13d l       .data	00000000 I_sra_cg_cr_rs1_rs2_edges_rs1val_0x55555555_rs2val_0x0_str
00002c30 l       .text.rvtest	00000000 I_sra_cg_cr_rs1_rs2_edges_rs1val_0x55555555_rs2val_0x1
0000d191 l       .data	00000000 I_sra_cg_cr_rs1_rs2_edges_rs1val_0x55555555_rs2val_0x1_str
00002c5c l       .text.rvtest	00000000 I_sra_cg_cr_rs1_rs2_edges_rs1val_0x55555555_rs2val_0x2
0000d1e5 l       .data	00000000 I_sra_cg_cr_rs1_rs2_edges_rs1val_0x55555555_rs2val_0x2_str
00002c88 l       .text.rvtest	00000000 I_sra_cg_cr_rs1_rs2_edges_rs1val_0x55555555_rs2val_0x80000000
0000d239 l       .data	00000000 I_sra_cg_cr_rs1_rs2_edges_rs1val_0x55555555_rs2val_0x80000000_str
00002cb4 l       .text.rvtest	00000000 I_sra_cg_cr_rs1_rs2_edges_rs1val_0x55555555_rs2val_0x80000001
0000d294 l       .data	00000000 I_sra_cg_cr_rs1_rs2_edges_rs1val_0x55555555_rs2val_0x80000001_str
00002ce0 l       .text.rvtest	00000000 I_sra_cg_cr_rs1_rs2_edges_rs1val_0x55555555_rs2val_0x7fffffff
0000d2ef l       .data	00000000 I_sra_cg_cr_rs1_rs2_edges_rs1val_0x55555555_rs2val_0x7fffffff_str
00002d0c l       .text.rvtest	00000000 I_sra_cg_cr_rs1_rs2_edges_rs1val_0x55555555_rs2val_0x7ffffffe
0000d34a l       .data	00000000 I_sra_cg_cr_rs1_rs2_edges_rs1val_0x55555555_rs2val_0x7ffffffe_str
00002d38 l       .text.rvtest	00000000 I_sra_cg_cr_rs1_rs2_edges_rs1val_0x55555555_rs2val_0xffffffff
0000d3a5 l       .data	00000000 I_sra_cg_cr_rs1_rs2_edges_rs1val_0x55555555_rs2val_0xffffffff_str
00002d64 l       .text.rvtest	00000000 I_sra_cg_cr_rs1_rs2_edges_rs1val_0x55555555_rs2val_0xfffffffe
0000d400 l       .data	00000000 I_sra_cg_cr_rs1_rs2_edges_rs1val_0x55555555_rs2val_0xfffffffe_str
00002d90 l       .text.rvtest	00000000 I_sra_cg_cr_rs1_rs2_edges_rs1val_0x55555555_rs2val_0x5bbc8872
0000d45b l       .data	00000000 I_sra_cg_cr_rs1_rs2_edges_rs1val_0x55555555_rs2val_0x5bbc8872_str
00002dbc l       .text.rvtest	00000000 I_sra_cg_cr_rs1_rs2_edges_rs1val_0x55555555_rs2val_0xaaaaaaaa
0000d4b6 l       .data	00000000 I_sra_cg_cr_rs1_rs2_edges_rs1val_0x55555555_rs2val_0xaaaaaaaa_str
00002de8 l       .text.rvtest	00000000 I_sra_cg_cr_rs1_rs2_edges_rs1val_0x55555555_rs2val_0x55555555
0000d511 l       .data	00000000 I_sra_cg_cr_rs1_rs2_edges_rs1val_0x55555555_rs2val_0x55555555_str
00002e14 l       .text.rvtest	00000000 I_sra_cg_cmp_rs1_rs2_b0
0000d56c l       .data	00000000 I_sra_cg_cmp_rs1_rs2_b0_str
00002e44 l       .text.rvtest	00000000 I_sra_cg_cmp_rs1_rs2_b1
0000d5a0 l       .data	00000000 I_sra_cg_cmp_rs1_rs2_b1_str
00002e70 l       .text.rvtest	00000000 I_sra_cg_cmp_rs1_rs2_b2
0000d5d4 l       .data	00000000 I_sra_cg_cmp_rs1_rs2_b2_str
00002e9c l       .text.rvtest	00000000 I_sra_cg_cmp_rs1_rs2_b3
0000d608 l       .data	00000000 I_sra_cg_cmp_rs1_rs2_b3_str
00002ed0 l       .text.rvtest	00000000 I_sra_cg_cmp_rs1_rs2_b4
0000d63c l       .data	00000000 I_sra_cg_cmp_rs1_rs2_b4_str
00002efc l       .text.rvtest	00000000 I_sra_cg_cmp_rs1_rs2_b5
0000d670 l       .data	00000000 I_sra_cg_cmp_rs1_rs2_b5_str
00002f28 l       .text.rvtest	00000000 I_sra_cg_cmp_rs1_rs2_b6
0000d6a4 l       .data	00000000 I_sra_cg_cmp_rs1_rs2_b6_str
00002f5c l       .text.rvtest	00000000 I_sra_cg_cmp_rs1_rs2_b7
0000d6d8 l       .data	00000000 I_sra_cg_cmp_rs1_rs2_b7_str
00002f88 l       .text.rvtest	00000000 I_sra_cg_cmp_rs1_rs2_b8
0000d70c l       .data	00000000 I_sra_cg_cmp_rs1_rs2_b8_str
00002fb4 l       .text.rvtest	00000000 I_sra_cg_cmp_rs1_rs2_b9
0000d740 l       .data	00000000 I_sra_cg_cmp_rs1_rs2_b9_str
00002fe0 l       .text.rvtest	00000000 I_sra_cg_cmp_rs1_rs2_b10
0000d774 l       .data	00000000 I_sra_cg_cmp_rs1_rs2_b10_str
0000300c l       .text.rvtest	00000000 I_sra_cg_cmp_rs1_rs2_b11
0000d7a9 l       .data	00000000 I_sra_cg_cmp_rs1_rs2_b11_str
00003038 l       .text.rvtest	00000000 I_sra_cg_cmp_rs1_rs2_b12
0000d7de l       .data	00000000 I_sra_cg_cmp_rs1_rs2_b12_str
00003064 l       .text.rvtest	00000000 I_sra_cg_cmp_rs1_rs2_b13
0000d813 l       .data	00000000 I_sra_cg_cmp_rs1_rs2_b13_str
00003090 l       .text.rvtest	00000000 I_sra_cg_cmp_rs1_rs2_b14
0000d848 l       .data	00000000 I_sra_cg_cmp_rs1_rs2_b14_str
000030bc l       .text.rvtest	00000000 I_sra_cg_cmp_rs1_rs2_b15
0000d87d l       .data	00000000 I_sra_cg_cmp_rs1_rs2_b15_str
000030e8 l       .text.rvtest	00000000 I_sra_cg_cmp_rs1_rs2_b16
0000d8b2 l       .data	00000000 I_sra_cg_cmp_rs1_rs2_b16_str
00003114 l       .text.rvtest	00000000 I_sra_cg_cmp_rs1_rs2_b17
0000d8e7 l       .data	00000000 I_sra_cg_cmp_rs1_rs2_b17_str
00003140 l       .text.rvtest	00000000 I_sra_cg_cmp_rs1_rs2_b18
0000d91c l       .data	00000000 I_sra_cg_cmp_rs1_rs2_b18_str
0000316c l       .text.rvtest	00000000 I_sra_cg_cmp_rs1_rs2_b19
0000d951 l       .data	00000000 I_sra_cg_cmp_rs1_rs2_b19_str
00003198 l       .text.rvtest	00000000 I_sra_cg_cmp_rs1_rs2_b20
0000d986 l       .data	00000000 I_sra_cg_cmp_rs1_rs2_b20_str
000031c8 l       .text.rvtest	00000000 I_sra_cg_cmp_rs1_rs2_b21
0000d9bb l       .data	00000000 I_sra_cg_cmp_rs1_rs2_b21_str
000031f4 l       .text.rvtest	00000000 I_sra_cg_cmp_rs1_rs2_b22
0000d9f0 l       .data	00000000 I_sra_cg_cmp_rs1_rs2_b22_str
00003224 l       .text.rvtest	00000000 I_sra_cg_cmp_rs1_rs2_b23
0000da25 l       .data	00000000 I_sra_cg_cmp_rs1_rs2_b23_str
00003250 l       .text.rvtest	00000000 I_sra_cg_cmp_rs1_rs2_b24
0000da5a l       .data	00000000 I_sra_cg_cmp_rs1_rs2_b24_str
0000327c l       .text.rvtest	00000000 I_sra_cg_cmp_rs1_rs2_b25
0000da8f l       .data	00000000 I_sra_cg_cmp_rs1_rs2_b25_str
000032a8 l       .text.rvtest	00000000 I_sra_cg_cmp_rs1_rs2_b26
0000dac4 l       .data	00000000 I_sra_cg_cmp_rs1_rs2_b26_str
000032d4 l       .text.rvtest	00000000 I_sra_cg_cmp_rs1_rs2_b27
0000daf9 l       .data	00000000 I_sra_cg_cmp_rs1_rs2_b27_str
00003300 l       .text.rvtest	00000000 I_sra_cg_cmp_rs1_rs2_b28
0000db2e l       .data	00000000 I_sra_cg_cmp_rs1_rs2_b28_str
0000332c l       .text.rvtest	00000000 I_sra_cg_cmp_rs1_rs2_b29
0000db63 l       .data	00000000 I_sra_cg_cmp_rs1_rs2_b29_str
00003358 l       .text.rvtest	00000000 I_sra_cg_cmp_rs1_rs2_b30
0000db98 l       .data	00000000 I_sra_cg_cmp_rs1_rs2_b30_str
00003384 l       .text.rvtest	00000000 I_sra_cg_cmp_rs1_rs2_b31
0000dbcd l       .data	00000000 I_sra_cg_cmp_rs1_rs2_b31_str
000033b0 l       .text.rvtest	00000000 I_sra_cg_cmp_rd_rs1_b0
0000dc02 l       .data	00000000 I_sra_cg_cmp_rd_rs1_b0_str
000033dc l       .text.rvtest	00000000 I_sra_cg_cmp_rd_rs1_b1
0000dc35 l       .data	00000000 I_sra_cg_cmp_rd_rs1_b1_str
00003408 l       .text.rvtest	00000000 I_sra_cg_cmp_rd_rs1_b2
0000dc68 l       .data	00000000 I_sra_cg_cmp_rd_rs1_b2_str
00003438 l       .text.rvtest	00000000 I_sra_cg_cmp_rd_rs1_b3
0000dc9b l       .data	00000000 I_sra_cg_cmp_rd_rs1_b3_str
0000346c l       .text.rvtest	00000000 I_sra_cg_cmp_rd_rs1_b4
0000dcce l       .data	00000000 I_sra_cg_cmp_rd_rs1_b4_str
00003498 l       .text.rvtest	00000000 I_sra_cg_cmp_rd_rs1_b5
0000dd01 l       .data	00000000 I_sra_cg_cmp_rd_rs1_b5_str
000034c4 l       .text.rvtest	00000000 I_sra_cg_cmp_rd_rs1_b6
0000dd34 l       .data	00000000 I_sra_cg_cmp_rd_rs1_b6_str
000034f0 l       .text.rvtest	00000000 I_sra_cg_cmp_rd_rs1_b7
0000dd67 l       .data	00000000 I_sra_cg_cmp_rd_rs1_b7_str
0000351c l       .text.rvtest	00000000 I_sra_cg_cmp_rd_rs1_b8
0000dd9a l       .data	00000000 I_sra_cg_cmp_rd_rs1_b8_str
00003548 l       .text.rvtest	00000000 I_sra_cg_cmp_rd_rs1_b9
0000ddcd l       .data	00000000 I_sra_cg_cmp_rd_rs1_b9_str
00003574 l       .text.rvtest	00000000 I_sra_cg_cmp_rd_rs1_b10
0000de00 l       .data	00000000 I_sra_cg_cmp_rd_rs1_b10_str
000035a0 l       .text.rvtest	00000000 I_sra_cg_cmp_rd_rs1_b11
0000de34 l       .data	00000000 I_sra_cg_cmp_rd_rs1_b11_str
000035cc l       .text.rvtest	00000000 I_sra_cg_cmp_rd_rs1_b12
0000de68 l       .data	00000000 I_sra_cg_cmp_rd_rs1_b12_str
00003600 l       .text.rvtest	00000000 I_sra_cg_cmp_rd_rs1_b13
0000de9c l       .data	00000000 I_sra_cg_cmp_rd_rs1_b13_str
0000362c l       .text.rvtest	00000000 I_sra_cg_cmp_rd_rs1_b14
0000ded0 l       .data	00000000 I_sra_cg_cmp_rd_rs1_b14_str
00003658 l       .text.rvtest	00000000 I_sra_cg_cmp_rd_rs1_b15
0000df04 l       .data	00000000 I_sra_cg_cmp_rd_rs1_b15_str
00003684 l       .text.rvtest	00000000 I_sra_cg_cmp_rd_rs1_b16
0000df38 l       .data	00000000 I_sra_cg_cmp_rd_rs1_b16_str
000036b0 l       .text.rvtest	00000000 I_sra_cg_cmp_rd_rs1_b17
0000df6c l       .data	00000000 I_sra_cg_cmp_rd_rs1_b17_str
000036e0 l       .text.rvtest	00000000 I_sra_cg_cmp_rd_rs1_b18
0000dfa0 l       .data	00000000 I_sra_cg_cmp_rd_rs1_b18_str
00003710 l       .text.rvtest	00000000 I_sra_cg_cmp_rd_rs1_b19
0000dfd4 l       .data	00000000 I_sra_cg_cmp_rd_rs1_b19_str
0000373c l       .text.rvtest	00000000 I_sra_cg_cmp_rd_rs1_b20
0000e008 l       .data	00000000 I_sra_cg_cmp_rd_rs1_b20_str
00003768 l       .text.rvtest	00000000 I_sra_cg_cmp_rd_rs1_b21
0000e03c l       .data	00000000 I_sra_cg_cmp_rd_rs1_b21_str
00003794 l       .text.rvtest	00000000 I_sra_cg_cmp_rd_rs1_b22
0000e070 l       .data	00000000 I_sra_cg_cmp_rd_rs1_b22_str
000037c4 l       .text.rvtest	00000000 I_sra_cg_cmp_rd_rs1_b23
0000e0a4 l       .data	00000000 I_sra_cg_cmp_rd_rs1_b23_str
000037f0 l       .text.rvtest	00000000 I_sra_cg_cmp_rd_rs1_b24
0000e0d8 l       .data	00000000 I_sra_cg_cmp_rd_rs1_b24_str
0000381c l       .text.rvtest	00000000 I_sra_cg_cmp_rd_rs1_b25
0000e10c l       .data	00000000 I_sra_cg_cmp_rd_rs1_b25_str
00003848 l       .text.rvtest	00000000 I_sra_cg_cmp_rd_rs1_b26
0000e140 l       .data	00000000 I_sra_cg_cmp_rd_rs1_b26_str
00003874 l       .text.rvtest	00000000 I_sra_cg_cmp_rd_rs1_b27
0000e174 l       .data	00000000 I_sra_cg_cmp_rd_rs1_b27_str
000038a0 l       .text.rvtest	00000000 I_sra_cg_cmp_rd_rs1_b28
0000e1a8 l       .data	00000000 I_sra_cg_cmp_rd_rs1_b28_str
000038cc l       .text.rvtest	00000000 I_sra_cg_cmp_rd_rs1_b29
0000e1dc l       .data	00000000 I_sra_cg_cmp_rd_rs1_b29_str
000038f8 l       .text.rvtest	00000000 I_sra_cg_cmp_rd_rs1_b30
0000e210 l       .data	00000000 I_sra_cg_cmp_rd_rs1_b30_str
00003924 l       .text.rvtest	00000000 I_sra_cg_cmp_rd_rs1_b31
0000e244 l       .data	00000000 I_sra_cg_cmp_rd_rs1_b31_str
00003950 l       .text.rvtest	00000000 I_sra_cg_cmp_rd_rs2_b0
0000e278 l       .data	00000000 I_sra_cg_cmp_rd_rs2_b0_str
0000397c l       .text.rvtest	00000000 I_sra_cg_cmp_rd_rs2_b1
0000e2ab l       .data	00000000 I_sra_cg_cmp_rd_rs2_b1_str
000039a8 l       .text.rvtest	00000000 I_sra_cg_cmp_rd_rs2_b2
0000e2de l       .data	00000000 I_sra_cg_cmp_rd_rs2_b2_str
000039d8 l       .text.rvtest	00000000 I_sra_cg_cmp_rd_rs2_b3
0000e311 l       .data	00000000 I_sra_cg_cmp_rd_rs2_b3_str
00003a04 l       .text.rvtest	00000000 I_sra_cg_cmp_rd_rs2_b4
0000e344 l       .data	00000000 I_sra_cg_cmp_rd_rs2_b4_str
00003a30 l       .text.rvtest	00000000 I_sra_cg_cmp_rd_rs2_b5
0000e377 l       .data	00000000 I_sra_cg_cmp_rd_rs2_b5_str
00003a5c l       .text.rvtest	00000000 I_sra_cg_cmp_rd_rs2_b6
0000e3aa l       .data	00000000 I_sra_cg_cmp_rd_rs2_b6_str
00003a90 l       .text.rvtest	00000000 I_sra_cg_cmp_rd_rs2_b7
0000e3dd l       .data	00000000 I_sra_cg_cmp_rd_rs2_b7_str
00003abc l       .text.rvtest	00000000 I_sra_cg_cmp_rd_rs2_b8
0000e410 l       .data	00000000 I_sra_cg_cmp_rd_rs2_b8_str
00003ae8 l       .text.rvtest	00000000 I_sra_cg_cmp_rd_rs2_b9
0000e443 l       .data	00000000 I_sra_cg_cmp_rd_rs2_b9_str
00003b14 l       .text.rvtest	00000000 I_sra_cg_cmp_rd_rs2_b10
0000e476 l       .data	00000000 I_sra_cg_cmp_rd_rs2_b10_str
00003b40 l       .text.rvtest	00000000 I_sra_cg_cmp_rd_rs2_b11
0000e4aa l       .data	00000000 I_sra_cg_cmp_rd_rs2_b11_str
00003b6c l       .text.rvtest	00000000 I_sra_cg_cmp_rd_rs2_b12
0000e4de l       .data	00000000 I_sra_cg_cmp_rd_rs2_b12_str
00003b98 l       .text.rvtest	00000000 I_sra_cg_cmp_rd_rs2_b13
0000e512 l       .data	00000000 I_sra_cg_cmp_rd_rs2_b13_str
00003bc4 l       .text.rvtest	00000000 I_sra_cg_cmp_rd_rs2_b14
0000e546 l       .data	00000000 I_sra_cg_cmp_rd_rs2_b14_str
00003bf0 l       .text.rvtest	00000000 I_sra_cg_cmp_rd_rs2_b15
0000e57a l       .data	00000000 I_sra_cg_cmp_rd_rs2_b15_str
00003c20 l       .text.rvtest	00000000 I_sra_cg_cmp_rd_rs2_b16
0000e5ae l       .data	00000000 I_sra_cg_cmp_rd_rs2_b16_str
00003c4c l       .text.rvtest	00000000 I_sra_cg_cmp_rd_rs2_b17
0000e5e2 l       .data	00000000 I_sra_cg_cmp_rd_rs2_b17_str
00003c78 l       .text.rvtest	00000000 I_sra_cg_cmp_rd_rs2_b18
0000e616 l       .data	00000000 I_sra_cg_cmp_rd_rs2_b18_str
00003ca4 l       .text.rvtest	00000000 I_sra_cg_cmp_rd_rs2_b19
0000e64a l       .data	00000000 I_sra_cg_cmp_rd_rs2_b19_str
00003cd0 l       .text.rvtest	00000000 I_sra_cg_cmp_rd_rs2_b20
0000e67e l       .data	00000000 I_sra_cg_cmp_rd_rs2_b20_str
00003d00 l       .text.rvtest	00000000 I_sra_cg_cmp_rd_rs2_b21
0000e6b2 l       .data	00000000 I_sra_cg_cmp_rd_rs2_b21_str
00003d2c l       .text.rvtest	00000000 I_sra_cg_cmp_rd_rs2_b22
0000e6e6 l       .data	00000000 I_sra_cg_cmp_rd_rs2_b22_str
00003d58 l       .text.rvtest	00000000 I_sra_cg_cmp_rd_rs2_b23
0000e71a l       .data	00000000 I_sra_cg_cmp_rd_rs2_b23_str
00003d84 l       .text.rvtest	00000000 I_sra_cg_cmp_rd_rs2_b24
0000e74e l       .data	00000000 I_sra_cg_cmp_rd_rs2_b24_str
00003db0 l       .text.rvtest	00000000 I_sra_cg_cmp_rd_rs2_b25
0000e782 l       .data	00000000 I_sra_cg_cmp_rd_rs2_b25_str
00003ddc l       .text.rvtest	00000000 I_sra_cg_cmp_rd_rs2_b26
0000e7b6 l       .data	00000000 I_sra_cg_cmp_rd_rs2_b26_str
00003e08 l       .text.rvtest	00000000 I_sra_cg_cmp_rd_rs2_b27
0000e7ea l       .data	00000000 I_sra_cg_cmp_rd_rs2_b27_str
00003e34 l       .text.rvtest	00000000 I_sra_cg_cmp_rd_rs2_b28
0000e81e l       .data	00000000 I_sra_cg_cmp_rd_rs2_b28_str
00003e60 l       .text.rvtest	00000000 I_sra_cg_cmp_rd_rs2_b29
0000e852 l       .data	00000000 I_sra_cg_cmp_rd_rs2_b29_str
00003e8c l       .text.rvtest	00000000 I_sra_cg_cmp_rd_rs2_b30
0000e886 l       .data	00000000 I_sra_cg_cmp_rd_rs2_b30_str
00003eb8 l       .text.rvtest	00000000 I_sra_cg_cmp_rd_rs2_b31
0000e8ba l       .data	00000000 I_sra_cg_cmp_rd_rs2_b31_str
00003ee4 l       .text.rvtest	00000000 I_sra_cg_cmp_rd_rs1_rs2_b0
0000e8ee l       .data	00000000 I_sra_cg_cmp_rd_rs1_rs2_b0_str
00003f10 l       .text.rvtest	00000000 I_sra_cg_cmp_rd_rs1_rs2_b1
0000e925 l       .data	00000000 I_sra_cg_cmp_rd_rs1_rs2_b1_str
00003f3c l       .text.rvtest	00000000 I_sra_cg_cmp_rd_rs1_rs2_b2
0000e95c l       .data	00000000 I_sra_cg_cmp_rd_rs1_rs2_b2_str
00003f68 l       .text.rvtest	00000000 I_sra_cg_cmp_rd_rs1_rs2_b3
0000e993 l       .data	00000000 I_sra_cg_cmp_rd_rs1_rs2_b3_str
00003f9c l       .text.rvtest	00000000 I_sra_cg_cmp_rd_rs1_rs2_b4
0000e9ca l       .data	00000000 I_sra_cg_cmp_rd_rs1_rs2_b4_str
00003fc8 l       .text.rvtest	00000000 I_sra_cg_cmp_rd_rs1_rs2_b5
0000ea01 l       .data	00000000 I_sra_cg_cmp_rd_rs1_rs2_b5_str
00003ff4 l       .text.rvtest	00000000 I_sra_cg_cmp_rd_rs1_rs2_b6
0000ea38 l       .data	00000000 I_sra_cg_cmp_rd_rs1_rs2_b6_str
00004028 l       .text.rvtest	00000000 I_sra_cg_cmp_rd_rs1_rs2_b7
0000ea6f l       .data	00000000 I_sra_cg_cmp_rd_rs1_rs2_b7_str
00004054 l       .text.rvtest	00000000 I_sra_cg_cmp_rd_rs1_rs2_b8
0000eaa6 l       .data	00000000 I_sra_cg_cmp_rd_rs1_rs2_b8_str
00004080 l       .text.rvtest	00000000 I_sra_cg_cmp_rd_rs1_rs2_b9
0000eadd l       .data	00000000 I_sra_cg_cmp_rd_rs1_rs2_b9_str
000040ac l       .text.rvtest	00000000 I_sra_cg_cmp_rd_rs1_rs2_b10
0000eb14 l       .data	00000000 I_sra_cg_cmp_rd_rs1_rs2_b10_str
000040d8 l       .text.rvtest	00000000 I_sra_cg_cmp_rd_rs1_rs2_b11
0000eb4c l       .data	00000000 I_sra_cg_cmp_rd_rs1_rs2_b11_str
00004104 l       .text.rvtest	00000000 I_sra_cg_cmp_rd_rs1_rs2_b12
0000eb84 l       .data	00000000 I_sra_cg_cmp_rd_rs1_rs2_b12_str
00004138 l       .text.rvtest	00000000 I_sra_cg_cmp_rd_rs1_rs2_b13
0000ebbc l       .data	00000000 I_sra_cg_cmp_rd_rs1_rs2_b13_str
00004164 l       .text.rvtest	00000000 I_sra_cg_cmp_rd_rs1_rs2_b14
0000ebf4 l       .data	00000000 I_sra_cg_cmp_rd_rs1_rs2_b14_str
00004194 l       .text.rvtest	00000000 I_sra_cg_cmp_rd_rs1_rs2_b15
0000ec2c l       .data	00000000 I_sra_cg_cmp_rd_rs1_rs2_b15_str
000041c4 l       .text.rvtest	00000000 I_sra_cg_cmp_rd_rs1_rs2_b16
0000ec64 l       .data	00000000 I_sra_cg_cmp_rd_rs1_rs2_b16_str
000041f0 l       .text.rvtest	00000000 I_sra_cg_cmp_rd_rs1_rs2_b17
0000ec9c l       .data	00000000 I_sra_cg_cmp_rd_rs1_rs2_b17_str
0000421c l       .text.rvtest	00000000 I_sra_cg_cmp_rd_rs1_rs2_b18
0000ecd4 l       .data	00000000 I_sra_cg_cmp_rd_rs1_rs2_b18_str
00004248 l       .text.rvtest	00000000 I_sra_cg_cmp_rd_rs1_rs2_b19
0000ed0c l       .data	00000000 I_sra_cg_cmp_rd_rs1_rs2_b19_str
00004274 l       .text.rvtest	00000000 I_sra_cg_cmp_rd_rs1_rs2_b20
0000ed44 l       .data	00000000 I_sra_cg_cmp_rd_rs1_rs2_b20_str
000042a0 l       .text.rvtest	00000000 I_sra_cg_cmp_rd_rs1_rs2_b21
0000ed7c l       .data	00000000 I_sra_cg_cmp_rd_rs1_rs2_b21_str
000042cc l       .text.rvtest	00000000 I_sra_cg_cmp_rd_rs1_rs2_b22
0000edb4 l       .data	00000000 I_sra_cg_cmp_rd_rs1_rs2_b22_str
000042f8 l       .text.rvtest	00000000 I_sra_cg_cmp_rd_rs1_rs2_b23
0000edec l       .data	00000000 I_sra_cg_cmp_rd_rs1_rs2_b23_str
00004324 l       .text.rvtest	00000000 I_sra_cg_cmp_rd_rs1_rs2_b24
0000ee24 l       .data	00000000 I_sra_cg_cmp_rd_rs1_rs2_b24_str
00004350 l       .text.rvtest	00000000 I_sra_cg_cmp_rd_rs1_rs2_b25
0000ee5c l       .data	00000000 I_sra_cg_cmp_rd_rs1_rs2_b25_str
0000437c l       .text.rvtest	00000000 I_sra_cg_cmp_rd_rs1_rs2_b26
0000ee94 l       .data	00000000 I_sra_cg_cmp_rd_rs1_rs2_b26_str
000043a8 l       .text.rvtest	00000000 I_sra_cg_cmp_rd_rs1_rs2_b27
0000eecc l       .data	00000000 I_sra_cg_cmp_rd_rs1_rs2_b27_str
000043d4 l       .text.rvtest	00000000 I_sra_cg_cmp_rd_rs1_rs2_b28
0000ef04 l       .data	00000000 I_sra_cg_cmp_rd_rs1_rs2_b28_str
00004400 l       .text.rvtest	00000000 I_sra_cg_cmp_rd_rs1_rs2_b29
0000ef3c l       .data	00000000 I_sra_cg_cmp_rd_rs1_rs2_b29_str
0000442c l       .text.rvtest	00000000 I_sra_cg_cmp_rd_rs1_rs2_b30
0000ef74 l       .data	00000000 I_sra_cg_cmp_rd_rs1_rs2_b30_str
00004458 l       .text.rvtest	00000000 I_sra_cg_cmp_rd_rs1_rs2_b31
0000efac l       .data	00000000 I_sra_cg_cmp_rd_rs1_rs2_b31_str
00004478 l       .text.rvtest	00000000 exit_cleanup
0000f654 l       .data	00000000 successstr
00020204 l       .text.rvmodel	00000000 rvmodel_io_write_str
00020208 l       .text.rvmodel	00000000 rvmodel_halt_pass
000044b0 l       .text.rvtest	00000000 abort_test
6f5ca309 l       *ABS*	00000000 immx
6f5ca309 l       *ABS*	00000000 absimm
00000000 l       *ABS*	00000000 cry
00000309 l       *ABS*	00000000 imm12
0000eff0 l       .data	00000000 begin_failure_scratch
00004580 l       .text.rvtest	00000000 failedtest_saveregs
00004524 l       .text.rvtest	00000000 failedtest_trap_x7_x9
0000f160 l       .data	00000000 saved_mcause
0000f168 l       .data	00000000 saved_mtval
0000f170 l       .data	00000000 saved_mstatus
000045f0 l       .text.rvtest	00000000 failedtest_saveresults
0000eff0 l       .data	00000000 failure_type
0000466c l       .text.rvtest	00000000 failedtest_saveresults_trap
00004600 l       .text.rvtest	00000000 failedtest_saveresults_int
00004a40 l       .text.rvtest	00000000 failedtest_saveresults_common
0000f148 l       .data	00000000 trap_diag_fail_str_ptr
0000f81a l       .data	00000000 trap_sig_offset_mismatch
00004920 l       .text.rvtest	00000000 trap_diag_offset_mismatch
0000f120 l       .data	00000000 trap_diag_subtype
0000f87e l       .data	00000000 sv_Mvect_str
000049a0 l       .text.rvtest	00000000 trap_diag_field_identified
0000f980 l       .data	00000000 sv_Mcause_str
0000fa7b l       .data	00000000 sv_Mepc_str
0000fb6e l       .data	00000000 sv_Mtval_str
0000fce1 l       .data	00000000 sv_Mip_str
0000fc65 l       .data	00000000 sv_Mtval2_str
0000fca3 l       .data	00000000 sv_Mtinst_str
0000f8be l       .data	00000000 sv_Svect_str
0000f9be l       .data	00000000 sv_Scause_str
0000fab7 l       .data	00000000 sv_Sepc_str
0000fbab l       .data	00000000 sv_Stval_str
0000fd1c l       .data	00000000 sv_Sip_str
0000f8fe l       .data	00000000 sv_Hvect_str
0000f9fc l       .data	00000000 sv_Hcause_str
0000faf3 l       .data	00000000 sv_Hepc_str
0000fbe8 l       .data	00000000 sv_Htval_str
0000fd57 l       .data	00000000 sv_Hip_str
0000f93f l       .data	00000000 sv_Vvect_str
0000fa3b l       .data	00000000 sv_Vcause_str
0000fb30 l       .data	00000000 sv_Vepc_str
0000fc26 l       .data	00000000 sv_Vtval_str
0000fd93 l       .data	00000000 sv_Vip_str
0000fdd0 l       .data	00000000 Mclr_Mext_int_str
0000fe1f l       .data	00000000 Mclr_Sext_int_str
0000ff1a l       .data	00000000 Sclr_Sext_int_str
00010016 l       .data	00000000 Hclr_Sext_int_str
00004a30 l       .text.rvtest	00000000 trap_diag_generic_report
0000f138 l       .data	00000000 trap_diag_actual_offset
0000f140 l       .data	00000000 trap_diag_expected_offset
0000f124 l       .data	00000000 trap_diag_mode
0000f128 l       .data	00000000 trap_diag_actual_value
0000f130 l       .data	00000000 trap_diag_expected_value
00004a70 l       .text.rvtest	00000000 failedtest_report
00004a70 l       .text.rvtest	00000000 print_failstr
0000f68a l       .data	00000000 failstr
00004aa8 l       .text.rvtest	00000000 print_testnamestr
0000f71d l       .data	00000000 testnamestr
00004ae8 l       .text.rvtest	00000000 print_failure_test_name_str
0000f110 l       .data	00000000 failure_string_ptr
00004af8 l       .text.rvtest	00000000 print_newline_str
0000f72f l       .data	00000000 newlinestr
00004f2c l       .text.rvtest	00000000 failedtest_report_trap_detailed
0000f731 l       .data	00000000 inststr
0000f0f0 l       .data	00000000 failing_instruction
00005e78 l       .text.rvtest	00000000 failedtest_hex_to_str
0000f178 l       .data	00000000 ascii_buffer
0000f745 l       .data	00000000 addrstr
0000f0f8 l       .data	00000000 failing_addr
000101c2 l       .data	00000000 regstr
00004cd8 l       .text.rvtest	00000000 failedtest_report_not_intreg
0000f0f4 l       .data	00000000 failing_reg
00005ef4 l       .text.rvtest	00000000 failedtest_dec_to_str
00004db4 l       .text.rvtest	00000000 failedtest_report_print_regstr
00004d2c l       .text.rvtest	00000000 failedtest_report_fpreg
00004d78 l       .text.rvtest	00000000 failedtest_report_vecreg
00010222 l       .data	00000000 fflagsstr
00004de8 l       .text.rvtest	00000000 failedtest_report_after_reg
000101d3 l       .data	00000000 badvalstr
00004e4c l       .text.rvtest	00000000 failedtest_report_badval_not_fp
0000f100 l       .data	00000000 failing_value
00004e5c l       .text.rvtest	00000000 failedtest_report_badval_done
000101ea l       .data	00000000 expvalstr
00004eec l       .text.rvtest	00000000 failedtest_report_expval_not_fp
0000f108 l       .data	00000000 expected_value
00004efc l       .text.rvtest	00000000 failedtest_report_expval_done
00005c24 l       .text.rvtest	00000000 failedtest_report_end
0001024e l       .data	00000000 trap_diag_header_str
0001027a l       .data	00000000 trap_diag_origstr_label
00005000 l       .text.rvtest	00000000 trap_report_offset_mismatch
00005ab0 l       .text.rvtest	00000000 trap_report_generic
00005374 l       .text.rvtest	00000000 trap_report_field_mismatch
0001028a l       .data	00000000 trap_diag_count_mismatch_str
000102eb l       .data	00000000 trap_diag_expected_offset_str
00010312 l       .data	00000000 trap_diag_actual_offset_str
00005254 l       .text.rvtest	00000000 trap_report_missing_traps
0000513c l       .text.rvtest	00000000 trap_report_extra_traps
00010339 l       .data	00000000 trap_diag_extra_traps_str
000103be l       .data	00000000 trap_diag_extra_bytes_str
000103e9 l       .data	00000000 trap_diag_extra_hint_str
00005c70 l       .text.rvtest	00000000 failedtest_print_csr_context
00010373 l       .data	00000000 trap_diag_missing_traps_str
000104d1 l       .data	00000000 trap_diag_missing_hint_str
000105b8 l       .data	00000000 trap_diag_handler_mode_str
00005404 l       .text.rvtest	00000000 trap_mode_m
00005444 l       .text.rvtest	00000000 trap_mode_s
00005484 l       .text.rvtest	00000000 trap_mode_h
000054c4 l       .text.rvtest	00000000 trap_mode_v
000105f4 l       .data	00000000 trap_diag_mode_unknown_str
00005500 l       .text.rvtest	00000000 trap_mode_print
000105d2 l       .data	00000000 trap_diag_mode_m_str
000105da l       .data	00000000 trap_diag_mode_s_str
000105e2 l       .data	00000000 trap_diag_mode_hs_str
000105eb l       .data	00000000 trap_diag_mode_vs_str
000105fd l       .data	00000000 trap_diag_field_str
000055c4 l       .text.rvtest	00000000 trap_field_vect
00005604 l       .text.rvtest	00000000 trap_field_cause
00005644 l       .text.rvtest	00000000 trap_field_epc
00005684 l       .text.rvtest	00000000 trap_field_tval
000056c4 l       .text.rvtest	00000000 trap_field_ip
00005704 l       .text.rvtest	00000000 trap_field_tval2
00005744 l       .text.rvtest	00000000 trap_field_tinst
00005784 l       .text.rvtest	00000000 trap_field_intid
00010754 l       .data	00000000 trap_diag_field_unknown_str
000057c0 l       .text.rvtest	00000000 trap_field_print
00010617 l       .data	00000000 trap_diag_field_vect_str
00010648 l       .data	00000000 trap_diag_field_cause_str
00010668 l       .data	00000000 trap_diag_field_epc_str
00010686 l       .data	00000000 trap_diag_field_tval_str
000106a5 l       .data	00000000 trap_diag_field_ip_str
000106cd l       .data	00000000 trap_diag_field_tval2_str
000106f9 l       .data	00000000 trap_diag_field_tinst_str
00010725 l       .data	00000000 trap_diag_field_intid_str
00010763 l       .data	00000000 trap_diag_expected_str
0001077a l       .data	00000000 trap_diag_actual_str
0000595c l       .text.rvtest	00000000 trap_field_not_cause
00010791 l       .data	00000000 trap_diag_expected_cause_name_str
00005b94 l       .text.rvtest	00000000 trap_cause_to_str
000107a8 l       .data	00000000 trap_diag_actual_cause_name_str
0000595c l       .text.rvtest	00000000 trap_field_not_epc
0001081e l       .data	00000000 trap_diag_hint_vect_str
000108f4 l       .data	00000000 trap_diag_hint_cause_str
000109e7 l       .data	00000000 trap_diag_hint_epc_str
00010ae2 l       .data	00000000 trap_diag_hint_tval_str
00010bc9 l       .data	00000000 trap_diag_hint_ip_str
000107d6 l       .data	00000000 trap_diag_generic_str
0000f158 l       .data	00000000 saved_mepc
0000f7b9 l       .data	00000000 xepcinstrstr
00005bb8 l       .text.rvtest	00000000 trap_cause_interrupt
00005b98 l       .text.rvtest	00000000 trap_cause_exception
00005be4 l       .text.rvtest	00000000 trap_cause_unknown
0000f1a0 l       .data	00000000 trap_excpt_name_tbl
0000f200 l       .data	00000000 trap_int_name_tbl
0000f63e l       .data	00000000 trap_cause_unknown_str
00010201 l       .data	00000000 endstr
00005c68 l       .text.rvtest	00000000 failedtest_terminate
00020214 l       .text.rvmodel	00000000 rvmodel_halt_fail
0000f150 l       .data	00000000 csr_context_ret_addr
0000f7da l       .data	00000000 mepcstr
0000f7ea l       .data	00000000 mcausestr
0000f7fa l       .data	00000000 mtvalstr
0000f80a l       .data	00000000 mstatusstr
00005eb8 l       .text.rvtest	00000000 failedtest_hex_to_str_loop
00005ed4 l       .text.rvtest	00000000 failedtest_hex_to_str_digit
00005ed8 l       .text.rvtest	00000000 failedtest_hex_to_str_write
00020000 l       .text.rvmodel	00000000 rvtest_boot_to_mmode
00020000 l       .text.rvmodel	00000000 rvtest_init_regs
00010cb0 l       .data	00000000 signature_base
000201a0 l       .text.rvmodel	00000000 canary_check
0001022a l       .data	00000000 canary_mismatch
00008000 l       .data	00000000 scratch
0000f1a0 l       .data	00000000 end_failure_scratch
0000f240 l       .data	00000000 trap_excpt_name_0
0000f260 l       .data	00000000 trap_excpt_name_1
0000f27a l       .data	00000000 trap_excpt_name_2
0000f28f l       .data	00000000 trap_excpt_name_3
0000f29b l       .data	00000000 trap_excpt_name_4
0000f2b4 l       .data	00000000 trap_excpt_name_5
0000f2c7 l       .data	00000000 trap_excpt_name_6
0000f2e5 l       .data	00000000 trap_excpt_name_7
0000f2fd l       .data	00000000 trap_excpt_name_8
0000f31b l       .data	00000000 trap_excpt_name_9
0000f339 l       .data	00000000 trap_excpt_name_10
0000f358 l       .data	00000000 trap_excpt_name_11
0000f376 l       .data	00000000 trap_excpt_name_12
0000f38e l       .data	00000000 trap_excpt_name_13
0000f39f l       .data	00000000 trap_excpt_name_14
0000f3ae l       .data	00000000 trap_excpt_name_15
0000f3c4 l       .data	00000000 trap_excpt_name_16
0000f3d1 l       .data	00000000 trap_excpt_name_17
0000f3e0 l       .data	00000000 trap_excpt_name_18
0000f3f0 l       .data	00000000 trap_excpt_name_19
0000f400 l       .data	00000000 trap_excpt_name_20
0000f41e l       .data	00000000 trap_excpt_name_21
0000f435 l       .data	00000000 trap_excpt_name_22
0000f44a l       .data	00000000 trap_excpt_name_23
0000f466 l       .data	00000000 trap_int_name_0
0000f47e l       .data	00000000 trap_int_name_1
0000f49d l       .data	00000000 trap_int_name_2
0000f4c4 l       .data	00000000 trap_int_name_3
0000f4e0 l       .data	00000000 trap_int_name_4
0000f4f8 l       .data	00000000 trap_int_name_5
0000f514 l       .data	00000000 trap_int_name_6
0000f538 l       .data	00000000 trap_int_name_7
0000f551 l       .data	00000000 trap_int_name_8
0000f569 l       .data	00000000 trap_int_name_9
0000f588 l       .data	00000000 trap_int_name_10
0000f5af l       .data	00000000 trap_int_name_11
0000f5cb l       .data	00000000 trap_int_name_12
0000f5f0 l       .data	00000000 trap_int_name_13
0000f60c l       .data	00000000 trap_int_name_14
0000f625 l       .data	00000000 trap_int_name_15
0000f6df l       .data	00000000 abortstr
0000f786 l       .data	00000000 xepcstr
0000fe71 l       .data	00000000 Mclr_Vext_int_str
0000fecb l       .data	00000000 Sclr_Mext_int_str
0000ff6c l       .data	00000000 Sclr_Vext_int_str
0000ffc6 l       .data	00000000 Hclr_Mext_int_str
00010069 l       .data	00000000 Hclr_Vext_int_str
000100c4 l       .data	00000000 Vclr_Mext_int_str
00010114 l       .data	00000000 Vclr_Sext_int_str
00010167 l       .data	00000000 Vclr_Vext_int_str
000107bf l       .data	00000000 trap_diag_curr_xepc_str
00011300 l       .data	00000000 trap_sigptr
0001fd70 g       .data	00000000 end_signature
0001fd70 g       .data	00000000 rvtest_sig_end
00000000 g       .text.init	00000000 rvtest_entry_point
00010cb0 g       .data	00000000 begin_signature
00004478 g       .text.rvtest	00000000 rvtest_code_end
00000040 g       .text.rvtest	00000000 rvtest_code_begin
00010cb0 g       .data	00000000 rvtest_sig_begin
00008110 g       .data	00000000 rvtest_data_begin
00010cae g       .data	00000000 rvtest_data_end
00004478 g       .text.rvtest	00000000 cleanup_epilogs
00021000 g       .text.rvmodel	00000000 _end



Disassembly of section .text.init:

00000000 <rvtest_entry_point>:

// Include framework macros
#include "riscv_arch_test.h"

// Set up test environment and declare main entry point
RVTEST_BEGIN
   0:	00020097          	auipc	x1,0x20
   4:	00008093          	addi	x1,x1,0 # 20000 <rvmodel_boot>
   8:	00000013          	addi	x0,x0,0
   c:	00000013          	addi	x0,x0,0
  10:	00000013          	addi	x0,x0,0
  14:	00000013          	addi	x0,x0,0
  18:	00000013          	addi	x0,x0,0
  1c:	00000013          	addi	x0,x0,0
  20:	000080e7          	jalr	x1,0(x1)
  24:	00000013          	addi	x0,x0,0
  28:	00000013          	addi	x0,x0,0
  2c:	00000013          	addi	x0,x0,0
  30:	00000013          	addi	x0,x0,0
  34:	00000013          	addi	x0,x0,0
  38:	00000013          	addi	x0,x0,0
  3c:	00000013          	addi	x0,x0,0

Disassembly of section .text.rvtest:

00000040 <rvtest_code_begin>:
/////////////////////////////////
// cp_rs1
/////////////////////////////////

# Testcase cp_rs1 (Test source rs1 = x0)
  RVTEST_TESTDATA_LOAD_INT(x3, x0) # load rs1: x0 = 0x16d12b23
      40:	0001a003          	lw	x0,0(x3)
      44:	00418193          	addi	x3,x3,4
  RVTEST_TESTDATA_LOAD_INT(x3, x10) # load rs2: x10 = 0x2e7b31a3
      48:	0001a503          	lw	x10,0(x3)
      4c:	00418193          	addi	x3,x3,4

00000050 <I_sra_cg_cp_rs1_b0>:
I_sra_cg_cp_rs1_b0:
  sra x28, x0, x10 # perform operation
      50:	40a05e33          	sra	x28,x0,x10
  # Check if x28 contains the expected result. x2 is the signature ptr, x5 is the link ptr, x4 is a temp reg.
  RVTEST_SIGUPD(x2, x5, x4, x28, I_sra_cg_cp_rs1_b0, I_sra_cg_cp_rs1_b0_str)
      54:	00012203          	lw	x4,0(x2)
      58:	01c20863          	beq	x4,x28,68 <I_sra_cg_cp_rs1_b0+0x18>
      5c:	460042ef          	jal	x5,44bc <failedtest_x5_x4>
      60:	00000050          	.word	0x00000050
      64:	00008d50          	.word	0x00008d50
      68:	00410113          	addi	x2,x2,4

# Testcase cp_rs1 (Test source rs1 = x1)
  RVTEST_TESTDATA_LOAD_INT(x3, x1) # load rs1: x1 = 0x5a0d3864
      6c:	0001a083          	lw	x1,0(x3)
      70:	00418193          	addi	x3,x3,4
  RVTEST_TESTDATA_LOAD_INT(x3, x18) # load rs2: x18 = 0x5fc3364c
      74:	0001a903          	lw	x18,0(x3)
      78:	00418193          	addi	x3,x3,4

0000007c <I_sra_cg_cp_rs1_b1>:
I_sra_cg_cp_rs1_b1:
  sra x10, x1, x18 # perform operation
      7c:	4120d533          	sra	x10,x1,x18
  # Check if x10 contains the expected result. x2 is the signature ptr, x5 is the link ptr, x4 is a temp reg.
  RVTEST_SIGUPD(x2, x5, x4, x10, I_sra_cg_cp_rs1_b1, I_sra_cg_cp_rs1_b1_str)
      80:	00012203          	lw	x4,0(x2)
      84:	00a20863          	beq	x4,x10,94 <I_sra_cg_cp_rs1_b1+0x18>
      88:	434042ef          	jal	x5,44bc <failedtest_x5_x4>
      8c:	0000007c          	.word	0x0000007c
      90:	00008d7d          	.word	0x00008d7d
      94:	00410113          	addi	x2,x2,4

  mv x12, x2 # switch signature pointer register to avoid conflict with test
      98:	00010613          	addi	x12,x2,0
# Testcase cp_rs1 (Test source rs1 = x2)
  RVTEST_TESTDATA_LOAD_INT(x3, x2) # load rs1: x2 = 0x2822ddd2
      9c:	0001a103          	lw	x2,0(x3)
      a0:	00418193          	addi	x3,x3,4
  RVTEST_TESTDATA_LOAD_INT(x3, x10) # load rs2: x10 = 0x601f626b
      a4:	0001a503          	lw	x10,0(x3)
      a8:	00418193          	addi	x3,x3,4

000000ac <I_sra_cg_cp_rs1_b2>:
I_sra_cg_cp_rs1_b2:
  sra x0, x2, x10 # perform operation
      ac:	40a15033          	sra	x0,x2,x10
  # Check if x0 contains the expected result. x12 is the signature ptr, x5 is the link ptr, x4 is a temp reg.
  RVTEST_SIGUPD(x12, x5, x4, x0, I_sra_cg_cp_rs1_b2, I_sra_cg_cp_rs1_b2_str)
      b0:	00062203          	lw	x4,0(x12)
      b4:	00020863          	beq	x4,x0,c4 <I_sra_cg_cp_rs1_b2+0x18>
      b8:	404042ef          	jal	x5,44bc <failedtest_x5_x4>
      bc:	000000ac          	.word	0x000000ac
      c0:	00008daa          	.word	0x00008daa
      c4:	00460613          	addi	x12,x12,4

  mv x30, x3 # switch data pointer register to avoid conflict with test
      c8:	00018f13          	addi	x30,x3,0
# Testcase cp_rs1 (Test source rs1 = x3)
  RVTEST_TESTDATA_LOAD_INT(x30, x3) # load rs1: x3 = 0x7ad29765
      cc:	000f2183          	lw	x3,0(x30)
      d0:	004f0f13          	addi	x30,x30,4
  RVTEST_TESTDATA_LOAD_INT(x30, x7) # load rs2: x7 = 0xf0f77233
      d4:	000f2383          	lw	x7,0(x30)
      d8:	004f0f13          	addi	x30,x30,4

000000dc <I_sra_cg_cp_rs1_b3>:
I_sra_cg_cp_rs1_b3:
  sra x6, x3, x7 # perform operation
      dc:	4071d333          	sra	x6,x3,x7
  # Check if x6 contains the expected result. x12 is the signature ptr, x5 is the link ptr, x4 is a temp reg.
  RVTEST_SIGUPD(x12, x5, x4, x6, I_sra_cg_cp_rs1_b3, I_sra_cg_cp_rs1_b3_str)
      e0:	00062203          	lw	x4,0(x12)
      e4:	00620863          	beq	x4,x6,f4 <I_sra_cg_cp_rs1_b3+0x18>
      e8:	3d4042ef          	jal	x5,44bc <failedtest_x5_x4>
      ec:	000000dc          	.word	0x000000dc
      f0:	00008dd7          	.word	0x00008dd7
      f4:	00460613          	addi	x12,x12,4

  mv x13, x4 # switch temp register to avoid conflict with test
      f8:	00020693          	addi	x13,x4,0 # 0 <rvtest_entry_point>
  mv x14, x5 # switch link pointer register to avoid conflict with test
      fc:	00028713          	addi	x14,x5,0
# Testcase cp_rs1 (Test source rs1 = x4)
  RVTEST_TESTDATA_LOAD_INT(x30, x4) # load rs1: x4 = 0x580b98df
     100:	000f2203          	lw	x4,0(x30)
     104:	004f0f13          	addi	x30,x30,4
  RVTEST_TESTDATA_LOAD_INT(x30, x2) # load rs2: x2 = 0x8edf6b09
     108:	000f2103          	lw	x2,0(x30)
     10c:	004f0f13          	addi	x30,x30,4

00000110 <I_sra_cg_cp_rs1_b4>:
I_sra_cg_cp_rs1_b4:
  sra x9, x4, x2 # perform operation
     110:	402254b3          	sra	x9,x4,x2
  # Check if x9 contains the expected result. x12 is the signature ptr, x14 is the link ptr, x13 is a temp reg.
  RVTEST_SIGUPD(x12, x14, x13, x9, I_sra_cg_cp_rs1_b4, I_sra_cg_cp_rs1_b4_str)
     114:	00062683          	lw	x13,0(x12)
     118:	00968863          	beq	x13,x9,128 <I_sra_cg_cp_rs1_b4+0x18>
     11c:	3e00476f          	jal	x14,44fc <failedtest_x14_x13>
     120:	00000110          	.word	0x00000110
     124:	00008e04          	.word	0x00008e04
     128:	00460613          	addi	x12,x12,4

# Testcase cp_rs1 (Test source rs1 = x5)
  RVTEST_TESTDATA_LOAD_INT(x30, x5) # load rs1: x5 = 0x7fa5b1d8
     12c:	000f2283          	lw	x5,0(x30)
     130:	004f0f13          	addi	x30,x30,4
  RVTEST_TESTDATA_LOAD_INT(x30, x1) # load rs2: x1 = 0xbdef610c
     134:	000f2083          	lw	x1,0(x30)
     138:	004f0f13          	addi	x30,x30,4

0000013c <I_sra_cg_cp_rs1_b5>:
I_sra_cg_cp_rs1_b5:
  sra x4, x5, x1 # perform operation
     13c:	4012d233          	sra	x4,x5,x1
  # Check if x4 contains the expected result. x12 is the signature ptr, x14 is the link ptr, x13 is a temp reg.
  RVTEST_SIGUPD(x12, x14, x13, x4, I_sra_cg_cp_rs1_b5, I_sra_cg_cp_rs1_b5_str)
     140:	00062683          	lw	x13,0(x12)
     144:	00468863          	beq	x13,x4,154 <I_sra_cg_cp_rs1_b5+0x18>
     148:	3b40476f          	jal	x14,44fc <failedtest_x14_x13>
     14c:	0000013c          	.word	0x0000013c
     150:	00008e31          	.word	0x00008e31
     154:	00460613          	addi	x12,x12,4

# Testcase cp_rs1 (Test source rs1 = x6)
  RVTEST_TESTDATA_LOAD_INT(x30, x6) # load rs1: x6 = 0x70189d4d
     158:	000f2303          	lw	x6,0(x30)
     15c:	004f0f13          	addi	x30,x30,4
  RVTEST_TESTDATA_LOAD_INT(x30, x5) # load rs2: x5 = 0x1b1ad0cc
     160:	000f2283          	lw	x5,0(x30)
     164:	004f0f13          	addi	x30,x30,4

00000168 <I_sra_cg_cp_rs1_b6>:
I_sra_cg_cp_rs1_b6:
  sra x23, x6, x5 # perform operation
     168:	40535bb3          	sra	x23,x6,x5
  # Check if x23 contains the expected result. x12 is the signature ptr, x14 is the link ptr, x13 is a temp reg.
  RVTEST_SIGUPD(x12, x14, x13, x23, I_sra_cg_cp_rs1_b6, I_sra_cg_cp_rs1_b6_str)
     16c:	00062683          	lw	x13,0(x12)
     170:	01768863          	beq	x13,x23,180 <I_sra_cg_cp_rs1_b6+0x18>
     174:	3880476f          	jal	x14,44fc <failedtest_x14_x13>
     178:	00000168          	.word	0x00000168
     17c:	00008e5e          	.word	0x00008e5e
     180:	00460613          	addi	x12,x12,4

# Testcase cp_rs1 (Test source rs1 = x7)
  RVTEST_TESTDATA_LOAD_INT(x30, x7) # load rs1: x7 = 0x06e219a2
     184:	000f2383          	lw	x7,0(x30)
     188:	004f0f13          	addi	x30,x30,4
  RVTEST_TESTDATA_LOAD_INT(x30, x18) # load rs2: x18 = 0xedde8ea5
     18c:	000f2903          	lw	x18,0(x30)
     190:	004f0f13          	addi	x30,x30,4

00000194 <I_sra_cg_cp_rs1_b7>:
I_sra_cg_cp_rs1_b7:
  sra x19, x7, x18 # perform operation
     194:	4123d9b3          	sra	x19,x7,x18
  # Check if x19 contains the expected result. x12 is the signature ptr, x14 is the link ptr, x13 is a temp reg.
  RVTEST_SIGUPD(x12, x14, x13, x19, I_sra_cg_cp_rs1_b7, I_sra_cg_cp_rs1_b7_str)
     198:	00062683          	lw	x13,0(x12)
     19c:	01368863          	beq	x13,x19,1ac <I_sra_cg_cp_rs1_b7+0x18>
     1a0:	35c0476f          	jal	x14,44fc <failedtest_x14_x13>
     1a4:	00000194          	.word	0x00000194
     1a8:	00008e8b          	.word	0x00008e8b
     1ac:	00460613          	addi	x12,x12,4

# Testcase cp_rs1 (Test source rs1 = x8)
  RVTEST_TESTDATA_LOAD_INT(x30, x8) # load rs1: x8 = 0xf5677d3d
     1b0:	000f2403          	lw	x8,0(x30)
     1b4:	004f0f13          	addi	x30,x30,4
  RVTEST_TESTDATA_LOAD_INT(x30, x27) # load rs2: x27 = 0x5cdfecd4
     1b8:	000f2d83          	lw	x27,0(x30)
     1bc:	004f0f13          	addi	x30,x30,4

000001c0 <I_sra_cg_cp_rs1_b8>:
I_sra_cg_cp_rs1_b8:
  sra x17, x8, x27 # perform operation
     1c0:	41b458b3          	sra	x17,x8,x27
  # Check if x17 contains the expected result. x12 is the signature ptr, x14 is the link ptr, x13 is a temp reg.
  RVTEST_SIGUPD(x12, x14, x13, x17, I_sra_cg_cp_rs1_b8, I_sra_cg_cp_rs1_b8_str)
     1c4:	00062683          	lw	x13,0(x12)
     1c8:	01168863          	beq	x13,x17,1d8 <I_sra_cg_cp_rs1_b8+0x18>
     1cc:	3300476f          	jal	x14,44fc <failedtest_x14_x13>
     1d0:	000001c0          	.word	0x000001c0
     1d4:	00008eb8          	.word	0x00008eb8
     1d8:	00460613          	addi	x12,x12,4

# Testcase cp_rs1 (Test source rs1 = x9)
  RVTEST_TESTDATA_LOAD_INT(x30, x9) # load rs1: x9 = 0xa6e5aa25
     1dc:	000f2483          	lw	x9,0(x30)
     1e0:	004f0f13          	addi	x30,x30,4
  RVTEST_TESTDATA_LOAD_INT(x30, x27) # load rs2: x27 = 0x76de6bbb
     1e4:	000f2d83          	lw	x27,0(x30)
     1e8:	004f0f13          	addi	x30,x30,4

000001ec <I_sra_cg_cp_rs1_b9>:
I_sra_cg_cp_rs1_b9:
  sra x19, x9, x27 # perform operation
     1ec:	41b4d9b3          	sra	x19,x9,x27
  # Check if x19 contains the expected result. x12 is the signature ptr, x14 is the link ptr, x13 is a temp reg.
  RVTEST_SIGUPD(x12, x14, x13, x19, I_sra_cg_cp_rs1_b9, I_sra_cg_cp_rs1_b9_str)
     1f0:	00062683          	lw	x13,0(x12)
     1f4:	01368863          	beq	x13,x19,204 <I_sra_cg_cp_rs1_b9+0x18>
     1f8:	3040476f          	jal	x14,44fc <failedtest_x14_x13>
     1fc:	000001ec          	.word	0x000001ec
     200:	00008ee5          	.word	0x00008ee5
     204:	00460613          	addi	x12,x12,4

# Testcase cp_rs1 (Test source rs1 = x10)
  RVTEST_TESTDATA_LOAD_INT(x30, x10) # load rs1: x10 = 0xd0e69d25
     208:	000f2503          	lw	x10,0(x30)
     20c:	004f0f13          	addi	x30,x30,4
  RVTEST_TESTDATA_LOAD_INT(x30, x28) # load rs2: x28 = 0x41940e3c
     210:	000f2e03          	lw	x28,0(x30)
     214:	004f0f13          	addi	x30,x30,4

00000218 <I_sra_cg_cp_rs1_b10>:
I_sra_cg_cp_rs1_b10:
  sra x1, x10, x28 # perform operation
     218:	41c550b3          	sra	x1,x10,x28
  # Check if x1 contains the expected result. x12 is the signature ptr, x14 is the link ptr, x13 is a temp reg.
  RVTEST_SIGUPD(x12, x14, x13, x1, I_sra_cg_cp_rs1_b10, I_sra_cg_cp_rs1_b10_str)
     21c:	00062683          	lw	x13,0(x12)
     220:	00168863          	beq	x13,x1,230 <I_sra_cg_cp_rs1_b10+0x18>
     224:	2d80476f          	jal	x14,44fc <failedtest_x14_x13>
     228:	00000218          	.word	0x00000218
     22c:	00008f13          	.word	0x00008f13
     230:	00460613          	addi	x12,x12,4

# Testcase cp_rs1 (Test source rs1 = x11)
  RVTEST_TESTDATA_LOAD_INT(x30, x11) # load rs1: x11 = 0x979d5990
     234:	000f2583          	lw	x11,0(x30)
     238:	004f0f13          	addi	x30,x30,4
  RVTEST_TESTDATA_LOAD_INT(x30, x28) # load rs2: x28 = 0xf922aa27
     23c:	000f2e03          	lw	x28,0(x30)
     240:	004f0f13          	addi	x30,x30,4

00000244 <I_sra_cg_cp_rs1_b11>:
I_sra_cg_cp_rs1_b11:
  sra x3, x11, x28 # perform operation
     244:	41c5d1b3          	sra	x3,x11,x28
  # Check if x3 contains the expected result. x12 is the signature ptr, x14 is the link ptr, x13 is a temp reg.
  RVTEST_SIGUPD(x12, x14, x13, x3, I_sra_cg_cp_rs1_b11, I_sra_cg_cp_rs1_b11_str)
     248:	00062683          	lw	x13,0(x12)
     24c:	00368863          	beq	x13,x3,25c <I_sra_cg_cp_rs1_b11+0x18>
     250:	2ac0476f          	jal	x14,44fc <failedtest_x14_x13>
     254:	00000244          	.word	0x00000244
     258:	00008f42          	.word	0x00008f42
     25c:	00460613          	addi	x12,x12,4

  mv x29, x12 # switch signature pointer register to avoid conflict with test
     260:	00060e93          	addi	x29,x12,0
# Testcase cp_rs1 (Test source rs1 = x12)
  RVTEST_TESTDATA_LOAD_INT(x30, x12) # load rs1: x12 = 0x7ea8de99
     264:	000f2603          	lw	x12,0(x30)
     268:	004f0f13          	addi	x30,x30,4
  RVTEST_TESTDATA_LOAD_INT(x30, x10) # load rs2: x10 = 0xcfa19ba8
     26c:	000f2503          	lw	x10,0(x30)
     270:	004f0f13          	addi	x30,x30,4

00000274 <I_sra_cg_cp_rs1_b12>:
I_sra_cg_cp_rs1_b12:
  sra x18, x12, x10 # perform operation
     274:	40a65933          	sra	x18,x12,x10
  # Check if x18 contains the expected result. x29 is the signature ptr, x14 is the link ptr, x13 is a temp reg.
  RVTEST_SIGUPD(x29, x14, x13, x18, I_sra_cg_cp_rs1_b12, I_sra_cg_cp_rs1_b12_str)
     278:	000ea683          	lw	x13,0(x29)
     27c:	01268863          	beq	x13,x18,28c <I_sra_cg_cp_rs1_b12+0x18>
     280:	27c0476f          	jal	x14,44fc <failedtest_x14_x13>
     284:	00000274          	.word	0x00000274
     288:	00008f71          	.word	0x00008f71
     28c:	004e8e93          	addi	x29,x29,4

  mv x7, x13 # switch temp register to avoid conflict with test
     290:	00068393          	addi	x7,x13,0
  mv x8, x14 # switch link pointer register to avoid conflict with test
     294:	00070413          	addi	x8,x14,0
# Testcase cp_rs1 (Test source rs1 = x13)
  RVTEST_TESTDATA_LOAD_INT(x30, x13) # load rs1: x13 = 0x06dea17b
     298:	000f2683          	lw	x13,0(x30)
     29c:	004f0f13          	addi	x30,x30,4
  RVTEST_TESTDATA_LOAD_INT(x30, x6) # load rs2: x6 = 0x208f896d
     2a0:	000f2303          	lw	x6,0(x30)
     2a4:	004f0f13          	addi	x30,x30,4

000002a8 <I_sra_cg_cp_rs1_b13>:
I_sra_cg_cp_rs1_b13:
  sra x1, x13, x6 # perform operation
     2a8:	4066d0b3          	sra	x1,x13,x6
  # Check if x1 contains the expected result. x29 is the signature ptr, x8 is the link ptr, x7 is a temp reg.
  RVTEST_SIGUPD(x29, x8, x7, x1, I_sra_cg_cp_rs1_b13, I_sra_cg_cp_rs1_b13_str)
     2ac:	000ea383          	lw	x7,0(x29)
     2b0:	00138863          	beq	x7,x1,2c0 <I_sra_cg_cp_rs1_b13+0x18>
     2b4:	2200446f          	jal	x8,44d4 <failedtest_x8_x7>
     2b8:	000002a8          	.word	0x000002a8
     2bc:	00008fa0          	.word	0x00008fa0
     2c0:	004e8e93          	addi	x29,x29,4

# Testcase cp_rs1 (Test source rs1 = x14)
  RVTEST_TESTDATA_LOAD_INT(x30, x14) # load rs1: x14 = 0xab0bad06
     2c4:	000f2703          	lw	x14,0(x30)
     2c8:	004f0f13          	addi	x30,x30,4
  RVTEST_TESTDATA_LOAD_INT(x30, x2) # load rs2: x2 = 0xa3e3cb8a
     2cc:	000f2103          	lw	x2,0(x30)
     2d0:	004f0f13          	addi	x30,x30,4

000002d4 <I_sra_cg_cp_rs1_b14>:
I_sra_cg_cp_rs1_b14:
  sra x31, x14, x2 # perform operation
     2d4:	40275fb3          	sra	x31,x14,x2
  # Check if x31 contains the expected result. x29 is the signature ptr, x8 is the link ptr, x7 is a temp reg.
  RVTEST_SIGUPD(x29, x8, x7, x31, I_sra_cg_cp_rs1_b14, I_sra_cg_cp_rs1_b14_str)
     2d8:	000ea383          	lw	x7,0(x29)
     2dc:	01f38863          	beq	x7,x31,2ec <I_sra_cg_cp_rs1_b14+0x18>
     2e0:	1f40446f          	jal	x8,44d4 <failedtest_x8_x7>
     2e4:	000002d4          	.word	0x000002d4
     2e8:	00008fcf          	.word	0x00008fcf
     2ec:	004e8e93          	addi	x29,x29,4

# Testcase cp_rs1 (Test source rs1 = x15)
  RVTEST_TESTDATA_LOAD_INT(x30, x15) # load rs1: x15 = 0x35f04382
     2f0:	000f2783          	lw	x15,0(x30)
     2f4:	004f0f13          	addi	x30,x30,4
  RVTEST_TESTDATA_LOAD_INT(x30, x31) # load rs2: x31 = 0x6d8ed9ae
     2f8:	000f2f83          	lw	x31,0(x30)
     2fc:	004f0f13          	addi	x30,x30,4

00000300 <I_sra_cg_cp_rs1_b15>:
I_sra_cg_cp_rs1_b15:
  sra x19, x15, x31 # perform operation
     300:	41f7d9b3          	sra	x19,x15,x31
  # Check if x19 contains the expected result. x29 is the signature ptr, x8 is the link ptr, x7 is a temp reg.
  RVTEST_SIGUPD(x29, x8, x7, x19, I_sra_cg_cp_rs1_b15, I_sra_cg_cp_rs1_b15_str)
     304:	000ea383          	lw	x7,0(x29)
     308:	01338863          	beq	x7,x19,318 <imm12+0xf>
     30c:	1c80446f          	jal	x8,44d4 <failedtest_x8_x7>
     310:	00000300          	.word	0x00000300
     314:	00008ffe          	.word	0x00008ffe
     318:	004e8e93          	addi	x29,x29,4

# Testcase cp_rs1 (Test source rs1 = x16)
  RVTEST_TESTDATA_LOAD_INT(x30, x16) # load rs1: x16 = 0x80b1a093
     31c:	000f2803          	lw	x16,0(x30)
     320:	004f0f13          	addi	x30,x30,4
  RVTEST_TESTDATA_LOAD_INT(x30, x1) # load rs2: x1 = 0xe033f777
     324:	000f2083          	lw	x1,0(x30)
     328:	004f0f13          	addi	x30,x30,4

0000032c <I_sra_cg_cp_rs1_b16>:
I_sra_cg_cp_rs1_b16:
  sra x24, x16, x1 # perform operation
     32c:	40185c33          	sra	x24,x16,x1
  # Check if x24 contains the expected result. x29 is the signature ptr, x8 is the link ptr, x7 is a temp reg.
  RVTEST_SIGUPD(x29, x8, x7, x24, I_sra_cg_cp_rs1_b16, I_sra_cg_cp_rs1_b16_str)
     330:	000ea383          	lw	x7,0(x29)
     334:	01838863          	beq	x7,x24,344 <I_sra_cg_cp_rs1_b16+0x18>
     338:	19c0446f          	jal	x8,44d4 <failedtest_x8_x7>
     33c:	0000032c          	.word	0x0000032c
     340:	0000902d          	.word	0x0000902d
     344:	004e8e93          	addi	x29,x29,4

# Testcase cp_rs1 (Test source rs1 = x17)
  RVTEST_TESTDATA_LOAD_INT(x30, x17) # load rs1: x17 = 0x33ee469b
     348:	000f2883          	lw	x17,0(x30)
     34c:	004f0f13          	addi	x30,x30,4
  RVTEST_TESTDATA_LOAD_INT(x30, x27) # load rs2: x27 = 0x2cf759fe
     350:	000f2d83          	lw	x27,0(x30)
     354:	004f0f13          	addi	x30,x30,4

00000358 <I_sra_cg_cp_rs1_b17>:
I_sra_cg_cp_rs1_b17:
  sra x18, x17, x27 # perform operation
     358:	41b8d933          	sra	x18,x17,x27
  # Check if x18 contains the expected result. x29 is the signature ptr, x8 is the link ptr, x7 is a temp reg.
  RVTEST_SIGUPD(x29, x8, x7, x18, I_sra_cg_cp_rs1_b17, I_sra_cg_cp_rs1_b17_str)
     35c:	000ea383          	lw	x7,0(x29)
     360:	01238863          	beq	x7,x18,370 <I_sra_cg_cp_rs1_b17+0x18>
     364:	1700446f          	jal	x8,44d4 <failedtest_x8_x7>
     368:	00000358          	.word	0x00000358
     36c:	0000905c          	.word	0x0000905c
     370:	004e8e93          	addi	x29,x29,4

# Testcase cp_rs1 (Test source rs1 = x18)
  RVTEST_TESTDATA_LOAD_INT(x30, x18) # load rs1: x18 = 0x8da307be
     374:	000f2903          	lw	x18,0(x30)
     378:	004f0f13          	addi	x30,x30,4
  RVTEST_TESTDATA_LOAD_INT(x30, x19) # load rs2: x19 = 0xb173590d
     37c:	000f2983          	lw	x19,0(x30)
     380:	004f0f13          	addi	x30,x30,4

00000384 <I_sra_cg_cp_rs1_b18>:
I_sra_cg_cp_rs1_b18:
  sra x31, x18, x19 # perform operation
     384:	41395fb3          	sra	x31,x18,x19
  # Check if x31 contains the expected result. x29 is the signature ptr, x8 is the link ptr, x7 is a temp reg.
  RVTEST_SIGUPD(x29, x8, x7, x31, I_sra_cg_cp_rs1_b18, I_sra_cg_cp_rs1_b18_str)
     388:	000ea383          	lw	x7,0(x29)
     38c:	01f38863          	beq	x7,x31,39c <I_sra_cg_cp_rs1_b18+0x18>
     390:	1440446f          	jal	x8,44d4 <failedtest_x8_x7>
     394:	00000384          	.word	0x00000384
     398:	0000908b          	.word	0x0000908b
     39c:	004e8e93          	addi	x29,x29,4

# Testcase cp_rs1 (Test source rs1 = x19)
  RVTEST_TESTDATA_LOAD_INT(x30, x19) # load rs1: x19 = 0x09a74887
     3a0:	000f2983          	lw	x19,0(x30)
     3a4:	004f0f13          	addi	x30,x30,4
  RVTEST_TESTDATA_LOAD_INT(x30, x16) # load rs2: x16 = 0x3fd9f5ea
     3a8:	000f2803          	lw	x16,0(x30)
     3ac:	004f0f13          	addi	x30,x30,4

000003b0 <I_sra_cg_cp_rs1_b19>:
I_sra_cg_cp_rs1_b19:
  sra x1, x19, x16 # perform operation
     3b0:	4109d0b3          	sra	x1,x19,x16
  # Check if x1 contains the expected result. x29 is the signature ptr, x8 is the link ptr, x7 is a temp reg.
  RVTEST_SIGUPD(x29, x8, x7, x1, I_sra_cg_cp_rs1_b19, I_sra_cg_cp_rs1_b19_str)
     3b4:	000ea383          	lw	x7,0(x29)
     3b8:	00138863          	beq	x7,x1,3c8 <I_sra_cg_cp_rs1_b19+0x18>
     3bc:	1180446f          	jal	x8,44d4 <failedtest_x8_x7>
     3c0:	000003b0          	.word	0x000003b0
     3c4:	000090ba          	.word	0x000090ba
     3c8:	004e8e93          	addi	x29,x29,4

# Testcase cp_rs1 (Test source rs1 = x20)
  RVTEST_TESTDATA_LOAD_INT(x30, x20) # load rs1: x20 = 0x6e445031
     3cc:	000f2a03          	lw	x20,0(x30)
     3d0:	004f0f13          	addi	x30,x30,4
  RVTEST_TESTDATA_LOAD_INT(x30, x24) # load rs2: x24 = 0x20cf021f
     3d4:	000f2c03          	lw	x24,0(x30)
     3d8:	004f0f13          	addi	x30,x30,4

000003dc <I_sra_cg_cp_rs1_b20>:
I_sra_cg_cp_rs1_b20:
  sra x13, x20, x24 # perform operation
     3dc:	418a56b3          	sra	x13,x20,x24
  # Check if x13 contains the expected result. x29 is the signature ptr, x8 is the link ptr, x7 is a temp reg.
  RVTEST_SIGUPD(x29, x8, x7, x13, I_sra_cg_cp_rs1_b20, I_sra_cg_cp_rs1_b20_str)
     3e0:	000ea383          	lw	x7,0(x29)
     3e4:	00d38863          	beq	x7,x13,3f4 <I_sra_cg_cp_rs1_b20+0x18>
     3e8:	0ec0446f          	jal	x8,44d4 <failedtest_x8_x7>
     3ec:	000003dc          	.word	0x000003dc
     3f0:	000090e9          	.word	0x000090e9
     3f4:	004e8e93          	addi	x29,x29,4

# Testcase cp_rs1 (Test source rs1 = x21)
  RVTEST_TESTDATA_LOAD_INT(x30, x21) # load rs1: x21 = 0x41aab850
     3f8:	000f2a83          	lw	x21,0(x30)
     3fc:	004f0f13          	addi	x30,x30,4
  RVTEST_TESTDATA_LOAD_INT(x30, x16) # load rs2: x16 = 0xa501bbdb
     400:	000f2803          	lw	x16,0(x30)
     404:	004f0f13          	addi	x30,x30,4

00000408 <I_sra_cg_cp_rs1_b21>:
I_sra_cg_cp_rs1_b21:
  sra x0, x21, x16 # perform operation
     408:	410ad033          	sra	x0,x21,x16
  # Check if x0 contains the expected result. x29 is the signature ptr, x8 is the link ptr, x7 is a temp reg.
  RVTEST_SIGUPD(x29, x8, x7, x0, I_sra_cg_cp_rs1_b21, I_sra_cg_cp_rs1_b21_str)
     40c:	000ea383          	lw	x7,0(x29)
     410:	00038863          	beq	x7,x0,420 <I_sra_cg_cp_rs1_b21+0x18>
     414:	0c00446f          	jal	x8,44d4 <failedtest_x8_x7>
     418:	00000408          	.word	0x00000408
     41c:	00009118          	.word	0x00009118
     420:	004e8e93          	addi	x29,x29,4

# Testcase cp_rs1 (Test source rs1 = x22)
  RVTEST_TESTDATA_LOAD_INT(x30, x22) # load rs1: x22 = 0x6877e78c
     424:	000f2b03          	lw	x22,0(x30)
     428:	004f0f13          	addi	x30,x30,4
  RVTEST_TESTDATA_LOAD_INT(x30, x25) # load rs2: x25 = 0x65245a59
     42c:	000f2c83          	lw	x25,0(x30)
     430:	004f0f13          	addi	x30,x30,4

00000434 <I_sra_cg_cp_rs1_b22>:
I_sra_cg_cp_rs1_b22:
  sra x2, x22, x25 # perform operation
     434:	419b5133          	sra	x2,x22,x25
  # Check if x2 contains the expected result. x29 is the signature ptr, x8 is the link ptr, x7 is a temp reg.
  RVTEST_SIGUPD(x29, x8, x7, x2, I_sra_cg_cp_rs1_b22, I_sra_cg_cp_rs1_b22_str)
     438:	000ea383          	lw	x7,0(x29)
     43c:	00238863          	beq	x7,x2,44c <I_sra_cg_cp_rs1_b22+0x18>
     440:	0940446f          	jal	x8,44d4 <failedtest_x8_x7>
     444:	00000434          	.word	0x00000434
     448:	00009147          	.word	0x00009147
     44c:	004e8e93          	addi	x29,x29,4

# Testcase cp_rs1 (Test source rs1 = x23)
  RVTEST_TESTDATA_LOAD_INT(x30, x23) # load rs1: x23 = 0x63ad20f2
     450:	000f2b83          	lw	x23,0(x30)
     454:	004f0f13          	addi	x30,x30,4
  RVTEST_TESTDATA_LOAD_INT(x30, x17) # load rs2: x17 = 0xdc677d37
     458:	000f2883          	lw	x17,0(x30)
     45c:	004f0f13          	addi	x30,x30,4

00000460 <I_sra_cg_cp_rs1_b23>:
I_sra_cg_cp_rs1_b23:
  sra x11, x23, x17 # perform operation
     460:	411bd5b3          	sra	x11,x23,x17
  # Check if x11 contains the expected result. x29 is the signature ptr, x8 is the link ptr, x7 is a temp reg.
  RVTEST_SIGUPD(x29, x8, x7, x11, I_sra_cg_cp_rs1_b23, I_sra_cg_cp_rs1_b23_str)
     464:	000ea383          	lw	x7,0(x29)
     468:	00b38863          	beq	x7,x11,478 <I_sra_cg_cp_rs1_b23+0x18>
     46c:	0680446f          	jal	x8,44d4 <failedtest_x8_x7>
     470:	00000460          	.word	0x00000460
     474:	00009176          	.word	0x00009176
     478:	004e8e93          	addi	x29,x29,4

# Testcase cp_rs1 (Test source rs1 = x24)
  RVTEST_TESTDATA_LOAD_INT(x30, x24) # load rs1: x24 = 0xd01789a8
     47c:	000f2c03          	lw	x24,0(x30)
     480:	004f0f13          	addi	x30,x30,4
  RVTEST_TESTDATA_LOAD_INT(x30, x26) # load rs2: x26 = 0xa5c87b89
     484:	000f2d03          	lw	x26,0(x30)
     488:	004f0f13          	addi	x30,x30,4

0000048c <I_sra_cg_cp_rs1_b24>:
I_sra_cg_cp_rs1_b24:
  sra x10, x24, x26 # perform operation
     48c:	41ac5533          	sra	x10,x24,x26
  # Check if x10 contains the expected result. x29 is the signature ptr, x8 is the link ptr, x7 is a temp reg.
  RVTEST_SIGUPD(x29, x8, x7, x10, I_sra_cg_cp_rs1_b24, I_sra_cg_cp_rs1_b24_str)
     490:	000ea383          	lw	x7,0(x29)
     494:	00a38863          	beq	x7,x10,4a4 <I_sra_cg_cp_rs1_b24+0x18>
     498:	03c0446f          	jal	x8,44d4 <failedtest_x8_x7>
     49c:	0000048c          	.word	0x0000048c
     4a0:	000091a5          	.word	0x000091a5
     4a4:	004e8e93          	addi	x29,x29,4

# Testcase cp_rs1 (Test source rs1 = x25)
  RVTEST_TESTDATA_LOAD_INT(x30, x25) # load rs1: x25 = 0x12cf894a
     4a8:	000f2c83          	lw	x25,0(x30)
     4ac:	004f0f13          	addi	x30,x30,4
  RVTEST_TESTDATA_LOAD_INT(x30, x3) # load rs2: x3 = 0x471fb30a
     4b0:	000f2183          	lw	x3,0(x30)
     4b4:	004f0f13          	addi	x30,x30,4

000004b8 <I_sra_cg_cp_rs1_b25>:
I_sra_cg_cp_rs1_b25:
  sra x22, x25, x3 # perform operation
     4b8:	403cdb33          	sra	x22,x25,x3
  # Check if x22 contains the expected result. x29 is the signature ptr, x8 is the link ptr, x7 is a temp reg.
  RVTEST_SIGUPD(x29, x8, x7, x22, I_sra_cg_cp_rs1_b25, I_sra_cg_cp_rs1_b25_str)
     4bc:	000ea383          	lw	x7,0(x29)
     4c0:	01638863          	beq	x7,x22,4d0 <I_sra_cg_cp_rs1_b25+0x18>
     4c4:	0100446f          	jal	x8,44d4 <failedtest_x8_x7>
     4c8:	000004b8          	.word	0x000004b8
     4cc:	000091d4          	.word	0x000091d4
     4d0:	004e8e93          	addi	x29,x29,4

# Testcase cp_rs1 (Test source rs1 = x26)
  RVTEST_TESTDATA_LOAD_INT(x30, x26) # load rs1: x26 = 0xcd458a35
     4d4:	000f2d03          	lw	x26,0(x30)
     4d8:	004f0f13          	addi	x30,x30,4
  RVTEST_TESTDATA_LOAD_INT(x30, x10) # load rs2: x10 = 0x5fd063f9
     4dc:	000f2503          	lw	x10,0(x30)
     4e0:	004f0f13          	addi	x30,x30,4

000004e4 <I_sra_cg_cp_rs1_b26>:
I_sra_cg_cp_rs1_b26:
  sra x27, x26, x10 # perform operation
     4e4:	40ad5db3          	sra	x27,x26,x10
  # Check if x27 contains the expected result. x29 is the signature ptr, x8 is the link ptr, x7 is a temp reg.
  RVTEST_SIGUPD(x29, x8, x7, x27, I_sra_cg_cp_rs1_b26, I_sra_cg_cp_rs1_b26_str)
     4e8:	000ea383          	lw	x7,0(x29)
     4ec:	01b38863          	beq	x7,x27,4fc <I_sra_cg_cp_rs1_b26+0x18>
     4f0:	7e50346f          	jal	x8,44d4 <failedtest_x8_x7>
     4f4:	000004e4          	.word	0x000004e4
     4f8:	00009203          	.word	0x00009203
     4fc:	004e8e93          	addi	x29,x29,4

# Testcase cp_rs1 (Test source rs1 = x27)
  RVTEST_TESTDATA_LOAD_INT(x30, x27) # load rs1: x27 = 0x1e77a6bf
     500:	000f2d83          	lw	x27,0(x30)
     504:	004f0f13          	addi	x30,x30,4
  RVTEST_TESTDATA_LOAD_INT(x30, x15) # load rs2: x15 = 0xe36e92d1
     508:	000f2783          	lw	x15,0(x30)
     50c:	004f0f13          	addi	x30,x30,4

00000510 <I_sra_cg_cp_rs1_b27>:
I_sra_cg_cp_rs1_b27:
  sra x20, x27, x15 # perform operation
     510:	40fdda33          	sra	x20,x27,x15
  # Check if x20 contains the expected result. x29 is the signature ptr, x8 is the link ptr, x7 is a temp reg.
  RVTEST_SIGUPD(x29, x8, x7, x20, I_sra_cg_cp_rs1_b27, I_sra_cg_cp_rs1_b27_str)
     514:	000ea383          	lw	x7,0(x29)
     518:	01438863          	beq	x7,x20,528 <I_sra_cg_cp_rs1_b27+0x18>
     51c:	7b90346f          	jal	x8,44d4 <failedtest_x8_x7>
     520:	00000510          	.word	0x00000510
     524:	00009232          	.word	0x00009232
     528:	004e8e93          	addi	x29,x29,4

# Testcase cp_rs1 (Test source rs1 = x28)
  RVTEST_TESTDATA_LOAD_INT(x30, x28) # load rs1: x28 = 0x31a7e6b5
     52c:	000f2e03          	lw	x28,0(x30)
     530:	004f0f13          	addi	x30,x30,4
  RVTEST_TESTDATA_LOAD_INT(x30, x12) # load rs2: x12 = 0xaeed3088
     534:	000f2603          	lw	x12,0(x30)
     538:	004f0f13          	addi	x30,x30,4

0000053c <I_sra_cg_cp_rs1_b28>:
I_sra_cg_cp_rs1_b28:
  sra x1, x28, x12 # perform operation
     53c:	40ce50b3          	sra	x1,x28,x12
  # Check if x1 contains the expected result. x29 is the signature ptr, x8 is the link ptr, x7 is a temp reg.
  RVTEST_SIGUPD(x29, x8, x7, x1, I_sra_cg_cp_rs1_b28, I_sra_cg_cp_rs1_b28_str)
     540:	000ea383          	lw	x7,0(x29)
     544:	00138863          	beq	x7,x1,554 <I_sra_cg_cp_rs1_b28+0x18>
     548:	78d0346f          	jal	x8,44d4 <failedtest_x8_x7>
     54c:	0000053c          	.word	0x0000053c
     550:	00009261          	.word	0x00009261
     554:	004e8e93          	addi	x29,x29,4

  mv x12, x29 # switch signature pointer register to avoid conflict with test
     558:	000e8613          	addi	x12,x29,0
# Testcase cp_rs1 (Test source rs1 = x29)
  RVTEST_TESTDATA_LOAD_INT(x30, x29) # load rs1: x29 = 0xa89b8fd2
     55c:	000f2e83          	lw	x29,0(x30)
     560:	004f0f13          	addi	x30,x30,4
  RVTEST_TESTDATA_LOAD_INT(x30, x14) # load rs2: x14 = 0xe63d0eb8
     564:	000f2703          	lw	x14,0(x30)
     568:	004f0f13          	addi	x30,x30,4

0000056c <I_sra_cg_cp_rs1_b29>:
I_sra_cg_cp_rs1_b29:
  sra x19, x29, x14 # perform operation
     56c:	40eed9b3          	sra	x19,x29,x14
  # Check if x19 contains the expected result. x12 is the signature ptr, x8 is the link ptr, x7 is a temp reg.
  RVTEST_SIGUPD(x12, x8, x7, x19, I_sra_cg_cp_rs1_b29, I_sra_cg_cp_rs1_b29_str)
     570:	00062383          	lw	x7,0(x12)
     574:	01338863          	beq	x7,x19,584 <I_sra_cg_cp_rs1_b29+0x18>
     578:	75d0346f          	jal	x8,44d4 <failedtest_x8_x7>
     57c:	0000056c          	.word	0x0000056c
     580:	00009290          	.word	0x00009290
     584:	00460613          	addi	x12,x12,4

  mv x28, x30 # switch data pointer register to avoid conflict with test
     588:	000f0e13          	addi	x28,x30,0
# Testcase cp_rs1 (Test source rs1 = x30)
  RVTEST_TESTDATA_LOAD_INT(x28, x30) # load rs1: x30 = 0x0c1600f2
     58c:	000e2f03          	lw	x30,0(x28)
     590:	004e0e13          	addi	x28,x28,4
  RVTEST_TESTDATA_LOAD_INT(x28, x11) # load rs2: x11 = 0xa24a1462
     594:	000e2583          	lw	x11,0(x28)
     598:	004e0e13          	addi	x28,x28,4

0000059c <I_sra_cg_cp_rs1_b30>:
I_sra_cg_cp_rs1_b30:
  sra x23, x30, x11 # perform operation
     59c:	40bf5bb3          	sra	x23,x30,x11
  # Check if x23 contains the expected result. x12 is the signature ptr, x8 is the link ptr, x7 is a temp reg.
  RVTEST_SIGUPD(x12, x8, x7, x23, I_sra_cg_cp_rs1_b30, I_sra_cg_cp_rs1_b30_str)
     5a0:	00062383          	lw	x7,0(x12)
     5a4:	01738863          	beq	x7,x23,5b4 <I_sra_cg_cp_rs1_b30+0x18>
     5a8:	72d0346f          	jal	x8,44d4 <failedtest_x8_x7>
     5ac:	0000059c          	.word	0x0000059c
     5b0:	000092bf          	.word	0x000092bf
     5b4:	00460613          	addi	x12,x12,4

# Testcase cp_rs1 (Test source rs1 = x31)
  RVTEST_TESTDATA_LOAD_INT(x28, x31) # load rs1: x31 = 0x3163c3e9
     5b8:	000e2f83          	lw	x31,0(x28)
     5bc:	004e0e13          	addi	x28,x28,4
  RVTEST_TESTDATA_LOAD_INT(x28, x19) # load rs2: x19 = 0x806cbdbc
     5c0:	000e2983          	lw	x19,0(x28)
     5c4:	004e0e13          	addi	x28,x28,4

000005c8 <I_sra_cg_cp_rs1_b31>:
I_sra_cg_cp_rs1_b31:
  sra x2, x31, x19 # perform operation
     5c8:	413fd133          	sra	x2,x31,x19
  # Check if x2 contains the expected result. x12 is the signature ptr, x8 is the link ptr, x7 is a temp reg.
  RVTEST_SIGUPD(x12, x8, x7, x2, I_sra_cg_cp_rs1_b31, I_sra_cg_cp_rs1_b31_str)
     5cc:	00062383          	lw	x7,0(x12)
     5d0:	00238863          	beq	x7,x2,5e0 <I_sra_cg_cp_rs1_b31+0x18>
     5d4:	7010346f          	jal	x8,44d4 <failedtest_x8_x7>
     5d8:	000005c8          	.word	0x000005c8
     5dc:	000092ee          	.word	0x000092ee
     5e0:	00460613          	addi	x12,x12,4
/////////////////////////////////
// cp_rs2
/////////////////////////////////

# Testcase cp_rs2 (Test source rs2 = x0)
  RVTEST_TESTDATA_LOAD_INT(x28, x26) # load rs1: x26 = 0xce21d93b
     5e4:	000e2d03          	lw	x26,0(x28)
     5e8:	004e0e13          	addi	x28,x28,4
  RVTEST_TESTDATA_LOAD_INT(x28, x0) # load rs2: x0 = 0x1a3fa9d6
     5ec:	000e2003          	lw	x0,0(x28)
     5f0:	004e0e13          	addi	x28,x28,4

000005f4 <I_sra_cg_cp_rs2_b0>:
I_sra_cg_cp_rs2_b0:
  sra x23, x26, x0 # perform operation
     5f4:	400d5bb3          	sra	x23,x26,x0
  # Check if x23 contains the expected result. x12 is the signature ptr, x8 is the link ptr, x7 is a temp reg.
  RVTEST_SIGUPD(x12, x8, x7, x23, I_sra_cg_cp_rs2_b0, I_sra_cg_cp_rs2_b0_str)
     5f8:	00062383          	lw	x7,0(x12)
     5fc:	01738863          	beq	x7,x23,60c <I_sra_cg_cp_rs2_b0+0x18>
     600:	6d50346f          	jal	x8,44d4 <failedtest_x8_x7>
     604:	000005f4          	.word	0x000005f4
     608:	0000931d          	.word	0x0000931d
     60c:	00460613          	addi	x12,x12,4

# Testcase cp_rs2 (Test source rs2 = x1)
  RVTEST_TESTDATA_LOAD_INT(x28, x2) # load rs1: x2 = 0x0358ddeb
     610:	000e2103          	lw	x2,0(x28)
     614:	004e0e13          	addi	x28,x28,4
  RVTEST_TESTDATA_LOAD_INT(x28, x1) # load rs2: x1 = 0x34dff5ba
     618:	000e2083          	lw	x1,0(x28)
     61c:	004e0e13          	addi	x28,x28,4

00000620 <I_sra_cg_cp_rs2_b1>:
I_sra_cg_cp_rs2_b1:
  sra x20, x2, x1 # perform operation
     620:	40115a33          	sra	x20,x2,x1
  # Check if x20 contains the expected result. x12 is the signature ptr, x8 is the link ptr, x7 is a temp reg.
  RVTEST_SIGUPD(x12, x8, x7, x20, I_sra_cg_cp_rs2_b1, I_sra_cg_cp_rs2_b1_str)
     624:	00062383          	lw	x7,0(x12)
     628:	01438863          	beq	x7,x20,638 <I_sra_cg_cp_rs2_b1+0x18>
     62c:	6a90346f          	jal	x8,44d4 <failedtest_x8_x7>
     630:	00000620          	.word	0x00000620
     634:	0000934b          	.word	0x0000934b
     638:	00460613          	addi	x12,x12,4

# Testcase cp_rs2 (Test source rs2 = x2)
  RVTEST_TESTDATA_LOAD_INT(x28, x11) # load rs1: x11 = 0xa05a1d52
     63c:	000e2583          	lw	x11,0(x28)
     640:	004e0e13          	addi	x28,x28,4
  RVTEST_TESTDATA_LOAD_INT(x28, x2) # load rs2: x2 = 0xc3df274a
     644:	000e2103          	lw	x2,0(x28)
     648:	004e0e13          	addi	x28,x28,4

0000064c <I_sra_cg_cp_rs2_b2>:
I_sra_cg_cp_rs2_b2:
  sra x30, x11, x2 # perform operation
     64c:	4025df33          	sra	x30,x11,x2
  # Check if x30 contains the expected result. x12 is the signature ptr, x8 is the link ptr, x7 is a temp reg.
  RVTEST_SIGUPD(x12, x8, x7, x30, I_sra_cg_cp_rs2_b2, I_sra_cg_cp_rs2_b2_str)
     650:	00062383          	lw	x7,0(x12)
     654:	01e38863          	beq	x7,x30,664 <I_sra_cg_cp_rs2_b2+0x18>
     658:	67d0346f          	jal	x8,44d4 <failedtest_x8_x7>
     65c:	0000064c          	.word	0x0000064c
     660:	00009379          	.word	0x00009379
     664:	00460613          	addi	x12,x12,4

# Testcase cp_rs2 (Test source rs2 = x3)
  RVTEST_TESTDATA_LOAD_INT(x28, x11) # load rs1: x11 = 0xc200aa04
     668:	000e2583          	lw	x11,0(x28)
     66c:	004e0e13          	addi	x28,x28,4
  RVTEST_TESTDATA_LOAD_INT(x28, x3) # load rs2: x3 = 0x81e97bcb
     670:	000e2183          	lw	x3,0(x28)
     674:	004e0e13          	addi	x28,x28,4

00000678 <I_sra_cg_cp_rs2_b3>:
I_sra_cg_cp_rs2_b3:
  sra x30, x11, x3 # perform operation
     678:	4035df33          	sra	x30,x11,x3
  # Check if x30 contains the expected result. x12 is the signature ptr, x8 is the link ptr, x7 is a temp reg.
  RVTEST_SIGUPD(x12, x8, x7, x30, I_sra_cg_cp_rs2_b3, I_sra_cg_cp_rs2_b3_str)
     67c:	00062383          	lw	x7,0(x12)
     680:	01e38863          	beq	x7,x30,690 <I_sra_cg_cp_rs2_b3+0x18>
     684:	6510346f          	jal	x8,44d4 <failedtest_x8_x7>
     688:	00000678          	.word	0x00000678
     68c:	000093a7          	.word	0x000093a7
     690:	00460613          	addi	x12,x12,4

# Testcase cp_rs2 (Test source rs2 = x4)
  RVTEST_TESTDATA_LOAD_INT(x28, x0) # load rs1: x0 = 0xe42a196e
     694:	000e2003          	lw	x0,0(x28)
     698:	004e0e13          	addi	x28,x28,4
  RVTEST_TESTDATA_LOAD_INT(x28, x4) # load rs2: x4 = 0xe922a4fd
     69c:	000e2203          	lw	x4,0(x28)
     6a0:	004e0e13          	addi	x28,x28,4

000006a4 <I_sra_cg_cp_rs2_b4>:
I_sra_cg_cp_rs2_b4:
  sra x23, x0, x4 # perform operation
     6a4:	40405bb3          	sra	x23,x0,x4
  # Check if x23 contains the expected result. x12 is the signature ptr, x8 is the link ptr, x7 is a temp reg.
  RVTEST_SIGUPD(x12, x8, x7, x23, I_sra_cg_cp_rs2_b4, I_sra_cg_cp_rs2_b4_str)
     6a8:	00062383          	lw	x7,0(x12)
     6ac:	01738863          	beq	x7,x23,6bc <I_sra_cg_cp_rs2_b4+0x18>
     6b0:	6250346f          	jal	x8,44d4 <failedtest_x8_x7>
     6b4:	000006a4          	.word	0x000006a4
     6b8:	000093d5          	.word	0x000093d5
     6bc:	00460613          	addi	x12,x12,4

# Testcase cp_rs2 (Test source rs2 = x5)
  RVTEST_TESTDATA_LOAD_INT(x28, x0) # load rs1: x0 = 0x1acfccc2
     6c0:	000e2003          	lw	x0,0(x28)
     6c4:	004e0e13          	addi	x28,x28,4
  RVTEST_TESTDATA_LOAD_INT(x28, x5) # load rs2: x5 = 0x944cea53
     6c8:	000e2283          	lw	x5,0(x28)
     6cc:	004e0e13          	addi	x28,x28,4

000006d0 <I_sra_cg_cp_rs2_b5>:
I_sra_cg_cp_rs2_b5:
  sra x31, x0, x5 # perform operation
     6d0:	40505fb3          	sra	x31,x0,x5
  # Check if x31 contains the expected result. x12 is the signature ptr, x8 is the link ptr, x7 is a temp reg.
  RVTEST_SIGUPD(x12, x8, x7, x31, I_sra_cg_cp_rs2_b5, I_sra_cg_cp_rs2_b5_str)
     6d4:	00062383          	lw	x7,0(x12)
     6d8:	01f38863          	beq	x7,x31,6e8 <I_sra_cg_cp_rs2_b5+0x18>
     6dc:	5f90346f          	jal	x8,44d4 <failedtest_x8_x7>
     6e0:	000006d0          	.word	0x000006d0
     6e4:	00009403          	.word	0x00009403
     6e8:	00460613          	addi	x12,x12,4

# Testcase cp_rs2 (Test source rs2 = x6)
  RVTEST_TESTDATA_LOAD_INT(x28, x18) # load rs1: x18 = 0x84e3be0b
     6ec:	000e2903          	lw	x18,0(x28)
     6f0:	004e0e13          	addi	x28,x28,4
  RVTEST_TESTDATA_LOAD_INT(x28, x6) # load rs2: x6 = 0x7c5db039
     6f4:	000e2303          	lw	x6,0(x28)
     6f8:	004e0e13          	addi	x28,x28,4

000006fc <I_sra_cg_cp_rs2_b6>:
I_sra_cg_cp_rs2_b6:
  sra x30, x18, x6 # perform operation
     6fc:	40695f33          	sra	x30,x18,x6
  # Check if x30 contains the expected result. x12 is the signature ptr, x8 is the link ptr, x7 is a temp reg.
  RVTEST_SIGUPD(x12, x8, x7, x30, I_sra_cg_cp_rs2_b6, I_sra_cg_cp_rs2_b6_str)
     700:	00062383          	lw	x7,0(x12)
     704:	01e38863          	beq	x7,x30,714 <I_sra_cg_cp_rs2_b6+0x18>
     708:	5cd0346f          	jal	x8,44d4 <failedtest_x8_x7>
     70c:	000006fc          	.word	0x000006fc
     710:	00009431          	.word	0x00009431
     714:	00460613          	addi	x12,x12,4

  mv x13, x7 # switch temp register to avoid conflict with test
     718:	00038693          	addi	x13,x7,0
  mv x14, x8 # switch link pointer register to avoid conflict with test
     71c:	00040713          	addi	x14,x8,0
# Testcase cp_rs2 (Test source rs2 = x7)
  RVTEST_TESTDATA_LOAD_INT(x28, x18) # load rs1: x18 = 0x62974b9f
     720:	000e2903          	lw	x18,0(x28)
     724:	004e0e13          	addi	x28,x28,4
  RVTEST_TESTDATA_LOAD_INT(x28, x7) # load rs2: x7 = 0x41afe950
     728:	000e2383          	lw	x7,0(x28)
     72c:	004e0e13          	addi	x28,x28,4

00000730 <I_sra_cg_cp_rs2_b7>:
I_sra_cg_cp_rs2_b7:
  sra x5, x18, x7 # perform operation
     730:	407952b3          	sra	x5,x18,x7
  # Check if x5 contains the expected result. x12 is the signature ptr, x14 is the link ptr, x13 is a temp reg.
  RVTEST_SIGUPD(x12, x14, x13, x5, I_sra_cg_cp_rs2_b7, I_sra_cg_cp_rs2_b7_str)
     734:	00062683          	lw	x13,0(x12)
     738:	00568863          	beq	x13,x5,748 <I_sra_cg_cp_rs2_b7+0x18>
     73c:	5c10376f          	jal	x14,44fc <failedtest_x14_x13>
     740:	00000730          	.word	0x00000730
     744:	0000945f          	.word	0x0000945f
     748:	00460613          	addi	x12,x12,4

# Testcase cp_rs2 (Test source rs2 = x8)
  RVTEST_TESTDATA_LOAD_INT(x28, x19) # load rs1: x19 = 0xe1087a3a
     74c:	000e2983          	lw	x19,0(x28)
     750:	004e0e13          	addi	x28,x28,4
  RVTEST_TESTDATA_LOAD_INT(x28, x8) # load rs2: x8 = 0xcef6b3ab
     754:	000e2403          	lw	x8,0(x28)
     758:	004e0e13          	addi	x28,x28,4

0000075c <I_sra_cg_cp_rs2_b8>:
I_sra_cg_cp_rs2_b8:
  sra x24, x19, x8 # perform operation
     75c:	4089dc33          	sra	x24,x19,x8
  # Check if x24 contains the expected result. x12 is the signature ptr, x14 is the link ptr, x13 is a temp reg.
  RVTEST_SIGUPD(x12, x14, x13, x24, I_sra_cg_cp_rs2_b8, I_sra_cg_cp_rs2_b8_str)
     760:	00062683          	lw	x13,0(x12)
     764:	01868863          	beq	x13,x24,774 <I_sra_cg_cp_rs2_b8+0x18>
     768:	5950376f          	jal	x14,44fc <failedtest_x14_x13>
     76c:	0000075c          	.word	0x0000075c
     770:	0000948d          	.word	0x0000948d
     774:	00460613          	addi	x12,x12,4

# Testcase cp_rs2 (Test source rs2 = x9)
  RVTEST_TESTDATA_LOAD_INT(x28, x4) # load rs1: x4 = 0x6316b5cd
     778:	000e2203          	lw	x4,0(x28)
     77c:	004e0e13          	addi	x28,x28,4
  RVTEST_TESTDATA_LOAD_INT(x28, x9) # load rs2: x9 = 0xdfb78292
     780:	000e2483          	lw	x9,0(x28)
     784:	004e0e13          	addi	x28,x28,4

00000788 <I_sra_cg_cp_rs2_b9>:
I_sra_cg_cp_rs2_b9:
  sra x18, x4, x9 # perform operation
     788:	40925933          	sra	x18,x4,x9
  # Check if x18 contains the expected result. x12 is the signature ptr, x14 is the link ptr, x13 is a temp reg.
  RVTEST_SIGUPD(x12, x14, x13, x18, I_sra_cg_cp_rs2_b9, I_sra_cg_cp_rs2_b9_str)
     78c:	00062683          	lw	x13,0(x12)
     790:	01268863          	beq	x13,x18,7a0 <I_sra_cg_cp_rs2_b9+0x18>
     794:	5690376f          	jal	x14,44fc <failedtest_x14_x13>
     798:	00000788          	.word	0x00000788
     79c:	000094bb          	.word	0x000094bb
     7a0:	00460613          	addi	x12,x12,4

# Testcase cp_rs2 (Test source rs2 = x10)
  RVTEST_TESTDATA_LOAD_INT(x28, x8) # load rs1: x8 = 0x888656ee
     7a4:	000e2403          	lw	x8,0(x28)
     7a8:	004e0e13          	addi	x28,x28,4
  RVTEST_TESTDATA_LOAD_INT(x28, x10) # load rs2: x10 = 0x1033fd50
     7ac:	000e2503          	lw	x10,0(x28)
     7b0:	004e0e13          	addi	x28,x28,4

000007b4 <I_sra_cg_cp_rs2_b10>:
I_sra_cg_cp_rs2_b10:
  sra x17, x8, x10 # perform operation
     7b4:	40a458b3          	sra	x17,x8,x10
  # Check if x17 contains the expected result. x12 is the signature ptr, x14 is the link ptr, x13 is a temp reg.
  RVTEST_SIGUPD(x12, x14, x13, x17, I_sra_cg_cp_rs2_b10, I_sra_cg_cp_rs2_b10_str)
     7b8:	00062683          	lw	x13,0(x12)
     7bc:	01168863          	beq	x13,x17,7cc <I_sra_cg_cp_rs2_b10+0x18>
     7c0:	53d0376f          	jal	x14,44fc <failedtest_x14_x13>
     7c4:	000007b4          	.word	0x000007b4
     7c8:	000094e9          	.word	0x000094e9
     7cc:	00460613          	addi	x12,x12,4

# Testcase cp_rs2 (Test source rs2 = x11)
  RVTEST_TESTDATA_LOAD_INT(x28, x7) # load rs1: x7 = 0xc58ef57d
     7d0:	000e2383          	lw	x7,0(x28)
     7d4:	004e0e13          	addi	x28,x28,4
  RVTEST_TESTDATA_LOAD_INT(x28, x11) # load rs2: x11 = 0x3ddc31ff
     7d8:	000e2583          	lw	x11,0(x28)
     7dc:	004e0e13          	addi	x28,x28,4

000007e0 <I_sra_cg_cp_rs2_b11>:
I_sra_cg_cp_rs2_b11:
  sra x15, x7, x11 # perform operation
     7e0:	40b3d7b3          	sra	x15,x7,x11
  # Check if x15 contains the expected result. x12 is the signature ptr, x14 is the link ptr, x13 is a temp reg.
  RVTEST_SIGUPD(x12, x14, x13, x15, I_sra_cg_cp_rs2_b11, I_sra_cg_cp_rs2_b11_str)
     7e4:	00062683          	lw	x13,0(x12)
     7e8:	00f68863          	beq	x13,x15,7f8 <I_sra_cg_cp_rs2_b11+0x18>
     7ec:	5110376f          	jal	x14,44fc <failedtest_x14_x13>
     7f0:	000007e0          	.word	0x000007e0
     7f4:	00009518          	.word	0x00009518
     7f8:	00460613          	addi	x12,x12,4

  mv x19, x12 # switch signature pointer register to avoid conflict with test
     7fc:	00060993          	addi	x19,x12,0
# Testcase cp_rs2 (Test source rs2 = x12)
  RVTEST_TESTDATA_LOAD_INT(x28, x6) # load rs1: x6 = 0x7538c082
     800:	000e2303          	lw	x6,0(x28)
     804:	004e0e13          	addi	x28,x28,4
  RVTEST_TESTDATA_LOAD_INT(x28, x12) # load rs2: x12 = 0x25ca5fc4
     808:	000e2603          	lw	x12,0(x28)
     80c:	004e0e13          	addi	x28,x28,4

00000810 <I_sra_cg_cp_rs2_b12>:
I_sra_cg_cp_rs2_b12:
  sra x8, x6, x12 # perform operation
     810:	40c35433          	sra	x8,x6,x12
  # Check if x8 contains the expected result. x19 is the signature ptr, x14 is the link ptr, x13 is a temp reg.
  RVTEST_SIGUPD(x19, x14, x13, x8, I_sra_cg_cp_rs2_b12, I_sra_cg_cp_rs2_b12_str)
     814:	0009a683          	lw	x13,0(x19)
     818:	00868863          	beq	x13,x8,828 <I_sra_cg_cp_rs2_b12+0x18>
     81c:	4e10376f          	jal	x14,44fc <failedtest_x14_x13>
     820:	00000810          	.word	0x00000810
     824:	00009547          	.word	0x00009547
     828:	00498993          	addi	x19,x19,4

  mv x7, x13 # switch temp register to avoid conflict with test
     82c:	00068393          	addi	x7,x13,0
  mv x8, x14 # switch link pointer register to avoid conflict with test
     830:	00070413          	addi	x8,x14,0
# Testcase cp_rs2 (Test source rs2 = x13)
  RVTEST_TESTDATA_LOAD_INT(x28, x14) # load rs1: x14 = 0xea240558
     834:	000e2703          	lw	x14,0(x28)
     838:	004e0e13          	addi	x28,x28,4
  RVTEST_TESTDATA_LOAD_INT(x28, x13) # load rs2: x13 = 0x25e0b6c9
     83c:	000e2683          	lw	x13,0(x28)
     840:	004e0e13          	addi	x28,x28,4

00000844 <I_sra_cg_cp_rs2_b13>:
I_sra_cg_cp_rs2_b13:
  sra x17, x14, x13 # perform operation
     844:	40d758b3          	sra	x17,x14,x13
  # Check if x17 contains the expected result. x19 is the signature ptr, x8 is the link ptr, x7 is a temp reg.
  RVTEST_SIGUPD(x19, x8, x7, x17, I_sra_cg_cp_rs2_b13, I_sra_cg_cp_rs2_b13_str)
     848:	0009a383          	lw	x7,0(x19)
     84c:	01138863          	beq	x7,x17,85c <I_sra_cg_cp_rs2_b13+0x18>
     850:	4850346f          	jal	x8,44d4 <failedtest_x8_x7>
     854:	00000844          	.word	0x00000844
     858:	00009576          	.word	0x00009576
     85c:	00498993          	addi	x19,x19,4

# Testcase cp_rs2 (Test source rs2 = x14)
  RVTEST_TESTDATA_LOAD_INT(x28, x2) # load rs1: x2 = 0x0597db68
     860:	000e2103          	lw	x2,0(x28)
     864:	004e0e13          	addi	x28,x28,4
  RVTEST_TESTDATA_LOAD_INT(x28, x14) # load rs2: x14 = 0xa6200cc6
     868:	000e2703          	lw	x14,0(x28)
     86c:	004e0e13          	addi	x28,x28,4

00000870 <I_sra_cg_cp_rs2_b14>:
I_sra_cg_cp_rs2_b14:
  sra x23, x2, x14 # perform operation
     870:	40e15bb3          	sra	x23,x2,x14
  # Check if x23 contains the expected result. x19 is the signature ptr, x8 is the link ptr, x7 is a temp reg.
  RVTEST_SIGUPD(x19, x8, x7, x23, I_sra_cg_cp_rs2_b14, I_sra_cg_cp_rs2_b14_str)
     874:	0009a383          	lw	x7,0(x19)
     878:	01738863          	beq	x7,x23,888 <I_sra_cg_cp_rs2_b14+0x18>
     87c:	4590346f          	jal	x8,44d4 <failedtest_x8_x7>
     880:	00000870          	.word	0x00000870
     884:	000095a5          	.word	0x000095a5
     888:	00498993          	addi	x19,x19,4

# Testcase cp_rs2 (Test source rs2 = x15)
  RVTEST_TESTDATA_LOAD_INT(x28, x3) # load rs1: x3 = 0x9330ef40
     88c:	000e2183          	lw	x3,0(x28)
     890:	004e0e13          	addi	x28,x28,4
  RVTEST_TESTDATA_LOAD_INT(x28, x15) # load rs2: x15 = 0x073460e1
     894:	000e2783          	lw	x15,0(x28)
     898:	004e0e13          	addi	x28,x28,4

0000089c <I_sra_cg_cp_rs2_b15>:
I_sra_cg_cp_rs2_b15:
  sra x27, x3, x15 # perform operation
     89c:	40f1ddb3          	sra	x27,x3,x15
  # Check if x27 contains the expected result. x19 is the signature ptr, x8 is the link ptr, x7 is a temp reg.
  RVTEST_SIGUPD(x19, x8, x7, x27, I_sra_cg_cp_rs2_b15, I_sra_cg_cp_rs2_b15_str)
     8a0:	0009a383          	lw	x7,0(x19)
     8a4:	01b38863          	beq	x7,x27,8b4 <I_sra_cg_cp_rs2_b15+0x18>
     8a8:	42d0346f          	jal	x8,44d4 <failedtest_x8_x7>
     8ac:	0000089c          	.word	0x0000089c
     8b0:	000095d4          	.word	0x000095d4
     8b4:	00498993          	addi	x19,x19,4

# Testcase cp_rs2 (Test source rs2 = x16)
  RVTEST_TESTDATA_LOAD_INT(x28, x17) # load rs1: x17 = 0x35aa83a3
     8b8:	000e2883          	lw	x17,0(x28)
     8bc:	004e0e13          	addi	x28,x28,4
  RVTEST_TESTDATA_LOAD_INT(x28, x16) # load rs2: x16 = 0x2e7fbc85
     8c0:	000e2803          	lw	x16,0(x28)
     8c4:	004e0e13          	addi	x28,x28,4

000008c8 <I_sra_cg_cp_rs2_b16>:
I_sra_cg_cp_rs2_b16:
  sra x30, x17, x16 # perform operation
     8c8:	4108df33          	sra	x30,x17,x16
  # Check if x30 contains the expected result. x19 is the signature ptr, x8 is the link ptr, x7 is a temp reg.
  RVTEST_SIGUPD(x19, x8, x7, x30, I_sra_cg_cp_rs2_b16, I_sra_cg_cp_rs2_b16_str)
     8cc:	0009a383          	lw	x7,0(x19)
     8d0:	01e38863          	beq	x7,x30,8e0 <I_sra_cg_cp_rs2_b16+0x18>
     8d4:	4010346f          	jal	x8,44d4 <failedtest_x8_x7>
     8d8:	000008c8          	.word	0x000008c8
     8dc:	00009603          	.word	0x00009603
     8e0:	00498993          	addi	x19,x19,4

# Testcase cp_rs2 (Test source rs2 = x17)
  RVTEST_TESTDATA_LOAD_INT(x28, x29) # load rs1: x29 = 0x4d9ba5c5
     8e4:	000e2e83          	lw	x29,0(x28)
     8e8:	004e0e13          	addi	x28,x28,4
  RVTEST_TESTDATA_LOAD_INT(x28, x17) # load rs2: x17 = 0x35075155
     8ec:	000e2883          	lw	x17,0(x28)
     8f0:	004e0e13          	addi	x28,x28,4

000008f4 <I_sra_cg_cp_rs2_b17>:
I_sra_cg_cp_rs2_b17:
  sra x4, x29, x17 # perform operation
     8f4:	411ed233          	sra	x4,x29,x17
  # Check if x4 contains the expected result. x19 is the signature ptr, x8 is the link ptr, x7 is a temp reg.
  RVTEST_SIGUPD(x19, x8, x7, x4, I_sra_cg_cp_rs2_b17, I_sra_cg_cp_rs2_b17_str)
     8f8:	0009a383          	lw	x7,0(x19)
     8fc:	00438863          	beq	x7,x4,90c <I_sra_cg_cp_rs2_b17+0x18>
     900:	3d50346f          	jal	x8,44d4 <failedtest_x8_x7>
     904:	000008f4          	.word	0x000008f4
     908:	00009632          	.word	0x00009632
     90c:	00498993          	addi	x19,x19,4

# Testcase cp_rs2 (Test source rs2 = x18)
  RVTEST_TESTDATA_LOAD_INT(x28, x5) # load rs1: x5 = 0x55900c93
     910:	000e2283          	lw	x5,0(x28)
     914:	004e0e13          	addi	x28,x28,4
  RVTEST_TESTDATA_LOAD_INT(x28, x18) # load rs2: x18 = 0x1ad7feb1
     918:	000e2903          	lw	x18,0(x28)
     91c:	004e0e13          	addi	x28,x28,4

00000920 <I_sra_cg_cp_rs2_b18>:
I_sra_cg_cp_rs2_b18:
  sra x25, x5, x18 # perform operation
     920:	4122dcb3          	sra	x25,x5,x18
  # Check if x25 contains the expected result. x19 is the signature ptr, x8 is the link ptr, x7 is a temp reg.
  RVTEST_SIGUPD(x19, x8, x7, x25, I_sra_cg_cp_rs2_b18, I_sra_cg_cp_rs2_b18_str)
     924:	0009a383          	lw	x7,0(x19)
     928:	01938863          	beq	x7,x25,938 <I_sra_cg_cp_rs2_b18+0x18>
     92c:	3a90346f          	jal	x8,44d4 <failedtest_x8_x7>
     930:	00000920          	.word	0x00000920
     934:	00009661          	.word	0x00009661
     938:	00498993          	addi	x19,x19,4

  mv x31, x19 # switch signature pointer register to avoid conflict with test
     93c:	00098f93          	addi	x31,x19,0
# Testcase cp_rs2 (Test source rs2 = x19)
  RVTEST_TESTDATA_LOAD_INT(x28, x25) # load rs1: x25 = 0x2d911aef
     940:	000e2c83          	lw	x25,0(x28)
     944:	004e0e13          	addi	x28,x28,4
  RVTEST_TESTDATA_LOAD_INT(x28, x19) # load rs2: x19 = 0x1a468601
     948:	000e2983          	lw	x19,0(x28)
     94c:	004e0e13          	addi	x28,x28,4

00000950 <I_sra_cg_cp_rs2_b19>:
I_sra_cg_cp_rs2_b19:
  sra x27, x25, x19 # perform operation
     950:	413cddb3          	sra	x27,x25,x19
  # Check if x27 contains the expected result. x31 is the signature ptr, x8 is the link ptr, x7 is a temp reg.
  RVTEST_SIGUPD(x31, x8, x7, x27, I_sra_cg_cp_rs2_b19, I_sra_cg_cp_rs2_b19_str)
     954:	000fa383          	lw	x7,0(x31)
     958:	01b38863          	beq	x7,x27,968 <I_sra_cg_cp_rs2_b19+0x18>
     95c:	3790346f          	jal	x8,44d4 <failedtest_x8_x7>
     960:	00000950          	.word	0x00000950
     964:	00009690          	.word	0x00009690
     968:	004f8f93          	addi	x31,x31,4

# Testcase cp_rs2 (Test source rs2 = x20)
  RVTEST_TESTDATA_LOAD_INT(x28, x26) # load rs1: x26 = 0x6234b015
     96c:	000e2d03          	lw	x26,0(x28)
     970:	004e0e13          	addi	x28,x28,4
  RVTEST_TESTDATA_LOAD_INT(x28, x20) # load rs2: x20 = 0x46e0fc2e
     974:	000e2a03          	lw	x20,0(x28)
     978:	004e0e13          	addi	x28,x28,4

0000097c <I_sra_cg_cp_rs2_b20>:
I_sra_cg_cp_rs2_b20:
  sra x18, x26, x20 # perform operation
     97c:	414d5933          	sra	x18,x26,x20
  # Check if x18 contains the expected result. x31 is the signature ptr, x8 is the link ptr, x7 is a temp reg.
  RVTEST_SIGUPD(x31, x8, x7, x18, I_sra_cg_cp_rs2_b20, I_sra_cg_cp_rs2_b20_str)
     980:	000fa383          	lw	x7,0(x31)
     984:	01238863          	beq	x7,x18,994 <I_sra_cg_cp_rs2_b20+0x18>
     988:	34d0346f          	jal	x8,44d4 <failedtest_x8_x7>
     98c:	0000097c          	.word	0x0000097c
     990:	000096bf          	.word	0x000096bf
     994:	004f8f93          	addi	x31,x31,4

# Testcase cp_rs2 (Test source rs2 = x21)
  RVTEST_TESTDATA_LOAD_INT(x28, x10) # load rs1: x10 = 0xedb511d7
     998:	000e2503          	lw	x10,0(x28)
     99c:	004e0e13          	addi	x28,x28,4
  RVTEST_TESTDATA_LOAD_INT(x28, x21) # load rs2: x21 = 0xb12df875
     9a0:	000e2a83          	lw	x21,0(x28)
     9a4:	004e0e13          	addi	x28,x28,4

000009a8 <I_sra_cg_cp_rs2_b21>:
I_sra_cg_cp_rs2_b21:
  sra x20, x10, x21 # perform operation
     9a8:	41555a33          	sra	x20,x10,x21
  # Check if x20 contains the expected result. x31 is the signature ptr, x8 is the link ptr, x7 is a temp reg.
  RVTEST_SIGUPD(x31, x8, x7, x20, I_sra_cg_cp_rs2_b21, I_sra_cg_cp_rs2_b21_str)
     9ac:	000fa383          	lw	x7,0(x31)
     9b0:	01438863          	beq	x7,x20,9c0 <I_sra_cg_cp_rs2_b21+0x18>
     9b4:	3210346f          	jal	x8,44d4 <failedtest_x8_x7>
     9b8:	000009a8          	.word	0x000009a8
     9bc:	000096ee          	.word	0x000096ee
     9c0:	004f8f93          	addi	x31,x31,4

# Testcase cp_rs2 (Test source rs2 = x22)
  RVTEST_TESTDATA_LOAD_INT(x28, x16) # load rs1: x16 = 0x5dbbf7c1
     9c4:	000e2803          	lw	x16,0(x28)
     9c8:	004e0e13          	addi	x28,x28,4
  RVTEST_TESTDATA_LOAD_INT(x28, x22) # load rs2: x22 = 0x00894741
     9cc:	000e2b03          	lw	x22,0(x28)
     9d0:	004e0e13          	addi	x28,x28,4

000009d4 <I_sra_cg_cp_rs2_b22>:
I_sra_cg_cp_rs2_b22:
  sra x29, x16, x22 # perform operation
     9d4:	41685eb3          	sra	x29,x16,x22
  # Check if x29 contains the expected result. x31 is the signature ptr, x8 is the link ptr, x7 is a temp reg.
  RVTEST_SIGUPD(x31, x8, x7, x29, I_sra_cg_cp_rs2_b22, I_sra_cg_cp_rs2_b22_str)
     9d8:	000fa383          	lw	x7,0(x31)
     9dc:	01d38863          	beq	x7,x29,9ec <I_sra_cg_cp_rs2_b22+0x18>
     9e0:	2f50346f          	jal	x8,44d4 <failedtest_x8_x7>
     9e4:	000009d4          	.word	0x000009d4
     9e8:	0000971d          	.word	0x0000971d
     9ec:	004f8f93          	addi	x31,x31,4

# Testcase cp_rs2 (Test source rs2 = x23)
  RVTEST_TESTDATA_LOAD_INT(x28, x30) # load rs1: x30 = 0xfac2d29f
     9f0:	000e2f03          	lw	x30,0(x28)
     9f4:	004e0e13          	addi	x28,x28,4
  RVTEST_TESTDATA_LOAD_INT(x28, x23) # load rs2: x23 = 0xfaa123df
     9f8:	000e2b83          	lw	x23,0(x28)
     9fc:	004e0e13          	addi	x28,x28,4

00000a00 <I_sra_cg_cp_rs2_b23>:
I_sra_cg_cp_rs2_b23:
  sra x12, x30, x23 # perform operation
     a00:	417f5633          	sra	x12,x30,x23
  # Check if x12 contains the expected result. x31 is the signature ptr, x8 is the link ptr, x7 is a temp reg.
  RVTEST_SIGUPD(x31, x8, x7, x12, I_sra_cg_cp_rs2_b23, I_sra_cg_cp_rs2_b23_str)
     a04:	000fa383          	lw	x7,0(x31)
     a08:	00c38863          	beq	x7,x12,a18 <I_sra_cg_cp_rs2_b23+0x18>
     a0c:	2c90346f          	jal	x8,44d4 <failedtest_x8_x7>
     a10:	00000a00          	.word	0x00000a00
     a14:	0000974c          	.word	0x0000974c
     a18:	004f8f93          	addi	x31,x31,4

# Testcase cp_rs2 (Test source rs2 = x24)
  RVTEST_TESTDATA_LOAD_INT(x28, x4) # load rs1: x4 = 0x9d743a14
     a1c:	000e2203          	lw	x4,0(x28)
     a20:	004e0e13          	addi	x28,x28,4
  RVTEST_TESTDATA_LOAD_INT(x28, x24) # load rs2: x24 = 0xc484a37f
     a24:	000e2c03          	lw	x24,0(x28)
     a28:	004e0e13          	addi	x28,x28,4

00000a2c <I_sra_cg_cp_rs2_b24>:
I_sra_cg_cp_rs2_b24:
  sra x21, x4, x24 # perform operation
     a2c:	41825ab3          	sra	x21,x4,x24
  # Check if x21 contains the expected result. x31 is the signature ptr, x8 is the link ptr, x7 is a temp reg.
  RVTEST_SIGUPD(x31, x8, x7, x21, I_sra_cg_cp_rs2_b24, I_sra_cg_cp_rs2_b24_str)
     a30:	000fa383          	lw	x7,0(x31)
     a34:	01538863          	beq	x7,x21,a44 <I_sra_cg_cp_rs2_b24+0x18>
     a38:	29d0346f          	jal	x8,44d4 <failedtest_x8_x7>
     a3c:	00000a2c          	.word	0x00000a2c
     a40:	0000977b          	.word	0x0000977b
     a44:	004f8f93          	addi	x31,x31,4

# Testcase cp_rs2 (Test source rs2 = x25)
  RVTEST_TESTDATA_LOAD_INT(x28, x3) # load rs1: x3 = 0xbd3c0637
     a48:	000e2183          	lw	x3,0(x28)
     a4c:	004e0e13          	addi	x28,x28,4
  RVTEST_TESTDATA_LOAD_INT(x28, x25) # load rs2: x25 = 0x10854cb3
     a50:	000e2c83          	lw	x25,0(x28)
     a54:	004e0e13          	addi	x28,x28,4

00000a58 <I_sra_cg_cp_rs2_b25>:
I_sra_cg_cp_rs2_b25:
  sra x21, x3, x25 # perform operation
     a58:	4191dab3          	sra	x21,x3,x25
  # Check if x21 contains the expected result. x31 is the signature ptr, x8 is the link ptr, x7 is a temp reg.
  RVTEST_SIGUPD(x31, x8, x7, x21, I_sra_cg_cp_rs2_b25, I_sra_cg_cp_rs2_b25_str)
     a5c:	000fa383          	lw	x7,0(x31)
     a60:	01538863          	beq	x7,x21,a70 <I_sra_cg_cp_rs2_b25+0x18>
     a64:	2710346f          	jal	x8,44d4 <failedtest_x8_x7>
     a68:	00000a58          	.word	0x00000a58
     a6c:	000097aa          	.word	0x000097aa
     a70:	004f8f93          	addi	x31,x31,4

# Testcase cp_rs2 (Test source rs2 = x26)
  RVTEST_TESTDATA_LOAD_INT(x28, x21) # load rs1: x21 = 0xcf2c14cb
     a74:	000e2a83          	lw	x21,0(x28)
     a78:	004e0e13          	addi	x28,x28,4
  RVTEST_TESTDATA_LOAD_INT(x28, x26) # load rs2: x26 = 0x422356c2
     a7c:	000e2d03          	lw	x26,0(x28)
     a80:	004e0e13          	addi	x28,x28,4

00000a84 <I_sra_cg_cp_rs2_b26>:
I_sra_cg_cp_rs2_b26:
  sra x0, x21, x26 # perform operation
     a84:	41aad033          	sra	x0,x21,x26
  # Check if x0 contains the expected result. x31 is the signature ptr, x8 is the link ptr, x7 is a temp reg.
  RVTEST_SIGUPD(x31, x8, x7, x0, I_sra_cg_cp_rs2_b26, I_sra_cg_cp_rs2_b26_str)
     a88:	000fa383          	lw	x7,0(x31)
     a8c:	00038863          	beq	x7,x0,a9c <I_sra_cg_cp_rs2_b26+0x18>
     a90:	2450346f          	jal	x8,44d4 <failedtest_x8_x7>
     a94:	00000a84          	.word	0x00000a84
     a98:	000097d9          	.word	0x000097d9
     a9c:	004f8f93          	addi	x31,x31,4

# Testcase cp_rs2 (Test source rs2 = x27)
  RVTEST_TESTDATA_LOAD_INT(x28, x22) # load rs1: x22 = 0xb8a563df
     aa0:	000e2b03          	lw	x22,0(x28)
     aa4:	004e0e13          	addi	x28,x28,4
  RVTEST_TESTDATA_LOAD_INT(x28, x27) # load rs2: x27 = 0xd05ccc3f
     aa8:	000e2d83          	lw	x27,0(x28)
     aac:	004e0e13          	addi	x28,x28,4

00000ab0 <I_sra_cg_cp_rs2_b27>:
I_sra_cg_cp_rs2_b27:
  sra x2, x22, x27 # perform operation
     ab0:	41bb5133          	sra	x2,x22,x27
  # Check if x2 contains the expected result. x31 is the signature ptr, x8 is the link ptr, x7 is a temp reg.
  RVTEST_SIGUPD(x31, x8, x7, x2, I_sra_cg_cp_rs2_b27, I_sra_cg_cp_rs2_b27_str)
     ab4:	000fa383          	lw	x7,0(x31)
     ab8:	00238863          	beq	x7,x2,ac8 <I_sra_cg_cp_rs2_b27+0x18>
     abc:	2190346f          	jal	x8,44d4 <failedtest_x8_x7>
     ac0:	00000ab0          	.word	0x00000ab0
     ac4:	00009808          	.word	0x00009808
     ac8:	004f8f93          	addi	x31,x31,4

  mv x6, x28 # switch data pointer register to avoid conflict with test
     acc:	000e0313          	addi	x6,x28,0
# Testcase cp_rs2 (Test source rs2 = x28)
  RVTEST_TESTDATA_LOAD_INT(x6, x24) # load rs1: x24 = 0xf12dcbc5
     ad0:	00032c03          	lw	x24,0(x6)
     ad4:	00430313          	addi	x6,x6,4
  RVTEST_TESTDATA_LOAD_INT(x6, x28) # load rs2: x28 = 0x4c85f5cd
     ad8:	00032e03          	lw	x28,0(x6)
     adc:	00430313          	addi	x6,x6,4

00000ae0 <I_sra_cg_cp_rs2_b28>:
I_sra_cg_cp_rs2_b28:
  sra x13, x24, x28 # perform operation
     ae0:	41cc56b3          	sra	x13,x24,x28
  # Check if x13 contains the expected result. x31 is the signature ptr, x8 is the link ptr, x7 is a temp reg.
  RVTEST_SIGUPD(x31, x8, x7, x13, I_sra_cg_cp_rs2_b28, I_sra_cg_cp_rs2_b28_str)
     ae4:	000fa383          	lw	x7,0(x31)
     ae8:	00d38863          	beq	x7,x13,af8 <I_sra_cg_cp_rs2_b28+0x18>
     aec:	1e90346f          	jal	x8,44d4 <failedtest_x8_x7>
     af0:	00000ae0          	.word	0x00000ae0
     af4:	00009837          	.word	0x00009837
     af8:	004f8f93          	addi	x31,x31,4

# Testcase cp_rs2 (Test source rs2 = x29)
  RVTEST_TESTDATA_LOAD_INT(x6, x26) # load rs1: x26 = 0x95743a42
     afc:	00032d03          	lw	x26,0(x6)
     b00:	00430313          	addi	x6,x6,4
  RVTEST_TESTDATA_LOAD_INT(x6, x29) # load rs2: x29 = 0x76082dbc
     b04:	00032e83          	lw	x29,0(x6)
     b08:	00430313          	addi	x6,x6,4

00000b0c <I_sra_cg_cp_rs2_b29>:
I_sra_cg_cp_rs2_b29:
  sra x15, x26, x29 # perform operation
     b0c:	41dd57b3          	sra	x15,x26,x29
  # Check if x15 contains the expected result. x31 is the signature ptr, x8 is the link ptr, x7 is a temp reg.
  RVTEST_SIGUPD(x31, x8, x7, x15, I_sra_cg_cp_rs2_b29, I_sra_cg_cp_rs2_b29_str)
     b10:	000fa383          	lw	x7,0(x31)
     b14:	00f38863          	beq	x7,x15,b24 <I_sra_cg_cp_rs2_b29+0x18>
     b18:	1bd0346f          	jal	x8,44d4 <failedtest_x8_x7>
     b1c:	00000b0c          	.word	0x00000b0c
     b20:	00009866          	.word	0x00009866
     b24:	004f8f93          	addi	x31,x31,4

# Testcase cp_rs2 (Test source rs2 = x30)
  RVTEST_TESTDATA_LOAD_INT(x6, x13) # load rs1: x13 = 0xe75ce2ce
     b28:	00032683          	lw	x13,0(x6)
     b2c:	00430313          	addi	x6,x6,4
  RVTEST_TESTDATA_LOAD_INT(x6, x30) # load rs2: x30 = 0x6a19fd59
     b30:	00032f03          	lw	x30,0(x6)
     b34:	00430313          	addi	x6,x6,4

00000b38 <I_sra_cg_cp_rs2_b30>:
I_sra_cg_cp_rs2_b30:
  sra x22, x13, x30 # perform operation
     b38:	41e6db33          	sra	x22,x13,x30
  # Check if x22 contains the expected result. x31 is the signature ptr, x8 is the link ptr, x7 is a temp reg.
  RVTEST_SIGUPD(x31, x8, x7, x22, I_sra_cg_cp_rs2_b30, I_sra_cg_cp_rs2_b30_str)
     b3c:	000fa383          	lw	x7,0(x31)
     b40:	01638863          	beq	x7,x22,b50 <I_sra_cg_cp_rs2_b30+0x18>
     b44:	1910346f          	jal	x8,44d4 <failedtest_x8_x7>
     b48:	00000b38          	.word	0x00000b38
     b4c:	00009895          	.word	0x00009895
     b50:	004f8f93          	addi	x31,x31,4

  mv x15, x31 # switch signature pointer register to avoid conflict with test
     b54:	000f8793          	addi	x15,x31,0
# Testcase cp_rs2 (Test source rs2 = x31)
  RVTEST_TESTDATA_LOAD_INT(x6, x18) # load rs1: x18 = 0xd438f889
     b58:	00032903          	lw	x18,0(x6)
     b5c:	00430313          	addi	x6,x6,4
  RVTEST_TESTDATA_LOAD_INT(x6, x31) # load rs2: x31 = 0x693fb52c
     b60:	00032f83          	lw	x31,0(x6)
     b64:	00430313          	addi	x6,x6,4

00000b68 <I_sra_cg_cp_rs2_b31>:
I_sra_cg_cp_rs2_b31:
  sra x12, x18, x31 # perform operation
     b68:	41f95633          	sra	x12,x18,x31
  # Check if x12 contains the expected result. x15 is the signature ptr, x8 is the link ptr, x7 is a temp reg.
  RVTEST_SIGUPD(x15, x8, x7, x12, I_sra_cg_cp_rs2_b31, I_sra_cg_cp_rs2_b31_str)
     b6c:	0007a383          	lw	x7,0(x15)
     b70:	00c38863          	beq	x7,x12,b80 <I_sra_cg_cp_rs2_b31+0x18>
     b74:	1610346f          	jal	x8,44d4 <failedtest_x8_x7>
     b78:	00000b68          	.word	0x00000b68
     b7c:	000098c4          	.word	0x000098c4
     b80:	00478793          	addi	x15,x15,4
/////////////////////////////////
// cp_rd
/////////////////////////////////

# Testcase cp_rd (Test destination rd = x0)
  RVTEST_TESTDATA_LOAD_INT(x6, x10) # load rs1: x10 = 0xd6b7d5cf
     b84:	00032503          	lw	x10,0(x6)
     b88:	00430313          	addi	x6,x6,4
  RVTEST_TESTDATA_LOAD_INT(x6, x24) # load rs2: x24 = 0x5b873d62
     b8c:	00032c03          	lw	x24,0(x6)
     b90:	00430313          	addi	x6,x6,4

00000b94 <I_sra_cg_cp_rd_b0>:
I_sra_cg_cp_rd_b0:
  sra x0, x10, x24 # perform operation
     b94:	41855033          	sra	x0,x10,x24
  # Check if x0 contains the expected result. x15 is the signature ptr, x8 is the link ptr, x7 is a temp reg.
  RVTEST_SIGUPD(x15, x8, x7, x0, I_sra_cg_cp_rd_b0, I_sra_cg_cp_rd_b0_str)
     b98:	0007a383          	lw	x7,0(x15)
     b9c:	00038863          	beq	x7,x0,bac <I_sra_cg_cp_rd_b0+0x18>
     ba0:	1350346f          	jal	x8,44d4 <failedtest_x8_x7>
     ba4:	00000b94          	.word	0x00000b94
     ba8:	000098f3          	.word	0x000098f3
     bac:	00478793          	addi	x15,x15,4

# Testcase cp_rd (Test destination rd = x1)
  RVTEST_TESTDATA_LOAD_INT(x6, x21) # load rs1: x21 = 0xd9815d7e
     bb0:	00032a83          	lw	x21,0(x6)
     bb4:	00430313          	addi	x6,x6,4
  RVTEST_TESTDATA_LOAD_INT(x6, x22) # load rs2: x22 = 0x7d44bcfb
     bb8:	00032b03          	lw	x22,0(x6)
     bbc:	00430313          	addi	x6,x6,4

00000bc0 <I_sra_cg_cp_rd_b1>:
I_sra_cg_cp_rd_b1:
  sra x1, x21, x22 # perform operation
     bc0:	416ad0b3          	sra	x1,x21,x22
  # Check if x1 contains the expected result. x15 is the signature ptr, x8 is the link ptr, x7 is a temp reg.
  RVTEST_SIGUPD(x15, x8, x7, x1, I_sra_cg_cp_rd_b1, I_sra_cg_cp_rd_b1_str)
     bc4:	0007a383          	lw	x7,0(x15)
     bc8:	00138863          	beq	x7,x1,bd8 <I_sra_cg_cp_rd_b1+0x18>
     bcc:	1090346f          	jal	x8,44d4 <failedtest_x8_x7>
     bd0:	00000bc0          	.word	0x00000bc0
     bd4:	00009920          	.word	0x00009920
     bd8:	00478793          	addi	x15,x15,4

# Testcase cp_rd (Test destination rd = x2)
  RVTEST_TESTDATA_LOAD_INT(x6, x13) # load rs1: x13 = 0x7a57a468
     bdc:	00032683          	lw	x13,0(x6)
     be0:	00430313          	addi	x6,x6,4
  RVTEST_TESTDATA_LOAD_INT(x6, x14) # load rs2: x14 = 0x4622f74f
     be4:	00032703          	lw	x14,0(x6)
     be8:	00430313          	addi	x6,x6,4

00000bec <I_sra_cg_cp_rd_b2>:
I_sra_cg_cp_rd_b2:
  sra x2, x13, x14 # perform operation
     bec:	40e6d133          	sra	x2,x13,x14
  # Check if x2 contains the expected result. x15 is the signature ptr, x8 is the link ptr, x7 is a temp reg.
  RVTEST_SIGUPD(x15, x8, x7, x2, I_sra_cg_cp_rd_b2, I_sra_cg_cp_rd_b2_str)
     bf0:	0007a383          	lw	x7,0(x15)
     bf4:	00238863          	beq	x7,x2,c04 <I_sra_cg_cp_rd_b2+0x18>
     bf8:	0dd0346f          	jal	x8,44d4 <failedtest_x8_x7>
     bfc:	00000bec          	.word	0x00000bec
     c00:	0000994d          	.word	0x0000994d
     c04:	00478793          	addi	x15,x15,4

# Testcase cp_rd (Test destination rd = x3)
  RVTEST_TESTDATA_LOAD_INT(x6, x27) # load rs1: x27 = 0x177507b7
     c08:	00032d83          	lw	x27,0(x6)
     c0c:	00430313          	addi	x6,x6,4
  RVTEST_TESTDATA_LOAD_INT(x6, x20) # load rs2: x20 = 0x25c3bf5a
     c10:	00032a03          	lw	x20,0(x6)
     c14:	00430313          	addi	x6,x6,4

00000c18 <I_sra_cg_cp_rd_b3>:
I_sra_cg_cp_rd_b3:
  sra x3, x27, x20 # perform operation
     c18:	414dd1b3          	sra	x3,x27,x20
  # Check if x3 contains the expected result. x15 is the signature ptr, x8 is the link ptr, x7 is a temp reg.
  RVTEST_SIGUPD(x15, x8, x7, x3, I_sra_cg_cp_rd_b3, I_sra_cg_cp_rd_b3_str)
     c1c:	0007a383          	lw	x7,0(x15)
     c20:	00338863          	beq	x7,x3,c30 <I_sra_cg_cp_rd_b3+0x18>
     c24:	0b10346f          	jal	x8,44d4 <failedtest_x8_x7>
     c28:	00000c18          	.word	0x00000c18
     c2c:	0000997a          	.word	0x0000997a
     c30:	00478793          	addi	x15,x15,4

# Testcase cp_rd (Test destination rd = x4)
  RVTEST_TESTDATA_LOAD_INT(x6, x18) # load rs1: x18 = 0x285f6b3a
     c34:	00032903          	lw	x18,0(x6)
     c38:	00430313          	addi	x6,x6,4
  RVTEST_TESTDATA_LOAD_INT(x6, x31) # load rs2: x31 = 0xbd72a4f2
     c3c:	00032f83          	lw	x31,0(x6)
     c40:	00430313          	addi	x6,x6,4

00000c44 <I_sra_cg_cp_rd_b4>:
I_sra_cg_cp_rd_b4:
  sra x4, x18, x31 # perform operation
     c44:	41f95233          	sra	x4,x18,x31
  # Check if x4 contains the expected result. x15 is the signature ptr, x8 is the link ptr, x7 is a temp reg.
  RVTEST_SIGUPD(x15, x8, x7, x4, I_sra_cg_cp_rd_b4, I_sra_cg_cp_rd_b4_str)
     c48:	0007a383          	lw	x7,0(x15)
     c4c:	00438863          	beq	x7,x4,c5c <I_sra_cg_cp_rd_b4+0x18>
     c50:	0850346f          	jal	x8,44d4 <failedtest_x8_x7>
     c54:	00000c44          	.word	0x00000c44
     c58:	000099a7          	.word	0x000099a7
     c5c:	00478793          	addi	x15,x15,4

# Testcase cp_rd (Test destination rd = x5)
  RVTEST_TESTDATA_LOAD_INT(x6, x27) # load rs1: x27 = 0x2d6aba95
     c60:	00032d83          	lw	x27,0(x6)
     c64:	00430313          	addi	x6,x6,4
  RVTEST_TESTDATA_LOAD_INT(x6, x23) # load rs2: x23 = 0x5a412038
     c68:	00032b83          	lw	x23,0(x6)
     c6c:	00430313          	addi	x6,x6,4

00000c70 <I_sra_cg_cp_rd_b5>:
I_sra_cg_cp_rd_b5:
  sra x5, x27, x23 # perform operation
     c70:	417dd2b3          	sra	x5,x27,x23
  # Check if x5 contains the expected result. x15 is the signature ptr, x8 is the link ptr, x7 is a temp reg.
  RVTEST_SIGUPD(x15, x8, x7, x5, I_sra_cg_cp_rd_b5, I_sra_cg_cp_rd_b5_str)
     c74:	0007a383          	lw	x7,0(x15)
     c78:	00538863          	beq	x7,x5,c88 <I_sra_cg_cp_rd_b5+0x18>
     c7c:	0590346f          	jal	x8,44d4 <failedtest_x8_x7>
     c80:	00000c70          	.word	0x00000c70
     c84:	000099d4          	.word	0x000099d4
     c88:	00478793          	addi	x15,x15,4

  mv x22, x6 # switch data pointer register to avoid conflict with test
     c8c:	00030b13          	addi	x22,x6,0
# Testcase cp_rd (Test destination rd = x6)
  RVTEST_TESTDATA_LOAD_INT(x22, x25) # load rs1: x25 = 0x67c4d711
     c90:	000b2c83          	lw	x25,0(x22)
     c94:	004b0b13          	addi	x22,x22,4
  RVTEST_TESTDATA_LOAD_INT(x22, x30) # load rs2: x30 = 0x8eea35ab
     c98:	000b2f03          	lw	x30,0(x22)
     c9c:	004b0b13          	addi	x22,x22,4

00000ca0 <I_sra_cg_cp_rd_b6>:
I_sra_cg_cp_rd_b6:
  sra x6, x25, x30 # perform operation
     ca0:	41ecd333          	sra	x6,x25,x30
  # Check if x6 contains the expected result. x15 is the signature ptr, x8 is the link ptr, x7 is a temp reg.
  RVTEST_SIGUPD(x15, x8, x7, x6, I_sra_cg_cp_rd_b6, I_sra_cg_cp_rd_b6_str)
     ca4:	0007a383          	lw	x7,0(x15)
     ca8:	00638863          	beq	x7,x6,cb8 <I_sra_cg_cp_rd_b6+0x18>
     cac:	0290346f          	jal	x8,44d4 <failedtest_x8_x7>
     cb0:	00000ca0          	.word	0x00000ca0
     cb4:	00009a01          	.word	0x00009a01
     cb8:	00478793          	addi	x15,x15,4

  mv x4, x7 # switch temp register to avoid conflict with test
     cbc:	00038213          	addi	x4,x7,0
  mv x5, x8 # switch link pointer register to avoid conflict with test
     cc0:	00040293          	addi	x5,x8,0
# Testcase cp_rd (Test destination rd = x7)
  RVTEST_TESTDATA_LOAD_INT(x22, x12) # load rs1: x12 = 0x08db5472
     cc4:	000b2603          	lw	x12,0(x22)
     cc8:	004b0b13          	addi	x22,x22,4
  RVTEST_TESTDATA_LOAD_INT(x22, x27) # load rs2: x27 = 0x25c5ace9
     ccc:	000b2d83          	lw	x27,0(x22)
     cd0:	004b0b13          	addi	x22,x22,4

00000cd4 <I_sra_cg_cp_rd_b7>:
I_sra_cg_cp_rd_b7:
  sra x7, x12, x27 # perform operation
     cd4:	41b653b3          	sra	x7,x12,x27
  # Check if x7 contains the expected result. x15 is the signature ptr, x5 is the link ptr, x4 is a temp reg.
  RVTEST_SIGUPD(x15, x5, x4, x7, I_sra_cg_cp_rd_b7, I_sra_cg_cp_rd_b7_str)
     cd8:	0007a203          	lw	x4,0(x15)
     cdc:	00720863          	beq	x4,x7,cec <I_sra_cg_cp_rd_b7+0x18>
     ce0:	7dc032ef          	jal	x5,44bc <failedtest_x5_x4>
     ce4:	00000cd4          	.word	0x00000cd4
     ce8:	00009a2e          	.word	0x00009a2e
     cec:	00478793          	addi	x15,x15,4

# Testcase cp_rd (Test destination rd = x8)
  RVTEST_TESTDATA_LOAD_INT(x22, x21) # load rs1: x21 = 0x7a7f81d9
     cf0:	000b2a83          	lw	x21,0(x22)
     cf4:	004b0b13          	addi	x22,x22,4
  RVTEST_TESTDATA_LOAD_INT(x22, x11) # load rs2: x11 = 0xef7ef41e
     cf8:	000b2583          	lw	x11,0(x22)
     cfc:	004b0b13          	addi	x22,x22,4

00000d00 <I_sra_cg_cp_rd_b8>:
I_sra_cg_cp_rd_b8:
  sra x8, x21, x11 # perform operation
     d00:	40bad433          	sra	x8,x21,x11
  # Check if x8 contains the expected result. x15 is the signature ptr, x5 is the link ptr, x4 is a temp reg.
  RVTEST_SIGUPD(x15, x5, x4, x8, I_sra_cg_cp_rd_b8, I_sra_cg_cp_rd_b8_str)
     d04:	0007a203          	lw	x4,0(x15)
     d08:	00820863          	beq	x4,x8,d18 <I_sra_cg_cp_rd_b8+0x18>
     d0c:	7b0032ef          	jal	x5,44bc <failedtest_x5_x4>
     d10:	00000d00          	.word	0x00000d00
     d14:	00009a5b          	.word	0x00009a5b
     d18:	00478793          	addi	x15,x15,4

# Testcase cp_rd (Test destination rd = x9)
  RVTEST_TESTDATA_LOAD_INT(x22, x21) # load rs1: x21 = 0x538e2793
     d1c:	000b2a83          	lw	x21,0(x22)
     d20:	004b0b13          	addi	x22,x22,4
  RVTEST_TESTDATA_LOAD_INT(x22, x23) # load rs2: x23 = 0x845fab80
     d24:	000b2b83          	lw	x23,0(x22)
     d28:	004b0b13          	addi	x22,x22,4

00000d2c <I_sra_cg_cp_rd_b9>:
I_sra_cg_cp_rd_b9:
  sra x9, x21, x23 # perform operation
     d2c:	417ad4b3          	sra	x9,x21,x23
  # Check if x9 contains the expected result. x15 is the signature ptr, x5 is the link ptr, x4 is a temp reg.
  RVTEST_SIGUPD(x15, x5, x4, x9, I_sra_cg_cp_rd_b9, I_sra_cg_cp_rd_b9_str)
     d30:	0007a203          	lw	x4,0(x15)
     d34:	00920863          	beq	x4,x9,d44 <I_sra_cg_cp_rd_b9+0x18>
     d38:	784032ef          	jal	x5,44bc <failedtest_x5_x4>
     d3c:	00000d2c          	.word	0x00000d2c
     d40:	00009a88          	.word	0x00009a88
     d44:	00478793          	addi	x15,x15,4

# Testcase cp_rd (Test destination rd = x10)
  RVTEST_TESTDATA_LOAD_INT(x22, x19) # load rs1: x19 = 0x0eed6f27
     d48:	000b2983          	lw	x19,0(x22)
     d4c:	004b0b13          	addi	x22,x22,4
  RVTEST_TESTDATA_LOAD_INT(x22, x21) # load rs2: x21 = 0x756bcef5
     d50:	000b2a83          	lw	x21,0(x22)
     d54:	004b0b13          	addi	x22,x22,4

00000d58 <I_sra_cg_cp_rd_b10>:
I_sra_cg_cp_rd_b10:
  sra x10, x19, x21 # perform operation
     d58:	4159d533          	sra	x10,x19,x21
  # Check if x10 contains the expected result. x15 is the signature ptr, x5 is the link ptr, x4 is a temp reg.
  RVTEST_SIGUPD(x15, x5, x4, x10, I_sra_cg_cp_rd_b10, I_sra_cg_cp_rd_b10_str)
     d5c:	0007a203          	lw	x4,0(x15)
     d60:	00a20863          	beq	x4,x10,d70 <I_sra_cg_cp_rd_b10+0x18>
     d64:	758032ef          	jal	x5,44bc <failedtest_x5_x4>
     d68:	00000d58          	.word	0x00000d58
     d6c:	00009ab5          	.word	0x00009ab5
     d70:	00478793          	addi	x15,x15,4

# Testcase cp_rd (Test destination rd = x11)
  RVTEST_TESTDATA_LOAD_INT(x22, x14) # load rs1: x14 = 0xffc7407e
     d74:	000b2703          	lw	x14,0(x22)
     d78:	004b0b13          	addi	x22,x22,4
  RVTEST_TESTDATA_LOAD_INT(x22, x29) # load rs2: x29 = 0x77a28e82
     d7c:	000b2e83          	lw	x29,0(x22)
     d80:	004b0b13          	addi	x22,x22,4

00000d84 <I_sra_cg_cp_rd_b11>:
I_sra_cg_cp_rd_b11:
  sra x11, x14, x29 # perform operation
     d84:	41d755b3          	sra	x11,x14,x29
  # Check if x11 contains the expected result. x15 is the signature ptr, x5 is the link ptr, x4 is a temp reg.
  RVTEST_SIGUPD(x15, x5, x4, x11, I_sra_cg_cp_rd_b11, I_sra_cg_cp_rd_b11_str)
     d88:	0007a203          	lw	x4,0(x15)
     d8c:	00b20863          	beq	x4,x11,d9c <I_sra_cg_cp_rd_b11+0x18>
     d90:	72c032ef          	jal	x5,44bc <failedtest_x5_x4>
     d94:	00000d84          	.word	0x00000d84
     d98:	00009ae3          	.word	0x00009ae3
     d9c:	00478793          	addi	x15,x15,4

# Testcase cp_rd (Test destination rd = x12)
  RVTEST_TESTDATA_LOAD_INT(x22, x0) # load rs1: x0 = 0xcb818744
     da0:	000b2003          	lw	x0,0(x22)
     da4:	004b0b13          	addi	x22,x22,4
  RVTEST_TESTDATA_LOAD_INT(x22, x29) # load rs2: x29 = 0x638a503e
     da8:	000b2e83          	lw	x29,0(x22)
     dac:	004b0b13          	addi	x22,x22,4

00000db0 <I_sra_cg_cp_rd_b12>:
I_sra_cg_cp_rd_b12:
  sra x12, x0, x29 # perform operation
     db0:	41d05633          	sra	x12,x0,x29
  # Check if x12 contains the expected result. x15 is the signature ptr, x5 is the link ptr, x4 is a temp reg.
  RVTEST_SIGUPD(x15, x5, x4, x12, I_sra_cg_cp_rd_b12, I_sra_cg_cp_rd_b12_str)
     db4:	0007a203          	lw	x4,0(x15)
     db8:	00c20863          	beq	x4,x12,dc8 <I_sra_cg_cp_rd_b12+0x18>
     dbc:	700032ef          	jal	x5,44bc <failedtest_x5_x4>
     dc0:	00000db0          	.word	0x00000db0
     dc4:	00009b11          	.word	0x00009b11
     dc8:	00478793          	addi	x15,x15,4

# Testcase cp_rd (Test destination rd = x13)
  RVTEST_TESTDATA_LOAD_INT(x22, x21) # load rs1: x21 = 0xc141d2ec
     dcc:	000b2a83          	lw	x21,0(x22)
     dd0:	004b0b13          	addi	x22,x22,4
  RVTEST_TESTDATA_LOAD_INT(x22, x3) # load rs2: x3 = 0x3d386f5f
     dd4:	000b2183          	lw	x3,0(x22)
     dd8:	004b0b13          	addi	x22,x22,4

00000ddc <I_sra_cg_cp_rd_b13>:
I_sra_cg_cp_rd_b13:
  sra x13, x21, x3 # perform operation
     ddc:	403ad6b3          	sra	x13,x21,x3
  # Check if x13 contains the expected result. x15 is the signature ptr, x5 is the link ptr, x4 is a temp reg.
  RVTEST_SIGUPD(x15, x5, x4, x13, I_sra_cg_cp_rd_b13, I_sra_cg_cp_rd_b13_str)
     de0:	0007a203          	lw	x4,0(x15)
     de4:	00d20863          	beq	x4,x13,df4 <I_sra_cg_cp_rd_b13+0x18>
     de8:	6d4032ef          	jal	x5,44bc <failedtest_x5_x4>
     dec:	00000ddc          	.word	0x00000ddc
     df0:	00009b3f          	.word	0x00009b3f
     df4:	00478793          	addi	x15,x15,4

# Testcase cp_rd (Test destination rd = x14)
  RVTEST_TESTDATA_LOAD_INT(x22, x25) # load rs1: x25 = 0x67547ac1
     df8:	000b2c83          	lw	x25,0(x22)
     dfc:	004b0b13          	addi	x22,x22,4
  RVTEST_TESTDATA_LOAD_INT(x22, x24) # load rs2: x24 = 0x599a0001
     e00:	000b2c03          	lw	x24,0(x22)
     e04:	004b0b13          	addi	x22,x22,4

00000e08 <I_sra_cg_cp_rd_b14>:
I_sra_cg_cp_rd_b14:
  sra x14, x25, x24 # perform operation
     e08:	418cd733          	sra	x14,x25,x24
  # Check if x14 contains the expected result. x15 is the signature ptr, x5 is the link ptr, x4 is a temp reg.
  RVTEST_SIGUPD(x15, x5, x4, x14, I_sra_cg_cp_rd_b14, I_sra_cg_cp_rd_b14_str)
     e0c:	0007a203          	lw	x4,0(x15)
     e10:	00e20863          	beq	x4,x14,e20 <I_sra_cg_cp_rd_b14+0x18>
     e14:	6a8032ef          	jal	x5,44bc <failedtest_x5_x4>
     e18:	00000e08          	.word	0x00000e08
     e1c:	00009b6d          	.word	0x00009b6d
     e20:	00478793          	addi	x15,x15,4

  mv x18, x15 # switch signature pointer register to avoid conflict with test
     e24:	00078913          	addi	x18,x15,0
# Testcase cp_rd (Test destination rd = x15)
  RVTEST_TESTDATA_LOAD_INT(x22, x7) # load rs1: x7 = 0x9dd8ac83
     e28:	000b2383          	lw	x7,0(x22)
     e2c:	004b0b13          	addi	x22,x22,4
  RVTEST_TESTDATA_LOAD_INT(x22, x12) # load rs2: x12 = 0x34b2d73a
     e30:	000b2603          	lw	x12,0(x22)
     e34:	004b0b13          	addi	x22,x22,4

00000e38 <I_sra_cg_cp_rd_b15>:
I_sra_cg_cp_rd_b15:
  sra x15, x7, x12 # perform operation
     e38:	40c3d7b3          	sra	x15,x7,x12
  # Check if x15 contains the expected result. x18 is the signature ptr, x5 is the link ptr, x4 is a temp reg.
  RVTEST_SIGUPD(x18, x5, x4, x15, I_sra_cg_cp_rd_b15, I_sra_cg_cp_rd_b15_str)
     e3c:	00092203          	lw	x4,0(x18)
     e40:	00f20863          	beq	x4,x15,e50 <I_sra_cg_cp_rd_b15+0x18>
     e44:	678032ef          	jal	x5,44bc <failedtest_x5_x4>
     e48:	00000e38          	.word	0x00000e38
     e4c:	00009b9b          	.word	0x00009b9b
     e50:	00490913          	addi	x18,x18,4

# Testcase cp_rd (Test destination rd = x16)
  RVTEST_TESTDATA_LOAD_INT(x22, x23) # load rs1: x23 = 0xf401aae1
     e54:	000b2b83          	lw	x23,0(x22)
     e58:	004b0b13          	addi	x22,x22,4
  RVTEST_TESTDATA_LOAD_INT(x22, x19) # load rs2: x19 = 0xa879478c
     e5c:	000b2983          	lw	x19,0(x22)
     e60:	004b0b13          	addi	x22,x22,4

00000e64 <I_sra_cg_cp_rd_b16>:
I_sra_cg_cp_rd_b16:
  sra x16, x23, x19 # perform operation
     e64:	413bd833          	sra	x16,x23,x19
  # Check if x16 contains the expected result. x18 is the signature ptr, x5 is the link ptr, x4 is a temp reg.
  RVTEST_SIGUPD(x18, x5, x4, x16, I_sra_cg_cp_rd_b16, I_sra_cg_cp_rd_b16_str)
     e68:	00092203          	lw	x4,0(x18)
     e6c:	01020863          	beq	x4,x16,e7c <I_sra_cg_cp_rd_b16+0x18>
     e70:	64c032ef          	jal	x5,44bc <failedtest_x5_x4>
     e74:	00000e64          	.word	0x00000e64
     e78:	00009bc9          	.word	0x00009bc9
     e7c:	00490913          	addi	x18,x18,4

# Testcase cp_rd (Test destination rd = x17)
  RVTEST_TESTDATA_LOAD_INT(x22, x12) # load rs1: x12 = 0xb2099086
     e80:	000b2603          	lw	x12,0(x22)
     e84:	004b0b13          	addi	x22,x22,4
  RVTEST_TESTDATA_LOAD_INT(x22, x24) # load rs2: x24 = 0x28662ee2
     e88:	000b2c03          	lw	x24,0(x22)
     e8c:	004b0b13          	addi	x22,x22,4

00000e90 <I_sra_cg_cp_rd_b17>:
I_sra_cg_cp_rd_b17:
  sra x17, x12, x24 # perform operation
     e90:	418658b3          	sra	x17,x12,x24
  # Check if x17 contains the expected result. x18 is the signature ptr, x5 is the link ptr, x4 is a temp reg.
  RVTEST_SIGUPD(x18, x5, x4, x17, I_sra_cg_cp_rd_b17, I_sra_cg_cp_rd_b17_str)
     e94:	00092203          	lw	x4,0(x18)
     e98:	01120863          	beq	x4,x17,ea8 <I_sra_cg_cp_rd_b17+0x18>
     e9c:	620032ef          	jal	x5,44bc <failedtest_x5_x4>
     ea0:	00000e90          	.word	0x00000e90
     ea4:	00009bf7          	.word	0x00009bf7
     ea8:	00490913          	addi	x18,x18,4

  mv x25, x18 # switch signature pointer register to avoid conflict with test
     eac:	00090c93          	addi	x25,x18,0
# Testcase cp_rd (Test destination rd = x18)
  RVTEST_TESTDATA_LOAD_INT(x22, x6) # load rs1: x6 = 0xa24f169b
     eb0:	000b2303          	lw	x6,0(x22)
     eb4:	004b0b13          	addi	x22,x22,4
  RVTEST_TESTDATA_LOAD_INT(x22, x2) # load rs2: x2 = 0x061d6482
     eb8:	000b2103          	lw	x2,0(x22)
     ebc:	004b0b13          	addi	x22,x22,4

00000ec0 <I_sra_cg_cp_rd_b18>:
I_sra_cg_cp_rd_b18:
  sra x18, x6, x2 # perform operation
     ec0:	40235933          	sra	x18,x6,x2
  # Check if x18 contains the expected result. x25 is the signature ptr, x5 is the link ptr, x4 is a temp reg.
  RVTEST_SIGUPD(x25, x5, x4, x18, I_sra_cg_cp_rd_b18, I_sra_cg_cp_rd_b18_str)
     ec4:	000ca203          	lw	x4,0(x25)
     ec8:	01220863          	beq	x4,x18,ed8 <I_sra_cg_cp_rd_b18+0x18>
     ecc:	5f0032ef          	jal	x5,44bc <failedtest_x5_x4>
     ed0:	00000ec0          	.word	0x00000ec0
     ed4:	00009c25          	.word	0x00009c25
     ed8:	004c8c93          	addi	x25,x25,4

# Testcase cp_rd (Test destination rd = x19)
  RVTEST_TESTDATA_LOAD_INT(x22, x1) # load rs1: x1 = 0x5a69a857
     edc:	000b2083          	lw	x1,0(x22)
     ee0:	004b0b13          	addi	x22,x22,4
  RVTEST_TESTDATA_LOAD_INT(x22, x9) # load rs2: x9 = 0xe8c5dd6f
     ee4:	000b2483          	lw	x9,0(x22)
     ee8:	004b0b13          	addi	x22,x22,4

00000eec <I_sra_cg_cp_rd_b19>:
I_sra_cg_cp_rd_b19:
  sra x19, x1, x9 # perform operation
     eec:	4090d9b3          	sra	x19,x1,x9
  # Check if x19 contains the expected result. x25 is the signature ptr, x5 is the link ptr, x4 is a temp reg.
  RVTEST_SIGUPD(x25, x5, x4, x19, I_sra_cg_cp_rd_b19, I_sra_cg_cp_rd_b19_str)
     ef0:	000ca203          	lw	x4,0(x25)
     ef4:	01320863          	beq	x4,x19,f04 <I_sra_cg_cp_rd_b19+0x18>
     ef8:	5c4032ef          	jal	x5,44bc <failedtest_x5_x4>
     efc:	00000eec          	.word	0x00000eec
     f00:	00009c53          	.word	0x00009c53
     f04:	004c8c93          	addi	x25,x25,4

# Testcase cp_rd (Test destination rd = x20)
  RVTEST_TESTDATA_LOAD_INT(x22, x8) # load rs1: x8 = 0x10c23983
     f08:	000b2403          	lw	x8,0(x22)
     f0c:	004b0b13          	addi	x22,x22,4
  RVTEST_TESTDATA_LOAD_INT(x22, x30) # load rs2: x30 = 0x71ffcf6b
     f10:	000b2f03          	lw	x30,0(x22)
     f14:	004b0b13          	addi	x22,x22,4

00000f18 <I_sra_cg_cp_rd_b20>:
I_sra_cg_cp_rd_b20:
  sra x20, x8, x30 # perform operation
     f18:	41e45a33          	sra	x20,x8,x30
  # Check if x20 contains the expected result. x25 is the signature ptr, x5 is the link ptr, x4 is a temp reg.
  RVTEST_SIGUPD(x25, x5, x4, x20, I_sra_cg_cp_rd_b20, I_sra_cg_cp_rd_b20_str)
     f1c:	000ca203          	lw	x4,0(x25)
     f20:	01420863          	beq	x4,x20,f30 <I_sra_cg_cp_rd_b20+0x18>
     f24:	598032ef          	jal	x5,44bc <failedtest_x5_x4>
     f28:	00000f18          	.word	0x00000f18
     f2c:	00009c81          	.word	0x00009c81
     f30:	004c8c93          	addi	x25,x25,4

# Testcase cp_rd (Test destination rd = x21)
  RVTEST_TESTDATA_LOAD_INT(x22, x18) # load rs1: x18 = 0xd3eec80c
     f34:	000b2903          	lw	x18,0(x22)
     f38:	004b0b13          	addi	x22,x22,4
  RVTEST_TESTDATA_LOAD_INT(x22, x26) # load rs2: x26 = 0xeb618bc5
     f3c:	000b2d03          	lw	x26,0(x22)
     f40:	004b0b13          	addi	x22,x22,4

00000f44 <I_sra_cg_cp_rd_b21>:
I_sra_cg_cp_rd_b21:
  sra x21, x18, x26 # perform operation
     f44:	41a95ab3          	sra	x21,x18,x26
  # Check if x21 contains the expected result. x25 is the signature ptr, x5 is the link ptr, x4 is a temp reg.
  RVTEST_SIGUPD(x25, x5, x4, x21, I_sra_cg_cp_rd_b21, I_sra_cg_cp_rd_b21_str)
     f48:	000ca203          	lw	x4,0(x25)
     f4c:	01520863          	beq	x4,x21,f5c <I_sra_cg_cp_rd_b21+0x18>
     f50:	56c032ef          	jal	x5,44bc <failedtest_x5_x4>
     f54:	00000f44          	.word	0x00000f44
     f58:	00009caf          	.word	0x00009caf
     f5c:	004c8c93          	addi	x25,x25,4

  mv x24, x22 # switch data pointer register to avoid conflict with test
     f60:	000b0c13          	addi	x24,x22,0
# Testcase cp_rd (Test destination rd = x22)
  RVTEST_TESTDATA_LOAD_INT(x24, x27) # load rs1: x27 = 0xfa9960cd
     f64:	000c2d83          	lw	x27,0(x24)
     f68:	004c0c13          	addi	x24,x24,4
  RVTEST_TESTDATA_LOAD_INT(x24, x18) # load rs2: x18 = 0x8ab5a21b
     f6c:	000c2903          	lw	x18,0(x24)
     f70:	004c0c13          	addi	x24,x24,4

00000f74 <I_sra_cg_cp_rd_b22>:
I_sra_cg_cp_rd_b22:
  sra x22, x27, x18 # perform operation
     f74:	412ddb33          	sra	x22,x27,x18
  # Check if x22 contains the expected result. x25 is the signature ptr, x5 is the link ptr, x4 is a temp reg.
  RVTEST_SIGUPD(x25, x5, x4, x22, I_sra_cg_cp_rd_b22, I_sra_cg_cp_rd_b22_str)
     f78:	000ca203          	lw	x4,0(x25)
     f7c:	01620863          	beq	x4,x22,f8c <I_sra_cg_cp_rd_b22+0x18>
     f80:	53c032ef          	jal	x5,44bc <failedtest_x5_x4>
     f84:	00000f74          	.word	0x00000f74
     f88:	00009cdd          	.word	0x00009cdd
     f8c:	004c8c93          	addi	x25,x25,4

# Testcase cp_rd (Test destination rd = x23)
  RVTEST_TESTDATA_LOAD_INT(x24, x3) # load rs1: x3 = 0x730e9b30
     f90:	000c2183          	lw	x3,0(x24)
     f94:	004c0c13          	addi	x24,x24,4
  RVTEST_TESTDATA_LOAD_INT(x24, x22) # load rs2: x22 = 0x94d625a9
     f98:	000c2b03          	lw	x22,0(x24)
     f9c:	004c0c13          	addi	x24,x24,4

00000fa0 <I_sra_cg_cp_rd_b23>:
I_sra_cg_cp_rd_b23:
  sra x23, x3, x22 # perform operation
     fa0:	4161dbb3          	sra	x23,x3,x22
  # Check if x23 contains the expected result. x25 is the signature ptr, x5 is the link ptr, x4 is a temp reg.
  RVTEST_SIGUPD(x25, x5, x4, x23, I_sra_cg_cp_rd_b23, I_sra_cg_cp_rd_b23_str)
     fa4:	000ca203          	lw	x4,0(x25)
     fa8:	01720863          	beq	x4,x23,fb8 <I_sra_cg_cp_rd_b23+0x18>
     fac:	510032ef          	jal	x5,44bc <failedtest_x5_x4>
     fb0:	00000fa0          	.word	0x00000fa0
     fb4:	00009d0b          	.word	0x00009d0b
     fb8:	004c8c93          	addi	x25,x25,4

  mv x23, x24 # switch data pointer register to avoid conflict with test
     fbc:	000c0b93          	addi	x23,x24,0
# Testcase cp_rd (Test destination rd = x24)
  RVTEST_TESTDATA_LOAD_INT(x23, x30) # load rs1: x30 = 0xf0c8b480
     fc0:	000baf03          	lw	x30,0(x23)
     fc4:	004b8b93          	addi	x23,x23,4
  RVTEST_TESTDATA_LOAD_INT(x23, x22) # load rs2: x22 = 0x5d2ba71a
     fc8:	000bab03          	lw	x22,0(x23)
     fcc:	004b8b93          	addi	x23,x23,4

00000fd0 <I_sra_cg_cp_rd_b24>:
I_sra_cg_cp_rd_b24:
  sra x24, x30, x22 # perform operation
     fd0:	416f5c33          	sra	x24,x30,x22
  # Check if x24 contains the expected result. x25 is the signature ptr, x5 is the link ptr, x4 is a temp reg.
  RVTEST_SIGUPD(x25, x5, x4, x24, I_sra_cg_cp_rd_b24, I_sra_cg_cp_rd_b24_str)
     fd4:	000ca203          	lw	x4,0(x25)
     fd8:	01820863          	beq	x4,x24,fe8 <I_sra_cg_cp_rd_b24+0x18>
     fdc:	4e0032ef          	jal	x5,44bc <failedtest_x5_x4>
     fe0:	00000fd0          	.word	0x00000fd0
     fe4:	00009d39          	.word	0x00009d39
     fe8:	004c8c93          	addi	x25,x25,4

  mv x1, x25 # switch signature pointer register to avoid conflict with test
     fec:	000c8093          	addi	x1,x25,0
# Testcase cp_rd (Test destination rd = x25)
  RVTEST_TESTDATA_LOAD_INT(x23, x29) # load rs1: x29 = 0x9be9be59
     ff0:	000bae83          	lw	x29,0(x23)
     ff4:	004b8b93          	addi	x23,x23,4
  RVTEST_TESTDATA_LOAD_INT(x23, x27) # load rs2: x27 = 0x96f4a01a
     ff8:	000bad83          	lw	x27,0(x23)
     ffc:	004b8b93          	addi	x23,x23,4

00001000 <I_sra_cg_cp_rd_b25>:
I_sra_cg_cp_rd_b25:
  sra x25, x29, x27 # perform operation
    1000:	41bedcb3          	sra	x25,x29,x27
  # Check if x25 contains the expected result. x1 is the signature ptr, x5 is the link ptr, x4 is a temp reg.
  RVTEST_SIGUPD(x1, x5, x4, x25, I_sra_cg_cp_rd_b25, I_sra_cg_cp_rd_b25_str)
    1004:	0000a203          	lw	x4,0(x1)
    1008:	01920863          	beq	x4,x25,1018 <I_sra_cg_cp_rd_b25+0x18>
    100c:	4b0032ef          	jal	x5,44bc <failedtest_x5_x4>
    1010:	00001000          	.word	0x00001000
    1014:	00009d67          	.word	0x00009d67
    1018:	00408093          	addi	x1,x1,4

# Testcase cp_rd (Test destination rd = x26)
  RVTEST_TESTDATA_LOAD_INT(x23, x29) # load rs1: x29 = 0x8469b779
    101c:	000bae83          	lw	x29,0(x23)
    1020:	004b8b93          	addi	x23,x23,4
  RVTEST_TESTDATA_LOAD_INT(x23, x21) # load rs2: x21 = 0x6049bb01
    1024:	000baa83          	lw	x21,0(x23)
    1028:	004b8b93          	addi	x23,x23,4

0000102c <I_sra_cg_cp_rd_b26>:
I_sra_cg_cp_rd_b26:
  sra x26, x29, x21 # perform operation
    102c:	415edd33          	sra	x26,x29,x21
  # Check if x26 contains the expected result. x1 is the signature ptr, x5 is the link ptr, x4 is a temp reg.
  RVTEST_SIGUPD(x1, x5, x4, x26, I_sra_cg_cp_rd_b26, I_sra_cg_cp_rd_b26_str)
    1030:	0000a203          	lw	x4,0(x1)
    1034:	01a20863          	beq	x4,x26,1044 <I_sra_cg_cp_rd_b26+0x18>
    1038:	484032ef          	jal	x5,44bc <failedtest_x5_x4>
    103c:	0000102c          	.word	0x0000102c
    1040:	00009d95          	.word	0x00009d95
    1044:	00408093          	addi	x1,x1,4

# Testcase cp_rd (Test destination rd = x27)
  RVTEST_TESTDATA_LOAD_INT(x23, x26) # load rs1: x26 = 0x84d82964
    1048:	000bad03          	lw	x26,0(x23)
    104c:	004b8b93          	addi	x23,x23,4
  RVTEST_TESTDATA_LOAD_INT(x23, x7) # load rs2: x7 = 0x02d4ba5d
    1050:	000ba383          	lw	x7,0(x23)
    1054:	004b8b93          	addi	x23,x23,4

00001058 <I_sra_cg_cp_rd_b27>:
I_sra_cg_cp_rd_b27:
  sra x27, x26, x7 # perform operation
    1058:	407d5db3          	sra	x27,x26,x7
  # Check if x27 contains the expected result. x1 is the signature ptr, x5 is the link ptr, x4 is a temp reg.
  RVTEST_SIGUPD(x1, x5, x4, x27, I_sra_cg_cp_rd_b27, I_sra_cg_cp_rd_b27_str)
    105c:	0000a203          	lw	x4,0(x1)
    1060:	01b20863          	beq	x4,x27,1070 <I_sra_cg_cp_rd_b27+0x18>
    1064:	458032ef          	jal	x5,44bc <failedtest_x5_x4>
    1068:	00001058          	.word	0x00001058
    106c:	00009dc3          	.word	0x00009dc3
    1070:	00408093          	addi	x1,x1,4

# Testcase cp_rd (Test destination rd = x28)
  RVTEST_TESTDATA_LOAD_INT(x23, x11) # load rs1: x11 = 0x3f550231
    1074:	000ba583          	lw	x11,0(x23)
    1078:	004b8b93          	addi	x23,x23,4
  RVTEST_TESTDATA_LOAD_INT(x23, x29) # load rs2: x29 = 0x0e7f9b87
    107c:	000bae83          	lw	x29,0(x23)
    1080:	004b8b93          	addi	x23,x23,4

00001084 <I_sra_cg_cp_rd_b28>:
I_sra_cg_cp_rd_b28:
  sra x28, x11, x29 # perform operation
    1084:	41d5de33          	sra	x28,x11,x29
  # Check if x28 contains the expected result. x1 is the signature ptr, x5 is the link ptr, x4 is a temp reg.
  RVTEST_SIGUPD(x1, x5, x4, x28, I_sra_cg_cp_rd_b28, I_sra_cg_cp_rd_b28_str)
    1088:	0000a203          	lw	x4,0(x1)
    108c:	01c20863          	beq	x4,x28,109c <I_sra_cg_cp_rd_b28+0x18>
    1090:	42c032ef          	jal	x5,44bc <failedtest_x5_x4>
    1094:	00001084          	.word	0x00001084
    1098:	00009df1          	.word	0x00009df1
    109c:	00408093          	addi	x1,x1,4

# Testcase cp_rd (Test destination rd = x29)
  RVTEST_TESTDATA_LOAD_INT(x23, x31) # load rs1: x31 = 0xe8ad6f02
    10a0:	000baf83          	lw	x31,0(x23)
    10a4:	004b8b93          	addi	x23,x23,4
  RVTEST_TESTDATA_LOAD_INT(x23, x14) # load rs2: x14 = 0x9a10700b
    10a8:	000ba703          	lw	x14,0(x23)
    10ac:	004b8b93          	addi	x23,x23,4

000010b0 <I_sra_cg_cp_rd_b29>:
I_sra_cg_cp_rd_b29:
  sra x29, x31, x14 # perform operation
    10b0:	40efdeb3          	sra	x29,x31,x14
  # Check if x29 contains the expected result. x1 is the signature ptr, x5 is the link ptr, x4 is a temp reg.
  RVTEST_SIGUPD(x1, x5, x4, x29, I_sra_cg_cp_rd_b29, I_sra_cg_cp_rd_b29_str)
    10b4:	0000a203          	lw	x4,0(x1)
    10b8:	01d20863          	beq	x4,x29,10c8 <I_sra_cg_cp_rd_b29+0x18>
    10bc:	400032ef          	jal	x5,44bc <failedtest_x5_x4>
    10c0:	000010b0          	.word	0x000010b0
    10c4:	00009e1f          	.word	0x00009e1f
    10c8:	00408093          	addi	x1,x1,4

# Testcase cp_rd (Test destination rd = x30)
  RVTEST_TESTDATA_LOAD_INT(x23, x22) # load rs1: x22 = 0x5b69cbb8
    10cc:	000bab03          	lw	x22,0(x23)
    10d0:	004b8b93          	addi	x23,x23,4
  RVTEST_TESTDATA_LOAD_INT(x23, x2) # load rs2: x2 = 0xd5801147
    10d4:	000ba103          	lw	x2,0(x23)
    10d8:	004b8b93          	addi	x23,x23,4

000010dc <I_sra_cg_cp_rd_b30>:
I_sra_cg_cp_rd_b30:
  sra x30, x22, x2 # perform operation
    10dc:	402b5f33          	sra	x30,x22,x2
  # Check if x30 contains the expected result. x1 is the signature ptr, x5 is the link ptr, x4 is a temp reg.
  RVTEST_SIGUPD(x1, x5, x4, x30, I_sra_cg_cp_rd_b30, I_sra_cg_cp_rd_b30_str)
    10e0:	0000a203          	lw	x4,0(x1)
    10e4:	01e20863          	beq	x4,x30,10f4 <I_sra_cg_cp_rd_b30+0x18>
    10e8:	3d4032ef          	jal	x5,44bc <failedtest_x5_x4>
    10ec:	000010dc          	.word	0x000010dc
    10f0:	00009e4d          	.word	0x00009e4d
    10f4:	00408093          	addi	x1,x1,4

# Testcase cp_rd (Test destination rd = x31)
  RVTEST_TESTDATA_LOAD_INT(x23, x27) # load rs1: x27 = 0x5341de81
    10f8:	000bad83          	lw	x27,0(x23)
    10fc:	004b8b93          	addi	x23,x23,4
  RVTEST_TESTDATA_LOAD_INT(x23, x30) # load rs2: x30 = 0x3b95d84b
    1100:	000baf03          	lw	x30,0(x23)
    1104:	004b8b93          	addi	x23,x23,4

00001108 <I_sra_cg_cp_rd_b31>:
I_sra_cg_cp_rd_b31:
  sra x31, x27, x30 # perform operation
    1108:	41eddfb3          	sra	x31,x27,x30
  # Check if x31 contains the expected result. x1 is the signature ptr, x5 is the link ptr, x4 is a temp reg.
  RVTEST_SIGUPD(x1, x5, x4, x31, I_sra_cg_cp_rd_b31, I_sra_cg_cp_rd_b31_str)
    110c:	0000a203          	lw	x4,0(x1)
    1110:	01f20863          	beq	x4,x31,1120 <I_sra_cg_cp_rd_b31+0x18>
    1114:	3a8032ef          	jal	x5,44bc <failedtest_x5_x4>
    1118:	00001108          	.word	0x00001108
    111c:	00009e7b          	.word	0x00009e7b
    1120:	00408093          	addi	x1,x1,4
/////////////////////////////////
// cp_rs1_edges
/////////////////////////////////

# Testcase cp_rs1_edges (Test source rs1 value = 0x00000000)
  RVTEST_TESTDATA_LOAD_INT(x23, x26) # load rs1: x26 = 0x00000000
    1124:	000bad03          	lw	x26,0(x23)
    1128:	004b8b93          	addi	x23,x23,4
  RVTEST_TESTDATA_LOAD_INT(x23, x25) # load rs2: x25 = 0x017fe542
    112c:	000bac83          	lw	x25,0(x23)
    1130:	004b8b93          	addi	x23,x23,4

00001134 <I_sra_cg_cp_rs1_edges_0x0>:
I_sra_cg_cp_rs1_edges_0x0:
  sra x2, x26, x25 # perform operation
    1134:	419d5133          	sra	x2,x26,x25
  # Check if x2 contains the expected result. x1 is the signature ptr, x5 is the link ptr, x4 is a temp reg.
  RVTEST_SIGUPD(x1, x5, x4, x2, I_sra_cg_cp_rs1_edges_0x0, I_sra_cg_cp_rs1_edges_0x0_str)
    1138:	0000a203          	lw	x4,0(x1)
    113c:	00220863          	beq	x4,x2,114c <I_sra_cg_cp_rs1_edges_0x0+0x18>
    1140:	37c032ef          	jal	x5,44bc <failedtest_x5_x4>
    1144:	00001134          	.word	0x00001134
    1148:	00009ea9          	.word	0x00009ea9
    114c:	00408093          	addi	x1,x1,4

# Testcase cp_rs1_edges (Test source rs1 value = 0x00000001)
  RVTEST_TESTDATA_LOAD_INT(x23, x18) # load rs1: x18 = 0x00000001
    1150:	000ba903          	lw	x18,0(x23)
    1154:	004b8b93          	addi	x23,x23,4
  RVTEST_TESTDATA_LOAD_INT(x23, x17) # load rs2: x17 = 0x2db8d366
    1158:	000ba883          	lw	x17,0(x23)
    115c:	004b8b93          	addi	x23,x23,4

00001160 <I_sra_cg_cp_rs1_edges_0x1>:
I_sra_cg_cp_rs1_edges_0x1:
  sra x26, x18, x17 # perform operation
    1160:	41195d33          	sra	x26,x18,x17
  # Check if x26 contains the expected result. x1 is the signature ptr, x5 is the link ptr, x4 is a temp reg.
  RVTEST_SIGUPD(x1, x5, x4, x26, I_sra_cg_cp_rs1_edges_0x1, I_sra_cg_cp_rs1_edges_0x1_str)
    1164:	0000a203          	lw	x4,0(x1)
    1168:	01a20863          	beq	x4,x26,1178 <I_sra_cg_cp_rs1_edges_0x1+0x18>
    116c:	350032ef          	jal	x5,44bc <failedtest_x5_x4>
    1170:	00001160          	.word	0x00001160
    1174:	00009ede          	.word	0x00009ede
    1178:	00408093          	addi	x1,x1,4

# Testcase cp_rs1_edges (Test source rs1 value = 0x00000002)
  RVTEST_TESTDATA_LOAD_INT(x23, x16) # load rs1: x16 = 0x00000002
    117c:	000ba803          	lw	x16,0(x23)
    1180:	004b8b93          	addi	x23,x23,4
  RVTEST_TESTDATA_LOAD_INT(x23, x21) # load rs2: x21 = 0xe103c82c
    1184:	000baa83          	lw	x21,0(x23)
    1188:	004b8b93          	addi	x23,x23,4

0000118c <I_sra_cg_cp_rs1_edges_0x2>:
I_sra_cg_cp_rs1_edges_0x2:
  sra x13, x16, x21 # perform operation
    118c:	415856b3          	sra	x13,x16,x21
  # Check if x13 contains the expected result. x1 is the signature ptr, x5 is the link ptr, x4 is a temp reg.
  RVTEST_SIGUPD(x1, x5, x4, x13, I_sra_cg_cp_rs1_edges_0x2, I_sra_cg_cp_rs1_edges_0x2_str)
    1190:	0000a203          	lw	x4,0(x1)
    1194:	00d20863          	beq	x4,x13,11a4 <I_sra_cg_cp_rs1_edges_0x2+0x18>
    1198:	324032ef          	jal	x5,44bc <failedtest_x5_x4>
    119c:	0000118c          	.word	0x0000118c
    11a0:	00009f13          	.word	0x00009f13
    11a4:	00408093          	addi	x1,x1,4

# Testcase cp_rs1_edges (Test source rs1 value = 0x80000000)
  RVTEST_TESTDATA_LOAD_INT(x23, x15) # load rs1: x15 = 0x80000000
    11a8:	000ba783          	lw	x15,0(x23)
    11ac:	004b8b93          	addi	x23,x23,4
  RVTEST_TESTDATA_LOAD_INT(x23, x13) # load rs2: x13 = 0xfcc5e93f
    11b0:	000ba683          	lw	x13,0(x23)
    11b4:	004b8b93          	addi	x23,x23,4

000011b8 <I_sra_cg_cp_rs1_edges_0x80000000>:
I_sra_cg_cp_rs1_edges_0x80000000:
  sra x10, x15, x13 # perform operation
    11b8:	40d7d533          	sra	x10,x15,x13
  # Check if x10 contains the expected result. x1 is the signature ptr, x5 is the link ptr, x4 is a temp reg.
  RVTEST_SIGUPD(x1, x5, x4, x10, I_sra_cg_cp_rs1_edges_0x80000000, I_sra_cg_cp_rs1_edges_0x80000000_str)
    11bc:	0000a203          	lw	x4,0(x1)
    11c0:	00a20863          	beq	x4,x10,11d0 <I_sra_cg_cp_rs1_edges_0x80000000+0x18>
    11c4:	2f8032ef          	jal	x5,44bc <failedtest_x5_x4>
    11c8:	000011b8          	.word	0x000011b8
    11cc:	00009f48          	.word	0x00009f48
    11d0:	00408093          	addi	x1,x1,4

# Testcase cp_rs1_edges (Test source rs1 value = 0x80000001)
  RVTEST_TESTDATA_LOAD_INT(x23, x26) # load rs1: x26 = 0x80000001
    11d4:	000bad03          	lw	x26,0(x23)
    11d8:	004b8b93          	addi	x23,x23,4
  RVTEST_TESTDATA_LOAD_INT(x23, x24) # load rs2: x24 = 0x2b4f6150
    11dc:	000bac03          	lw	x24,0(x23)
    11e0:	004b8b93          	addi	x23,x23,4

000011e4 <I_sra_cg_cp_rs1_edges_0x80000001>:
I_sra_cg_cp_rs1_edges_0x80000001:
  sra x3, x26, x24 # perform operation
    11e4:	418d51b3          	sra	x3,x26,x24
  # Check if x3 contains the expected result. x1 is the signature ptr, x5 is the link ptr, x4 is a temp reg.
  RVTEST_SIGUPD(x1, x5, x4, x3, I_sra_cg_cp_rs1_edges_0x80000001, I_sra_cg_cp_rs1_edges_0x80000001_str)
    11e8:	0000a203          	lw	x4,0(x1)
    11ec:	00320863          	beq	x4,x3,11fc <I_sra_cg_cp_rs1_edges_0x80000001+0x18>
    11f0:	2cc032ef          	jal	x5,44bc <failedtest_x5_x4>
    11f4:	000011e4          	.word	0x000011e4
    11f8:	00009f85          	.word	0x00009f85
    11fc:	00408093          	addi	x1,x1,4

# Testcase cp_rs1_edges (Test source rs1 value = 0x7fffffff)
  RVTEST_TESTDATA_LOAD_INT(x23, x20) # load rs1: x20 = 0x7fffffff
    1200:	000baa03          	lw	x20,0(x23)
    1204:	004b8b93          	addi	x23,x23,4
  RVTEST_TESTDATA_LOAD_INT(x23, x15) # load rs2: x15 = 0x1a21e350
    1208:	000ba783          	lw	x15,0(x23)
    120c:	004b8b93          	addi	x23,x23,4

00001210 <I_sra_cg_cp_rs1_edges_0x7fffffff>:
I_sra_cg_cp_rs1_edges_0x7fffffff:
  sra x27, x20, x15 # perform operation
    1210:	40fa5db3          	sra	x27,x20,x15
  # Check if x27 contains the expected result. x1 is the signature ptr, x5 is the link ptr, x4 is a temp reg.
  RVTEST_SIGUPD(x1, x5, x4, x27, I_sra_cg_cp_rs1_edges_0x7fffffff, I_sra_cg_cp_rs1_edges_0x7fffffff_str)
    1214:	0000a203          	lw	x4,0(x1)
    1218:	01b20863          	beq	x4,x27,1228 <I_sra_cg_cp_rs1_edges_0x7fffffff+0x18>
    121c:	2a0032ef          	jal	x5,44bc <failedtest_x5_x4>
    1220:	00001210          	.word	0x00001210
    1224:	00009fc2          	.word	0x00009fc2
    1228:	00408093          	addi	x1,x1,4

# Testcase cp_rs1_edges (Test source rs1 value = 0x7ffffffe)
  RVTEST_TESTDATA_LOAD_INT(x23, x21) # load rs1: x21 = 0x7ffffffe
    122c:	000baa83          	lw	x21,0(x23)
    1230:	004b8b93          	addi	x23,x23,4
  RVTEST_TESTDATA_LOAD_INT(x23, x10) # load rs2: x10 = 0xe87a57a6
    1234:	000ba503          	lw	x10,0(x23)
    1238:	004b8b93          	addi	x23,x23,4

0000123c <I_sra_cg_cp_rs1_edges_0x7ffffffe>:
I_sra_cg_cp_rs1_edges_0x7ffffffe:
  sra x22, x21, x10 # perform operation
    123c:	40aadb33          	sra	x22,x21,x10
  # Check if x22 contains the expected result. x1 is the signature ptr, x5 is the link ptr, x4 is a temp reg.
  RVTEST_SIGUPD(x1, x5, x4, x22, I_sra_cg_cp_rs1_edges_0x7ffffffe, I_sra_cg_cp_rs1_edges_0x7ffffffe_str)
    1240:	0000a203          	lw	x4,0(x1)
    1244:	01620863          	beq	x4,x22,1254 <I_sra_cg_cp_rs1_edges_0x7ffffffe+0x18>
    1248:	274032ef          	jal	x5,44bc <failedtest_x5_x4>
    124c:	0000123c          	.word	0x0000123c
    1250:	00009fff          	.word	0x00009fff
    1254:	00408093          	addi	x1,x1,4

# Testcase cp_rs1_edges (Test source rs1 value = 0xffffffff)
  RVTEST_TESTDATA_LOAD_INT(x23, x27) # load rs1: x27 = 0xffffffff
    1258:	000bad83          	lw	x27,0(x23)
    125c:	004b8b93          	addi	x23,x23,4
  RVTEST_TESTDATA_LOAD_INT(x23, x24) # load rs2: x24 = 0xeee98bbc
    1260:	000bac03          	lw	x24,0(x23)
    1264:	004b8b93          	addi	x23,x23,4

00001268 <I_sra_cg_cp_rs1_edges_0xffffffff>:
I_sra_cg_cp_rs1_edges_0xffffffff:
  sra x3, x27, x24 # perform operation
    1268:	418dd1b3          	sra	x3,x27,x24
  # Check if x3 contains the expected result. x1 is the signature ptr, x5 is the link ptr, x4 is a temp reg.
  RVTEST_SIGUPD(x1, x5, x4, x3, I_sra_cg_cp_rs1_edges_0xffffffff, I_sra_cg_cp_rs1_edges_0xffffffff_str)
    126c:	0000a203          	lw	x4,0(x1)
    1270:	00320863          	beq	x4,x3,1280 <I_sra_cg_cp_rs1_edges_0xffffffff+0x18>
    1274:	248032ef          	jal	x5,44bc <failedtest_x5_x4>
    1278:	00001268          	.word	0x00001268
    127c:	0000a03c          	.word	0x0000a03c
    1280:	00408093          	addi	x1,x1,4

# Testcase cp_rs1_edges (Test source rs1 value = 0xfffffffe)
  RVTEST_TESTDATA_LOAD_INT(x23, x6) # load rs1: x6 = 0xfffffffe
    1284:	000ba303          	lw	x6,0(x23)
    1288:	004b8b93          	addi	x23,x23,4
  RVTEST_TESTDATA_LOAD_INT(x23, x25) # load rs2: x25 = 0x1e50e837
    128c:	000bac83          	lw	x25,0(x23)
    1290:	004b8b93          	addi	x23,x23,4

00001294 <I_sra_cg_cp_rs1_edges_0xfffffffe>:
I_sra_cg_cp_rs1_edges_0xfffffffe:
  sra x11, x6, x25 # perform operation
    1294:	419355b3          	sra	x11,x6,x25
  # Check if x11 contains the expected result. x1 is the signature ptr, x5 is the link ptr, x4 is a temp reg.
  RVTEST_SIGUPD(x1, x5, x4, x11, I_sra_cg_cp_rs1_edges_0xfffffffe, I_sra_cg_cp_rs1_edges_0xfffffffe_str)
    1298:	0000a203          	lw	x4,0(x1)
    129c:	00b20863          	beq	x4,x11,12ac <I_sra_cg_cp_rs1_edges_0xfffffffe+0x18>
    12a0:	21c032ef          	jal	x5,44bc <failedtest_x5_x4>
    12a4:	00001294          	.word	0x00001294
    12a8:	0000a079          	.word	0x0000a079
    12ac:	00408093          	addi	x1,x1,4

# Testcase cp_rs1_edges (Test source rs1 value = 0x5bbc8872)
  RVTEST_TESTDATA_LOAD_INT(x23, x24) # load rs1: x24 = 0x5bbc8872
    12b0:	000bac03          	lw	x24,0(x23)
    12b4:	004b8b93          	addi	x23,x23,4
  RVTEST_TESTDATA_LOAD_INT(x23, x8) # load rs2: x8 = 0xfa8db5f1
    12b8:	000ba403          	lw	x8,0(x23)
    12bc:	004b8b93          	addi	x23,x23,4

000012c0 <I_sra_cg_cp_rs1_edges_0x5bbc8872>:
I_sra_cg_cp_rs1_edges_0x5bbc8872:
  sra x18, x24, x8 # perform operation
    12c0:	408c5933          	sra	x18,x24,x8
  # Check if x18 contains the expected result. x1 is the signature ptr, x5 is the link ptr, x4 is a temp reg.
  RVTEST_SIGUPD(x1, x5, x4, x18, I_sra_cg_cp_rs1_edges_0x5bbc8872, I_sra_cg_cp_rs1_edges_0x5bbc8872_str)
    12c4:	0000a203          	lw	x4,0(x1)
    12c8:	01220863          	beq	x4,x18,12d8 <I_sra_cg_cp_rs1_edges_0x5bbc8872+0x18>
    12cc:	1f0032ef          	jal	x5,44bc <failedtest_x5_x4>
    12d0:	000012c0          	.word	0x000012c0
    12d4:	0000a0b6          	.word	0x0000a0b6
    12d8:	00408093          	addi	x1,x1,4

# Testcase cp_rs1_edges (Test source rs1 value = 0xaaaaaaaa)
  RVTEST_TESTDATA_LOAD_INT(x23, x26) # load rs1: x26 = 0xaaaaaaaa
    12dc:	000bad03          	lw	x26,0(x23)
    12e0:	004b8b93          	addi	x23,x23,4
  RVTEST_TESTDATA_LOAD_INT(x23, x25) # load rs2: x25 = 0xa1b43bb1
    12e4:	000bac83          	lw	x25,0(x23)
    12e8:	004b8b93          	addi	x23,x23,4

000012ec <I_sra_cg_cp_rs1_edges_0xaaaaaaaa>:
I_sra_cg_cp_rs1_edges_0xaaaaaaaa:
  sra x29, x26, x25 # perform operation
    12ec:	419d5eb3          	sra	x29,x26,x25
  # Check if x29 contains the expected result. x1 is the signature ptr, x5 is the link ptr, x4 is a temp reg.
  RVTEST_SIGUPD(x1, x5, x4, x29, I_sra_cg_cp_rs1_edges_0xaaaaaaaa, I_sra_cg_cp_rs1_edges_0xaaaaaaaa_str)
    12f0:	0000a203          	lw	x4,0(x1)
    12f4:	01d20863          	beq	x4,x29,1304 <I_sra_cg_cp_rs1_edges_0xaaaaaaaa+0x18>
    12f8:	1c4032ef          	jal	x5,44bc <failedtest_x5_x4>
    12fc:	000012ec          	.word	0x000012ec
    1300:	0000a0f3          	.word	0x0000a0f3
    1304:	00408093          	addi	x1,x1,4

# Testcase cp_rs1_edges (Test source rs1 value = 0x55555555)
  RVTEST_TESTDATA_LOAD_INT(x23, x28) # load rs1: x28 = 0x55555555
    1308:	000bae03          	lw	x28,0(x23)
    130c:	004b8b93          	addi	x23,x23,4
  RVTEST_TESTDATA_LOAD_INT(x23, x16) # load rs2: x16 = 0x44336d0f
    1310:	000ba803          	lw	x16,0(x23)
    1314:	004b8b93          	addi	x23,x23,4

00001318 <I_sra_cg_cp_rs1_edges_0x55555555>:
I_sra_cg_cp_rs1_edges_0x55555555:
  sra x10, x28, x16 # perform operation
    1318:	410e5533          	sra	x10,x28,x16
  # Check if x10 contains the expected result. x1 is the signature ptr, x5 is the link ptr, x4 is a temp reg.
  RVTEST_SIGUPD(x1, x5, x4, x10, I_sra_cg_cp_rs1_edges_0x55555555, I_sra_cg_cp_rs1_edges_0x55555555_str)
    131c:	0000a203          	lw	x4,0(x1)
    1320:	00a20863          	beq	x4,x10,1330 <I_sra_cg_cp_rs1_edges_0x55555555+0x18>
    1324:	198032ef          	jal	x5,44bc <failedtest_x5_x4>
    1328:	00001318          	.word	0x00001318
    132c:	0000a130          	.word	0x0000a130
    1330:	00408093          	addi	x1,x1,4
/////////////////////////////////
// cp_rs2_edges
/////////////////////////////////

# Testcase cp_rs2_edges (Test source rs2 value = 0x00000000)
  RVTEST_TESTDATA_LOAD_INT(x23, x27) # load rs1: x27 = 0xe7c9af15
    1334:	000bad83          	lw	x27,0(x23)
    1338:	004b8b93          	addi	x23,x23,4
  RVTEST_TESTDATA_LOAD_INT(x23, x29) # load rs2: x29 = 0x00000000
    133c:	000bae83          	lw	x29,0(x23)
    1340:	004b8b93          	addi	x23,x23,4

00001344 <I_sra_cg_cp_rs2_edges_0x0>:
I_sra_cg_cp_rs2_edges_0x0:
  sra x16, x27, x29 # perform operation
    1344:	41ddd833          	sra	x16,x27,x29
  # Check if x16 contains the expected result. x1 is the signature ptr, x5 is the link ptr, x4 is a temp reg.
  RVTEST_SIGUPD(x1, x5, x4, x16, I_sra_cg_cp_rs2_edges_0x0, I_sra_cg_cp_rs2_edges_0x0_str)
    1348:	0000a203          	lw	x4,0(x1)
    134c:	01020863          	beq	x4,x16,135c <I_sra_cg_cp_rs2_edges_0x0+0x18>
    1350:	16c032ef          	jal	x5,44bc <failedtest_x5_x4>
    1354:	00001344          	.word	0x00001344
    1358:	0000a16d          	.word	0x0000a16d
    135c:	00408093          	addi	x1,x1,4

# Testcase cp_rs2_edges (Test source rs2 value = 0x00000001)
  RVTEST_TESTDATA_LOAD_INT(x23, x25) # load rs1: x25 = 0x2ad00e8f
    1360:	000bac83          	lw	x25,0(x23)
    1364:	004b8b93          	addi	x23,x23,4
  RVTEST_TESTDATA_LOAD_INT(x23, x29) # load rs2: x29 = 0x00000001
    1368:	000bae83          	lw	x29,0(x23)
    136c:	004b8b93          	addi	x23,x23,4

00001370 <I_sra_cg_cp_rs2_edges_0x1>:
I_sra_cg_cp_rs2_edges_0x1:
  sra x31, x25, x29 # perform operation
    1370:	41dcdfb3          	sra	x31,x25,x29
  # Check if x31 contains the expected result. x1 is the signature ptr, x5 is the link ptr, x4 is a temp reg.
  RVTEST_SIGUPD(x1, x5, x4, x31, I_sra_cg_cp_rs2_edges_0x1, I_sra_cg_cp_rs2_edges_0x1_str)
    1374:	0000a203          	lw	x4,0(x1)
    1378:	01f20863          	beq	x4,x31,1388 <I_sra_cg_cp_rs2_edges_0x1+0x18>
    137c:	140032ef          	jal	x5,44bc <failedtest_x5_x4>
    1380:	00001370          	.word	0x00001370
    1384:	0000a1a3          	.word	0x0000a1a3
    1388:	00408093          	addi	x1,x1,4

# Testcase cp_rs2_edges (Test source rs2 value = 0x00000002)
  RVTEST_TESTDATA_LOAD_INT(x23, x28) # load rs1: x28 = 0xceac4450
    138c:	000bae03          	lw	x28,0(x23)
    1390:	004b8b93          	addi	x23,x23,4
  RVTEST_TESTDATA_LOAD_INT(x23, x24) # load rs2: x24 = 0x00000002
    1394:	000bac03          	lw	x24,0(x23)
    1398:	004b8b93          	addi	x23,x23,4

0000139c <I_sra_cg_cp_rs2_edges_0x2>:
I_sra_cg_cp_rs2_edges_0x2:
  sra x27, x28, x24 # perform operation
    139c:	418e5db3          	sra	x27,x28,x24
  # Check if x27 contains the expected result. x1 is the signature ptr, x5 is the link ptr, x4 is a temp reg.
  RVTEST_SIGUPD(x1, x5, x4, x27, I_sra_cg_cp_rs2_edges_0x2, I_sra_cg_cp_rs2_edges_0x2_str)
    13a0:	0000a203          	lw	x4,0(x1)
    13a4:	01b20863          	beq	x4,x27,13b4 <I_sra_cg_cp_rs2_edges_0x2+0x18>
    13a8:	114032ef          	jal	x5,44bc <failedtest_x5_x4>
    13ac:	0000139c          	.word	0x0000139c
    13b0:	0000a1d9          	.word	0x0000a1d9
    13b4:	00408093          	addi	x1,x1,4

# Testcase cp_rs2_edges (Test source rs2 value = 0x80000000)
  RVTEST_TESTDATA_LOAD_INT(x23, x24) # load rs1: x24 = 0xa76e103e
    13b8:	000bac03          	lw	x24,0(x23)
    13bc:	004b8b93          	addi	x23,x23,4
  RVTEST_TESTDATA_LOAD_INT(x23, x9) # load rs2: x9 = 0x80000000
    13c0:	000ba483          	lw	x9,0(x23)
    13c4:	004b8b93          	addi	x23,x23,4

000013c8 <I_sra_cg_cp_rs2_edges_0x80000000>:
I_sra_cg_cp_rs2_edges_0x80000000:
  sra x21, x24, x9 # perform operation
    13c8:	409c5ab3          	sra	x21,x24,x9
  # Check if x21 contains the expected result. x1 is the signature ptr, x5 is the link ptr, x4 is a temp reg.
  RVTEST_SIGUPD(x1, x5, x4, x21, I_sra_cg_cp_rs2_edges_0x80000000, I_sra_cg_cp_rs2_edges_0x80000000_str)
    13cc:	0000a203          	lw	x4,0(x1)
    13d0:	01520863          	beq	x4,x21,13e0 <I_sra_cg_cp_rs2_edges_0x80000000+0x18>
    13d4:	0e8032ef          	jal	x5,44bc <failedtest_x5_x4>
    13d8:	000013c8          	.word	0x000013c8
    13dc:	0000a20f          	.word	0x0000a20f
    13e0:	00408093          	addi	x1,x1,4

# Testcase cp_rs2_edges (Test source rs2 value = 0x80000001)
  RVTEST_TESTDATA_LOAD_INT(x23, x14) # load rs1: x14 = 0x9b40f071
    13e4:	000ba703          	lw	x14,0(x23)
    13e8:	004b8b93          	addi	x23,x23,4
  RVTEST_TESTDATA_LOAD_INT(x23, x9) # load rs2: x9 = 0x80000001
    13ec:	000ba483          	lw	x9,0(x23)
    13f0:	004b8b93          	addi	x23,x23,4

000013f4 <I_sra_cg_cp_rs2_edges_0x80000001>:
I_sra_cg_cp_rs2_edges_0x80000001:
  sra x11, x14, x9 # perform operation
    13f4:	409755b3          	sra	x11,x14,x9
  # Check if x11 contains the expected result. x1 is the signature ptr, x5 is the link ptr, x4 is a temp reg.
  RVTEST_SIGUPD(x1, x5, x4, x11, I_sra_cg_cp_rs2_edges_0x80000001, I_sra_cg_cp_rs2_edges_0x80000001_str)
    13f8:	0000a203          	lw	x4,0(x1)
    13fc:	00b20863          	beq	x4,x11,140c <I_sra_cg_cp_rs2_edges_0x80000001+0x18>
    1400:	0bc032ef          	jal	x5,44bc <failedtest_x5_x4>
    1404:	000013f4          	.word	0x000013f4
    1408:	0000a24c          	.word	0x0000a24c
    140c:	00408093          	addi	x1,x1,4

# Testcase cp_rs2_edges (Test source rs2 value = 0x7fffffff)
  RVTEST_TESTDATA_LOAD_INT(x23, x17) # load rs1: x17 = 0xe47170b6
    1410:	000ba883          	lw	x17,0(x23)
    1414:	004b8b93          	addi	x23,x23,4
  RVTEST_TESTDATA_LOAD_INT(x23, x11) # load rs2: x11 = 0x7fffffff
    1418:	000ba583          	lw	x11,0(x23)
    141c:	004b8b93          	addi	x23,x23,4

00001420 <I_sra_cg_cp_rs2_edges_0x7fffffff>:
I_sra_cg_cp_rs2_edges_0x7fffffff:
  sra x21, x17, x11 # perform operation
    1420:	40b8dab3          	sra	x21,x17,x11
  # Check if x21 contains the expected result. x1 is the signature ptr, x5 is the link ptr, x4 is a temp reg.
  RVTEST_SIGUPD(x1, x5, x4, x21, I_sra_cg_cp_rs2_edges_0x7fffffff, I_sra_cg_cp_rs2_edges_0x7fffffff_str)
    1424:	0000a203          	lw	x4,0(x1)
    1428:	01520863          	beq	x4,x21,1438 <I_sra_cg_cp_rs2_edges_0x7fffffff+0x18>
    142c:	090032ef          	jal	x5,44bc <failedtest_x5_x4>
    1430:	00001420          	.word	0x00001420
    1434:	0000a289          	.word	0x0000a289
    1438:	00408093          	addi	x1,x1,4

# Testcase cp_rs2_edges (Test source rs2 value = 0x7ffffffe)
  RVTEST_TESTDATA_LOAD_INT(x23, x13) # load rs1: x13 = 0x5a6c0cef
    143c:	000ba683          	lw	x13,0(x23)
    1440:	004b8b93          	addi	x23,x23,4
  RVTEST_TESTDATA_LOAD_INT(x23, x12) # load rs2: x12 = 0x7ffffffe
    1444:	000ba603          	lw	x12,0(x23)
    1448:	004b8b93          	addi	x23,x23,4

0000144c <I_sra_cg_cp_rs2_edges_0x7ffffffe>:
I_sra_cg_cp_rs2_edges_0x7ffffffe:
  sra x30, x13, x12 # perform operation
    144c:	40c6df33          	sra	x30,x13,x12
  # Check if x30 contains the expected result. x1 is the signature ptr, x5 is the link ptr, x4 is a temp reg.
  RVTEST_SIGUPD(x1, x5, x4, x30, I_sra_cg_cp_rs2_edges_0x7ffffffe, I_sra_cg_cp_rs2_edges_0x7ffffffe_str)
    1450:	0000a203          	lw	x4,0(x1)
    1454:	01e20863          	beq	x4,x30,1464 <I_sra_cg_cp_rs2_edges_0x7ffffffe+0x18>
    1458:	064032ef          	jal	x5,44bc <failedtest_x5_x4>
    145c:	0000144c          	.word	0x0000144c
    1460:	0000a2c6          	.word	0x0000a2c6
    1464:	00408093          	addi	x1,x1,4

# Testcase cp_rs2_edges (Test source rs2 value = 0xffffffff)
  RVTEST_TESTDATA_LOAD_INT(x23, x11) # load rs1: x11 = 0x46fcee21
    1468:	000ba583          	lw	x11,0(x23)
    146c:	004b8b93          	addi	x23,x23,4
  RVTEST_TESTDATA_LOAD_INT(x23, x13) # load rs2: x13 = 0xffffffff
    1470:	000ba683          	lw	x13,0(x23)
    1474:	004b8b93          	addi	x23,x23,4

00001478 <I_sra_cg_cp_rs2_edges_0xffffffff>:
I_sra_cg_cp_rs2_edges_0xffffffff:
  sra x10, x11, x13 # perform operation
    1478:	40d5d533          	sra	x10,x11,x13
  # Check if x10 contains the expected result. x1 is the signature ptr, x5 is the link ptr, x4 is a temp reg.
  RVTEST_SIGUPD(x1, x5, x4, x10, I_sra_cg_cp_rs2_edges_0xffffffff, I_sra_cg_cp_rs2_edges_0xffffffff_str)
    147c:	0000a203          	lw	x4,0(x1)
    1480:	00a20863          	beq	x4,x10,1490 <I_sra_cg_cp_rs2_edges_0xffffffff+0x18>
    1484:	038032ef          	jal	x5,44bc <failedtest_x5_x4>
    1488:	00001478          	.word	0x00001478
    148c:	0000a303          	.word	0x0000a303
    1490:	00408093          	addi	x1,x1,4

# Testcase cp_rs2_edges (Test source rs2 value = 0xfffffffe)
  RVTEST_TESTDATA_LOAD_INT(x23, x11) # load rs1: x11 = 0x9740d3e9
    1494:	000ba583          	lw	x11,0(x23)
    1498:	004b8b93          	addi	x23,x23,4
  RVTEST_TESTDATA_LOAD_INT(x23, x6) # load rs2: x6 = 0xfffffffe
    149c:	000ba303          	lw	x6,0(x23)
    14a0:	004b8b93          	addi	x23,x23,4

000014a4 <I_sra_cg_cp_rs2_edges_0xfffffffe>:
I_sra_cg_cp_rs2_edges_0xfffffffe:
  sra x20, x11, x6 # perform operation
    14a4:	4065da33          	sra	x20,x11,x6
  # Check if x20 contains the expected result. x1 is the signature ptr, x5 is the link ptr, x4 is a temp reg.
  RVTEST_SIGUPD(x1, x5, x4, x20, I_sra_cg_cp_rs2_edges_0xfffffffe, I_sra_cg_cp_rs2_edges_0xfffffffe_str)
    14a8:	0000a203          	lw	x4,0(x1)
    14ac:	01420863          	beq	x4,x20,14bc <I_sra_cg_cp_rs2_edges_0xfffffffe+0x18>
    14b0:	00c032ef          	jal	x5,44bc <failedtest_x5_x4>
    14b4:	000014a4          	.word	0x000014a4
    14b8:	0000a340          	.word	0x0000a340
    14bc:	00408093          	addi	x1,x1,4

# Testcase cp_rs2_edges (Test source rs2 value = 0x5bbc8872)
  RVTEST_TESTDATA_LOAD_INT(x23, x19) # load rs1: x19 = 0xfcb6e454
    14c0:	000ba983          	lw	x19,0(x23)
    14c4:	004b8b93          	addi	x23,x23,4
  RVTEST_TESTDATA_LOAD_INT(x23, x8) # load rs2: x8 = 0x5bbc8872
    14c8:	000ba403          	lw	x8,0(x23)
    14cc:	004b8b93          	addi	x23,x23,4

000014d0 <I_sra_cg_cp_rs2_edges_0x5bbc8872>:
I_sra_cg_cp_rs2_edges_0x5bbc8872:
  sra x31, x19, x8 # perform operation
    14d0:	4089dfb3          	sra	x31,x19,x8
  # Check if x31 contains the expected result. x1 is the signature ptr, x5 is the link ptr, x4 is a temp reg.
  RVTEST_SIGUPD(x1, x5, x4, x31, I_sra_cg_cp_rs2_edges_0x5bbc8872, I_sra_cg_cp_rs2_edges_0x5bbc8872_str)
    14d4:	0000a203          	lw	x4,0(x1)
    14d8:	01f20863          	beq	x4,x31,14e8 <I_sra_cg_cp_rs2_edges_0x5bbc8872+0x18>
    14dc:	7e1022ef          	jal	x5,44bc <failedtest_x5_x4>
    14e0:	000014d0          	.word	0x000014d0
    14e4:	0000a37d          	.word	0x0000a37d
    14e8:	00408093          	addi	x1,x1,4

# Testcase cp_rs2_edges (Test source rs2 value = 0xaaaaaaaa)
  RVTEST_TESTDATA_LOAD_INT(x23, x21) # load rs1: x21 = 0x6ffe548d
    14ec:	000baa83          	lw	x21,0(x23)
    14f0:	004b8b93          	addi	x23,x23,4
  RVTEST_TESTDATA_LOAD_INT(x23, x11) # load rs2: x11 = 0xaaaaaaaa
    14f4:	000ba583          	lw	x11,0(x23)
    14f8:	004b8b93          	addi	x23,x23,4

000014fc <I_sra_cg_cp_rs2_edges_0xaaaaaaaa>:
I_sra_cg_cp_rs2_edges_0xaaaaaaaa:
  sra x14, x21, x11 # perform operation
    14fc:	40bad733          	sra	x14,x21,x11
  # Check if x14 contains the expected result. x1 is the signature ptr, x5 is the link ptr, x4 is a temp reg.
  RVTEST_SIGUPD(x1, x5, x4, x14, I_sra_cg_cp_rs2_edges_0xaaaaaaaa, I_sra_cg_cp_rs2_edges_0xaaaaaaaa_str)
    1500:	0000a203          	lw	x4,0(x1)
    1504:	00e20863          	beq	x4,x14,1514 <I_sra_cg_cp_rs2_edges_0xaaaaaaaa+0x18>
    1508:	7b5022ef          	jal	x5,44bc <failedtest_x5_x4>
    150c:	000014fc          	.word	0x000014fc
    1510:	0000a3ba          	.word	0x0000a3ba
    1514:	00408093          	addi	x1,x1,4

# Testcase cp_rs2_edges (Test source rs2 value = 0x55555555)
  RVTEST_TESTDATA_LOAD_INT(x23, x7) # load rs1: x7 = 0x69949a47
    1518:	000ba383          	lw	x7,0(x23)
    151c:	004b8b93          	addi	x23,x23,4
  RVTEST_TESTDATA_LOAD_INT(x23, x17) # load rs2: x17 = 0x55555555
    1520:	000ba883          	lw	x17,0(x23)
    1524:	004b8b93          	addi	x23,x23,4

00001528 <I_sra_cg_cp_rs2_edges_0x55555555>:
I_sra_cg_cp_rs2_edges_0x55555555:
  sra x10, x7, x17 # perform operation
    1528:	4113d533          	sra	x10,x7,x17
  # Check if x10 contains the expected result. x1 is the signature ptr, x5 is the link ptr, x4 is a temp reg.
  RVTEST_SIGUPD(x1, x5, x4, x10, I_sra_cg_cp_rs2_edges_0x55555555, I_sra_cg_cp_rs2_edges_0x55555555_str)
    152c:	0000a203          	lw	x4,0(x1)
    1530:	00a20863          	beq	x4,x10,1540 <I_sra_cg_cp_rs2_edges_0x55555555+0x18>
    1534:	789022ef          	jal	x5,44bc <failedtest_x5_x4>
    1538:	00001528          	.word	0x00001528
    153c:	0000a3f7          	.word	0x0000a3f7
    1540:	00408093          	addi	x1,x1,4
/////////////////////////////////
// cr_rs1_rs2_edges
/////////////////////////////////

# Testcase cr_rs1_rs2_edges (Test source rs1 = 0x00000000 rs2 = 0x00000000)
  RVTEST_TESTDATA_LOAD_INT(x23, x26) # load rs1: x26 = 0x00000000
    1544:	000bad03          	lw	x26,0(x23)
    1548:	004b8b93          	addi	x23,x23,4
  RVTEST_TESTDATA_LOAD_INT(x23, x3) # load rs2: x3 = 0x00000000
    154c:	000ba183          	lw	x3,0(x23)
    1550:	004b8b93          	addi	x23,x23,4

00001554 <I_sra_cg_cr_rs1_rs2_edges_rs1val_0x0_rs2val_0x0>:
I_sra_cg_cr_rs1_rs2_edges_rs1val_0x0_rs2val_0x0:
  sra x2, x26, x3 # perform operation
    1554:	403d5133          	sra	x2,x26,x3
  # Check if x2 contains the expected result. x1 is the signature ptr, x5 is the link ptr, x4 is a temp reg.
  RVTEST_SIGUPD(x1, x5, x4, x2, I_sra_cg_cr_rs1_rs2_edges_rs1val_0x0_rs2val_0x0, I_sra_cg_cr_rs1_rs2_edges_rs1val_0x0_rs2val_0x0_str)
    1558:	0000a203          	lw	x4,0(x1)
    155c:	00220863          	beq	x4,x2,156c <I_sra_cg_cr_rs1_rs2_edges_rs1val_0x0_rs2val_0x0+0x18>
    1560:	75d022ef          	jal	x5,44bc <failedtest_x5_x4>
    1564:	00001554          	.word	0x00001554
    1568:	0000a434          	.word	0x0000a434
    156c:	00408093          	addi	x1,x1,4

# Testcase cr_rs1_rs2_edges (Test source rs1 = 0x00000000 rs2 = 0x00000001)
  RVTEST_TESTDATA_LOAD_INT(x23, x30) # load rs1: x30 = 0x00000000
    1570:	000baf03          	lw	x30,0(x23)
    1574:	004b8b93          	addi	x23,x23,4
  RVTEST_TESTDATA_LOAD_INT(x23, x9) # load rs2: x9 = 0x00000001
    1578:	000ba483          	lw	x9,0(x23)
    157c:	004b8b93          	addi	x23,x23,4

00001580 <I_sra_cg_cr_rs1_rs2_edges_rs1val_0x0_rs2val_0x1>:
I_sra_cg_cr_rs1_rs2_edges_rs1val_0x0_rs2val_0x1:
  sra x8, x30, x9 # perform operation
    1580:	409f5433          	sra	x8,x30,x9
  # Check if x8 contains the expected result. x1 is the signature ptr, x5 is the link ptr, x4 is a temp reg.
  RVTEST_SIGUPD(x1, x5, x4, x8, I_sra_cg_cr_rs1_rs2_edges_rs1val_0x0_rs2val_0x1, I_sra_cg_cr_rs1_rs2_edges_rs1val_0x0_rs2val_0x1_str)
    1584:	0000a203          	lw	x4,0(x1)
    1588:	00820863          	beq	x4,x8,1598 <I_sra_cg_cr_rs1_rs2_edges_rs1val_0x0_rs2val_0x1+0x18>
    158c:	731022ef          	jal	x5,44bc <failedtest_x5_x4>
    1590:	00001580          	.word	0x00001580
    1594:	0000a481          	.word	0x0000a481
    1598:	00408093          	addi	x1,x1,4

# Testcase cr_rs1_rs2_edges (Test source rs1 = 0x00000000 rs2 = 0x00000002)
  RVTEST_TESTDATA_LOAD_INT(x23, x2) # load rs1: x2 = 0x00000000
    159c:	000ba103          	lw	x2,0(x23)
    15a0:	004b8b93          	addi	x23,x23,4
  RVTEST_TESTDATA_LOAD_INT(x23, x8) # load rs2: x8 = 0x00000002
    15a4:	000ba403          	lw	x8,0(x23)
    15a8:	004b8b93          	addi	x23,x23,4

000015ac <I_sra_cg_cr_rs1_rs2_edges_rs1val_0x0_rs2val_0x2>:
I_sra_cg_cr_rs1_rs2_edges_rs1val_0x0_rs2val_0x2:
  sra x10, x2, x8 # perform operation
    15ac:	40815533          	sra	x10,x2,x8
  # Check if x10 contains the expected result. x1 is the signature ptr, x5 is the link ptr, x4 is a temp reg.
  RVTEST_SIGUPD(x1, x5, x4, x10, I_sra_cg_cr_rs1_rs2_edges_rs1val_0x0_rs2val_0x2, I_sra_cg_cr_rs1_rs2_edges_rs1val_0x0_rs2val_0x2_str)
    15b0:	0000a203          	lw	x4,0(x1)
    15b4:	00a20863          	beq	x4,x10,15c4 <I_sra_cg_cr_rs1_rs2_edges_rs1val_0x0_rs2val_0x2+0x18>
    15b8:	705022ef          	jal	x5,44bc <failedtest_x5_x4>
    15bc:	000015ac          	.word	0x000015ac
    15c0:	0000a4ce          	.word	0x0000a4ce
    15c4:	00408093          	addi	x1,x1,4

# Testcase cr_rs1_rs2_edges (Test source rs1 = 0x00000000 rs2 = 0x80000000)
  RVTEST_TESTDATA_LOAD_INT(x23, x14) # load rs1: x14 = 0x00000000
    15c8:	000ba703          	lw	x14,0(x23)
    15cc:	004b8b93          	addi	x23,x23,4
  RVTEST_TESTDATA_LOAD_INT(x23, x6) # load rs2: x6 = 0x80000000
    15d0:	000ba303          	lw	x6,0(x23)
    15d4:	004b8b93          	addi	x23,x23,4

000015d8 <I_sra_cg_cr_rs1_rs2_edges_rs1val_0x0_rs2val_0x80000000>:
I_sra_cg_cr_rs1_rs2_edges_rs1val_0x0_rs2val_0x80000000:
  sra x12, x14, x6 # perform operation
    15d8:	40675633          	sra	x12,x14,x6
  # Check if x12 contains the expected result. x1 is the signature ptr, x5 is the link ptr, x4 is a temp reg.
  RVTEST_SIGUPD(x1, x5, x4, x12, I_sra_cg_cr_rs1_rs2_edges_rs1val_0x0_rs2val_0x80000000, I_sra_cg_cr_rs1_rs2_edges_rs1val_0x0_rs2val_0x80000000_str)
    15dc:	0000a203          	lw	x4,0(x1)
    15e0:	00c20863          	beq	x4,x12,15f0 <I_sra_cg_cr_rs1_rs2_edges_rs1val_0x0_rs2val_0x80000000+0x18>
    15e4:	6d9022ef          	jal	x5,44bc <failedtest_x5_x4>
    15e8:	000015d8          	.word	0x000015d8
    15ec:	0000a51b          	.word	0x0000a51b
    15f0:	00408093          	addi	x1,x1,4

# Testcase cr_rs1_rs2_edges (Test source rs1 = 0x00000000 rs2 = 0x80000001)
  RVTEST_TESTDATA_LOAD_INT(x23, x3) # load rs1: x3 = 0x00000000
    15f4:	000ba183          	lw	x3,0(x23)
    15f8:	004b8b93          	addi	x23,x23,4
  RVTEST_TESTDATA_LOAD_INT(x23, x19) # load rs2: x19 = 0x80000001
    15fc:	000ba983          	lw	x19,0(x23)
    1600:	004b8b93          	addi	x23,x23,4

00001604 <I_sra_cg_cr_rs1_rs2_edges_rs1val_0x0_rs2val_0x80000001>:
I_sra_cg_cr_rs1_rs2_edges_rs1val_0x0_rs2val_0x80000001:
  sra x26, x3, x19 # perform operation
    1604:	4131dd33          	sra	x26,x3,x19
  # Check if x26 contains the expected result. x1 is the signature ptr, x5 is the link ptr, x4 is a temp reg.
  RVTEST_SIGUPD(x1, x5, x4, x26, I_sra_cg_cr_rs1_rs2_edges_rs1val_0x0_rs2val_0x80000001, I_sra_cg_cr_rs1_rs2_edges_rs1val_0x0_rs2val_0x80000001_str)
    1608:	0000a203          	lw	x4,0(x1)
    160c:	01a20863          	beq	x4,x26,161c <I_sra_cg_cr_rs1_rs2_edges_rs1val_0x0_rs2val_0x80000001+0x18>
    1610:	6ad022ef          	jal	x5,44bc <failedtest_x5_x4>
    1614:	00001604          	.word	0x00001604
    1618:	0000a56f          	.word	0x0000a56f
    161c:	00408093          	addi	x1,x1,4

# Testcase cr_rs1_rs2_edges (Test source rs1 = 0x00000000 rs2 = 0x7fffffff)
  RVTEST_TESTDATA_LOAD_INT(x23, x31) # load rs1: x31 = 0x00000000
    1620:	000baf83          	lw	x31,0(x23)
    1624:	004b8b93          	addi	x23,x23,4
  RVTEST_TESTDATA_LOAD_INT(x23, x30) # load rs2: x30 = 0x7fffffff
    1628:	000baf03          	lw	x30,0(x23)
    162c:	004b8b93          	addi	x23,x23,4

00001630 <I_sra_cg_cr_rs1_rs2_edges_rs1val_0x0_rs2val_0x7fffffff>:
I_sra_cg_cr_rs1_rs2_edges_rs1val_0x0_rs2val_0x7fffffff:
  sra x19, x31, x30 # perform operation
    1630:	41efd9b3          	sra	x19,x31,x30
  # Check if x19 contains the expected result. x1 is the signature ptr, x5 is the link ptr, x4 is a temp reg.
  RVTEST_SIGUPD(x1, x5, x4, x19, I_sra_cg_cr_rs1_rs2_edges_rs1val_0x0_rs2val_0x7fffffff, I_sra_cg_cr_rs1_rs2_edges_rs1val_0x0_rs2val_0x7fffffff_str)
    1634:	0000a203          	lw	x4,0(x1)
    1638:	01320863          	beq	x4,x19,1648 <I_sra_cg_cr_rs1_rs2_edges_rs1val_0x0_rs2val_0x7fffffff+0x18>
    163c:	681022ef          	jal	x5,44bc <failedtest_x5_x4>
    1640:	00001630          	.word	0x00001630
    1644:	0000a5c3          	.word	0x0000a5c3
    1648:	00408093          	addi	x1,x1,4

# Testcase cr_rs1_rs2_edges (Test source rs1 = 0x00000000 rs2 = 0x7ffffffe)
  RVTEST_TESTDATA_LOAD_INT(x23, x21) # load rs1: x21 = 0x00000000
    164c:	000baa83          	lw	x21,0(x23)
    1650:	004b8b93          	addi	x23,x23,4
  RVTEST_TESTDATA_LOAD_INT(x23, x7) # load rs2: x7 = 0x7ffffffe
    1654:	000ba383          	lw	x7,0(x23)
    1658:	004b8b93          	addi	x23,x23,4

0000165c <I_sra_cg_cr_rs1_rs2_edges_rs1val_0x0_rs2val_0x7ffffffe>:
I_sra_cg_cr_rs1_rs2_edges_rs1val_0x0_rs2val_0x7ffffffe:
  sra x10, x21, x7 # perform operation
    165c:	407ad533          	sra	x10,x21,x7
  # Check if x10 contains the expected result. x1 is the signature ptr, x5 is the link ptr, x4 is a temp reg.
  RVTEST_SIGUPD(x1, x5, x4, x10, I_sra_cg_cr_rs1_rs2_edges_rs1val_0x0_rs2val_0x7ffffffe, I_sra_cg_cr_rs1_rs2_edges_rs1val_0x0_rs2val_0x7ffffffe_str)
    1660:	0000a203          	lw	x4,0(x1)
    1664:	00a20863          	beq	x4,x10,1674 <I_sra_cg_cr_rs1_rs2_edges_rs1val_0x0_rs2val_0x7ffffffe+0x18>
    1668:	655022ef          	jal	x5,44bc <failedtest_x5_x4>
    166c:	0000165c          	.word	0x0000165c
    1670:	0000a617          	.word	0x0000a617
    1674:	00408093          	addi	x1,x1,4

# Testcase cr_rs1_rs2_edges (Test source rs1 = 0x00000000 rs2 = 0xffffffff)
  RVTEST_TESTDATA_LOAD_INT(x23, x18) # load rs1: x18 = 0x00000000
    1678:	000ba903          	lw	x18,0(x23)
    167c:	004b8b93          	addi	x23,x23,4
  RVTEST_TESTDATA_LOAD_INT(x23, x31) # load rs2: x31 = 0xffffffff
    1680:	000baf83          	lw	x31,0(x23)
    1684:	004b8b93          	addi	x23,x23,4

00001688 <I_sra_cg_cr_rs1_rs2_edges_rs1val_0x0_rs2val_0xffffffff>:
I_sra_cg_cr_rs1_rs2_edges_rs1val_0x0_rs2val_0xffffffff:
  sra x22, x18, x31 # perform operation
    1688:	41f95b33          	sra	x22,x18,x31
  # Check if x22 contains the expected result. x1 is the signature ptr, x5 is the link ptr, x4 is a temp reg.
  RVTEST_SIGUPD(x1, x5, x4, x22, I_sra_cg_cr_rs1_rs2_edges_rs1val_0x0_rs2val_0xffffffff, I_sra_cg_cr_rs1_rs2_edges_rs1val_0x0_rs2val_0xffffffff_str)
    168c:	0000a203          	lw	x4,0(x1)
    1690:	01620863          	beq	x4,x22,16a0 <I_sra_cg_cr_rs1_rs2_edges_rs1val_0x0_rs2val_0xffffffff+0x18>
    1694:	629022ef          	jal	x5,44bc <failedtest_x5_x4>
    1698:	00001688          	.word	0x00001688
    169c:	0000a66b          	.word	0x0000a66b
    16a0:	00408093          	addi	x1,x1,4

# Testcase cr_rs1_rs2_edges (Test source rs1 = 0x00000000 rs2 = 0xfffffffe)
  RVTEST_TESTDATA_LOAD_INT(x23, x18) # load rs1: x18 = 0x00000000
    16a4:	000ba903          	lw	x18,0(x23)
    16a8:	004b8b93          	addi	x23,x23,4
  RVTEST_TESTDATA_LOAD_INT(x23, x30) # load rs2: x30 = 0xfffffffe
    16ac:	000baf03          	lw	x30,0(x23)
    16b0:	004b8b93          	addi	x23,x23,4

000016b4 <I_sra_cg_cr_rs1_rs2_edges_rs1val_0x0_rs2val_0xfffffffe>:
I_sra_cg_cr_rs1_rs2_edges_rs1val_0x0_rs2val_0xfffffffe:
  sra x10, x18, x30 # perform operation
    16b4:	41e95533          	sra	x10,x18,x30
  # Check if x10 contains the expected result. x1 is the signature ptr, x5 is the link ptr, x4 is a temp reg.
  RVTEST_SIGUPD(x1, x5, x4, x10, I_sra_cg_cr_rs1_rs2_edges_rs1val_0x0_rs2val_0xfffffffe, I_sra_cg_cr_rs1_rs2_edges_rs1val_0x0_rs2val_0xfffffffe_str)
    16b8:	0000a203          	lw	x4,0(x1)
    16bc:	00a20863          	beq	x4,x10,16cc <I_sra_cg_cr_rs1_rs2_edges_rs1val_0x0_rs2val_0xfffffffe+0x18>
    16c0:	5fd022ef          	jal	x5,44bc <failedtest_x5_x4>
    16c4:	000016b4          	.word	0x000016b4
    16c8:	0000a6bf          	.word	0x0000a6bf
    16cc:	00408093          	addi	x1,x1,4

# Testcase cr_rs1_rs2_edges (Test source rs1 = 0x00000000 rs2 = 0x5bbc8872)
  RVTEST_TESTDATA_LOAD_INT(x23, x21) # load rs1: x21 = 0x00000000
    16d0:	000baa83          	lw	x21,0(x23)
    16d4:	004b8b93          	addi	x23,x23,4
  RVTEST_TESTDATA_LOAD_INT(x23, x29) # load rs2: x29 = 0x5bbc8872
    16d8:	000bae83          	lw	x29,0(x23)
    16dc:	004b8b93          	addi	x23,x23,4

000016e0 <I_sra_cg_cr_rs1_rs2_edges_rs1val_0x0_rs2val_0x5bbc8872>:
I_sra_cg_cr_rs1_rs2_edges_rs1val_0x0_rs2val_0x5bbc8872:
  sra x11, x21, x29 # perform operation
    16e0:	41dad5b3          	sra	x11,x21,x29
  # Check if x11 contains the expected result. x1 is the signature ptr, x5 is the link ptr, x4 is a temp reg.
  RVTEST_SIGUPD(x1, x5, x4, x11, I_sra_cg_cr_rs1_rs2_edges_rs1val_0x0_rs2val_0x5bbc8872, I_sra_cg_cr_rs1_rs2_edges_rs1val_0x0_rs2val_0x5bbc8872_str)
    16e4:	0000a203          	lw	x4,0(x1)
    16e8:	00b20863          	beq	x4,x11,16f8 <I_sra_cg_cr_rs1_rs2_edges_rs1val_0x0_rs2val_0x5bbc8872+0x18>
    16ec:	5d1022ef          	jal	x5,44bc <failedtest_x5_x4>
    16f0:	000016e0          	.word	0x000016e0
    16f4:	0000a713          	.word	0x0000a713
    16f8:	00408093          	addi	x1,x1,4

# Testcase cr_rs1_rs2_edges (Test source rs1 = 0x00000000 rs2 = 0xaaaaaaaa)
  RVTEST_TESTDATA_LOAD_INT(x23, x11) # load rs1: x11 = 0x00000000
    16fc:	000ba583          	lw	x11,0(x23)
    1700:	004b8b93          	addi	x23,x23,4
  RVTEST_TESTDATA_LOAD_INT(x23, x19) # load rs2: x19 = 0xaaaaaaaa
    1704:	000ba983          	lw	x19,0(x23)
    1708:	004b8b93          	addi	x23,x23,4

0000170c <I_sra_cg_cr_rs1_rs2_edges_rs1val_0x0_rs2val_0xaaaaaaaa>:
I_sra_cg_cr_rs1_rs2_edges_rs1val_0x0_rs2val_0xaaaaaaaa:
  sra x18, x11, x19 # perform operation
    170c:	4135d933          	sra	x18,x11,x19
  # Check if x18 contains the expected result. x1 is the signature ptr, x5 is the link ptr, x4 is a temp reg.
  RVTEST_SIGUPD(x1, x5, x4, x18, I_sra_cg_cr_rs1_rs2_edges_rs1val_0x0_rs2val_0xaaaaaaaa, I_sra_cg_cr_rs1_rs2_edges_rs1val_0x0_rs2val_0xaaaaaaaa_str)
    1710:	0000a203          	lw	x4,0(x1)
    1714:	01220863          	beq	x4,x18,1724 <I_sra_cg_cr_rs1_rs2_edges_rs1val_0x0_rs2val_0xaaaaaaaa+0x18>
    1718:	5a5022ef          	jal	x5,44bc <failedtest_x5_x4>
    171c:	0000170c          	.word	0x0000170c
    1720:	0000a767          	.word	0x0000a767
    1724:	00408093          	addi	x1,x1,4

# Testcase cr_rs1_rs2_edges (Test source rs1 = 0x00000000 rs2 = 0x55555555)
  RVTEST_TESTDATA_LOAD_INT(x23, x9) # load rs1: x9 = 0x00000000
    1728:	000ba483          	lw	x9,0(x23)
    172c:	004b8b93          	addi	x23,x23,4
  RVTEST_TESTDATA_LOAD_INT(x23, x6) # load rs2: x6 = 0x55555555
    1730:	000ba303          	lw	x6,0(x23)
    1734:	004b8b93          	addi	x23,x23,4

00001738 <I_sra_cg_cr_rs1_rs2_edges_rs1val_0x0_rs2val_0x55555555>:
I_sra_cg_cr_rs1_rs2_edges_rs1val_0x0_rs2val_0x55555555:
  sra x25, x9, x6 # perform operation
    1738:	4064dcb3          	sra	x25,x9,x6
  # Check if x25 contains the expected result. x1 is the signature ptr, x5 is the link ptr, x4 is a temp reg.
  RVTEST_SIGUPD(x1, x5, x4, x25, I_sra_cg_cr_rs1_rs2_edges_rs1val_0x0_rs2val_0x55555555, I_sra_cg_cr_rs1_rs2_edges_rs1val_0x0_rs2val_0x55555555_str)
    173c:	0000a203          	lw	x4,0(x1)
    1740:	01920863          	beq	x4,x25,1750 <I_sra_cg_cr_rs1_rs2_edges_rs1val_0x0_rs2val_0x55555555+0x18>
    1744:	579022ef          	jal	x5,44bc <failedtest_x5_x4>
    1748:	00001738          	.word	0x00001738
    174c:	0000a7bb          	.word	0x0000a7bb
    1750:	00408093          	addi	x1,x1,4

# Testcase cr_rs1_rs2_edges (Test source rs1 = 0x00000001 rs2 = 0x00000000)
  RVTEST_TESTDATA_LOAD_INT(x23, x27) # load rs1: x27 = 0x00000001
    1754:	000bad83          	lw	x27,0(x23)
    1758:	004b8b93          	addi	x23,x23,4
  RVTEST_TESTDATA_LOAD_INT(x23, x22) # load rs2: x22 = 0x00000000
    175c:	000bab03          	lw	x22,0(x23)
    1760:	004b8b93          	addi	x23,x23,4

00001764 <I_sra_cg_cr_rs1_rs2_edges_rs1val_0x1_rs2val_0x0>:
I_sra_cg_cr_rs1_rs2_edges_rs1val_0x1_rs2val_0x0:
  sra x6, x27, x22 # perform operation
    1764:	416dd333          	sra	x6,x27,x22
  # Check if x6 contains the expected result. x1 is the signature ptr, x5 is the link ptr, x4 is a temp reg.
  RVTEST_SIGUPD(x1, x5, x4, x6, I_sra_cg_cr_rs1_rs2_edges_rs1val_0x1_rs2val_0x0, I_sra_cg_cr_rs1_rs2_edges_rs1val_0x1_rs2val_0x0_str)
    1768:	0000a203          	lw	x4,0(x1)
    176c:	00620863          	beq	x4,x6,177c <I_sra_cg_cr_rs1_rs2_edges_rs1val_0x1_rs2val_0x0+0x18>
    1770:	54d022ef          	jal	x5,44bc <failedtest_x5_x4>
    1774:	00001764          	.word	0x00001764
    1778:	0000a80f          	.word	0x0000a80f
    177c:	00408093          	addi	x1,x1,4

# Testcase cr_rs1_rs2_edges (Test source rs1 = 0x00000001 rs2 = 0x00000001)
  RVTEST_TESTDATA_LOAD_INT(x23, x11) # load rs1: x11 = 0x00000001
    1780:	000ba583          	lw	x11,0(x23)
    1784:	004b8b93          	addi	x23,x23,4
  RVTEST_TESTDATA_LOAD_INT(x23, x17) # load rs2: x17 = 0x00000001
    1788:	000ba883          	lw	x17,0(x23)
    178c:	004b8b93          	addi	x23,x23,4

00001790 <I_sra_cg_cr_rs1_rs2_edges_rs1val_0x1_rs2val_0x1>:
I_sra_cg_cr_rs1_rs2_edges_rs1val_0x1_rs2val_0x1:
  sra x6, x11, x17 # perform operation
    1790:	4115d333          	sra	x6,x11,x17
  # Check if x6 contains the expected result. x1 is the signature ptr, x5 is the link ptr, x4 is a temp reg.
  RVTEST_SIGUPD(x1, x5, x4, x6, I_sra_cg_cr_rs1_rs2_edges_rs1val_0x1_rs2val_0x1, I_sra_cg_cr_rs1_rs2_edges_rs1val_0x1_rs2val_0x1_str)
    1794:	0000a203          	lw	x4,0(x1)
    1798:	00620863          	beq	x4,x6,17a8 <I_sra_cg_cr_rs1_rs2_edges_rs1val_0x1_rs2val_0x1+0x18>
    179c:	521022ef          	jal	x5,44bc <failedtest_x5_x4>
    17a0:	00001790          	.word	0x00001790
    17a4:	0000a85c          	.word	0x0000a85c
    17a8:	00408093          	addi	x1,x1,4

# Testcase cr_rs1_rs2_edges (Test source rs1 = 0x00000001 rs2 = 0x00000002)
  RVTEST_TESTDATA_LOAD_INT(x23, x21) # load rs1: x21 = 0x00000001
    17ac:	000baa83          	lw	x21,0(x23)
    17b0:	004b8b93          	addi	x23,x23,4
  RVTEST_TESTDATA_LOAD_INT(x23, x6) # load rs2: x6 = 0x00000002
    17b4:	000ba303          	lw	x6,0(x23)
    17b8:	004b8b93          	addi	x23,x23,4

000017bc <I_sra_cg_cr_rs1_rs2_edges_rs1val_0x1_rs2val_0x2>:
I_sra_cg_cr_rs1_rs2_edges_rs1val_0x1_rs2val_0x2:
  sra x12, x21, x6 # perform operation
    17bc:	406ad633          	sra	x12,x21,x6
  # Check if x12 contains the expected result. x1 is the signature ptr, x5 is the link ptr, x4 is a temp reg.
  RVTEST_SIGUPD(x1, x5, x4, x12, I_sra_cg_cr_rs1_rs2_edges_rs1val_0x1_rs2val_0x2, I_sra_cg_cr_rs1_rs2_edges_rs1val_0x1_rs2val_0x2_str)
    17c0:	0000a203          	lw	x4,0(x1)
    17c4:	00c20863          	beq	x4,x12,17d4 <I_sra_cg_cr_rs1_rs2_edges_rs1val_0x1_rs2val_0x2+0x18>
    17c8:	4f5022ef          	jal	x5,44bc <failedtest_x5_x4>
    17cc:	000017bc          	.word	0x000017bc
    17d0:	0000a8a9          	.word	0x0000a8a9
    17d4:	00408093          	addi	x1,x1,4

# Testcase cr_rs1_rs2_edges (Test source rs1 = 0x00000001 rs2 = 0x80000000)
  RVTEST_TESTDATA_LOAD_INT(x23, x19) # load rs1: x19 = 0x00000001
    17d8:	000ba983          	lw	x19,0(x23)
    17dc:	004b8b93          	addi	x23,x23,4
  RVTEST_TESTDATA_LOAD_INT(x23, x13) # load rs2: x13 = 0x80000000
    17e0:	000ba683          	lw	x13,0(x23)
    17e4:	004b8b93          	addi	x23,x23,4

000017e8 <I_sra_cg_cr_rs1_rs2_edges_rs1val_0x1_rs2val_0x80000000>:
I_sra_cg_cr_rs1_rs2_edges_rs1val_0x1_rs2val_0x80000000:
  sra x21, x19, x13 # perform operation
    17e8:	40d9dab3          	sra	x21,x19,x13
  # Check if x21 contains the expected result. x1 is the signature ptr, x5 is the link ptr, x4 is a temp reg.
  RVTEST_SIGUPD(x1, x5, x4, x21, I_sra_cg_cr_rs1_rs2_edges_rs1val_0x1_rs2val_0x80000000, I_sra_cg_cr_rs1_rs2_edges_rs1val_0x1_rs2val_0x80000000_str)
    17ec:	0000a203          	lw	x4,0(x1)
    17f0:	01520863          	beq	x4,x21,1800 <I_sra_cg_cr_rs1_rs2_edges_rs1val_0x1_rs2val_0x80000000+0x18>
    17f4:	4c9022ef          	jal	x5,44bc <failedtest_x5_x4>
    17f8:	000017e8          	.word	0x000017e8
    17fc:	0000a8f6          	.word	0x0000a8f6
    1800:	00408093          	addi	x1,x1,4

# Testcase cr_rs1_rs2_edges (Test source rs1 = 0x00000001 rs2 = 0x80000001)
  RVTEST_TESTDATA_LOAD_INT(x23, x6) # load rs1: x6 = 0x00000001
    1804:	000ba303          	lw	x6,0(x23)
    1808:	004b8b93          	addi	x23,x23,4
  RVTEST_TESTDATA_LOAD_INT(x23, x25) # load rs2: x25 = 0x80000001
    180c:	000bac83          	lw	x25,0(x23)
    1810:	004b8b93          	addi	x23,x23,4

00001814 <I_sra_cg_cr_rs1_rs2_edges_rs1val_0x1_rs2val_0x80000001>:
I_sra_cg_cr_rs1_rs2_edges_rs1val_0x1_rs2val_0x80000001:
  sra x8, x6, x25 # perform operation
    1814:	41935433          	sra	x8,x6,x25
  # Check if x8 contains the expected result. x1 is the signature ptr, x5 is the link ptr, x4 is a temp reg.
  RVTEST_SIGUPD(x1, x5, x4, x8, I_sra_cg_cr_rs1_rs2_edges_rs1val_0x1_rs2val_0x80000001, I_sra_cg_cr_rs1_rs2_edges_rs1val_0x1_rs2val_0x80000001_str)
    1818:	0000a203          	lw	x4,0(x1)
    181c:	00820863          	beq	x4,x8,182c <I_sra_cg_cr_rs1_rs2_edges_rs1val_0x1_rs2val_0x80000001+0x18>
    1820:	49d022ef          	jal	x5,44bc <failedtest_x5_x4>
    1824:	00001814          	.word	0x00001814
    1828:	0000a94a          	.word	0x0000a94a
    182c:	00408093          	addi	x1,x1,4

# Testcase cr_rs1_rs2_edges (Test source rs1 = 0x00000001 rs2 = 0x7fffffff)
  RVTEST_TESTDATA_LOAD_INT(x23, x2) # load rs1: x2 = 0x00000001
    1830:	000ba103          	lw	x2,0(x23)
    1834:	004b8b93          	addi	x23,x23,4
  RVTEST_TESTDATA_LOAD_INT(x23, x16) # load rs2: x16 = 0x7fffffff
    1838:	000ba803          	lw	x16,0(x23)
    183c:	004b8b93          	addi	x23,x23,4

00001840 <I_sra_cg_cr_rs1_rs2_edges_rs1val_0x1_rs2val_0x7fffffff>:
I_sra_cg_cr_rs1_rs2_edges_rs1val_0x1_rs2val_0x7fffffff:
  sra x8, x2, x16 # perform operation
    1840:	41015433          	sra	x8,x2,x16
  # Check if x8 contains the expected result. x1 is the signature ptr, x5 is the link ptr, x4 is a temp reg.
  RVTEST_SIGUPD(x1, x5, x4, x8, I_sra_cg_cr_rs1_rs2_edges_rs1val_0x1_rs2val_0x7fffffff, I_sra_cg_cr_rs1_rs2_edges_rs1val_0x1_rs2val_0x7fffffff_str)
    1844:	0000a203          	lw	x4,0(x1)
    1848:	00820863          	beq	x4,x8,1858 <I_sra_cg_cr_rs1_rs2_edges_rs1val_0x1_rs2val_0x7fffffff+0x18>
    184c:	471022ef          	jal	x5,44bc <failedtest_x5_x4>
    1850:	00001840          	.word	0x00001840
    1854:	0000a99e          	.word	0x0000a99e
    1858:	00408093          	addi	x1,x1,4

# Testcase cr_rs1_rs2_edges (Test source rs1 = 0x00000001 rs2 = 0x7ffffffe)
  RVTEST_TESTDATA_LOAD_INT(x23, x26) # load rs1: x26 = 0x00000001
    185c:	000bad03          	lw	x26,0(x23)
    1860:	004b8b93          	addi	x23,x23,4
  RVTEST_TESTDATA_LOAD_INT(x23, x10) # load rs2: x10 = 0x7ffffffe
    1864:	000ba503          	lw	x10,0(x23)
    1868:	004b8b93          	addi	x23,x23,4

0000186c <I_sra_cg_cr_rs1_rs2_edges_rs1val_0x1_rs2val_0x7ffffffe>:
I_sra_cg_cr_rs1_rs2_edges_rs1val_0x1_rs2val_0x7ffffffe:
  sra x30, x26, x10 # perform operation
    186c:	40ad5f33          	sra	x30,x26,x10
  # Check if x30 contains the expected result. x1 is the signature ptr, x5 is the link ptr, x4 is a temp reg.
  RVTEST_SIGUPD(x1, x5, x4, x30, I_sra_cg_cr_rs1_rs2_edges_rs1val_0x1_rs2val_0x7ffffffe, I_sra_cg_cr_rs1_rs2_edges_rs1val_0x1_rs2val_0x7ffffffe_str)
    1870:	0000a203          	lw	x4,0(x1)
    1874:	01e20863          	beq	x4,x30,1884 <I_sra_cg_cr_rs1_rs2_edges_rs1val_0x1_rs2val_0x7ffffffe+0x18>
    1878:	445022ef          	jal	x5,44bc <failedtest_x5_x4>
    187c:	0000186c          	.word	0x0000186c
    1880:	0000a9f2          	.word	0x0000a9f2
    1884:	00408093          	addi	x1,x1,4

# Testcase cr_rs1_rs2_edges (Test source rs1 = 0x00000001 rs2 = 0xffffffff)
  RVTEST_TESTDATA_LOAD_INT(x23, x28) # load rs1: x28 = 0x00000001
    1888:	000bae03          	lw	x28,0(x23)
    188c:	004b8b93          	addi	x23,x23,4
  RVTEST_TESTDATA_LOAD_INT(x23, x15) # load rs2: x15 = 0xffffffff
    1890:	000ba783          	lw	x15,0(x23)
    1894:	004b8b93          	addi	x23,x23,4

00001898 <I_sra_cg_cr_rs1_rs2_edges_rs1val_0x1_rs2val_0xffffffff>:
I_sra_cg_cr_rs1_rs2_edges_rs1val_0x1_rs2val_0xffffffff:
  sra x20, x28, x15 # perform operation
    1898:	40fe5a33          	sra	x20,x28,x15
  # Check if x20 contains the expected result. x1 is the signature ptr, x5 is the link ptr, x4 is a temp reg.
  RVTEST_SIGUPD(x1, x5, x4, x20, I_sra_cg_cr_rs1_rs2_edges_rs1val_0x1_rs2val_0xffffffff, I_sra_cg_cr_rs1_rs2_edges_rs1val_0x1_rs2val_0xffffffff_str)
    189c:	0000a203          	lw	x4,0(x1)
    18a0:	01420863          	beq	x4,x20,18b0 <I_sra_cg_cr_rs1_rs2_edges_rs1val_0x1_rs2val_0xffffffff+0x18>
    18a4:	419022ef          	jal	x5,44bc <failedtest_x5_x4>
    18a8:	00001898          	.word	0x00001898
    18ac:	0000aa46          	.word	0x0000aa46
    18b0:	00408093          	addi	x1,x1,4

# Testcase cr_rs1_rs2_edges (Test source rs1 = 0x00000001 rs2 = 0xfffffffe)
  RVTEST_TESTDATA_LOAD_INT(x23, x6) # load rs1: x6 = 0x00000001
    18b4:	000ba303          	lw	x6,0(x23)
    18b8:	004b8b93          	addi	x23,x23,4
  RVTEST_TESTDATA_LOAD_INT(x23, x17) # load rs2: x17 = 0xfffffffe
    18bc:	000ba883          	lw	x17,0(x23)
    18c0:	004b8b93          	addi	x23,x23,4

000018c4 <I_sra_cg_cr_rs1_rs2_edges_rs1val_0x1_rs2val_0xfffffffe>:
I_sra_cg_cr_rs1_rs2_edges_rs1val_0x1_rs2val_0xfffffffe:
  sra x3, x6, x17 # perform operation
    18c4:	411351b3          	sra	x3,x6,x17
  # Check if x3 contains the expected result. x1 is the signature ptr, x5 is the link ptr, x4 is a temp reg.
  RVTEST_SIGUPD(x1, x5, x4, x3, I_sra_cg_cr_rs1_rs2_edges_rs1val_0x1_rs2val_0xfffffffe, I_sra_cg_cr_rs1_rs2_edges_rs1val_0x1_rs2val_0xfffffffe_str)
    18c8:	0000a203          	lw	x4,0(x1)
    18cc:	00320863          	beq	x4,x3,18dc <I_sra_cg_cr_rs1_rs2_edges_rs1val_0x1_rs2val_0xfffffffe+0x18>
    18d0:	3ed022ef          	jal	x5,44bc <failedtest_x5_x4>
    18d4:	000018c4          	.word	0x000018c4
    18d8:	0000aa9a          	.word	0x0000aa9a
    18dc:	00408093          	addi	x1,x1,4

# Testcase cr_rs1_rs2_edges (Test source rs1 = 0x00000001 rs2 = 0x5bbc8872)
  RVTEST_TESTDATA_LOAD_INT(x23, x25) # load rs1: x25 = 0x00000001
    18e0:	000bac83          	lw	x25,0(x23)
    18e4:	004b8b93          	addi	x23,x23,4
  RVTEST_TESTDATA_LOAD_INT(x23, x31) # load rs2: x31 = 0x5bbc8872
    18e8:	000baf83          	lw	x31,0(x23)
    18ec:	004b8b93          	addi	x23,x23,4

000018f0 <I_sra_cg_cr_rs1_rs2_edges_rs1val_0x1_rs2val_0x5bbc8872>:
I_sra_cg_cr_rs1_rs2_edges_rs1val_0x1_rs2val_0x5bbc8872:
  sra x3, x25, x31 # perform operation
    18f0:	41fcd1b3          	sra	x3,x25,x31
  # Check if x3 contains the expected result. x1 is the signature ptr, x5 is the link ptr, x4 is a temp reg.
  RVTEST_SIGUPD(x1, x5, x4, x3, I_sra_cg_cr_rs1_rs2_edges_rs1val_0x1_rs2val_0x5bbc8872, I_sra_cg_cr_rs1_rs2_edges_rs1val_0x1_rs2val_0x5bbc8872_str)
    18f4:	0000a203          	lw	x4,0(x1)
    18f8:	00320863          	beq	x4,x3,1908 <I_sra_cg_cr_rs1_rs2_edges_rs1val_0x1_rs2val_0x5bbc8872+0x18>
    18fc:	3c1022ef          	jal	x5,44bc <failedtest_x5_x4>
    1900:	000018f0          	.word	0x000018f0
    1904:	0000aaee          	.word	0x0000aaee
    1908:	00408093          	addi	x1,x1,4

# Testcase cr_rs1_rs2_edges (Test source rs1 = 0x00000001 rs2 = 0xaaaaaaaa)
  RVTEST_TESTDATA_LOAD_INT(x23, x2) # load rs1: x2 = 0x00000001
    190c:	000ba103          	lw	x2,0(x23)
    1910:	004b8b93          	addi	x23,x23,4
  RVTEST_TESTDATA_LOAD_INT(x23, x14) # load rs2: x14 = 0xaaaaaaaa
    1914:	000ba703          	lw	x14,0(x23)
    1918:	004b8b93          	addi	x23,x23,4

0000191c <I_sra_cg_cr_rs1_rs2_edges_rs1val_0x1_rs2val_0xaaaaaaaa>:
I_sra_cg_cr_rs1_rs2_edges_rs1val_0x1_rs2val_0xaaaaaaaa:
  sra x30, x2, x14 # perform operation
    191c:	40e15f33          	sra	x30,x2,x14
  # Check if x30 contains the expected result. x1 is the signature ptr, x5 is the link ptr, x4 is a temp reg.
  RVTEST_SIGUPD(x1, x5, x4, x30, I_sra_cg_cr_rs1_rs2_edges_rs1val_0x1_rs2val_0xaaaaaaaa, I_sra_cg_cr_rs1_rs2_edges_rs1val_0x1_rs2val_0xaaaaaaaa_str)
    1920:	0000a203          	lw	x4,0(x1)
    1924:	01e20863          	beq	x4,x30,1934 <I_sra_cg_cr_rs1_rs2_edges_rs1val_0x1_rs2val_0xaaaaaaaa+0x18>
    1928:	395022ef          	jal	x5,44bc <failedtest_x5_x4>
    192c:	0000191c          	.word	0x0000191c
    1930:	0000ab42          	.word	0x0000ab42
    1934:	00408093          	addi	x1,x1,4

# Testcase cr_rs1_rs2_edges (Test source rs1 = 0x00000001 rs2 = 0x55555555)
  RVTEST_TESTDATA_LOAD_INT(x23, x31) # load rs1: x31 = 0x00000001
    1938:	000baf83          	lw	x31,0(x23)
    193c:	004b8b93          	addi	x23,x23,4
  RVTEST_TESTDATA_LOAD_INT(x23, x30) # load rs2: x30 = 0x55555555
    1940:	000baf03          	lw	x30,0(x23)
    1944:	004b8b93          	addi	x23,x23,4

00001948 <I_sra_cg_cr_rs1_rs2_edges_rs1val_0x1_rs2val_0x55555555>:
I_sra_cg_cr_rs1_rs2_edges_rs1val_0x1_rs2val_0x55555555:
  sra x7, x31, x30 # perform operation
    1948:	41efd3b3          	sra	x7,x31,x30
  # Check if x7 contains the expected result. x1 is the signature ptr, x5 is the link ptr, x4 is a temp reg.
  RVTEST_SIGUPD(x1, x5, x4, x7, I_sra_cg_cr_rs1_rs2_edges_rs1val_0x1_rs2val_0x55555555, I_sra_cg_cr_rs1_rs2_edges_rs1val_0x1_rs2val_0x55555555_str)
    194c:	0000a203          	lw	x4,0(x1)
    1950:	00720863          	beq	x4,x7,1960 <I_sra_cg_cr_rs1_rs2_edges_rs1val_0x1_rs2val_0x55555555+0x18>
    1954:	369022ef          	jal	x5,44bc <failedtest_x5_x4>
    1958:	00001948          	.word	0x00001948
    195c:	0000ab96          	.word	0x0000ab96
    1960:	00408093          	addi	x1,x1,4

# Testcase cr_rs1_rs2_edges (Test source rs1 = 0x00000002 rs2 = 0x00000000)
  RVTEST_TESTDATA_LOAD_INT(x23, x31) # load rs1: x31 = 0x00000002
    1964:	000baf83          	lw	x31,0(x23)
    1968:	004b8b93          	addi	x23,x23,4
  RVTEST_TESTDATA_LOAD_INT(x23, x7) # load rs2: x7 = 0x00000000
    196c:	000ba383          	lw	x7,0(x23)
    1970:	004b8b93          	addi	x23,x23,4

00001974 <I_sra_cg_cr_rs1_rs2_edges_rs1val_0x2_rs2val_0x0>:
I_sra_cg_cr_rs1_rs2_edges_rs1val_0x2_rs2val_0x0:
  sra x10, x31, x7 # perform operation
    1974:	407fd533          	sra	x10,x31,x7
  # Check if x10 contains the expected result. x1 is the signature ptr, x5 is the link ptr, x4 is a temp reg.
  RVTEST_SIGUPD(x1, x5, x4, x10, I_sra_cg_cr_rs1_rs2_edges_rs1val_0x2_rs2val_0x0, I_sra_cg_cr_rs1_rs2_edges_rs1val_0x2_rs2val_0x0_str)
    1978:	0000a203          	lw	x4,0(x1)
    197c:	00a20863          	beq	x4,x10,198c <I_sra_cg_cr_rs1_rs2_edges_rs1val_0x2_rs2val_0x0+0x18>
    1980:	33d022ef          	jal	x5,44bc <failedtest_x5_x4>
    1984:	00001974          	.word	0x00001974
    1988:	0000abea          	.word	0x0000abea
    198c:	00408093          	addi	x1,x1,4

# Testcase cr_rs1_rs2_edges (Test source rs1 = 0x00000002 rs2 = 0x00000001)
  RVTEST_TESTDATA_LOAD_INT(x23, x8) # load rs1: x8 = 0x00000002
    1990:	000ba403          	lw	x8,0(x23)
    1994:	004b8b93          	addi	x23,x23,4
  RVTEST_TESTDATA_LOAD_INT(x23, x25) # load rs2: x25 = 0x00000001
    1998:	000bac83          	lw	x25,0(x23)
    199c:	004b8b93          	addi	x23,x23,4

000019a0 <I_sra_cg_cr_rs1_rs2_edges_rs1val_0x2_rs2val_0x1>:
I_sra_cg_cr_rs1_rs2_edges_rs1val_0x2_rs2val_0x1:
  sra x24, x8, x25 # perform operation
    19a0:	41945c33          	sra	x24,x8,x25
  # Check if x24 contains the expected result. x1 is the signature ptr, x5 is the link ptr, x4 is a temp reg.
  RVTEST_SIGUPD(x1, x5, x4, x24, I_sra_cg_cr_rs1_rs2_edges_rs1val_0x2_rs2val_0x1, I_sra_cg_cr_rs1_rs2_edges_rs1val_0x2_rs2val_0x1_str)
    19a4:	0000a203          	lw	x4,0(x1)
    19a8:	01820863          	beq	x4,x24,19b8 <I_sra_cg_cr_rs1_rs2_edges_rs1val_0x2_rs2val_0x1+0x18>
    19ac:	311022ef          	jal	x5,44bc <failedtest_x5_x4>
    19b0:	000019a0          	.word	0x000019a0
    19b4:	0000ac37          	.word	0x0000ac37
    19b8:	00408093          	addi	x1,x1,4

# Testcase cr_rs1_rs2_edges (Test source rs1 = 0x00000002 rs2 = 0x00000002)
  RVTEST_TESTDATA_LOAD_INT(x23, x27) # load rs1: x27 = 0x00000002
    19bc:	000bad83          	lw	x27,0(x23)
    19c0:	004b8b93          	addi	x23,x23,4
  RVTEST_TESTDATA_LOAD_INT(x23, x31) # load rs2: x31 = 0x00000002
    19c4:	000baf83          	lw	x31,0(x23)
    19c8:	004b8b93          	addi	x23,x23,4

000019cc <I_sra_cg_cr_rs1_rs2_edges_rs1val_0x2_rs2val_0x2>:
I_sra_cg_cr_rs1_rs2_edges_rs1val_0x2_rs2val_0x2:
  sra x20, x27, x31 # perform operation
    19cc:	41fdda33          	sra	x20,x27,x31
  # Check if x20 contains the expected result. x1 is the signature ptr, x5 is the link ptr, x4 is a temp reg.
  RVTEST_SIGUPD(x1, x5, x4, x20, I_sra_cg_cr_rs1_rs2_edges_rs1val_0x2_rs2val_0x2, I_sra_cg_cr_rs1_rs2_edges_rs1val_0x2_rs2val_0x2_str)
    19d0:	0000a203          	lw	x4,0(x1)
    19d4:	01420863          	beq	x4,x20,19e4 <I_sra_cg_cr_rs1_rs2_edges_rs1val_0x2_rs2val_0x2+0x18>
    19d8:	2e5022ef          	jal	x5,44bc <failedtest_x5_x4>
    19dc:	000019cc          	.word	0x000019cc
    19e0:	0000ac84          	.word	0x0000ac84
    19e4:	00408093          	addi	x1,x1,4

# Testcase cr_rs1_rs2_edges (Test source rs1 = 0x00000002 rs2 = 0x80000000)
  RVTEST_TESTDATA_LOAD_INT(x23, x31) # load rs1: x31 = 0x00000002
    19e8:	000baf83          	lw	x31,0(x23)
    19ec:	004b8b93          	addi	x23,x23,4
  RVTEST_TESTDATA_LOAD_INT(x23, x16) # load rs2: x16 = 0x80000000
    19f0:	000ba803          	lw	x16,0(x23)
    19f4:	004b8b93          	addi	x23,x23,4

000019f8 <I_sra_cg_cr_rs1_rs2_edges_rs1val_0x2_rs2val_0x80000000>:
I_sra_cg_cr_rs1_rs2_edges_rs1val_0x2_rs2val_0x80000000:
  sra x12, x31, x16 # perform operation
    19f8:	410fd633          	sra	x12,x31,x16
  # Check if x12 contains the expected result. x1 is the signature ptr, x5 is the link ptr, x4 is a temp reg.
  RVTEST_SIGUPD(x1, x5, x4, x12, I_sra_cg_cr_rs1_rs2_edges_rs1val_0x2_rs2val_0x80000000, I_sra_cg_cr_rs1_rs2_edges_rs1val_0x2_rs2val_0x80000000_str)
    19fc:	0000a203          	lw	x4,0(x1)
    1a00:	00c20863          	beq	x4,x12,1a10 <I_sra_cg_cr_rs1_rs2_edges_rs1val_0x2_rs2val_0x80000000+0x18>
    1a04:	2b9022ef          	jal	x5,44bc <failedtest_x5_x4>
    1a08:	000019f8          	.word	0x000019f8
    1a0c:	0000acd1          	.word	0x0000acd1
    1a10:	00408093          	addi	x1,x1,4

# Testcase cr_rs1_rs2_edges (Test source rs1 = 0x00000002 rs2 = 0x80000001)
  RVTEST_TESTDATA_LOAD_INT(x23, x18) # load rs1: x18 = 0x00000002
    1a14:	000ba903          	lw	x18,0(x23)
    1a18:	004b8b93          	addi	x23,x23,4
  RVTEST_TESTDATA_LOAD_INT(x23, x26) # load rs2: x26 = 0x80000001
    1a1c:	000bad03          	lw	x26,0(x23)
    1a20:	004b8b93          	addi	x23,x23,4

00001a24 <I_sra_cg_cr_rs1_rs2_edges_rs1val_0x2_rs2val_0x80000001>:
I_sra_cg_cr_rs1_rs2_edges_rs1val_0x2_rs2val_0x80000001:
  sra x11, x18, x26 # perform operation
    1a24:	41a955b3          	sra	x11,x18,x26
  # Check if x11 contains the expected result. x1 is the signature ptr, x5 is the link ptr, x4 is a temp reg.
  RVTEST_SIGUPD(x1, x5, x4, x11, I_sra_cg_cr_rs1_rs2_edges_rs1val_0x2_rs2val_0x80000001, I_sra_cg_cr_rs1_rs2_edges_rs1val_0x2_rs2val_0x80000001_str)
    1a28:	0000a203          	lw	x4,0(x1)
    1a2c:	00b20863          	beq	x4,x11,1a3c <I_sra_cg_cr_rs1_rs2_edges_rs1val_0x2_rs2val_0x80000001+0x18>
    1a30:	28d022ef          	jal	x5,44bc <failedtest_x5_x4>
    1a34:	00001a24          	.word	0x00001a24
    1a38:	0000ad25          	.word	0x0000ad25
    1a3c:	00408093          	addi	x1,x1,4

# Testcase cr_rs1_rs2_edges (Test source rs1 = 0x00000002 rs2 = 0x7fffffff)
  RVTEST_TESTDATA_LOAD_INT(x23, x22) # load rs1: x22 = 0x00000002
    1a40:	000bab03          	lw	x22,0(x23)
    1a44:	004b8b93          	addi	x23,x23,4
  RVTEST_TESTDATA_LOAD_INT(x23, x16) # load rs2: x16 = 0x7fffffff
    1a48:	000ba803          	lw	x16,0(x23)
    1a4c:	004b8b93          	addi	x23,x23,4

00001a50 <I_sra_cg_cr_rs1_rs2_edges_rs1val_0x2_rs2val_0x7fffffff>:
I_sra_cg_cr_rs1_rs2_edges_rs1val_0x2_rs2val_0x7fffffff:
  sra x20, x22, x16 # perform operation
    1a50:	410b5a33          	sra	x20,x22,x16
  # Check if x20 contains the expected result. x1 is the signature ptr, x5 is the link ptr, x4 is a temp reg.
  RVTEST_SIGUPD(x1, x5, x4, x20, I_sra_cg_cr_rs1_rs2_edges_rs1val_0x2_rs2val_0x7fffffff, I_sra_cg_cr_rs1_rs2_edges_rs1val_0x2_rs2val_0x7fffffff_str)
    1a54:	0000a203          	lw	x4,0(x1)
    1a58:	01420863          	beq	x4,x20,1a68 <I_sra_cg_cr_rs1_rs2_edges_rs1val_0x2_rs2val_0x7fffffff+0x18>
    1a5c:	261022ef          	jal	x5,44bc <failedtest_x5_x4>
    1a60:	00001a50          	.word	0x00001a50
    1a64:	0000ad79          	.word	0x0000ad79
    1a68:	00408093          	addi	x1,x1,4

# Testcase cr_rs1_rs2_edges (Test source rs1 = 0x00000002 rs2 = 0x7ffffffe)
  RVTEST_TESTDATA_LOAD_INT(x23, x20) # load rs1: x20 = 0x00000002
    1a6c:	000baa03          	lw	x20,0(x23)
    1a70:	004b8b93          	addi	x23,x23,4
  RVTEST_TESTDATA_LOAD_INT(x23, x6) # load rs2: x6 = 0x7ffffffe
    1a74:	000ba303          	lw	x6,0(x23)
    1a78:	004b8b93          	addi	x23,x23,4

00001a7c <I_sra_cg_cr_rs1_rs2_edges_rs1val_0x2_rs2val_0x7ffffffe>:
I_sra_cg_cr_rs1_rs2_edges_rs1val_0x2_rs2val_0x7ffffffe:
  sra x8, x20, x6 # perform operation
    1a7c:	406a5433          	sra	x8,x20,x6
  # Check if x8 contains the expected result. x1 is the signature ptr, x5 is the link ptr, x4 is a temp reg.
  RVTEST_SIGUPD(x1, x5, x4, x8, I_sra_cg_cr_rs1_rs2_edges_rs1val_0x2_rs2val_0x7ffffffe, I_sra_cg_cr_rs1_rs2_edges_rs1val_0x2_rs2val_0x7ffffffe_str)
    1a80:	0000a203          	lw	x4,0(x1)
    1a84:	00820863          	beq	x4,x8,1a94 <I_sra_cg_cr_rs1_rs2_edges_rs1val_0x2_rs2val_0x7ffffffe+0x18>
    1a88:	235022ef          	jal	x5,44bc <failedtest_x5_x4>
    1a8c:	00001a7c          	.word	0x00001a7c
    1a90:	0000adcd          	.word	0x0000adcd
    1a94:	00408093          	addi	x1,x1,4

# Testcase cr_rs1_rs2_edges (Test source rs1 = 0x00000002 rs2 = 0xffffffff)
  RVTEST_TESTDATA_LOAD_INT(x23, x7) # load rs1: x7 = 0x00000002
    1a98:	000ba383          	lw	x7,0(x23)
    1a9c:	004b8b93          	addi	x23,x23,4
  RVTEST_TESTDATA_LOAD_INT(x23, x30) # load rs2: x30 = 0xffffffff
    1aa0:	000baf03          	lw	x30,0(x23)
    1aa4:	004b8b93          	addi	x23,x23,4

00001aa8 <I_sra_cg_cr_rs1_rs2_edges_rs1val_0x2_rs2val_0xffffffff>:
I_sra_cg_cr_rs1_rs2_edges_rs1val_0x2_rs2val_0xffffffff:
  sra x14, x7, x30 # perform operation
    1aa8:	41e3d733          	sra	x14,x7,x30
  # Check if x14 contains the expected result. x1 is the signature ptr, x5 is the link ptr, x4 is a temp reg.
  RVTEST_SIGUPD(x1, x5, x4, x14, I_sra_cg_cr_rs1_rs2_edges_rs1val_0x2_rs2val_0xffffffff, I_sra_cg_cr_rs1_rs2_edges_rs1val_0x2_rs2val_0xffffffff_str)
    1aac:	0000a203          	lw	x4,0(x1)
    1ab0:	00e20863          	beq	x4,x14,1ac0 <I_sra_cg_cr_rs1_rs2_edges_rs1val_0x2_rs2val_0xffffffff+0x18>
    1ab4:	209022ef          	jal	x5,44bc <failedtest_x5_x4>
    1ab8:	00001aa8          	.word	0x00001aa8
    1abc:	0000ae21          	.word	0x0000ae21
    1ac0:	00408093          	addi	x1,x1,4

# Testcase cr_rs1_rs2_edges (Test source rs1 = 0x00000002 rs2 = 0xfffffffe)
  RVTEST_TESTDATA_LOAD_INT(x23, x14) # load rs1: x14 = 0x00000002
    1ac4:	000ba703          	lw	x14,0(x23)
    1ac8:	004b8b93          	addi	x23,x23,4
  RVTEST_TESTDATA_LOAD_INT(x23, x3) # load rs2: x3 = 0xfffffffe
    1acc:	000ba183          	lw	x3,0(x23)
    1ad0:	004b8b93          	addi	x23,x23,4

00001ad4 <I_sra_cg_cr_rs1_rs2_edges_rs1val_0x2_rs2val_0xfffffffe>:
I_sra_cg_cr_rs1_rs2_edges_rs1val_0x2_rs2val_0xfffffffe:
  sra x11, x14, x3 # perform operation
    1ad4:	403755b3          	sra	x11,x14,x3
  # Check if x11 contains the expected result. x1 is the signature ptr, x5 is the link ptr, x4 is a temp reg.
  RVTEST_SIGUPD(x1, x5, x4, x11, I_sra_cg_cr_rs1_rs2_edges_rs1val_0x2_rs2val_0xfffffffe, I_sra_cg_cr_rs1_rs2_edges_rs1val_0x2_rs2val_0xfffffffe_str)
    1ad8:	0000a203          	lw	x4,0(x1)
    1adc:	00b20863          	beq	x4,x11,1aec <I_sra_cg_cr_rs1_rs2_edges_rs1val_0x2_rs2val_0xfffffffe+0x18>
    1ae0:	1dd022ef          	jal	x5,44bc <failedtest_x5_x4>
    1ae4:	00001ad4          	.word	0x00001ad4
    1ae8:	0000ae75          	.word	0x0000ae75
    1aec:	00408093          	addi	x1,x1,4

# Testcase cr_rs1_rs2_edges (Test source rs1 = 0x00000002 rs2 = 0x5bbc8872)
  RVTEST_TESTDATA_LOAD_INT(x23, x11) # load rs1: x11 = 0x00000002
    1af0:	000ba583          	lw	x11,0(x23)
    1af4:	004b8b93          	addi	x23,x23,4
  RVTEST_TESTDATA_LOAD_INT(x23, x16) # load rs2: x16 = 0x5bbc8872
    1af8:	000ba803          	lw	x16,0(x23)
    1afc:	004b8b93          	addi	x23,x23,4

00001b00 <I_sra_cg_cr_rs1_rs2_edges_rs1val_0x2_rs2val_0x5bbc8872>:
I_sra_cg_cr_rs1_rs2_edges_rs1val_0x2_rs2val_0x5bbc8872:
  sra x30, x11, x16 # perform operation
    1b00:	4105df33          	sra	x30,x11,x16
  # Check if x30 contains the expected result. x1 is the signature ptr, x5 is the link ptr, x4 is a temp reg.
  RVTEST_SIGUPD(x1, x5, x4, x30, I_sra_cg_cr_rs1_rs2_edges_rs1val_0x2_rs2val_0x5bbc8872, I_sra_cg_cr_rs1_rs2_edges_rs1val_0x2_rs2val_0x5bbc8872_str)
    1b04:	0000a203          	lw	x4,0(x1)
    1b08:	01e20863          	beq	x4,x30,1b18 <I_sra_cg_cr_rs1_rs2_edges_rs1val_0x2_rs2val_0x5bbc8872+0x18>
    1b0c:	1b1022ef          	jal	x5,44bc <failedtest_x5_x4>
    1b10:	00001b00          	.word	0x00001b00
    1b14:	0000aec9          	.word	0x0000aec9
    1b18:	00408093          	addi	x1,x1,4

# Testcase cr_rs1_rs2_edges (Test source rs1 = 0x00000002 rs2 = 0xaaaaaaaa)
  RVTEST_TESTDATA_LOAD_INT(x23, x14) # load rs1: x14 = 0x00000002
    1b1c:	000ba703          	lw	x14,0(x23)
    1b20:	004b8b93          	addi	x23,x23,4
  RVTEST_TESTDATA_LOAD_INT(x23, x27) # load rs2: x27 = 0xaaaaaaaa
    1b24:	000bad83          	lw	x27,0(x23)
    1b28:	004b8b93          	addi	x23,x23,4

00001b2c <I_sra_cg_cr_rs1_rs2_edges_rs1val_0x2_rs2val_0xaaaaaaaa>:
I_sra_cg_cr_rs1_rs2_edges_rs1val_0x2_rs2val_0xaaaaaaaa:
  sra x17, x14, x27 # perform operation
    1b2c:	41b758b3          	sra	x17,x14,x27
  # Check if x17 contains the expected result. x1 is the signature ptr, x5 is the link ptr, x4 is a temp reg.
  RVTEST_SIGUPD(x1, x5, x4, x17, I_sra_cg_cr_rs1_rs2_edges_rs1val_0x2_rs2val_0xaaaaaaaa, I_sra_cg_cr_rs1_rs2_edges_rs1val_0x2_rs2val_0xaaaaaaaa_str)
    1b30:	0000a203          	lw	x4,0(x1)
    1b34:	01120863          	beq	x4,x17,1b44 <I_sra_cg_cr_rs1_rs2_edges_rs1val_0x2_rs2val_0xaaaaaaaa+0x18>
    1b38:	185022ef          	jal	x5,44bc <failedtest_x5_x4>
    1b3c:	00001b2c          	.word	0x00001b2c
    1b40:	0000af1d          	.word	0x0000af1d
    1b44:	00408093          	addi	x1,x1,4

# Testcase cr_rs1_rs2_edges (Test source rs1 = 0x00000002 rs2 = 0x55555555)
  RVTEST_TESTDATA_LOAD_INT(x23, x27) # load rs1: x27 = 0x00000002
    1b48:	000bad83          	lw	x27,0(x23)
    1b4c:	004b8b93          	addi	x23,x23,4
  RVTEST_TESTDATA_LOAD_INT(x23, x12) # load rs2: x12 = 0x55555555
    1b50:	000ba603          	lw	x12,0(x23)
    1b54:	004b8b93          	addi	x23,x23,4

00001b58 <I_sra_cg_cr_rs1_rs2_edges_rs1val_0x2_rs2val_0x55555555>:
I_sra_cg_cr_rs1_rs2_edges_rs1val_0x2_rs2val_0x55555555:
  sra x2, x27, x12 # perform operation
    1b58:	40cdd133          	sra	x2,x27,x12
  # Check if x2 contains the expected result. x1 is the signature ptr, x5 is the link ptr, x4 is a temp reg.
  RVTEST_SIGUPD(x1, x5, x4, x2, I_sra_cg_cr_rs1_rs2_edges_rs1val_0x2_rs2val_0x55555555, I_sra_cg_cr_rs1_rs2_edges_rs1val_0x2_rs2val_0x55555555_str)
    1b5c:	0000a203          	lw	x4,0(x1)
    1b60:	00220863          	beq	x4,x2,1b70 <I_sra_cg_cr_rs1_rs2_edges_rs1val_0x2_rs2val_0x55555555+0x18>
    1b64:	159022ef          	jal	x5,44bc <failedtest_x5_x4>
    1b68:	00001b58          	.word	0x00001b58
    1b6c:	0000af71          	.word	0x0000af71
    1b70:	00408093          	addi	x1,x1,4

# Testcase cr_rs1_rs2_edges (Test source rs1 = 0x80000000 rs2 = 0x00000000)
  RVTEST_TESTDATA_LOAD_INT(x23, x6) # load rs1: x6 = 0x80000000
    1b74:	000ba303          	lw	x6,0(x23)
    1b78:	004b8b93          	addi	x23,x23,4
  RVTEST_TESTDATA_LOAD_INT(x23, x22) # load rs2: x22 = 0x00000000
    1b7c:	000bab03          	lw	x22,0(x23)
    1b80:	004b8b93          	addi	x23,x23,4

00001b84 <I_sra_cg_cr_rs1_rs2_edges_rs1val_0x80000000_rs2val_0x0>:
I_sra_cg_cr_rs1_rs2_edges_rs1val_0x80000000_rs2val_0x0:
  sra x24, x6, x22 # perform operation
    1b84:	41635c33          	sra	x24,x6,x22
  # Check if x24 contains the expected result. x1 is the signature ptr, x5 is the link ptr, x4 is a temp reg.
  RVTEST_SIGUPD(x1, x5, x4, x24, I_sra_cg_cr_rs1_rs2_edges_rs1val_0x80000000_rs2val_0x0, I_sra_cg_cr_rs1_rs2_edges_rs1val_0x80000000_rs2val_0x0_str)
    1b88:	0000a203          	lw	x4,0(x1)
    1b8c:	01820863          	beq	x4,x24,1b9c <I_sra_cg_cr_rs1_rs2_edges_rs1val_0x80000000_rs2val_0x0+0x18>
    1b90:	12d022ef          	jal	x5,44bc <failedtest_x5_x4>
    1b94:	00001b84          	.word	0x00001b84
    1b98:	0000afc5          	.word	0x0000afc5
    1b9c:	00408093          	addi	x1,x1,4

# Testcase cr_rs1_rs2_edges (Test source rs1 = 0x80000000 rs2 = 0x00000001)
  RVTEST_TESTDATA_LOAD_INT(x23, x26) # load rs1: x26 = 0x80000000
    1ba0:	000bad03          	lw	x26,0(x23)
    1ba4:	004b8b93          	addi	x23,x23,4
  RVTEST_TESTDATA_LOAD_INT(x23, x25) # load rs2: x25 = 0x00000001
    1ba8:	000bac83          	lw	x25,0(x23)
    1bac:	004b8b93          	addi	x23,x23,4

00001bb0 <I_sra_cg_cr_rs1_rs2_edges_rs1val_0x80000000_rs2val_0x1>:
I_sra_cg_cr_rs1_rs2_edges_rs1val_0x80000000_rs2val_0x1:
  sra x8, x26, x25 # perform operation
    1bb0:	419d5433          	sra	x8,x26,x25
  # Check if x8 contains the expected result. x1 is the signature ptr, x5 is the link ptr, x4 is a temp reg.
  RVTEST_SIGUPD(x1, x5, x4, x8, I_sra_cg_cr_rs1_rs2_edges_rs1val_0x80000000_rs2val_0x1, I_sra_cg_cr_rs1_rs2_edges_rs1val_0x80000000_rs2val_0x1_str)
    1bb4:	0000a203          	lw	x4,0(x1)
    1bb8:	00820863          	beq	x4,x8,1bc8 <I_sra_cg_cr_rs1_rs2_edges_rs1val_0x80000000_rs2val_0x1+0x18>
    1bbc:	101022ef          	jal	x5,44bc <failedtest_x5_x4>
    1bc0:	00001bb0          	.word	0x00001bb0
    1bc4:	0000b019          	.word	0x0000b019
    1bc8:	00408093          	addi	x1,x1,4

# Testcase cr_rs1_rs2_edges (Test source rs1 = 0x80000000 rs2 = 0x00000002)
  RVTEST_TESTDATA_LOAD_INT(x23, x24) # load rs1: x24 = 0x80000000
    1bcc:	000bac03          	lw	x24,0(x23)
    1bd0:	004b8b93          	addi	x23,x23,4
  RVTEST_TESTDATA_LOAD_INT(x23, x11) # load rs2: x11 = 0x00000002
    1bd4:	000ba583          	lw	x11,0(x23)
    1bd8:	004b8b93          	addi	x23,x23,4

00001bdc <I_sra_cg_cr_rs1_rs2_edges_rs1val_0x80000000_rs2val_0x2>:
I_sra_cg_cr_rs1_rs2_edges_rs1val_0x80000000_rs2val_0x2:
  sra x15, x24, x11 # perform operation
    1bdc:	40bc57b3          	sra	x15,x24,x11
  # Check if x15 contains the expected result. x1 is the signature ptr, x5 is the link ptr, x4 is a temp reg.
  RVTEST_SIGUPD(x1, x5, x4, x15, I_sra_cg_cr_rs1_rs2_edges_rs1val_0x80000000_rs2val_0x2, I_sra_cg_cr_rs1_rs2_edges_rs1val_0x80000000_rs2val_0x2_str)
    1be0:	0000a203          	lw	x4,0(x1)
    1be4:	00f20863          	beq	x4,x15,1bf4 <I_sra_cg_cr_rs1_rs2_edges_rs1val_0x80000000_rs2val_0x2+0x18>
    1be8:	0d5022ef          	jal	x5,44bc <failedtest_x5_x4>
    1bec:	00001bdc          	.word	0x00001bdc
    1bf0:	0000b06d          	.word	0x0000b06d
    1bf4:	00408093          	addi	x1,x1,4

# Testcase cr_rs1_rs2_edges (Test source rs1 = 0x80000000 rs2 = 0x80000000)
  RVTEST_TESTDATA_LOAD_INT(x23, x28) # load rs1: x28 = 0x80000000
    1bf8:	000bae03          	lw	x28,0(x23)
    1bfc:	004b8b93          	addi	x23,x23,4
  RVTEST_TESTDATA_LOAD_INT(x23, x11) # load rs2: x11 = 0x80000000
    1c00:	000ba583          	lw	x11,0(x23)
    1c04:	004b8b93          	addi	x23,x23,4

00001c08 <I_sra_cg_cr_rs1_rs2_edges_rs1val_0x80000000_rs2val_0x80000000>:
I_sra_cg_cr_rs1_rs2_edges_rs1val_0x80000000_rs2val_0x80000000:
  sra x27, x28, x11 # perform operation
    1c08:	40be5db3          	sra	x27,x28,x11
  # Check if x27 contains the expected result. x1 is the signature ptr, x5 is the link ptr, x4 is a temp reg.
  RVTEST_SIGUPD(x1, x5, x4, x27, I_sra_cg_cr_rs1_rs2_edges_rs1val_0x80000000_rs2val_0x80000000, I_sra_cg_cr_rs1_rs2_edges_rs1val_0x80000000_rs2val_0x80000000_str)
    1c0c:	0000a203          	lw	x4,0(x1)
    1c10:	01b20863          	beq	x4,x27,1c20 <I_sra_cg_cr_rs1_rs2_edges_rs1val_0x80000000_rs2val_0x80000000+0x18>
    1c14:	0a9022ef          	jal	x5,44bc <failedtest_x5_x4>
    1c18:	00001c08          	.word	0x00001c08
    1c1c:	0000b0c1          	.word	0x0000b0c1
    1c20:	00408093          	addi	x1,x1,4

# Testcase cr_rs1_rs2_edges (Test source rs1 = 0x80000000 rs2 = 0x80000001)
  RVTEST_TESTDATA_LOAD_INT(x23, x15) # load rs1: x15 = 0x80000000
    1c24:	000ba783          	lw	x15,0(x23)
    1c28:	004b8b93          	addi	x23,x23,4
  RVTEST_TESTDATA_LOAD_INT(x23, x8) # load rs2: x8 = 0x80000001
    1c2c:	000ba403          	lw	x8,0(x23)
    1c30:	004b8b93          	addi	x23,x23,4

00001c34 <I_sra_cg_cr_rs1_rs2_edges_rs1val_0x80000000_rs2val_0x80000001>:
I_sra_cg_cr_rs1_rs2_edges_rs1val_0x80000000_rs2val_0x80000001:
  sra x19, x15, x8 # perform operation
    1c34:	4087d9b3          	sra	x19,x15,x8
  # Check if x19 contains the expected result. x1 is the signature ptr, x5 is the link ptr, x4 is a temp reg.
  RVTEST_SIGUPD(x1, x5, x4, x19, I_sra_cg_cr_rs1_rs2_edges_rs1val_0x80000000_rs2val_0x80000001, I_sra_cg_cr_rs1_rs2_edges_rs1val_0x80000000_rs2val_0x80000001_str)
    1c38:	0000a203          	lw	x4,0(x1)
    1c3c:	01320863          	beq	x4,x19,1c4c <I_sra_cg_cr_rs1_rs2_edges_rs1val_0x80000000_rs2val_0x80000001+0x18>
    1c40:	07d022ef          	jal	x5,44bc <failedtest_x5_x4>
    1c44:	00001c34          	.word	0x00001c34
    1c48:	0000b11c          	.word	0x0000b11c
    1c4c:	00408093          	addi	x1,x1,4

# Testcase cr_rs1_rs2_edges (Test source rs1 = 0x80000000 rs2 = 0x7fffffff)
  RVTEST_TESTDATA_LOAD_INT(x23, x9) # load rs1: x9 = 0x80000000
    1c50:	000ba483          	lw	x9,0(x23)
    1c54:	004b8b93          	addi	x23,x23,4
  RVTEST_TESTDATA_LOAD_INT(x23, x30) # load rs2: x30 = 0x7fffffff
    1c58:	000baf03          	lw	x30,0(x23)
    1c5c:	004b8b93          	addi	x23,x23,4

00001c60 <I_sra_cg_cr_rs1_rs2_edges_rs1val_0x80000000_rs2val_0x7fffffff>:
I_sra_cg_cr_rs1_rs2_edges_rs1val_0x80000000_rs2val_0x7fffffff:
  sra x28, x9, x30 # perform operation
    1c60:	41e4de33          	sra	x28,x9,x30
  # Check if x28 contains the expected result. x1 is the signature ptr, x5 is the link ptr, x4 is a temp reg.
  RVTEST_SIGUPD(x1, x5, x4, x28, I_sra_cg_cr_rs1_rs2_edges_rs1val_0x80000000_rs2val_0x7fffffff, I_sra_cg_cr_rs1_rs2_edges_rs1val_0x80000000_rs2val_0x7fffffff_str)
    1c64:	0000a203          	lw	x4,0(x1)
    1c68:	01c20863          	beq	x4,x28,1c78 <I_sra_cg_cr_rs1_rs2_edges_rs1val_0x80000000_rs2val_0x7fffffff+0x18>
    1c6c:	051022ef          	jal	x5,44bc <failedtest_x5_x4>
    1c70:	00001c60          	.word	0x00001c60
    1c74:	0000b177          	.word	0x0000b177
    1c78:	00408093          	addi	x1,x1,4

# Testcase cr_rs1_rs2_edges (Test source rs1 = 0x80000000 rs2 = 0x7ffffffe)
  RVTEST_TESTDATA_LOAD_INT(x23, x3) # load rs1: x3 = 0x80000000
    1c7c:	000ba183          	lw	x3,0(x23)
    1c80:	004b8b93          	addi	x23,x23,4
  RVTEST_TESTDATA_LOAD_INT(x23, x30) # load rs2: x30 = 0x7ffffffe
    1c84:	000baf03          	lw	x30,0(x23)
    1c88:	004b8b93          	addi	x23,x23,4

00001c8c <I_sra_cg_cr_rs1_rs2_edges_rs1val_0x80000000_rs2val_0x7ffffffe>:
I_sra_cg_cr_rs1_rs2_edges_rs1val_0x80000000_rs2val_0x7ffffffe:
  sra x31, x3, x30 # perform operation
    1c8c:	41e1dfb3          	sra	x31,x3,x30
  # Check if x31 contains the expected result. x1 is the signature ptr, x5 is the link ptr, x4 is a temp reg.
  RVTEST_SIGUPD(x1, x5, x4, x31, I_sra_cg_cr_rs1_rs2_edges_rs1val_0x80000000_rs2val_0x7ffffffe, I_sra_cg_cr_rs1_rs2_edges_rs1val_0x80000000_rs2val_0x7ffffffe_str)
    1c90:	0000a203          	lw	x4,0(x1)
    1c94:	01f20863          	beq	x4,x31,1ca4 <I_sra_cg_cr_rs1_rs2_edges_rs1val_0x80000000_rs2val_0x7ffffffe+0x18>
    1c98:	025022ef          	jal	x5,44bc <failedtest_x5_x4>
    1c9c:	00001c8c          	.word	0x00001c8c
    1ca0:	0000b1d2          	.word	0x0000b1d2
    1ca4:	00408093          	addi	x1,x1,4

# Testcase cr_rs1_rs2_edges (Test source rs1 = 0x80000000 rs2 = 0xffffffff)
  RVTEST_TESTDATA_LOAD_INT(x23, x9) # load rs1: x9 = 0x80000000
    1ca8:	000ba483          	lw	x9,0(x23)
    1cac:	004b8b93          	addi	x23,x23,4
  RVTEST_TESTDATA_LOAD_INT(x23, x14) # load rs2: x14 = 0xffffffff
    1cb0:	000ba703          	lw	x14,0(x23)
    1cb4:	004b8b93          	addi	x23,x23,4

00001cb8 <I_sra_cg_cr_rs1_rs2_edges_rs1val_0x80000000_rs2val_0xffffffff>:
I_sra_cg_cr_rs1_rs2_edges_rs1val_0x80000000_rs2val_0xffffffff:
  sra x26, x9, x14 # perform operation
    1cb8:	40e4dd33          	sra	x26,x9,x14
  # Check if x26 contains the expected result. x1 is the signature ptr, x5 is the link ptr, x4 is a temp reg.
  RVTEST_SIGUPD(x1, x5, x4, x26, I_sra_cg_cr_rs1_rs2_edges_rs1val_0x80000000_rs2val_0xffffffff, I_sra_cg_cr_rs1_rs2_edges_rs1val_0x80000000_rs2val_0xffffffff_str)
    1cbc:	0000a203          	lw	x4,0(x1)
    1cc0:	01a20863          	beq	x4,x26,1cd0 <I_sra_cg_cr_rs1_rs2_edges_rs1val_0x80000000_rs2val_0xffffffff+0x18>
    1cc4:	7f8022ef          	jal	x5,44bc <failedtest_x5_x4>
    1cc8:	00001cb8          	.word	0x00001cb8
    1ccc:	0000b22d          	.word	0x0000b22d
    1cd0:	00408093          	addi	x1,x1,4

# Testcase cr_rs1_rs2_edges (Test source rs1 = 0x80000000 rs2 = 0xfffffffe)
  RVTEST_TESTDATA_LOAD_INT(x23, x21) # load rs1: x21 = 0x80000000
    1cd4:	000baa83          	lw	x21,0(x23)
    1cd8:	004b8b93          	addi	x23,x23,4
  RVTEST_TESTDATA_LOAD_INT(x23, x25) # load rs2: x25 = 0xfffffffe
    1cdc:	000bac83          	lw	x25,0(x23)
    1ce0:	004b8b93          	addi	x23,x23,4

00001ce4 <I_sra_cg_cr_rs1_rs2_edges_rs1val_0x80000000_rs2val_0xfffffffe>:
I_sra_cg_cr_rs1_rs2_edges_rs1val_0x80000000_rs2val_0xfffffffe:
  sra x9, x21, x25 # perform operation
    1ce4:	419ad4b3          	sra	x9,x21,x25
  # Check if x9 contains the expected result. x1 is the signature ptr, x5 is the link ptr, x4 is a temp reg.
  RVTEST_SIGUPD(x1, x5, x4, x9, I_sra_cg_cr_rs1_rs2_edges_rs1val_0x80000000_rs2val_0xfffffffe, I_sra_cg_cr_rs1_rs2_edges_rs1val_0x80000000_rs2val_0xfffffffe_str)
    1ce8:	0000a203          	lw	x4,0(x1)
    1cec:	00920863          	beq	x4,x9,1cfc <I_sra_cg_cr_rs1_rs2_edges_rs1val_0x80000000_rs2val_0xfffffffe+0x18>
    1cf0:	7cc022ef          	jal	x5,44bc <failedtest_x5_x4>
    1cf4:	00001ce4          	.word	0x00001ce4
    1cf8:	0000b288          	.word	0x0000b288
    1cfc:	00408093          	addi	x1,x1,4

# Testcase cr_rs1_rs2_edges (Test source rs1 = 0x80000000 rs2 = 0x5bbc8872)
  RVTEST_TESTDATA_LOAD_INT(x23, x29) # load rs1: x29 = 0x80000000
    1d00:	000bae83          	lw	x29,0(x23)
    1d04:	004b8b93          	addi	x23,x23,4
  RVTEST_TESTDATA_LOAD_INT(x23, x20) # load rs2: x20 = 0x5bbc8872
    1d08:	000baa03          	lw	x20,0(x23)
    1d0c:	004b8b93          	addi	x23,x23,4

00001d10 <I_sra_cg_cr_rs1_rs2_edges_rs1val_0x80000000_rs2val_0x5bbc8872>:
I_sra_cg_cr_rs1_rs2_edges_rs1val_0x80000000_rs2val_0x5bbc8872:
  sra x31, x29, x20 # perform operation
    1d10:	414edfb3          	sra	x31,x29,x20
  # Check if x31 contains the expected result. x1 is the signature ptr, x5 is the link ptr, x4 is a temp reg.
  RVTEST_SIGUPD(x1, x5, x4, x31, I_sra_cg_cr_rs1_rs2_edges_rs1val_0x80000000_rs2val_0x5bbc8872, I_sra_cg_cr_rs1_rs2_edges_rs1val_0x80000000_rs2val_0x5bbc8872_str)
    1d14:	0000a203          	lw	x4,0(x1)
    1d18:	01f20863          	beq	x4,x31,1d28 <I_sra_cg_cr_rs1_rs2_edges_rs1val_0x80000000_rs2val_0x5bbc8872+0x18>
    1d1c:	7a0022ef          	jal	x5,44bc <failedtest_x5_x4>
    1d20:	00001d10          	.word	0x00001d10
    1d24:	0000b2e3          	.word	0x0000b2e3
    1d28:	00408093          	addi	x1,x1,4

# Testcase cr_rs1_rs2_edges (Test source rs1 = 0x80000000 rs2 = 0xaaaaaaaa)
  RVTEST_TESTDATA_LOAD_INT(x23, x15) # load rs1: x15 = 0x80000000
    1d2c:	000ba783          	lw	x15,0(x23)
    1d30:	004b8b93          	addi	x23,x23,4
  RVTEST_TESTDATA_LOAD_INT(x23, x12) # load rs2: x12 = 0xaaaaaaaa
    1d34:	000ba603          	lw	x12,0(x23)
    1d38:	004b8b93          	addi	x23,x23,4

00001d3c <I_sra_cg_cr_rs1_rs2_edges_rs1val_0x80000000_rs2val_0xaaaaaaaa>:
I_sra_cg_cr_rs1_rs2_edges_rs1val_0x80000000_rs2val_0xaaaaaaaa:
  sra x26, x15, x12 # perform operation
    1d3c:	40c7dd33          	sra	x26,x15,x12
  # Check if x26 contains the expected result. x1 is the signature ptr, x5 is the link ptr, x4 is a temp reg.
  RVTEST_SIGUPD(x1, x5, x4, x26, I_sra_cg_cr_rs1_rs2_edges_rs1val_0x80000000_rs2val_0xaaaaaaaa, I_sra_cg_cr_rs1_rs2_edges_rs1val_0x80000000_rs2val_0xaaaaaaaa_str)
    1d40:	0000a203          	lw	x4,0(x1)
    1d44:	01a20863          	beq	x4,x26,1d54 <I_sra_cg_cr_rs1_rs2_edges_rs1val_0x80000000_rs2val_0xaaaaaaaa+0x18>
    1d48:	774022ef          	jal	x5,44bc <failedtest_x5_x4>
    1d4c:	00001d3c          	.word	0x00001d3c
    1d50:	0000b33e          	.word	0x0000b33e
    1d54:	00408093          	addi	x1,x1,4

# Testcase cr_rs1_rs2_edges (Test source rs1 = 0x80000000 rs2 = 0x55555555)
  RVTEST_TESTDATA_LOAD_INT(x23, x14) # load rs1: x14 = 0x80000000
    1d58:	000ba703          	lw	x14,0(x23)
    1d5c:	004b8b93          	addi	x23,x23,4
  RVTEST_TESTDATA_LOAD_INT(x23, x12) # load rs2: x12 = 0x55555555
    1d60:	000ba603          	lw	x12,0(x23)
    1d64:	004b8b93          	addi	x23,x23,4

00001d68 <I_sra_cg_cr_rs1_rs2_edges_rs1val_0x80000000_rs2val_0x55555555>:
I_sra_cg_cr_rs1_rs2_edges_rs1val_0x80000000_rs2val_0x55555555:
  sra x21, x14, x12 # perform operation
    1d68:	40c75ab3          	sra	x21,x14,x12
  # Check if x21 contains the expected result. x1 is the signature ptr, x5 is the link ptr, x4 is a temp reg.
  RVTEST_SIGUPD(x1, x5, x4, x21, I_sra_cg_cr_rs1_rs2_edges_rs1val_0x80000000_rs2val_0x55555555, I_sra_cg_cr_rs1_rs2_edges_rs1val_0x80000000_rs2val_0x55555555_str)
    1d6c:	0000a203          	lw	x4,0(x1)
    1d70:	01520863          	beq	x4,x21,1d80 <I_sra_cg_cr_rs1_rs2_edges_rs1val_0x80000000_rs2val_0x55555555+0x18>
    1d74:	748022ef          	jal	x5,44bc <failedtest_x5_x4>
    1d78:	00001d68          	.word	0x00001d68
    1d7c:	0000b399          	.word	0x0000b399
    1d80:	00408093          	addi	x1,x1,4

# Testcase cr_rs1_rs2_edges (Test source rs1 = 0x80000001 rs2 = 0x00000000)
  RVTEST_TESTDATA_LOAD_INT(x23, x15) # load rs1: x15 = 0x80000001
    1d84:	000ba783          	lw	x15,0(x23)
    1d88:	004b8b93          	addi	x23,x23,4
  RVTEST_TESTDATA_LOAD_INT(x23, x9) # load rs2: x9 = 0x00000000
    1d8c:	000ba483          	lw	x9,0(x23)
    1d90:	004b8b93          	addi	x23,x23,4

00001d94 <I_sra_cg_cr_rs1_rs2_edges_rs1val_0x80000001_rs2val_0x0>:
I_sra_cg_cr_rs1_rs2_edges_rs1val_0x80000001_rs2val_0x0:
  sra x30, x15, x9 # perform operation
    1d94:	4097df33          	sra	x30,x15,x9
  # Check if x30 contains the expected result. x1 is the signature ptr, x5 is the link ptr, x4 is a temp reg.
  RVTEST_SIGUPD(x1, x5, x4, x30, I_sra_cg_cr_rs1_rs2_edges_rs1val_0x80000001_rs2val_0x0, I_sra_cg_cr_rs1_rs2_edges_rs1val_0x80000001_rs2val_0x0_str)
    1d98:	0000a203          	lw	x4,0(x1)
    1d9c:	01e20863          	beq	x4,x30,1dac <I_sra_cg_cr_rs1_rs2_edges_rs1val_0x80000001_rs2val_0x0+0x18>
    1da0:	71c022ef          	jal	x5,44bc <failedtest_x5_x4>
    1da4:	00001d94          	.word	0x00001d94
    1da8:	0000b3f4          	.word	0x0000b3f4
    1dac:	00408093          	addi	x1,x1,4

# Testcase cr_rs1_rs2_edges (Test source rs1 = 0x80000001 rs2 = 0x00000001)
  RVTEST_TESTDATA_LOAD_INT(x23, x16) # load rs1: x16 = 0x80000001
    1db0:	000ba803          	lw	x16,0(x23)
    1db4:	004b8b93          	addi	x23,x23,4
  RVTEST_TESTDATA_LOAD_INT(x23, x3) # load rs2: x3 = 0x00000001
    1db8:	000ba183          	lw	x3,0(x23)
    1dbc:	004b8b93          	addi	x23,x23,4

00001dc0 <I_sra_cg_cr_rs1_rs2_edges_rs1val_0x80000001_rs2val_0x1>:
I_sra_cg_cr_rs1_rs2_edges_rs1val_0x80000001_rs2val_0x1:
  sra x31, x16, x3 # perform operation
    1dc0:	40385fb3          	sra	x31,x16,x3
  # Check if x31 contains the expected result. x1 is the signature ptr, x5 is the link ptr, x4 is a temp reg.
  RVTEST_SIGUPD(x1, x5, x4, x31, I_sra_cg_cr_rs1_rs2_edges_rs1val_0x80000001_rs2val_0x1, I_sra_cg_cr_rs1_rs2_edges_rs1val_0x80000001_rs2val_0x1_str)
    1dc4:	0000a203          	lw	x4,0(x1)
    1dc8:	01f20863          	beq	x4,x31,1dd8 <I_sra_cg_cr_rs1_rs2_edges_rs1val_0x80000001_rs2val_0x1+0x18>
    1dcc:	6f0022ef          	jal	x5,44bc <failedtest_x5_x4>
    1dd0:	00001dc0          	.word	0x00001dc0
    1dd4:	0000b448          	.word	0x0000b448
    1dd8:	00408093          	addi	x1,x1,4

# Testcase cr_rs1_rs2_edges (Test source rs1 = 0x80000001 rs2 = 0x00000002)
  RVTEST_TESTDATA_LOAD_INT(x23, x18) # load rs1: x18 = 0x80000001
    1ddc:	000ba903          	lw	x18,0(x23)
    1de0:	004b8b93          	addi	x23,x23,4
  RVTEST_TESTDATA_LOAD_INT(x23, x27) # load rs2: x27 = 0x00000002
    1de4:	000bad83          	lw	x27,0(x23)
    1de8:	004b8b93          	addi	x23,x23,4

00001dec <I_sra_cg_cr_rs1_rs2_edges_rs1val_0x80000001_rs2val_0x2>:
I_sra_cg_cr_rs1_rs2_edges_rs1val_0x80000001_rs2val_0x2:
  sra x24, x18, x27 # perform operation
    1dec:	41b95c33          	sra	x24,x18,x27
  # Check if x24 contains the expected result. x1 is the signature ptr, x5 is the link ptr, x4 is a temp reg.
  RVTEST_SIGUPD(x1, x5, x4, x24, I_sra_cg_cr_rs1_rs2_edges_rs1val_0x80000001_rs2val_0x2, I_sra_cg_cr_rs1_rs2_edges_rs1val_0x80000001_rs2val_0x2_str)
    1df0:	0000a203          	lw	x4,0(x1)
    1df4:	01820863          	beq	x4,x24,1e04 <I_sra_cg_cr_rs1_rs2_edges_rs1val_0x80000001_rs2val_0x2+0x18>
    1df8:	6c4022ef          	jal	x5,44bc <failedtest_x5_x4>
    1dfc:	00001dec          	.word	0x00001dec
    1e00:	0000b49c          	.word	0x0000b49c
    1e04:	00408093          	addi	x1,x1,4

# Testcase cr_rs1_rs2_edges (Test source rs1 = 0x80000001 rs2 = 0x80000000)
  RVTEST_TESTDATA_LOAD_INT(x23, x15) # load rs1: x15 = 0x80000001
    1e08:	000ba783          	lw	x15,0(x23)
    1e0c:	004b8b93          	addi	x23,x23,4
  RVTEST_TESTDATA_LOAD_INT(x23, x17) # load rs2: x17 = 0x80000000
    1e10:	000ba883          	lw	x17,0(x23)
    1e14:	004b8b93          	addi	x23,x23,4

00001e18 <I_sra_cg_cr_rs1_rs2_edges_rs1val_0x80000001_rs2val_0x80000000>:
I_sra_cg_cr_rs1_rs2_edges_rs1val_0x80000001_rs2val_0x80000000:
  sra x6, x15, x17 # perform operation
    1e18:	4117d333          	sra	x6,x15,x17
  # Check if x6 contains the expected result. x1 is the signature ptr, x5 is the link ptr, x4 is a temp reg.
  RVTEST_SIGUPD(x1, x5, x4, x6, I_sra_cg_cr_rs1_rs2_edges_rs1val_0x80000001_rs2val_0x80000000, I_sra_cg_cr_rs1_rs2_edges_rs1val_0x80000001_rs2val_0x80000000_str)
    1e1c:	0000a203          	lw	x4,0(x1)
    1e20:	00620863          	beq	x4,x6,1e30 <I_sra_cg_cr_rs1_rs2_edges_rs1val_0x80000001_rs2val_0x80000000+0x18>
    1e24:	698022ef          	jal	x5,44bc <failedtest_x5_x4>
    1e28:	00001e18          	.word	0x00001e18
    1e2c:	0000b4f0          	.word	0x0000b4f0
    1e30:	00408093          	addi	x1,x1,4

# Testcase cr_rs1_rs2_edges (Test source rs1 = 0x80000001 rs2 = 0x80000001)
  RVTEST_TESTDATA_LOAD_INT(x23, x3) # load rs1: x3 = 0x80000001
    1e34:	000ba183          	lw	x3,0(x23)
    1e38:	004b8b93          	addi	x23,x23,4
  RVTEST_TESTDATA_LOAD_INT(x23, x15) # load rs2: x15 = 0x80000001
    1e3c:	000ba783          	lw	x15,0(x23)
    1e40:	004b8b93          	addi	x23,x23,4

00001e44 <I_sra_cg_cr_rs1_rs2_edges_rs1val_0x80000001_rs2val_0x80000001>:
I_sra_cg_cr_rs1_rs2_edges_rs1val_0x80000001_rs2val_0x80000001:
  sra x31, x3, x15 # perform operation
    1e44:	40f1dfb3          	sra	x31,x3,x15
  # Check if x31 contains the expected result. x1 is the signature ptr, x5 is the link ptr, x4 is a temp reg.
  RVTEST_SIGUPD(x1, x5, x4, x31, I_sra_cg_cr_rs1_rs2_edges_rs1val_0x80000001_rs2val_0x80000001, I_sra_cg_cr_rs1_rs2_edges_rs1val_0x80000001_rs2val_0x80000001_str)
    1e48:	0000a203          	lw	x4,0(x1)
    1e4c:	01f20863          	beq	x4,x31,1e5c <I_sra_cg_cr_rs1_rs2_edges_rs1val_0x80000001_rs2val_0x80000001+0x18>
    1e50:	66c022ef          	jal	x5,44bc <failedtest_x5_x4>
    1e54:	00001e44          	.word	0x00001e44
    1e58:	0000b54b          	.word	0x0000b54b
    1e5c:	00408093          	addi	x1,x1,4

# Testcase cr_rs1_rs2_edges (Test source rs1 = 0x80000001 rs2 = 0x7fffffff)
  RVTEST_TESTDATA_LOAD_INT(x23, x11) # load rs1: x11 = 0x80000001
    1e60:	000ba583          	lw	x11,0(x23)
    1e64:	004b8b93          	addi	x23,x23,4
  RVTEST_TESTDATA_LOAD_INT(x23, x21) # load rs2: x21 = 0x7fffffff
    1e68:	000baa83          	lw	x21,0(x23)
    1e6c:	004b8b93          	addi	x23,x23,4

00001e70 <I_sra_cg_cr_rs1_rs2_edges_rs1val_0x80000001_rs2val_0x7fffffff>:
I_sra_cg_cr_rs1_rs2_edges_rs1val_0x80000001_rs2val_0x7fffffff:
  sra x2, x11, x21 # perform operation
    1e70:	4155d133          	sra	x2,x11,x21
  # Check if x2 contains the expected result. x1 is the signature ptr, x5 is the link ptr, x4 is a temp reg.
  RVTEST_SIGUPD(x1, x5, x4, x2, I_sra_cg_cr_rs1_rs2_edges_rs1val_0x80000001_rs2val_0x7fffffff, I_sra_cg_cr_rs1_rs2_edges_rs1val_0x80000001_rs2val_0x7fffffff_str)
    1e74:	0000a203          	lw	x4,0(x1)
    1e78:	00220863          	beq	x4,x2,1e88 <I_sra_cg_cr_rs1_rs2_edges_rs1val_0x80000001_rs2val_0x7fffffff+0x18>
    1e7c:	640022ef          	jal	x5,44bc <failedtest_x5_x4>
    1e80:	00001e70          	.word	0x00001e70
    1e84:	0000b5a6          	.word	0x0000b5a6
    1e88:	00408093          	addi	x1,x1,4

# Testcase cr_rs1_rs2_edges (Test source rs1 = 0x80000001 rs2 = 0x7ffffffe)
  RVTEST_TESTDATA_LOAD_INT(x23, x10) # load rs1: x10 = 0x80000001
    1e8c:	000ba503          	lw	x10,0(x23)
    1e90:	004b8b93          	addi	x23,x23,4
  RVTEST_TESTDATA_LOAD_INT(x23, x11) # load rs2: x11 = 0x7ffffffe
    1e94:	000ba583          	lw	x11,0(x23)
    1e98:	004b8b93          	addi	x23,x23,4

00001e9c <I_sra_cg_cr_rs1_rs2_edges_rs1val_0x80000001_rs2val_0x7ffffffe>:
I_sra_cg_cr_rs1_rs2_edges_rs1val_0x80000001_rs2val_0x7ffffffe:
  sra x31, x10, x11 # perform operation
    1e9c:	40b55fb3          	sra	x31,x10,x11
  # Check if x31 contains the expected result. x1 is the signature ptr, x5 is the link ptr, x4 is a temp reg.
  RVTEST_SIGUPD(x1, x5, x4, x31, I_sra_cg_cr_rs1_rs2_edges_rs1val_0x80000001_rs2val_0x7ffffffe, I_sra_cg_cr_rs1_rs2_edges_rs1val_0x80000001_rs2val_0x7ffffffe_str)
    1ea0:	0000a203          	lw	x4,0(x1)
    1ea4:	01f20863          	beq	x4,x31,1eb4 <I_sra_cg_cr_rs1_rs2_edges_rs1val_0x80000001_rs2val_0x7ffffffe+0x18>
    1ea8:	614022ef          	jal	x5,44bc <failedtest_x5_x4>
    1eac:	00001e9c          	.word	0x00001e9c
    1eb0:	0000b601          	.word	0x0000b601
    1eb4:	00408093          	addi	x1,x1,4

# Testcase cr_rs1_rs2_edges (Test source rs1 = 0x80000001 rs2 = 0xffffffff)
  RVTEST_TESTDATA_LOAD_INT(x23, x12) # load rs1: x12 = 0x80000001
    1eb8:	000ba603          	lw	x12,0(x23)
    1ebc:	004b8b93          	addi	x23,x23,4
  RVTEST_TESTDATA_LOAD_INT(x23, x29) # load rs2: x29 = 0xffffffff
    1ec0:	000bae83          	lw	x29,0(x23)
    1ec4:	004b8b93          	addi	x23,x23,4

00001ec8 <I_sra_cg_cr_rs1_rs2_edges_rs1val_0x80000001_rs2val_0xffffffff>:
I_sra_cg_cr_rs1_rs2_edges_rs1val_0x80000001_rs2val_0xffffffff:
  sra x7, x12, x29 # perform operation
    1ec8:	41d653b3          	sra	x7,x12,x29
  # Check if x7 contains the expected result. x1 is the signature ptr, x5 is the link ptr, x4 is a temp reg.
  RVTEST_SIGUPD(x1, x5, x4, x7, I_sra_cg_cr_rs1_rs2_edges_rs1val_0x80000001_rs2val_0xffffffff, I_sra_cg_cr_rs1_rs2_edges_rs1val_0x80000001_rs2val_0xffffffff_str)
    1ecc:	0000a203          	lw	x4,0(x1)
    1ed0:	00720863          	beq	x4,x7,1ee0 <I_sra_cg_cr_rs1_rs2_edges_rs1val_0x80000001_rs2val_0xffffffff+0x18>
    1ed4:	5e8022ef          	jal	x5,44bc <failedtest_x5_x4>
    1ed8:	00001ec8          	.word	0x00001ec8
    1edc:	0000b65c          	.word	0x0000b65c
    1ee0:	00408093          	addi	x1,x1,4

# Testcase cr_rs1_rs2_edges (Test source rs1 = 0x80000001 rs2 = 0xfffffffe)
  RVTEST_TESTDATA_LOAD_INT(x23, x16) # load rs1: x16 = 0x80000001
    1ee4:	000ba803          	lw	x16,0(x23)
    1ee8:	004b8b93          	addi	x23,x23,4
  RVTEST_TESTDATA_LOAD_INT(x23, x18) # load rs2: x18 = 0xfffffffe
    1eec:	000ba903          	lw	x18,0(x23)
    1ef0:	004b8b93          	addi	x23,x23,4

00001ef4 <I_sra_cg_cr_rs1_rs2_edges_rs1val_0x80000001_rs2val_0xfffffffe>:
I_sra_cg_cr_rs1_rs2_edges_rs1val_0x80000001_rs2val_0xfffffffe:
  sra x2, x16, x18 # perform operation
    1ef4:	41285133          	sra	x2,x16,x18
  # Check if x2 contains the expected result. x1 is the signature ptr, x5 is the link ptr, x4 is a temp reg.
  RVTEST_SIGUPD(x1, x5, x4, x2, I_sra_cg_cr_rs1_rs2_edges_rs1val_0x80000001_rs2val_0xfffffffe, I_sra_cg_cr_rs1_rs2_edges_rs1val_0x80000001_rs2val_0xfffffffe_str)
    1ef8:	0000a203          	lw	x4,0(x1)
    1efc:	00220863          	beq	x4,x2,1f0c <I_sra_cg_cr_rs1_rs2_edges_rs1val_0x80000001_rs2val_0xfffffffe+0x18>
    1f00:	5bc022ef          	jal	x5,44bc <failedtest_x5_x4>
    1f04:	00001ef4          	.word	0x00001ef4
    1f08:	0000b6b7          	.word	0x0000b6b7
    1f0c:	00408093          	addi	x1,x1,4

# Testcase cr_rs1_rs2_edges (Test source rs1 = 0x80000001 rs2 = 0x5bbc8872)
  RVTEST_TESTDATA_LOAD_INT(x23, x8) # load rs1: x8 = 0x80000001
    1f10:	000ba403          	lw	x8,0(x23)
    1f14:	004b8b93          	addi	x23,x23,4
  RVTEST_TESTDATA_LOAD_INT(x23, x16) # load rs2: x16 = 0x5bbc8872
    1f18:	000ba803          	lw	x16,0(x23)
    1f1c:	004b8b93          	addi	x23,x23,4

00001f20 <I_sra_cg_cr_rs1_rs2_edges_rs1val_0x80000001_rs2val_0x5bbc8872>:
I_sra_cg_cr_rs1_rs2_edges_rs1val_0x80000001_rs2val_0x5bbc8872:
  sra x26, x8, x16 # perform operation
    1f20:	41045d33          	sra	x26,x8,x16
  # Check if x26 contains the expected result. x1 is the signature ptr, x5 is the link ptr, x4 is a temp reg.
  RVTEST_SIGUPD(x1, x5, x4, x26, I_sra_cg_cr_rs1_rs2_edges_rs1val_0x80000001_rs2val_0x5bbc8872, I_sra_cg_cr_rs1_rs2_edges_rs1val_0x80000001_rs2val_0x5bbc8872_str)
    1f24:	0000a203          	lw	x4,0(x1)
    1f28:	01a20863          	beq	x4,x26,1f38 <I_sra_cg_cr_rs1_rs2_edges_rs1val_0x80000001_rs2val_0x5bbc8872+0x18>
    1f2c:	590022ef          	jal	x5,44bc <failedtest_x5_x4>
    1f30:	00001f20          	.word	0x00001f20
    1f34:	0000b712          	.word	0x0000b712
    1f38:	00408093          	addi	x1,x1,4

# Testcase cr_rs1_rs2_edges (Test source rs1 = 0x80000001 rs2 = 0xaaaaaaaa)
  RVTEST_TESTDATA_LOAD_INT(x23, x7) # load rs1: x7 = 0x80000001
    1f3c:	000ba383          	lw	x7,0(x23)
    1f40:	004b8b93          	addi	x23,x23,4
  RVTEST_TESTDATA_LOAD_INT(x23, x10) # load rs2: x10 = 0xaaaaaaaa
    1f44:	000ba503          	lw	x10,0(x23)
    1f48:	004b8b93          	addi	x23,x23,4

00001f4c <I_sra_cg_cr_rs1_rs2_edges_rs1val_0x80000001_rs2val_0xaaaaaaaa>:
I_sra_cg_cr_rs1_rs2_edges_rs1val_0x80000001_rs2val_0xaaaaaaaa:
  sra x28, x7, x10 # perform operation
    1f4c:	40a3de33          	sra	x28,x7,x10
  # Check if x28 contains the expected result. x1 is the signature ptr, x5 is the link ptr, x4 is a temp reg.
  RVTEST_SIGUPD(x1, x5, x4, x28, I_sra_cg_cr_rs1_rs2_edges_rs1val_0x80000001_rs2val_0xaaaaaaaa, I_sra_cg_cr_rs1_rs2_edges_rs1val_0x80000001_rs2val_0xaaaaaaaa_str)
    1f50:	0000a203          	lw	x4,0(x1)
    1f54:	01c20863          	beq	x4,x28,1f64 <I_sra_cg_cr_rs1_rs2_edges_rs1val_0x80000001_rs2val_0xaaaaaaaa+0x18>
    1f58:	564022ef          	jal	x5,44bc <failedtest_x5_x4>
    1f5c:	00001f4c          	.word	0x00001f4c
    1f60:	0000b76d          	.word	0x0000b76d
    1f64:	00408093          	addi	x1,x1,4

# Testcase cr_rs1_rs2_edges (Test source rs1 = 0x80000001 rs2 = 0x55555555)
  RVTEST_TESTDATA_LOAD_INT(x23, x9) # load rs1: x9 = 0x80000001
    1f68:	000ba483          	lw	x9,0(x23)
    1f6c:	004b8b93          	addi	x23,x23,4
  RVTEST_TESTDATA_LOAD_INT(x23, x19) # load rs2: x19 = 0x55555555
    1f70:	000ba983          	lw	x19,0(x23)
    1f74:	004b8b93          	addi	x23,x23,4

00001f78 <I_sra_cg_cr_rs1_rs2_edges_rs1val_0x80000001_rs2val_0x55555555>:
I_sra_cg_cr_rs1_rs2_edges_rs1val_0x80000001_rs2val_0x55555555:
  sra x31, x9, x19 # perform operation
    1f78:	4134dfb3          	sra	x31,x9,x19
  # Check if x31 contains the expected result. x1 is the signature ptr, x5 is the link ptr, x4 is a temp reg.
  RVTEST_SIGUPD(x1, x5, x4, x31, I_sra_cg_cr_rs1_rs2_edges_rs1val_0x80000001_rs2val_0x55555555, I_sra_cg_cr_rs1_rs2_edges_rs1val_0x80000001_rs2val_0x55555555_str)
    1f7c:	0000a203          	lw	x4,0(x1)
    1f80:	01f20863          	beq	x4,x31,1f90 <I_sra_cg_cr_rs1_rs2_edges_rs1val_0x80000001_rs2val_0x55555555+0x18>
    1f84:	538022ef          	jal	x5,44bc <failedtest_x5_x4>
    1f88:	00001f78          	.word	0x00001f78
    1f8c:	0000b7c8          	.word	0x0000b7c8
    1f90:	00408093          	addi	x1,x1,4

# Testcase cr_rs1_rs2_edges (Test source rs1 = 0x7fffffff rs2 = 0x00000000)
  RVTEST_TESTDATA_LOAD_INT(x23, x9) # load rs1: x9 = 0x7fffffff
    1f94:	000ba483          	lw	x9,0(x23)
    1f98:	004b8b93          	addi	x23,x23,4
  RVTEST_TESTDATA_LOAD_INT(x23, x6) # load rs2: x6 = 0x00000000
    1f9c:	000ba303          	lw	x6,0(x23)
    1fa0:	004b8b93          	addi	x23,x23,4

00001fa4 <I_sra_cg_cr_rs1_rs2_edges_rs1val_0x7fffffff_rs2val_0x0>:
I_sra_cg_cr_rs1_rs2_edges_rs1val_0x7fffffff_rs2val_0x0:
  sra x24, x9, x6 # perform operation
    1fa4:	4064dc33          	sra	x24,x9,x6
  # Check if x24 contains the expected result. x1 is the signature ptr, x5 is the link ptr, x4 is a temp reg.
  RVTEST_SIGUPD(x1, x5, x4, x24, I_sra_cg_cr_rs1_rs2_edges_rs1val_0x7fffffff_rs2val_0x0, I_sra_cg_cr_rs1_rs2_edges_rs1val_0x7fffffff_rs2val_0x0_str)
    1fa8:	0000a203          	lw	x4,0(x1)
    1fac:	01820863          	beq	x4,x24,1fbc <I_sra_cg_cr_rs1_rs2_edges_rs1val_0x7fffffff_rs2val_0x0+0x18>
    1fb0:	50c022ef          	jal	x5,44bc <failedtest_x5_x4>
    1fb4:	00001fa4          	.word	0x00001fa4
    1fb8:	0000b823          	.word	0x0000b823
    1fbc:	00408093          	addi	x1,x1,4

# Testcase cr_rs1_rs2_edges (Test source rs1 = 0x7fffffff rs2 = 0x00000001)
  RVTEST_TESTDATA_LOAD_INT(x23, x9) # load rs1: x9 = 0x7fffffff
    1fc0:	000ba483          	lw	x9,0(x23)
    1fc4:	004b8b93          	addi	x23,x23,4
  RVTEST_TESTDATA_LOAD_INT(x23, x30) # load rs2: x30 = 0x00000001
    1fc8:	000baf03          	lw	x30,0(x23)
    1fcc:	004b8b93          	addi	x23,x23,4

00001fd0 <I_sra_cg_cr_rs1_rs2_edges_rs1val_0x7fffffff_rs2val_0x1>:
I_sra_cg_cr_rs1_rs2_edges_rs1val_0x7fffffff_rs2val_0x1:
  sra x14, x9, x30 # perform operation
    1fd0:	41e4d733          	sra	x14,x9,x30
  # Check if x14 contains the expected result. x1 is the signature ptr, x5 is the link ptr, x4 is a temp reg.
  RVTEST_SIGUPD(x1, x5, x4, x14, I_sra_cg_cr_rs1_rs2_edges_rs1val_0x7fffffff_rs2val_0x1, I_sra_cg_cr_rs1_rs2_edges_rs1val_0x7fffffff_rs2val_0x1_str)
    1fd4:	0000a203          	lw	x4,0(x1)
    1fd8:	00e20863          	beq	x4,x14,1fe8 <I_sra_cg_cr_rs1_rs2_edges_rs1val_0x7fffffff_rs2val_0x1+0x18>
    1fdc:	4e0022ef          	jal	x5,44bc <failedtest_x5_x4>
    1fe0:	00001fd0          	.word	0x00001fd0
    1fe4:	0000b877          	.word	0x0000b877
    1fe8:	00408093          	addi	x1,x1,4

# Testcase cr_rs1_rs2_edges (Test source rs1 = 0x7fffffff rs2 = 0x00000002)
  RVTEST_TESTDATA_LOAD_INT(x23, x17) # load rs1: x17 = 0x7fffffff
    1fec:	000ba883          	lw	x17,0(x23)
    1ff0:	004b8b93          	addi	x23,x23,4
  RVTEST_TESTDATA_LOAD_INT(x23, x13) # load rs2: x13 = 0x00000002
    1ff4:	000ba683          	lw	x13,0(x23)
    1ff8:	004b8b93          	addi	x23,x23,4

00001ffc <I_sra_cg_cr_rs1_rs2_edges_rs1val_0x7fffffff_rs2val_0x2>:
I_sra_cg_cr_rs1_rs2_edges_rs1val_0x7fffffff_rs2val_0x2:
  sra x2, x17, x13 # perform operation
    1ffc:	40d8d133          	sra	x2,x17,x13
  # Check if x2 contains the expected result. x1 is the signature ptr, x5 is the link ptr, x4 is a temp reg.
  RVTEST_SIGUPD(x1, x5, x4, x2, I_sra_cg_cr_rs1_rs2_edges_rs1val_0x7fffffff_rs2val_0x2, I_sra_cg_cr_rs1_rs2_edges_rs1val_0x7fffffff_rs2val_0x2_str)
    2000:	0000a203          	lw	x4,0(x1)
    2004:	00220863          	beq	x4,x2,2014 <I_sra_cg_cr_rs1_rs2_edges_rs1val_0x7fffffff_rs2val_0x2+0x18>
    2008:	4b4022ef          	jal	x5,44bc <failedtest_x5_x4>
    200c:	00001ffc          	.word	0x00001ffc
    2010:	0000b8cb          	.word	0x0000b8cb
    2014:	00408093          	addi	x1,x1,4

# Testcase cr_rs1_rs2_edges (Test source rs1 = 0x7fffffff rs2 = 0x80000000)
  RVTEST_TESTDATA_LOAD_INT(x23, x14) # load rs1: x14 = 0x7fffffff
    2018:	000ba703          	lw	x14,0(x23)
    201c:	004b8b93          	addi	x23,x23,4
  RVTEST_TESTDATA_LOAD_INT(x23, x24) # load rs2: x24 = 0x80000000
    2020:	000bac03          	lw	x24,0(x23)
    2024:	004b8b93          	addi	x23,x23,4

00002028 <I_sra_cg_cr_rs1_rs2_edges_rs1val_0x7fffffff_rs2val_0x80000000>:
I_sra_cg_cr_rs1_rs2_edges_rs1val_0x7fffffff_rs2val_0x80000000:
  sra x25, x14, x24 # perform operation
    2028:	41875cb3          	sra	x25,x14,x24
  # Check if x25 contains the expected result. x1 is the signature ptr, x5 is the link ptr, x4 is a temp reg.
  RVTEST_SIGUPD(x1, x5, x4, x25, I_sra_cg_cr_rs1_rs2_edges_rs1val_0x7fffffff_rs2val_0x80000000, I_sra_cg_cr_rs1_rs2_edges_rs1val_0x7fffffff_rs2val_0x80000000_str)
    202c:	0000a203          	lw	x4,0(x1)
    2030:	01920863          	beq	x4,x25,2040 <I_sra_cg_cr_rs1_rs2_edges_rs1val_0x7fffffff_rs2val_0x80000000+0x18>
    2034:	488022ef          	jal	x5,44bc <failedtest_x5_x4>
    2038:	00002028          	.word	0x00002028
    203c:	0000b91f          	.word	0x0000b91f
    2040:	00408093          	addi	x1,x1,4

# Testcase cr_rs1_rs2_edges (Test source rs1 = 0x7fffffff rs2 = 0x80000001)
  RVTEST_TESTDATA_LOAD_INT(x23, x9) # load rs1: x9 = 0x7fffffff
    2044:	000ba483          	lw	x9,0(x23)
    2048:	004b8b93          	addi	x23,x23,4
  RVTEST_TESTDATA_LOAD_INT(x23, x31) # load rs2: x31 = 0x80000001
    204c:	000baf83          	lw	x31,0(x23)
    2050:	004b8b93          	addi	x23,x23,4

00002054 <I_sra_cg_cr_rs1_rs2_edges_rs1val_0x7fffffff_rs2val_0x80000001>:
I_sra_cg_cr_rs1_rs2_edges_rs1val_0x7fffffff_rs2val_0x80000001:
  sra x7, x9, x31 # perform operation
    2054:	41f4d3b3          	sra	x7,x9,x31
  # Check if x7 contains the expected result. x1 is the signature ptr, x5 is the link ptr, x4 is a temp reg.
  RVTEST_SIGUPD(x1, x5, x4, x7, I_sra_cg_cr_rs1_rs2_edges_rs1val_0x7fffffff_rs2val_0x80000001, I_sra_cg_cr_rs1_rs2_edges_rs1val_0x7fffffff_rs2val_0x80000001_str)
    2058:	0000a203          	lw	x4,0(x1)
    205c:	00720863          	beq	x4,x7,206c <I_sra_cg_cr_rs1_rs2_edges_rs1val_0x7fffffff_rs2val_0x80000001+0x18>
    2060:	45c022ef          	jal	x5,44bc <failedtest_x5_x4>
    2064:	00002054          	.word	0x00002054
    2068:	0000b97a          	.word	0x0000b97a
    206c:	00408093          	addi	x1,x1,4

# Testcase cr_rs1_rs2_edges (Test source rs1 = 0x7fffffff rs2 = 0x7fffffff)
  RVTEST_TESTDATA_LOAD_INT(x23, x20) # load rs1: x20 = 0x7fffffff
    2070:	000baa03          	lw	x20,0(x23)
    2074:	004b8b93          	addi	x23,x23,4
  RVTEST_TESTDATA_LOAD_INT(x23, x19) # load rs2: x19 = 0x7fffffff
    2078:	000ba983          	lw	x19,0(x23)
    207c:	004b8b93          	addi	x23,x23,4

00002080 <I_sra_cg_cr_rs1_rs2_edges_rs1val_0x7fffffff_rs2val_0x7fffffff>:
I_sra_cg_cr_rs1_rs2_edges_rs1val_0x7fffffff_rs2val_0x7fffffff:
  sra x28, x20, x19 # perform operation
    2080:	413a5e33          	sra	x28,x20,x19
  # Check if x28 contains the expected result. x1 is the signature ptr, x5 is the link ptr, x4 is a temp reg.
  RVTEST_SIGUPD(x1, x5, x4, x28, I_sra_cg_cr_rs1_rs2_edges_rs1val_0x7fffffff_rs2val_0x7fffffff, I_sra_cg_cr_rs1_rs2_edges_rs1val_0x7fffffff_rs2val_0x7fffffff_str)
    2084:	0000a203          	lw	x4,0(x1)
    2088:	01c20863          	beq	x4,x28,2098 <I_sra_cg_cr_rs1_rs2_edges_rs1val_0x7fffffff_rs2val_0x7fffffff+0x18>
    208c:	430022ef          	jal	x5,44bc <failedtest_x5_x4>
    2090:	00002080          	.word	0x00002080
    2094:	0000b9d5          	.word	0x0000b9d5
    2098:	00408093          	addi	x1,x1,4

# Testcase cr_rs1_rs2_edges (Test source rs1 = 0x7fffffff rs2 = 0x7ffffffe)
  RVTEST_TESTDATA_LOAD_INT(x23, x8) # load rs1: x8 = 0x7fffffff
    209c:	000ba403          	lw	x8,0(x23)
    20a0:	004b8b93          	addi	x23,x23,4
  RVTEST_TESTDATA_LOAD_INT(x23, x2) # load rs2: x2 = 0x7ffffffe
    20a4:	000ba103          	lw	x2,0(x23)
    20a8:	004b8b93          	addi	x23,x23,4

000020ac <I_sra_cg_cr_rs1_rs2_edges_rs1val_0x7fffffff_rs2val_0x7ffffffe>:
I_sra_cg_cr_rs1_rs2_edges_rs1val_0x7fffffff_rs2val_0x7ffffffe:
  sra x3, x8, x2 # perform operation
    20ac:	402451b3          	sra	x3,x8,x2
  # Check if x3 contains the expected result. x1 is the signature ptr, x5 is the link ptr, x4 is a temp reg.
  RVTEST_SIGUPD(x1, x5, x4, x3, I_sra_cg_cr_rs1_rs2_edges_rs1val_0x7fffffff_rs2val_0x7ffffffe, I_sra_cg_cr_rs1_rs2_edges_rs1val_0x7fffffff_rs2val_0x7ffffffe_str)
    20b0:	0000a203          	lw	x4,0(x1)
    20b4:	00320863          	beq	x4,x3,20c4 <I_sra_cg_cr_rs1_rs2_edges_rs1val_0x7fffffff_rs2val_0x7ffffffe+0x18>
    20b8:	404022ef          	jal	x5,44bc <failedtest_x5_x4>
    20bc:	000020ac          	.word	0x000020ac
    20c0:	0000ba30          	.word	0x0000ba30
    20c4:	00408093          	addi	x1,x1,4

# Testcase cr_rs1_rs2_edges (Test source rs1 = 0x7fffffff rs2 = 0xffffffff)
  RVTEST_TESTDATA_LOAD_INT(x23, x15) # load rs1: x15 = 0x7fffffff
    20c8:	000ba783          	lw	x15,0(x23)
    20cc:	004b8b93          	addi	x23,x23,4
  RVTEST_TESTDATA_LOAD_INT(x23, x24) # load rs2: x24 = 0xffffffff
    20d0:	000bac03          	lw	x24,0(x23)
    20d4:	004b8b93          	addi	x23,x23,4

000020d8 <I_sra_cg_cr_rs1_rs2_edges_rs1val_0x7fffffff_rs2val_0xffffffff>:
I_sra_cg_cr_rs1_rs2_edges_rs1val_0x7fffffff_rs2val_0xffffffff:
  sra x7, x15, x24 # perform operation
    20d8:	4187d3b3          	sra	x7,x15,x24
  # Check if x7 contains the expected result. x1 is the signature ptr, x5 is the link ptr, x4 is a temp reg.
  RVTEST_SIGUPD(x1, x5, x4, x7, I_sra_cg_cr_rs1_rs2_edges_rs1val_0x7fffffff_rs2val_0xffffffff, I_sra_cg_cr_rs1_rs2_edges_rs1val_0x7fffffff_rs2val_0xffffffff_str)
    20dc:	0000a203          	lw	x4,0(x1)
    20e0:	00720863          	beq	x4,x7,20f0 <I_sra_cg_cr_rs1_rs2_edges_rs1val_0x7fffffff_rs2val_0xffffffff+0x18>
    20e4:	3d8022ef          	jal	x5,44bc <failedtest_x5_x4>
    20e8:	000020d8          	.word	0x000020d8
    20ec:	0000ba8b          	.word	0x0000ba8b
    20f0:	00408093          	addi	x1,x1,4

# Testcase cr_rs1_rs2_edges (Test source rs1 = 0x7fffffff rs2 = 0xfffffffe)
  RVTEST_TESTDATA_LOAD_INT(x23, x10) # load rs1: x10 = 0x7fffffff
    20f4:	000ba503          	lw	x10,0(x23)
    20f8:	004b8b93          	addi	x23,x23,4
  RVTEST_TESTDATA_LOAD_INT(x23, x25) # load rs2: x25 = 0xfffffffe
    20fc:	000bac83          	lw	x25,0(x23)
    2100:	004b8b93          	addi	x23,x23,4

00002104 <I_sra_cg_cr_rs1_rs2_edges_rs1val_0x7fffffff_rs2val_0xfffffffe>:
I_sra_cg_cr_rs1_rs2_edges_rs1val_0x7fffffff_rs2val_0xfffffffe:
  sra x9, x10, x25 # perform operation
    2104:	419554b3          	sra	x9,x10,x25
  # Check if x9 contains the expected result. x1 is the signature ptr, x5 is the link ptr, x4 is a temp reg.
  RVTEST_SIGUPD(x1, x5, x4, x9, I_sra_cg_cr_rs1_rs2_edges_rs1val_0x7fffffff_rs2val_0xfffffffe, I_sra_cg_cr_rs1_rs2_edges_rs1val_0x7fffffff_rs2val_0xfffffffe_str)
    2108:	0000a203          	lw	x4,0(x1)
    210c:	00920863          	beq	x4,x9,211c <I_sra_cg_cr_rs1_rs2_edges_rs1val_0x7fffffff_rs2val_0xfffffffe+0x18>
    2110:	3ac022ef          	jal	x5,44bc <failedtest_x5_x4>
    2114:	00002104          	.word	0x00002104
    2118:	0000bae6          	.word	0x0000bae6
    211c:	00408093          	addi	x1,x1,4

# Testcase cr_rs1_rs2_edges (Test source rs1 = 0x7fffffff rs2 = 0x5bbc8872)
  RVTEST_TESTDATA_LOAD_INT(x23, x27) # load rs1: x27 = 0x7fffffff
    2120:	000bad83          	lw	x27,0(x23)
    2124:	004b8b93          	addi	x23,x23,4
  RVTEST_TESTDATA_LOAD_INT(x23, x6) # load rs2: x6 = 0x5bbc8872
    2128:	000ba303          	lw	x6,0(x23)
    212c:	004b8b93          	addi	x23,x23,4

00002130 <I_sra_cg_cr_rs1_rs2_edges_rs1val_0x7fffffff_rs2val_0x5bbc8872>:
I_sra_cg_cr_rs1_rs2_edges_rs1val_0x7fffffff_rs2val_0x5bbc8872:
  sra x31, x27, x6 # perform operation
    2130:	406ddfb3          	sra	x31,x27,x6
  # Check if x31 contains the expected result. x1 is the signature ptr, x5 is the link ptr, x4 is a temp reg.
  RVTEST_SIGUPD(x1, x5, x4, x31, I_sra_cg_cr_rs1_rs2_edges_rs1val_0x7fffffff_rs2val_0x5bbc8872, I_sra_cg_cr_rs1_rs2_edges_rs1val_0x7fffffff_rs2val_0x5bbc8872_str)
    2134:	0000a203          	lw	x4,0(x1)
    2138:	01f20863          	beq	x4,x31,2148 <I_sra_cg_cr_rs1_rs2_edges_rs1val_0x7fffffff_rs2val_0x5bbc8872+0x18>
    213c:	380022ef          	jal	x5,44bc <failedtest_x5_x4>
    2140:	00002130          	.word	0x00002130
    2144:	0000bb41          	.word	0x0000bb41
    2148:	00408093          	addi	x1,x1,4

# Testcase cr_rs1_rs2_edges (Test source rs1 = 0x7fffffff rs2 = 0xaaaaaaaa)
  RVTEST_TESTDATA_LOAD_INT(x23, x15) # load rs1: x15 = 0x7fffffff
    214c:	000ba783          	lw	x15,0(x23)
    2150:	004b8b93          	addi	x23,x23,4
  RVTEST_TESTDATA_LOAD_INT(x23, x6) # load rs2: x6 = 0xaaaaaaaa
    2154:	000ba303          	lw	x6,0(x23)
    2158:	004b8b93          	addi	x23,x23,4

0000215c <I_sra_cg_cr_rs1_rs2_edges_rs1val_0x7fffffff_rs2val_0xaaaaaaaa>:
I_sra_cg_cr_rs1_rs2_edges_rs1val_0x7fffffff_rs2val_0xaaaaaaaa:
  sra x12, x15, x6 # perform operation
    215c:	4067d633          	sra	x12,x15,x6
  # Check if x12 contains the expected result. x1 is the signature ptr, x5 is the link ptr, x4 is a temp reg.
  RVTEST_SIGUPD(x1, x5, x4, x12, I_sra_cg_cr_rs1_rs2_edges_rs1val_0x7fffffff_rs2val_0xaaaaaaaa, I_sra_cg_cr_rs1_rs2_edges_rs1val_0x7fffffff_rs2val_0xaaaaaaaa_str)
    2160:	0000a203          	lw	x4,0(x1)
    2164:	00c20863          	beq	x4,x12,2174 <I_sra_cg_cr_rs1_rs2_edges_rs1val_0x7fffffff_rs2val_0xaaaaaaaa+0x18>
    2168:	354022ef          	jal	x5,44bc <failedtest_x5_x4>
    216c:	0000215c          	.word	0x0000215c
    2170:	0000bb9c          	.word	0x0000bb9c
    2174:	00408093          	addi	x1,x1,4

# Testcase cr_rs1_rs2_edges (Test source rs1 = 0x7fffffff rs2 = 0x55555555)
  RVTEST_TESTDATA_LOAD_INT(x23, x27) # load rs1: x27 = 0x7fffffff
    2178:	000bad83          	lw	x27,0(x23)
    217c:	004b8b93          	addi	x23,x23,4
  RVTEST_TESTDATA_LOAD_INT(x23, x15) # load rs2: x15 = 0x55555555
    2180:	000ba783          	lw	x15,0(x23)
    2184:	004b8b93          	addi	x23,x23,4

00002188 <I_sra_cg_cr_rs1_rs2_edges_rs1val_0x7fffffff_rs2val_0x55555555>:
I_sra_cg_cr_rs1_rs2_edges_rs1val_0x7fffffff_rs2val_0x55555555:
  sra x12, x27, x15 # perform operation
    2188:	40fdd633          	sra	x12,x27,x15
  # Check if x12 contains the expected result. x1 is the signature ptr, x5 is the link ptr, x4 is a temp reg.
  RVTEST_SIGUPD(x1, x5, x4, x12, I_sra_cg_cr_rs1_rs2_edges_rs1val_0x7fffffff_rs2val_0x55555555, I_sra_cg_cr_rs1_rs2_edges_rs1val_0x7fffffff_rs2val_0x55555555_str)
    218c:	0000a203          	lw	x4,0(x1)
    2190:	00c20863          	beq	x4,x12,21a0 <I_sra_cg_cr_rs1_rs2_edges_rs1val_0x7fffffff_rs2val_0x55555555+0x18>
    2194:	328022ef          	jal	x5,44bc <failedtest_x5_x4>
    2198:	00002188          	.word	0x00002188
    219c:	0000bbf7          	.word	0x0000bbf7
    21a0:	00408093          	addi	x1,x1,4

# Testcase cr_rs1_rs2_edges (Test source rs1 = 0x7ffffffe rs2 = 0x00000000)
  RVTEST_TESTDATA_LOAD_INT(x23, x22) # load rs1: x22 = 0x7ffffffe
    21a4:	000bab03          	lw	x22,0(x23)
    21a8:	004b8b93          	addi	x23,x23,4
  RVTEST_TESTDATA_LOAD_INT(x23, x12) # load rs2: x12 = 0x00000000
    21ac:	000ba603          	lw	x12,0(x23)
    21b0:	004b8b93          	addi	x23,x23,4

000021b4 <I_sra_cg_cr_rs1_rs2_edges_rs1val_0x7ffffffe_rs2val_0x0>:
I_sra_cg_cr_rs1_rs2_edges_rs1val_0x7ffffffe_rs2val_0x0:
  sra x20, x22, x12 # perform operation
    21b4:	40cb5a33          	sra	x20,x22,x12
  # Check if x20 contains the expected result. x1 is the signature ptr, x5 is the link ptr, x4 is a temp reg.
  RVTEST_SIGUPD(x1, x5, x4, x20, I_sra_cg_cr_rs1_rs2_edges_rs1val_0x7ffffffe_rs2val_0x0, I_sra_cg_cr_rs1_rs2_edges_rs1val_0x7ffffffe_rs2val_0x0_str)
    21b8:	0000a203          	lw	x4,0(x1)
    21bc:	01420863          	beq	x4,x20,21cc <I_sra_cg_cr_rs1_rs2_edges_rs1val_0x7ffffffe_rs2val_0x0+0x18>
    21c0:	2fc022ef          	jal	x5,44bc <failedtest_x5_x4>
    21c4:	000021b4          	.word	0x000021b4
    21c8:	0000bc52          	.word	0x0000bc52
    21cc:	00408093          	addi	x1,x1,4

# Testcase cr_rs1_rs2_edges (Test source rs1 = 0x7ffffffe rs2 = 0x00000001)
  RVTEST_TESTDATA_LOAD_INT(x23, x13) # load rs1: x13 = 0x7ffffffe
    21d0:	000ba683          	lw	x13,0(x23)
    21d4:	004b8b93          	addi	x23,x23,4
  RVTEST_TESTDATA_LOAD_INT(x23, x14) # load rs2: x14 = 0x00000001
    21d8:	000ba703          	lw	x14,0(x23)
    21dc:	004b8b93          	addi	x23,x23,4

000021e0 <I_sra_cg_cr_rs1_rs2_edges_rs1val_0x7ffffffe_rs2val_0x1>:
I_sra_cg_cr_rs1_rs2_edges_rs1val_0x7ffffffe_rs2val_0x1:
  sra x8, x13, x14 # perform operation
    21e0:	40e6d433          	sra	x8,x13,x14
  # Check if x8 contains the expected result. x1 is the signature ptr, x5 is the link ptr, x4 is a temp reg.
  RVTEST_SIGUPD(x1, x5, x4, x8, I_sra_cg_cr_rs1_rs2_edges_rs1val_0x7ffffffe_rs2val_0x1, I_sra_cg_cr_rs1_rs2_edges_rs1val_0x7ffffffe_rs2val_0x1_str)
    21e4:	0000a203          	lw	x4,0(x1)
    21e8:	00820863          	beq	x4,x8,21f8 <I_sra_cg_cr_rs1_rs2_edges_rs1val_0x7ffffffe_rs2val_0x1+0x18>
    21ec:	2d0022ef          	jal	x5,44bc <failedtest_x5_x4>
    21f0:	000021e0          	.word	0x000021e0
    21f4:	0000bca6          	.word	0x0000bca6
    21f8:	00408093          	addi	x1,x1,4

# Testcase cr_rs1_rs2_edges (Test source rs1 = 0x7ffffffe rs2 = 0x00000002)
  RVTEST_TESTDATA_LOAD_INT(x23, x20) # load rs1: x20 = 0x7ffffffe
    21fc:	000baa03          	lw	x20,0(x23)
    2200:	004b8b93          	addi	x23,x23,4
  RVTEST_TESTDATA_LOAD_INT(x23, x13) # load rs2: x13 = 0x00000002
    2204:	000ba683          	lw	x13,0(x23)
    2208:	004b8b93          	addi	x23,x23,4

0000220c <I_sra_cg_cr_rs1_rs2_edges_rs1val_0x7ffffffe_rs2val_0x2>:
I_sra_cg_cr_rs1_rs2_edges_rs1val_0x7ffffffe_rs2val_0x2:
  sra x7, x20, x13 # perform operation
    220c:	40da53b3          	sra	x7,x20,x13
  # Check if x7 contains the expected result. x1 is the signature ptr, x5 is the link ptr, x4 is a temp reg.
  RVTEST_SIGUPD(x1, x5, x4, x7, I_sra_cg_cr_rs1_rs2_edges_rs1val_0x7ffffffe_rs2val_0x2, I_sra_cg_cr_rs1_rs2_edges_rs1val_0x7ffffffe_rs2val_0x2_str)
    2210:	0000a203          	lw	x4,0(x1)
    2214:	00720863          	beq	x4,x7,2224 <I_sra_cg_cr_rs1_rs2_edges_rs1val_0x7ffffffe_rs2val_0x2+0x18>
    2218:	2a4022ef          	jal	x5,44bc <failedtest_x5_x4>
    221c:	0000220c          	.word	0x0000220c
    2220:	0000bcfa          	.word	0x0000bcfa
    2224:	00408093          	addi	x1,x1,4

# Testcase cr_rs1_rs2_edges (Test source rs1 = 0x7ffffffe rs2 = 0x80000000)
  RVTEST_TESTDATA_LOAD_INT(x23, x30) # load rs1: x30 = 0x7ffffffe
    2228:	000baf03          	lw	x30,0(x23)
    222c:	004b8b93          	addi	x23,x23,4
  RVTEST_TESTDATA_LOAD_INT(x23, x9) # load rs2: x9 = 0x80000000
    2230:	000ba483          	lw	x9,0(x23)
    2234:	004b8b93          	addi	x23,x23,4

00002238 <I_sra_cg_cr_rs1_rs2_edges_rs1val_0x7ffffffe_rs2val_0x80000000>:
I_sra_cg_cr_rs1_rs2_edges_rs1val_0x7ffffffe_rs2val_0x80000000:
  sra x24, x30, x9 # perform operation
    2238:	409f5c33          	sra	x24,x30,x9
  # Check if x24 contains the expected result. x1 is the signature ptr, x5 is the link ptr, x4 is a temp reg.
  RVTEST_SIGUPD(x1, x5, x4, x24, I_sra_cg_cr_rs1_rs2_edges_rs1val_0x7ffffffe_rs2val_0x80000000, I_sra_cg_cr_rs1_rs2_edges_rs1val_0x7ffffffe_rs2val_0x80000000_str)
    223c:	0000a203          	lw	x4,0(x1)
    2240:	01820863          	beq	x4,x24,2250 <I_sra_cg_cr_rs1_rs2_edges_rs1val_0x7ffffffe_rs2val_0x80000000+0x18>
    2244:	278022ef          	jal	x5,44bc <failedtest_x5_x4>
    2248:	00002238          	.word	0x00002238
    224c:	0000bd4e          	.word	0x0000bd4e
    2250:	00408093          	addi	x1,x1,4

# Testcase cr_rs1_rs2_edges (Test source rs1 = 0x7ffffffe rs2 = 0x80000001)
  RVTEST_TESTDATA_LOAD_INT(x23, x3) # load rs1: x3 = 0x7ffffffe
    2254:	000ba183          	lw	x3,0(x23)
    2258:	004b8b93          	addi	x23,x23,4
  RVTEST_TESTDATA_LOAD_INT(x23, x26) # load rs2: x26 = 0x80000001
    225c:	000bad03          	lw	x26,0(x23)
    2260:	004b8b93          	addi	x23,x23,4

00002264 <I_sra_cg_cr_rs1_rs2_edges_rs1val_0x7ffffffe_rs2val_0x80000001>:
I_sra_cg_cr_rs1_rs2_edges_rs1val_0x7ffffffe_rs2val_0x80000001:
  sra x20, x3, x26 # perform operation
    2264:	41a1da33          	sra	x20,x3,x26
  # Check if x20 contains the expected result. x1 is the signature ptr, x5 is the link ptr, x4 is a temp reg.
  RVTEST_SIGUPD(x1, x5, x4, x20, I_sra_cg_cr_rs1_rs2_edges_rs1val_0x7ffffffe_rs2val_0x80000001, I_sra_cg_cr_rs1_rs2_edges_rs1val_0x7ffffffe_rs2val_0x80000001_str)
    2268:	0000a203          	lw	x4,0(x1)
    226c:	01420863          	beq	x4,x20,227c <I_sra_cg_cr_rs1_rs2_edges_rs1val_0x7ffffffe_rs2val_0x80000001+0x18>
    2270:	24c022ef          	jal	x5,44bc <failedtest_x5_x4>
    2274:	00002264          	.word	0x00002264
    2278:	0000bda9          	.word	0x0000bda9
    227c:	00408093          	addi	x1,x1,4

# Testcase cr_rs1_rs2_edges (Test source rs1 = 0x7ffffffe rs2 = 0x7fffffff)
  RVTEST_TESTDATA_LOAD_INT(x23, x3) # load rs1: x3 = 0x7ffffffe
    2280:	000ba183          	lw	x3,0(x23)
    2284:	004b8b93          	addi	x23,x23,4
  RVTEST_TESTDATA_LOAD_INT(x23, x10) # load rs2: x10 = 0x7fffffff
    2288:	000ba503          	lw	x10,0(x23)
    228c:	004b8b93          	addi	x23,x23,4

00002290 <I_sra_cg_cr_rs1_rs2_edges_rs1val_0x7ffffffe_rs2val_0x7fffffff>:
I_sra_cg_cr_rs1_rs2_edges_rs1val_0x7ffffffe_rs2val_0x7fffffff:
  sra x17, x3, x10 # perform operation
    2290:	40a1d8b3          	sra	x17,x3,x10
  # Check if x17 contains the expected result. x1 is the signature ptr, x5 is the link ptr, x4 is a temp reg.
  RVTEST_SIGUPD(x1, x5, x4, x17, I_sra_cg_cr_rs1_rs2_edges_rs1val_0x7ffffffe_rs2val_0x7fffffff, I_sra_cg_cr_rs1_rs2_edges_rs1val_0x7ffffffe_rs2val_0x7fffffff_str)
    2294:	0000a203          	lw	x4,0(x1)
    2298:	01120863          	beq	x4,x17,22a8 <I_sra_cg_cr_rs1_rs2_edges_rs1val_0x7ffffffe_rs2val_0x7fffffff+0x18>
    229c:	220022ef          	jal	x5,44bc <failedtest_x5_x4>
    22a0:	00002290          	.word	0x00002290
    22a4:	0000be04          	.word	0x0000be04
    22a8:	00408093          	addi	x1,x1,4

# Testcase cr_rs1_rs2_edges (Test source rs1 = 0x7ffffffe rs2 = 0x7ffffffe)
  RVTEST_TESTDATA_LOAD_INT(x23, x7) # load rs1: x7 = 0x7ffffffe
    22ac:	000ba383          	lw	x7,0(x23)
    22b0:	004b8b93          	addi	x23,x23,4
  RVTEST_TESTDATA_LOAD_INT(x23, x15) # load rs2: x15 = 0x7ffffffe
    22b4:	000ba783          	lw	x15,0(x23)
    22b8:	004b8b93          	addi	x23,x23,4

000022bc <I_sra_cg_cr_rs1_rs2_edges_rs1val_0x7ffffffe_rs2val_0x7ffffffe>:
I_sra_cg_cr_rs1_rs2_edges_rs1val_0x7ffffffe_rs2val_0x7ffffffe:
  sra x22, x7, x15 # perform operation
    22bc:	40f3db33          	sra	x22,x7,x15
  # Check if x22 contains the expected result. x1 is the signature ptr, x5 is the link ptr, x4 is a temp reg.
  RVTEST_SIGUPD(x1, x5, x4, x22, I_sra_cg_cr_rs1_rs2_edges_rs1val_0x7ffffffe_rs2val_0x7ffffffe, I_sra_cg_cr_rs1_rs2_edges_rs1val_0x7ffffffe_rs2val_0x7ffffffe_str)
    22c0:	0000a203          	lw	x4,0(x1)
    22c4:	01620863          	beq	x4,x22,22d4 <I_sra_cg_cr_rs1_rs2_edges_rs1val_0x7ffffffe_rs2val_0x7ffffffe+0x18>
    22c8:	1f4022ef          	jal	x5,44bc <failedtest_x5_x4>
    22cc:	000022bc          	.word	0x000022bc
    22d0:	0000be5f          	.word	0x0000be5f
    22d4:	00408093          	addi	x1,x1,4

# Testcase cr_rs1_rs2_edges (Test source rs1 = 0x7ffffffe rs2 = 0xffffffff)
  RVTEST_TESTDATA_LOAD_INT(x23, x16) # load rs1: x16 = 0x7ffffffe
    22d8:	000ba803          	lw	x16,0(x23)
    22dc:	004b8b93          	addi	x23,x23,4
  RVTEST_TESTDATA_LOAD_INT(x23, x29) # load rs2: x29 = 0xffffffff
    22e0:	000bae83          	lw	x29,0(x23)
    22e4:	004b8b93          	addi	x23,x23,4

000022e8 <I_sra_cg_cr_rs1_rs2_edges_rs1val_0x7ffffffe_rs2val_0xffffffff>:
I_sra_cg_cr_rs1_rs2_edges_rs1val_0x7ffffffe_rs2val_0xffffffff:
  sra x26, x16, x29 # perform operation
    22e8:	41d85d33          	sra	x26,x16,x29
  # Check if x26 contains the expected result. x1 is the signature ptr, x5 is the link ptr, x4 is a temp reg.
  RVTEST_SIGUPD(x1, x5, x4, x26, I_sra_cg_cr_rs1_rs2_edges_rs1val_0x7ffffffe_rs2val_0xffffffff, I_sra_cg_cr_rs1_rs2_edges_rs1val_0x7ffffffe_rs2val_0xffffffff_str)
    22ec:	0000a203          	lw	x4,0(x1)
    22f0:	01a20863          	beq	x4,x26,2300 <I_sra_cg_cr_rs1_rs2_edges_rs1val_0x7ffffffe_rs2val_0xffffffff+0x18>
    22f4:	1c8022ef          	jal	x5,44bc <failedtest_x5_x4>
    22f8:	000022e8          	.word	0x000022e8
    22fc:	0000beba          	.word	0x0000beba
    2300:	00408093          	addi	x1,x1,4

# Testcase cr_rs1_rs2_edges (Test source rs1 = 0x7ffffffe rs2 = 0xfffffffe)
  RVTEST_TESTDATA_LOAD_INT(x23, x25) # load rs1: x25 = 0x7ffffffe
    2304:	000bac83          	lw	x25,0(x23)
    2308:	004b8b93          	addi	x23,x23,4
  RVTEST_TESTDATA_LOAD_INT(x23, x7) # load rs2: x7 = 0xfffffffe
    230c:	000ba383          	lw	x7,0(x23)
    2310:	004b8b93          	addi	x23,x23,4

00002314 <I_sra_cg_cr_rs1_rs2_edges_rs1val_0x7ffffffe_rs2val_0xfffffffe>:
I_sra_cg_cr_rs1_rs2_edges_rs1val_0x7ffffffe_rs2val_0xfffffffe:
  sra x31, x25, x7 # perform operation
    2314:	407cdfb3          	sra	x31,x25,x7
  # Check if x31 contains the expected result. x1 is the signature ptr, x5 is the link ptr, x4 is a temp reg.
  RVTEST_SIGUPD(x1, x5, x4, x31, I_sra_cg_cr_rs1_rs2_edges_rs1val_0x7ffffffe_rs2val_0xfffffffe, I_sra_cg_cr_rs1_rs2_edges_rs1val_0x7ffffffe_rs2val_0xfffffffe_str)
    2318:	0000a203          	lw	x4,0(x1)
    231c:	01f20863          	beq	x4,x31,232c <I_sra_cg_cr_rs1_rs2_edges_rs1val_0x7ffffffe_rs2val_0xfffffffe+0x18>
    2320:	19c022ef          	jal	x5,44bc <failedtest_x5_x4>
    2324:	00002314          	.word	0x00002314
    2328:	0000bf15          	.word	0x0000bf15
    232c:	00408093          	addi	x1,x1,4

# Testcase cr_rs1_rs2_edges (Test source rs1 = 0x7ffffffe rs2 = 0x5bbc8872)
  RVTEST_TESTDATA_LOAD_INT(x23, x14) # load rs1: x14 = 0x7ffffffe
    2330:	000ba703          	lw	x14,0(x23)
    2334:	004b8b93          	addi	x23,x23,4
  RVTEST_TESTDATA_LOAD_INT(x23, x15) # load rs2: x15 = 0x5bbc8872
    2338:	000ba783          	lw	x15,0(x23)
    233c:	004b8b93          	addi	x23,x23,4

00002340 <I_sra_cg_cr_rs1_rs2_edges_rs1val_0x7ffffffe_rs2val_0x5bbc8872>:
I_sra_cg_cr_rs1_rs2_edges_rs1val_0x7ffffffe_rs2val_0x5bbc8872:
  sra x16, x14, x15 # perform operation
    2340:	40f75833          	sra	x16,x14,x15
  # Check if x16 contains the expected result. x1 is the signature ptr, x5 is the link ptr, x4 is a temp reg.
  RVTEST_SIGUPD(x1, x5, x4, x16, I_sra_cg_cr_rs1_rs2_edges_rs1val_0x7ffffffe_rs2val_0x5bbc8872, I_sra_cg_cr_rs1_rs2_edges_rs1val_0x7ffffffe_rs2val_0x5bbc8872_str)
    2344:	0000a203          	lw	x4,0(x1)
    2348:	01020863          	beq	x4,x16,2358 <I_sra_cg_cr_rs1_rs2_edges_rs1val_0x7ffffffe_rs2val_0x5bbc8872+0x18>
    234c:	170022ef          	jal	x5,44bc <failedtest_x5_x4>
    2350:	00002340          	.word	0x00002340
    2354:	0000bf70          	.word	0x0000bf70
    2358:	00408093          	addi	x1,x1,4

# Testcase cr_rs1_rs2_edges (Test source rs1 = 0x7ffffffe rs2 = 0xaaaaaaaa)
  RVTEST_TESTDATA_LOAD_INT(x23, x7) # load rs1: x7 = 0x7ffffffe
    235c:	000ba383          	lw	x7,0(x23)
    2360:	004b8b93          	addi	x23,x23,4
  RVTEST_TESTDATA_LOAD_INT(x23, x11) # load rs2: x11 = 0xaaaaaaaa
    2364:	000ba583          	lw	x11,0(x23)
    2368:	004b8b93          	addi	x23,x23,4

0000236c <I_sra_cg_cr_rs1_rs2_edges_rs1val_0x7ffffffe_rs2val_0xaaaaaaaa>:
I_sra_cg_cr_rs1_rs2_edges_rs1val_0x7ffffffe_rs2val_0xaaaaaaaa:
  sra x30, x7, x11 # perform operation
    236c:	40b3df33          	sra	x30,x7,x11
  # Check if x30 contains the expected result. x1 is the signature ptr, x5 is the link ptr, x4 is a temp reg.
  RVTEST_SIGUPD(x1, x5, x4, x30, I_sra_cg_cr_rs1_rs2_edges_rs1val_0x7ffffffe_rs2val_0xaaaaaaaa, I_sra_cg_cr_rs1_rs2_edges_rs1val_0x7ffffffe_rs2val_0xaaaaaaaa_str)
    2370:	0000a203          	lw	x4,0(x1)
    2374:	01e20863          	beq	x4,x30,2384 <I_sra_cg_cr_rs1_rs2_edges_rs1val_0x7ffffffe_rs2val_0xaaaaaaaa+0x18>
    2378:	144022ef          	jal	x5,44bc <failedtest_x5_x4>
    237c:	0000236c          	.word	0x0000236c
    2380:	0000bfcb          	.word	0x0000bfcb
    2384:	00408093          	addi	x1,x1,4

# Testcase cr_rs1_rs2_edges (Test source rs1 = 0x7ffffffe rs2 = 0x55555555)
  RVTEST_TESTDATA_LOAD_INT(x23, x20) # load rs1: x20 = 0x7ffffffe
    2388:	000baa03          	lw	x20,0(x23)
    238c:	004b8b93          	addi	x23,x23,4
  RVTEST_TESTDATA_LOAD_INT(x23, x10) # load rs2: x10 = 0x55555555
    2390:	000ba503          	lw	x10,0(x23)
    2394:	004b8b93          	addi	x23,x23,4

00002398 <I_sra_cg_cr_rs1_rs2_edges_rs1val_0x7ffffffe_rs2val_0x55555555>:
I_sra_cg_cr_rs1_rs2_edges_rs1val_0x7ffffffe_rs2val_0x55555555:
  sra x15, x20, x10 # perform operation
    2398:	40aa57b3          	sra	x15,x20,x10
  # Check if x15 contains the expected result. x1 is the signature ptr, x5 is the link ptr, x4 is a temp reg.
  RVTEST_SIGUPD(x1, x5, x4, x15, I_sra_cg_cr_rs1_rs2_edges_rs1val_0x7ffffffe_rs2val_0x55555555, I_sra_cg_cr_rs1_rs2_edges_rs1val_0x7ffffffe_rs2val_0x55555555_str)
    239c:	0000a203          	lw	x4,0(x1)
    23a0:	00f20863          	beq	x4,x15,23b0 <I_sra_cg_cr_rs1_rs2_edges_rs1val_0x7ffffffe_rs2val_0x55555555+0x18>
    23a4:	118022ef          	jal	x5,44bc <failedtest_x5_x4>
    23a8:	00002398          	.word	0x00002398
    23ac:	0000c026          	.word	0x0000c026
    23b0:	00408093          	addi	x1,x1,4

# Testcase cr_rs1_rs2_edges (Test source rs1 = 0xffffffff rs2 = 0x00000000)
  RVTEST_TESTDATA_LOAD_INT(x23, x18) # load rs1: x18 = 0xffffffff
    23b4:	000ba903          	lw	x18,0(x23)
    23b8:	004b8b93          	addi	x23,x23,4
  RVTEST_TESTDATA_LOAD_INT(x23, x3) # load rs2: x3 = 0x00000000
    23bc:	000ba183          	lw	x3,0(x23)
    23c0:	004b8b93          	addi	x23,x23,4

000023c4 <I_sra_cg_cr_rs1_rs2_edges_rs1val_0xffffffff_rs2val_0x0>:
I_sra_cg_cr_rs1_rs2_edges_rs1val_0xffffffff_rs2val_0x0:
  sra x16, x18, x3 # perform operation
    23c4:	40395833          	sra	x16,x18,x3
  # Check if x16 contains the expected result. x1 is the signature ptr, x5 is the link ptr, x4 is a temp reg.
  RVTEST_SIGUPD(x1, x5, x4, x16, I_sra_cg_cr_rs1_rs2_edges_rs1val_0xffffffff_rs2val_0x0, I_sra_cg_cr_rs1_rs2_edges_rs1val_0xffffffff_rs2val_0x0_str)
    23c8:	0000a203          	lw	x4,0(x1)
    23cc:	01020863          	beq	x4,x16,23dc <I_sra_cg_cr_rs1_rs2_edges_rs1val_0xffffffff_rs2val_0x0+0x18>
    23d0:	0ec022ef          	jal	x5,44bc <failedtest_x5_x4>
    23d4:	000023c4          	.word	0x000023c4
    23d8:	0000c081          	.word	0x0000c081
    23dc:	00408093          	addi	x1,x1,4

# Testcase cr_rs1_rs2_edges (Test source rs1 = 0xffffffff rs2 = 0x00000001)
  RVTEST_TESTDATA_LOAD_INT(x23, x20) # load rs1: x20 = 0xffffffff
    23e0:	000baa03          	lw	x20,0(x23)
    23e4:	004b8b93          	addi	x23,x23,4
  RVTEST_TESTDATA_LOAD_INT(x23, x15) # load rs2: x15 = 0x00000001
    23e8:	000ba783          	lw	x15,0(x23)
    23ec:	004b8b93          	addi	x23,x23,4

000023f0 <I_sra_cg_cr_rs1_rs2_edges_rs1val_0xffffffff_rs2val_0x1>:
I_sra_cg_cr_rs1_rs2_edges_rs1val_0xffffffff_rs2val_0x1:
  sra x12, x20, x15 # perform operation
    23f0:	40fa5633          	sra	x12,x20,x15
  # Check if x12 contains the expected result. x1 is the signature ptr, x5 is the link ptr, x4 is a temp reg.
  RVTEST_SIGUPD(x1, x5, x4, x12, I_sra_cg_cr_rs1_rs2_edges_rs1val_0xffffffff_rs2val_0x1, I_sra_cg_cr_rs1_rs2_edges_rs1val_0xffffffff_rs2val_0x1_str)
    23f4:	0000a203          	lw	x4,0(x1)
    23f8:	00c20863          	beq	x4,x12,2408 <I_sra_cg_cr_rs1_rs2_edges_rs1val_0xffffffff_rs2val_0x1+0x18>
    23fc:	0c0022ef          	jal	x5,44bc <failedtest_x5_x4>
    2400:	000023f0          	.word	0x000023f0
    2404:	0000c0d5          	.word	0x0000c0d5
    2408:	00408093          	addi	x1,x1,4

# Testcase cr_rs1_rs2_edges (Test source rs1 = 0xffffffff rs2 = 0x00000002)
  RVTEST_TESTDATA_LOAD_INT(x23, x25) # load rs1: x25 = 0xffffffff
    240c:	000bac83          	lw	x25,0(x23)
    2410:	004b8b93          	addi	x23,x23,4
  RVTEST_TESTDATA_LOAD_INT(x23, x31) # load rs2: x31 = 0x00000002
    2414:	000baf83          	lw	x31,0(x23)
    2418:	004b8b93          	addi	x23,x23,4

0000241c <I_sra_cg_cr_rs1_rs2_edges_rs1val_0xffffffff_rs2val_0x2>:
I_sra_cg_cr_rs1_rs2_edges_rs1val_0xffffffff_rs2val_0x2:
  sra x10, x25, x31 # perform operation
    241c:	41fcd533          	sra	x10,x25,x31
  # Check if x10 contains the expected result. x1 is the signature ptr, x5 is the link ptr, x4 is a temp reg.
  RVTEST_SIGUPD(x1, x5, x4, x10, I_sra_cg_cr_rs1_rs2_edges_rs1val_0xffffffff_rs2val_0x2, I_sra_cg_cr_rs1_rs2_edges_rs1val_0xffffffff_rs2val_0x2_str)
    2420:	0000a203          	lw	x4,0(x1)
    2424:	00a20863          	beq	x4,x10,2434 <I_sra_cg_cr_rs1_rs2_edges_rs1val_0xffffffff_rs2val_0x2+0x18>
    2428:	094022ef          	jal	x5,44bc <failedtest_x5_x4>
    242c:	0000241c          	.word	0x0000241c
    2430:	0000c129          	.word	0x0000c129
    2434:	00408093          	addi	x1,x1,4

# Testcase cr_rs1_rs2_edges (Test source rs1 = 0xffffffff rs2 = 0x80000000)
  RVTEST_TESTDATA_LOAD_INT(x23, x15) # load rs1: x15 = 0xffffffff
    2438:	000ba783          	lw	x15,0(x23)
    243c:	004b8b93          	addi	x23,x23,4
  RVTEST_TESTDATA_LOAD_INT(x23, x14) # load rs2: x14 = 0x80000000
    2440:	000ba703          	lw	x14,0(x23)
    2444:	004b8b93          	addi	x23,x23,4

00002448 <I_sra_cg_cr_rs1_rs2_edges_rs1val_0xffffffff_rs2val_0x80000000>:
I_sra_cg_cr_rs1_rs2_edges_rs1val_0xffffffff_rs2val_0x80000000:
  sra x2, x15, x14 # perform operation
    2448:	40e7d133          	sra	x2,x15,x14
  # Check if x2 contains the expected result. x1 is the signature ptr, x5 is the link ptr, x4 is a temp reg.
  RVTEST_SIGUPD(x1, x5, x4, x2, I_sra_cg_cr_rs1_rs2_edges_rs1val_0xffffffff_rs2val_0x80000000, I_sra_cg_cr_rs1_rs2_edges_rs1val_0xffffffff_rs2val_0x80000000_str)
    244c:	0000a203          	lw	x4,0(x1)
    2450:	00220863          	beq	x4,x2,2460 <I_sra_cg_cr_rs1_rs2_edges_rs1val_0xffffffff_rs2val_0x80000000+0x18>
    2454:	068022ef          	jal	x5,44bc <failedtest_x5_x4>
    2458:	00002448          	.word	0x00002448
    245c:	0000c17d          	.word	0x0000c17d
    2460:	00408093          	addi	x1,x1,4

# Testcase cr_rs1_rs2_edges (Test source rs1 = 0xffffffff rs2 = 0x80000001)
  RVTEST_TESTDATA_LOAD_INT(x23, x10) # load rs1: x10 = 0xffffffff
    2464:	000ba503          	lw	x10,0(x23)
    2468:	004b8b93          	addi	x23,x23,4
  RVTEST_TESTDATA_LOAD_INT(x23, x8) # load rs2: x8 = 0x80000001
    246c:	000ba403          	lw	x8,0(x23)
    2470:	004b8b93          	addi	x23,x23,4

00002474 <I_sra_cg_cr_rs1_rs2_edges_rs1val_0xffffffff_rs2val_0x80000001>:
I_sra_cg_cr_rs1_rs2_edges_rs1val_0xffffffff_rs2val_0x80000001:
  sra x22, x10, x8 # perform operation
    2474:	40855b33          	sra	x22,x10,x8
  # Check if x22 contains the expected result. x1 is the signature ptr, x5 is the link ptr, x4 is a temp reg.
  RVTEST_SIGUPD(x1, x5, x4, x22, I_sra_cg_cr_rs1_rs2_edges_rs1val_0xffffffff_rs2val_0x80000001, I_sra_cg_cr_rs1_rs2_edges_rs1val_0xffffffff_rs2val_0x80000001_str)
    2478:	0000a203          	lw	x4,0(x1)
    247c:	01620863          	beq	x4,x22,248c <I_sra_cg_cr_rs1_rs2_edges_rs1val_0xffffffff_rs2val_0x80000001+0x18>
    2480:	03c022ef          	jal	x5,44bc <failedtest_x5_x4>
    2484:	00002474          	.word	0x00002474
    2488:	0000c1d8          	.word	0x0000c1d8
    248c:	00408093          	addi	x1,x1,4

# Testcase cr_rs1_rs2_edges (Test source rs1 = 0xffffffff rs2 = 0x7fffffff)
  RVTEST_TESTDATA_LOAD_INT(x23, x21) # load rs1: x21 = 0xffffffff
    2490:	000baa83          	lw	x21,0(x23)
    2494:	004b8b93          	addi	x23,x23,4
  RVTEST_TESTDATA_LOAD_INT(x23, x29) # load rs2: x29 = 0x7fffffff
    2498:	000bae83          	lw	x29,0(x23)
    249c:	004b8b93          	addi	x23,x23,4

000024a0 <I_sra_cg_cr_rs1_rs2_edges_rs1val_0xffffffff_rs2val_0x7fffffff>:
I_sra_cg_cr_rs1_rs2_edges_rs1val_0xffffffff_rs2val_0x7fffffff:
  sra x2, x21, x29 # perform operation
    24a0:	41dad133          	sra	x2,x21,x29
  # Check if x2 contains the expected result. x1 is the signature ptr, x5 is the link ptr, x4 is a temp reg.
  RVTEST_SIGUPD(x1, x5, x4, x2, I_sra_cg_cr_rs1_rs2_edges_rs1val_0xffffffff_rs2val_0x7fffffff, I_sra_cg_cr_rs1_rs2_edges_rs1val_0xffffffff_rs2val_0x7fffffff_str)
    24a4:	0000a203          	lw	x4,0(x1)
    24a8:	00220863          	beq	x4,x2,24b8 <I_sra_cg_cr_rs1_rs2_edges_rs1val_0xffffffff_rs2val_0x7fffffff+0x18>
    24ac:	010022ef          	jal	x5,44bc <failedtest_x5_x4>
    24b0:	000024a0          	.word	0x000024a0
    24b4:	0000c233          	.word	0x0000c233
    24b8:	00408093          	addi	x1,x1,4

# Testcase cr_rs1_rs2_edges (Test source rs1 = 0xffffffff rs2 = 0x7ffffffe)
  RVTEST_TESTDATA_LOAD_INT(x23, x17) # load rs1: x17 = 0xffffffff
    24bc:	000ba883          	lw	x17,0(x23)
    24c0:	004b8b93          	addi	x23,x23,4
  RVTEST_TESTDATA_LOAD_INT(x23, x8) # load rs2: x8 = 0x7ffffffe
    24c4:	000ba403          	lw	x8,0(x23)
    24c8:	004b8b93          	addi	x23,x23,4

000024cc <I_sra_cg_cr_rs1_rs2_edges_rs1val_0xffffffff_rs2val_0x7ffffffe>:
I_sra_cg_cr_rs1_rs2_edges_rs1val_0xffffffff_rs2val_0x7ffffffe:
  sra x20, x17, x8 # perform operation
    24cc:	4088da33          	sra	x20,x17,x8
  # Check if x20 contains the expected result. x1 is the signature ptr, x5 is the link ptr, x4 is a temp reg.
  RVTEST_SIGUPD(x1, x5, x4, x20, I_sra_cg_cr_rs1_rs2_edges_rs1val_0xffffffff_rs2val_0x7ffffffe, I_sra_cg_cr_rs1_rs2_edges_rs1val_0xffffffff_rs2val_0x7ffffffe_str)
    24d0:	0000a203          	lw	x4,0(x1)
    24d4:	01420863          	beq	x4,x20,24e4 <I_sra_cg_cr_rs1_rs2_edges_rs1val_0xffffffff_rs2val_0x7ffffffe+0x18>
    24d8:	7e5012ef          	jal	x5,44bc <failedtest_x5_x4>
    24dc:	000024cc          	.word	0x000024cc
    24e0:	0000c28e          	.word	0x0000c28e
    24e4:	00408093          	addi	x1,x1,4

# Testcase cr_rs1_rs2_edges (Test source rs1 = 0xffffffff rs2 = 0xffffffff)
  RVTEST_TESTDATA_LOAD_INT(x23, x13) # load rs1: x13 = 0xffffffff
    24e8:	000ba683          	lw	x13,0(x23)
    24ec:	004b8b93          	addi	x23,x23,4
  RVTEST_TESTDATA_LOAD_INT(x23, x27) # load rs2: x27 = 0xffffffff
    24f0:	000bad83          	lw	x27,0(x23)
    24f4:	004b8b93          	addi	x23,x23,4

000024f8 <I_sra_cg_cr_rs1_rs2_edges_rs1val_0xffffffff_rs2val_0xffffffff>:
I_sra_cg_cr_rs1_rs2_edges_rs1val_0xffffffff_rs2val_0xffffffff:
  sra x29, x13, x27 # perform operation
    24f8:	41b6deb3          	sra	x29,x13,x27
  # Check if x29 contains the expected result. x1 is the signature ptr, x5 is the link ptr, x4 is a temp reg.
  RVTEST_SIGUPD(x1, x5, x4, x29, I_sra_cg_cr_rs1_rs2_edges_rs1val_0xffffffff_rs2val_0xffffffff, I_sra_cg_cr_rs1_rs2_edges_rs1val_0xffffffff_rs2val_0xffffffff_str)
    24fc:	0000a203          	lw	x4,0(x1)
    2500:	01d20863          	beq	x4,x29,2510 <I_sra_cg_cr_rs1_rs2_edges_rs1val_0xffffffff_rs2val_0xffffffff+0x18>
    2504:	7b9012ef          	jal	x5,44bc <failedtest_x5_x4>
    2508:	000024f8          	.word	0x000024f8
    250c:	0000c2e9          	.word	0x0000c2e9
    2510:	00408093          	addi	x1,x1,4

# Testcase cr_rs1_rs2_edges (Test source rs1 = 0xffffffff rs2 = 0xfffffffe)
  RVTEST_TESTDATA_LOAD_INT(x23, x21) # load rs1: x21 = 0xffffffff
    2514:	000baa83          	lw	x21,0(x23)
    2518:	004b8b93          	addi	x23,x23,4
  RVTEST_TESTDATA_LOAD_INT(x23, x9) # load rs2: x9 = 0xfffffffe
    251c:	000ba483          	lw	x9,0(x23)
    2520:	004b8b93          	addi	x23,x23,4

00002524 <I_sra_cg_cr_rs1_rs2_edges_rs1val_0xffffffff_rs2val_0xfffffffe>:
I_sra_cg_cr_rs1_rs2_edges_rs1val_0xffffffff_rs2val_0xfffffffe:
  sra x20, x21, x9 # perform operation
    2524:	409ada33          	sra	x20,x21,x9
  # Check if x20 contains the expected result. x1 is the signature ptr, x5 is the link ptr, x4 is a temp reg.
  RVTEST_SIGUPD(x1, x5, x4, x20, I_sra_cg_cr_rs1_rs2_edges_rs1val_0xffffffff_rs2val_0xfffffffe, I_sra_cg_cr_rs1_rs2_edges_rs1val_0xffffffff_rs2val_0xfffffffe_str)
    2528:	0000a203          	lw	x4,0(x1)
    252c:	01420863          	beq	x4,x20,253c <I_sra_cg_cr_rs1_rs2_edges_rs1val_0xffffffff_rs2val_0xfffffffe+0x18>
    2530:	78d012ef          	jal	x5,44bc <failedtest_x5_x4>
    2534:	00002524          	.word	0x00002524
    2538:	0000c344          	.word	0x0000c344
    253c:	00408093          	addi	x1,x1,4

# Testcase cr_rs1_rs2_edges (Test source rs1 = 0xffffffff rs2 = 0x5bbc8872)
  RVTEST_TESTDATA_LOAD_INT(x23, x20) # load rs1: x20 = 0xffffffff
    2540:	000baa03          	lw	x20,0(x23)
    2544:	004b8b93          	addi	x23,x23,4
  RVTEST_TESTDATA_LOAD_INT(x23, x22) # load rs2: x22 = 0x5bbc8872
    2548:	000bab03          	lw	x22,0(x23)
    254c:	004b8b93          	addi	x23,x23,4

00002550 <I_sra_cg_cr_rs1_rs2_edges_rs1val_0xffffffff_rs2val_0x5bbc8872>:
I_sra_cg_cr_rs1_rs2_edges_rs1val_0xffffffff_rs2val_0x5bbc8872:
  sra x31, x20, x22 # perform operation
    2550:	416a5fb3          	sra	x31,x20,x22
  # Check if x31 contains the expected result. x1 is the signature ptr, x5 is the link ptr, x4 is a temp reg.
  RVTEST_SIGUPD(x1, x5, x4, x31, I_sra_cg_cr_rs1_rs2_edges_rs1val_0xffffffff_rs2val_0x5bbc8872, I_sra_cg_cr_rs1_rs2_edges_rs1val_0xffffffff_rs2val_0x5bbc8872_str)
    2554:	0000a203          	lw	x4,0(x1)
    2558:	01f20863          	beq	x4,x31,2568 <I_sra_cg_cr_rs1_rs2_edges_rs1val_0xffffffff_rs2val_0x5bbc8872+0x18>
    255c:	761012ef          	jal	x5,44bc <failedtest_x5_x4>
    2560:	00002550          	.word	0x00002550
    2564:	0000c39f          	.word	0x0000c39f
    2568:	00408093          	addi	x1,x1,4

# Testcase cr_rs1_rs2_edges (Test source rs1 = 0xffffffff rs2 = 0xaaaaaaaa)
  RVTEST_TESTDATA_LOAD_INT(x23, x11) # load rs1: x11 = 0xffffffff
    256c:	000ba583          	lw	x11,0(x23)
    2570:	004b8b93          	addi	x23,x23,4
  RVTEST_TESTDATA_LOAD_INT(x23, x18) # load rs2: x18 = 0xaaaaaaaa
    2574:	000ba903          	lw	x18,0(x23)
    2578:	004b8b93          	addi	x23,x23,4

0000257c <I_sra_cg_cr_rs1_rs2_edges_rs1val_0xffffffff_rs2val_0xaaaaaaaa>:
I_sra_cg_cr_rs1_rs2_edges_rs1val_0xffffffff_rs2val_0xaaaaaaaa:
  sra x16, x11, x18 # perform operation
    257c:	4125d833          	sra	x16,x11,x18
  # Check if x16 contains the expected result. x1 is the signature ptr, x5 is the link ptr, x4 is a temp reg.
  RVTEST_SIGUPD(x1, x5, x4, x16, I_sra_cg_cr_rs1_rs2_edges_rs1val_0xffffffff_rs2val_0xaaaaaaaa, I_sra_cg_cr_rs1_rs2_edges_rs1val_0xffffffff_rs2val_0xaaaaaaaa_str)
    2580:	0000a203          	lw	x4,0(x1)
    2584:	01020863          	beq	x4,x16,2594 <I_sra_cg_cr_rs1_rs2_edges_rs1val_0xffffffff_rs2val_0xaaaaaaaa+0x18>
    2588:	735012ef          	jal	x5,44bc <failedtest_x5_x4>
    258c:	0000257c          	.word	0x0000257c
    2590:	0000c3fa          	.word	0x0000c3fa
    2594:	00408093          	addi	x1,x1,4

# Testcase cr_rs1_rs2_edges (Test source rs1 = 0xffffffff rs2 = 0x55555555)
  RVTEST_TESTDATA_LOAD_INT(x23, x16) # load rs1: x16 = 0xffffffff
    2598:	000ba803          	lw	x16,0(x23)
    259c:	004b8b93          	addi	x23,x23,4
  RVTEST_TESTDATA_LOAD_INT(x23, x6) # load rs2: x6 = 0x55555555
    25a0:	000ba303          	lw	x6,0(x23)
    25a4:	004b8b93          	addi	x23,x23,4

000025a8 <I_sra_cg_cr_rs1_rs2_edges_rs1val_0xffffffff_rs2val_0x55555555>:
I_sra_cg_cr_rs1_rs2_edges_rs1val_0xffffffff_rs2val_0x55555555:
  sra x29, x16, x6 # perform operation
    25a8:	40685eb3          	sra	x29,x16,x6
  # Check if x29 contains the expected result. x1 is the signature ptr, x5 is the link ptr, x4 is a temp reg.
  RVTEST_SIGUPD(x1, x5, x4, x29, I_sra_cg_cr_rs1_rs2_edges_rs1val_0xffffffff_rs2val_0x55555555, I_sra_cg_cr_rs1_rs2_edges_rs1val_0xffffffff_rs2val_0x55555555_str)
    25ac:	0000a203          	lw	x4,0(x1)
    25b0:	01d20863          	beq	x4,x29,25c0 <I_sra_cg_cr_rs1_rs2_edges_rs1val_0xffffffff_rs2val_0x55555555+0x18>
    25b4:	709012ef          	jal	x5,44bc <failedtest_x5_x4>
    25b8:	000025a8          	.word	0x000025a8
    25bc:	0000c455          	.word	0x0000c455
    25c0:	00408093          	addi	x1,x1,4

# Testcase cr_rs1_rs2_edges (Test source rs1 = 0xfffffffe rs2 = 0x00000000)
  RVTEST_TESTDATA_LOAD_INT(x23, x13) # load rs1: x13 = 0xfffffffe
    25c4:	000ba683          	lw	x13,0(x23)
    25c8:	004b8b93          	addi	x23,x23,4
  RVTEST_TESTDATA_LOAD_INT(x23, x9) # load rs2: x9 = 0x00000000
    25cc:	000ba483          	lw	x9,0(x23)
    25d0:	004b8b93          	addi	x23,x23,4

000025d4 <I_sra_cg_cr_rs1_rs2_edges_rs1val_0xfffffffe_rs2val_0x0>:
I_sra_cg_cr_rs1_rs2_edges_rs1val_0xfffffffe_rs2val_0x0:
  sra x27, x13, x9 # perform operation
    25d4:	4096ddb3          	sra	x27,x13,x9
  # Check if x27 contains the expected result. x1 is the signature ptr, x5 is the link ptr, x4 is a temp reg.
  RVTEST_SIGUPD(x1, x5, x4, x27, I_sra_cg_cr_rs1_rs2_edges_rs1val_0xfffffffe_rs2val_0x0, I_sra_cg_cr_rs1_rs2_edges_rs1val_0xfffffffe_rs2val_0x0_str)
    25d8:	0000a203          	lw	x4,0(x1)
    25dc:	01b20863          	beq	x4,x27,25ec <I_sra_cg_cr_rs1_rs2_edges_rs1val_0xfffffffe_rs2val_0x0+0x18>
    25e0:	6dd012ef          	jal	x5,44bc <failedtest_x5_x4>
    25e4:	000025d4          	.word	0x000025d4
    25e8:	0000c4b0          	.word	0x0000c4b0
    25ec:	00408093          	addi	x1,x1,4

# Testcase cr_rs1_rs2_edges (Test source rs1 = 0xfffffffe rs2 = 0x00000001)
  RVTEST_TESTDATA_LOAD_INT(x23, x2) # load rs1: x2 = 0xfffffffe
    25f0:	000ba103          	lw	x2,0(x23)
    25f4:	004b8b93          	addi	x23,x23,4
  RVTEST_TESTDATA_LOAD_INT(x23, x31) # load rs2: x31 = 0x00000001
    25f8:	000baf83          	lw	x31,0(x23)
    25fc:	004b8b93          	addi	x23,x23,4

00002600 <I_sra_cg_cr_rs1_rs2_edges_rs1val_0xfffffffe_rs2val_0x1>:
I_sra_cg_cr_rs1_rs2_edges_rs1val_0xfffffffe_rs2val_0x1:
  sra x24, x2, x31 # perform operation
    2600:	41f15c33          	sra	x24,x2,x31
  # Check if x24 contains the expected result. x1 is the signature ptr, x5 is the link ptr, x4 is a temp reg.
  RVTEST_SIGUPD(x1, x5, x4, x24, I_sra_cg_cr_rs1_rs2_edges_rs1val_0xfffffffe_rs2val_0x1, I_sra_cg_cr_rs1_rs2_edges_rs1val_0xfffffffe_rs2val_0x1_str)
    2604:	0000a203          	lw	x4,0(x1)
    2608:	01820863          	beq	x4,x24,2618 <I_sra_cg_cr_rs1_rs2_edges_rs1val_0xfffffffe_rs2val_0x1+0x18>
    260c:	6b1012ef          	jal	x5,44bc <failedtest_x5_x4>
    2610:	00002600          	.word	0x00002600
    2614:	0000c504          	.word	0x0000c504
    2618:	00408093          	addi	x1,x1,4

# Testcase cr_rs1_rs2_edges (Test source rs1 = 0xfffffffe rs2 = 0x00000002)
  RVTEST_TESTDATA_LOAD_INT(x23, x7) # load rs1: x7 = 0xfffffffe
    261c:	000ba383          	lw	x7,0(x23)
    2620:	004b8b93          	addi	x23,x23,4
  RVTEST_TESTDATA_LOAD_INT(x23, x15) # load rs2: x15 = 0x00000002
    2624:	000ba783          	lw	x15,0(x23)
    2628:	004b8b93          	addi	x23,x23,4

0000262c <I_sra_cg_cr_rs1_rs2_edges_rs1val_0xfffffffe_rs2val_0x2>:
I_sra_cg_cr_rs1_rs2_edges_rs1val_0xfffffffe_rs2val_0x2:
  sra x14, x7, x15 # perform operation
    262c:	40f3d733          	sra	x14,x7,x15
  # Check if x14 contains the expected result. x1 is the signature ptr, x5 is the link ptr, x4 is a temp reg.
  RVTEST_SIGUPD(x1, x5, x4, x14, I_sra_cg_cr_rs1_rs2_edges_rs1val_0xfffffffe_rs2val_0x2, I_sra_cg_cr_rs1_rs2_edges_rs1val_0xfffffffe_rs2val_0x2_str)
    2630:	0000a203          	lw	x4,0(x1)
    2634:	00e20863          	beq	x4,x14,2644 <I_sra_cg_cr_rs1_rs2_edges_rs1val_0xfffffffe_rs2val_0x2+0x18>
    2638:	685012ef          	jal	x5,44bc <failedtest_x5_x4>
    263c:	0000262c          	.word	0x0000262c
    2640:	0000c558          	.word	0x0000c558
    2644:	00408093          	addi	x1,x1,4

# Testcase cr_rs1_rs2_edges (Test source rs1 = 0xfffffffe rs2 = 0x80000000)
  RVTEST_TESTDATA_LOAD_INT(x23, x27) # load rs1: x27 = 0xfffffffe
    2648:	000bad83          	lw	x27,0(x23)
    264c:	004b8b93          	addi	x23,x23,4
  RVTEST_TESTDATA_LOAD_INT(x23, x18) # load rs2: x18 = 0x80000000
    2650:	000ba903          	lw	x18,0(x23)
    2654:	004b8b93          	addi	x23,x23,4

00002658 <I_sra_cg_cr_rs1_rs2_edges_rs1val_0xfffffffe_rs2val_0x80000000>:
I_sra_cg_cr_rs1_rs2_edges_rs1val_0xfffffffe_rs2val_0x80000000:
  sra x7, x27, x18 # perform operation
    2658:	412dd3b3          	sra	x7,x27,x18
  # Check if x7 contains the expected result. x1 is the signature ptr, x5 is the link ptr, x4 is a temp reg.
  RVTEST_SIGUPD(x1, x5, x4, x7, I_sra_cg_cr_rs1_rs2_edges_rs1val_0xfffffffe_rs2val_0x80000000, I_sra_cg_cr_rs1_rs2_edges_rs1val_0xfffffffe_rs2val_0x80000000_str)
    265c:	0000a203          	lw	x4,0(x1)
    2660:	00720863          	beq	x4,x7,2670 <I_sra_cg_cr_rs1_rs2_edges_rs1val_0xfffffffe_rs2val_0x80000000+0x18>
    2664:	659012ef          	jal	x5,44bc <failedtest_x5_x4>
    2668:	00002658          	.word	0x00002658
    266c:	0000c5ac          	.word	0x0000c5ac
    2670:	00408093          	addi	x1,x1,4

# Testcase cr_rs1_rs2_edges (Test source rs1 = 0xfffffffe rs2 = 0x80000001)
  RVTEST_TESTDATA_LOAD_INT(x23, x26) # load rs1: x26 = 0xfffffffe
    2674:	000bad03          	lw	x26,0(x23)
    2678:	004b8b93          	addi	x23,x23,4
  RVTEST_TESTDATA_LOAD_INT(x23, x13) # load rs2: x13 = 0x80000001
    267c:	000ba683          	lw	x13,0(x23)
    2680:	004b8b93          	addi	x23,x23,4

00002684 <I_sra_cg_cr_rs1_rs2_edges_rs1val_0xfffffffe_rs2val_0x80000001>:
I_sra_cg_cr_rs1_rs2_edges_rs1val_0xfffffffe_rs2val_0x80000001:
  sra x24, x26, x13 # perform operation
    2684:	40dd5c33          	sra	x24,x26,x13
  # Check if x24 contains the expected result. x1 is the signature ptr, x5 is the link ptr, x4 is a temp reg.
  RVTEST_SIGUPD(x1, x5, x4, x24, I_sra_cg_cr_rs1_rs2_edges_rs1val_0xfffffffe_rs2val_0x80000001, I_sra_cg_cr_rs1_rs2_edges_rs1val_0xfffffffe_rs2val_0x80000001_str)
    2688:	0000a203          	lw	x4,0(x1)
    268c:	01820863          	beq	x4,x24,269c <I_sra_cg_cr_rs1_rs2_edges_rs1val_0xfffffffe_rs2val_0x80000001+0x18>
    2690:	62d012ef          	jal	x5,44bc <failedtest_x5_x4>
    2694:	00002684          	.word	0x00002684
    2698:	0000c607          	.word	0x0000c607
    269c:	00408093          	addi	x1,x1,4

# Testcase cr_rs1_rs2_edges (Test source rs1 = 0xfffffffe rs2 = 0x7fffffff)
  RVTEST_TESTDATA_LOAD_INT(x23, x22) # load rs1: x22 = 0xfffffffe
    26a0:	000bab03          	lw	x22,0(x23)
    26a4:	004b8b93          	addi	x23,x23,4
  RVTEST_TESTDATA_LOAD_INT(x23, x2) # load rs2: x2 = 0x7fffffff
    26a8:	000ba103          	lw	x2,0(x23)
    26ac:	004b8b93          	addi	x23,x23,4

000026b0 <I_sra_cg_cr_rs1_rs2_edges_rs1val_0xfffffffe_rs2val_0x7fffffff>:
I_sra_cg_cr_rs1_rs2_edges_rs1val_0xfffffffe_rs2val_0x7fffffff:
  sra x15, x22, x2 # perform operation
    26b0:	402b57b3          	sra	x15,x22,x2
  # Check if x15 contains the expected result. x1 is the signature ptr, x5 is the link ptr, x4 is a temp reg.
  RVTEST_SIGUPD(x1, x5, x4, x15, I_sra_cg_cr_rs1_rs2_edges_rs1val_0xfffffffe_rs2val_0x7fffffff, I_sra_cg_cr_rs1_rs2_edges_rs1val_0xfffffffe_rs2val_0x7fffffff_str)
    26b4:	0000a203          	lw	x4,0(x1)
    26b8:	00f20863          	beq	x4,x15,26c8 <I_sra_cg_cr_rs1_rs2_edges_rs1val_0xfffffffe_rs2val_0x7fffffff+0x18>
    26bc:	601012ef          	jal	x5,44bc <failedtest_x5_x4>
    26c0:	000026b0          	.word	0x000026b0
    26c4:	0000c662          	.word	0x0000c662
    26c8:	00408093          	addi	x1,x1,4

# Testcase cr_rs1_rs2_edges (Test source rs1 = 0xfffffffe rs2 = 0x7ffffffe)
  RVTEST_TESTDATA_LOAD_INT(x23, x20) # load rs1: x20 = 0xfffffffe
    26cc:	000baa03          	lw	x20,0(x23)
    26d0:	004b8b93          	addi	x23,x23,4
  RVTEST_TESTDATA_LOAD_INT(x23, x22) # load rs2: x22 = 0x7ffffffe
    26d4:	000bab03          	lw	x22,0(x23)
    26d8:	004b8b93          	addi	x23,x23,4

000026dc <I_sra_cg_cr_rs1_rs2_edges_rs1val_0xfffffffe_rs2val_0x7ffffffe>:
I_sra_cg_cr_rs1_rs2_edges_rs1val_0xfffffffe_rs2val_0x7ffffffe:
  sra x8, x20, x22 # perform operation
    26dc:	416a5433          	sra	x8,x20,x22
  # Check if x8 contains the expected result. x1 is the signature ptr, x5 is the link ptr, x4 is a temp reg.
  RVTEST_SIGUPD(x1, x5, x4, x8, I_sra_cg_cr_rs1_rs2_edges_rs1val_0xfffffffe_rs2val_0x7ffffffe, I_sra_cg_cr_rs1_rs2_edges_rs1val_0xfffffffe_rs2val_0x7ffffffe_str)
    26e0:	0000a203          	lw	x4,0(x1)
    26e4:	00820863          	beq	x4,x8,26f4 <I_sra_cg_cr_rs1_rs2_edges_rs1val_0xfffffffe_rs2val_0x7ffffffe+0x18>
    26e8:	5d5012ef          	jal	x5,44bc <failedtest_x5_x4>
    26ec:	000026dc          	.word	0x000026dc
    26f0:	0000c6bd          	.word	0x0000c6bd
    26f4:	00408093          	addi	x1,x1,4

# Testcase cr_rs1_rs2_edges (Test source rs1 = 0xfffffffe rs2 = 0xffffffff)
  RVTEST_TESTDATA_LOAD_INT(x23, x24) # load rs1: x24 = 0xfffffffe
    26f8:	000bac03          	lw	x24,0(x23)
    26fc:	004b8b93          	addi	x23,x23,4
  RVTEST_TESTDATA_LOAD_INT(x23, x31) # load rs2: x31 = 0xffffffff
    2700:	000baf83          	lw	x31,0(x23)
    2704:	004b8b93          	addi	x23,x23,4

00002708 <I_sra_cg_cr_rs1_rs2_edges_rs1val_0xfffffffe_rs2val_0xffffffff>:
I_sra_cg_cr_rs1_rs2_edges_rs1val_0xfffffffe_rs2val_0xffffffff:
  sra x16, x24, x31 # perform operation
    2708:	41fc5833          	sra	x16,x24,x31
  # Check if x16 contains the expected result. x1 is the signature ptr, x5 is the link ptr, x4 is a temp reg.
  RVTEST_SIGUPD(x1, x5, x4, x16, I_sra_cg_cr_rs1_rs2_edges_rs1val_0xfffffffe_rs2val_0xffffffff, I_sra_cg_cr_rs1_rs2_edges_rs1val_0xfffffffe_rs2val_0xffffffff_str)
    270c:	0000a203          	lw	x4,0(x1)
    2710:	01020863          	beq	x4,x16,2720 <I_sra_cg_cr_rs1_rs2_edges_rs1val_0xfffffffe_rs2val_0xffffffff+0x18>
    2714:	5a9012ef          	jal	x5,44bc <failedtest_x5_x4>
    2718:	00002708          	.word	0x00002708
    271c:	0000c718          	.word	0x0000c718
    2720:	00408093          	addi	x1,x1,4

# Testcase cr_rs1_rs2_edges (Test source rs1 = 0xfffffffe rs2 = 0xfffffffe)
  RVTEST_TESTDATA_LOAD_INT(x23, x8) # load rs1: x8 = 0xfffffffe
    2724:	000ba403          	lw	x8,0(x23)
    2728:	004b8b93          	addi	x23,x23,4
  RVTEST_TESTDATA_LOAD_INT(x23, x29) # load rs2: x29 = 0xfffffffe
    272c:	000bae83          	lw	x29,0(x23)
    2730:	004b8b93          	addi	x23,x23,4

00002734 <I_sra_cg_cr_rs1_rs2_edges_rs1val_0xfffffffe_rs2val_0xfffffffe>:
I_sra_cg_cr_rs1_rs2_edges_rs1val_0xfffffffe_rs2val_0xfffffffe:
  sra x26, x8, x29 # perform operation
    2734:	41d45d33          	sra	x26,x8,x29
  # Check if x26 contains the expected result. x1 is the signature ptr, x5 is the link ptr, x4 is a temp reg.
  RVTEST_SIGUPD(x1, x5, x4, x26, I_sra_cg_cr_rs1_rs2_edges_rs1val_0xfffffffe_rs2val_0xfffffffe, I_sra_cg_cr_rs1_rs2_edges_rs1val_0xfffffffe_rs2val_0xfffffffe_str)
    2738:	0000a203          	lw	x4,0(x1)
    273c:	01a20863          	beq	x4,x26,274c <I_sra_cg_cr_rs1_rs2_edges_rs1val_0xfffffffe_rs2val_0xfffffffe+0x18>
    2740:	57d012ef          	jal	x5,44bc <failedtest_x5_x4>
    2744:	00002734          	.word	0x00002734
    2748:	0000c773          	.word	0x0000c773
    274c:	00408093          	addi	x1,x1,4

# Testcase cr_rs1_rs2_edges (Test source rs1 = 0xfffffffe rs2 = 0x5bbc8872)
  RVTEST_TESTDATA_LOAD_INT(x23, x14) # load rs1: x14 = 0xfffffffe
    2750:	000ba703          	lw	x14,0(x23)
    2754:	004b8b93          	addi	x23,x23,4
  RVTEST_TESTDATA_LOAD_INT(x23, x25) # load rs2: x25 = 0x5bbc8872
    2758:	000bac83          	lw	x25,0(x23)
    275c:	004b8b93          	addi	x23,x23,4

00002760 <I_sra_cg_cr_rs1_rs2_edges_rs1val_0xfffffffe_rs2val_0x5bbc8872>:
I_sra_cg_cr_rs1_rs2_edges_rs1val_0xfffffffe_rs2val_0x5bbc8872:
  sra x8, x14, x25 # perform operation
    2760:	41975433          	sra	x8,x14,x25
  # Check if x8 contains the expected result. x1 is the signature ptr, x5 is the link ptr, x4 is a temp reg.
  RVTEST_SIGUPD(x1, x5, x4, x8, I_sra_cg_cr_rs1_rs2_edges_rs1val_0xfffffffe_rs2val_0x5bbc8872, I_sra_cg_cr_rs1_rs2_edges_rs1val_0xfffffffe_rs2val_0x5bbc8872_str)
    2764:	0000a203          	lw	x4,0(x1)
    2768:	00820863          	beq	x4,x8,2778 <I_sra_cg_cr_rs1_rs2_edges_rs1val_0xfffffffe_rs2val_0x5bbc8872+0x18>
    276c:	551012ef          	jal	x5,44bc <failedtest_x5_x4>
    2770:	00002760          	.word	0x00002760
    2774:	0000c7ce          	.word	0x0000c7ce
    2778:	00408093          	addi	x1,x1,4

# Testcase cr_rs1_rs2_edges (Test source rs1 = 0xfffffffe rs2 = 0xaaaaaaaa)
  RVTEST_TESTDATA_LOAD_INT(x23, x18) # load rs1: x18 = 0xfffffffe
    277c:	000ba903          	lw	x18,0(x23)
    2780:	004b8b93          	addi	x23,x23,4
  RVTEST_TESTDATA_LOAD_INT(x23, x31) # load rs2: x31 = 0xaaaaaaaa
    2784:	000baf83          	lw	x31,0(x23)
    2788:	004b8b93          	addi	x23,x23,4

0000278c <I_sra_cg_cr_rs1_rs2_edges_rs1val_0xfffffffe_rs2val_0xaaaaaaaa>:
I_sra_cg_cr_rs1_rs2_edges_rs1val_0xfffffffe_rs2val_0xaaaaaaaa:
  sra x7, x18, x31 # perform operation
    278c:	41f953b3          	sra	x7,x18,x31
  # Check if x7 contains the expected result. x1 is the signature ptr, x5 is the link ptr, x4 is a temp reg.
  RVTEST_SIGUPD(x1, x5, x4, x7, I_sra_cg_cr_rs1_rs2_edges_rs1val_0xfffffffe_rs2val_0xaaaaaaaa, I_sra_cg_cr_rs1_rs2_edges_rs1val_0xfffffffe_rs2val_0xaaaaaaaa_str)
    2790:	0000a203          	lw	x4,0(x1)
    2794:	00720863          	beq	x4,x7,27a4 <I_sra_cg_cr_rs1_rs2_edges_rs1val_0xfffffffe_rs2val_0xaaaaaaaa+0x18>
    2798:	525012ef          	jal	x5,44bc <failedtest_x5_x4>
    279c:	0000278c          	.word	0x0000278c
    27a0:	0000c829          	.word	0x0000c829
    27a4:	00408093          	addi	x1,x1,4

# Testcase cr_rs1_rs2_edges (Test source rs1 = 0xfffffffe rs2 = 0x55555555)
  RVTEST_TESTDATA_LOAD_INT(x23, x20) # load rs1: x20 = 0xfffffffe
    27a8:	000baa03          	lw	x20,0(x23)
    27ac:	004b8b93          	addi	x23,x23,4
  RVTEST_TESTDATA_LOAD_INT(x23, x15) # load rs2: x15 = 0x55555555
    27b0:	000ba783          	lw	x15,0(x23)
    27b4:	004b8b93          	addi	x23,x23,4

000027b8 <I_sra_cg_cr_rs1_rs2_edges_rs1val_0xfffffffe_rs2val_0x55555555>:
I_sra_cg_cr_rs1_rs2_edges_rs1val_0xfffffffe_rs2val_0x55555555:
  sra x6, x20, x15 # perform operation
    27b8:	40fa5333          	sra	x6,x20,x15
  # Check if x6 contains the expected result. x1 is the signature ptr, x5 is the link ptr, x4 is a temp reg.
  RVTEST_SIGUPD(x1, x5, x4, x6, I_sra_cg_cr_rs1_rs2_edges_rs1val_0xfffffffe_rs2val_0x55555555, I_sra_cg_cr_rs1_rs2_edges_rs1val_0xfffffffe_rs2val_0x55555555_str)
    27bc:	0000a203          	lw	x4,0(x1)
    27c0:	00620863          	beq	x4,x6,27d0 <I_sra_cg_cr_rs1_rs2_edges_rs1val_0xfffffffe_rs2val_0x55555555+0x18>
    27c4:	4f9012ef          	jal	x5,44bc <failedtest_x5_x4>
    27c8:	000027b8          	.word	0x000027b8
    27cc:	0000c884          	.word	0x0000c884
    27d0:	00408093          	addi	x1,x1,4

# Testcase cr_rs1_rs2_edges (Test source rs1 = 0x5bbc8872 rs2 = 0x00000000)
  RVTEST_TESTDATA_LOAD_INT(x23, x17) # load rs1: x17 = 0x5bbc8872
    27d4:	000ba883          	lw	x17,0(x23)
    27d8:	004b8b93          	addi	x23,x23,4
  RVTEST_TESTDATA_LOAD_INT(x23, x22) # load rs2: x22 = 0x00000000
    27dc:	000bab03          	lw	x22,0(x23)
    27e0:	004b8b93          	addi	x23,x23,4

000027e4 <I_sra_cg_cr_rs1_rs2_edges_rs1val_0x5bbc8872_rs2val_0x0>:
I_sra_cg_cr_rs1_rs2_edges_rs1val_0x5bbc8872_rs2val_0x0:
  sra x2, x17, x22 # perform operation
    27e4:	4168d133          	sra	x2,x17,x22
  # Check if x2 contains the expected result. x1 is the signature ptr, x5 is the link ptr, x4 is a temp reg.
  RVTEST_SIGUPD(x1, x5, x4, x2, I_sra_cg_cr_rs1_rs2_edges_rs1val_0x5bbc8872_rs2val_0x0, I_sra_cg_cr_rs1_rs2_edges_rs1val_0x5bbc8872_rs2val_0x0_str)
    27e8:	0000a203          	lw	x4,0(x1)
    27ec:	00220863          	beq	x4,x2,27fc <I_sra_cg_cr_rs1_rs2_edges_rs1val_0x5bbc8872_rs2val_0x0+0x18>
    27f0:	4cd012ef          	jal	x5,44bc <failedtest_x5_x4>
    27f4:	000027e4          	.word	0x000027e4
    27f8:	0000c8df          	.word	0x0000c8df
    27fc:	00408093          	addi	x1,x1,4

# Testcase cr_rs1_rs2_edges (Test source rs1 = 0x5bbc8872 rs2 = 0x00000001)
  RVTEST_TESTDATA_LOAD_INT(x23, x28) # load rs1: x28 = 0x5bbc8872
    2800:	000bae03          	lw	x28,0(x23)
    2804:	004b8b93          	addi	x23,x23,4
  RVTEST_TESTDATA_LOAD_INT(x23, x29) # load rs2: x29 = 0x00000001
    2808:	000bae83          	lw	x29,0(x23)
    280c:	004b8b93          	addi	x23,x23,4

00002810 <I_sra_cg_cr_rs1_rs2_edges_rs1val_0x5bbc8872_rs2val_0x1>:
I_sra_cg_cr_rs1_rs2_edges_rs1val_0x5bbc8872_rs2val_0x1:
  sra x26, x28, x29 # perform operation
    2810:	41de5d33          	sra	x26,x28,x29
  # Check if x26 contains the expected result. x1 is the signature ptr, x5 is the link ptr, x4 is a temp reg.
  RVTEST_SIGUPD(x1, x5, x4, x26, I_sra_cg_cr_rs1_rs2_edges_rs1val_0x5bbc8872_rs2val_0x1, I_sra_cg_cr_rs1_rs2_edges_rs1val_0x5bbc8872_rs2val_0x1_str)
    2814:	0000a203          	lw	x4,0(x1)
    2818:	01a20863          	beq	x4,x26,2828 <I_sra_cg_cr_rs1_rs2_edges_rs1val_0x5bbc8872_rs2val_0x1+0x18>
    281c:	4a1012ef          	jal	x5,44bc <failedtest_x5_x4>
    2820:	00002810          	.word	0x00002810
    2824:	0000c933          	.word	0x0000c933
    2828:	00408093          	addi	x1,x1,4

# Testcase cr_rs1_rs2_edges (Test source rs1 = 0x5bbc8872 rs2 = 0x00000002)
  RVTEST_TESTDATA_LOAD_INT(x23, x8) # load rs1: x8 = 0x5bbc8872
    282c:	000ba403          	lw	x8,0(x23)
    2830:	004b8b93          	addi	x23,x23,4
  RVTEST_TESTDATA_LOAD_INT(x23, x2) # load rs2: x2 = 0x00000002
    2834:	000ba103          	lw	x2,0(x23)
    2838:	004b8b93          	addi	x23,x23,4

0000283c <I_sra_cg_cr_rs1_rs2_edges_rs1val_0x5bbc8872_rs2val_0x2>:
I_sra_cg_cr_rs1_rs2_edges_rs1val_0x5bbc8872_rs2val_0x2:
  sra x31, x8, x2 # perform operation
    283c:	40245fb3          	sra	x31,x8,x2
  # Check if x31 contains the expected result. x1 is the signature ptr, x5 is the link ptr, x4 is a temp reg.
  RVTEST_SIGUPD(x1, x5, x4, x31, I_sra_cg_cr_rs1_rs2_edges_rs1val_0x5bbc8872_rs2val_0x2, I_sra_cg_cr_rs1_rs2_edges_rs1val_0x5bbc8872_rs2val_0x2_str)
    2840:	0000a203          	lw	x4,0(x1)
    2844:	01f20863          	beq	x4,x31,2854 <I_sra_cg_cr_rs1_rs2_edges_rs1val_0x5bbc8872_rs2val_0x2+0x18>
    2848:	475012ef          	jal	x5,44bc <failedtest_x5_x4>
    284c:	0000283c          	.word	0x0000283c
    2850:	0000c987          	.word	0x0000c987
    2854:	00408093          	addi	x1,x1,4

# Testcase cr_rs1_rs2_edges (Test source rs1 = 0x5bbc8872 rs2 = 0x80000000)
  RVTEST_TESTDATA_LOAD_INT(x23, x27) # load rs1: x27 = 0x5bbc8872
    2858:	000bad83          	lw	x27,0(x23)
    285c:	004b8b93          	addi	x23,x23,4
  RVTEST_TESTDATA_LOAD_INT(x23, x24) # load rs2: x24 = 0x80000000
    2860:	000bac03          	lw	x24,0(x23)
    2864:	004b8b93          	addi	x23,x23,4

00002868 <I_sra_cg_cr_rs1_rs2_edges_rs1val_0x5bbc8872_rs2val_0x80000000>:
I_sra_cg_cr_rs1_rs2_edges_rs1val_0x5bbc8872_rs2val_0x80000000:
  sra x14, x27, x24 # perform operation
    2868:	418dd733          	sra	x14,x27,x24
  # Check if x14 contains the expected result. x1 is the signature ptr, x5 is the link ptr, x4 is a temp reg.
  RVTEST_SIGUPD(x1, x5, x4, x14, I_sra_cg_cr_rs1_rs2_edges_rs1val_0x5bbc8872_rs2val_0x80000000, I_sra_cg_cr_rs1_rs2_edges_rs1val_0x5bbc8872_rs2val_0x80000000_str)
    286c:	0000a203          	lw	x4,0(x1)
    2870:	00e20863          	beq	x4,x14,2880 <I_sra_cg_cr_rs1_rs2_edges_rs1val_0x5bbc8872_rs2val_0x80000000+0x18>
    2874:	449012ef          	jal	x5,44bc <failedtest_x5_x4>
    2878:	00002868          	.word	0x00002868
    287c:	0000c9db          	.word	0x0000c9db
    2880:	00408093          	addi	x1,x1,4

# Testcase cr_rs1_rs2_edges (Test source rs1 = 0x5bbc8872 rs2 = 0x80000001)
  RVTEST_TESTDATA_LOAD_INT(x23, x7) # load rs1: x7 = 0x5bbc8872
    2884:	000ba383          	lw	x7,0(x23)
    2888:	004b8b93          	addi	x23,x23,4
  RVTEST_TESTDATA_LOAD_INT(x23, x28) # load rs2: x28 = 0x80000001
    288c:	000bae03          	lw	x28,0(x23)
    2890:	004b8b93          	addi	x23,x23,4

00002894 <I_sra_cg_cr_rs1_rs2_edges_rs1val_0x5bbc8872_rs2val_0x80000001>:
I_sra_cg_cr_rs1_rs2_edges_rs1val_0x5bbc8872_rs2val_0x80000001:
  sra x22, x7, x28 # perform operation
    2894:	41c3db33          	sra	x22,x7,x28
  # Check if x22 contains the expected result. x1 is the signature ptr, x5 is the link ptr, x4 is a temp reg.
  RVTEST_SIGUPD(x1, x5, x4, x22, I_sra_cg_cr_rs1_rs2_edges_rs1val_0x5bbc8872_rs2val_0x80000001, I_sra_cg_cr_rs1_rs2_edges_rs1val_0x5bbc8872_rs2val_0x80000001_str)
    2898:	0000a203          	lw	x4,0(x1)
    289c:	01620863          	beq	x4,x22,28ac <I_sra_cg_cr_rs1_rs2_edges_rs1val_0x5bbc8872_rs2val_0x80000001+0x18>
    28a0:	41d012ef          	jal	x5,44bc <failedtest_x5_x4>
    28a4:	00002894          	.word	0x00002894
    28a8:	0000ca36          	.word	0x0000ca36
    28ac:	00408093          	addi	x1,x1,4

# Testcase cr_rs1_rs2_edges (Test source rs1 = 0x5bbc8872 rs2 = 0x7fffffff)
  RVTEST_TESTDATA_LOAD_INT(x23, x21) # load rs1: x21 = 0x5bbc8872
    28b0:	000baa83          	lw	x21,0(x23)
    28b4:	004b8b93          	addi	x23,x23,4
  RVTEST_TESTDATA_LOAD_INT(x23, x3) # load rs2: x3 = 0x7fffffff
    28b8:	000ba183          	lw	x3,0(x23)
    28bc:	004b8b93          	addi	x23,x23,4

000028c0 <I_sra_cg_cr_rs1_rs2_edges_rs1val_0x5bbc8872_rs2val_0x7fffffff>:
I_sra_cg_cr_rs1_rs2_edges_rs1val_0x5bbc8872_rs2val_0x7fffffff:
  sra x26, x21, x3 # perform operation
    28c0:	403add33          	sra	x26,x21,x3
  # Check if x26 contains the expected result. x1 is the signature ptr, x5 is the link ptr, x4 is a temp reg.
  RVTEST_SIGUPD(x1, x5, x4, x26, I_sra_cg_cr_rs1_rs2_edges_rs1val_0x5bbc8872_rs2val_0x7fffffff, I_sra_cg_cr_rs1_rs2_edges_rs1val_0x5bbc8872_rs2val_0x7fffffff_str)
    28c4:	0000a203          	lw	x4,0(x1)
    28c8:	01a20863          	beq	x4,x26,28d8 <I_sra_cg_cr_rs1_rs2_edges_rs1val_0x5bbc8872_rs2val_0x7fffffff+0x18>
    28cc:	3f1012ef          	jal	x5,44bc <failedtest_x5_x4>
    28d0:	000028c0          	.word	0x000028c0
    28d4:	0000ca91          	.word	0x0000ca91
    28d8:	00408093          	addi	x1,x1,4

# Testcase cr_rs1_rs2_edges (Test source rs1 = 0x5bbc8872 rs2 = 0x7ffffffe)
  RVTEST_TESTDATA_LOAD_INT(x23, x9) # load rs1: x9 = 0x5bbc8872
    28dc:	000ba483          	lw	x9,0(x23)
    28e0:	004b8b93          	addi	x23,x23,4
  RVTEST_TESTDATA_LOAD_INT(x23, x6) # load rs2: x6 = 0x7ffffffe
    28e4:	000ba303          	lw	x6,0(x23)
    28e8:	004b8b93          	addi	x23,x23,4

000028ec <I_sra_cg_cr_rs1_rs2_edges_rs1val_0x5bbc8872_rs2val_0x7ffffffe>:
I_sra_cg_cr_rs1_rs2_edges_rs1val_0x5bbc8872_rs2val_0x7ffffffe:
  sra x25, x9, x6 # perform operation
    28ec:	4064dcb3          	sra	x25,x9,x6
  # Check if x25 contains the expected result. x1 is the signature ptr, x5 is the link ptr, x4 is a temp reg.
  RVTEST_SIGUPD(x1, x5, x4, x25, I_sra_cg_cr_rs1_rs2_edges_rs1val_0x5bbc8872_rs2val_0x7ffffffe, I_sra_cg_cr_rs1_rs2_edges_rs1val_0x5bbc8872_rs2val_0x7ffffffe_str)
    28f0:	0000a203          	lw	x4,0(x1)
    28f4:	01920863          	beq	x4,x25,2904 <I_sra_cg_cr_rs1_rs2_edges_rs1val_0x5bbc8872_rs2val_0x7ffffffe+0x18>
    28f8:	3c5012ef          	jal	x5,44bc <failedtest_x5_x4>
    28fc:	000028ec          	.word	0x000028ec
    2900:	0000caec          	.word	0x0000caec
    2904:	00408093          	addi	x1,x1,4

# Testcase cr_rs1_rs2_edges (Test source rs1 = 0x5bbc8872 rs2 = 0xffffffff)
  RVTEST_TESTDATA_LOAD_INT(x23, x3) # load rs1: x3 = 0x5bbc8872
    2908:	000ba183          	lw	x3,0(x23)
    290c:	004b8b93          	addi	x23,x23,4
  RVTEST_TESTDATA_LOAD_INT(x23, x26) # load rs2: x26 = 0xffffffff
    2910:	000bad03          	lw	x26,0(x23)
    2914:	004b8b93          	addi	x23,x23,4

00002918 <I_sra_cg_cr_rs1_rs2_edges_rs1val_0x5bbc8872_rs2val_0xffffffff>:
I_sra_cg_cr_rs1_rs2_edges_rs1val_0x5bbc8872_rs2val_0xffffffff:
  sra x2, x3, x26 # perform operation
    2918:	41a1d133          	sra	x2,x3,x26
  # Check if x2 contains the expected result. x1 is the signature ptr, x5 is the link ptr, x4 is a temp reg.
  RVTEST_SIGUPD(x1, x5, x4, x2, I_sra_cg_cr_rs1_rs2_edges_rs1val_0x5bbc8872_rs2val_0xffffffff, I_sra_cg_cr_rs1_rs2_edges_rs1val_0x5bbc8872_rs2val_0xffffffff_str)
    291c:	0000a203          	lw	x4,0(x1)
    2920:	00220863          	beq	x4,x2,2930 <I_sra_cg_cr_rs1_rs2_edges_rs1val_0x5bbc8872_rs2val_0xffffffff+0x18>
    2924:	399012ef          	jal	x5,44bc <failedtest_x5_x4>
    2928:	00002918          	.word	0x00002918
    292c:	0000cb47          	.word	0x0000cb47
    2930:	00408093          	addi	x1,x1,4

# Testcase cr_rs1_rs2_edges (Test source rs1 = 0x5bbc8872 rs2 = 0xfffffffe)
  RVTEST_TESTDATA_LOAD_INT(x23, x31) # load rs1: x31 = 0x5bbc8872
    2934:	000baf83          	lw	x31,0(x23)
    2938:	004b8b93          	addi	x23,x23,4
  RVTEST_TESTDATA_LOAD_INT(x23, x13) # load rs2: x13 = 0xfffffffe
    293c:	000ba683          	lw	x13,0(x23)
    2940:	004b8b93          	addi	x23,x23,4

00002944 <I_sra_cg_cr_rs1_rs2_edges_rs1val_0x5bbc8872_rs2val_0xfffffffe>:
I_sra_cg_cr_rs1_rs2_edges_rs1val_0x5bbc8872_rs2val_0xfffffffe:
  sra x7, x31, x13 # perform operation
    2944:	40dfd3b3          	sra	x7,x31,x13
  # Check if x7 contains the expected result. x1 is the signature ptr, x5 is the link ptr, x4 is a temp reg.
  RVTEST_SIGUPD(x1, x5, x4, x7, I_sra_cg_cr_rs1_rs2_edges_rs1val_0x5bbc8872_rs2val_0xfffffffe, I_sra_cg_cr_rs1_rs2_edges_rs1val_0x5bbc8872_rs2val_0xfffffffe_str)
    2948:	0000a203          	lw	x4,0(x1)
    294c:	00720863          	beq	x4,x7,295c <I_sra_cg_cr_rs1_rs2_edges_rs1val_0x5bbc8872_rs2val_0xfffffffe+0x18>
    2950:	36d012ef          	jal	x5,44bc <failedtest_x5_x4>
    2954:	00002944          	.word	0x00002944
    2958:	0000cba2          	.word	0x0000cba2
    295c:	00408093          	addi	x1,x1,4

# Testcase cr_rs1_rs2_edges (Test source rs1 = 0x5bbc8872 rs2 = 0x5bbc8872)
  RVTEST_TESTDATA_LOAD_INT(x23, x13) # load rs1: x13 = 0x5bbc8872
    2960:	000ba683          	lw	x13,0(x23)
    2964:	004b8b93          	addi	x23,x23,4
  RVTEST_TESTDATA_LOAD_INT(x23, x16) # load rs2: x16 = 0x5bbc8872
    2968:	000ba803          	lw	x16,0(x23)
    296c:	004b8b93          	addi	x23,x23,4

00002970 <I_sra_cg_cr_rs1_rs2_edges_rs1val_0x5bbc8872_rs2val_0x5bbc8872>:
I_sra_cg_cr_rs1_rs2_edges_rs1val_0x5bbc8872_rs2val_0x5bbc8872:
  sra x29, x13, x16 # perform operation
    2970:	4106deb3          	sra	x29,x13,x16
  # Check if x29 contains the expected result. x1 is the signature ptr, x5 is the link ptr, x4 is a temp reg.
  RVTEST_SIGUPD(x1, x5, x4, x29, I_sra_cg_cr_rs1_rs2_edges_rs1val_0x5bbc8872_rs2val_0x5bbc8872, I_sra_cg_cr_rs1_rs2_edges_rs1val_0x5bbc8872_rs2val_0x5bbc8872_str)
    2974:	0000a203          	lw	x4,0(x1)
    2978:	01d20863          	beq	x4,x29,2988 <I_sra_cg_cr_rs1_rs2_edges_rs1val_0x5bbc8872_rs2val_0x5bbc8872+0x18>
    297c:	341012ef          	jal	x5,44bc <failedtest_x5_x4>
    2980:	00002970          	.word	0x00002970
    2984:	0000cbfd          	.word	0x0000cbfd
    2988:	00408093          	addi	x1,x1,4

# Testcase cr_rs1_rs2_edges (Test source rs1 = 0x5bbc8872 rs2 = 0xaaaaaaaa)
  RVTEST_TESTDATA_LOAD_INT(x23, x26) # load rs1: x26 = 0x5bbc8872
    298c:	000bad03          	lw	x26,0(x23)
    2990:	004b8b93          	addi	x23,x23,4
  RVTEST_TESTDATA_LOAD_INT(x23, x29) # load rs2: x29 = 0xaaaaaaaa
    2994:	000bae83          	lw	x29,0(x23)
    2998:	004b8b93          	addi	x23,x23,4

0000299c <I_sra_cg_cr_rs1_rs2_edges_rs1val_0x5bbc8872_rs2val_0xaaaaaaaa>:
I_sra_cg_cr_rs1_rs2_edges_rs1val_0x5bbc8872_rs2val_0xaaaaaaaa:
  sra x24, x26, x29 # perform operation
    299c:	41dd5c33          	sra	x24,x26,x29
  # Check if x24 contains the expected result. x1 is the signature ptr, x5 is the link ptr, x4 is a temp reg.
  RVTEST_SIGUPD(x1, x5, x4, x24, I_sra_cg_cr_rs1_rs2_edges_rs1val_0x5bbc8872_rs2val_0xaaaaaaaa, I_sra_cg_cr_rs1_rs2_edges_rs1val_0x5bbc8872_rs2val_0xaaaaaaaa_str)
    29a0:	0000a203          	lw	x4,0(x1)
    29a4:	01820863          	beq	x4,x24,29b4 <I_sra_cg_cr_rs1_rs2_edges_rs1val_0x5bbc8872_rs2val_0xaaaaaaaa+0x18>
    29a8:	315012ef          	jal	x5,44bc <failedtest_x5_x4>
    29ac:	0000299c          	.word	0x0000299c
    29b0:	0000cc58          	.word	0x0000cc58
    29b4:	00408093          	addi	x1,x1,4

# Testcase cr_rs1_rs2_edges (Test source rs1 = 0x5bbc8872 rs2 = 0x55555555)
  RVTEST_TESTDATA_LOAD_INT(x23, x29) # load rs1: x29 = 0x5bbc8872
    29b8:	000bae83          	lw	x29,0(x23)
    29bc:	004b8b93          	addi	x23,x23,4
  RVTEST_TESTDATA_LOAD_INT(x23, x20) # load rs2: x20 = 0x55555555
    29c0:	000baa03          	lw	x20,0(x23)
    29c4:	004b8b93          	addi	x23,x23,4

000029c8 <I_sra_cg_cr_rs1_rs2_edges_rs1val_0x5bbc8872_rs2val_0x55555555>:
I_sra_cg_cr_rs1_rs2_edges_rs1val_0x5bbc8872_rs2val_0x55555555:
  sra x17, x29, x20 # perform operation
    29c8:	414ed8b3          	sra	x17,x29,x20
  # Check if x17 contains the expected result. x1 is the signature ptr, x5 is the link ptr, x4 is a temp reg.
  RVTEST_SIGUPD(x1, x5, x4, x17, I_sra_cg_cr_rs1_rs2_edges_rs1val_0x5bbc8872_rs2val_0x55555555, I_sra_cg_cr_rs1_rs2_edges_rs1val_0x5bbc8872_rs2val_0x55555555_str)
    29cc:	0000a203          	lw	x4,0(x1)
    29d0:	01120863          	beq	x4,x17,29e0 <I_sra_cg_cr_rs1_rs2_edges_rs1val_0x5bbc8872_rs2val_0x55555555+0x18>
    29d4:	2e9012ef          	jal	x5,44bc <failedtest_x5_x4>
    29d8:	000029c8          	.word	0x000029c8
    29dc:	0000ccb3          	.word	0x0000ccb3
    29e0:	00408093          	addi	x1,x1,4

# Testcase cr_rs1_rs2_edges (Test source rs1 = 0xaaaaaaaa rs2 = 0x00000000)
  RVTEST_TESTDATA_LOAD_INT(x23, x30) # load rs1: x30 = 0xaaaaaaaa
    29e4:	000baf03          	lw	x30,0(x23)
    29e8:	004b8b93          	addi	x23,x23,4
  RVTEST_TESTDATA_LOAD_INT(x23, x3) # load rs2: x3 = 0x00000000
    29ec:	000ba183          	lw	x3,0(x23)
    29f0:	004b8b93          	addi	x23,x23,4

000029f4 <I_sra_cg_cr_rs1_rs2_edges_rs1val_0xaaaaaaaa_rs2val_0x0>:
I_sra_cg_cr_rs1_rs2_edges_rs1val_0xaaaaaaaa_rs2val_0x0:
  sra x25, x30, x3 # perform operation
    29f4:	403f5cb3          	sra	x25,x30,x3
  # Check if x25 contains the expected result. x1 is the signature ptr, x5 is the link ptr, x4 is a temp reg.
  RVTEST_SIGUPD(x1, x5, x4, x25, I_sra_cg_cr_rs1_rs2_edges_rs1val_0xaaaaaaaa_rs2val_0x0, I_sra_cg_cr_rs1_rs2_edges_rs1val_0xaaaaaaaa_rs2val_0x0_str)
    29f8:	0000a203          	lw	x4,0(x1)
    29fc:	01920863          	beq	x4,x25,2a0c <I_sra_cg_cr_rs1_rs2_edges_rs1val_0xaaaaaaaa_rs2val_0x0+0x18>
    2a00:	2bd012ef          	jal	x5,44bc <failedtest_x5_x4>
    2a04:	000029f4          	.word	0x000029f4
    2a08:	0000cd0e          	.word	0x0000cd0e
    2a0c:	00408093          	addi	x1,x1,4

# Testcase cr_rs1_rs2_edges (Test source rs1 = 0xaaaaaaaa rs2 = 0x00000001)
  RVTEST_TESTDATA_LOAD_INT(x23, x12) # load rs1: x12 = 0xaaaaaaaa
    2a10:	000ba603          	lw	x12,0(x23)
    2a14:	004b8b93          	addi	x23,x23,4
  RVTEST_TESTDATA_LOAD_INT(x23, x10) # load rs2: x10 = 0x00000001
    2a18:	000ba503          	lw	x10,0(x23)
    2a1c:	004b8b93          	addi	x23,x23,4

00002a20 <I_sra_cg_cr_rs1_rs2_edges_rs1val_0xaaaaaaaa_rs2val_0x1>:
I_sra_cg_cr_rs1_rs2_edges_rs1val_0xaaaaaaaa_rs2val_0x1:
  sra x25, x12, x10 # perform operation
    2a20:	40a65cb3          	sra	x25,x12,x10
  # Check if x25 contains the expected result. x1 is the signature ptr, x5 is the link ptr, x4 is a temp reg.
  RVTEST_SIGUPD(x1, x5, x4, x25, I_sra_cg_cr_rs1_rs2_edges_rs1val_0xaaaaaaaa_rs2val_0x1, I_sra_cg_cr_rs1_rs2_edges_rs1val_0xaaaaaaaa_rs2val_0x1_str)
    2a24:	0000a203          	lw	x4,0(x1)
    2a28:	01920863          	beq	x4,x25,2a38 <I_sra_cg_cr_rs1_rs2_edges_rs1val_0xaaaaaaaa_rs2val_0x1+0x18>
    2a2c:	291012ef          	jal	x5,44bc <failedtest_x5_x4>
    2a30:	00002a20          	.word	0x00002a20
    2a34:	0000cd62          	.word	0x0000cd62
    2a38:	00408093          	addi	x1,x1,4

# Testcase cr_rs1_rs2_edges (Test source rs1 = 0xaaaaaaaa rs2 = 0x00000002)
  RVTEST_TESTDATA_LOAD_INT(x23, x30) # load rs1: x30 = 0xaaaaaaaa
    2a3c:	000baf03          	lw	x30,0(x23)
    2a40:	004b8b93          	addi	x23,x23,4
  RVTEST_TESTDATA_LOAD_INT(x23, x20) # load rs2: x20 = 0x00000002
    2a44:	000baa03          	lw	x20,0(x23)
    2a48:	004b8b93          	addi	x23,x23,4

00002a4c <I_sra_cg_cr_rs1_rs2_edges_rs1val_0xaaaaaaaa_rs2val_0x2>:
I_sra_cg_cr_rs1_rs2_edges_rs1val_0xaaaaaaaa_rs2val_0x2:
  sra x7, x30, x20 # perform operation
    2a4c:	414f53b3          	sra	x7,x30,x20
  # Check if x7 contains the expected result. x1 is the signature ptr, x5 is the link ptr, x4 is a temp reg.
  RVTEST_SIGUPD(x1, x5, x4, x7, I_sra_cg_cr_rs1_rs2_edges_rs1val_0xaaaaaaaa_rs2val_0x2, I_sra_cg_cr_rs1_rs2_edges_rs1val_0xaaaaaaaa_rs2val_0x2_str)
    2a50:	0000a203          	lw	x4,0(x1)
    2a54:	00720863          	beq	x4,x7,2a64 <I_sra_cg_cr_rs1_rs2_edges_rs1val_0xaaaaaaaa_rs2val_0x2+0x18>
    2a58:	265012ef          	jal	x5,44bc <failedtest_x5_x4>
    2a5c:	00002a4c          	.word	0x00002a4c
    2a60:	0000cdb6          	.word	0x0000cdb6
    2a64:	00408093          	addi	x1,x1,4

# Testcase cr_rs1_rs2_edges (Test source rs1 = 0xaaaaaaaa rs2 = 0x80000000)
  RVTEST_TESTDATA_LOAD_INT(x23, x11) # load rs1: x11 = 0xaaaaaaaa
    2a68:	000ba583          	lw	x11,0(x23)
    2a6c:	004b8b93          	addi	x23,x23,4
  RVTEST_TESTDATA_LOAD_INT(x23, x14) # load rs2: x14 = 0x80000000
    2a70:	000ba703          	lw	x14,0(x23)
    2a74:	004b8b93          	addi	x23,x23,4

00002a78 <I_sra_cg_cr_rs1_rs2_edges_rs1val_0xaaaaaaaa_rs2val_0x80000000>:
I_sra_cg_cr_rs1_rs2_edges_rs1val_0xaaaaaaaa_rs2val_0x80000000:
  sra x9, x11, x14 # perform operation
    2a78:	40e5d4b3          	sra	x9,x11,x14
  # Check if x9 contains the expected result. x1 is the signature ptr, x5 is the link ptr, x4 is a temp reg.
  RVTEST_SIGUPD(x1, x5, x4, x9, I_sra_cg_cr_rs1_rs2_edges_rs1val_0xaaaaaaaa_rs2val_0x80000000, I_sra_cg_cr_rs1_rs2_edges_rs1val_0xaaaaaaaa_rs2val_0x80000000_str)
    2a7c:	0000a203          	lw	x4,0(x1)
    2a80:	00920863          	beq	x4,x9,2a90 <I_sra_cg_cr_rs1_rs2_edges_rs1val_0xaaaaaaaa_rs2val_0x80000000+0x18>
    2a84:	239012ef          	jal	x5,44bc <failedtest_x5_x4>
    2a88:	00002a78          	.word	0x00002a78
    2a8c:	0000ce0a          	.word	0x0000ce0a
    2a90:	00408093          	addi	x1,x1,4

# Testcase cr_rs1_rs2_edges (Test source rs1 = 0xaaaaaaaa rs2 = 0x80000001)
  RVTEST_TESTDATA_LOAD_INT(x23, x14) # load rs1: x14 = 0xaaaaaaaa
    2a94:	000ba703          	lw	x14,0(x23)
    2a98:	004b8b93          	addi	x23,x23,4
  RVTEST_TESTDATA_LOAD_INT(x23, x11) # load rs2: x11 = 0x80000001
    2a9c:	000ba583          	lw	x11,0(x23)
    2aa0:	004b8b93          	addi	x23,x23,4

00002aa4 <I_sra_cg_cr_rs1_rs2_edges_rs1val_0xaaaaaaaa_rs2val_0x80000001>:
I_sra_cg_cr_rs1_rs2_edges_rs1val_0xaaaaaaaa_rs2val_0x80000001:
  sra x17, x14, x11 # perform operation
    2aa4:	40b758b3          	sra	x17,x14,x11
  # Check if x17 contains the expected result. x1 is the signature ptr, x5 is the link ptr, x4 is a temp reg.
  RVTEST_SIGUPD(x1, x5, x4, x17, I_sra_cg_cr_rs1_rs2_edges_rs1val_0xaaaaaaaa_rs2val_0x80000001, I_sra_cg_cr_rs1_rs2_edges_rs1val_0xaaaaaaaa_rs2val_0x80000001_str)
    2aa8:	0000a203          	lw	x4,0(x1)
    2aac:	01120863          	beq	x4,x17,2abc <I_sra_cg_cr_rs1_rs2_edges_rs1val_0xaaaaaaaa_rs2val_0x80000001+0x18>
    2ab0:	20d012ef          	jal	x5,44bc <failedtest_x5_x4>
    2ab4:	00002aa4          	.word	0x00002aa4
    2ab8:	0000ce65          	.word	0x0000ce65
    2abc:	00408093          	addi	x1,x1,4

# Testcase cr_rs1_rs2_edges (Test source rs1 = 0xaaaaaaaa rs2 = 0x7fffffff)
  RVTEST_TESTDATA_LOAD_INT(x23, x8) # load rs1: x8 = 0xaaaaaaaa
    2ac0:	000ba403          	lw	x8,0(x23)
    2ac4:	004b8b93          	addi	x23,x23,4
  RVTEST_TESTDATA_LOAD_INT(x23, x30) # load rs2: x30 = 0x7fffffff
    2ac8:	000baf03          	lw	x30,0(x23)
    2acc:	004b8b93          	addi	x23,x23,4

00002ad0 <I_sra_cg_cr_rs1_rs2_edges_rs1val_0xaaaaaaaa_rs2val_0x7fffffff>:
I_sra_cg_cr_rs1_rs2_edges_rs1val_0xaaaaaaaa_rs2val_0x7fffffff:
  sra x31, x8, x30 # perform operation
    2ad0:	41e45fb3          	sra	x31,x8,x30
  # Check if x31 contains the expected result. x1 is the signature ptr, x5 is the link ptr, x4 is a temp reg.
  RVTEST_SIGUPD(x1, x5, x4, x31, I_sra_cg_cr_rs1_rs2_edges_rs1val_0xaaaaaaaa_rs2val_0x7fffffff, I_sra_cg_cr_rs1_rs2_edges_rs1val_0xaaaaaaaa_rs2val_0x7fffffff_str)
    2ad4:	0000a203          	lw	x4,0(x1)
    2ad8:	01f20863          	beq	x4,x31,2ae8 <I_sra_cg_cr_rs1_rs2_edges_rs1val_0xaaaaaaaa_rs2val_0x7fffffff+0x18>
    2adc:	1e1012ef          	jal	x5,44bc <failedtest_x5_x4>
    2ae0:	00002ad0          	.word	0x00002ad0
    2ae4:	0000cec0          	.word	0x0000cec0
    2ae8:	00408093          	addi	x1,x1,4

# Testcase cr_rs1_rs2_edges (Test source rs1 = 0xaaaaaaaa rs2 = 0x7ffffffe)
  RVTEST_TESTDATA_LOAD_INT(x23, x19) # load rs1: x19 = 0xaaaaaaaa
    2aec:	000ba983          	lw	x19,0(x23)
    2af0:	004b8b93          	addi	x23,x23,4
  RVTEST_TESTDATA_LOAD_INT(x23, x12) # load rs2: x12 = 0x7ffffffe
    2af4:	000ba603          	lw	x12,0(x23)
    2af8:	004b8b93          	addi	x23,x23,4

00002afc <I_sra_cg_cr_rs1_rs2_edges_rs1val_0xaaaaaaaa_rs2val_0x7ffffffe>:
I_sra_cg_cr_rs1_rs2_edges_rs1val_0xaaaaaaaa_rs2val_0x7ffffffe:
  sra x28, x19, x12 # perform operation
    2afc:	40c9de33          	sra	x28,x19,x12
  # Check if x28 contains the expected result. x1 is the signature ptr, x5 is the link ptr, x4 is a temp reg.
  RVTEST_SIGUPD(x1, x5, x4, x28, I_sra_cg_cr_rs1_rs2_edges_rs1val_0xaaaaaaaa_rs2val_0x7ffffffe, I_sra_cg_cr_rs1_rs2_edges_rs1val_0xaaaaaaaa_rs2val_0x7ffffffe_str)
    2b00:	0000a203          	lw	x4,0(x1)
    2b04:	01c20863          	beq	x4,x28,2b14 <I_sra_cg_cr_rs1_rs2_edges_rs1val_0xaaaaaaaa_rs2val_0x7ffffffe+0x18>
    2b08:	1b5012ef          	jal	x5,44bc <failedtest_x5_x4>
    2b0c:	00002afc          	.word	0x00002afc
    2b10:	0000cf1b          	.word	0x0000cf1b
    2b14:	00408093          	addi	x1,x1,4

# Testcase cr_rs1_rs2_edges (Test source rs1 = 0xaaaaaaaa rs2 = 0xffffffff)
  RVTEST_TESTDATA_LOAD_INT(x23, x19) # load rs1: x19 = 0xaaaaaaaa
    2b18:	000ba983          	lw	x19,0(x23)
    2b1c:	004b8b93          	addi	x23,x23,4
  RVTEST_TESTDATA_LOAD_INT(x23, x30) # load rs2: x30 = 0xffffffff
    2b20:	000baf03          	lw	x30,0(x23)
    2b24:	004b8b93          	addi	x23,x23,4

00002b28 <I_sra_cg_cr_rs1_rs2_edges_rs1val_0xaaaaaaaa_rs2val_0xffffffff>:
I_sra_cg_cr_rs1_rs2_edges_rs1val_0xaaaaaaaa_rs2val_0xffffffff:
  sra x9, x19, x30 # perform operation
    2b28:	41e9d4b3          	sra	x9,x19,x30
  # Check if x9 contains the expected result. x1 is the signature ptr, x5 is the link ptr, x4 is a temp reg.
  RVTEST_SIGUPD(x1, x5, x4, x9, I_sra_cg_cr_rs1_rs2_edges_rs1val_0xaaaaaaaa_rs2val_0xffffffff, I_sra_cg_cr_rs1_rs2_edges_rs1val_0xaaaaaaaa_rs2val_0xffffffff_str)
    2b2c:	0000a203          	lw	x4,0(x1)
    2b30:	00920863          	beq	x4,x9,2b40 <I_sra_cg_cr_rs1_rs2_edges_rs1val_0xaaaaaaaa_rs2val_0xffffffff+0x18>
    2b34:	189012ef          	jal	x5,44bc <failedtest_x5_x4>
    2b38:	00002b28          	.word	0x00002b28
    2b3c:	0000cf76          	.word	0x0000cf76
    2b40:	00408093          	addi	x1,x1,4

# Testcase cr_rs1_rs2_edges (Test source rs1 = 0xaaaaaaaa rs2 = 0xfffffffe)
  RVTEST_TESTDATA_LOAD_INT(x23, x27) # load rs1: x27 = 0xaaaaaaaa
    2b44:	000bad83          	lw	x27,0(x23)
    2b48:	004b8b93          	addi	x23,x23,4
  RVTEST_TESTDATA_LOAD_INT(x23, x26) # load rs2: x26 = 0xfffffffe
    2b4c:	000bad03          	lw	x26,0(x23)
    2b50:	004b8b93          	addi	x23,x23,4

00002b54 <I_sra_cg_cr_rs1_rs2_edges_rs1val_0xaaaaaaaa_rs2val_0xfffffffe>:
I_sra_cg_cr_rs1_rs2_edges_rs1val_0xaaaaaaaa_rs2val_0xfffffffe:
  sra x3, x27, x26 # perform operation
    2b54:	41add1b3          	sra	x3,x27,x26
  # Check if x3 contains the expected result. x1 is the signature ptr, x5 is the link ptr, x4 is a temp reg.
  RVTEST_SIGUPD(x1, x5, x4, x3, I_sra_cg_cr_rs1_rs2_edges_rs1val_0xaaaaaaaa_rs2val_0xfffffffe, I_sra_cg_cr_rs1_rs2_edges_rs1val_0xaaaaaaaa_rs2val_0xfffffffe_str)
    2b58:	0000a203          	lw	x4,0(x1)
    2b5c:	00320863          	beq	x4,x3,2b6c <I_sra_cg_cr_rs1_rs2_edges_rs1val_0xaaaaaaaa_rs2val_0xfffffffe+0x18>
    2b60:	15d012ef          	jal	x5,44bc <failedtest_x5_x4>
    2b64:	00002b54          	.word	0x00002b54
    2b68:	0000cfd1          	.word	0x0000cfd1
    2b6c:	00408093          	addi	x1,x1,4

# Testcase cr_rs1_rs2_edges (Test source rs1 = 0xaaaaaaaa rs2 = 0x5bbc8872)
  RVTEST_TESTDATA_LOAD_INT(x23, x25) # load rs1: x25 = 0xaaaaaaaa
    2b70:	000bac83          	lw	x25,0(x23)
    2b74:	004b8b93          	addi	x23,x23,4
  RVTEST_TESTDATA_LOAD_INT(x23, x8) # load rs2: x8 = 0x5bbc8872
    2b78:	000ba403          	lw	x8,0(x23)
    2b7c:	004b8b93          	addi	x23,x23,4

00002b80 <I_sra_cg_cr_rs1_rs2_edges_rs1val_0xaaaaaaaa_rs2val_0x5bbc8872>:
I_sra_cg_cr_rs1_rs2_edges_rs1val_0xaaaaaaaa_rs2val_0x5bbc8872:
  sra x15, x25, x8 # perform operation
    2b80:	408cd7b3          	sra	x15,x25,x8
  # Check if x15 contains the expected result. x1 is the signature ptr, x5 is the link ptr, x4 is a temp reg.
  RVTEST_SIGUPD(x1, x5, x4, x15, I_sra_cg_cr_rs1_rs2_edges_rs1val_0xaaaaaaaa_rs2val_0x5bbc8872, I_sra_cg_cr_rs1_rs2_edges_rs1val_0xaaaaaaaa_rs2val_0x5bbc8872_str)
    2b84:	0000a203          	lw	x4,0(x1)
    2b88:	00f20863          	beq	x4,x15,2b98 <I_sra_cg_cr_rs1_rs2_edges_rs1val_0xaaaaaaaa_rs2val_0x5bbc8872+0x18>
    2b8c:	131012ef          	jal	x5,44bc <failedtest_x5_x4>
    2b90:	00002b80          	.word	0x00002b80
    2b94:	0000d02c          	.word	0x0000d02c
    2b98:	00408093          	addi	x1,x1,4

# Testcase cr_rs1_rs2_edges (Test source rs1 = 0xaaaaaaaa rs2 = 0xaaaaaaaa)
  RVTEST_TESTDATA_LOAD_INT(x23, x2) # load rs1: x2 = 0xaaaaaaaa
    2b9c:	000ba103          	lw	x2,0(x23)
    2ba0:	004b8b93          	addi	x23,x23,4
  RVTEST_TESTDATA_LOAD_INT(x23, x25) # load rs2: x25 = 0xaaaaaaaa
    2ba4:	000bac83          	lw	x25,0(x23)
    2ba8:	004b8b93          	addi	x23,x23,4

00002bac <I_sra_cg_cr_rs1_rs2_edges_rs1val_0xaaaaaaaa_rs2val_0xaaaaaaaa>:
I_sra_cg_cr_rs1_rs2_edges_rs1val_0xaaaaaaaa_rs2val_0xaaaaaaaa:
  sra x21, x2, x25 # perform operation
    2bac:	41915ab3          	sra	x21,x2,x25
  # Check if x21 contains the expected result. x1 is the signature ptr, x5 is the link ptr, x4 is a temp reg.
  RVTEST_SIGUPD(x1, x5, x4, x21, I_sra_cg_cr_rs1_rs2_edges_rs1val_0xaaaaaaaa_rs2val_0xaaaaaaaa, I_sra_cg_cr_rs1_rs2_edges_rs1val_0xaaaaaaaa_rs2val_0xaaaaaaaa_str)
    2bb0:	0000a203          	lw	x4,0(x1)
    2bb4:	01520863          	beq	x4,x21,2bc4 <I_sra_cg_cr_rs1_rs2_edges_rs1val_0xaaaaaaaa_rs2val_0xaaaaaaaa+0x18>
    2bb8:	105012ef          	jal	x5,44bc <failedtest_x5_x4>
    2bbc:	00002bac          	.word	0x00002bac
    2bc0:	0000d087          	.word	0x0000d087
    2bc4:	00408093          	addi	x1,x1,4

# Testcase cr_rs1_rs2_edges (Test source rs1 = 0xaaaaaaaa rs2 = 0x55555555)
  RVTEST_TESTDATA_LOAD_INT(x23, x9) # load rs1: x9 = 0xaaaaaaaa
    2bc8:	000ba483          	lw	x9,0(x23)
    2bcc:	004b8b93          	addi	x23,x23,4
  RVTEST_TESTDATA_LOAD_INT(x23, x28) # load rs2: x28 = 0x55555555
    2bd0:	000bae03          	lw	x28,0(x23)
    2bd4:	004b8b93          	addi	x23,x23,4

00002bd8 <I_sra_cg_cr_rs1_rs2_edges_rs1val_0xaaaaaaaa_rs2val_0x55555555>:
I_sra_cg_cr_rs1_rs2_edges_rs1val_0xaaaaaaaa_rs2val_0x55555555:
  sra x17, x9, x28 # perform operation
    2bd8:	41c4d8b3          	sra	x17,x9,x28
  # Check if x17 contains the expected result. x1 is the signature ptr, x5 is the link ptr, x4 is a temp reg.
  RVTEST_SIGUPD(x1, x5, x4, x17, I_sra_cg_cr_rs1_rs2_edges_rs1val_0xaaaaaaaa_rs2val_0x55555555, I_sra_cg_cr_rs1_rs2_edges_rs1val_0xaaaaaaaa_rs2val_0x55555555_str)
    2bdc:	0000a203          	lw	x4,0(x1)
    2be0:	01120863          	beq	x4,x17,2bf0 <I_sra_cg_cr_rs1_rs2_edges_rs1val_0xaaaaaaaa_rs2val_0x55555555+0x18>
    2be4:	0d9012ef          	jal	x5,44bc <failedtest_x5_x4>
    2be8:	00002bd8          	.word	0x00002bd8
    2bec:	0000d0e2          	.word	0x0000d0e2
    2bf0:	00408093          	addi	x1,x1,4

# Testcase cr_rs1_rs2_edges (Test source rs1 = 0x55555555 rs2 = 0x00000000)
  RVTEST_TESTDATA_LOAD_INT(x23, x15) # load rs1: x15 = 0x55555555
    2bf4:	000ba783          	lw	x15,0(x23)
    2bf8:	004b8b93          	addi	x23,x23,4
  RVTEST_TESTDATA_LOAD_INT(x23, x27) # load rs2: x27 = 0x00000000
    2bfc:	000bad83          	lw	x27,0(x23)
    2c00:	004b8b93          	addi	x23,x23,4

00002c04 <I_sra_cg_cr_rs1_rs2_edges_rs1val_0x55555555_rs2val_0x0>:
I_sra_cg_cr_rs1_rs2_edges_rs1val_0x55555555_rs2val_0x0:
  sra x8, x15, x27 # perform operation
    2c04:	41b7d433          	sra	x8,x15,x27
  # Check if x8 contains the expected result. x1 is the signature ptr, x5 is the link ptr, x4 is a temp reg.
  RVTEST_SIGUPD(x1, x5, x4, x8, I_sra_cg_cr_rs1_rs2_edges_rs1val_0x55555555_rs2val_0x0, I_sra_cg_cr_rs1_rs2_edges_rs1val_0x55555555_rs2val_0x0_str)
    2c08:	0000a203          	lw	x4,0(x1)
    2c0c:	00820863          	beq	x4,x8,2c1c <I_sra_cg_cr_rs1_rs2_edges_rs1val_0x55555555_rs2val_0x0+0x18>
    2c10:	0ad012ef          	jal	x5,44bc <failedtest_x5_x4>
    2c14:	00002c04          	.word	0x00002c04
    2c18:	0000d13d          	.word	0x0000d13d
    2c1c:	00408093          	addi	x1,x1,4

# Testcase cr_rs1_rs2_edges (Test source rs1 = 0x55555555 rs2 = 0x00000001)
  RVTEST_TESTDATA_LOAD_INT(x23, x15) # load rs1: x15 = 0x55555555
    2c20:	000ba783          	lw	x15,0(x23)
    2c24:	004b8b93          	addi	x23,x23,4
  RVTEST_TESTDATA_LOAD_INT(x23, x3) # load rs2: x3 = 0x00000001
    2c28:	000ba183          	lw	x3,0(x23)
    2c2c:	004b8b93          	addi	x23,x23,4

00002c30 <I_sra_cg_cr_rs1_rs2_edges_rs1val_0x55555555_rs2val_0x1>:
I_sra_cg_cr_rs1_rs2_edges_rs1val_0x55555555_rs2val_0x1:
  sra x2, x15, x3 # perform operation
    2c30:	4037d133          	sra	x2,x15,x3
  # Check if x2 contains the expected result. x1 is the signature ptr, x5 is the link ptr, x4 is a temp reg.
  RVTEST_SIGUPD(x1, x5, x4, x2, I_sra_cg_cr_rs1_rs2_edges_rs1val_0x55555555_rs2val_0x1, I_sra_cg_cr_rs1_rs2_edges_rs1val_0x55555555_rs2val_0x1_str)
    2c34:	0000a203          	lw	x4,0(x1)
    2c38:	00220863          	beq	x4,x2,2c48 <I_sra_cg_cr_rs1_rs2_edges_rs1val_0x55555555_rs2val_0x1+0x18>
    2c3c:	081012ef          	jal	x5,44bc <failedtest_x5_x4>
    2c40:	00002c30          	.word	0x00002c30
    2c44:	0000d191          	.word	0x0000d191
    2c48:	00408093          	addi	x1,x1,4

# Testcase cr_rs1_rs2_edges (Test source rs1 = 0x55555555 rs2 = 0x00000002)
  RVTEST_TESTDATA_LOAD_INT(x23, x18) # load rs1: x18 = 0x55555555
    2c4c:	000ba903          	lw	x18,0(x23)
    2c50:	004b8b93          	addi	x23,x23,4
  RVTEST_TESTDATA_LOAD_INT(x23, x10) # load rs2: x10 = 0x00000002
    2c54:	000ba503          	lw	x10,0(x23)
    2c58:	004b8b93          	addi	x23,x23,4

00002c5c <I_sra_cg_cr_rs1_rs2_edges_rs1val_0x55555555_rs2val_0x2>:
I_sra_cg_cr_rs1_rs2_edges_rs1val_0x55555555_rs2val_0x2:
  sra x15, x18, x10 # perform operation
    2c5c:	40a957b3          	sra	x15,x18,x10
  # Check if x15 contains the expected result. x1 is the signature ptr, x5 is the link ptr, x4 is a temp reg.
  RVTEST_SIGUPD(x1, x5, x4, x15, I_sra_cg_cr_rs1_rs2_edges_rs1val_0x55555555_rs2val_0x2, I_sra_cg_cr_rs1_rs2_edges_rs1val_0x55555555_rs2val_0x2_str)
    2c60:	0000a203          	lw	x4,0(x1)
    2c64:	00f20863          	beq	x4,x15,2c74 <I_sra_cg_cr_rs1_rs2_edges_rs1val_0x55555555_rs2val_0x2+0x18>
    2c68:	055012ef          	jal	x5,44bc <failedtest_x5_x4>
    2c6c:	00002c5c          	.word	0x00002c5c
    2c70:	0000d1e5          	.word	0x0000d1e5
    2c74:	00408093          	addi	x1,x1,4

# Testcase cr_rs1_rs2_edges (Test source rs1 = 0x55555555 rs2 = 0x80000000)
  RVTEST_TESTDATA_LOAD_INT(x23, x8) # load rs1: x8 = 0x55555555
    2c78:	000ba403          	lw	x8,0(x23)
    2c7c:	004b8b93          	addi	x23,x23,4
  RVTEST_TESTDATA_LOAD_INT(x23, x15) # load rs2: x15 = 0x80000000
    2c80:	000ba783          	lw	x15,0(x23)
    2c84:	004b8b93          	addi	x23,x23,4

00002c88 <I_sra_cg_cr_rs1_rs2_edges_rs1val_0x55555555_rs2val_0x80000000>:
I_sra_cg_cr_rs1_rs2_edges_rs1val_0x55555555_rs2val_0x80000000:
  sra x27, x8, x15 # perform operation
    2c88:	40f45db3          	sra	x27,x8,x15
  # Check if x27 contains the expected result. x1 is the signature ptr, x5 is the link ptr, x4 is a temp reg.
  RVTEST_SIGUPD(x1, x5, x4, x27, I_sra_cg_cr_rs1_rs2_edges_rs1val_0x55555555_rs2val_0x80000000, I_sra_cg_cr_rs1_rs2_edges_rs1val_0x55555555_rs2val_0x80000000_str)
    2c8c:	0000a203          	lw	x4,0(x1)
    2c90:	01b20863          	beq	x4,x27,2ca0 <I_sra_cg_cr_rs1_rs2_edges_rs1val_0x55555555_rs2val_0x80000000+0x18>
    2c94:	029012ef          	jal	x5,44bc <failedtest_x5_x4>
    2c98:	00002c88          	.word	0x00002c88
    2c9c:	0000d239          	.word	0x0000d239
    2ca0:	00408093          	addi	x1,x1,4

# Testcase cr_rs1_rs2_edges (Test source rs1 = 0x55555555 rs2 = 0x80000001)
  RVTEST_TESTDATA_LOAD_INT(x23, x24) # load rs1: x24 = 0x55555555
    2ca4:	000bac03          	lw	x24,0(x23)
    2ca8:	004b8b93          	addi	x23,x23,4
  RVTEST_TESTDATA_LOAD_INT(x23, x12) # load rs2: x12 = 0x80000001
    2cac:	000ba603          	lw	x12,0(x23)
    2cb0:	004b8b93          	addi	x23,x23,4

00002cb4 <I_sra_cg_cr_rs1_rs2_edges_rs1val_0x55555555_rs2val_0x80000001>:
I_sra_cg_cr_rs1_rs2_edges_rs1val_0x55555555_rs2val_0x80000001:
  sra x26, x24, x12 # perform operation
    2cb4:	40cc5d33          	sra	x26,x24,x12
  # Check if x26 contains the expected result. x1 is the signature ptr, x5 is the link ptr, x4 is a temp reg.
  RVTEST_SIGUPD(x1, x5, x4, x26, I_sra_cg_cr_rs1_rs2_edges_rs1val_0x55555555_rs2val_0x80000001, I_sra_cg_cr_rs1_rs2_edges_rs1val_0x55555555_rs2val_0x80000001_str)
    2cb8:	0000a203          	lw	x4,0(x1)
    2cbc:	01a20863          	beq	x4,x26,2ccc <I_sra_cg_cr_rs1_rs2_edges_rs1val_0x55555555_rs2val_0x80000001+0x18>
    2cc0:	7fc012ef          	jal	x5,44bc <failedtest_x5_x4>
    2cc4:	00002cb4          	.word	0x00002cb4
    2cc8:	0000d294          	.word	0x0000d294
    2ccc:	00408093          	addi	x1,x1,4

# Testcase cr_rs1_rs2_edges (Test source rs1 = 0x55555555 rs2 = 0x7fffffff)
  RVTEST_TESTDATA_LOAD_INT(x23, x8) # load rs1: x8 = 0x55555555
    2cd0:	000ba403          	lw	x8,0(x23)
    2cd4:	004b8b93          	addi	x23,x23,4
  RVTEST_TESTDATA_LOAD_INT(x23, x18) # load rs2: x18 = 0x7fffffff
    2cd8:	000ba903          	lw	x18,0(x23)
    2cdc:	004b8b93          	addi	x23,x23,4

00002ce0 <I_sra_cg_cr_rs1_rs2_edges_rs1val_0x55555555_rs2val_0x7fffffff>:
I_sra_cg_cr_rs1_rs2_edges_rs1val_0x55555555_rs2val_0x7fffffff:
  sra x20, x8, x18 # perform operation
    2ce0:	41245a33          	sra	x20,x8,x18
  # Check if x20 contains the expected result. x1 is the signature ptr, x5 is the link ptr, x4 is a temp reg.
  RVTEST_SIGUPD(x1, x5, x4, x20, I_sra_cg_cr_rs1_rs2_edges_rs1val_0x55555555_rs2val_0x7fffffff, I_sra_cg_cr_rs1_rs2_edges_rs1val_0x55555555_rs2val_0x7fffffff_str)
    2ce4:	0000a203          	lw	x4,0(x1)
    2ce8:	01420863          	beq	x4,x20,2cf8 <I_sra_cg_cr_rs1_rs2_edges_rs1val_0x55555555_rs2val_0x7fffffff+0x18>
    2cec:	7d0012ef          	jal	x5,44bc <failedtest_x5_x4>
    2cf0:	00002ce0          	.word	0x00002ce0
    2cf4:	0000d2ef          	.word	0x0000d2ef
    2cf8:	00408093          	addi	x1,x1,4

# Testcase cr_rs1_rs2_edges (Test source rs1 = 0x55555555 rs2 = 0x7ffffffe)
  RVTEST_TESTDATA_LOAD_INT(x23, x10) # load rs1: x10 = 0x55555555
    2cfc:	000ba503          	lw	x10,0(x23)
    2d00:	004b8b93          	addi	x23,x23,4
  RVTEST_TESTDATA_LOAD_INT(x23, x24) # load rs2: x24 = 0x7ffffffe
    2d04:	000bac03          	lw	x24,0(x23)
    2d08:	004b8b93          	addi	x23,x23,4

00002d0c <I_sra_cg_cr_rs1_rs2_edges_rs1val_0x55555555_rs2val_0x7ffffffe>:
I_sra_cg_cr_rs1_rs2_edges_rs1val_0x55555555_rs2val_0x7ffffffe:
  sra x22, x10, x24 # perform operation
    2d0c:	41855b33          	sra	x22,x10,x24
  # Check if x22 contains the expected result. x1 is the signature ptr, x5 is the link ptr, x4 is a temp reg.
  RVTEST_SIGUPD(x1, x5, x4, x22, I_sra_cg_cr_rs1_rs2_edges_rs1val_0x55555555_rs2val_0x7ffffffe, I_sra_cg_cr_rs1_rs2_edges_rs1val_0x55555555_rs2val_0x7ffffffe_str)
    2d10:	0000a203          	lw	x4,0(x1)
    2d14:	01620863          	beq	x4,x22,2d24 <I_sra_cg_cr_rs1_rs2_edges_rs1val_0x55555555_rs2val_0x7ffffffe+0x18>
    2d18:	7a4012ef          	jal	x5,44bc <failedtest_x5_x4>
    2d1c:	00002d0c          	.word	0x00002d0c
    2d20:	0000d34a          	.word	0x0000d34a
    2d24:	00408093          	addi	x1,x1,4

# Testcase cr_rs1_rs2_edges (Test source rs1 = 0x55555555 rs2 = 0xffffffff)
  RVTEST_TESTDATA_LOAD_INT(x23, x13) # load rs1: x13 = 0x55555555
    2d28:	000ba683          	lw	x13,0(x23)
    2d2c:	004b8b93          	addi	x23,x23,4
  RVTEST_TESTDATA_LOAD_INT(x23, x24) # load rs2: x24 = 0xffffffff
    2d30:	000bac03          	lw	x24,0(x23)
    2d34:	004b8b93          	addi	x23,x23,4

00002d38 <I_sra_cg_cr_rs1_rs2_edges_rs1val_0x55555555_rs2val_0xffffffff>:
I_sra_cg_cr_rs1_rs2_edges_rs1val_0x55555555_rs2val_0xffffffff:
  sra x9, x13, x24 # perform operation
    2d38:	4186d4b3          	sra	x9,x13,x24
  # Check if x9 contains the expected result. x1 is the signature ptr, x5 is the link ptr, x4 is a temp reg.
  RVTEST_SIGUPD(x1, x5, x4, x9, I_sra_cg_cr_rs1_rs2_edges_rs1val_0x55555555_rs2val_0xffffffff, I_sra_cg_cr_rs1_rs2_edges_rs1val_0x55555555_rs2val_0xffffffff_str)
    2d3c:	0000a203          	lw	x4,0(x1)
    2d40:	00920863          	beq	x4,x9,2d50 <I_sra_cg_cr_rs1_rs2_edges_rs1val_0x55555555_rs2val_0xffffffff+0x18>
    2d44:	778012ef          	jal	x5,44bc <failedtest_x5_x4>
    2d48:	00002d38          	.word	0x00002d38
    2d4c:	0000d3a5          	.word	0x0000d3a5
    2d50:	00408093          	addi	x1,x1,4

# Testcase cr_rs1_rs2_edges (Test source rs1 = 0x55555555 rs2 = 0xfffffffe)
  RVTEST_TESTDATA_LOAD_INT(x23, x11) # load rs1: x11 = 0x55555555
    2d54:	000ba583          	lw	x11,0(x23)
    2d58:	004b8b93          	addi	x23,x23,4
  RVTEST_TESTDATA_LOAD_INT(x23, x26) # load rs2: x26 = 0xfffffffe
    2d5c:	000bad03          	lw	x26,0(x23)
    2d60:	004b8b93          	addi	x23,x23,4

00002d64 <I_sra_cg_cr_rs1_rs2_edges_rs1val_0x55555555_rs2val_0xfffffffe>:
I_sra_cg_cr_rs1_rs2_edges_rs1val_0x55555555_rs2val_0xfffffffe:
  sra x27, x11, x26 # perform operation
    2d64:	41a5ddb3          	sra	x27,x11,x26
  # Check if x27 contains the expected result. x1 is the signature ptr, x5 is the link ptr, x4 is a temp reg.
  RVTEST_SIGUPD(x1, x5, x4, x27, I_sra_cg_cr_rs1_rs2_edges_rs1val_0x55555555_rs2val_0xfffffffe, I_sra_cg_cr_rs1_rs2_edges_rs1val_0x55555555_rs2val_0xfffffffe_str)
    2d68:	0000a203          	lw	x4,0(x1)
    2d6c:	01b20863          	beq	x4,x27,2d7c <I_sra_cg_cr_rs1_rs2_edges_rs1val_0x55555555_rs2val_0xfffffffe+0x18>
    2d70:	74c012ef          	jal	x5,44bc <failedtest_x5_x4>
    2d74:	00002d64          	.word	0x00002d64
    2d78:	0000d400          	.word	0x0000d400
    2d7c:	00408093          	addi	x1,x1,4

# Testcase cr_rs1_rs2_edges (Test source rs1 = 0x55555555 rs2 = 0x5bbc8872)
  RVTEST_TESTDATA_LOAD_INT(x23, x18) # load rs1: x18 = 0x55555555
    2d80:	000ba903          	lw	x18,0(x23)
    2d84:	004b8b93          	addi	x23,x23,4
  RVTEST_TESTDATA_LOAD_INT(x23, x11) # load rs2: x11 = 0x5bbc8872
    2d88:	000ba583          	lw	x11,0(x23)
    2d8c:	004b8b93          	addi	x23,x23,4

00002d90 <I_sra_cg_cr_rs1_rs2_edges_rs1val_0x55555555_rs2val_0x5bbc8872>:
I_sra_cg_cr_rs1_rs2_edges_rs1val_0x55555555_rs2val_0x5bbc8872:
  sra x12, x18, x11 # perform operation
    2d90:	40b95633          	sra	x12,x18,x11
  # Check if x12 contains the expected result. x1 is the signature ptr, x5 is the link ptr, x4 is a temp reg.
  RVTEST_SIGUPD(x1, x5, x4, x12, I_sra_cg_cr_rs1_rs2_edges_rs1val_0x55555555_rs2val_0x5bbc8872, I_sra_cg_cr_rs1_rs2_edges_rs1val_0x55555555_rs2val_0x5bbc8872_str)
    2d94:	0000a203          	lw	x4,0(x1)
    2d98:	00c20863          	beq	x4,x12,2da8 <I_sra_cg_cr_rs1_rs2_edges_rs1val_0x55555555_rs2val_0x5bbc8872+0x18>
    2d9c:	720012ef          	jal	x5,44bc <failedtest_x5_x4>
    2da0:	00002d90          	.word	0x00002d90
    2da4:	0000d45b          	.word	0x0000d45b
    2da8:	00408093          	addi	x1,x1,4

# Testcase cr_rs1_rs2_edges (Test source rs1 = 0x55555555 rs2 = 0xaaaaaaaa)
  RVTEST_TESTDATA_LOAD_INT(x23, x12) # load rs1: x12 = 0x55555555
    2dac:	000ba603          	lw	x12,0(x23)
    2db0:	004b8b93          	addi	x23,x23,4
  RVTEST_TESTDATA_LOAD_INT(x23, x10) # load rs2: x10 = 0xaaaaaaaa
    2db4:	000ba503          	lw	x10,0(x23)
    2db8:	004b8b93          	addi	x23,x23,4

00002dbc <I_sra_cg_cr_rs1_rs2_edges_rs1val_0x55555555_rs2val_0xaaaaaaaa>:
I_sra_cg_cr_rs1_rs2_edges_rs1val_0x55555555_rs2val_0xaaaaaaaa:
  sra x9, x12, x10 # perform operation
    2dbc:	40a654b3          	sra	x9,x12,x10
  # Check if x9 contains the expected result. x1 is the signature ptr, x5 is the link ptr, x4 is a temp reg.
  RVTEST_SIGUPD(x1, x5, x4, x9, I_sra_cg_cr_rs1_rs2_edges_rs1val_0x55555555_rs2val_0xaaaaaaaa, I_sra_cg_cr_rs1_rs2_edges_rs1val_0x55555555_rs2val_0xaaaaaaaa_str)
    2dc0:	0000a203          	lw	x4,0(x1)
    2dc4:	00920863          	beq	x4,x9,2dd4 <I_sra_cg_cr_rs1_rs2_edges_rs1val_0x55555555_rs2val_0xaaaaaaaa+0x18>
    2dc8:	6f4012ef          	jal	x5,44bc <failedtest_x5_x4>
    2dcc:	00002dbc          	.word	0x00002dbc
    2dd0:	0000d4b6          	.word	0x0000d4b6
    2dd4:	00408093          	addi	x1,x1,4

# Testcase cr_rs1_rs2_edges (Test source rs1 = 0x55555555 rs2 = 0x55555555)
  RVTEST_TESTDATA_LOAD_INT(x23, x7) # load rs1: x7 = 0x55555555
    2dd8:	000ba383          	lw	x7,0(x23)
    2ddc:	004b8b93          	addi	x23,x23,4
  RVTEST_TESTDATA_LOAD_INT(x23, x29) # load rs2: x29 = 0x55555555
    2de0:	000bae83          	lw	x29,0(x23)
    2de4:	004b8b93          	addi	x23,x23,4

00002de8 <I_sra_cg_cr_rs1_rs2_edges_rs1val_0x55555555_rs2val_0x55555555>:
I_sra_cg_cr_rs1_rs2_edges_rs1val_0x55555555_rs2val_0x55555555:
  sra x20, x7, x29 # perform operation
    2de8:	41d3da33          	sra	x20,x7,x29
  # Check if x20 contains the expected result. x1 is the signature ptr, x5 is the link ptr, x4 is a temp reg.
  RVTEST_SIGUPD(x1, x5, x4, x20, I_sra_cg_cr_rs1_rs2_edges_rs1val_0x55555555_rs2val_0x55555555, I_sra_cg_cr_rs1_rs2_edges_rs1val_0x55555555_rs2val_0x55555555_str)
    2dec:	0000a203          	lw	x4,0(x1)
    2df0:	01420863          	beq	x4,x20,2e00 <I_sra_cg_cr_rs1_rs2_edges_rs1val_0x55555555_rs2val_0x55555555+0x18>
    2df4:	6c8012ef          	jal	x5,44bc <failedtest_x5_x4>
    2df8:	00002de8          	.word	0x00002de8
    2dfc:	0000d511          	.word	0x0000d511
    2e00:	00408093          	addi	x1,x1,4
/////////////////////////////////
// cmp_rs1_rs2
/////////////////////////////////

# Testcase cmp_rs1_rs2 (Test rs1 = rs2 = x0)
  RVTEST_TESTDATA_LOAD_INT(x23, x0) # load rs1: x0 = 0x8c7dad16
    2e04:	000ba003          	lw	x0,0(x23)
    2e08:	004b8b93          	addi	x23,x23,4
  RVTEST_TESTDATA_LOAD_INT(x23, x0) # load rs2: x0 = 0x82fb1fb3
    2e0c:	000ba003          	lw	x0,0(x23)
    2e10:	004b8b93          	addi	x23,x23,4

00002e14 <I_sra_cg_cmp_rs1_rs2_b0>:
I_sra_cg_cmp_rs1_rs2_b0:
  sra x11, x0, x0 # perform operation
    2e14:	400055b3          	sra	x11,x0,x0
  # Check if x11 contains the expected result. x1 is the signature ptr, x5 is the link ptr, x4 is a temp reg.
  RVTEST_SIGUPD(x1, x5, x4, x11, I_sra_cg_cmp_rs1_rs2_b0, I_sra_cg_cmp_rs1_rs2_b0_str)
    2e18:	0000a203          	lw	x4,0(x1)
    2e1c:	00b20863          	beq	x4,x11,2e2c <I_sra_cg_cmp_rs1_rs2_b0+0x18>
    2e20:	69c012ef          	jal	x5,44bc <failedtest_x5_x4>
    2e24:	00002e14          	.word	0x00002e14
    2e28:	0000d56c          	.word	0x0000d56c
    2e2c:	00408093          	addi	x1,x1,4

  mv x21, x1 # switch signature pointer register to avoid conflict with test
    2e30:	00008a93          	addi	x21,x1,0
# Testcase cmp_rs1_rs2 (Test rs1 = rs2 = x1)
  RVTEST_TESTDATA_LOAD_INT(x23, x1) # load rs1: x1 = 0x45b90bcb
    2e34:	000ba083          	lw	x1,0(x23)
    2e38:	004b8b93          	addi	x23,x23,4
  RVTEST_TESTDATA_LOAD_INT(x23, x1) # load rs2: x1 = 0x0284248b
    2e3c:	000ba083          	lw	x1,0(x23)
    2e40:	004b8b93          	addi	x23,x23,4

00002e44 <I_sra_cg_cmp_rs1_rs2_b1>:
I_sra_cg_cmp_rs1_rs2_b1:
  sra x9, x1, x1 # perform operation
    2e44:	4010d4b3          	sra	x9,x1,x1
  # Check if x9 contains the expected result. x21 is the signature ptr, x5 is the link ptr, x4 is a temp reg.
  RVTEST_SIGUPD(x21, x5, x4, x9, I_sra_cg_cmp_rs1_rs2_b1, I_sra_cg_cmp_rs1_rs2_b1_str)
    2e48:	000aa203          	lw	x4,0(x21)
    2e4c:	00920863          	beq	x4,x9,2e5c <I_sra_cg_cmp_rs1_rs2_b1+0x18>
    2e50:	66c012ef          	jal	x5,44bc <failedtest_x5_x4>
    2e54:	00002e44          	.word	0x00002e44
    2e58:	0000d5a0          	.word	0x0000d5a0
    2e5c:	004a8a93          	addi	x21,x21,4

# Testcase cmp_rs1_rs2 (Test rs1 = rs2 = x2)
  RVTEST_TESTDATA_LOAD_INT(x23, x2) # load rs1: x2 = 0x07ffc41c
    2e60:	000ba103          	lw	x2,0(x23)
    2e64:	004b8b93          	addi	x23,x23,4
  RVTEST_TESTDATA_LOAD_INT(x23, x2) # load rs2: x2 = 0x936aa0d0
    2e68:	000ba103          	lw	x2,0(x23)
    2e6c:	004b8b93          	addi	x23,x23,4

00002e70 <I_sra_cg_cmp_rs1_rs2_b2>:
I_sra_cg_cmp_rs1_rs2_b2:
  sra x0, x2, x2 # perform operation
    2e70:	40215033          	sra	x0,x2,x2
  # Check if x0 contains the expected result. x21 is the signature ptr, x5 is the link ptr, x4 is a temp reg.
  RVTEST_SIGUPD(x21, x5, x4, x0, I_sra_cg_cmp_rs1_rs2_b2, I_sra_cg_cmp_rs1_rs2_b2_str)
    2e74:	000aa203          	lw	x4,0(x21)
    2e78:	00020863          	beq	x4,x0,2e88 <I_sra_cg_cmp_rs1_rs2_b2+0x18>
    2e7c:	640012ef          	jal	x5,44bc <failedtest_x5_x4>
    2e80:	00002e70          	.word	0x00002e70
    2e84:	0000d5d4          	.word	0x0000d5d4
    2e88:	004a8a93          	addi	x21,x21,4

# Testcase cmp_rs1_rs2 (Test rs1 = rs2 = x3)
  RVTEST_TESTDATA_LOAD_INT(x23, x3) # load rs1: x3 = 0x3c38b3f0
    2e8c:	000ba183          	lw	x3,0(x23)
    2e90:	004b8b93          	addi	x23,x23,4
  RVTEST_TESTDATA_LOAD_INT(x23, x3) # load rs2: x3 = 0xf98631dd
    2e94:	000ba183          	lw	x3,0(x23)
    2e98:	004b8b93          	addi	x23,x23,4

00002e9c <I_sra_cg_cmp_rs1_rs2_b3>:
I_sra_cg_cmp_rs1_rs2_b3:
  sra x27, x3, x3 # perform operation
    2e9c:	4031ddb3          	sra	x27,x3,x3
  # Check if x27 contains the expected result. x21 is the signature ptr, x5 is the link ptr, x4 is a temp reg.
  RVTEST_SIGUPD(x21, x5, x4, x27, I_sra_cg_cmp_rs1_rs2_b3, I_sra_cg_cmp_rs1_rs2_b3_str)
    2ea0:	000aa203          	lw	x4,0(x21)
    2ea4:	01b20863          	beq	x4,x27,2eb4 <I_sra_cg_cmp_rs1_rs2_b3+0x18>
    2ea8:	614012ef          	jal	x5,44bc <failedtest_x5_x4>
    2eac:	00002e9c          	.word	0x00002e9c
    2eb0:	0000d608          	.word	0x0000d608
    2eb4:	004a8a93          	addi	x21,x21,4

  mv x7, x4 # switch temp register to avoid conflict with test
    2eb8:	00020393          	addi	x7,x4,0 # 0 <rvtest_entry_point>
  mv x8, x5 # switch link pointer register to avoid conflict with test
    2ebc:	00028413          	addi	x8,x5,0
# Testcase cmp_rs1_rs2 (Test rs1 = rs2 = x4)
  RVTEST_TESTDATA_LOAD_INT(x23, x4) # load rs1: x4 = 0xddeb4480
    2ec0:	000ba203          	lw	x4,0(x23)
    2ec4:	004b8b93          	addi	x23,x23,4
  RVTEST_TESTDATA_LOAD_INT(x23, x4) # load rs2: x4 = 0x43c3c84b
    2ec8:	000ba203          	lw	x4,0(x23)
    2ecc:	004b8b93          	addi	x23,x23,4

00002ed0 <I_sra_cg_cmp_rs1_rs2_b4>:
I_sra_cg_cmp_rs1_rs2_b4:
  sra x18, x4, x4 # perform operation
    2ed0:	40425933          	sra	x18,x4,x4
  # Check if x18 contains the expected result. x21 is the signature ptr, x8 is the link ptr, x7 is a temp reg.
  RVTEST_SIGUPD(x21, x8, x7, x18, I_sra_cg_cmp_rs1_rs2_b4, I_sra_cg_cmp_rs1_rs2_b4_str)
    2ed4:	000aa383          	lw	x7,0(x21)
    2ed8:	01238863          	beq	x7,x18,2ee8 <I_sra_cg_cmp_rs1_rs2_b4+0x18>
    2edc:	5f80146f          	jal	x8,44d4 <failedtest_x8_x7>
    2ee0:	00002ed0          	.word	0x00002ed0
    2ee4:	0000d63c          	.word	0x0000d63c
    2ee8:	004a8a93          	addi	x21,x21,4

# Testcase cmp_rs1_rs2 (Test rs1 = rs2 = x5)
  RVTEST_TESTDATA_LOAD_INT(x23, x5) # load rs1: x5 = 0xb0ec9d83
    2eec:	000ba283          	lw	x5,0(x23)
    2ef0:	004b8b93          	addi	x23,x23,4
  RVTEST_TESTDATA_LOAD_INT(x23, x5) # load rs2: x5 = 0xb4971e6a
    2ef4:	000ba283          	lw	x5,0(x23)
    2ef8:	004b8b93          	addi	x23,x23,4

00002efc <I_sra_cg_cmp_rs1_rs2_b5>:
I_sra_cg_cmp_rs1_rs2_b5:
  sra x25, x5, x5 # perform operation
    2efc:	4052dcb3          	sra	x25,x5,x5
  # Check if x25 contains the expected result. x21 is the signature ptr, x8 is the link ptr, x7 is a temp reg.
  RVTEST_SIGUPD(x21, x8, x7, x25, I_sra_cg_cmp_rs1_rs2_b5, I_sra_cg_cmp_rs1_rs2_b5_str)
    2f00:	000aa383          	lw	x7,0(x21)
    2f04:	01938863          	beq	x7,x25,2f14 <I_sra_cg_cmp_rs1_rs2_b5+0x18>
    2f08:	5cc0146f          	jal	x8,44d4 <failedtest_x8_x7>
    2f0c:	00002efc          	.word	0x00002efc
    2f10:	0000d670          	.word	0x0000d670
    2f14:	004a8a93          	addi	x21,x21,4

# Testcase cmp_rs1_rs2 (Test rs1 = rs2 = x6)
  RVTEST_TESTDATA_LOAD_INT(x23, x6) # load rs1: x6 = 0x3717de79
    2f18:	000ba303          	lw	x6,0(x23)
    2f1c:	004b8b93          	addi	x23,x23,4
  RVTEST_TESTDATA_LOAD_INT(x23, x6) # load rs2: x6 = 0x6d076b40
    2f20:	000ba303          	lw	x6,0(x23)
    2f24:	004b8b93          	addi	x23,x23,4

00002f28 <I_sra_cg_cmp_rs1_rs2_b6>:
I_sra_cg_cmp_rs1_rs2_b6:
  sra x12, x6, x6 # perform operation
    2f28:	40635633          	sra	x12,x6,x6
  # Check if x12 contains the expected result. x21 is the signature ptr, x8 is the link ptr, x7 is a temp reg.
  RVTEST_SIGUPD(x21, x8, x7, x12, I_sra_cg_cmp_rs1_rs2_b6, I_sra_cg_cmp_rs1_rs2_b6_str)
    2f2c:	000aa383          	lw	x7,0(x21)
    2f30:	00c38863          	beq	x7,x12,2f40 <I_sra_cg_cmp_rs1_rs2_b6+0x18>
    2f34:	5a00146f          	jal	x8,44d4 <failedtest_x8_x7>
    2f38:	00002f28          	.word	0x00002f28
    2f3c:	0000d6a4          	.word	0x0000d6a4
    2f40:	004a8a93          	addi	x21,x21,4

  mv x4, x7 # switch temp register to avoid conflict with test
    2f44:	00038213          	addi	x4,x7,0
  mv x5, x8 # switch link pointer register to avoid conflict with test
    2f48:	00040293          	addi	x5,x8,0
# Testcase cmp_rs1_rs2 (Test rs1 = rs2 = x7)
  RVTEST_TESTDATA_LOAD_INT(x23, x7) # load rs1: x7 = 0xab67aa3f
    2f4c:	000ba383          	lw	x7,0(x23)
    2f50:	004b8b93          	addi	x23,x23,4
  RVTEST_TESTDATA_LOAD_INT(x23, x7) # load rs2: x7 = 0x5666df31
    2f54:	000ba383          	lw	x7,0(x23)
    2f58:	004b8b93          	addi	x23,x23,4

00002f5c <I_sra_cg_cmp_rs1_rs2_b7>:
I_sra_cg_cmp_rs1_rs2_b7:
  sra x3, x7, x7 # perform operation
    2f5c:	4073d1b3          	sra	x3,x7,x7
  # Check if x3 contains the expected result. x21 is the signature ptr, x5 is the link ptr, x4 is a temp reg.
  RVTEST_SIGUPD(x21, x5, x4, x3, I_sra_cg_cmp_rs1_rs2_b7, I_sra_cg_cmp_rs1_rs2_b7_str)
    2f60:	000aa203          	lw	x4,0(x21)
    2f64:	00320863          	beq	x4,x3,2f74 <I_sra_cg_cmp_rs1_rs2_b7+0x18>
    2f68:	554012ef          	jal	x5,44bc <failedtest_x5_x4>
    2f6c:	00002f5c          	.word	0x00002f5c
    2f70:	0000d6d8          	.word	0x0000d6d8
    2f74:	004a8a93          	addi	x21,x21,4

# Testcase cmp_rs1_rs2 (Test rs1 = rs2 = x8)
  RVTEST_TESTDATA_LOAD_INT(x23, x8) # load rs1: x8 = 0x712af951
    2f78:	000ba403          	lw	x8,0(x23)
    2f7c:	004b8b93          	addi	x23,x23,4
  RVTEST_TESTDATA_LOAD_INT(x23, x8) # load rs2: x8 = 0xafa35269
    2f80:	000ba403          	lw	x8,0(x23)
    2f84:	004b8b93          	addi	x23,x23,4

00002f88 <I_sra_cg_cmp_rs1_rs2_b8>:
I_sra_cg_cmp_rs1_rs2_b8:
  sra x17, x8, x8 # perform operation
    2f88:	408458b3          	sra	x17,x8,x8
  # Check if x17 contains the expected result. x21 is the signature ptr, x5 is the link ptr, x4 is a temp reg.
  RVTEST_SIGUPD(x21, x5, x4, x17, I_sra_cg_cmp_rs1_rs2_b8, I_sra_cg_cmp_rs1_rs2_b8_str)
    2f8c:	000aa203          	lw	x4,0(x21)
    2f90:	01120863          	beq	x4,x17,2fa0 <I_sra_cg_cmp_rs1_rs2_b8+0x18>
    2f94:	528012ef          	jal	x5,44bc <failedtest_x5_x4>
    2f98:	00002f88          	.word	0x00002f88
    2f9c:	0000d70c          	.word	0x0000d70c
    2fa0:	004a8a93          	addi	x21,x21,4

# Testcase cmp_rs1_rs2 (Test rs1 = rs2 = x9)
  RVTEST_TESTDATA_LOAD_INT(x23, x9) # load rs1: x9 = 0x14a6c78d
    2fa4:	000ba483          	lw	x9,0(x23)
    2fa8:	004b8b93          	addi	x23,x23,4
  RVTEST_TESTDATA_LOAD_INT(x23, x9) # load rs2: x9 = 0xdd26a145
    2fac:	000ba483          	lw	x9,0(x23)
    2fb0:	004b8b93          	addi	x23,x23,4

00002fb4 <I_sra_cg_cmp_rs1_rs2_b9>:
I_sra_cg_cmp_rs1_rs2_b9:
  sra x19, x9, x9 # perform operation
    2fb4:	4094d9b3          	sra	x19,x9,x9
  # Check if x19 contains the expected result. x21 is the signature ptr, x5 is the link ptr, x4 is a temp reg.
  RVTEST_SIGUPD(x21, x5, x4, x19, I_sra_cg_cmp_rs1_rs2_b9, I_sra_cg_cmp_rs1_rs2_b9_str)
    2fb8:	000aa203          	lw	x4,0(x21)
    2fbc:	01320863          	beq	x4,x19,2fcc <I_sra_cg_cmp_rs1_rs2_b9+0x18>
    2fc0:	4fc012ef          	jal	x5,44bc <failedtest_x5_x4>
    2fc4:	00002fb4          	.word	0x00002fb4
    2fc8:	0000d740          	.word	0x0000d740
    2fcc:	004a8a93          	addi	x21,x21,4

# Testcase cmp_rs1_rs2 (Test rs1 = rs2 = x10)
  RVTEST_TESTDATA_LOAD_INT(x23, x10) # load rs1: x10 = 0x1b12cf57
    2fd0:	000ba503          	lw	x10,0(x23)
    2fd4:	004b8b93          	addi	x23,x23,4
  RVTEST_TESTDATA_LOAD_INT(x23, x10) # load rs2: x10 = 0x299bc4d4
    2fd8:	000ba503          	lw	x10,0(x23)
    2fdc:	004b8b93          	addi	x23,x23,4

00002fe0 <I_sra_cg_cmp_rs1_rs2_b10>:
I_sra_cg_cmp_rs1_rs2_b10:
  sra x22, x10, x10 # perform operation
    2fe0:	40a55b33          	sra	x22,x10,x10
  # Check if x22 contains the expected result. x21 is the signature ptr, x5 is the link ptr, x4 is a temp reg.
  RVTEST_SIGUPD(x21, x5, x4, x22, I_sra_cg_cmp_rs1_rs2_b10, I_sra_cg_cmp_rs1_rs2_b10_str)
    2fe4:	000aa203          	lw	x4,0(x21)
    2fe8:	01620863          	beq	x4,x22,2ff8 <I_sra_cg_cmp_rs1_rs2_b10+0x18>
    2fec:	4d0012ef          	jal	x5,44bc <failedtest_x5_x4>
    2ff0:	00002fe0          	.word	0x00002fe0
    2ff4:	0000d774          	.word	0x0000d774
    2ff8:	004a8a93          	addi	x21,x21,4

# Testcase cmp_rs1_rs2 (Test rs1 = rs2 = x11)
  RVTEST_TESTDATA_LOAD_INT(x23, x11) # load rs1: x11 = 0x52b68668
    2ffc:	000ba583          	lw	x11,0(x23)
    3000:	004b8b93          	addi	x23,x23,4
  RVTEST_TESTDATA_LOAD_INT(x23, x11) # load rs2: x11 = 0x7bc4fbe4
    3004:	000ba583          	lw	x11,0(x23)
    3008:	004b8b93          	addi	x23,x23,4

0000300c <I_sra_cg_cmp_rs1_rs2_b11>:
I_sra_cg_cmp_rs1_rs2_b11:
  sra x2, x11, x11 # perform operation
    300c:	40b5d133          	sra	x2,x11,x11
  # Check if x2 contains the expected result. x21 is the signature ptr, x5 is the link ptr, x4 is a temp reg.
  RVTEST_SIGUPD(x21, x5, x4, x2, I_sra_cg_cmp_rs1_rs2_b11, I_sra_cg_cmp_rs1_rs2_b11_str)
    3010:	000aa203          	lw	x4,0(x21)
    3014:	00220863          	beq	x4,x2,3024 <I_sra_cg_cmp_rs1_rs2_b11+0x18>
    3018:	4a4012ef          	jal	x5,44bc <failedtest_x5_x4>
    301c:	0000300c          	.word	0x0000300c
    3020:	0000d7a9          	.word	0x0000d7a9
    3024:	004a8a93          	addi	x21,x21,4

# Testcase cmp_rs1_rs2 (Test rs1 = rs2 = x12)
  RVTEST_TESTDATA_LOAD_INT(x23, x12) # load rs1: x12 = 0xe3f83131
    3028:	000ba603          	lw	x12,0(x23)
    302c:	004b8b93          	addi	x23,x23,4
  RVTEST_TESTDATA_LOAD_INT(x23, x12) # load rs2: x12 = 0x6dd9b8b7
    3030:	000ba603          	lw	x12,0(x23)
    3034:	004b8b93          	addi	x23,x23,4

00003038 <I_sra_cg_cmp_rs1_rs2_b12>:
I_sra_cg_cmp_rs1_rs2_b12:
  sra x15, x12, x12 # perform operation
    3038:	40c657b3          	sra	x15,x12,x12
  # Check if x15 contains the expected result. x21 is the signature ptr, x5 is the link ptr, x4 is a temp reg.
  RVTEST_SIGUPD(x21, x5, x4, x15, I_sra_cg_cmp_rs1_rs2_b12, I_sra_cg_cmp_rs1_rs2_b12_str)
    303c:	000aa203          	lw	x4,0(x21)
    3040:	00f20863          	beq	x4,x15,3050 <I_sra_cg_cmp_rs1_rs2_b12+0x18>
    3044:	478012ef          	jal	x5,44bc <failedtest_x5_x4>
    3048:	00003038          	.word	0x00003038
    304c:	0000d7de          	.word	0x0000d7de
    3050:	004a8a93          	addi	x21,x21,4

# Testcase cmp_rs1_rs2 (Test rs1 = rs2 = x13)
  RVTEST_TESTDATA_LOAD_INT(x23, x13) # load rs1: x13 = 0x5aae5166
    3054:	000ba683          	lw	x13,0(x23)
    3058:	004b8b93          	addi	x23,x23,4
  RVTEST_TESTDATA_LOAD_INT(x23, x13) # load rs2: x13 = 0x3f75e88e
    305c:	000ba683          	lw	x13,0(x23)
    3060:	004b8b93          	addi	x23,x23,4

00003064 <I_sra_cg_cmp_rs1_rs2_b13>:
I_sra_cg_cmp_rs1_rs2_b13:
  sra x27, x13, x13 # perform operation
    3064:	40d6ddb3          	sra	x27,x13,x13
  # Check if x27 contains the expected result. x21 is the signature ptr, x5 is the link ptr, x4 is a temp reg.
  RVTEST_SIGUPD(x21, x5, x4, x27, I_sra_cg_cmp_rs1_rs2_b13, I_sra_cg_cmp_rs1_rs2_b13_str)
    3068:	000aa203          	lw	x4,0(x21)
    306c:	01b20863          	beq	x4,x27,307c <I_sra_cg_cmp_rs1_rs2_b13+0x18>
    3070:	44c012ef          	jal	x5,44bc <failedtest_x5_x4>
    3074:	00003064          	.word	0x00003064
    3078:	0000d813          	.word	0x0000d813
    307c:	004a8a93          	addi	x21,x21,4

# Testcase cmp_rs1_rs2 (Test rs1 = rs2 = x14)
  RVTEST_TESTDATA_LOAD_INT(x23, x14) # load rs1: x14 = 0x23754e0d
    3080:	000ba703          	lw	x14,0(x23)
    3084:	004b8b93          	addi	x23,x23,4
  RVTEST_TESTDATA_LOAD_INT(x23, x14) # load rs2: x14 = 0x3106f193
    3088:	000ba703          	lw	x14,0(x23)
    308c:	004b8b93          	addi	x23,x23,4

00003090 <I_sra_cg_cmp_rs1_rs2_b14>:
I_sra_cg_cmp_rs1_rs2_b14:
  sra x31, x14, x14 # perform operation
    3090:	40e75fb3          	sra	x31,x14,x14
  # Check if x31 contains the expected result. x21 is the signature ptr, x5 is the link ptr, x4 is a temp reg.
  RVTEST_SIGUPD(x21, x5, x4, x31, I_sra_cg_cmp_rs1_rs2_b14, I_sra_cg_cmp_rs1_rs2_b14_str)
    3094:	000aa203          	lw	x4,0(x21)
    3098:	01f20863          	beq	x4,x31,30a8 <I_sra_cg_cmp_rs1_rs2_b14+0x18>
    309c:	420012ef          	jal	x5,44bc <failedtest_x5_x4>
    30a0:	00003090          	.word	0x00003090
    30a4:	0000d848          	.word	0x0000d848
    30a8:	004a8a93          	addi	x21,x21,4

# Testcase cmp_rs1_rs2 (Test rs1 = rs2 = x15)
  RVTEST_TESTDATA_LOAD_INT(x23, x15) # load rs1: x15 = 0xef927fcd
    30ac:	000ba783          	lw	x15,0(x23)
    30b0:	004b8b93          	addi	x23,x23,4
  RVTEST_TESTDATA_LOAD_INT(x23, x15) # load rs2: x15 = 0x27318d6e
    30b4:	000ba783          	lw	x15,0(x23)
    30b8:	004b8b93          	addi	x23,x23,4

000030bc <I_sra_cg_cmp_rs1_rs2_b15>:
I_sra_cg_cmp_rs1_rs2_b15:
  sra x7, x15, x15 # perform operation
    30bc:	40f7d3b3          	sra	x7,x15,x15
  # Check if x7 contains the expected result. x21 is the signature ptr, x5 is the link ptr, x4 is a temp reg.
  RVTEST_SIGUPD(x21, x5, x4, x7, I_sra_cg_cmp_rs1_rs2_b15, I_sra_cg_cmp_rs1_rs2_b15_str)
    30c0:	000aa203          	lw	x4,0(x21)
    30c4:	00720863          	beq	x4,x7,30d4 <I_sra_cg_cmp_rs1_rs2_b15+0x18>
    30c8:	3f4012ef          	jal	x5,44bc <failedtest_x5_x4>
    30cc:	000030bc          	.word	0x000030bc
    30d0:	0000d87d          	.word	0x0000d87d
    30d4:	004a8a93          	addi	x21,x21,4

# Testcase cmp_rs1_rs2 (Test rs1 = rs2 = x16)
  RVTEST_TESTDATA_LOAD_INT(x23, x16) # load rs1: x16 = 0xac181182
    30d8:	000ba803          	lw	x16,0(x23)
    30dc:	004b8b93          	addi	x23,x23,4
  RVTEST_TESTDATA_LOAD_INT(x23, x16) # load rs2: x16 = 0x71e3b31f
    30e0:	000ba803          	lw	x16,0(x23)
    30e4:	004b8b93          	addi	x23,x23,4

000030e8 <I_sra_cg_cmp_rs1_rs2_b16>:
I_sra_cg_cmp_rs1_rs2_b16:
  sra x8, x16, x16 # perform operation
    30e8:	41085433          	sra	x8,x16,x16
  # Check if x8 contains the expected result. x21 is the signature ptr, x5 is the link ptr, x4 is a temp reg.
  RVTEST_SIGUPD(x21, x5, x4, x8, I_sra_cg_cmp_rs1_rs2_b16, I_sra_cg_cmp_rs1_rs2_b16_str)
    30ec:	000aa203          	lw	x4,0(x21)
    30f0:	00820863          	beq	x4,x8,3100 <I_sra_cg_cmp_rs1_rs2_b16+0x18>
    30f4:	3c8012ef          	jal	x5,44bc <failedtest_x5_x4>
    30f8:	000030e8          	.word	0x000030e8
    30fc:	0000d8b2          	.word	0x0000d8b2
    3100:	004a8a93          	addi	x21,x21,4

# Testcase cmp_rs1_rs2 (Test rs1 = rs2 = x17)
  RVTEST_TESTDATA_LOAD_INT(x23, x17) # load rs1: x17 = 0x125355c9
    3104:	000ba883          	lw	x17,0(x23)
    3108:	004b8b93          	addi	x23,x23,4
  RVTEST_TESTDATA_LOAD_INT(x23, x17) # load rs2: x17 = 0x6c35271c
    310c:	000ba883          	lw	x17,0(x23)
    3110:	004b8b93          	addi	x23,x23,4

00003114 <I_sra_cg_cmp_rs1_rs2_b17>:
I_sra_cg_cmp_rs1_rs2_b17:
  sra x16, x17, x17 # perform operation
    3114:	4118d833          	sra	x16,x17,x17
  # Check if x16 contains the expected result. x21 is the signature ptr, x5 is the link ptr, x4 is a temp reg.
  RVTEST_SIGUPD(x21, x5, x4, x16, I_sra_cg_cmp_rs1_rs2_b17, I_sra_cg_cmp_rs1_rs2_b17_str)
    3118:	000aa203          	lw	x4,0(x21)
    311c:	01020863          	beq	x4,x16,312c <I_sra_cg_cmp_rs1_rs2_b17+0x18>
    3120:	39c012ef          	jal	x5,44bc <failedtest_x5_x4>
    3124:	00003114          	.word	0x00003114
    3128:	0000d8e7          	.word	0x0000d8e7
    312c:	004a8a93          	addi	x21,x21,4

# Testcase cmp_rs1_rs2 (Test rs1 = rs2 = x18)
  RVTEST_TESTDATA_LOAD_INT(x23, x18) # load rs1: x18 = 0xd28a48f6
    3130:	000ba903          	lw	x18,0(x23)
    3134:	004b8b93          	addi	x23,x23,4
  RVTEST_TESTDATA_LOAD_INT(x23, x18) # load rs2: x18 = 0x6d2cef26
    3138:	000ba903          	lw	x18,0(x23)
    313c:	004b8b93          	addi	x23,x23,4

00003140 <I_sra_cg_cmp_rs1_rs2_b18>:
I_sra_cg_cmp_rs1_rs2_b18:
  sra x0, x18, x18 # perform operation
    3140:	41295033          	sra	x0,x18,x18
  # Check if x0 contains the expected result. x21 is the signature ptr, x5 is the link ptr, x4 is a temp reg.
  RVTEST_SIGUPD(x21, x5, x4, x0, I_sra_cg_cmp_rs1_rs2_b18, I_sra_cg_cmp_rs1_rs2_b18_str)
    3144:	000aa203          	lw	x4,0(x21)
    3148:	00020863          	beq	x4,x0,3158 <I_sra_cg_cmp_rs1_rs2_b18+0x18>
    314c:	370012ef          	jal	x5,44bc <failedtest_x5_x4>
    3150:	00003140          	.word	0x00003140
    3154:	0000d91c          	.word	0x0000d91c
    3158:	004a8a93          	addi	x21,x21,4

# Testcase cmp_rs1_rs2 (Test rs1 = rs2 = x19)
  RVTEST_TESTDATA_LOAD_INT(x23, x19) # load rs1: x19 = 0xf923b2b5
    315c:	000ba983          	lw	x19,0(x23)
    3160:	004b8b93          	addi	x23,x23,4
  RVTEST_TESTDATA_LOAD_INT(x23, x19) # load rs2: x19 = 0x39c43163
    3164:	000ba983          	lw	x19,0(x23)
    3168:	004b8b93          	addi	x23,x23,4

0000316c <I_sra_cg_cmp_rs1_rs2_b19>:
I_sra_cg_cmp_rs1_rs2_b19:
  sra x26, x19, x19 # perform operation
    316c:	4139dd33          	sra	x26,x19,x19
  # Check if x26 contains the expected result. x21 is the signature ptr, x5 is the link ptr, x4 is a temp reg.
  RVTEST_SIGUPD(x21, x5, x4, x26, I_sra_cg_cmp_rs1_rs2_b19, I_sra_cg_cmp_rs1_rs2_b19_str)
    3170:	000aa203          	lw	x4,0(x21)
    3174:	01a20863          	beq	x4,x26,3184 <I_sra_cg_cmp_rs1_rs2_b19+0x18>
    3178:	344012ef          	jal	x5,44bc <failedtest_x5_x4>
    317c:	0000316c          	.word	0x0000316c
    3180:	0000d951          	.word	0x0000d951
    3184:	004a8a93          	addi	x21,x21,4

# Testcase cmp_rs1_rs2 (Test rs1 = rs2 = x20)
  RVTEST_TESTDATA_LOAD_INT(x23, x20) # load rs1: x20 = 0x40a20ccc
    3188:	000baa03          	lw	x20,0(x23)
    318c:	004b8b93          	addi	x23,x23,4
  RVTEST_TESTDATA_LOAD_INT(x23, x20) # load rs2: x20 = 0xacf956f3
    3190:	000baa03          	lw	x20,0(x23)
    3194:	004b8b93          	addi	x23,x23,4

00003198 <I_sra_cg_cmp_rs1_rs2_b20>:
I_sra_cg_cmp_rs1_rs2_b20:
  sra x12, x20, x20 # perform operation
    3198:	414a5633          	sra	x12,x20,x20
  # Check if x12 contains the expected result. x21 is the signature ptr, x5 is the link ptr, x4 is a temp reg.
  RVTEST_SIGUPD(x21, x5, x4, x12, I_sra_cg_cmp_rs1_rs2_b20, I_sra_cg_cmp_rs1_rs2_b20_str)
    319c:	000aa203          	lw	x4,0(x21)
    31a0:	00c20863          	beq	x4,x12,31b0 <I_sra_cg_cmp_rs1_rs2_b20+0x18>
    31a4:	318012ef          	jal	x5,44bc <failedtest_x5_x4>
    31a8:	00003198          	.word	0x00003198
    31ac:	0000d986          	.word	0x0000d986
    31b0:	004a8a93          	addi	x21,x21,4

  mv x3, x21 # switch signature pointer register to avoid conflict with test
    31b4:	000a8193          	addi	x3,x21,0
# Testcase cmp_rs1_rs2 (Test rs1 = rs2 = x21)
  RVTEST_TESTDATA_LOAD_INT(x23, x21) # load rs1: x21 = 0x5bf094ca
    31b8:	000baa83          	lw	x21,0(x23)
    31bc:	004b8b93          	addi	x23,x23,4
  RVTEST_TESTDATA_LOAD_INT(x23, x21) # load rs2: x21 = 0x6d23ecfe
    31c0:	000baa83          	lw	x21,0(x23)
    31c4:	004b8b93          	addi	x23,x23,4

000031c8 <I_sra_cg_cmp_rs1_rs2_b21>:
I_sra_cg_cmp_rs1_rs2_b21:
  sra x17, x21, x21 # perform operation
    31c8:	415ad8b3          	sra	x17,x21,x21
  # Check if x17 contains the expected result. x3 is the signature ptr, x5 is the link ptr, x4 is a temp reg.
  RVTEST_SIGUPD(x3, x5, x4, x17, I_sra_cg_cmp_rs1_rs2_b21, I_sra_cg_cmp_rs1_rs2_b21_str)
    31cc:	0001a203          	lw	x4,0(x3)
    31d0:	01120863          	beq	x4,x17,31e0 <I_sra_cg_cmp_rs1_rs2_b21+0x18>
    31d4:	2e8012ef          	jal	x5,44bc <failedtest_x5_x4>
    31d8:	000031c8          	.word	0x000031c8
    31dc:	0000d9bb          	.word	0x0000d9bb
    31e0:	00418193          	addi	x3,x3,4

# Testcase cmp_rs1_rs2 (Test rs1 = rs2 = x22)
  RVTEST_TESTDATA_LOAD_INT(x23, x22) # load rs1: x22 = 0xc285b9cb
    31e4:	000bab03          	lw	x22,0(x23)
    31e8:	004b8b93          	addi	x23,x23,4
  RVTEST_TESTDATA_LOAD_INT(x23, x22) # load rs2: x22 = 0x9d999ea6
    31ec:	000bab03          	lw	x22,0(x23)
    31f0:	004b8b93          	addi	x23,x23,4

000031f4 <I_sra_cg_cmp_rs1_rs2_b22>:
I_sra_cg_cmp_rs1_rs2_b22:
  sra x17, x22, x22 # perform operation
    31f4:	416b58b3          	sra	x17,x22,x22
  # Check if x17 contains the expected result. x3 is the signature ptr, x5 is the link ptr, x4 is a temp reg.
  RVTEST_SIGUPD(x3, x5, x4, x17, I_sra_cg_cmp_rs1_rs2_b22, I_sra_cg_cmp_rs1_rs2_b22_str)
    31f8:	0001a203          	lw	x4,0(x3)
    31fc:	01120863          	beq	x4,x17,320c <I_sra_cg_cmp_rs1_rs2_b22+0x18>
    3200:	2bc012ef          	jal	x5,44bc <failedtest_x5_x4>
    3204:	000031f4          	.word	0x000031f4
    3208:	0000d9f0          	.word	0x0000d9f0
    320c:	00418193          	addi	x3,x3,4

  mv x18, x23 # switch data pointer register to avoid conflict with test
    3210:	000b8913          	addi	x18,x23,0
# Testcase cmp_rs1_rs2 (Test rs1 = rs2 = x23)
  RVTEST_TESTDATA_LOAD_INT(x18, x23) # load rs1: x23 = 0x974fd608
    3214:	00092b83          	lw	x23,0(x18)
    3218:	00490913          	addi	x18,x18,4
  RVTEST_TESTDATA_LOAD_INT(x18, x23) # load rs2: x23 = 0xed44429d
    321c:	00092b83          	lw	x23,0(x18)
    3220:	00490913          	addi	x18,x18,4

00003224 <I_sra_cg_cmp_rs1_rs2_b23>:
I_sra_cg_cmp_rs1_rs2_b23:
  sra x6, x23, x23 # perform operation
    3224:	417bd333          	sra	x6,x23,x23
  # Check if x6 contains the expected result. x3 is the signature ptr, x5 is the link ptr, x4 is a temp reg.
  RVTEST_SIGUPD(x3, x5, x4, x6, I_sra_cg_cmp_rs1_rs2_b23, I_sra_cg_cmp_rs1_rs2_b23_str)
    3228:	0001a203          	lw	x4,0(x3)
    322c:	00620863          	beq	x4,x6,323c <I_sra_cg_cmp_rs1_rs2_b23+0x18>
    3230:	28c012ef          	jal	x5,44bc <failedtest_x5_x4>
    3234:	00003224          	.word	0x00003224
    3238:	0000da25          	.word	0x0000da25
    323c:	00418193          	addi	x3,x3,4

# Testcase cmp_rs1_rs2 (Test rs1 = rs2 = x24)
  RVTEST_TESTDATA_LOAD_INT(x18, x24) # load rs1: x24 = 0x95dae151
    3240:	00092c03          	lw	x24,0(x18)
    3244:	00490913          	addi	x18,x18,4
  RVTEST_TESTDATA_LOAD_INT(x18, x24) # load rs2: x24 = 0x8c132bf9
    3248:	00092c03          	lw	x24,0(x18)
    324c:	00490913          	addi	x18,x18,4

00003250 <I_sra_cg_cmp_rs1_rs2_b24>:
I_sra_cg_cmp_rs1_rs2_b24:
  sra x26, x24, x24 # perform operation
    3250:	418c5d33          	sra	x26,x24,x24
  # Check if x26 contains the expected result. x3 is the signature ptr, x5 is the link ptr, x4 is a temp reg.
  RVTEST_SIGUPD(x3, x5, x4, x26, I_sra_cg_cmp_rs1_rs2_b24, I_sra_cg_cmp_rs1_rs2_b24_str)
    3254:	0001a203          	lw	x4,0(x3)
    3258:	01a20863          	beq	x4,x26,3268 <I_sra_cg_cmp_rs1_rs2_b24+0x18>
    325c:	260012ef          	jal	x5,44bc <failedtest_x5_x4>
    3260:	00003250          	.word	0x00003250
    3264:	0000da5a          	.word	0x0000da5a
    3268:	00418193          	addi	x3,x3,4

# Testcase cmp_rs1_rs2 (Test rs1 = rs2 = x25)
  RVTEST_TESTDATA_LOAD_INT(x18, x25) # load rs1: x25 = 0x25f1024a
    326c:	00092c83          	lw	x25,0(x18)
    3270:	00490913          	addi	x18,x18,4
  RVTEST_TESTDATA_LOAD_INT(x18, x25) # load rs2: x25 = 0xce046e54
    3274:	00092c83          	lw	x25,0(x18)
    3278:	00490913          	addi	x18,x18,4

0000327c <I_sra_cg_cmp_rs1_rs2_b25>:
I_sra_cg_cmp_rs1_rs2_b25:
  sra x29, x25, x25 # perform operation
    327c:	419cdeb3          	sra	x29,x25,x25
  # Check if x29 contains the expected result. x3 is the signature ptr, x5 is the link ptr, x4 is a temp reg.
  RVTEST_SIGUPD(x3, x5, x4, x29, I_sra_cg_cmp_rs1_rs2_b25, I_sra_cg_cmp_rs1_rs2_b25_str)
    3280:	0001a203          	lw	x4,0(x3)
    3284:	01d20863          	beq	x4,x29,3294 <I_sra_cg_cmp_rs1_rs2_b25+0x18>
    3288:	234012ef          	jal	x5,44bc <failedtest_x5_x4>
    328c:	0000327c          	.word	0x0000327c
    3290:	0000da8f          	.word	0x0000da8f
    3294:	00418193          	addi	x3,x3,4

# Testcase cmp_rs1_rs2 (Test rs1 = rs2 = x26)
  RVTEST_TESTDATA_LOAD_INT(x18, x26) # load rs1: x26 = 0x41ee8acb
    3298:	00092d03          	lw	x26,0(x18)
    329c:	00490913          	addi	x18,x18,4
  RVTEST_TESTDATA_LOAD_INT(x18, x26) # load rs2: x26 = 0x49b80a84
    32a0:	00092d03          	lw	x26,0(x18)
    32a4:	00490913          	addi	x18,x18,4

000032a8 <I_sra_cg_cmp_rs1_rs2_b26>:
I_sra_cg_cmp_rs1_rs2_b26:
  sra x30, x26, x26 # perform operation
    32a8:	41ad5f33          	sra	x30,x26,x26
  # Check if x30 contains the expected result. x3 is the signature ptr, x5 is the link ptr, x4 is a temp reg.
  RVTEST_SIGUPD(x3, x5, x4, x30, I_sra_cg_cmp_rs1_rs2_b26, I_sra_cg_cmp_rs1_rs2_b26_str)
    32ac:	0001a203          	lw	x4,0(x3)
    32b0:	01e20863          	beq	x4,x30,32c0 <I_sra_cg_cmp_rs1_rs2_b26+0x18>
    32b4:	208012ef          	jal	x5,44bc <failedtest_x5_x4>
    32b8:	000032a8          	.word	0x000032a8
    32bc:	0000dac4          	.word	0x0000dac4
    32c0:	00418193          	addi	x3,x3,4

# Testcase cmp_rs1_rs2 (Test rs1 = rs2 = x27)
  RVTEST_TESTDATA_LOAD_INT(x18, x27) # load rs1: x27 = 0x667cd8d2
    32c4:	00092d83          	lw	x27,0(x18)
    32c8:	00490913          	addi	x18,x18,4
  RVTEST_TESTDATA_LOAD_INT(x18, x27) # load rs2: x27 = 0x8b2af828
    32cc:	00092d83          	lw	x27,0(x18)
    32d0:	00490913          	addi	x18,x18,4

000032d4 <I_sra_cg_cmp_rs1_rs2_b27>:
I_sra_cg_cmp_rs1_rs2_b27:
  sra x23, x27, x27 # perform operation
    32d4:	41bddbb3          	sra	x23,x27,x27
  # Check if x23 contains the expected result. x3 is the signature ptr, x5 is the link ptr, x4 is a temp reg.
  RVTEST_SIGUPD(x3, x5, x4, x23, I_sra_cg_cmp_rs1_rs2_b27, I_sra_cg_cmp_rs1_rs2_b27_str)
    32d8:	0001a203          	lw	x4,0(x3)
    32dc:	01720863          	beq	x4,x23,32ec <I_sra_cg_cmp_rs1_rs2_b27+0x18>
    32e0:	1dc012ef          	jal	x5,44bc <failedtest_x5_x4>
    32e4:	000032d4          	.word	0x000032d4
    32e8:	0000daf9          	.word	0x0000daf9
    32ec:	00418193          	addi	x3,x3,4

# Testcase cmp_rs1_rs2 (Test rs1 = rs2 = x28)
  RVTEST_TESTDATA_LOAD_INT(x18, x28) # load rs1: x28 = 0x76b9938a
    32f0:	00092e03          	lw	x28,0(x18)
    32f4:	00490913          	addi	x18,x18,4
  RVTEST_TESTDATA_LOAD_INT(x18, x28) # load rs2: x28 = 0xc6f85da8
    32f8:	00092e03          	lw	x28,0(x18)
    32fc:	00490913          	addi	x18,x18,4

00003300 <I_sra_cg_cmp_rs1_rs2_b28>:
I_sra_cg_cmp_rs1_rs2_b28:
  sra x21, x28, x28 # perform operation
    3300:	41ce5ab3          	sra	x21,x28,x28
  # Check if x21 contains the expected result. x3 is the signature ptr, x5 is the link ptr, x4 is a temp reg.
  RVTEST_SIGUPD(x3, x5, x4, x21, I_sra_cg_cmp_rs1_rs2_b28, I_sra_cg_cmp_rs1_rs2_b28_str)
    3304:	0001a203          	lw	x4,0(x3)
    3308:	01520863          	beq	x4,x21,3318 <I_sra_cg_cmp_rs1_rs2_b28+0x18>
    330c:	1b0012ef          	jal	x5,44bc <failedtest_x5_x4>
    3310:	00003300          	.word	0x00003300
    3314:	0000db2e          	.word	0x0000db2e
    3318:	00418193          	addi	x3,x3,4

# Testcase cmp_rs1_rs2 (Test rs1 = rs2 = x29)
  RVTEST_TESTDATA_LOAD_INT(x18, x29) # load rs1: x29 = 0x75704d6e
    331c:	00092e83          	lw	x29,0(x18)
    3320:	00490913          	addi	x18,x18,4
  RVTEST_TESTDATA_LOAD_INT(x18, x29) # load rs2: x29 = 0x3be8005a
    3324:	00092e83          	lw	x29,0(x18)
    3328:	00490913          	addi	x18,x18,4

0000332c <I_sra_cg_cmp_rs1_rs2_b29>:
I_sra_cg_cmp_rs1_rs2_b29:
  sra x0, x29, x29 # perform operation
    332c:	41ded033          	sra	x0,x29,x29
  # Check if x0 contains the expected result. x3 is the signature ptr, x5 is the link ptr, x4 is a temp reg.
  RVTEST_SIGUPD(x3, x5, x4, x0, I_sra_cg_cmp_rs1_rs2_b29, I_sra_cg_cmp_rs1_rs2_b29_str)
    3330:	0001a203          	lw	x4,0(x3)
    3334:	00020863          	beq	x4,x0,3344 <I_sra_cg_cmp_rs1_rs2_b29+0x18>
    3338:	184012ef          	jal	x5,44bc <failedtest_x5_x4>
    333c:	0000332c          	.word	0x0000332c
    3340:	0000db63          	.word	0x0000db63
    3344:	00418193          	addi	x3,x3,4

# Testcase cmp_rs1_rs2 (Test rs1 = rs2 = x30)
  RVTEST_TESTDATA_LOAD_INT(x18, x30) # load rs1: x30 = 0xd2091d76
    3348:	00092f03          	lw	x30,0(x18)
    334c:	00490913          	addi	x18,x18,4
  RVTEST_TESTDATA_LOAD_INT(x18, x30) # load rs2: x30 = 0xf0261349
    3350:	00092f03          	lw	x30,0(x18)
    3354:	00490913          	addi	x18,x18,4

00003358 <I_sra_cg_cmp_rs1_rs2_b30>:
I_sra_cg_cmp_rs1_rs2_b30:
  sra x20, x30, x30 # perform operation
    3358:	41ef5a33          	sra	x20,x30,x30
  # Check if x20 contains the expected result. x3 is the signature ptr, x5 is the link ptr, x4 is a temp reg.
  RVTEST_SIGUPD(x3, x5, x4, x20, I_sra_cg_cmp_rs1_rs2_b30, I_sra_cg_cmp_rs1_rs2_b30_str)
    335c:	0001a203          	lw	x4,0(x3)
    3360:	01420863          	beq	x4,x20,3370 <I_sra_cg_cmp_rs1_rs2_b30+0x18>
    3364:	158012ef          	jal	x5,44bc <failedtest_x5_x4>
    3368:	00003358          	.word	0x00003358
    336c:	0000db98          	.word	0x0000db98
    3370:	00418193          	addi	x3,x3,4

# Testcase cmp_rs1_rs2 (Test rs1 = rs2 = x31)
  RVTEST_TESTDATA_LOAD_INT(x18, x31) # load rs1: x31 = 0xa484f5d7
    3374:	00092f83          	lw	x31,0(x18)
    3378:	00490913          	addi	x18,x18,4
  RVTEST_TESTDATA_LOAD_INT(x18, x31) # load rs2: x31 = 0x34cd9462
    337c:	00092f83          	lw	x31,0(x18)
    3380:	00490913          	addi	x18,x18,4

00003384 <I_sra_cg_cmp_rs1_rs2_b31>:
I_sra_cg_cmp_rs1_rs2_b31:
  sra x16, x31, x31 # perform operation
    3384:	41ffd833          	sra	x16,x31,x31
  # Check if x16 contains the expected result. x3 is the signature ptr, x5 is the link ptr, x4 is a temp reg.
  RVTEST_SIGUPD(x3, x5, x4, x16, I_sra_cg_cmp_rs1_rs2_b31, I_sra_cg_cmp_rs1_rs2_b31_str)
    3388:	0001a203          	lw	x4,0(x3)
    338c:	01020863          	beq	x4,x16,339c <I_sra_cg_cmp_rs1_rs2_b31+0x18>
    3390:	12c012ef          	jal	x5,44bc <failedtest_x5_x4>
    3394:	00003384          	.word	0x00003384
    3398:	0000dbcd          	.word	0x0000dbcd
    339c:	00418193          	addi	x3,x3,4
/////////////////////////////////
// cmp_rd_rs1
/////////////////////////////////

# Testcase cmp_rd_rs1 (Test rd = rs1 = x0)
  RVTEST_TESTDATA_LOAD_INT(x18, x0) # load rs1: x0 = 0xd1b25af2
    33a0:	00092003          	lw	x0,0(x18)
    33a4:	00490913          	addi	x18,x18,4
  RVTEST_TESTDATA_LOAD_INT(x18, x19) # load rs2: x19 = 0x7dfc1f29
    33a8:	00092983          	lw	x19,0(x18)
    33ac:	00490913          	addi	x18,x18,4

000033b0 <I_sra_cg_cmp_rd_rs1_b0>:
I_sra_cg_cmp_rd_rs1_b0:
  sra x0, x0, x19 # perform operation
    33b0:	41305033          	sra	x0,x0,x19
  # Check if x0 contains the expected result. x3 is the signature ptr, x5 is the link ptr, x4 is a temp reg.
  RVTEST_SIGUPD(x3, x5, x4, x0, I_sra_cg_cmp_rd_rs1_b0, I_sra_cg_cmp_rd_rs1_b0_str)
    33b4:	0001a203          	lw	x4,0(x3)
    33b8:	00020863          	beq	x4,x0,33c8 <I_sra_cg_cmp_rd_rs1_b0+0x18>
    33bc:	100012ef          	jal	x5,44bc <failedtest_x5_x4>
    33c0:	000033b0          	.word	0x000033b0
    33c4:	0000dc02          	.word	0x0000dc02
    33c8:	00418193          	addi	x3,x3,4

# Testcase cmp_rd_rs1 (Test rd = rs1 = x1)
  RVTEST_TESTDATA_LOAD_INT(x18, x1) # load rs1: x1 = 0xc94066a7
    33cc:	00092083          	lw	x1,0(x18)
    33d0:	00490913          	addi	x18,x18,4
  RVTEST_TESTDATA_LOAD_INT(x18, x13) # load rs2: x13 = 0xd25da4ec
    33d4:	00092683          	lw	x13,0(x18)
    33d8:	00490913          	addi	x18,x18,4

000033dc <I_sra_cg_cmp_rd_rs1_b1>:
I_sra_cg_cmp_rd_rs1_b1:
  sra x1, x1, x13 # perform operation
    33dc:	40d0d0b3          	sra	x1,x1,x13
  # Check if x1 contains the expected result. x3 is the signature ptr, x5 is the link ptr, x4 is a temp reg.
  RVTEST_SIGUPD(x3, x5, x4, x1, I_sra_cg_cmp_rd_rs1_b1, I_sra_cg_cmp_rd_rs1_b1_str)
    33e0:	0001a203          	lw	x4,0(x3)
    33e4:	00120863          	beq	x4,x1,33f4 <I_sra_cg_cmp_rd_rs1_b1+0x18>
    33e8:	0d4012ef          	jal	x5,44bc <failedtest_x5_x4>
    33ec:	000033dc          	.word	0x000033dc
    33f0:	0000dc35          	.word	0x0000dc35
    33f4:	00418193          	addi	x3,x3,4

# Testcase cmp_rd_rs1 (Test rd = rs1 = x2)
  RVTEST_TESTDATA_LOAD_INT(x18, x2) # load rs1: x2 = 0x60baa13c
    33f8:	00092103          	lw	x2,0(x18)
    33fc:	00490913          	addi	x18,x18,4
  RVTEST_TESTDATA_LOAD_INT(x18, x22) # load rs2: x22 = 0x199486ca
    3400:	00092b03          	lw	x22,0(x18)
    3404:	00490913          	addi	x18,x18,4

00003408 <I_sra_cg_cmp_rd_rs1_b2>:
I_sra_cg_cmp_rd_rs1_b2:
  sra x2, x2, x22 # perform operation
    3408:	41615133          	sra	x2,x2,x22
  # Check if x2 contains the expected result. x3 is the signature ptr, x5 is the link ptr, x4 is a temp reg.
  RVTEST_SIGUPD(x3, x5, x4, x2, I_sra_cg_cmp_rd_rs1_b2, I_sra_cg_cmp_rd_rs1_b2_str)
    340c:	0001a203          	lw	x4,0(x3)
    3410:	00220863          	beq	x4,x2,3420 <I_sra_cg_cmp_rd_rs1_b2+0x18>
    3414:	0a8012ef          	jal	x5,44bc <failedtest_x5_x4>
    3418:	00003408          	.word	0x00003408
    341c:	0000dc68          	.word	0x0000dc68
    3420:	00418193          	addi	x3,x3,4

  mv x19, x3 # switch signature pointer register to avoid conflict with test
    3424:	00018993          	addi	x19,x3,0
# Testcase cmp_rd_rs1 (Test rd = rs1 = x3)
  RVTEST_TESTDATA_LOAD_INT(x18, x3) # load rs1: x3 = 0x61c95032
    3428:	00092183          	lw	x3,0(x18)
    342c:	00490913          	addi	x18,x18,4
  RVTEST_TESTDATA_LOAD_INT(x18, x23) # load rs2: x23 = 0x10ac182c
    3430:	00092b83          	lw	x23,0(x18)
    3434:	00490913          	addi	x18,x18,4

00003438 <I_sra_cg_cmp_rd_rs1_b3>:
I_sra_cg_cmp_rd_rs1_b3:
  sra x3, x3, x23 # perform operation
    3438:	4171d1b3          	sra	x3,x3,x23
  # Check if x3 contains the expected result. x19 is the signature ptr, x5 is the link ptr, x4 is a temp reg.
  RVTEST_SIGUPD(x19, x5, x4, x3, I_sra_cg_cmp_rd_rs1_b3, I_sra_cg_cmp_rd_rs1_b3_str)
    343c:	0009a203          	lw	x4,0(x19)
    3440:	00320863          	beq	x4,x3,3450 <I_sra_cg_cmp_rd_rs1_b3+0x18>
    3444:	078012ef          	jal	x5,44bc <failedtest_x5_x4>
    3448:	00003438          	.word	0x00003438
    344c:	0000dc9b          	.word	0x0000dc9b
    3450:	00498993          	addi	x19,x19,4

  mv x13, x4 # switch temp register to avoid conflict with test
    3454:	00020693          	addi	x13,x4,0 # 0 <rvtest_entry_point>
  mv x14, x5 # switch link pointer register to avoid conflict with test
    3458:	00028713          	addi	x14,x5,0
# Testcase cmp_rd_rs1 (Test rd = rs1 = x4)
  RVTEST_TESTDATA_LOAD_INT(x18, x4) # load rs1: x4 = 0xe89a7539
    345c:	00092203          	lw	x4,0(x18)
    3460:	00490913          	addi	x18,x18,4
  RVTEST_TESTDATA_LOAD_INT(x18, x2) # load rs2: x2 = 0x506bd7b9
    3464:	00092103          	lw	x2,0(x18)
    3468:	00490913          	addi	x18,x18,4

0000346c <I_sra_cg_cmp_rd_rs1_b4>:
I_sra_cg_cmp_rd_rs1_b4:
  sra x4, x4, x2 # perform operation
    346c:	40225233          	sra	x4,x4,x2
  # Check if x4 contains the expected result. x19 is the signature ptr, x14 is the link ptr, x13 is a temp reg.
  RVTEST_SIGUPD(x19, x14, x13, x4, I_sra_cg_cmp_rd_rs1_b4, I_sra_cg_cmp_rd_rs1_b4_str)
    3470:	0009a683          	lw	x13,0(x19)
    3474:	00468863          	beq	x13,x4,3484 <I_sra_cg_cmp_rd_rs1_b4+0x18>
    3478:	0840176f          	jal	x14,44fc <failedtest_x14_x13>
    347c:	0000346c          	.word	0x0000346c
    3480:	0000dcce          	.word	0x0000dcce
    3484:	00498993          	addi	x19,x19,4

# Testcase cmp_rd_rs1 (Test rd = rs1 = x5)
  RVTEST_TESTDATA_LOAD_INT(x18, x5) # load rs1: x5 = 0x54ed3506
    3488:	00092283          	lw	x5,0(x18)
    348c:	00490913          	addi	x18,x18,4
  RVTEST_TESTDATA_LOAD_INT(x18, x30) # load rs2: x30 = 0xcdcc33fd
    3490:	00092f03          	lw	x30,0(x18)
    3494:	00490913          	addi	x18,x18,4

00003498 <I_sra_cg_cmp_rd_rs1_b5>:
I_sra_cg_cmp_rd_rs1_b5:
  sra x5, x5, x30 # perform operation
    3498:	41e2d2b3          	sra	x5,x5,x30
  # Check if x5 contains the expected result. x19 is the signature ptr, x14 is the link ptr, x13 is a temp reg.
  RVTEST_SIGUPD(x19, x14, x13, x5, I_sra_cg_cmp_rd_rs1_b5, I_sra_cg_cmp_rd_rs1_b5_str)
    349c:	0009a683          	lw	x13,0(x19)
    34a0:	00568863          	beq	x13,x5,34b0 <I_sra_cg_cmp_rd_rs1_b5+0x18>
    34a4:	0580176f          	jal	x14,44fc <failedtest_x14_x13>
    34a8:	00003498          	.word	0x00003498
    34ac:	0000dd01          	.word	0x0000dd01
    34b0:	00498993          	addi	x19,x19,4

# Testcase cmp_rd_rs1 (Test rd = rs1 = x6)
  RVTEST_TESTDATA_LOAD_INT(x18, x6) # load rs1: x6 = 0x076f2f76
    34b4:	00092303          	lw	x6,0(x18)
    34b8:	00490913          	addi	x18,x18,4
  RVTEST_TESTDATA_LOAD_INT(x18, x4) # load rs2: x4 = 0x6f918e82
    34bc:	00092203          	lw	x4,0(x18)
    34c0:	00490913          	addi	x18,x18,4

000034c4 <I_sra_cg_cmp_rd_rs1_b6>:
I_sra_cg_cmp_rd_rs1_b6:
  sra x6, x6, x4 # perform operation
    34c4:	40435333          	sra	x6,x6,x4
  # Check if x6 contains the expected result. x19 is the signature ptr, x14 is the link ptr, x13 is a temp reg.
  RVTEST_SIGUPD(x19, x14, x13, x6, I_sra_cg_cmp_rd_rs1_b6, I_sra_cg_cmp_rd_rs1_b6_str)
    34c8:	0009a683          	lw	x13,0(x19)
    34cc:	00668863          	beq	x13,x6,34dc <I_sra_cg_cmp_rd_rs1_b6+0x18>
    34d0:	02c0176f          	jal	x14,44fc <failedtest_x14_x13>
    34d4:	000034c4          	.word	0x000034c4
    34d8:	0000dd34          	.word	0x0000dd34
    34dc:	00498993          	addi	x19,x19,4

# Testcase cmp_rd_rs1 (Test rd = rs1 = x7)
  RVTEST_TESTDATA_LOAD_INT(x18, x7) # load rs1: x7 = 0xe65357bf
    34e0:	00092383          	lw	x7,0(x18)
    34e4:	00490913          	addi	x18,x18,4
  RVTEST_TESTDATA_LOAD_INT(x18, x0) # load rs2: x0 = 0xb5a15396
    34e8:	00092003          	lw	x0,0(x18)
    34ec:	00490913          	addi	x18,x18,4

000034f0 <I_sra_cg_cmp_rd_rs1_b7>:
I_sra_cg_cmp_rd_rs1_b7:
  sra x7, x7, x0 # perform operation
    34f0:	4003d3b3          	sra	x7,x7,x0
  # Check if x7 contains the expected result. x19 is the signature ptr, x14 is the link ptr, x13 is a temp reg.
  RVTEST_SIGUPD(x19, x14, x13, x7, I_sra_cg_cmp_rd_rs1_b7, I_sra_cg_cmp_rd_rs1_b7_str)
    34f4:	0009a683          	lw	x13,0(x19)
    34f8:	00768863          	beq	x13,x7,3508 <I_sra_cg_cmp_rd_rs1_b7+0x18>
    34fc:	0000176f          	jal	x14,44fc <failedtest_x14_x13>
    3500:	000034f0          	.word	0x000034f0
    3504:	0000dd67          	.word	0x0000dd67
    3508:	00498993          	addi	x19,x19,4

# Testcase cmp_rd_rs1 (Test rd = rs1 = x8)
  RVTEST_TESTDATA_LOAD_INT(x18, x8) # load rs1: x8 = 0x02dff656
    350c:	00092403          	lw	x8,0(x18)
    3510:	00490913          	addi	x18,x18,4
  RVTEST_TESTDATA_LOAD_INT(x18, x10) # load rs2: x10 = 0xd1e36030
    3514:	00092503          	lw	x10,0(x18)
    3518:	00490913          	addi	x18,x18,4

0000351c <I_sra_cg_cmp_rd_rs1_b8>:
I_sra_cg_cmp_rd_rs1_b8:
  sra x8, x8, x10 # perform operation
    351c:	40a45433          	sra	x8,x8,x10
  # Check if x8 contains the expected result. x19 is the signature ptr, x14 is the link ptr, x13 is a temp reg.
  RVTEST_SIGUPD(x19, x14, x13, x8, I_sra_cg_cmp_rd_rs1_b8, I_sra_cg_cmp_rd_rs1_b8_str)
    3520:	0009a683          	lw	x13,0(x19)
    3524:	00868863          	beq	x13,x8,3534 <I_sra_cg_cmp_rd_rs1_b8+0x18>
    3528:	7d50076f          	jal	x14,44fc <failedtest_x14_x13>
    352c:	0000351c          	.word	0x0000351c
    3530:	0000dd9a          	.word	0x0000dd9a
    3534:	00498993          	addi	x19,x19,4

# Testcase cmp_rd_rs1 (Test rd = rs1 = x9)
  RVTEST_TESTDATA_LOAD_INT(x18, x9) # load rs1: x9 = 0x291d9cd5
    3538:	00092483          	lw	x9,0(x18)
    353c:	00490913          	addi	x18,x18,4
  RVTEST_TESTDATA_LOAD_INT(x18, x5) # load rs2: x5 = 0x08879038
    3540:	00092283          	lw	x5,0(x18)
    3544:	00490913          	addi	x18,x18,4

00003548 <I_sra_cg_cmp_rd_rs1_b9>:
I_sra_cg_cmp_rd_rs1_b9:
  sra x9, x9, x5 # perform operation
    3548:	4054d4b3          	sra	x9,x9,x5
  # Check if x9 contains the expected result. x19 is the signature ptr, x14 is the link ptr, x13 is a temp reg.
  RVTEST_SIGUPD(x19, x14, x13, x9, I_sra_cg_cmp_rd_rs1_b9, I_sra_cg_cmp_rd_rs1_b9_str)
    354c:	0009a683          	lw	x13,0(x19)
    3550:	00968863          	beq	x13,x9,3560 <I_sra_cg_cmp_rd_rs1_b9+0x18>
    3554:	7a90076f          	jal	x14,44fc <failedtest_x14_x13>
    3558:	00003548          	.word	0x00003548
    355c:	0000ddcd          	.word	0x0000ddcd
    3560:	00498993          	addi	x19,x19,4

# Testcase cmp_rd_rs1 (Test rd = rs1 = x10)
  RVTEST_TESTDATA_LOAD_INT(x18, x10) # load rs1: x10 = 0x36f957cc
    3564:	00092503          	lw	x10,0(x18)
    3568:	00490913          	addi	x18,x18,4
  RVTEST_TESTDATA_LOAD_INT(x18, x1) # load rs2: x1 = 0x55b46a23
    356c:	00092083          	lw	x1,0(x18)
    3570:	00490913          	addi	x18,x18,4

00003574 <I_sra_cg_cmp_rd_rs1_b10>:
I_sra_cg_cmp_rd_rs1_b10:
  sra x10, x10, x1 # perform operation
    3574:	40155533          	sra	x10,x10,x1
  # Check if x10 contains the expected result. x19 is the signature ptr, x14 is the link ptr, x13 is a temp reg.
  RVTEST_SIGUPD(x19, x14, x13, x10, I_sra_cg_cmp_rd_rs1_b10, I_sra_cg_cmp_rd_rs1_b10_str)
    3578:	0009a683          	lw	x13,0(x19)
    357c:	00a68863          	beq	x13,x10,358c <I_sra_cg_cmp_rd_rs1_b10+0x18>
    3580:	77d0076f          	jal	x14,44fc <failedtest_x14_x13>
    3584:	00003574          	.word	0x00003574
    3588:	0000de00          	.word	0x0000de00
    358c:	00498993          	addi	x19,x19,4

# Testcase cmp_rd_rs1 (Test rd = rs1 = x11)
  RVTEST_TESTDATA_LOAD_INT(x18, x11) # load rs1: x11 = 0xa528d306
    3590:	00092583          	lw	x11,0(x18)
    3594:	00490913          	addi	x18,x18,4
  RVTEST_TESTDATA_LOAD_INT(x18, x2) # load rs2: x2 = 0xdbb7c5f5
    3598:	00092103          	lw	x2,0(x18)
    359c:	00490913          	addi	x18,x18,4

000035a0 <I_sra_cg_cmp_rd_rs1_b11>:
I_sra_cg_cmp_rd_rs1_b11:
  sra x11, x11, x2 # perform operation
    35a0:	4025d5b3          	sra	x11,x11,x2
  # Check if x11 contains the expected result. x19 is the signature ptr, x14 is the link ptr, x13 is a temp reg.
  RVTEST_SIGUPD(x19, x14, x13, x11, I_sra_cg_cmp_rd_rs1_b11, I_sra_cg_cmp_rd_rs1_b11_str)
    35a4:	0009a683          	lw	x13,0(x19)
    35a8:	00b68863          	beq	x13,x11,35b8 <I_sra_cg_cmp_rd_rs1_b11+0x18>
    35ac:	7510076f          	jal	x14,44fc <failedtest_x14_x13>
    35b0:	000035a0          	.word	0x000035a0
    35b4:	0000de34          	.word	0x0000de34
    35b8:	00498993          	addi	x19,x19,4

# Testcase cmp_rd_rs1 (Test rd = rs1 = x12)
  RVTEST_TESTDATA_LOAD_INT(x18, x12) # load rs1: x12 = 0x4f1c19ef
    35bc:	00092603          	lw	x12,0(x18)
    35c0:	00490913          	addi	x18,x18,4
  RVTEST_TESTDATA_LOAD_INT(x18, x9) # load rs2: x9 = 0xdfb93db7
    35c4:	00092483          	lw	x9,0(x18)
    35c8:	00490913          	addi	x18,x18,4

000035cc <I_sra_cg_cmp_rd_rs1_b12>:
I_sra_cg_cmp_rd_rs1_b12:
  sra x12, x12, x9 # perform operation
    35cc:	40965633          	sra	x12,x12,x9
  # Check if x12 contains the expected result. x19 is the signature ptr, x14 is the link ptr, x13 is a temp reg.
  RVTEST_SIGUPD(x19, x14, x13, x12, I_sra_cg_cmp_rd_rs1_b12, I_sra_cg_cmp_rd_rs1_b12_str)
    35d0:	0009a683          	lw	x13,0(x19)
    35d4:	00c68863          	beq	x13,x12,35e4 <I_sra_cg_cmp_rd_rs1_b12+0x18>
    35d8:	7250076f          	jal	x14,44fc <failedtest_x14_x13>
    35dc:	000035cc          	.word	0x000035cc
    35e0:	0000de68          	.word	0x0000de68
    35e4:	00498993          	addi	x19,x19,4

  mv x7, x13 # switch temp register to avoid conflict with test
    35e8:	00068393          	addi	x7,x13,0
  mv x8, x14 # switch link pointer register to avoid conflict with test
    35ec:	00070413          	addi	x8,x14,0
# Testcase cmp_rd_rs1 (Test rd = rs1 = x13)
  RVTEST_TESTDATA_LOAD_INT(x18, x13) # load rs1: x13 = 0x32a9aae6
    35f0:	00092683          	lw	x13,0(x18)
    35f4:	00490913          	addi	x18,x18,4
  RVTEST_TESTDATA_LOAD_INT(x18, x2) # load rs2: x2 = 0xa7db7f4a
    35f8:	00092103          	lw	x2,0(x18)
    35fc:	00490913          	addi	x18,x18,4

00003600 <I_sra_cg_cmp_rd_rs1_b13>:
I_sra_cg_cmp_rd_rs1_b13:
  sra x13, x13, x2 # perform operation
    3600:	4026d6b3          	sra	x13,x13,x2
  # Check if x13 contains the expected result. x19 is the signature ptr, x8 is the link ptr, x7 is a temp reg.
  RVTEST_SIGUPD(x19, x8, x7, x13, I_sra_cg_cmp_rd_rs1_b13, I_sra_cg_cmp_rd_rs1_b13_str)
    3604:	0009a383          	lw	x7,0(x19)
    3608:	00d38863          	beq	x7,x13,3618 <I_sra_cg_cmp_rd_rs1_b13+0x18>
    360c:	6c90046f          	jal	x8,44d4 <failedtest_x8_x7>
    3610:	00003600          	.word	0x00003600
    3614:	0000de9c          	.word	0x0000de9c
    3618:	00498993          	addi	x19,x19,4

# Testcase cmp_rd_rs1 (Test rd = rs1 = x14)
  RVTEST_TESTDATA_LOAD_INT(x18, x14) # load rs1: x14 = 0xdfe72483
    361c:	00092703          	lw	x14,0(x18)
    3620:	00490913          	addi	x18,x18,4
  RVTEST_TESTDATA_LOAD_INT(x18, x30) # load rs2: x30 = 0x00c8419f
    3624:	00092f03          	lw	x30,0(x18)
    3628:	00490913          	addi	x18,x18,4

0000362c <I_sra_cg_cmp_rd_rs1_b14>:
I_sra_cg_cmp_rd_rs1_b14:
  sra x14, x14, x30 # perform operation
    362c:	41e75733          	sra	x14,x14,x30
  # Check if x14 contains the expected result. x19 is the signature ptr, x8 is the link ptr, x7 is a temp reg.
  RVTEST_SIGUPD(x19, x8, x7, x14, I_sra_cg_cmp_rd_rs1_b14, I_sra_cg_cmp_rd_rs1_b14_str)
    3630:	0009a383          	lw	x7,0(x19)
    3634:	00e38863          	beq	x7,x14,3644 <I_sra_cg_cmp_rd_rs1_b14+0x18>
    3638:	69d0046f          	jal	x8,44d4 <failedtest_x8_x7>
    363c:	0000362c          	.word	0x0000362c
    3640:	0000ded0          	.word	0x0000ded0
    3644:	00498993          	addi	x19,x19,4

# Testcase cmp_rd_rs1 (Test rd = rs1 = x15)
  RVTEST_TESTDATA_LOAD_INT(x18, x15) # load rs1: x15 = 0x1729f8c9
    3648:	00092783          	lw	x15,0(x18)
    364c:	00490913          	addi	x18,x18,4
  RVTEST_TESTDATA_LOAD_INT(x18, x28) # load rs2: x28 = 0x78dc6501
    3650:	00092e03          	lw	x28,0(x18)
    3654:	00490913          	addi	x18,x18,4

00003658 <I_sra_cg_cmp_rd_rs1_b15>:
I_sra_cg_cmp_rd_rs1_b15:
  sra x15, x15, x28 # perform operation
    3658:	41c7d7b3          	sra	x15,x15,x28
  # Check if x15 contains the expected result. x19 is the signature ptr, x8 is the link ptr, x7 is a temp reg.
  RVTEST_SIGUPD(x19, x8, x7, x15, I_sra_cg_cmp_rd_rs1_b15, I_sra_cg_cmp_rd_rs1_b15_str)
    365c:	0009a383          	lw	x7,0(x19)
    3660:	00f38863          	beq	x7,x15,3670 <I_sra_cg_cmp_rd_rs1_b15+0x18>
    3664:	6710046f          	jal	x8,44d4 <failedtest_x8_x7>
    3668:	00003658          	.word	0x00003658
    366c:	0000df04          	.word	0x0000df04
    3670:	00498993          	addi	x19,x19,4

# Testcase cmp_rd_rs1 (Test rd = rs1 = x16)
  RVTEST_TESTDATA_LOAD_INT(x18, x16) # load rs1: x16 = 0xb7997d5d
    3674:	00092803          	lw	x16,0(x18)
    3678:	00490913          	addi	x18,x18,4
  RVTEST_TESTDATA_LOAD_INT(x18, x23) # load rs2: x23 = 0x723e5f60
    367c:	00092b83          	lw	x23,0(x18)
    3680:	00490913          	addi	x18,x18,4

00003684 <I_sra_cg_cmp_rd_rs1_b16>:
I_sra_cg_cmp_rd_rs1_b16:
  sra x16, x16, x23 # perform operation
    3684:	41785833          	sra	x16,x16,x23
  # Check if x16 contains the expected result. x19 is the signature ptr, x8 is the link ptr, x7 is a temp reg.
  RVTEST_SIGUPD(x19, x8, x7, x16, I_sra_cg_cmp_rd_rs1_b16, I_sra_cg_cmp_rd_rs1_b16_str)
    3688:	0009a383          	lw	x7,0(x19)
    368c:	01038863          	beq	x7,x16,369c <I_sra_cg_cmp_rd_rs1_b16+0x18>
    3690:	6450046f          	jal	x8,44d4 <failedtest_x8_x7>
    3694:	00003684          	.word	0x00003684
    3698:	0000df38          	.word	0x0000df38
    369c:	00498993          	addi	x19,x19,4

# Testcase cmp_rd_rs1 (Test rd = rs1 = x17)
  RVTEST_TESTDATA_LOAD_INT(x18, x17) # load rs1: x17 = 0x75ed659a
    36a0:	00092883          	lw	x17,0(x18)
    36a4:	00490913          	addi	x18,x18,4
  RVTEST_TESTDATA_LOAD_INT(x18, x11) # load rs2: x11 = 0x164f5d25
    36a8:	00092583          	lw	x11,0(x18)
    36ac:	00490913          	addi	x18,x18,4

000036b0 <I_sra_cg_cmp_rd_rs1_b17>:
I_sra_cg_cmp_rd_rs1_b17:
  sra x17, x17, x11 # perform operation
    36b0:	40b8d8b3          	sra	x17,x17,x11
  # Check if x17 contains the expected result. x19 is the signature ptr, x8 is the link ptr, x7 is a temp reg.
  RVTEST_SIGUPD(x19, x8, x7, x17, I_sra_cg_cmp_rd_rs1_b17, I_sra_cg_cmp_rd_rs1_b17_str)
    36b4:	0009a383          	lw	x7,0(x19)
    36b8:	01138863          	beq	x7,x17,36c8 <I_sra_cg_cmp_rd_rs1_b17+0x18>
    36bc:	6190046f          	jal	x8,44d4 <failedtest_x8_x7>
    36c0:	000036b0          	.word	0x000036b0
    36c4:	0000df6c          	.word	0x0000df6c
    36c8:	00498993          	addi	x19,x19,4

  mv x23, x18 # switch data pointer register to avoid conflict with test
    36cc:	00090b93          	addi	x23,x18,0
# Testcase cmp_rd_rs1 (Test rd = rs1 = x18)
  RVTEST_TESTDATA_LOAD_INT(x23, x18) # load rs1: x18 = 0x89fc3fa9
    36d0:	000ba903          	lw	x18,0(x23)
    36d4:	004b8b93          	addi	x23,x23,4
  RVTEST_TESTDATA_LOAD_INT(x23, x13) # load rs2: x13 = 0x0955e1a7
    36d8:	000ba683          	lw	x13,0(x23)
    36dc:	004b8b93          	addi	x23,x23,4

000036e0 <I_sra_cg_cmp_rd_rs1_b18>:
I_sra_cg_cmp_rd_rs1_b18:
  sra x18, x18, x13 # perform operation
    36e0:	40d95933          	sra	x18,x18,x13
  # Check if x18 contains the expected result. x19 is the signature ptr, x8 is the link ptr, x7 is a temp reg.
  RVTEST_SIGUPD(x19, x8, x7, x18, I_sra_cg_cmp_rd_rs1_b18, I_sra_cg_cmp_rd_rs1_b18_str)
    36e4:	0009a383          	lw	x7,0(x19)
    36e8:	01238863          	beq	x7,x18,36f8 <I_sra_cg_cmp_rd_rs1_b18+0x18>
    36ec:	5e90046f          	jal	x8,44d4 <failedtest_x8_x7>
    36f0:	000036e0          	.word	0x000036e0
    36f4:	0000dfa0          	.word	0x0000dfa0
    36f8:	00498993          	addi	x19,x19,4

  mv x3, x19 # switch signature pointer register to avoid conflict with test
    36fc:	00098193          	addi	x3,x19,0
# Testcase cmp_rd_rs1 (Test rd = rs1 = x19)
  RVTEST_TESTDATA_LOAD_INT(x23, x19) # load rs1: x19 = 0x51d95941
    3700:	000ba983          	lw	x19,0(x23)
    3704:	004b8b93          	addi	x23,x23,4
  RVTEST_TESTDATA_LOAD_INT(x23, x12) # load rs2: x12 = 0x87372e0e
    3708:	000ba603          	lw	x12,0(x23)
    370c:	004b8b93          	addi	x23,x23,4

00003710 <I_sra_cg_cmp_rd_rs1_b19>:
I_sra_cg_cmp_rd_rs1_b19:
  sra x19, x19, x12 # perform operation
    3710:	40c9d9b3          	sra	x19,x19,x12
  # Check if x19 contains the expected result. x3 is the signature ptr, x8 is the link ptr, x7 is a temp reg.
  RVTEST_SIGUPD(x3, x8, x7, x19, I_sra_cg_cmp_rd_rs1_b19, I_sra_cg_cmp_rd_rs1_b19_str)
    3714:	0001a383          	lw	x7,0(x3)
    3718:	01338863          	beq	x7,x19,3728 <I_sra_cg_cmp_rd_rs1_b19+0x18>
    371c:	5b90046f          	jal	x8,44d4 <failedtest_x8_x7>
    3720:	00003710          	.word	0x00003710
    3724:	0000dfd4          	.word	0x0000dfd4
    3728:	00418193          	addi	x3,x3,4

# Testcase cmp_rd_rs1 (Test rd = rs1 = x20)
  RVTEST_TESTDATA_LOAD_INT(x23, x20) # load rs1: x20 = 0xe7a5d9f0
    372c:	000baa03          	lw	x20,0(x23)
    3730:	004b8b93          	addi	x23,x23,4
  RVTEST_TESTDATA_LOAD_INT(x23, x24) # load rs2: x24 = 0x66f83b14
    3734:	000bac03          	lw	x24,0(x23)
    3738:	004b8b93          	addi	x23,x23,4

0000373c <I_sra_cg_cmp_rd_rs1_b20>:
I_sra_cg_cmp_rd_rs1_b20:
  sra x20, x20, x24 # perform operation
    373c:	418a5a33          	sra	x20,x20,x24
  # Check if x20 contains the expected result. x3 is the signature ptr, x8 is the link ptr, x7 is a temp reg.
  RVTEST_SIGUPD(x3, x8, x7, x20, I_sra_cg_cmp_rd_rs1_b20, I_sra_cg_cmp_rd_rs1_b20_str)
    3740:	0001a383          	lw	x7,0(x3)
    3744:	01438863          	beq	x7,x20,3754 <I_sra_cg_cmp_rd_rs1_b20+0x18>
    3748:	58d0046f          	jal	x8,44d4 <failedtest_x8_x7>
    374c:	0000373c          	.word	0x0000373c
    3750:	0000e008          	.word	0x0000e008
    3754:	00418193          	addi	x3,x3,4

# Testcase cmp_rd_rs1 (Test rd = rs1 = x21)
  RVTEST_TESTDATA_LOAD_INT(x23, x21) # load rs1: x21 = 0xfd7af59d
    3758:	000baa83          	lw	x21,0(x23)
    375c:	004b8b93          	addi	x23,x23,4
  RVTEST_TESTDATA_LOAD_INT(x23, x31) # load rs2: x31 = 0xb81bc55d
    3760:	000baf83          	lw	x31,0(x23)
    3764:	004b8b93          	addi	x23,x23,4

00003768 <I_sra_cg_cmp_rd_rs1_b21>:
I_sra_cg_cmp_rd_rs1_b21:
  sra x21, x21, x31 # perform operation
    3768:	41fadab3          	sra	x21,x21,x31
  # Check if x21 contains the expected result. x3 is the signature ptr, x8 is the link ptr, x7 is a temp reg.
  RVTEST_SIGUPD(x3, x8, x7, x21, I_sra_cg_cmp_rd_rs1_b21, I_sra_cg_cmp_rd_rs1_b21_str)
    376c:	0001a383          	lw	x7,0(x3)
    3770:	01538863          	beq	x7,x21,3780 <I_sra_cg_cmp_rd_rs1_b21+0x18>
    3774:	5610046f          	jal	x8,44d4 <failedtest_x8_x7>
    3778:	00003768          	.word	0x00003768
    377c:	0000e03c          	.word	0x0000e03c
    3780:	00418193          	addi	x3,x3,4

# Testcase cmp_rd_rs1 (Test rd = rs1 = x22)
  RVTEST_TESTDATA_LOAD_INT(x23, x22) # load rs1: x22 = 0xb72a7749
    3784:	000bab03          	lw	x22,0(x23)
    3788:	004b8b93          	addi	x23,x23,4
  RVTEST_TESTDATA_LOAD_INT(x23, x14) # load rs2: x14 = 0x139e2dcd
    378c:	000ba703          	lw	x14,0(x23)
    3790:	004b8b93          	addi	x23,x23,4

00003794 <I_sra_cg_cmp_rd_rs1_b22>:
I_sra_cg_cmp_rd_rs1_b22:
  sra x22, x22, x14 # perform operation
    3794:	40eb5b33          	sra	x22,x22,x14
  # Check if x22 contains the expected result. x3 is the signature ptr, x8 is the link ptr, x7 is a temp reg.
  RVTEST_SIGUPD(x3, x8, x7, x22, I_sra_cg_cmp_rd_rs1_b22, I_sra_cg_cmp_rd_rs1_b22_str)
    3798:	0001a383          	lw	x7,0(x3)
    379c:	01638863          	beq	x7,x22,37ac <I_sra_cg_cmp_rd_rs1_b22+0x18>
    37a0:	5350046f          	jal	x8,44d4 <failedtest_x8_x7>
    37a4:	00003794          	.word	0x00003794
    37a8:	0000e070          	.word	0x0000e070
    37ac:	00418193          	addi	x3,x3,4

  mv x21, x23 # switch data pointer register to avoid conflict with test
    37b0:	000b8a93          	addi	x21,x23,0
# Testcase cmp_rd_rs1 (Test rd = rs1 = x23)
  RVTEST_TESTDATA_LOAD_INT(x21, x23) # load rs1: x23 = 0x11fe67a2
    37b4:	000aab83          	lw	x23,0(x21)
    37b8:	004a8a93          	addi	x21,x21,4
  RVTEST_TESTDATA_LOAD_INT(x21, x24) # load rs2: x24 = 0x33ff62b2
    37bc:	000aac03          	lw	x24,0(x21)
    37c0:	004a8a93          	addi	x21,x21,4

000037c4 <I_sra_cg_cmp_rd_rs1_b23>:
I_sra_cg_cmp_rd_rs1_b23:
  sra x23, x23, x24 # perform operation
    37c4:	418bdbb3          	sra	x23,x23,x24
  # Check if x23 contains the expected result. x3 is the signature ptr, x8 is the link ptr, x7 is a temp reg.
  RVTEST_SIGUPD(x3, x8, x7, x23, I_sra_cg_cmp_rd_rs1_b23, I_sra_cg_cmp_rd_rs1_b23_str)
    37c8:	0001a383          	lw	x7,0(x3)
    37cc:	01738863          	beq	x7,x23,37dc <I_sra_cg_cmp_rd_rs1_b23+0x18>
    37d0:	5050046f          	jal	x8,44d4 <failedtest_x8_x7>
    37d4:	000037c4          	.word	0x000037c4
    37d8:	0000e0a4          	.word	0x0000e0a4
    37dc:	00418193          	addi	x3,x3,4

# Testcase cmp_rd_rs1 (Test rd = rs1 = x24)
  RVTEST_TESTDATA_LOAD_INT(x21, x24) # load rs1: x24 = 0xa001cde9
    37e0:	000aac03          	lw	x24,0(x21)
    37e4:	004a8a93          	addi	x21,x21,4
  RVTEST_TESTDATA_LOAD_INT(x21, x15) # load rs2: x15 = 0xdd5b6d56
    37e8:	000aa783          	lw	x15,0(x21)
    37ec:	004a8a93          	addi	x21,x21,4

000037f0 <I_sra_cg_cmp_rd_rs1_b24>:
I_sra_cg_cmp_rd_rs1_b24:
  sra x24, x24, x15 # perform operation
    37f0:	40fc5c33          	sra	x24,x24,x15
  # Check if x24 contains the expected result. x3 is the signature ptr, x8 is the link ptr, x7 is a temp reg.
  RVTEST_SIGUPD(x3, x8, x7, x24, I_sra_cg_cmp_rd_rs1_b24, I_sra_cg_cmp_rd_rs1_b24_str)
    37f4:	0001a383          	lw	x7,0(x3)
    37f8:	01838863          	beq	x7,x24,3808 <I_sra_cg_cmp_rd_rs1_b24+0x18>
    37fc:	4d90046f          	jal	x8,44d4 <failedtest_x8_x7>
    3800:	000037f0          	.word	0x000037f0
    3804:	0000e0d8          	.word	0x0000e0d8
    3808:	00418193          	addi	x3,x3,4

# Testcase cmp_rd_rs1 (Test rd = rs1 = x25)
  RVTEST_TESTDATA_LOAD_INT(x21, x25) # load rs1: x25 = 0xd0b1d162
    380c:	000aac83          	lw	x25,0(x21)
    3810:	004a8a93          	addi	x21,x21,4
  RVTEST_TESTDATA_LOAD_INT(x21, x20) # load rs2: x20 = 0x0a35aaba
    3814:	000aaa03          	lw	x20,0(x21)
    3818:	004a8a93          	addi	x21,x21,4

0000381c <I_sra_cg_cmp_rd_rs1_b25>:
I_sra_cg_cmp_rd_rs1_b25:
  sra x25, x25, x20 # perform operation
    381c:	414cdcb3          	sra	x25,x25,x20
  # Check if x25 contains the expected result. x3 is the signature ptr, x8 is the link ptr, x7 is a temp reg.
  RVTEST_SIGUPD(x3, x8, x7, x25, I_sra_cg_cmp_rd_rs1_b25, I_sra_cg_cmp_rd_rs1_b25_str)
    3820:	0001a383          	lw	x7,0(x3)
    3824:	01938863          	beq	x7,x25,3834 <I_sra_cg_cmp_rd_rs1_b25+0x18>
    3828:	4ad0046f          	jal	x8,44d4 <failedtest_x8_x7>
    382c:	0000381c          	.word	0x0000381c
    3830:	0000e10c          	.word	0x0000e10c
    3834:	00418193          	addi	x3,x3,4

# Testcase cmp_rd_rs1 (Test rd = rs1 = x26)
  RVTEST_TESTDATA_LOAD_INT(x21, x26) # load rs1: x26 = 0x645630b2
    3838:	000aad03          	lw	x26,0(x21)
    383c:	004a8a93          	addi	x21,x21,4
  RVTEST_TESTDATA_LOAD_INT(x21, x1) # load rs2: x1 = 0xc96ab90b
    3840:	000aa083          	lw	x1,0(x21)
    3844:	004a8a93          	addi	x21,x21,4

00003848 <I_sra_cg_cmp_rd_rs1_b26>:
I_sra_cg_cmp_rd_rs1_b26:
  sra x26, x26, x1 # perform operation
    3848:	401d5d33          	sra	x26,x26,x1
  # Check if x26 contains the expected result. x3 is the signature ptr, x8 is the link ptr, x7 is a temp reg.
  RVTEST_SIGUPD(x3, x8, x7, x26, I_sra_cg_cmp_rd_rs1_b26, I_sra_cg_cmp_rd_rs1_b26_str)
    384c:	0001a383          	lw	x7,0(x3)
    3850:	01a38863          	beq	x7,x26,3860 <I_sra_cg_cmp_rd_rs1_b26+0x18>
    3854:	4810046f          	jal	x8,44d4 <failedtest_x8_x7>
    3858:	00003848          	.word	0x00003848
    385c:	0000e140          	.word	0x0000e140
    3860:	00418193          	addi	x3,x3,4

# Testcase cmp_rd_rs1 (Test rd = rs1 = x27)
  RVTEST_TESTDATA_LOAD_INT(x21, x27) # load rs1: x27 = 0xce04c7b2
    3864:	000aad83          	lw	x27,0(x21)
    3868:	004a8a93          	addi	x21,x21,4
  RVTEST_TESTDATA_LOAD_INT(x21, x19) # load rs2: x19 = 0x507b2411
    386c:	000aa983          	lw	x19,0(x21)
    3870:	004a8a93          	addi	x21,x21,4

00003874 <I_sra_cg_cmp_rd_rs1_b27>:
I_sra_cg_cmp_rd_rs1_b27:
  sra x27, x27, x19 # perform operation
    3874:	413dddb3          	sra	x27,x27,x19
  # Check if x27 contains the expected result. x3 is the signature ptr, x8 is the link ptr, x7 is a temp reg.
  RVTEST_SIGUPD(x3, x8, x7, x27, I_sra_cg_cmp_rd_rs1_b27, I_sra_cg_cmp_rd_rs1_b27_str)
    3878:	0001a383          	lw	x7,0(x3)
    387c:	01b38863          	beq	x7,x27,388c <I_sra_cg_cmp_rd_rs1_b27+0x18>
    3880:	4550046f          	jal	x8,44d4 <failedtest_x8_x7>
    3884:	00003874          	.word	0x00003874
    3888:	0000e174          	.word	0x0000e174
    388c:	00418193          	addi	x3,x3,4

# Testcase cmp_rd_rs1 (Test rd = rs1 = x28)
  RVTEST_TESTDATA_LOAD_INT(x21, x28) # load rs1: x28 = 0x51c580f1
    3890:	000aae03          	lw	x28,0(x21)
    3894:	004a8a93          	addi	x21,x21,4
  RVTEST_TESTDATA_LOAD_INT(x21, x26) # load rs2: x26 = 0x03f7dd48
    3898:	000aad03          	lw	x26,0(x21)
    389c:	004a8a93          	addi	x21,x21,4

000038a0 <I_sra_cg_cmp_rd_rs1_b28>:
I_sra_cg_cmp_rd_rs1_b28:
  sra x28, x28, x26 # perform operation
    38a0:	41ae5e33          	sra	x28,x28,x26
  # Check if x28 contains the expected result. x3 is the signature ptr, x8 is the link ptr, x7 is a temp reg.
  RVTEST_SIGUPD(x3, x8, x7, x28, I_sra_cg_cmp_rd_rs1_b28, I_sra_cg_cmp_rd_rs1_b28_str)
    38a4:	0001a383          	lw	x7,0(x3)
    38a8:	01c38863          	beq	x7,x28,38b8 <I_sra_cg_cmp_rd_rs1_b28+0x18>
    38ac:	4290046f          	jal	x8,44d4 <failedtest_x8_x7>
    38b0:	000038a0          	.word	0x000038a0
    38b4:	0000e1a8          	.word	0x0000e1a8
    38b8:	00418193          	addi	x3,x3,4

# Testcase cmp_rd_rs1 (Test rd = rs1 = x29)
  RVTEST_TESTDATA_LOAD_INT(x21, x29) # load rs1: x29 = 0x1bbcfc28
    38bc:	000aae83          	lw	x29,0(x21)
    38c0:	004a8a93          	addi	x21,x21,4
  RVTEST_TESTDATA_LOAD_INT(x21, x23) # load rs2: x23 = 0x077f604b
    38c4:	000aab83          	lw	x23,0(x21)
    38c8:	004a8a93          	addi	x21,x21,4

000038cc <I_sra_cg_cmp_rd_rs1_b29>:
I_sra_cg_cmp_rd_rs1_b29:
  sra x29, x29, x23 # perform operation
    38cc:	417edeb3          	sra	x29,x29,x23
  # Check if x29 contains the expected result. x3 is the signature ptr, x8 is the link ptr, x7 is a temp reg.
  RVTEST_SIGUPD(x3, x8, x7, x29, I_sra_cg_cmp_rd_rs1_b29, I_sra_cg_cmp_rd_rs1_b29_str)
    38d0:	0001a383          	lw	x7,0(x3)
    38d4:	01d38863          	beq	x7,x29,38e4 <I_sra_cg_cmp_rd_rs1_b29+0x18>
    38d8:	3fd0046f          	jal	x8,44d4 <failedtest_x8_x7>
    38dc:	000038cc          	.word	0x000038cc
    38e0:	0000e1dc          	.word	0x0000e1dc
    38e4:	00418193          	addi	x3,x3,4

# Testcase cmp_rd_rs1 (Test rd = rs1 = x30)
  RVTEST_TESTDATA_LOAD_INT(x21, x30) # load rs1: x30 = 0x5a36bc36
    38e8:	000aaf03          	lw	x30,0(x21)
    38ec:	004a8a93          	addi	x21,x21,4
  RVTEST_TESTDATA_LOAD_INT(x21, x18) # load rs2: x18 = 0x6ac89695
    38f0:	000aa903          	lw	x18,0(x21)
    38f4:	004a8a93          	addi	x21,x21,4

000038f8 <I_sra_cg_cmp_rd_rs1_b30>:
I_sra_cg_cmp_rd_rs1_b30:
  sra x30, x30, x18 # perform operation
    38f8:	412f5f33          	sra	x30,x30,x18
  # Check if x30 contains the expected result. x3 is the signature ptr, x8 is the link ptr, x7 is a temp reg.
  RVTEST_SIGUPD(x3, x8, x7, x30, I_sra_cg_cmp_rd_rs1_b30, I_sra_cg_cmp_rd_rs1_b30_str)
    38fc:	0001a383          	lw	x7,0(x3)
    3900:	01e38863          	beq	x7,x30,3910 <I_sra_cg_cmp_rd_rs1_b30+0x18>
    3904:	3d10046f          	jal	x8,44d4 <failedtest_x8_x7>
    3908:	000038f8          	.word	0x000038f8
    390c:	0000e210          	.word	0x0000e210
    3910:	00418193          	addi	x3,x3,4

# Testcase cmp_rd_rs1 (Test rd = rs1 = x31)
  RVTEST_TESTDATA_LOAD_INT(x21, x31) # load rs1: x31 = 0x0a38c39e
    3914:	000aaf83          	lw	x31,0(x21)
    3918:	004a8a93          	addi	x21,x21,4
  RVTEST_TESTDATA_LOAD_INT(x21, x29) # load rs2: x29 = 0xfb6676bb
    391c:	000aae83          	lw	x29,0(x21)
    3920:	004a8a93          	addi	x21,x21,4

00003924 <I_sra_cg_cmp_rd_rs1_b31>:
I_sra_cg_cmp_rd_rs1_b31:
  sra x31, x31, x29 # perform operation
    3924:	41dfdfb3          	sra	x31,x31,x29
  # Check if x31 contains the expected result. x3 is the signature ptr, x8 is the link ptr, x7 is a temp reg.
  RVTEST_SIGUPD(x3, x8, x7, x31, I_sra_cg_cmp_rd_rs1_b31, I_sra_cg_cmp_rd_rs1_b31_str)
    3928:	0001a383          	lw	x7,0(x3)
    392c:	01f38863          	beq	x7,x31,393c <I_sra_cg_cmp_rd_rs1_b31+0x18>
    3930:	3a50046f          	jal	x8,44d4 <failedtest_x8_x7>
    3934:	00003924          	.word	0x00003924
    3938:	0000e244          	.word	0x0000e244
    393c:	00418193          	addi	x3,x3,4
/////////////////////////////////
// cmp_rd_rs2
/////////////////////////////////

# Testcase cmp_rd_rs2 (Test rd = rs2 = x0)
  RVTEST_TESTDATA_LOAD_INT(x21, x23) # load rs1: x23 = 0xb26756a0
    3940:	000aab83          	lw	x23,0(x21)
    3944:	004a8a93          	addi	x21,x21,4
  RVTEST_TESTDATA_LOAD_INT(x21, x0) # load rs2: x0 = 0x5c07d03d
    3948:	000aa003          	lw	x0,0(x21)
    394c:	004a8a93          	addi	x21,x21,4

00003950 <I_sra_cg_cmp_rd_rs2_b0>:
I_sra_cg_cmp_rd_rs2_b0:
  sra x0, x23, x0 # perform operation
    3950:	400bd033          	sra	x0,x23,x0
  # Check if x0 contains the expected result. x3 is the signature ptr, x8 is the link ptr, x7 is a temp reg.
  RVTEST_SIGUPD(x3, x8, x7, x0, I_sra_cg_cmp_rd_rs2_b0, I_sra_cg_cmp_rd_rs2_b0_str)
    3954:	0001a383          	lw	x7,0(x3)
    3958:	00038863          	beq	x7,x0,3968 <I_sra_cg_cmp_rd_rs2_b0+0x18>
    395c:	3790046f          	jal	x8,44d4 <failedtest_x8_x7>
    3960:	00003950          	.word	0x00003950
    3964:	0000e278          	.word	0x0000e278
    3968:	00418193          	addi	x3,x3,4

# Testcase cmp_rd_rs2 (Test rd = rs2 = x1)
  RVTEST_TESTDATA_LOAD_INT(x21, x15) # load rs1: x15 = 0x890c6af0
    396c:	000aa783          	lw	x15,0(x21)
    3970:	004a8a93          	addi	x21,x21,4
  RVTEST_TESTDATA_LOAD_INT(x21, x1) # load rs2: x1 = 0xb4302cbf
    3974:	000aa083          	lw	x1,0(x21)
    3978:	004a8a93          	addi	x21,x21,4

0000397c <I_sra_cg_cmp_rd_rs2_b1>:
I_sra_cg_cmp_rd_rs2_b1:
  sra x1, x15, x1 # perform operation
    397c:	4017d0b3          	sra	x1,x15,x1
  # Check if x1 contains the expected result. x3 is the signature ptr, x8 is the link ptr, x7 is a temp reg.
  RVTEST_SIGUPD(x3, x8, x7, x1, I_sra_cg_cmp_rd_rs2_b1, I_sra_cg_cmp_rd_rs2_b1_str)
    3980:	0001a383          	lw	x7,0(x3)
    3984:	00138863          	beq	x7,x1,3994 <I_sra_cg_cmp_rd_rs2_b1+0x18>
    3988:	34d0046f          	jal	x8,44d4 <failedtest_x8_x7>
    398c:	0000397c          	.word	0x0000397c
    3990:	0000e2ab          	.word	0x0000e2ab
    3994:	00418193          	addi	x3,x3,4

# Testcase cmp_rd_rs2 (Test rd = rs2 = x2)
  RVTEST_TESTDATA_LOAD_INT(x21, x31) # load rs1: x31 = 0x9d232e64
    3998:	000aaf83          	lw	x31,0(x21)
    399c:	004a8a93          	addi	x21,x21,4
  RVTEST_TESTDATA_LOAD_INT(x21, x2) # load rs2: x2 = 0x1e923f7d
    39a0:	000aa103          	lw	x2,0(x21)
    39a4:	004a8a93          	addi	x21,x21,4

000039a8 <I_sra_cg_cmp_rd_rs2_b2>:
I_sra_cg_cmp_rd_rs2_b2:
  sra x2, x31, x2 # perform operation
    39a8:	402fd133          	sra	x2,x31,x2
  # Check if x2 contains the expected result. x3 is the signature ptr, x8 is the link ptr, x7 is a temp reg.
  RVTEST_SIGUPD(x3, x8, x7, x2, I_sra_cg_cmp_rd_rs2_b2, I_sra_cg_cmp_rd_rs2_b2_str)
    39ac:	0001a383          	lw	x7,0(x3)
    39b0:	00238863          	beq	x7,x2,39c0 <I_sra_cg_cmp_rd_rs2_b2+0x18>
    39b4:	3210046f          	jal	x8,44d4 <failedtest_x8_x7>
    39b8:	000039a8          	.word	0x000039a8
    39bc:	0000e2de          	.word	0x0000e2de
    39c0:	00418193          	addi	x3,x3,4

  mv x16, x3 # switch signature pointer register to avoid conflict with test
    39c4:	00018813          	addi	x16,x3,0
# Testcase cmp_rd_rs2 (Test rd = rs2 = x3)
  RVTEST_TESTDATA_LOAD_INT(x21, x20) # load rs1: x20 = 0x2c5a6399
    39c8:	000aaa03          	lw	x20,0(x21)
    39cc:	004a8a93          	addi	x21,x21,4
  RVTEST_TESTDATA_LOAD_INT(x21, x3) # load rs2: x3 = 0x6664f7cf
    39d0:	000aa183          	lw	x3,0(x21)
    39d4:	004a8a93          	addi	x21,x21,4

000039d8 <I_sra_cg_cmp_rd_rs2_b3>:
I_sra_cg_cmp_rd_rs2_b3:
  sra x3, x20, x3 # perform operation
    39d8:	403a51b3          	sra	x3,x20,x3
  # Check if x3 contains the expected result. x16 is the signature ptr, x8 is the link ptr, x7 is a temp reg.
  RVTEST_SIGUPD(x16, x8, x7, x3, I_sra_cg_cmp_rd_rs2_b3, I_sra_cg_cmp_rd_rs2_b3_str)
    39dc:	00082383          	lw	x7,0(x16)
    39e0:	00338863          	beq	x7,x3,39f0 <I_sra_cg_cmp_rd_rs2_b3+0x18>
    39e4:	2f10046f          	jal	x8,44d4 <failedtest_x8_x7>
    39e8:	000039d8          	.word	0x000039d8
    39ec:	0000e311          	.word	0x0000e311
    39f0:	00480813          	addi	x16,x16,4

# Testcase cmp_rd_rs2 (Test rd = rs2 = x4)
  RVTEST_TESTDATA_LOAD_INT(x21, x18) # load rs1: x18 = 0x1a7d70e9
    39f4:	000aa903          	lw	x18,0(x21)
    39f8:	004a8a93          	addi	x21,x21,4
  RVTEST_TESTDATA_LOAD_INT(x21, x4) # load rs2: x4 = 0x2bcfc0f3
    39fc:	000aa203          	lw	x4,0(x21)
    3a00:	004a8a93          	addi	x21,x21,4

00003a04 <I_sra_cg_cmp_rd_rs2_b4>:
I_sra_cg_cmp_rd_rs2_b4:
  sra x4, x18, x4 # perform operation
    3a04:	40495233          	sra	x4,x18,x4
  # Check if x4 contains the expected result. x16 is the signature ptr, x8 is the link ptr, x7 is a temp reg.
  RVTEST_SIGUPD(x16, x8, x7, x4, I_sra_cg_cmp_rd_rs2_b4, I_sra_cg_cmp_rd_rs2_b4_str)
    3a08:	00082383          	lw	x7,0(x16)
    3a0c:	00438863          	beq	x7,x4,3a1c <I_sra_cg_cmp_rd_rs2_b4+0x18>
    3a10:	2c50046f          	jal	x8,44d4 <failedtest_x8_x7>
    3a14:	00003a04          	.word	0x00003a04
    3a18:	0000e344          	.word	0x0000e344
    3a1c:	00480813          	addi	x16,x16,4

# Testcase cmp_rd_rs2 (Test rd = rs2 = x5)
  RVTEST_TESTDATA_LOAD_INT(x21, x12) # load rs1: x12 = 0x47a35cf9
    3a20:	000aa603          	lw	x12,0(x21)
    3a24:	004a8a93          	addi	x21,x21,4
  RVTEST_TESTDATA_LOAD_INT(x21, x5) # load rs2: x5 = 0x1f4cf7c3
    3a28:	000aa283          	lw	x5,0(x21)
    3a2c:	004a8a93          	addi	x21,x21,4

00003a30 <I_sra_cg_cmp_rd_rs2_b5>:
I_sra_cg_cmp_rd_rs2_b5:
  sra x5, x12, x5 # perform operation
    3a30:	405652b3          	sra	x5,x12,x5
  # Check if x5 contains the expected result. x16 is the signature ptr, x8 is the link ptr, x7 is a temp reg.
  RVTEST_SIGUPD(x16, x8, x7, x5, I_sra_cg_cmp_rd_rs2_b5, I_sra_cg_cmp_rd_rs2_b5_str)
    3a34:	00082383          	lw	x7,0(x16)
    3a38:	00538863          	beq	x7,x5,3a48 <I_sra_cg_cmp_rd_rs2_b5+0x18>
    3a3c:	2990046f          	jal	x8,44d4 <failedtest_x8_x7>
    3a40:	00003a30          	.word	0x00003a30
    3a44:	0000e377          	.word	0x0000e377
    3a48:	00480813          	addi	x16,x16,4

# Testcase cmp_rd_rs2 (Test rd = rs2 = x6)
  RVTEST_TESTDATA_LOAD_INT(x21, x26) # load rs1: x26 = 0x88937daa
    3a4c:	000aad03          	lw	x26,0(x21)
    3a50:	004a8a93          	addi	x21,x21,4
  RVTEST_TESTDATA_LOAD_INT(x21, x6) # load rs2: x6 = 0x67481fc6
    3a54:	000aa303          	lw	x6,0(x21)
    3a58:	004a8a93          	addi	x21,x21,4

00003a5c <I_sra_cg_cmp_rd_rs2_b6>:
I_sra_cg_cmp_rd_rs2_b6:
  sra x6, x26, x6 # perform operation
    3a5c:	406d5333          	sra	x6,x26,x6
  # Check if x6 contains the expected result. x16 is the signature ptr, x8 is the link ptr, x7 is a temp reg.
  RVTEST_SIGUPD(x16, x8, x7, x6, I_sra_cg_cmp_rd_rs2_b6, I_sra_cg_cmp_rd_rs2_b6_str)
    3a60:	00082383          	lw	x7,0(x16)
    3a64:	00638863          	beq	x7,x6,3a74 <I_sra_cg_cmp_rd_rs2_b6+0x18>
    3a68:	26d0046f          	jal	x8,44d4 <failedtest_x8_x7>
    3a6c:	00003a5c          	.word	0x00003a5c
    3a70:	0000e3aa          	.word	0x0000e3aa
    3a74:	00480813          	addi	x16,x16,4

  mv x4, x7 # switch temp register to avoid conflict with test
    3a78:	00038213          	addi	x4,x7,0
  mv x5, x8 # switch link pointer register to avoid conflict with test
    3a7c:	00040293          	addi	x5,x8,0
# Testcase cmp_rd_rs2 (Test rd = rs2 = x7)
  RVTEST_TESTDATA_LOAD_INT(x21, x3) # load rs1: x3 = 0xd27476c0
    3a80:	000aa183          	lw	x3,0(x21)
    3a84:	004a8a93          	addi	x21,x21,4
  RVTEST_TESTDATA_LOAD_INT(x21, x7) # load rs2: x7 = 0xdd578535
    3a88:	000aa383          	lw	x7,0(x21)
    3a8c:	004a8a93          	addi	x21,x21,4

00003a90 <I_sra_cg_cmp_rd_rs2_b7>:
I_sra_cg_cmp_rd_rs2_b7:
  sra x7, x3, x7 # perform operation
    3a90:	4071d3b3          	sra	x7,x3,x7
  # Check if x7 contains the expected result. x16 is the signature ptr, x5 is the link ptr, x4 is a temp reg.
  RVTEST_SIGUPD(x16, x5, x4, x7, I_sra_cg_cmp_rd_rs2_b7, I_sra_cg_cmp_rd_rs2_b7_str)
    3a94:	00082203          	lw	x4,0(x16)
    3a98:	00720863          	beq	x4,x7,3aa8 <I_sra_cg_cmp_rd_rs2_b7+0x18>
    3a9c:	221002ef          	jal	x5,44bc <failedtest_x5_x4>
    3aa0:	00003a90          	.word	0x00003a90
    3aa4:	0000e3dd          	.word	0x0000e3dd
    3aa8:	00480813          	addi	x16,x16,4

# Testcase cmp_rd_rs2 (Test rd = rs2 = x8)
  RVTEST_TESTDATA_LOAD_INT(x21, x31) # load rs1: x31 = 0xcfcae020
    3aac:	000aaf83          	lw	x31,0(x21)
    3ab0:	004a8a93          	addi	x21,x21,4
  RVTEST_TESTDATA_LOAD_INT(x21, x8) # load rs2: x8 = 0x0837b671
    3ab4:	000aa403          	lw	x8,0(x21)
    3ab8:	004a8a93          	addi	x21,x21,4

00003abc <I_sra_cg_cmp_rd_rs2_b8>:
I_sra_cg_cmp_rd_rs2_b8:
  sra x8, x31, x8 # perform operation
    3abc:	408fd433          	sra	x8,x31,x8
  # Check if x8 contains the expected result. x16 is the signature ptr, x5 is the link ptr, x4 is a temp reg.
  RVTEST_SIGUPD(x16, x5, x4, x8, I_sra_cg_cmp_rd_rs2_b8, I_sra_cg_cmp_rd_rs2_b8_str)
    3ac0:	00082203          	lw	x4,0(x16)
    3ac4:	00820863          	beq	x4,x8,3ad4 <I_sra_cg_cmp_rd_rs2_b8+0x18>
    3ac8:	1f5002ef          	jal	x5,44bc <failedtest_x5_x4>
    3acc:	00003abc          	.word	0x00003abc
    3ad0:	0000e410          	.word	0x0000e410
    3ad4:	00480813          	addi	x16,x16,4

# Testcase cmp_rd_rs2 (Test rd = rs2 = x9)
  RVTEST_TESTDATA_LOAD_INT(x21, x20) # load rs1: x20 = 0x5d5c27ed
    3ad8:	000aaa03          	lw	x20,0(x21)
    3adc:	004a8a93          	addi	x21,x21,4
  RVTEST_TESTDATA_LOAD_INT(x21, x9) # load rs2: x9 = 0xe2364cc5
    3ae0:	000aa483          	lw	x9,0(x21)
    3ae4:	004a8a93          	addi	x21,x21,4

00003ae8 <I_sra_cg_cmp_rd_rs2_b9>:
I_sra_cg_cmp_rd_rs2_b9:
  sra x9, x20, x9 # perform operation
    3ae8:	409a54b3          	sra	x9,x20,x9
  # Check if x9 contains the expected result. x16 is the signature ptr, x5 is the link ptr, x4 is a temp reg.
  RVTEST_SIGUPD(x16, x5, x4, x9, I_sra_cg_cmp_rd_rs2_b9, I_sra_cg_cmp_rd_rs2_b9_str)
    3aec:	00082203          	lw	x4,0(x16)
    3af0:	00920863          	beq	x4,x9,3b00 <I_sra_cg_cmp_rd_rs2_b9+0x18>
    3af4:	1c9002ef          	jal	x5,44bc <failedtest_x5_x4>
    3af8:	00003ae8          	.word	0x00003ae8
    3afc:	0000e443          	.word	0x0000e443
    3b00:	00480813          	addi	x16,x16,4

# Testcase cmp_rd_rs2 (Test rd = rs2 = x10)
  RVTEST_TESTDATA_LOAD_INT(x21, x28) # load rs1: x28 = 0x02915a81
    3b04:	000aae03          	lw	x28,0(x21)
    3b08:	004a8a93          	addi	x21,x21,4
  RVTEST_TESTDATA_LOAD_INT(x21, x10) # load rs2: x10 = 0x6dc815a0
    3b0c:	000aa503          	lw	x10,0(x21)
    3b10:	004a8a93          	addi	x21,x21,4

00003b14 <I_sra_cg_cmp_rd_rs2_b10>:
I_sra_cg_cmp_rd_rs2_b10:
  sra x10, x28, x10 # perform operation
    3b14:	40ae5533          	sra	x10,x28,x10
  # Check if x10 contains the expected result. x16 is the signature ptr, x5 is the link ptr, x4 is a temp reg.
  RVTEST_SIGUPD(x16, x5, x4, x10, I_sra_cg_cmp_rd_rs2_b10, I_sra_cg_cmp_rd_rs2_b10_str)
    3b18:	00082203          	lw	x4,0(x16)
    3b1c:	00a20863          	beq	x4,x10,3b2c <I_sra_cg_cmp_rd_rs2_b10+0x18>
    3b20:	19d002ef          	jal	x5,44bc <failedtest_x5_x4>
    3b24:	00003b14          	.word	0x00003b14
    3b28:	0000e476          	.word	0x0000e476
    3b2c:	00480813          	addi	x16,x16,4

# Testcase cmp_rd_rs2 (Test rd = rs2 = x11)
  RVTEST_TESTDATA_LOAD_INT(x21, x23) # load rs1: x23 = 0xc78d07e4
    3b30:	000aab83          	lw	x23,0(x21)
    3b34:	004a8a93          	addi	x21,x21,4
  RVTEST_TESTDATA_LOAD_INT(x21, x11) # load rs2: x11 = 0x0c15f84f
    3b38:	000aa583          	lw	x11,0(x21)
    3b3c:	004a8a93          	addi	x21,x21,4

00003b40 <I_sra_cg_cmp_rd_rs2_b11>:
I_sra_cg_cmp_rd_rs2_b11:
  sra x11, x23, x11 # perform operation
    3b40:	40bbd5b3          	sra	x11,x23,x11
  # Check if x11 contains the expected result. x16 is the signature ptr, x5 is the link ptr, x4 is a temp reg.
  RVTEST_SIGUPD(x16, x5, x4, x11, I_sra_cg_cmp_rd_rs2_b11, I_sra_cg_cmp_rd_rs2_b11_str)
    3b44:	00082203          	lw	x4,0(x16)
    3b48:	00b20863          	beq	x4,x11,3b58 <I_sra_cg_cmp_rd_rs2_b11+0x18>
    3b4c:	171002ef          	jal	x5,44bc <failedtest_x5_x4>
    3b50:	00003b40          	.word	0x00003b40
    3b54:	0000e4aa          	.word	0x0000e4aa
    3b58:	00480813          	addi	x16,x16,4

# Testcase cmp_rd_rs2 (Test rd = rs2 = x12)
  RVTEST_TESTDATA_LOAD_INT(x21, x14) # load rs1: x14 = 0xce3dba60
    3b5c:	000aa703          	lw	x14,0(x21)
    3b60:	004a8a93          	addi	x21,x21,4
  RVTEST_TESTDATA_LOAD_INT(x21, x12) # load rs2: x12 = 0x7a8457bb
    3b64:	000aa603          	lw	x12,0(x21)
    3b68:	004a8a93          	addi	x21,x21,4

00003b6c <I_sra_cg_cmp_rd_rs2_b12>:
I_sra_cg_cmp_rd_rs2_b12:
  sra x12, x14, x12 # perform operation
    3b6c:	40c75633          	sra	x12,x14,x12
  # Check if x12 contains the expected result. x16 is the signature ptr, x5 is the link ptr, x4 is a temp reg.
  RVTEST_SIGUPD(x16, x5, x4, x12, I_sra_cg_cmp_rd_rs2_b12, I_sra_cg_cmp_rd_rs2_b12_str)
    3b70:	00082203          	lw	x4,0(x16)
    3b74:	00c20863          	beq	x4,x12,3b84 <I_sra_cg_cmp_rd_rs2_b12+0x18>
    3b78:	145002ef          	jal	x5,44bc <failedtest_x5_x4>
    3b7c:	00003b6c          	.word	0x00003b6c
    3b80:	0000e4de          	.word	0x0000e4de
    3b84:	00480813          	addi	x16,x16,4

# Testcase cmp_rd_rs2 (Test rd = rs2 = x13)
  RVTEST_TESTDATA_LOAD_INT(x21, x12) # load rs1: x12 = 0xa9856b1b
    3b88:	000aa603          	lw	x12,0(x21)
    3b8c:	004a8a93          	addi	x21,x21,4
  RVTEST_TESTDATA_LOAD_INT(x21, x13) # load rs2: x13 = 0x43a7e2e5
    3b90:	000aa683          	lw	x13,0(x21)
    3b94:	004a8a93          	addi	x21,x21,4

00003b98 <I_sra_cg_cmp_rd_rs2_b13>:
I_sra_cg_cmp_rd_rs2_b13:
  sra x13, x12, x13 # perform operation
    3b98:	40d656b3          	sra	x13,x12,x13
  # Check if x13 contains the expected result. x16 is the signature ptr, x5 is the link ptr, x4 is a temp reg.
  RVTEST_SIGUPD(x16, x5, x4, x13, I_sra_cg_cmp_rd_rs2_b13, I_sra_cg_cmp_rd_rs2_b13_str)
    3b9c:	00082203          	lw	x4,0(x16)
    3ba0:	00d20863          	beq	x4,x13,3bb0 <I_sra_cg_cmp_rd_rs2_b13+0x18>
    3ba4:	119002ef          	jal	x5,44bc <failedtest_x5_x4>
    3ba8:	00003b98          	.word	0x00003b98
    3bac:	0000e512          	.word	0x0000e512
    3bb0:	00480813          	addi	x16,x16,4

# Testcase cmp_rd_rs2 (Test rd = rs2 = x14)
  RVTEST_TESTDATA_LOAD_INT(x21, x1) # load rs1: x1 = 0xac8692c8
    3bb4:	000aa083          	lw	x1,0(x21)
    3bb8:	004a8a93          	addi	x21,x21,4
  RVTEST_TESTDATA_LOAD_INT(x21, x14) # load rs2: x14 = 0xa53aa80b
    3bbc:	000aa703          	lw	x14,0(x21)
    3bc0:	004a8a93          	addi	x21,x21,4

00003bc4 <I_sra_cg_cmp_rd_rs2_b14>:
I_sra_cg_cmp_rd_rs2_b14:
  sra x14, x1, x14 # perform operation
    3bc4:	40e0d733          	sra	x14,x1,x14
  # Check if x14 contains the expected result. x16 is the signature ptr, x5 is the link ptr, x4 is a temp reg.
  RVTEST_SIGUPD(x16, x5, x4, x14, I_sra_cg_cmp_rd_rs2_b14, I_sra_cg_cmp_rd_rs2_b14_str)
    3bc8:	00082203          	lw	x4,0(x16)
    3bcc:	00e20863          	beq	x4,x14,3bdc <I_sra_cg_cmp_rd_rs2_b14+0x18>
    3bd0:	0ed002ef          	jal	x5,44bc <failedtest_x5_x4>
    3bd4:	00003bc4          	.word	0x00003bc4
    3bd8:	0000e546          	.word	0x0000e546
    3bdc:	00480813          	addi	x16,x16,4

# Testcase cmp_rd_rs2 (Test rd = rs2 = x15)
  RVTEST_TESTDATA_LOAD_INT(x21, x3) # load rs1: x3 = 0x85ef5aa6
    3be0:	000aa183          	lw	x3,0(x21)
    3be4:	004a8a93          	addi	x21,x21,4
  RVTEST_TESTDATA_LOAD_INT(x21, x15) # load rs2: x15 = 0x156727eb
    3be8:	000aa783          	lw	x15,0(x21)
    3bec:	004a8a93          	addi	x21,x21,4

00003bf0 <I_sra_cg_cmp_rd_rs2_b15>:
I_sra_cg_cmp_rd_rs2_b15:
  sra x15, x3, x15 # perform operation
    3bf0:	40f1d7b3          	sra	x15,x3,x15
  # Check if x15 contains the expected result. x16 is the signature ptr, x5 is the link ptr, x4 is a temp reg.
  RVTEST_SIGUPD(x16, x5, x4, x15, I_sra_cg_cmp_rd_rs2_b15, I_sra_cg_cmp_rd_rs2_b15_str)
    3bf4:	00082203          	lw	x4,0(x16)
    3bf8:	00f20863          	beq	x4,x15,3c08 <I_sra_cg_cmp_rd_rs2_b15+0x18>
    3bfc:	0c1002ef          	jal	x5,44bc <failedtest_x5_x4>
    3c00:	00003bf0          	.word	0x00003bf0
    3c04:	0000e57a          	.word	0x0000e57a
    3c08:	00480813          	addi	x16,x16,4

  mv x15, x16 # switch signature pointer register to avoid conflict with test
    3c0c:	00080793          	addi	x15,x16,0
# Testcase cmp_rd_rs2 (Test rd = rs2 = x16)
  RVTEST_TESTDATA_LOAD_INT(x21, x17) # load rs1: x17 = 0x4bfa8c8e
    3c10:	000aa883          	lw	x17,0(x21)
    3c14:	004a8a93          	addi	x21,x21,4
  RVTEST_TESTDATA_LOAD_INT(x21, x16) # load rs2: x16 = 0xc1b0b233
    3c18:	000aa803          	lw	x16,0(x21)
    3c1c:	004a8a93          	addi	x21,x21,4

00003c20 <I_sra_cg_cmp_rd_rs2_b16>:
I_sra_cg_cmp_rd_rs2_b16:
  sra x16, x17, x16 # perform operation
    3c20:	4108d833          	sra	x16,x17,x16
  # Check if x16 contains the expected result. x15 is the signature ptr, x5 is the link ptr, x4 is a temp reg.
  RVTEST_SIGUPD(x15, x5, x4, x16, I_sra_cg_cmp_rd_rs2_b16, I_sra_cg_cmp_rd_rs2_b16_str)
    3c24:	0007a203          	lw	x4,0(x15)
    3c28:	01020863          	beq	x4,x16,3c38 <I_sra_cg_cmp_rd_rs2_b16+0x18>
    3c2c:	091002ef          	jal	x5,44bc <failedtest_x5_x4>
    3c30:	00003c20          	.word	0x00003c20
    3c34:	0000e5ae          	.word	0x0000e5ae
    3c38:	00478793          	addi	x15,x15,4

# Testcase cmp_rd_rs2 (Test rd = rs2 = x17)
  RVTEST_TESTDATA_LOAD_INT(x21, x7) # load rs1: x7 = 0xaf2e8e3f
    3c3c:	000aa383          	lw	x7,0(x21)
    3c40:	004a8a93          	addi	x21,x21,4
  RVTEST_TESTDATA_LOAD_INT(x21, x17) # load rs2: x17 = 0x1827c74f
    3c44:	000aa883          	lw	x17,0(x21)
    3c48:	004a8a93          	addi	x21,x21,4

00003c4c <I_sra_cg_cmp_rd_rs2_b17>:
I_sra_cg_cmp_rd_rs2_b17:
  sra x17, x7, x17 # perform operation
    3c4c:	4113d8b3          	sra	x17,x7,x17
  # Check if x17 contains the expected result. x15 is the signature ptr, x5 is the link ptr, x4 is a temp reg.
  RVTEST_SIGUPD(x15, x5, x4, x17, I_sra_cg_cmp_rd_rs2_b17, I_sra_cg_cmp_rd_rs2_b17_str)
    3c50:	0007a203          	lw	x4,0(x15)
    3c54:	01120863          	beq	x4,x17,3c64 <I_sra_cg_cmp_rd_rs2_b17+0x18>
    3c58:	065002ef          	jal	x5,44bc <failedtest_x5_x4>
    3c5c:	00003c4c          	.word	0x00003c4c
    3c60:	0000e5e2          	.word	0x0000e5e2
    3c64:	00478793          	addi	x15,x15,4

# Testcase cmp_rd_rs2 (Test rd = rs2 = x18)
  RVTEST_TESTDATA_LOAD_INT(x21, x1) # load rs1: x1 = 0x2b006afa
    3c68:	000aa083          	lw	x1,0(x21)
    3c6c:	004a8a93          	addi	x21,x21,4
  RVTEST_TESTDATA_LOAD_INT(x21, x18) # load rs2: x18 = 0x4ee34d54
    3c70:	000aa903          	lw	x18,0(x21)
    3c74:	004a8a93          	addi	x21,x21,4

00003c78 <I_sra_cg_cmp_rd_rs2_b18>:
I_sra_cg_cmp_rd_rs2_b18:
  sra x18, x1, x18 # perform operation
    3c78:	4120d933          	sra	x18,x1,x18
  # Check if x18 contains the expected result. x15 is the signature ptr, x5 is the link ptr, x4 is a temp reg.
  RVTEST_SIGUPD(x15, x5, x4, x18, I_sra_cg_cmp_rd_rs2_b18, I_sra_cg_cmp_rd_rs2_b18_str)
    3c7c:	0007a203          	lw	x4,0(x15)
    3c80:	01220863          	beq	x4,x18,3c90 <I_sra_cg_cmp_rd_rs2_b18+0x18>
    3c84:	039002ef          	jal	x5,44bc <failedtest_x5_x4>
    3c88:	00003c78          	.word	0x00003c78
    3c8c:	0000e616          	.word	0x0000e616
    3c90:	00478793          	addi	x15,x15,4

# Testcase cmp_rd_rs2 (Test rd = rs2 = x19)
  RVTEST_TESTDATA_LOAD_INT(x21, x24) # load rs1: x24 = 0xc8123d11
    3c94:	000aac03          	lw	x24,0(x21)
    3c98:	004a8a93          	addi	x21,x21,4
  RVTEST_TESTDATA_LOAD_INT(x21, x19) # load rs2: x19 = 0xf5215139
    3c9c:	000aa983          	lw	x19,0(x21)
    3ca0:	004a8a93          	addi	x21,x21,4

00003ca4 <I_sra_cg_cmp_rd_rs2_b19>:
I_sra_cg_cmp_rd_rs2_b19:
  sra x19, x24, x19 # perform operation
    3ca4:	413c59b3          	sra	x19,x24,x19
  # Check if x19 contains the expected result. x15 is the signature ptr, x5 is the link ptr, x4 is a temp reg.
  RVTEST_SIGUPD(x15, x5, x4, x19, I_sra_cg_cmp_rd_rs2_b19, I_sra_cg_cmp_rd_rs2_b19_str)
    3ca8:	0007a203          	lw	x4,0(x15)
    3cac:	01320863          	beq	x4,x19,3cbc <I_sra_cg_cmp_rd_rs2_b19+0x18>
    3cb0:	00d002ef          	jal	x5,44bc <failedtest_x5_x4>
    3cb4:	00003ca4          	.word	0x00003ca4
    3cb8:	0000e64a          	.word	0x0000e64a
    3cbc:	00478793          	addi	x15,x15,4

# Testcase cmp_rd_rs2 (Test rd = rs2 = x20)
  RVTEST_TESTDATA_LOAD_INT(x21, x23) # load rs1: x23 = 0x4487d2bd
    3cc0:	000aab83          	lw	x23,0(x21)
    3cc4:	004a8a93          	addi	x21,x21,4
  RVTEST_TESTDATA_LOAD_INT(x21, x20) # load rs2: x20 = 0xdd15addc
    3cc8:	000aaa03          	lw	x20,0(x21)
    3ccc:	004a8a93          	addi	x21,x21,4

00003cd0 <I_sra_cg_cmp_rd_rs2_b20>:
I_sra_cg_cmp_rd_rs2_b20:
  sra x20, x23, x20 # perform operation
    3cd0:	414bda33          	sra	x20,x23,x20
  # Check if x20 contains the expected result. x15 is the signature ptr, x5 is the link ptr, x4 is a temp reg.
  RVTEST_SIGUPD(x15, x5, x4, x20, I_sra_cg_cmp_rd_rs2_b20, I_sra_cg_cmp_rd_rs2_b20_str)
    3cd4:	0007a203          	lw	x4,0(x15)
    3cd8:	01420863          	beq	x4,x20,3ce8 <I_sra_cg_cmp_rd_rs2_b20+0x18>
    3cdc:	7e0002ef          	jal	x5,44bc <failedtest_x5_x4>
    3ce0:	00003cd0          	.word	0x00003cd0
    3ce4:	0000e67e          	.word	0x0000e67e
    3ce8:	00478793          	addi	x15,x15,4

  mv x16, x21 # switch data pointer register to avoid conflict with test
    3cec:	000a8813          	addi	x16,x21,0
# Testcase cmp_rd_rs2 (Test rd = rs2 = x21)
  RVTEST_TESTDATA_LOAD_INT(x16, x8) # load rs1: x8 = 0x05d05218
    3cf0:	00082403          	lw	x8,0(x16)
    3cf4:	00480813          	addi	x16,x16,4
  RVTEST_TESTDATA_LOAD_INT(x16, x21) # load rs2: x21 = 0x2ce4c63b
    3cf8:	00082a83          	lw	x21,0(x16)
    3cfc:	00480813          	addi	x16,x16,4

00003d00 <I_sra_cg_cmp_rd_rs2_b21>:
I_sra_cg_cmp_rd_rs2_b21:
  sra x21, x8, x21 # perform operation
    3d00:	41545ab3          	sra	x21,x8,x21
  # Check if x21 contains the expected result. x15 is the signature ptr, x5 is the link ptr, x4 is a temp reg.
  RVTEST_SIGUPD(x15, x5, x4, x21, I_sra_cg_cmp_rd_rs2_b21, I_sra_cg_cmp_rd_rs2_b21_str)
    3d04:	0007a203          	lw	x4,0(x15)
    3d08:	01520863          	beq	x4,x21,3d18 <I_sra_cg_cmp_rd_rs2_b21+0x18>
    3d0c:	7b0002ef          	jal	x5,44bc <failedtest_x5_x4>
    3d10:	00003d00          	.word	0x00003d00
    3d14:	0000e6b2          	.word	0x0000e6b2
    3d18:	00478793          	addi	x15,x15,4

# Testcase cmp_rd_rs2 (Test rd = rs2 = x22)
  RVTEST_TESTDATA_LOAD_INT(x16, x24) # load rs1: x24 = 0x26e79f3d
    3d1c:	00082c03          	lw	x24,0(x16)
    3d20:	00480813          	addi	x16,x16,4
  RVTEST_TESTDATA_LOAD_INT(x16, x22) # load rs2: x22 = 0x492efb3e
    3d24:	00082b03          	lw	x22,0(x16)
    3d28:	00480813          	addi	x16,x16,4

00003d2c <I_sra_cg_cmp_rd_rs2_b22>:
I_sra_cg_cmp_rd_rs2_b22:
  sra x22, x24, x22 # perform operation
    3d2c:	416c5b33          	sra	x22,x24,x22
  # Check if x22 contains the expected result. x15 is the signature ptr, x5 is the link ptr, x4 is a temp reg.
  RVTEST_SIGUPD(x15, x5, x4, x22, I_sra_cg_cmp_rd_rs2_b22, I_sra_cg_cmp_rd_rs2_b22_str)
    3d30:	0007a203          	lw	x4,0(x15)
    3d34:	01620863          	beq	x4,x22,3d44 <I_sra_cg_cmp_rd_rs2_b22+0x18>
    3d38:	784002ef          	jal	x5,44bc <failedtest_x5_x4>
    3d3c:	00003d2c          	.word	0x00003d2c
    3d40:	0000e6e6          	.word	0x0000e6e6
    3d44:	00478793          	addi	x15,x15,4

# Testcase cmp_rd_rs2 (Test rd = rs2 = x23)
  RVTEST_TESTDATA_LOAD_INT(x16, x22) # load rs1: x22 = 0x61507fe8
    3d48:	00082b03          	lw	x22,0(x16)
    3d4c:	00480813          	addi	x16,x16,4
  RVTEST_TESTDATA_LOAD_INT(x16, x23) # load rs2: x23 = 0x6a1860be
    3d50:	00082b83          	lw	x23,0(x16)
    3d54:	00480813          	addi	x16,x16,4

00003d58 <I_sra_cg_cmp_rd_rs2_b23>:
I_sra_cg_cmp_rd_rs2_b23:
  sra x23, x22, x23 # perform operation
    3d58:	417b5bb3          	sra	x23,x22,x23
  # Check if x23 contains the expected result. x15 is the signature ptr, x5 is the link ptr, x4 is a temp reg.
  RVTEST_SIGUPD(x15, x5, x4, x23, I_sra_cg_cmp_rd_rs2_b23, I_sra_cg_cmp_rd_rs2_b23_str)
    3d5c:	0007a203          	lw	x4,0(x15)
    3d60:	01720863          	beq	x4,x23,3d70 <I_sra_cg_cmp_rd_rs2_b23+0x18>
    3d64:	758002ef          	jal	x5,44bc <failedtest_x5_x4>
    3d68:	00003d58          	.word	0x00003d58
    3d6c:	0000e71a          	.word	0x0000e71a
    3d70:	00478793          	addi	x15,x15,4

# Testcase cmp_rd_rs2 (Test rd = rs2 = x24)
  RVTEST_TESTDATA_LOAD_INT(x16, x19) # load rs1: x19 = 0xe2dd6aa9
    3d74:	00082983          	lw	x19,0(x16)
    3d78:	00480813          	addi	x16,x16,4
  RVTEST_TESTDATA_LOAD_INT(x16, x24) # load rs2: x24 = 0xea8090cb
    3d7c:	00082c03          	lw	x24,0(x16)
    3d80:	00480813          	addi	x16,x16,4

00003d84 <I_sra_cg_cmp_rd_rs2_b24>:
I_sra_cg_cmp_rd_rs2_b24:
  sra x24, x19, x24 # perform operation
    3d84:	4189dc33          	sra	x24,x19,x24
  # Check if x24 contains the expected result. x15 is the signature ptr, x5 is the link ptr, x4 is a temp reg.
  RVTEST_SIGUPD(x15, x5, x4, x24, I_sra_cg_cmp_rd_rs2_b24, I_sra_cg_cmp_rd_rs2_b24_str)
    3d88:	0007a203          	lw	x4,0(x15)
    3d8c:	01820863          	beq	x4,x24,3d9c <I_sra_cg_cmp_rd_rs2_b24+0x18>
    3d90:	72c002ef          	jal	x5,44bc <failedtest_x5_x4>
    3d94:	00003d84          	.word	0x00003d84
    3d98:	0000e74e          	.word	0x0000e74e
    3d9c:	00478793          	addi	x15,x15,4

# Testcase cmp_rd_rs2 (Test rd = rs2 = x25)
  RVTEST_TESTDATA_LOAD_INT(x16, x11) # load rs1: x11 = 0x75c68a71
    3da0:	00082583          	lw	x11,0(x16)
    3da4:	00480813          	addi	x16,x16,4
  RVTEST_TESTDATA_LOAD_INT(x16, x25) # load rs2: x25 = 0xf28e6b53
    3da8:	00082c83          	lw	x25,0(x16)
    3dac:	00480813          	addi	x16,x16,4

00003db0 <I_sra_cg_cmp_rd_rs2_b25>:
I_sra_cg_cmp_rd_rs2_b25:
  sra x25, x11, x25 # perform operation
    3db0:	4195dcb3          	sra	x25,x11,x25
  # Check if x25 contains the expected result. x15 is the signature ptr, x5 is the link ptr, x4 is a temp reg.
  RVTEST_SIGUPD(x15, x5, x4, x25, I_sra_cg_cmp_rd_rs2_b25, I_sra_cg_cmp_rd_rs2_b25_str)
    3db4:	0007a203          	lw	x4,0(x15)
    3db8:	01920863          	beq	x4,x25,3dc8 <I_sra_cg_cmp_rd_rs2_b25+0x18>
    3dbc:	700002ef          	jal	x5,44bc <failedtest_x5_x4>
    3dc0:	00003db0          	.word	0x00003db0
    3dc4:	0000e782          	.word	0x0000e782
    3dc8:	00478793          	addi	x15,x15,4

# Testcase cmp_rd_rs2 (Test rd = rs2 = x26)
  RVTEST_TESTDATA_LOAD_INT(x16, x25) # load rs1: x25 = 0x1edd12d7
    3dcc:	00082c83          	lw	x25,0(x16)
    3dd0:	00480813          	addi	x16,x16,4
  RVTEST_TESTDATA_LOAD_INT(x16, x26) # load rs2: x26 = 0xc3adcada
    3dd4:	00082d03          	lw	x26,0(x16)
    3dd8:	00480813          	addi	x16,x16,4

00003ddc <I_sra_cg_cmp_rd_rs2_b26>:
I_sra_cg_cmp_rd_rs2_b26:
  sra x26, x25, x26 # perform operation
    3ddc:	41acdd33          	sra	x26,x25,x26
  # Check if x26 contains the expected result. x15 is the signature ptr, x5 is the link ptr, x4 is a temp reg.
  RVTEST_SIGUPD(x15, x5, x4, x26, I_sra_cg_cmp_rd_rs2_b26, I_sra_cg_cmp_rd_rs2_b26_str)
    3de0:	0007a203          	lw	x4,0(x15)
    3de4:	01a20863          	beq	x4,x26,3df4 <I_sra_cg_cmp_rd_rs2_b26+0x18>
    3de8:	6d4002ef          	jal	x5,44bc <failedtest_x5_x4>
    3dec:	00003ddc          	.word	0x00003ddc
    3df0:	0000e7b6          	.word	0x0000e7b6
    3df4:	00478793          	addi	x15,x15,4

# Testcase cmp_rd_rs2 (Test rd = rs2 = x27)
  RVTEST_TESTDATA_LOAD_INT(x16, x22) # load rs1: x22 = 0x5fbff2cc
    3df8:	00082b03          	lw	x22,0(x16)
    3dfc:	00480813          	addi	x16,x16,4
  RVTEST_TESTDATA_LOAD_INT(x16, x27) # load rs2: x27 = 0xc5e63887
    3e00:	00082d83          	lw	x27,0(x16)
    3e04:	00480813          	addi	x16,x16,4

00003e08 <I_sra_cg_cmp_rd_rs2_b27>:
I_sra_cg_cmp_rd_rs2_b27:
  sra x27, x22, x27 # perform operation
    3e08:	41bb5db3          	sra	x27,x22,x27
  # Check if x27 contains the expected result. x15 is the signature ptr, x5 is the link ptr, x4 is a temp reg.
  RVTEST_SIGUPD(x15, x5, x4, x27, I_sra_cg_cmp_rd_rs2_b27, I_sra_cg_cmp_rd_rs2_b27_str)
    3e0c:	0007a203          	lw	x4,0(x15)
    3e10:	01b20863          	beq	x4,x27,3e20 <I_sra_cg_cmp_rd_rs2_b27+0x18>
    3e14:	6a8002ef          	jal	x5,44bc <failedtest_x5_x4>
    3e18:	00003e08          	.word	0x00003e08
    3e1c:	0000e7ea          	.word	0x0000e7ea
    3e20:	00478793          	addi	x15,x15,4

# Testcase cmp_rd_rs2 (Test rd = rs2 = x28)
  RVTEST_TESTDATA_LOAD_INT(x16, x27) # load rs1: x27 = 0xc3c3a511
    3e24:	00082d83          	lw	x27,0(x16)
    3e28:	00480813          	addi	x16,x16,4
  RVTEST_TESTDATA_LOAD_INT(x16, x28) # load rs2: x28 = 0xdb3a730a
    3e2c:	00082e03          	lw	x28,0(x16)
    3e30:	00480813          	addi	x16,x16,4

00003e34 <I_sra_cg_cmp_rd_rs2_b28>:
I_sra_cg_cmp_rd_rs2_b28:
  sra x28, x27, x28 # perform operation
    3e34:	41cdde33          	sra	x28,x27,x28
  # Check if x28 contains the expected result. x15 is the signature ptr, x5 is the link ptr, x4 is a temp reg.
  RVTEST_SIGUPD(x15, x5, x4, x28, I_sra_cg_cmp_rd_rs2_b28, I_sra_cg_cmp_rd_rs2_b28_str)
    3e38:	0007a203          	lw	x4,0(x15)
    3e3c:	01c20863          	beq	x4,x28,3e4c <I_sra_cg_cmp_rd_rs2_b28+0x18>
    3e40:	67c002ef          	jal	x5,44bc <failedtest_x5_x4>
    3e44:	00003e34          	.word	0x00003e34
    3e48:	0000e81e          	.word	0x0000e81e
    3e4c:	00478793          	addi	x15,x15,4

# Testcase cmp_rd_rs2 (Test rd = rs2 = x29)
  RVTEST_TESTDATA_LOAD_INT(x16, x0) # load rs1: x0 = 0xfab1f3d3
    3e50:	00082003          	lw	x0,0(x16)
    3e54:	00480813          	addi	x16,x16,4
  RVTEST_TESTDATA_LOAD_INT(x16, x29) # load rs2: x29 = 0x7c8583ef
    3e58:	00082e83          	lw	x29,0(x16)
    3e5c:	00480813          	addi	x16,x16,4

00003e60 <I_sra_cg_cmp_rd_rs2_b29>:
I_sra_cg_cmp_rd_rs2_b29:
  sra x29, x0, x29 # perform operation
    3e60:	41d05eb3          	sra	x29,x0,x29
  # Check if x29 contains the expected result. x15 is the signature ptr, x5 is the link ptr, x4 is a temp reg.
  RVTEST_SIGUPD(x15, x5, x4, x29, I_sra_cg_cmp_rd_rs2_b29, I_sra_cg_cmp_rd_rs2_b29_str)
    3e64:	0007a203          	lw	x4,0(x15)
    3e68:	01d20863          	beq	x4,x29,3e78 <I_sra_cg_cmp_rd_rs2_b29+0x18>
    3e6c:	650002ef          	jal	x5,44bc <failedtest_x5_x4>
    3e70:	00003e60          	.word	0x00003e60
    3e74:	0000e852          	.word	0x0000e852
    3e78:	00478793          	addi	x15,x15,4

# Testcase cmp_rd_rs2 (Test rd = rs2 = x30)
  RVTEST_TESTDATA_LOAD_INT(x16, x22) # load rs1: x22 = 0x387bd804
    3e7c:	00082b03          	lw	x22,0(x16)
    3e80:	00480813          	addi	x16,x16,4
  RVTEST_TESTDATA_LOAD_INT(x16, x30) # load rs2: x30 = 0xa9a91b9b
    3e84:	00082f03          	lw	x30,0(x16)
    3e88:	00480813          	addi	x16,x16,4

00003e8c <I_sra_cg_cmp_rd_rs2_b30>:
I_sra_cg_cmp_rd_rs2_b30:
  sra x30, x22, x30 # perform operation
    3e8c:	41eb5f33          	sra	x30,x22,x30
  # Check if x30 contains the expected result. x15 is the signature ptr, x5 is the link ptr, x4 is a temp reg.
  RVTEST_SIGUPD(x15, x5, x4, x30, I_sra_cg_cmp_rd_rs2_b30, I_sra_cg_cmp_rd_rs2_b30_str)
    3e90:	0007a203          	lw	x4,0(x15)
    3e94:	01e20863          	beq	x4,x30,3ea4 <I_sra_cg_cmp_rd_rs2_b30+0x18>
    3e98:	624002ef          	jal	x5,44bc <failedtest_x5_x4>
    3e9c:	00003e8c          	.word	0x00003e8c
    3ea0:	0000e886          	.word	0x0000e886
    3ea4:	00478793          	addi	x15,x15,4

# Testcase cmp_rd_rs2 (Test rd = rs2 = x31)
  RVTEST_TESTDATA_LOAD_INT(x16, x28) # load rs1: x28 = 0x3c2ea974
    3ea8:	00082e03          	lw	x28,0(x16)
    3eac:	00480813          	addi	x16,x16,4
  RVTEST_TESTDATA_LOAD_INT(x16, x31) # load rs2: x31 = 0xc24d1bf3
    3eb0:	00082f83          	lw	x31,0(x16)
    3eb4:	00480813          	addi	x16,x16,4

00003eb8 <I_sra_cg_cmp_rd_rs2_b31>:
I_sra_cg_cmp_rd_rs2_b31:
  sra x31, x28, x31 # perform operation
    3eb8:	41fe5fb3          	sra	x31,x28,x31
  # Check if x31 contains the expected result. x15 is the signature ptr, x5 is the link ptr, x4 is a temp reg.
  RVTEST_SIGUPD(x15, x5, x4, x31, I_sra_cg_cmp_rd_rs2_b31, I_sra_cg_cmp_rd_rs2_b31_str)
    3ebc:	0007a203          	lw	x4,0(x15)
    3ec0:	01f20863          	beq	x4,x31,3ed0 <I_sra_cg_cmp_rd_rs2_b31+0x18>
    3ec4:	5f8002ef          	jal	x5,44bc <failedtest_x5_x4>
    3ec8:	00003eb8          	.word	0x00003eb8
    3ecc:	0000e8ba          	.word	0x0000e8ba
    3ed0:	00478793          	addi	x15,x15,4
/////////////////////////////////
// cmp_rd_rs1_rs2
/////////////////////////////////

# Testcase cmp_rd_rs1_rs2 (Test rd = rs1 = rs2 = x0)
  RVTEST_TESTDATA_LOAD_INT(x16, x0) # load rs1: x0 = 0xfddd37c3
    3ed4:	00082003          	lw	x0,0(x16)
    3ed8:	00480813          	addi	x16,x16,4
  RVTEST_TESTDATA_LOAD_INT(x16, x0) # load rs2: x0 = 0xd46151a1
    3edc:	00082003          	lw	x0,0(x16)
    3ee0:	00480813          	addi	x16,x16,4

00003ee4 <I_sra_cg_cmp_rd_rs1_rs2_b0>:
I_sra_cg_cmp_rd_rs1_rs2_b0:
  sra x0, x0, x0 # perform operation
    3ee4:	40005033          	sra	x0,x0,x0
  # Check if x0 contains the expected result. x15 is the signature ptr, x5 is the link ptr, x4 is a temp reg.
  RVTEST_SIGUPD(x15, x5, x4, x0, I_sra_cg_cmp_rd_rs1_rs2_b0, I_sra_cg_cmp_rd_rs1_rs2_b0_str)
    3ee8:	0007a203          	lw	x4,0(x15)
    3eec:	00020863          	beq	x4,x0,3efc <I_sra_cg_cmp_rd_rs1_rs2_b0+0x18>
    3ef0:	5cc002ef          	jal	x5,44bc <failedtest_x5_x4>
    3ef4:	00003ee4          	.word	0x00003ee4
    3ef8:	0000e8ee          	.word	0x0000e8ee
    3efc:	00478793          	addi	x15,x15,4

# Testcase cmp_rd_rs1_rs2 (Test rd = rs1 = rs2 = x1)
  RVTEST_TESTDATA_LOAD_INT(x16, x1) # load rs1: x1 = 0x51d5fa63
    3f00:	00082083          	lw	x1,0(x16)
    3f04:	00480813          	addi	x16,x16,4
  RVTEST_TESTDATA_LOAD_INT(x16, x1) # load rs2: x1 = 0xbc277165
    3f08:	00082083          	lw	x1,0(x16)
    3f0c:	00480813          	addi	x16,x16,4

00003f10 <I_sra_cg_cmp_rd_rs1_rs2_b1>:
I_sra_cg_cmp_rd_rs1_rs2_b1:
  sra x1, x1, x1 # perform operation
    3f10:	4010d0b3          	sra	x1,x1,x1
  # Check if x1 contains the expected result. x15 is the signature ptr, x5 is the link ptr, x4 is a temp reg.
  RVTEST_SIGUPD(x15, x5, x4, x1, I_sra_cg_cmp_rd_rs1_rs2_b1, I_sra_cg_cmp_rd_rs1_rs2_b1_str)
    3f14:	0007a203          	lw	x4,0(x15)
    3f18:	00120863          	beq	x4,x1,3f28 <I_sra_cg_cmp_rd_rs1_rs2_b1+0x18>
    3f1c:	5a0002ef          	jal	x5,44bc <failedtest_x5_x4>
    3f20:	00003f10          	.word	0x00003f10
    3f24:	0000e925          	.word	0x0000e925
    3f28:	00478793          	addi	x15,x15,4

# Testcase cmp_rd_rs1_rs2 (Test rd = rs1 = rs2 = x2)
  RVTEST_TESTDATA_LOAD_INT(x16, x2) # load rs1: x2 = 0xb3a56511
    3f2c:	00082103          	lw	x2,0(x16)
    3f30:	00480813          	addi	x16,x16,4
  RVTEST_TESTDATA_LOAD_INT(x16, x2) # load rs2: x2 = 0x7689a368
    3f34:	00082103          	lw	x2,0(x16)
    3f38:	00480813          	addi	x16,x16,4

00003f3c <I_sra_cg_cmp_rd_rs1_rs2_b2>:
I_sra_cg_cmp_rd_rs1_rs2_b2:
  sra x2, x2, x2 # perform operation
    3f3c:	40215133          	sra	x2,x2,x2
  # Check if x2 contains the expected result. x15 is the signature ptr, x5 is the link ptr, x4 is a temp reg.
  RVTEST_SIGUPD(x15, x5, x4, x2, I_sra_cg_cmp_rd_rs1_rs2_b2, I_sra_cg_cmp_rd_rs1_rs2_b2_str)
    3f40:	0007a203          	lw	x4,0(x15)
    3f44:	00220863          	beq	x4,x2,3f54 <I_sra_cg_cmp_rd_rs1_rs2_b2+0x18>
    3f48:	574002ef          	jal	x5,44bc <failedtest_x5_x4>
    3f4c:	00003f3c          	.word	0x00003f3c
    3f50:	0000e95c          	.word	0x0000e95c
    3f54:	00478793          	addi	x15,x15,4

# Testcase cmp_rd_rs1_rs2 (Test rd = rs1 = rs2 = x3)
  RVTEST_TESTDATA_LOAD_INT(x16, x3) # load rs1: x3 = 0xcf7250c9
    3f58:	00082183          	lw	x3,0(x16)
    3f5c:	00480813          	addi	x16,x16,4
  RVTEST_TESTDATA_LOAD_INT(x16, x3) # load rs2: x3 = 0x4fa2a17a
    3f60:	00082183          	lw	x3,0(x16)
    3f64:	00480813          	addi	x16,x16,4

00003f68 <I_sra_cg_cmp_rd_rs1_rs2_b3>:
I_sra_cg_cmp_rd_rs1_rs2_b3:
  sra x3, x3, x3 # perform operation
    3f68:	4031d1b3          	sra	x3,x3,x3
  # Check if x3 contains the expected result. x15 is the signature ptr, x5 is the link ptr, x4 is a temp reg.
  RVTEST_SIGUPD(x15, x5, x4, x3, I_sra_cg_cmp_rd_rs1_rs2_b3, I_sra_cg_cmp_rd_rs1_rs2_b3_str)
    3f6c:	0007a203          	lw	x4,0(x15)
    3f70:	00320863          	beq	x4,x3,3f80 <I_sra_cg_cmp_rd_rs1_rs2_b3+0x18>
    3f74:	548002ef          	jal	x5,44bc <failedtest_x5_x4>
    3f78:	00003f68          	.word	0x00003f68
    3f7c:	0000e993          	.word	0x0000e993
    3f80:	00478793          	addi	x15,x15,4

  mv x7, x4 # switch temp register to avoid conflict with test
    3f84:	00020393          	addi	x7,x4,0 # 0 <rvtest_entry_point>
  mv x8, x5 # switch link pointer register to avoid conflict with test
    3f88:	00028413          	addi	x8,x5,0
# Testcase cmp_rd_rs1_rs2 (Test rd = rs1 = rs2 = x4)
  RVTEST_TESTDATA_LOAD_INT(x16, x4) # load rs1: x4 = 0x6925eb27
    3f8c:	00082203          	lw	x4,0(x16)
    3f90:	00480813          	addi	x16,x16,4
  RVTEST_TESTDATA_LOAD_INT(x16, x4) # load rs2: x4 = 0xd8419b5a
    3f94:	00082203          	lw	x4,0(x16)
    3f98:	00480813          	addi	x16,x16,4

00003f9c <I_sra_cg_cmp_rd_rs1_rs2_b4>:
I_sra_cg_cmp_rd_rs1_rs2_b4:
  sra x4, x4, x4 # perform operation
    3f9c:	40425233          	sra	x4,x4,x4
  # Check if x4 contains the expected result. x15 is the signature ptr, x8 is the link ptr, x7 is a temp reg.
  RVTEST_SIGUPD(x15, x8, x7, x4, I_sra_cg_cmp_rd_rs1_rs2_b4, I_sra_cg_cmp_rd_rs1_rs2_b4_str)
    3fa0:	0007a383          	lw	x7,0(x15)
    3fa4:	00438863          	beq	x7,x4,3fb4 <I_sra_cg_cmp_rd_rs1_rs2_b4+0x18>
    3fa8:	52c0046f          	jal	x8,44d4 <failedtest_x8_x7>
    3fac:	00003f9c          	.word	0x00003f9c
    3fb0:	0000e9ca          	.word	0x0000e9ca
    3fb4:	00478793          	addi	x15,x15,4

# Testcase cmp_rd_rs1_rs2 (Test rd = rs1 = rs2 = x5)
  RVTEST_TESTDATA_LOAD_INT(x16, x5) # load rs1: x5 = 0x3acf40a8
    3fb8:	00082283          	lw	x5,0(x16)
    3fbc:	00480813          	addi	x16,x16,4
  RVTEST_TESTDATA_LOAD_INT(x16, x5) # load rs2: x5 = 0x27a5c112
    3fc0:	00082283          	lw	x5,0(x16)
    3fc4:	00480813          	addi	x16,x16,4

00003fc8 <I_sra_cg_cmp_rd_rs1_rs2_b5>:
I_sra_cg_cmp_rd_rs1_rs2_b5:
  sra x5, x5, x5 # perform operation
    3fc8:	4052d2b3          	sra	x5,x5,x5
  # Check if x5 contains the expected result. x15 is the signature ptr, x8 is the link ptr, x7 is a temp reg.
  RVTEST_SIGUPD(x15, x8, x7, x5, I_sra_cg_cmp_rd_rs1_rs2_b5, I_sra_cg_cmp_rd_rs1_rs2_b5_str)
    3fcc:	0007a383          	lw	x7,0(x15)
    3fd0:	00538863          	beq	x7,x5,3fe0 <I_sra_cg_cmp_rd_rs1_rs2_b5+0x18>
    3fd4:	5000046f          	jal	x8,44d4 <failedtest_x8_x7>
    3fd8:	00003fc8          	.word	0x00003fc8
    3fdc:	0000ea01          	.word	0x0000ea01
    3fe0:	00478793          	addi	x15,x15,4

# Testcase cmp_rd_rs1_rs2 (Test rd = rs1 = rs2 = x6)
  RVTEST_TESTDATA_LOAD_INT(x16, x6) # load rs1: x6 = 0x9a56e3c0
    3fe4:	00082303          	lw	x6,0(x16)
    3fe8:	00480813          	addi	x16,x16,4
  RVTEST_TESTDATA_LOAD_INT(x16, x6) # load rs2: x6 = 0x0b0d7e5d
    3fec:	00082303          	lw	x6,0(x16)
    3ff0:	00480813          	addi	x16,x16,4

00003ff4 <I_sra_cg_cmp_rd_rs1_rs2_b6>:
I_sra_cg_cmp_rd_rs1_rs2_b6:
  sra x6, x6, x6 # perform operation
    3ff4:	40635333          	sra	x6,x6,x6
  # Check if x6 contains the expected result. x15 is the signature ptr, x8 is the link ptr, x7 is a temp reg.
  RVTEST_SIGUPD(x15, x8, x7, x6, I_sra_cg_cmp_rd_rs1_rs2_b6, I_sra_cg_cmp_rd_rs1_rs2_b6_str)
    3ff8:	0007a383          	lw	x7,0(x15)
    3ffc:	00638863          	beq	x7,x6,400c <I_sra_cg_cmp_rd_rs1_rs2_b6+0x18>
    4000:	4d40046f          	jal	x8,44d4 <failedtest_x8_x7>
    4004:	00003ff4          	.word	0x00003ff4
    4008:	0000ea38          	.word	0x0000ea38
    400c:	00478793          	addi	x15,x15,4

  mv x13, x7 # switch temp register to avoid conflict with test
    4010:	00038693          	addi	x13,x7,0
  mv x14, x8 # switch link pointer register to avoid conflict with test
    4014:	00040713          	addi	x14,x8,0
# Testcase cmp_rd_rs1_rs2 (Test rd = rs1 = rs2 = x7)
  RVTEST_TESTDATA_LOAD_INT(x16, x7) # load rs1: x7 = 0x9ce71a87
    4018:	00082383          	lw	x7,0(x16)
    401c:	00480813          	addi	x16,x16,4
  RVTEST_TESTDATA_LOAD_INT(x16, x7) # load rs2: x7 = 0x9ae9b941
    4020:	00082383          	lw	x7,0(x16)
    4024:	00480813          	addi	x16,x16,4

00004028 <I_sra_cg_cmp_rd_rs1_rs2_b7>:
I_sra_cg_cmp_rd_rs1_rs2_b7:
  sra x7, x7, x7 # perform operation
    4028:	4073d3b3          	sra	x7,x7,x7
  # Check if x7 contains the expected result. x15 is the signature ptr, x14 is the link ptr, x13 is a temp reg.
  RVTEST_SIGUPD(x15, x14, x13, x7, I_sra_cg_cmp_rd_rs1_rs2_b7, I_sra_cg_cmp_rd_rs1_rs2_b7_str)
    402c:	0007a683          	lw	x13,0(x15)
    4030:	00768863          	beq	x13,x7,4040 <I_sra_cg_cmp_rd_rs1_rs2_b7+0x18>
    4034:	4c80076f          	jal	x14,44fc <failedtest_x14_x13>
    4038:	00004028          	.word	0x00004028
    403c:	0000ea6f          	.word	0x0000ea6f
    4040:	00478793          	addi	x15,x15,4

# Testcase cmp_rd_rs1_rs2 (Test rd = rs1 = rs2 = x8)
  RVTEST_TESTDATA_LOAD_INT(x16, x8) # load rs1: x8 = 0xc155911f
    4044:	00082403          	lw	x8,0(x16)
    4048:	00480813          	addi	x16,x16,4
  RVTEST_TESTDATA_LOAD_INT(x16, x8) # load rs2: x8 = 0x6abfc026
    404c:	00082403          	lw	x8,0(x16)
    4050:	00480813          	addi	x16,x16,4

00004054 <I_sra_cg_cmp_rd_rs1_rs2_b8>:
I_sra_cg_cmp_rd_rs1_rs2_b8:
  sra x8, x8, x8 # perform operation
    4054:	40845433          	sra	x8,x8,x8
  # Check if x8 contains the expected result. x15 is the signature ptr, x14 is the link ptr, x13 is a temp reg.
  RVTEST_SIGUPD(x15, x14, x13, x8, I_sra_cg_cmp_rd_rs1_rs2_b8, I_sra_cg_cmp_rd_rs1_rs2_b8_str)
    4058:	0007a683          	lw	x13,0(x15)
    405c:	00868863          	beq	x13,x8,406c <I_sra_cg_cmp_rd_rs1_rs2_b8+0x18>
    4060:	49c0076f          	jal	x14,44fc <failedtest_x14_x13>
    4064:	00004054          	.word	0x00004054
    4068:	0000eaa6          	.word	0x0000eaa6
    406c:	00478793          	addi	x15,x15,4

# Testcase cmp_rd_rs1_rs2 (Test rd = rs1 = rs2 = x9)
  RVTEST_TESTDATA_LOAD_INT(x16, x9) # load rs1: x9 = 0x5cfacd5a
    4070:	00082483          	lw	x9,0(x16)
    4074:	00480813          	addi	x16,x16,4
  RVTEST_TESTDATA_LOAD_INT(x16, x9) # load rs2: x9 = 0x0b630da7
    4078:	00082483          	lw	x9,0(x16)
    407c:	00480813          	addi	x16,x16,4

00004080 <I_sra_cg_cmp_rd_rs1_rs2_b9>:
I_sra_cg_cmp_rd_rs1_rs2_b9:
  sra x9, x9, x9 # perform operation
    4080:	4094d4b3          	sra	x9,x9,x9
  # Check if x9 contains the expected result. x15 is the signature ptr, x14 is the link ptr, x13 is a temp reg.
  RVTEST_SIGUPD(x15, x14, x13, x9, I_sra_cg_cmp_rd_rs1_rs2_b9, I_sra_cg_cmp_rd_rs1_rs2_b9_str)
    4084:	0007a683          	lw	x13,0(x15)
    4088:	00968863          	beq	x13,x9,4098 <I_sra_cg_cmp_rd_rs1_rs2_b9+0x18>
    408c:	4700076f          	jal	x14,44fc <failedtest_x14_x13>
    4090:	00004080          	.word	0x00004080
    4094:	0000eadd          	.word	0x0000eadd
    4098:	00478793          	addi	x15,x15,4

# Testcase cmp_rd_rs1_rs2 (Test rd = rs1 = rs2 = x10)
  RVTEST_TESTDATA_LOAD_INT(x16, x10) # load rs1: x10 = 0xa52fec98
    409c:	00082503          	lw	x10,0(x16)
    40a0:	00480813          	addi	x16,x16,4
  RVTEST_TESTDATA_LOAD_INT(x16, x10) # load rs2: x10 = 0x30af0128
    40a4:	00082503          	lw	x10,0(x16)
    40a8:	00480813          	addi	x16,x16,4

000040ac <I_sra_cg_cmp_rd_rs1_rs2_b10>:
I_sra_cg_cmp_rd_rs1_rs2_b10:
  sra x10, x10, x10 # perform operation
    40ac:	40a55533          	sra	x10,x10,x10
  # Check if x10 contains the expected result. x15 is the signature ptr, x14 is the link ptr, x13 is a temp reg.
  RVTEST_SIGUPD(x15, x14, x13, x10, I_sra_cg_cmp_rd_rs1_rs2_b10, I_sra_cg_cmp_rd_rs1_rs2_b10_str)
    40b0:	0007a683          	lw	x13,0(x15)
    40b4:	00a68863          	beq	x13,x10,40c4 <I_sra_cg_cmp_rd_rs1_rs2_b10+0x18>
    40b8:	4440076f          	jal	x14,44fc <failedtest_x14_x13>
    40bc:	000040ac          	.word	0x000040ac
    40c0:	0000eb14          	.word	0x0000eb14
    40c4:	00478793          	addi	x15,x15,4

# Testcase cmp_rd_rs1_rs2 (Test rd = rs1 = rs2 = x11)
  RVTEST_TESTDATA_LOAD_INT(x16, x11) # load rs1: x11 = 0xbaaecc4b
    40c8:	00082583          	lw	x11,0(x16)
    40cc:	00480813          	addi	x16,x16,4
  RVTEST_TESTDATA_LOAD_INT(x16, x11) # load rs2: x11 = 0xbae63e49
    40d0:	00082583          	lw	x11,0(x16)
    40d4:	00480813          	addi	x16,x16,4

000040d8 <I_sra_cg_cmp_rd_rs1_rs2_b11>:
I_sra_cg_cmp_rd_rs1_rs2_b11:
  sra x11, x11, x11 # perform operation
    40d8:	40b5d5b3          	sra	x11,x11,x11
  # Check if x11 contains the expected result. x15 is the signature ptr, x14 is the link ptr, x13 is a temp reg.
  RVTEST_SIGUPD(x15, x14, x13, x11, I_sra_cg_cmp_rd_rs1_rs2_b11, I_sra_cg_cmp_rd_rs1_rs2_b11_str)
    40dc:	0007a683          	lw	x13,0(x15)
    40e0:	00b68863          	beq	x13,x11,40f0 <I_sra_cg_cmp_rd_rs1_rs2_b11+0x18>
    40e4:	4180076f          	jal	x14,44fc <failedtest_x14_x13>
    40e8:	000040d8          	.word	0x000040d8
    40ec:	0000eb4c          	.word	0x0000eb4c
    40f0:	00478793          	addi	x15,x15,4

# Testcase cmp_rd_rs1_rs2 (Test rd = rs1 = rs2 = x12)
  RVTEST_TESTDATA_LOAD_INT(x16, x12) # load rs1: x12 = 0x6c319645
    40f4:	00082603          	lw	x12,0(x16)
    40f8:	00480813          	addi	x16,x16,4
  RVTEST_TESTDATA_LOAD_INT(x16, x12) # load rs2: x12 = 0x137ccae3
    40fc:	00082603          	lw	x12,0(x16)
    4100:	00480813          	addi	x16,x16,4

00004104 <I_sra_cg_cmp_rd_rs1_rs2_b12>:
I_sra_cg_cmp_rd_rs1_rs2_b12:
  sra x12, x12, x12 # perform operation
    4104:	40c65633          	sra	x12,x12,x12
  # Check if x12 contains the expected result. x15 is the signature ptr, x14 is the link ptr, x13 is a temp reg.
  RVTEST_SIGUPD(x15, x14, x13, x12, I_sra_cg_cmp_rd_rs1_rs2_b12, I_sra_cg_cmp_rd_rs1_rs2_b12_str)
    4108:	0007a683          	lw	x13,0(x15)
    410c:	00c68863          	beq	x13,x12,411c <I_sra_cg_cmp_rd_rs1_rs2_b12+0x18>
    4110:	3ec0076f          	jal	x14,44fc <failedtest_x14_x13>
    4114:	00004104          	.word	0x00004104
    4118:	0000eb84          	.word	0x0000eb84
    411c:	00478793          	addi	x15,x15,4

  mv x7, x13 # switch temp register to avoid conflict with test
    4120:	00068393          	addi	x7,x13,0
  mv x8, x14 # switch link pointer register to avoid conflict with test
    4124:	00070413          	addi	x8,x14,0
# Testcase cmp_rd_rs1_rs2 (Test rd = rs1 = rs2 = x13)
  RVTEST_TESTDATA_LOAD_INT(x16, x13) # load rs1: x13 = 0xb7615d88
    4128:	00082683          	lw	x13,0(x16)
    412c:	00480813          	addi	x16,x16,4
  RVTEST_TESTDATA_LOAD_INT(x16, x13) # load rs2: x13 = 0xa1975c8c
    4130:	00082683          	lw	x13,0(x16)
    4134:	00480813          	addi	x16,x16,4

00004138 <I_sra_cg_cmp_rd_rs1_rs2_b13>:
I_sra_cg_cmp_rd_rs1_rs2_b13:
  sra x13, x13, x13 # perform operation
    4138:	40d6d6b3          	sra	x13,x13,x13
  # Check if x13 contains the expected result. x15 is the signature ptr, x8 is the link ptr, x7 is a temp reg.
  RVTEST_SIGUPD(x15, x8, x7, x13, I_sra_cg_cmp_rd_rs1_rs2_b13, I_sra_cg_cmp_rd_rs1_rs2_b13_str)
    413c:	0007a383          	lw	x7,0(x15)
    4140:	00d38863          	beq	x7,x13,4150 <I_sra_cg_cmp_rd_rs1_rs2_b13+0x18>
    4144:	3900046f          	jal	x8,44d4 <failedtest_x8_x7>
    4148:	00004138          	.word	0x00004138
    414c:	0000ebbc          	.word	0x0000ebbc
    4150:	00478793          	addi	x15,x15,4

# Testcase cmp_rd_rs1_rs2 (Test rd = rs1 = rs2 = x14)
  RVTEST_TESTDATA_LOAD_INT(x16, x14) # load rs1: x14 = 0xb698a9b9
    4154:	00082703          	lw	x14,0(x16)
    4158:	00480813          	addi	x16,x16,4
  RVTEST_TESTDATA_LOAD_INT(x16, x14) # load rs2: x14 = 0x4ef1e931
    415c:	00082703          	lw	x14,0(x16)
    4160:	00480813          	addi	x16,x16,4

00004164 <I_sra_cg_cmp_rd_rs1_rs2_b14>:
I_sra_cg_cmp_rd_rs1_rs2_b14:
  sra x14, x14, x14 # perform operation
    4164:	40e75733          	sra	x14,x14,x14
  # Check if x14 contains the expected result. x15 is the signature ptr, x8 is the link ptr, x7 is a temp reg.
  RVTEST_SIGUPD(x15, x8, x7, x14, I_sra_cg_cmp_rd_rs1_rs2_b14, I_sra_cg_cmp_rd_rs1_rs2_b14_str)
    4168:	0007a383          	lw	x7,0(x15)
    416c:	00e38863          	beq	x7,x14,417c <I_sra_cg_cmp_rd_rs1_rs2_b14+0x18>
    4170:	3640046f          	jal	x8,44d4 <failedtest_x8_x7>
    4174:	00004164          	.word	0x00004164
    4178:	0000ebf4          	.word	0x0000ebf4
    417c:	00478793          	addi	x15,x15,4

  mv x10, x15 # switch signature pointer register to avoid conflict with test
    4180:	00078513          	addi	x10,x15,0
# Testcase cmp_rd_rs1_rs2 (Test rd = rs1 = rs2 = x15)
  RVTEST_TESTDATA_LOAD_INT(x16, x15) # load rs1: x15 = 0x6a197112
    4184:	00082783          	lw	x15,0(x16)
    4188:	00480813          	addi	x16,x16,4
  RVTEST_TESTDATA_LOAD_INT(x16, x15) # load rs2: x15 = 0xfa900156
    418c:	00082783          	lw	x15,0(x16)
    4190:	00480813          	addi	x16,x16,4

00004194 <I_sra_cg_cmp_rd_rs1_rs2_b15>:
I_sra_cg_cmp_rd_rs1_rs2_b15:
  sra x15, x15, x15 # perform operation
    4194:	40f7d7b3          	sra	x15,x15,x15
  # Check if x15 contains the expected result. x10 is the signature ptr, x8 is the link ptr, x7 is a temp reg.
  RVTEST_SIGUPD(x10, x8, x7, x15, I_sra_cg_cmp_rd_rs1_rs2_b15, I_sra_cg_cmp_rd_rs1_rs2_b15_str)
    4198:	00052383          	lw	x7,0(x10)
    419c:	00f38863          	beq	x7,x15,41ac <I_sra_cg_cmp_rd_rs1_rs2_b15+0x18>
    41a0:	3340046f          	jal	x8,44d4 <failedtest_x8_x7>
    41a4:	00004194          	.word	0x00004194
    41a8:	0000ec2c          	.word	0x0000ec2c
    41ac:	00450513          	addi	x10,x10,4

  mv x15, x16 # switch data pointer register to avoid conflict with test
    41b0:	00080793          	addi	x15,x16,0
# Testcase cmp_rd_rs1_rs2 (Test rd = rs1 = rs2 = x16)
  RVTEST_TESTDATA_LOAD_INT(x15, x16) # load rs1: x16 = 0xb32e9e7e
    41b4:	0007a803          	lw	x16,0(x15)
    41b8:	00478793          	addi	x15,x15,4
  RVTEST_TESTDATA_LOAD_INT(x15, x16) # load rs2: x16 = 0xe5711ff0
    41bc:	0007a803          	lw	x16,0(x15)
    41c0:	00478793          	addi	x15,x15,4

000041c4 <I_sra_cg_cmp_rd_rs1_rs2_b16>:
I_sra_cg_cmp_rd_rs1_rs2_b16:
  sra x16, x16, x16 # perform operation
    41c4:	41085833          	sra	x16,x16,x16
  # Check if x16 contains the expected result. x10 is the signature ptr, x8 is the link ptr, x7 is a temp reg.
  RVTEST_SIGUPD(x10, x8, x7, x16, I_sra_cg_cmp_rd_rs1_rs2_b16, I_sra_cg_cmp_rd_rs1_rs2_b16_str)
    41c8:	00052383          	lw	x7,0(x10)
    41cc:	01038863          	beq	x7,x16,41dc <I_sra_cg_cmp_rd_rs1_rs2_b16+0x18>
    41d0:	3040046f          	jal	x8,44d4 <failedtest_x8_x7>
    41d4:	000041c4          	.word	0x000041c4
    41d8:	0000ec64          	.word	0x0000ec64
    41dc:	00450513          	addi	x10,x10,4

# Testcase cmp_rd_rs1_rs2 (Test rd = rs1 = rs2 = x17)
  RVTEST_TESTDATA_LOAD_INT(x15, x17) # load rs1: x17 = 0x730b062a
    41e0:	0007a883          	lw	x17,0(x15)
    41e4:	00478793          	addi	x15,x15,4
  RVTEST_TESTDATA_LOAD_INT(x15, x17) # load rs2: x17 = 0xbb96d7d5
    41e8:	0007a883          	lw	x17,0(x15)
    41ec:	00478793          	addi	x15,x15,4

000041f0 <I_sra_cg_cmp_rd_rs1_rs2_b17>:
I_sra_cg_cmp_rd_rs1_rs2_b17:
  sra x17, x17, x17 # perform operation
    41f0:	4118d8b3          	sra	x17,x17,x17
  # Check if x17 contains the expected result. x10 is the signature ptr, x8 is the link ptr, x7 is a temp reg.
  RVTEST_SIGUPD(x10, x8, x7, x17, I_sra_cg_cmp_rd_rs1_rs2_b17, I_sra_cg_cmp_rd_rs1_rs2_b17_str)
    41f4:	00052383          	lw	x7,0(x10)
    41f8:	01138863          	beq	x7,x17,4208 <I_sra_cg_cmp_rd_rs1_rs2_b17+0x18>
    41fc:	2d80046f          	jal	x8,44d4 <failedtest_x8_x7>
    4200:	000041f0          	.word	0x000041f0
    4204:	0000ec9c          	.word	0x0000ec9c
    4208:	00450513          	addi	x10,x10,4

# Testcase cmp_rd_rs1_rs2 (Test rd = rs1 = rs2 = x18)
  RVTEST_TESTDATA_LOAD_INT(x15, x18) # load rs1: x18 = 0x128f6732
    420c:	0007a903          	lw	x18,0(x15)
    4210:	00478793          	addi	x15,x15,4
  RVTEST_TESTDATA_LOAD_INT(x15, x18) # load rs2: x18 = 0xf174670b
    4214:	0007a903          	lw	x18,0(x15)
    4218:	00478793          	addi	x15,x15,4

0000421c <I_sra_cg_cmp_rd_rs1_rs2_b18>:
I_sra_cg_cmp_rd_rs1_rs2_b18:
  sra x18, x18, x18 # perform operation
    421c:	41295933          	sra	x18,x18,x18
  # Check if x18 contains the expected result. x10 is the signature ptr, x8 is the link ptr, x7 is a temp reg.
  RVTEST_SIGUPD(x10, x8, x7, x18, I_sra_cg_cmp_rd_rs1_rs2_b18, I_sra_cg_cmp_rd_rs1_rs2_b18_str)
    4220:	00052383          	lw	x7,0(x10)
    4224:	01238863          	beq	x7,x18,4234 <I_sra_cg_cmp_rd_rs1_rs2_b18+0x18>
    4228:	2ac0046f          	jal	x8,44d4 <failedtest_x8_x7>
    422c:	0000421c          	.word	0x0000421c
    4230:	0000ecd4          	.word	0x0000ecd4
    4234:	00450513          	addi	x10,x10,4

# Testcase cmp_rd_rs1_rs2 (Test rd = rs1 = rs2 = x19)
  RVTEST_TESTDATA_LOAD_INT(x15, x19) # load rs1: x19 = 0xfb3a6dcf
    4238:	0007a983          	lw	x19,0(x15)
    423c:	00478793          	addi	x15,x15,4
  RVTEST_TESTDATA_LOAD_INT(x15, x19) # load rs2: x19 = 0x0feed678
    4240:	0007a983          	lw	x19,0(x15)
    4244:	00478793          	addi	x15,x15,4

00004248 <I_sra_cg_cmp_rd_rs1_rs2_b19>:
I_sra_cg_cmp_rd_rs1_rs2_b19:
  sra x19, x19, x19 # perform operation
    4248:	4139d9b3          	sra	x19,x19,x19
  # Check if x19 contains the expected result. x10 is the signature ptr, x8 is the link ptr, x7 is a temp reg.
  RVTEST_SIGUPD(x10, x8, x7, x19, I_sra_cg_cmp_rd_rs1_rs2_b19, I_sra_cg_cmp_rd_rs1_rs2_b19_str)
    424c:	00052383          	lw	x7,0(x10)
    4250:	01338863          	beq	x7,x19,4260 <I_sra_cg_cmp_rd_rs1_rs2_b19+0x18>
    4254:	2800046f          	jal	x8,44d4 <failedtest_x8_x7>
    4258:	00004248          	.word	0x00004248
    425c:	0000ed0c          	.word	0x0000ed0c
    4260:	00450513          	addi	x10,x10,4

# Testcase cmp_rd_rs1_rs2 (Test rd = rs1 = rs2 = x20)
  RVTEST_TESTDATA_LOAD_INT(x15, x20) # load rs1: x20 = 0x9ad3c3b9
    4264:	0007aa03          	lw	x20,0(x15)
    4268:	00478793          	addi	x15,x15,4
  RVTEST_TESTDATA_LOAD_INT(x15, x20) # load rs2: x20 = 0x41adbff3
    426c:	0007aa03          	lw	x20,0(x15)
    4270:	00478793          	addi	x15,x15,4

00004274 <I_sra_cg_cmp_rd_rs1_rs2_b20>:
I_sra_cg_cmp_rd_rs1_rs2_b20:
  sra x20, x20, x20 # perform operation
    4274:	414a5a33          	sra	x20,x20,x20
  # Check if x20 contains the expected result. x10 is the signature ptr, x8 is the link ptr, x7 is a temp reg.
  RVTEST_SIGUPD(x10, x8, x7, x20, I_sra_cg_cmp_rd_rs1_rs2_b20, I_sra_cg_cmp_rd_rs1_rs2_b20_str)
    4278:	00052383          	lw	x7,0(x10)
    427c:	01438863          	beq	x7,x20,428c <I_sra_cg_cmp_rd_rs1_rs2_b20+0x18>
    4280:	2540046f          	jal	x8,44d4 <failedtest_x8_x7>
    4284:	00004274          	.word	0x00004274
    4288:	0000ed44          	.word	0x0000ed44
    428c:	00450513          	addi	x10,x10,4

# Testcase cmp_rd_rs1_rs2 (Test rd = rs1 = rs2 = x21)
  RVTEST_TESTDATA_LOAD_INT(x15, x21) # load rs1: x21 = 0x2e00471b
    4290:	0007aa83          	lw	x21,0(x15)
    4294:	00478793          	addi	x15,x15,4
  RVTEST_TESTDATA_LOAD_INT(x15, x21) # load rs2: x21 = 0xffa4a724
    4298:	0007aa83          	lw	x21,0(x15)
    429c:	00478793          	addi	x15,x15,4

000042a0 <I_sra_cg_cmp_rd_rs1_rs2_b21>:
I_sra_cg_cmp_rd_rs1_rs2_b21:
  sra x21, x21, x21 # perform operation
    42a0:	415adab3          	sra	x21,x21,x21
  # Check if x21 contains the expected result. x10 is the signature ptr, x8 is the link ptr, x7 is a temp reg.
  RVTEST_SIGUPD(x10, x8, x7, x21, I_sra_cg_cmp_rd_rs1_rs2_b21, I_sra_cg_cmp_rd_rs1_rs2_b21_str)
    42a4:	00052383          	lw	x7,0(x10)
    42a8:	01538863          	beq	x7,x21,42b8 <I_sra_cg_cmp_rd_rs1_rs2_b21+0x18>
    42ac:	2280046f          	jal	x8,44d4 <failedtest_x8_x7>
    42b0:	000042a0          	.word	0x000042a0
    42b4:	0000ed7c          	.word	0x0000ed7c
    42b8:	00450513          	addi	x10,x10,4

# Testcase cmp_rd_rs1_rs2 (Test rd = rs1 = rs2 = x22)
  RVTEST_TESTDATA_LOAD_INT(x15, x22) # load rs1: x22 = 0x720fb495
    42bc:	0007ab03          	lw	x22,0(x15)
    42c0:	00478793          	addi	x15,x15,4
  RVTEST_TESTDATA_LOAD_INT(x15, x22) # load rs2: x22 = 0xc35a0753
    42c4:	0007ab03          	lw	x22,0(x15)
    42c8:	00478793          	addi	x15,x15,4

000042cc <I_sra_cg_cmp_rd_rs1_rs2_b22>:
I_sra_cg_cmp_rd_rs1_rs2_b22:
  sra x22, x22, x22 # perform operation
    42cc:	416b5b33          	sra	x22,x22,x22
  # Check if x22 contains the expected result. x10 is the signature ptr, x8 is the link ptr, x7 is a temp reg.
  RVTEST_SIGUPD(x10, x8, x7, x22, I_sra_cg_cmp_rd_rs1_rs2_b22, I_sra_cg_cmp_rd_rs1_rs2_b22_str)
    42d0:	00052383          	lw	x7,0(x10)
    42d4:	01638863          	beq	x7,x22,42e4 <I_sra_cg_cmp_rd_rs1_rs2_b22+0x18>
    42d8:	1fc0046f          	jal	x8,44d4 <failedtest_x8_x7>
    42dc:	000042cc          	.word	0x000042cc
    42e0:	0000edb4          	.word	0x0000edb4
    42e4:	00450513          	addi	x10,x10,4

# Testcase cmp_rd_rs1_rs2 (Test rd = rs1 = rs2 = x23)
  RVTEST_TESTDATA_LOAD_INT(x15, x23) # load rs1: x23 = 0xdd8bd2c8
    42e8:	0007ab83          	lw	x23,0(x15)
    42ec:	00478793          	addi	x15,x15,4
  RVTEST_TESTDATA_LOAD_INT(x15, x23) # load rs2: x23 = 0x81b74219
    42f0:	0007ab83          	lw	x23,0(x15)
    42f4:	00478793          	addi	x15,x15,4

000042f8 <I_sra_cg_cmp_rd_rs1_rs2_b23>:
I_sra_cg_cmp_rd_rs1_rs2_b23:
  sra x23, x23, x23 # perform operation
    42f8:	417bdbb3          	sra	x23,x23,x23
  # Check if x23 contains the expected result. x10 is the signature ptr, x8 is the link ptr, x7 is a temp reg.
  RVTEST_SIGUPD(x10, x8, x7, x23, I_sra_cg_cmp_rd_rs1_rs2_b23, I_sra_cg_cmp_rd_rs1_rs2_b23_str)
    42fc:	00052383          	lw	x7,0(x10)
    4300:	01738863          	beq	x7,x23,4310 <I_sra_cg_cmp_rd_rs1_rs2_b23+0x18>
    4304:	1d00046f          	jal	x8,44d4 <failedtest_x8_x7>
    4308:	000042f8          	.word	0x000042f8
    430c:	0000edec          	.word	0x0000edec
    4310:	00450513          	addi	x10,x10,4

# Testcase cmp_rd_rs1_rs2 (Test rd = rs1 = rs2 = x24)
  RVTEST_TESTDATA_LOAD_INT(x15, x24) # load rs1: x24 = 0x346a13a8
    4314:	0007ac03          	lw	x24,0(x15)
    4318:	00478793          	addi	x15,x15,4
  RVTEST_TESTDATA_LOAD_INT(x15, x24) # load rs2: x24 = 0xbf8da5e4
    431c:	0007ac03          	lw	x24,0(x15)
    4320:	00478793          	addi	x15,x15,4

00004324 <I_sra_cg_cmp_rd_rs1_rs2_b24>:
I_sra_cg_cmp_rd_rs1_rs2_b24:
  sra x24, x24, x24 # perform operation
    4324:	418c5c33          	sra	x24,x24,x24
  # Check if x24 contains the expected result. x10 is the signature ptr, x8 is the link ptr, x7 is a temp reg.
  RVTEST_SIGUPD(x10, x8, x7, x24, I_sra_cg_cmp_rd_rs1_rs2_b24, I_sra_cg_cmp_rd_rs1_rs2_b24_str)
    4328:	00052383          	lw	x7,0(x10)
    432c:	01838863          	beq	x7,x24,433c <I_sra_cg_cmp_rd_rs1_rs2_b24+0x18>
    4330:	1a40046f          	jal	x8,44d4 <failedtest_x8_x7>
    4334:	00004324          	.word	0x00004324
    4338:	0000ee24          	.word	0x0000ee24
    433c:	00450513          	addi	x10,x10,4

# Testcase cmp_rd_rs1_rs2 (Test rd = rs1 = rs2 = x25)
  RVTEST_TESTDATA_LOAD_INT(x15, x25) # load rs1: x25 = 0x3dfbe836
    4340:	0007ac83          	lw	x25,0(x15)
    4344:	00478793          	addi	x15,x15,4
  RVTEST_TESTDATA_LOAD_INT(x15, x25) # load rs2: x25 = 0xefaf111b
    4348:	0007ac83          	lw	x25,0(x15)
    434c:	00478793          	addi	x15,x15,4

00004350 <I_sra_cg_cmp_rd_rs1_rs2_b25>:
I_sra_cg_cmp_rd_rs1_rs2_b25:
  sra x25, x25, x25 # perform operation
    4350:	419cdcb3          	sra	x25,x25,x25
  # Check if x25 contains the expected result. x10 is the signature ptr, x8 is the link ptr, x7 is a temp reg.
  RVTEST_SIGUPD(x10, x8, x7, x25, I_sra_cg_cmp_rd_rs1_rs2_b25, I_sra_cg_cmp_rd_rs1_rs2_b25_str)
    4354:	00052383          	lw	x7,0(x10)
    4358:	01938863          	beq	x7,x25,4368 <I_sra_cg_cmp_rd_rs1_rs2_b25+0x18>
    435c:	1780046f          	jal	x8,44d4 <failedtest_x8_x7>
    4360:	00004350          	.word	0x00004350
    4364:	0000ee5c          	.word	0x0000ee5c
    4368:	00450513          	addi	x10,x10,4

# Testcase cmp_rd_rs1_rs2 (Test rd = rs1 = rs2 = x26)
  RVTEST_TESTDATA_LOAD_INT(x15, x26) # load rs1: x26 = 0x04b1c6f8
    436c:	0007ad03          	lw	x26,0(x15)
    4370:	00478793          	addi	x15,x15,4
  RVTEST_TESTDATA_LOAD_INT(x15, x26) # load rs2: x26 = 0x4c57bdc8
    4374:	0007ad03          	lw	x26,0(x15)
    4378:	00478793          	addi	x15,x15,4

0000437c <I_sra_cg_cmp_rd_rs1_rs2_b26>:
I_sra_cg_cmp_rd_rs1_rs2_b26:
  sra x26, x26, x26 # perform operation
    437c:	41ad5d33          	sra	x26,x26,x26
  # Check if x26 contains the expected result. x10 is the signature ptr, x8 is the link ptr, x7 is a temp reg.
  RVTEST_SIGUPD(x10, x8, x7, x26, I_sra_cg_cmp_rd_rs1_rs2_b26, I_sra_cg_cmp_rd_rs1_rs2_b26_str)
    4380:	00052383          	lw	x7,0(x10)
    4384:	01a38863          	beq	x7,x26,4394 <I_sra_cg_cmp_rd_rs1_rs2_b26+0x18>
    4388:	14c0046f          	jal	x8,44d4 <failedtest_x8_x7>
    438c:	0000437c          	.word	0x0000437c
    4390:	0000ee94          	.word	0x0000ee94
    4394:	00450513          	addi	x10,x10,4

# Testcase cmp_rd_rs1_rs2 (Test rd = rs1 = rs2 = x27)
  RVTEST_TESTDATA_LOAD_INT(x15, x27) # load rs1: x27 = 0xef8db32d
    4398:	0007ad83          	lw	x27,0(x15)
    439c:	00478793          	addi	x15,x15,4
  RVTEST_TESTDATA_LOAD_INT(x15, x27) # load rs2: x27 = 0x59ba84dc
    43a0:	0007ad83          	lw	x27,0(x15)
    43a4:	00478793          	addi	x15,x15,4

000043a8 <I_sra_cg_cmp_rd_rs1_rs2_b27>:
I_sra_cg_cmp_rd_rs1_rs2_b27:
  sra x27, x27, x27 # perform operation
    43a8:	41bdddb3          	sra	x27,x27,x27
  # Check if x27 contains the expected result. x10 is the signature ptr, x8 is the link ptr, x7 is a temp reg.
  RVTEST_SIGUPD(x10, x8, x7, x27, I_sra_cg_cmp_rd_rs1_rs2_b27, I_sra_cg_cmp_rd_rs1_rs2_b27_str)
    43ac:	00052383          	lw	x7,0(x10)
    43b0:	01b38863          	beq	x7,x27,43c0 <I_sra_cg_cmp_rd_rs1_rs2_b27+0x18>
    43b4:	1200046f          	jal	x8,44d4 <failedtest_x8_x7>
    43b8:	000043a8          	.word	0x000043a8
    43bc:	0000eecc          	.word	0x0000eecc
    43c0:	00450513          	addi	x10,x10,4

# Testcase cmp_rd_rs1_rs2 (Test rd = rs1 = rs2 = x28)
  RVTEST_TESTDATA_LOAD_INT(x15, x28) # load rs1: x28 = 0x00c25d44
    43c4:	0007ae03          	lw	x28,0(x15)
    43c8:	00478793          	addi	x15,x15,4
  RVTEST_TESTDATA_LOAD_INT(x15, x28) # load rs2: x28 = 0x3bcfde74
    43cc:	0007ae03          	lw	x28,0(x15)
    43d0:	00478793          	addi	x15,x15,4

000043d4 <I_sra_cg_cmp_rd_rs1_rs2_b28>:
I_sra_cg_cmp_rd_rs1_rs2_b28:
  sra x28, x28, x28 # perform operation
    43d4:	41ce5e33          	sra	x28,x28,x28
  # Check if x28 contains the expected result. x10 is the signature ptr, x8 is the link ptr, x7 is a temp reg.
  RVTEST_SIGUPD(x10, x8, x7, x28, I_sra_cg_cmp_rd_rs1_rs2_b28, I_sra_cg_cmp_rd_rs1_rs2_b28_str)
    43d8:	00052383          	lw	x7,0(x10)
    43dc:	01c38863          	beq	x7,x28,43ec <I_sra_cg_cmp_rd_rs1_rs2_b28+0x18>
    43e0:	0f40046f          	jal	x8,44d4 <failedtest_x8_x7>
    43e4:	000043d4          	.word	0x000043d4
    43e8:	0000ef04          	.word	0x0000ef04
    43ec:	00450513          	addi	x10,x10,4

# Testcase cmp_rd_rs1_rs2 (Test rd = rs1 = rs2 = x29)
  RVTEST_TESTDATA_LOAD_INT(x15, x29) # load rs1: x29 = 0x25c79805
    43f0:	0007ae83          	lw	x29,0(x15)
    43f4:	00478793          	addi	x15,x15,4
  RVTEST_TESTDATA_LOAD_INT(x15, x29) # load rs2: x29 = 0x61760741
    43f8:	0007ae83          	lw	x29,0(x15)
    43fc:	00478793          	addi	x15,x15,4

00004400 <I_sra_cg_cmp_rd_rs1_rs2_b29>:
I_sra_cg_cmp_rd_rs1_rs2_b29:
  sra x29, x29, x29 # perform operation
    4400:	41dedeb3          	sra	x29,x29,x29
  # Check if x29 contains the expected result. x10 is the signature ptr, x8 is the link ptr, x7 is a temp reg.
  RVTEST_SIGUPD(x10, x8, x7, x29, I_sra_cg_cmp_rd_rs1_rs2_b29, I_sra_cg_cmp_rd_rs1_rs2_b29_str)
    4404:	00052383          	lw	x7,0(x10)
    4408:	01d38863          	beq	x7,x29,4418 <I_sra_cg_cmp_rd_rs1_rs2_b29+0x18>
    440c:	0c80046f          	jal	x8,44d4 <failedtest_x8_x7>
    4410:	00004400          	.word	0x00004400
    4414:	0000ef3c          	.word	0x0000ef3c
    4418:	00450513          	addi	x10,x10,4

# Testcase cmp_rd_rs1_rs2 (Test rd = rs1 = rs2 = x30)
  RVTEST_TESTDATA_LOAD_INT(x15, x30) # load rs1: x30 = 0x4add6001
    441c:	0007af03          	lw	x30,0(x15)
    4420:	00478793          	addi	x15,x15,4
  RVTEST_TESTDATA_LOAD_INT(x15, x30) # load rs2: x30 = 0xe0b6db5e
    4424:	0007af03          	lw	x30,0(x15)
    4428:	00478793          	addi	x15,x15,4

0000442c <I_sra_cg_cmp_rd_rs1_rs2_b30>:
I_sra_cg_cmp_rd_rs1_rs2_b30:
  sra x30, x30, x30 # perform operation
    442c:	41ef5f33          	sra	x30,x30,x30
  # Check if x30 contains the expected result. x10 is the signature ptr, x8 is the link ptr, x7 is a temp reg.
  RVTEST_SIGUPD(x10, x8, x7, x30, I_sra_cg_cmp_rd_rs1_rs2_b30, I_sra_cg_cmp_rd_rs1_rs2_b30_str)
    4430:	00052383          	lw	x7,0(x10)
    4434:	01e38863          	beq	x7,x30,4444 <I_sra_cg_cmp_rd_rs1_rs2_b30+0x18>
    4438:	09c0046f          	jal	x8,44d4 <failedtest_x8_x7>
    443c:	0000442c          	.word	0x0000442c
    4440:	0000ef74          	.word	0x0000ef74
    4444:	00450513          	addi	x10,x10,4

# Testcase cmp_rd_rs1_rs2 (Test rd = rs1 = rs2 = x31)
  RVTEST_TESTDATA_LOAD_INT(x15, x31) # load rs1: x31 = 0xf1462188
    4448:	0007af83          	lw	x31,0(x15)
    444c:	00478793          	addi	x15,x15,4
  RVTEST_TESTDATA_LOAD_INT(x15, x31) # load rs2: x31 = 0x53d1a5d4
    4450:	0007af83          	lw	x31,0(x15)
    4454:	00478793          	addi	x15,x15,4

00004458 <I_sra_cg_cmp_rd_rs1_rs2_b31>:
I_sra_cg_cmp_rd_rs1_rs2_b31:
  sra x31, x31, x31 # perform operation
    4458:	41ffdfb3          	sra	x31,x31,x31
  # Check if x31 contains the expected result. x10 is the signature ptr, x8 is the link ptr, x7 is a temp reg.
  RVTEST_SIGUPD(x10, x8, x7, x31, I_sra_cg_cmp_rd_rs1_rs2_b31, I_sra_cg_cmp_rd_rs1_rs2_b31_str)
    445c:	00052383          	lw	x7,0(x10)
    4460:	01f38863          	beq	x7,x31,4470 <I_sra_cg_cmp_rd_rs1_rs2_b31+0x18>
    4464:	0700046f          	jal	x8,44d4 <failedtest_x8_x7>
    4468:	00004458          	.word	0x00004458
    446c:	0000efac          	.word	0x0000efac
    4470:	00450513          	addi	x10,x10,4

  mv x2, x10 # restore signature pointer to default register for teardown
    4474:	00050113          	addi	x2,x10,0

00004478 <cleanup_epilogs>:
    4478:	00000013          	addi	x0,x0,0
    447c:	00000013          	addi	x0,x0,0

// Instantiate trap handlers and other epilog code, call RVMODEL_HALT at end of test
RVTEST_CODE_END
    4480:	0000b517          	auipc	x10,0xb
    4484:	1d450513          	addi	x10,x10,468 # f654 <successstr>
    4488:	00000013          	addi	x0,x0,0
    448c:	00000013          	addi	x0,x0,0
    4490:	00000013          	addi	x0,x0,0
    4494:	00000013          	addi	x0,x0,0
    4498:	00000013          	addi	x0,x0,0
    449c:	00000013          	addi	x0,x0,0
    44a0:	0001c097          	auipc	x1,0x1c
    44a4:	d64080e7          	jalr	x1,-668(x1) # 20204 <rvmodel_io_write_str>
    44a8:	0001c097          	auipc	x1,0x1c
    44ac:	d60080e7          	jalr	x1,-672(x1) # 20208 <rvmodel_halt_pass>

000044b0 <abort_test>:
    44b0:	bad0e737          	lui	x14,0xbad0e
    44b4:	ead70713          	addi	x14,x14,-339 # bad0dead <absimm+0x4b743ba4>
    44b8:	fc1ff06f          	jal	x0,4478 <cleanup_epilogs>

000044bc <failedtest_x5_x4>:
    44bc:	0000b217          	auipc	x4,0xb
    44c0:	b3420213          	addi	x4,x4,-1228 # eff0 <begin_failure_scratch>
    44c4:	02522423          	sw	x5,40(x4) # 28 <MMODE_SIG+0x25>
    44c8:	00122423          	sw	x1,8(x4) # 8 <MMODE_SIG+0x5>
    44cc:	00022023          	sw	x0,0(x4) # 0 <rvtest_entry_point>
    44d0:	0b00006f          	jal	x0,4580 <failedtest_saveregs>

000044d4 <failedtest_x8_x7>:
    44d4:	0000b397          	auipc	x7,0xb
    44d8:	b1c38393          	addi	x7,x7,-1252 # eff0 <begin_failure_scratch>
    44dc:	0483a023          	sw	x8,64(x7)
    44e0:	0243a023          	sw	x4,32(x7)
    44e4:	0253a423          	sw	x5,40(x7)
    44e8:	0013a423          	sw	x1,8(x7)
    44ec:	0003a023          	sw	x0,0(x7)
    44f0:	00038213          	addi	x4,x7,0
    44f4:	00040293          	addi	x5,x8,0
    44f8:	0880006f          	jal	x0,4580 <failedtest_saveregs>

000044fc <failedtest_x14_x13>:
    44fc:	0000b697          	auipc	x13,0xb
    4500:	af468693          	addi	x13,x13,-1292 # eff0 <begin_failure_scratch>
    4504:	06e6a823          	sw	x14,112(x13)
    4508:	0246a023          	sw	x4,32(x13)
    450c:	0256a423          	sw	x5,40(x13)
    4510:	0016a423          	sw	x1,8(x13)
    4514:	0006a023          	sw	x0,0(x13)
    4518:	00068213          	addi	x4,x13,0
    451c:	00070293          	addi	x5,x14,0
    4520:	0600006f          	jal	x0,4580 <failedtest_saveregs>

00004524 <failedtest_trap_x7_x9>:
    4524:	0000b497          	auipc	x9,0xb
    4528:	acc48493          	addi	x9,x9,-1332 # eff0 <begin_failure_scratch>
    452c:	0674a423          	sw	x7,104(x9)
    4530:	0244a023          	sw	x4,32(x9)
    4534:	0254a423          	sw	x5,40(x9)
    4538:	0014a423          	sw	x1,8(x9)
    453c:	00300093          	addi	x1,x0,3
    4540:	0014a023          	sw	x1,0(x9)
    4544:	00048213          	addi	x4,x9,0
    4548:	00038293          	addi	x5,x7,0
    454c:	342020f3          	csrrs	x1,mcause,x0
    4550:	0000b497          	auipc	x9,0xb
    4554:	c1048493          	addi	x9,x9,-1008 # f160 <saved_mcause>
    4558:	0014a023          	sw	x1,0(x9)
    455c:	343020f3          	csrrs	x1,mtval,x0
    4560:	0000b497          	auipc	x9,0xb
    4564:	c0848493          	addi	x9,x9,-1016 # f168 <saved_mtval>
    4568:	0014a023          	sw	x1,0(x9)
    456c:	300020f3          	csrrs	x1,mstatus,x0
    4570:	0000b497          	auipc	x9,0xb
    4574:	c0048493          	addi	x9,x9,-1024 # f170 <saved_mstatus>
    4578:	0014a023          	sw	x1,0(x9)
    457c:	0040006f          	jal	x0,4580 <failedtest_saveregs>

00004580 <failedtest_saveregs>:
    4580:	00222823          	sw	x2,16(x4) # 10 <MMODE_SIG+0xd>
    4584:	00322c23          	sw	x3,24(x4) # 18 <MMODE_SIG+0x15>
    4588:	02622823          	sw	x6,48(x4) # 30 <MMODE_SIG+0x2d>
    458c:	02722c23          	sw	x7,56(x4) # 38 <MMODE_SIG+0x35>
    4590:	04822023          	sw	x8,64(x4) # 40 <rvtest_code_begin>
    4594:	04922423          	sw	x9,72(x4) # 48 <rvtest_code_begin+0x8>
    4598:	04a22823          	sw	x10,80(x4) # 50 <I_sra_cg_cp_rs1_b0>
    459c:	04b22c23          	sw	x11,88(x4) # 58 <I_sra_cg_cp_rs1_b0+0x8>
    45a0:	06c22023          	sw	x12,96(x4) # 60 <I_sra_cg_cp_rs1_b0+0x10>
    45a4:	06d22423          	sw	x13,104(x4) # 68 <I_sra_cg_cp_rs1_b0+0x18>
    45a8:	06e22823          	sw	x14,112(x4) # 70 <I_sra_cg_cp_rs1_b0+0x20>
    45ac:	06f22c23          	sw	x15,120(x4) # 78 <I_sra_cg_cp_rs1_b0+0x28>
    45b0:	09022023          	sw	x16,128(x4) # 80 <I_sra_cg_cp_rs1_b1+0x4>
    45b4:	09122423          	sw	x17,136(x4) # 88 <I_sra_cg_cp_rs1_b1+0xc>
    45b8:	09222823          	sw	x18,144(x4) # 90 <I_sra_cg_cp_rs1_b1+0x14>
    45bc:	09322c23          	sw	x19,152(x4) # 98 <I_sra_cg_cp_rs1_b1+0x1c>
    45c0:	0b422023          	sw	x20,160(x4) # a0 <I_sra_cg_cp_rs1_b1+0x24>
    45c4:	0b522423          	sw	x21,168(x4) # a8 <I_sra_cg_cp_rs1_b1+0x2c>
    45c8:	0b622823          	sw	x22,176(x4) # b0 <I_sra_cg_cp_rs1_b2+0x4>
    45cc:	0b722c23          	sw	x23,184(x4) # b8 <I_sra_cg_cp_rs1_b2+0xc>
    45d0:	0d822023          	sw	x24,192(x4) # c0 <I_sra_cg_cp_rs1_b2+0x14>
    45d4:	0d922423          	sw	x25,200(x4) # c8 <I_sra_cg_cp_rs1_b2+0x1c>
    45d8:	0da22823          	sw	x26,208(x4) # d0 <I_sra_cg_cp_rs1_b2+0x24>
    45dc:	0db22c23          	sw	x27,216(x4) # d8 <I_sra_cg_cp_rs1_b2+0x2c>
    45e0:	0fc22023          	sw	x28,224(x4) # e0 <I_sra_cg_cp_rs1_b3+0x4>
    45e4:	0fd22423          	sw	x29,232(x4) # e8 <I_sra_cg_cp_rs1_b3+0xc>
    45e8:	0fe22823          	sw	x30,240(x4) # f0 <I_sra_cg_cp_rs1_b3+0x14>
    45ec:	0ff22c23          	sw	x31,248(x4) # f8 <I_sra_cg_cp_rs1_b3+0x1c>

000045f0 <failedtest_saveresults>:
    45f0:	0000b497          	auipc	x9,0xb
    45f4:	a004a483          	lw	x9,-1536(x9) # eff0 <begin_failure_scratch>
    45f8:	00300513          	addi	x10,x0,3
    45fc:	06a48863          	beq	x9,x10,466c <failedtest_saveresults_trap>

00004600 <failedtest_saveresults_int>:
    4600:	ffa2d303          	lhu	x6,-6(x5)
    4604:	ff82d383          	lhu	x7,-8(x5)
    4608:	01031313          	slli	x6,x6,0x10
    460c:	00736333          	or	x6,x6,x7
    4610:	00f35393          	srli	x7,x6,0xf
    4614:	01f3f393          	andi	x7,x7,31
    4618:	01435413          	srli	x8,x6,0x14
    461c:	01f47413          	andi	x8,x8,31
    4620:	10822223          	sw	x8,260(x4) # 104 <I_sra_cg_cp_rs1_b3+0x28>
    4624:	00341313          	slli	x6,x8,0x3
    4628:	00620333          	add	x6,x4,x6
    462c:	00032303          	lw	x6,0(x6)
    4630:	10622823          	sw	x6,272(x4) # 110 <I_sra_cg_cp_rs1_b4>
    4634:	ff62d303          	lhu	x6,-10(x5)
    4638:	ff42d383          	lhu	x7,-12(x5)
    463c:	01031313          	slli	x6,x6,0x10
    4640:	00736333          	or	x6,x6,x7
    4644:	41435393          	srai	x7,x6,0x14
    4648:	00f35313          	srli	x6,x6,0xf
    464c:	01f37313          	andi	x6,x6,31
    4650:	00331313          	slli	x6,x6,0x3
    4654:	00620333          	add	x6,x4,x6
    4658:	00032303          	lw	x6,0(x6)
    465c:	00730333          	add	x6,x6,x7
    4660:	00032303          	lw	x6,0(x6)
    4664:	10622c23          	sw	x6,280(x4) # 118 <I_sra_cg_cp_rs1_b4+0x8>
    4668:	3d80006f          	jal	x0,4a40 <failedtest_saveresults_common>

0000466c <failedtest_saveresults_trap>:
    466c:	0042a303          	lw	x6,4(x5)
    4670:	0000b817          	auipc	x16,0xb
    4674:	ad880813          	addi	x16,x16,-1320 # f148 <trap_diag_fail_str_ptr>
    4678:	00682023          	sw	x6,0(x16)
    467c:	0002a303          	lw	x6,0(x5)
    4680:	10622423          	sw	x6,264(x4) # 108 <I_sra_cg_cp_rs1_b3+0x2c>
    4684:	0000b817          	auipc	x16,0xb
    4688:	ac480813          	addi	x16,x16,-1340 # f148 <trap_diag_fail_str_ptr>
    468c:	00082303          	lw	x6,0(x16)
    4690:	0000b397          	auipc	x7,0xb
    4694:	18a38393          	addi	x7,x7,394 # f81a <trap_sig_offset_mismatch>
    4698:	28730463          	beq	x6,x7,4920 <trap_diag_offset_mismatch>
    469c:	00000413          	addi	x8,x0,0
    46a0:	0000b817          	auipc	x16,0xb
    46a4:	a8080813          	addi	x16,x16,-1408 # f120 <trap_diag_subtype>
    46a8:	00882023          	sw	x8,0(x16)
    46ac:	0000b397          	auipc	x7,0xb
    46b0:	1d238393          	addi	x7,x7,466 # f87e <sv_Mvect_str>
    46b4:	00731863          	bne	x6,x7,46c4 <failedtest_saveresults_trap+0x58>
    46b8:	00100413          	addi	x8,x0,1
    46bc:	00000493          	addi	x9,x0,0
    46c0:	2e00006f          	jal	x0,49a0 <trap_diag_field_identified>
    46c4:	0000b397          	auipc	x7,0xb
    46c8:	2bc38393          	addi	x7,x7,700 # f980 <sv_Mcause_str>
    46cc:	00731863          	bne	x6,x7,46dc <failedtest_saveresults_trap+0x70>
    46d0:	00200413          	addi	x8,x0,2
    46d4:	00000493          	addi	x9,x0,0
    46d8:	2c80006f          	jal	x0,49a0 <trap_diag_field_identified>
    46dc:	0000b397          	auipc	x7,0xb
    46e0:	39f38393          	addi	x7,x7,927 # fa7b <sv_Mepc_str>
    46e4:	00731863          	bne	x6,x7,46f4 <failedtest_saveresults_trap+0x88>
    46e8:	00300413          	addi	x8,x0,3
    46ec:	00000493          	addi	x9,x0,0
    46f0:	2b00006f          	jal	x0,49a0 <trap_diag_field_identified>
    46f4:	0000b397          	auipc	x7,0xb
    46f8:	47a38393          	addi	x7,x7,1146 # fb6e <sv_Mtval_str>
    46fc:	00731863          	bne	x6,x7,470c <failedtest_saveresults_trap+0xa0>
    4700:	00400413          	addi	x8,x0,4
    4704:	00000493          	addi	x9,x0,0
    4708:	2980006f          	jal	x0,49a0 <trap_diag_field_identified>
    470c:	0000b397          	auipc	x7,0xb
    4710:	5d538393          	addi	x7,x7,1493 # fce1 <sv_Mip_str>
    4714:	00731863          	bne	x6,x7,4724 <failedtest_saveresults_trap+0xb8>
    4718:	00500413          	addi	x8,x0,5
    471c:	00000493          	addi	x9,x0,0
    4720:	2800006f          	jal	x0,49a0 <trap_diag_field_identified>
    4724:	0000b397          	auipc	x7,0xb
    4728:	54138393          	addi	x7,x7,1345 # fc65 <sv_Mtval2_str>
    472c:	00731863          	bne	x6,x7,473c <failedtest_saveresults_trap+0xd0>
    4730:	00600413          	addi	x8,x0,6
    4734:	00000493          	addi	x9,x0,0
    4738:	2680006f          	jal	x0,49a0 <trap_diag_field_identified>
    473c:	0000b397          	auipc	x7,0xb
    4740:	56738393          	addi	x7,x7,1383 # fca3 <sv_Mtinst_str>
    4744:	00731863          	bne	x6,x7,4754 <failedtest_saveresults_trap+0xe8>
    4748:	00700413          	addi	x8,x0,7
    474c:	00000493          	addi	x9,x0,0
    4750:	2500006f          	jal	x0,49a0 <trap_diag_field_identified>
    4754:	0000b397          	auipc	x7,0xb
    4758:	16a38393          	addi	x7,x7,362 # f8be <sv_Svect_str>
    475c:	00731863          	bne	x6,x7,476c <failedtest_saveresults_trap+0x100>
    4760:	00100413          	addi	x8,x0,1
    4764:	00100493          	addi	x9,x0,1
    4768:	2380006f          	jal	x0,49a0 <trap_diag_field_identified>
    476c:	0000b397          	auipc	x7,0xb
    4770:	25238393          	addi	x7,x7,594 # f9be <sv_Scause_str>
    4774:	00731863          	bne	x6,x7,4784 <failedtest_saveresults_trap+0x118>
    4778:	00200413          	addi	x8,x0,2
    477c:	00100493          	addi	x9,x0,1
    4780:	2200006f          	jal	x0,49a0 <trap_diag_field_identified>
    4784:	0000b397          	auipc	x7,0xb
    4788:	33338393          	addi	x7,x7,819 # fab7 <sv_Sepc_str>
    478c:	00731863          	bne	x6,x7,479c <failedtest_saveresults_trap+0x130>
    4790:	00300413          	addi	x8,x0,3
    4794:	00100493          	addi	x9,x0,1
    4798:	2080006f          	jal	x0,49a0 <trap_diag_field_identified>
    479c:	0000b397          	auipc	x7,0xb
    47a0:	40f38393          	addi	x7,x7,1039 # fbab <sv_Stval_str>
    47a4:	00731863          	bne	x6,x7,47b4 <failedtest_saveresults_trap+0x148>
    47a8:	00400413          	addi	x8,x0,4
    47ac:	00100493          	addi	x9,x0,1
    47b0:	1f00006f          	jal	x0,49a0 <trap_diag_field_identified>
    47b4:	0000b397          	auipc	x7,0xb
    47b8:	56838393          	addi	x7,x7,1384 # fd1c <sv_Sip_str>
    47bc:	00731863          	bne	x6,x7,47cc <failedtest_saveresults_trap+0x160>
    47c0:	00500413          	addi	x8,x0,5
    47c4:	00100493          	addi	x9,x0,1
    47c8:	1d80006f          	jal	x0,49a0 <trap_diag_field_identified>
    47cc:	0000b397          	auipc	x7,0xb
    47d0:	13238393          	addi	x7,x7,306 # f8fe <sv_Hvect_str>
    47d4:	00731863          	bne	x6,x7,47e4 <failedtest_saveresults_trap+0x178>
    47d8:	00100413          	addi	x8,x0,1
    47dc:	00200493          	addi	x9,x0,2
    47e0:	1c00006f          	jal	x0,49a0 <trap_diag_field_identified>
    47e4:	0000b397          	auipc	x7,0xb
    47e8:	21838393          	addi	x7,x7,536 # f9fc <sv_Hcause_str>
    47ec:	00731863          	bne	x6,x7,47fc <failedtest_saveresults_trap+0x190>
    47f0:	00200413          	addi	x8,x0,2
    47f4:	00200493          	addi	x9,x0,2
    47f8:	1a80006f          	jal	x0,49a0 <trap_diag_field_identified>
    47fc:	0000b397          	auipc	x7,0xb
    4800:	2f738393          	addi	x7,x7,759 # faf3 <sv_Hepc_str>
    4804:	00731863          	bne	x6,x7,4814 <failedtest_saveresults_trap+0x1a8>
    4808:	00300413          	addi	x8,x0,3
    480c:	00200493          	addi	x9,x0,2
    4810:	1900006f          	jal	x0,49a0 <trap_diag_field_identified>
    4814:	0000b397          	auipc	x7,0xb
    4818:	3d438393          	addi	x7,x7,980 # fbe8 <sv_Htval_str>
    481c:	00731863          	bne	x6,x7,482c <failedtest_saveresults_trap+0x1c0>
    4820:	00400413          	addi	x8,x0,4
    4824:	00200493          	addi	x9,x0,2
    4828:	1780006f          	jal	x0,49a0 <trap_diag_field_identified>
    482c:	0000b397          	auipc	x7,0xb
    4830:	52b38393          	addi	x7,x7,1323 # fd57 <sv_Hip_str>
    4834:	00731863          	bne	x6,x7,4844 <failedtest_saveresults_trap+0x1d8>
    4838:	00500413          	addi	x8,x0,5
    483c:	00200493          	addi	x9,x0,2
    4840:	1600006f          	jal	x0,49a0 <trap_diag_field_identified>
    4844:	0000b397          	auipc	x7,0xb
    4848:	0fb38393          	addi	x7,x7,251 # f93f <sv_Vvect_str>
    484c:	00731863          	bne	x6,x7,485c <failedtest_saveresults_trap+0x1f0>
    4850:	00100413          	addi	x8,x0,1
    4854:	00300493          	addi	x9,x0,3
    4858:	1480006f          	jal	x0,49a0 <trap_diag_field_identified>
    485c:	0000b397          	auipc	x7,0xb
    4860:	1df38393          	addi	x7,x7,479 # fa3b <sv_Vcause_str>
    4864:	00731863          	bne	x6,x7,4874 <failedtest_saveresults_trap+0x208>
    4868:	00200413          	addi	x8,x0,2
    486c:	00300493          	addi	x9,x0,3
    4870:	1300006f          	jal	x0,49a0 <trap_diag_field_identified>
    4874:	0000b397          	auipc	x7,0xb
    4878:	2bc38393          	addi	x7,x7,700 # fb30 <sv_Vepc_str>
    487c:	00731863          	bne	x6,x7,488c <failedtest_saveresults_trap+0x220>
    4880:	00300413          	addi	x8,x0,3
    4884:	00300493          	addi	x9,x0,3
    4888:	1180006f          	jal	x0,49a0 <trap_diag_field_identified>
    488c:	0000b397          	auipc	x7,0xb
    4890:	39a38393          	addi	x7,x7,922 # fc26 <sv_Vtval_str>
    4894:	00731863          	bne	x6,x7,48a4 <failedtest_saveresults_trap+0x238>
    4898:	00400413          	addi	x8,x0,4
    489c:	00300493          	addi	x9,x0,3
    48a0:	1000006f          	jal	x0,49a0 <trap_diag_field_identified>
    48a4:	0000b397          	auipc	x7,0xb
    48a8:	4ef38393          	addi	x7,x7,1263 # fd93 <sv_Vip_str>
    48ac:	00731863          	bne	x6,x7,48bc <failedtest_saveresults_trap+0x250>
    48b0:	00500413          	addi	x8,x0,5
    48b4:	00300493          	addi	x9,x0,3
    48b8:	0e80006f          	jal	x0,49a0 <trap_diag_field_identified>
    48bc:	0000b397          	auipc	x7,0xb
    48c0:	51438393          	addi	x7,x7,1300 # fdd0 <Mclr_Mext_int_str>
    48c4:	00731863          	bne	x6,x7,48d4 <failedtest_saveresults_trap+0x268>
    48c8:	00800413          	addi	x8,x0,8
    48cc:	00000493          	addi	x9,x0,0
    48d0:	0d00006f          	jal	x0,49a0 <trap_diag_field_identified>
    48d4:	0000b397          	auipc	x7,0xb
    48d8:	54b38393          	addi	x7,x7,1355 # fe1f <Mclr_Sext_int_str>
    48dc:	00731863          	bne	x6,x7,48ec <failedtest_saveresults_trap+0x280>
    48e0:	00800413          	addi	x8,x0,8
    48e4:	00000493          	addi	x9,x0,0
    48e8:	0b80006f          	jal	x0,49a0 <trap_diag_field_identified>
    48ec:	0000b397          	auipc	x7,0xb
    48f0:	62e38393          	addi	x7,x7,1582 # ff1a <Sclr_Sext_int_str>
    48f4:	00731863          	bne	x6,x7,4904 <failedtest_saveresults_trap+0x298>
    48f8:	00800413          	addi	x8,x0,8
    48fc:	00100493          	addi	x9,x0,1
    4900:	0a00006f          	jal	x0,49a0 <trap_diag_field_identified>
    4904:	0000b397          	auipc	x7,0xb
    4908:	71238393          	addi	x7,x7,1810 # 10016 <Hclr_Sext_int_str>
    490c:	00731863          	bne	x6,x7,491c <failedtest_saveresults_trap+0x2b0>
    4910:	00800413          	addi	x8,x0,8
    4914:	00200493          	addi	x9,x0,2
    4918:	0880006f          	jal	x0,49a0 <trap_diag_field_identified>
    491c:	1140006f          	jal	x0,4a30 <trap_diag_generic_report>

00004920 <trap_diag_offset_mismatch>:
    4920:	00900413          	addi	x8,x0,9
    4924:	0000a817          	auipc	x16,0xa
    4928:	7fc80813          	addi	x16,x16,2044 # f120 <trap_diag_subtype>
    492c:	00882023          	sw	x8,0(x16)
    4930:	ffa2d303          	lhu	x6,-6(x5)
    4934:	ff82d383          	lhu	x7,-8(x5)
    4938:	01031313          	slli	x6,x6,0x10
    493c:	00736333          	or	x6,x6,x7
    4940:	01435413          	srli	x8,x6,0x14
    4944:	01f47413          	andi	x8,x8,31
    4948:	00341313          	slli	x6,x8,0x3
    494c:	00620333          	add	x6,x4,x6
    4950:	00032303          	lw	x6,0(x6)
    4954:	0000a817          	auipc	x16,0xa
    4958:	7e480813          	addi	x16,x16,2020 # f138 <trap_diag_actual_offset>
    495c:	00682023          	sw	x6,0(x16)
    4960:	ff62d303          	lhu	x6,-10(x5)
    4964:	ff42d383          	lhu	x7,-12(x5)
    4968:	01031313          	slli	x6,x6,0x10
    496c:	00736333          	or	x6,x6,x7
    4970:	41435393          	srai	x7,x6,0x14
    4974:	00f35313          	srli	x6,x6,0xf
    4978:	01f37313          	andi	x6,x6,31
    497c:	00331313          	slli	x6,x6,0x3
    4980:	00620333          	add	x6,x4,x6
    4984:	00032303          	lw	x6,0(x6)
    4988:	00730333          	add	x6,x6,x7
    498c:	00032303          	lw	x6,0(x6)
    4990:	0000a817          	auipc	x16,0xa
    4994:	7b080813          	addi	x16,x16,1968 # f140 <trap_diag_expected_offset>
    4998:	00682023          	sw	x6,0(x16)
    499c:	0a40006f          	jal	x0,4a40 <failedtest_saveresults_common>

000049a0 <trap_diag_field_identified>:
    49a0:	0000a817          	auipc	x16,0xa
    49a4:	78080813          	addi	x16,x16,1920 # f120 <trap_diag_subtype>
    49a8:	00882023          	sw	x8,0(x16)
    49ac:	0000a817          	auipc	x16,0xa
    49b0:	77880813          	addi	x16,x16,1912 # f124 <trap_diag_mode>
    49b4:	00982023          	sw	x9,0(x16)
    49b8:	ffa2d303          	lhu	x6,-6(x5)
    49bc:	ff82d383          	lhu	x7,-8(x5)
    49c0:	01031313          	slli	x6,x6,0x10
    49c4:	00736333          	or	x6,x6,x7
    49c8:	01435713          	srli	x14,x6,0x14
    49cc:	01f77713          	andi	x14,x14,31
    49d0:	00371313          	slli	x6,x14,0x3
    49d4:	00620333          	add	x6,x4,x6
    49d8:	00032303          	lw	x6,0(x6)
    49dc:	10622823          	sw	x6,272(x4) # 110 <I_sra_cg_cp_rs1_b4>
    49e0:	0000a817          	auipc	x16,0xa
    49e4:	74880813          	addi	x16,x16,1864 # f128 <trap_diag_actual_value>
    49e8:	00682023          	sw	x6,0(x16)
    49ec:	ff62d303          	lhu	x6,-10(x5)
    49f0:	ff42d383          	lhu	x7,-12(x5)
    49f4:	01031313          	slli	x6,x6,0x10
    49f8:	00736333          	or	x6,x6,x7
    49fc:	41435393          	srai	x7,x6,0x14
    4a00:	00f35313          	srli	x6,x6,0xf
    4a04:	01f37313          	andi	x6,x6,31
    4a08:	00331313          	slli	x6,x6,0x3
    4a0c:	00620333          	add	x6,x4,x6
    4a10:	00032303          	lw	x6,0(x6)
    4a14:	00730333          	add	x6,x6,x7
    4a18:	00032303          	lw	x6,0(x6)
    4a1c:	10622c23          	sw	x6,280(x4) # 118 <I_sra_cg_cp_rs1_b4+0x8>
    4a20:	0000a817          	auipc	x16,0xa
    4a24:	71080813          	addi	x16,x16,1808 # f130 <trap_diag_expected_value>
    4a28:	00682023          	sw	x6,0(x16)
    4a2c:	0140006f          	jal	x0,4a40 <failedtest_saveresults_common>

00004a30 <trap_diag_generic_report>:
    4a30:	0000a817          	auipc	x16,0xa
    4a34:	6f080813          	addi	x16,x16,1776 # f120 <trap_diag_subtype>
    4a38:	00082023          	sw	x0,0(x16)
    4a3c:	0040006f          	jal	x0,4a40 <failedtest_saveresults_common>

00004a40 <failedtest_saveresults_common>:
    4a40:	0002a303          	lw	x6,0(x5)
    4a44:	10622423          	sw	x6,264(x4) # 108 <I_sra_cg_cp_rs1_b3+0x2c>
    4a48:	00035383          	lhu	x7,0(x6)
    4a4c:	0033f413          	andi	x8,x7,3
    4a50:	00300493          	addi	x9,x0,3
    4a54:	00941863          	bne	x8,x9,4a64 <failedtest_saveresults_common+0x24>
    4a58:	00235403          	lhu	x8,2(x6)
    4a5c:	01041413          	slli	x8,x8,0x10
    4a60:	0083e3b3          	or	x7,x7,x8
    4a64:	10722023          	sw	x7,256(x4) # 100 <I_sra_cg_cp_rs1_b3+0x24>
    4a68:	0042a303          	lw	x6,4(x5)
    4a6c:	12622023          	sw	x6,288(x4) # 120 <I_sra_cg_cp_rs1_b4+0x10>

00004a70 <failedtest_report>:
    4a70:	00000013          	addi	x0,x0,0
    4a74:	00000013          	addi	x0,x0,0
    4a78:	00000013          	addi	x0,x0,0
    4a7c:	00000013          	addi	x0,x0,0
    4a80:	0000b517          	auipc	x10,0xb
    4a84:	c0a50513          	addi	x10,x10,-1014 # f68a <failstr>
    4a88:	00000013          	addi	x0,x0,0
    4a8c:	00000013          	addi	x0,x0,0
    4a90:	00000013          	addi	x0,x0,0
    4a94:	00000013          	addi	x0,x0,0
    4a98:	00000013          	addi	x0,x0,0
    4a9c:	00000013          	addi	x0,x0,0
    4aa0:	0001b097          	auipc	x1,0x1b
    4aa4:	764080e7          	jalr	x1,1892(x1) # 20204 <rvmodel_io_write_str>

00004aa8 <print_testnamestr>:
    4aa8:	00000013          	addi	x0,x0,0
    4aac:	00000013          	addi	x0,x0,0
    4ab0:	00000013          	addi	x0,x0,0
    4ab4:	00000013          	addi	x0,x0,0
    4ab8:	00000013          	addi	x0,x0,0
    4abc:	00000013          	addi	x0,x0,0
    4ac0:	0000b517          	auipc	x10,0xb
    4ac4:	c5d50513          	addi	x10,x10,-931 # f71d <testnamestr>
    4ac8:	00000013          	addi	x0,x0,0
    4acc:	00000013          	addi	x0,x0,0
    4ad0:	00000013          	addi	x0,x0,0
    4ad4:	00000013          	addi	x0,x0,0
    4ad8:	00000013          	addi	x0,x0,0
    4adc:	00000013          	addi	x0,x0,0
    4ae0:	0001b097          	auipc	x1,0x1b
    4ae4:	724080e7          	jalr	x1,1828(x1) # 20204 <rvmodel_io_write_str>

00004ae8 <print_failure_test_name_str>:
    4ae8:	0000a517          	auipc	x10,0xa
    4aec:	62852503          	lw	x10,1576(x10) # f110 <failure_string_ptr>
    4af0:	0001b097          	auipc	x1,0x1b
    4af4:	714080e7          	jalr	x1,1812(x1) # 20204 <rvmodel_io_write_str>

00004af8 <print_newline_str>:
    4af8:	00000013          	addi	x0,x0,0
    4afc:	00000013          	addi	x0,x0,0
    4b00:	0000b517          	auipc	x10,0xb
    4b04:	c2f50513          	addi	x10,x10,-977 # f72f <newlinestr>
    4b08:	00000013          	addi	x0,x0,0
    4b0c:	00000013          	addi	x0,x0,0
    4b10:	00000013          	addi	x0,x0,0
    4b14:	00000013          	addi	x0,x0,0
    4b18:	00000013          	addi	x0,x0,0
    4b1c:	00000013          	addi	x0,x0,0
    4b20:	0001b097          	auipc	x1,0x1b
    4b24:	6e4080e7          	jalr	x1,1764(x1) # 20204 <rvmodel_io_write_str>
    4b28:	0000a517          	auipc	x10,0xa
    4b2c:	4c852503          	lw	x10,1224(x10) # eff0 <begin_failure_scratch>
    4b30:	00300593          	addi	x11,x0,3
    4b34:	3eb50c63          	beq	x10,x11,4f2c <failedtest_report_trap_detailed>
    4b38:	00000013          	addi	x0,x0,0
    4b3c:	00000013          	addi	x0,x0,0
    4b40:	0000b517          	auipc	x10,0xb
    4b44:	bf150513          	addi	x10,x10,-1039 # f731 <inststr>
    4b48:	00000013          	addi	x0,x0,0
    4b4c:	00000013          	addi	x0,x0,0
    4b50:	00000013          	addi	x0,x0,0
    4b54:	00000013          	addi	x0,x0,0
    4b58:	00000013          	addi	x0,x0,0
    4b5c:	00000013          	addi	x0,x0,0
    4b60:	0001b097          	auipc	x1,0x1b
    4b64:	6a4080e7          	jalr	x1,1700(x1) # 20204 <rvmodel_io_write_str>
    4b68:	0000a517          	auipc	x10,0xa
    4b6c:	58852503          	lw	x10,1416(x10) # f0f0 <failing_instruction>
    4b70:	02000593          	addi	x11,x0,32
    4b74:	00357613          	andi	x12,x10,3
    4b78:	00300693          	addi	x13,x0,3
    4b7c:	00d60463          	beq	x12,x13,4b84 <print_newline_str+0x8c>
    4b80:	01000593          	addi	x11,x0,16
    4b84:	2f4010ef          	jal	x1,5e78 <failedtest_hex_to_str>
    4b88:	00000013          	addi	x0,x0,0
    4b8c:	00000013          	addi	x0,x0,0
    4b90:	00000013          	addi	x0,x0,0
    4b94:	00000013          	addi	x0,x0,0
    4b98:	00000013          	addi	x0,x0,0
    4b9c:	00000013          	addi	x0,x0,0
    4ba0:	0000a517          	auipc	x10,0xa
    4ba4:	5d850513          	addi	x10,x10,1496 # f178 <ascii_buffer>
    4ba8:	00000013          	addi	x0,x0,0
    4bac:	00000013          	addi	x0,x0,0
    4bb0:	00000013          	addi	x0,x0,0
    4bb4:	00000013          	addi	x0,x0,0
    4bb8:	00000013          	addi	x0,x0,0
    4bbc:	00000013          	addi	x0,x0,0
    4bc0:	0001b097          	auipc	x1,0x1b
    4bc4:	644080e7          	jalr	x1,1604(x1) # 20204 <rvmodel_io_write_str>
    4bc8:	00000013          	addi	x0,x0,0
    4bcc:	00000013          	addi	x0,x0,0
    4bd0:	00000013          	addi	x0,x0,0
    4bd4:	00000013          	addi	x0,x0,0
    4bd8:	00000013          	addi	x0,x0,0
    4bdc:	00000013          	addi	x0,x0,0
    4be0:	0000b517          	auipc	x10,0xb
    4be4:	b6550513          	addi	x10,x10,-1179 # f745 <addrstr>
    4be8:	00000013          	addi	x0,x0,0
    4bec:	00000013          	addi	x0,x0,0
    4bf0:	00000013          	addi	x0,x0,0
    4bf4:	00000013          	addi	x0,x0,0
    4bf8:	00000013          	addi	x0,x0,0
    4bfc:	00000013          	addi	x0,x0,0
    4c00:	0001b097          	auipc	x1,0x1b
    4c04:	604080e7          	jalr	x1,1540(x1) # 20204 <rvmodel_io_write_str>
    4c08:	0000a517          	auipc	x10,0xa
    4c0c:	4f052503          	lw	x10,1264(x10) # f0f8 <failing_addr>
    4c10:	02000593          	addi	x11,x0,32
    4c14:	264010ef          	jal	x1,5e78 <failedtest_hex_to_str>
    4c18:	00000013          	addi	x0,x0,0
    4c1c:	00000013          	addi	x0,x0,0
    4c20:	0000a517          	auipc	x10,0xa
    4c24:	55850513          	addi	x10,x10,1368 # f178 <ascii_buffer>
    4c28:	00000013          	addi	x0,x0,0
    4c2c:	00000013          	addi	x0,x0,0
    4c30:	00000013          	addi	x0,x0,0
    4c34:	00000013          	addi	x0,x0,0
    4c38:	00000013          	addi	x0,x0,0
    4c3c:	00000013          	addi	x0,x0,0
    4c40:	0001b097          	auipc	x1,0x1b
    4c44:	5c4080e7          	jalr	x1,1476(x1) # 20204 <rvmodel_io_write_str>
    4c48:	00000013          	addi	x0,x0,0
    4c4c:	00000013          	addi	x0,x0,0
    4c50:	00000013          	addi	x0,x0,0
    4c54:	00000013          	addi	x0,x0,0
    4c58:	00000013          	addi	x0,x0,0
    4c5c:	00000013          	addi	x0,x0,0
    4c60:	0000b517          	auipc	x10,0xb
    4c64:	56250513          	addi	x10,x10,1378 # 101c2 <regstr>
    4c68:	00000013          	addi	x0,x0,0
    4c6c:	00000013          	addi	x0,x0,0
    4c70:	00000013          	addi	x0,x0,0
    4c74:	00000013          	addi	x0,x0,0
    4c78:	00000013          	addi	x0,x0,0
    4c7c:	00000013          	addi	x0,x0,0
    4c80:	0001b097          	auipc	x1,0x1b
    4c84:	584080e7          	jalr	x1,1412(x1) # 20204 <rvmodel_io_write_str>
    4c88:	0000a517          	auipc	x10,0xa
    4c8c:	36852503          	lw	x10,872(x10) # eff0 <begin_failure_scratch>
    4c90:	00050663          	beq	x10,x0,4c9c <print_newline_str+0x1a4>
    4c94:	00300593          	addi	x11,x0,3
    4c98:	04b51063          	bne	x10,x11,4cd8 <failedtest_report_not_intreg>
    4c9c:	07800593          	addi	x11,x0,120
    4ca0:	0000a617          	auipc	x12,0xa
    4ca4:	4d860613          	addi	x12,x12,1240 # f178 <ascii_buffer>
    4ca8:	00000013          	addi	x0,x0,0
    4cac:	00000013          	addi	x0,x0,0
    4cb0:	00000013          	addi	x0,x0,0
    4cb4:	00000013          	addi	x0,x0,0
    4cb8:	00000013          	addi	x0,x0,0
    4cbc:	00000013          	addi	x0,x0,0
    4cc0:	00b60023          	sb	x11,0(x12)
    4cc4:	00160613          	addi	x12,x12,1
    4cc8:	0000a517          	auipc	x10,0xa
    4ccc:	42c52503          	lw	x10,1068(x10) # f0f4 <failing_reg>
    4cd0:	224010ef          	jal	x1,5ef4 <failedtest_dec_to_str>
    4cd4:	0e00006f          	jal	x0,4db4 <failedtest_report_print_regstr>

00004cd8 <failedtest_report_not_intreg>:
    4cd8:	00100593          	addi	x11,x0,1
    4cdc:	04b50863          	beq	x10,x11,4d2c <failedtest_report_fpreg>
    4ce0:	00400593          	addi	x11,x0,4
    4ce4:	08b50a63          	beq	x10,x11,4d78 <failedtest_report_vecreg>
    4ce8:	00000013          	addi	x0,x0,0
    4cec:	00000013          	addi	x0,x0,0
    4cf0:	00000013          	addi	x0,x0,0
    4cf4:	00000013          	addi	x0,x0,0
    4cf8:	00000013          	addi	x0,x0,0
    4cfc:	00000013          	addi	x0,x0,0
    4d00:	0000b517          	auipc	x10,0xb
    4d04:	52250513          	addi	x10,x10,1314 # 10222 <fflagsstr>
    4d08:	00000013          	addi	x0,x0,0
    4d0c:	00000013          	addi	x0,x0,0
    4d10:	00000013          	addi	x0,x0,0
    4d14:	00000013          	addi	x0,x0,0
    4d18:	00000013          	addi	x0,x0,0
    4d1c:	00000013          	addi	x0,x0,0
    4d20:	0001b097          	auipc	x1,0x1b
    4d24:	4e4080e7          	jalr	x1,1252(x1) # 20204 <rvmodel_io_write_str>
    4d28:	0c00006f          	jal	x0,4de8 <failedtest_report_after_reg>

00004d2c <failedtest_report_fpreg>:
    4d2c:	06600593          	addi	x11,x0,102
    4d30:	00000013          	addi	x0,x0,0
    4d34:	00000013          	addi	x0,x0,0
    4d38:	00000013          	addi	x0,x0,0
    4d3c:	00000013          	addi	x0,x0,0
    4d40:	0000a617          	auipc	x12,0xa
    4d44:	43860613          	addi	x12,x12,1080 # f178 <ascii_buffer>
    4d48:	00000013          	addi	x0,x0,0
    4d4c:	00000013          	addi	x0,x0,0
    4d50:	00000013          	addi	x0,x0,0
    4d54:	00000013          	addi	x0,x0,0
    4d58:	00000013          	addi	x0,x0,0
    4d5c:	00000013          	addi	x0,x0,0
    4d60:	00b60023          	sb	x11,0(x12)
    4d64:	00160613          	addi	x12,x12,1
    4d68:	0000a517          	auipc	x10,0xa
    4d6c:	38c52503          	lw	x10,908(x10) # f0f4 <failing_reg>
    4d70:	184010ef          	jal	x1,5ef4 <failedtest_dec_to_str>
    4d74:	0400006f          	jal	x0,4db4 <failedtest_report_print_regstr>

00004d78 <failedtest_report_vecreg>:
    4d78:	07600593          	addi	x11,x0,118
    4d7c:	00000013          	addi	x0,x0,0
    4d80:	0000a617          	auipc	x12,0xa
    4d84:	3f860613          	addi	x12,x12,1016 # f178 <ascii_buffer>
    4d88:	00000013          	addi	x0,x0,0
    4d8c:	00000013          	addi	x0,x0,0
    4d90:	00000013          	addi	x0,x0,0
    4d94:	00000013          	addi	x0,x0,0
    4d98:	00000013          	addi	x0,x0,0
    4d9c:	00000013          	addi	x0,x0,0
    4da0:	00b60023          	sb	x11,0(x12)
    4da4:	00160613          	addi	x12,x12,1
    4da8:	0000a517          	auipc	x10,0xa
    4dac:	34c52503          	lw	x10,844(x10) # f0f4 <failing_reg>
    4db0:	144010ef          	jal	x1,5ef4 <failedtest_dec_to_str>

00004db4 <failedtest_report_print_regstr>:
    4db4:	00000013          	addi	x0,x0,0
    4db8:	00000013          	addi	x0,x0,0
    4dbc:	00000013          	addi	x0,x0,0
    4dc0:	0000a517          	auipc	x10,0xa
    4dc4:	3b850513          	addi	x10,x10,952 # f178 <ascii_buffer>
    4dc8:	00000013          	addi	x0,x0,0
    4dcc:	00000013          	addi	x0,x0,0
    4dd0:	00000013          	addi	x0,x0,0
    4dd4:	00000013          	addi	x0,x0,0
    4dd8:	00000013          	addi	x0,x0,0
    4ddc:	00000013          	addi	x0,x0,0
    4de0:	0001b097          	auipc	x1,0x1b
    4de4:	424080e7          	jalr	x1,1060(x1) # 20204 <rvmodel_io_write_str>

00004de8 <failedtest_report_after_reg>:
    4de8:	00000013          	addi	x0,x0,0
    4dec:	00000013          	addi	x0,x0,0
    4df0:	00000013          	addi	x0,x0,0
    4df4:	00000013          	addi	x0,x0,0
    4df8:	00000013          	addi	x0,x0,0
    4dfc:	00000013          	addi	x0,x0,0
    4e00:	0000b517          	auipc	x10,0xb
    4e04:	3d350513          	addi	x10,x10,979 # 101d3 <badvalstr>
    4e08:	00000013          	addi	x0,x0,0
    4e0c:	00000013          	addi	x0,x0,0
    4e10:	00000013          	addi	x0,x0,0
    4e14:	00000013          	addi	x0,x0,0
    4e18:	00000013          	addi	x0,x0,0
    4e1c:	00000013          	addi	x0,x0,0
    4e20:	0001b097          	auipc	x1,0x1b
    4e24:	3e4080e7          	jalr	x1,996(x1) # 20204 <rvmodel_io_write_str>
    4e28:	0000a517          	auipc	x10,0xa
    4e2c:	1c852503          	lw	x10,456(x10) # eff0 <begin_failure_scratch>
    4e30:	00100593          	addi	x11,x0,1
    4e34:	00b51c63          	bne	x10,x11,4e4c <failedtest_report_badval_not_fp>
    4e38:	0000a517          	auipc	x10,0xa
    4e3c:	2c852503          	lw	x10,712(x10) # f100 <failing_value>
    4e40:	02000593          	addi	x11,x0,32
    4e44:	034010ef          	jal	x1,5e78 <failedtest_hex_to_str>
    4e48:	0140006f          	jal	x0,4e5c <failedtest_report_badval_done>

00004e4c <failedtest_report_badval_not_fp>:
    4e4c:	0000a517          	auipc	x10,0xa
    4e50:	2b452503          	lw	x10,692(x10) # f100 <failing_value>
    4e54:	02000593          	addi	x11,x0,32
    4e58:	020010ef          	jal	x1,5e78 <failedtest_hex_to_str>

00004e5c <failedtest_report_badval_done>:
    4e5c:	00000013          	addi	x0,x0,0
    4e60:	0000a517          	auipc	x10,0xa
    4e64:	31850513          	addi	x10,x10,792 # f178 <ascii_buffer>
    4e68:	00000013          	addi	x0,x0,0
    4e6c:	00000013          	addi	x0,x0,0
    4e70:	00000013          	addi	x0,x0,0
    4e74:	00000013          	addi	x0,x0,0
    4e78:	00000013          	addi	x0,x0,0
    4e7c:	00000013          	addi	x0,x0,0
    4e80:	0001b097          	auipc	x1,0x1b
    4e84:	384080e7          	jalr	x1,900(x1) # 20204 <rvmodel_io_write_str>
    4e88:	00000013          	addi	x0,x0,0
    4e8c:	00000013          	addi	x0,x0,0
    4e90:	00000013          	addi	x0,x0,0
    4e94:	00000013          	addi	x0,x0,0
    4e98:	00000013          	addi	x0,x0,0
    4e9c:	00000013          	addi	x0,x0,0
    4ea0:	0000b517          	auipc	x10,0xb
    4ea4:	34a50513          	addi	x10,x10,842 # 101ea <expvalstr>
    4ea8:	00000013          	addi	x0,x0,0
    4eac:	00000013          	addi	x0,x0,0
    4eb0:	00000013          	addi	x0,x0,0
    4eb4:	00000013          	addi	x0,x0,0
    4eb8:	00000013          	addi	x0,x0,0
    4ebc:	00000013          	addi	x0,x0,0
    4ec0:	0001b097          	auipc	x1,0x1b
    4ec4:	344080e7          	jalr	x1,836(x1) # 20204 <rvmodel_io_write_str>
    4ec8:	0000a517          	auipc	x10,0xa
    4ecc:	12852503          	lw	x10,296(x10) # eff0 <begin_failure_scratch>
    4ed0:	00100593          	addi	x11,x0,1
    4ed4:	00b51c63          	bne	x10,x11,4eec <failedtest_report_expval_not_fp>
    4ed8:	0000a517          	auipc	x10,0xa
    4edc:	23052503          	lw	x10,560(x10) # f108 <expected_value>
    4ee0:	02000593          	addi	x11,x0,32
    4ee4:	795000ef          	jal	x1,5e78 <failedtest_hex_to_str>
    4ee8:	0140006f          	jal	x0,4efc <failedtest_report_expval_done>

00004eec <failedtest_report_expval_not_fp>:
    4eec:	0000a517          	auipc	x10,0xa
    4ef0:	21c52503          	lw	x10,540(x10) # f108 <expected_value>
    4ef4:	02000593          	addi	x11,x0,32
    4ef8:	781000ef          	jal	x1,5e78 <failedtest_hex_to_str>

00004efc <failedtest_report_expval_done>:
    4efc:	00000013          	addi	x0,x0,0
    4f00:	0000a517          	auipc	x10,0xa
    4f04:	27850513          	addi	x10,x10,632 # f178 <ascii_buffer>
    4f08:	00000013          	addi	x0,x0,0
    4f0c:	00000013          	addi	x0,x0,0
    4f10:	00000013          	addi	x0,x0,0
    4f14:	00000013          	addi	x0,x0,0
    4f18:	00000013          	addi	x0,x0,0
    4f1c:	00000013          	addi	x0,x0,0
    4f20:	0001b097          	auipc	x1,0x1b
    4f24:	2e4080e7          	jalr	x1,740(x1) # 20204 <rvmodel_io_write_str>
    4f28:	4fd0006f          	jal	x0,5c24 <failedtest_report_end>

00004f2c <failedtest_report_trap_detailed>:
    4f2c:	00000013          	addi	x0,x0,0
    4f30:	00000013          	addi	x0,x0,0
    4f34:	00000013          	addi	x0,x0,0
    4f38:	00000013          	addi	x0,x0,0
    4f3c:	00000013          	addi	x0,x0,0
    4f40:	0000b517          	auipc	x10,0xb
    4f44:	30e50513          	addi	x10,x10,782 # 1024e <trap_diag_header_str>
    4f48:	00000013          	addi	x0,x0,0
    4f4c:	00000013          	addi	x0,x0,0
    4f50:	00000013          	addi	x0,x0,0
    4f54:	00000013          	addi	x0,x0,0
    4f58:	00000013          	addi	x0,x0,0
    4f5c:	00000013          	addi	x0,x0,0
    4f60:	0001b097          	auipc	x1,0x1b
    4f64:	2a4080e7          	jalr	x1,676(x1) # 20204 <rvmodel_io_write_str>
    4f68:	00000013          	addi	x0,x0,0
    4f6c:	00000013          	addi	x0,x0,0
    4f70:	00000013          	addi	x0,x0,0
    4f74:	00000013          	addi	x0,x0,0
    4f78:	00000013          	addi	x0,x0,0
    4f7c:	00000013          	addi	x0,x0,0
    4f80:	0000b517          	auipc	x10,0xb
    4f84:	2fa50513          	addi	x10,x10,762 # 1027a <trap_diag_origstr_label>
    4f88:	00000013          	addi	x0,x0,0
    4f8c:	00000013          	addi	x0,x0,0
    4f90:	00000013          	addi	x0,x0,0
    4f94:	00000013          	addi	x0,x0,0
    4f98:	00000013          	addi	x0,x0,0
    4f9c:	00000013          	addi	x0,x0,0
    4fa0:	0001b097          	auipc	x1,0x1b
    4fa4:	264080e7          	jalr	x1,612(x1) # 20204 <rvmodel_io_write_str>
    4fa8:	0000a817          	auipc	x16,0xa
    4fac:	1a080813          	addi	x16,x16,416 # f148 <trap_diag_fail_str_ptr>
    4fb0:	00082503          	lw	x10,0(x16)
    4fb4:	0001b097          	auipc	x1,0x1b
    4fb8:	250080e7          	jalr	x1,592(x1) # 20204 <rvmodel_io_write_str>
    4fbc:	00000013          	addi	x0,x0,0
    4fc0:	0000a517          	auipc	x10,0xa
    4fc4:	76f50513          	addi	x10,x10,1903 # f72f <newlinestr>
    4fc8:	00000013          	addi	x0,x0,0
    4fcc:	00000013          	addi	x0,x0,0
    4fd0:	00000013          	addi	x0,x0,0
    4fd4:	00000013          	addi	x0,x0,0
    4fd8:	00000013          	addi	x0,x0,0
    4fdc:	00000013          	addi	x0,x0,0
    4fe0:	0001b097          	auipc	x1,0x1b
    4fe4:	224080e7          	jalr	x1,548(x1) # 20204 <rvmodel_io_write_str>
    4fe8:	0000a417          	auipc	x8,0xa
    4fec:	13842403          	lw	x8,312(x8) # f120 <trap_diag_subtype>
    4ff0:	00900493          	addi	x9,x0,9
    4ff4:	00940663          	beq	x8,x9,5000 <trap_report_offset_mismatch>
    4ff8:	2a040ce3          	beq	x8,x0,5ab0 <trap_report_generic>
    4ffc:	3780006f          	jal	x0,5374 <trap_report_field_mismatch>

00005000 <trap_report_offset_mismatch>:
    5000:	0000b517          	auipc	x10,0xb
    5004:	28a50513          	addi	x10,x10,650 # 1028a <trap_diag_count_mismatch_str>
    5008:	00000013          	addi	x0,x0,0
    500c:	00000013          	addi	x0,x0,0
    5010:	00000013          	addi	x0,x0,0
    5014:	00000013          	addi	x0,x0,0
    5018:	00000013          	addi	x0,x0,0
    501c:	00000013          	addi	x0,x0,0
    5020:	0001b097          	auipc	x1,0x1b
    5024:	1e4080e7          	jalr	x1,484(x1) # 20204 <rvmodel_io_write_str>
    5028:	00000013          	addi	x0,x0,0
    502c:	00000013          	addi	x0,x0,0
    5030:	00000013          	addi	x0,x0,0
    5034:	00000013          	addi	x0,x0,0
    5038:	00000013          	addi	x0,x0,0
    503c:	00000013          	addi	x0,x0,0
    5040:	0000b517          	auipc	x10,0xb
    5044:	2ab50513          	addi	x10,x10,683 # 102eb <trap_diag_expected_offset_str>
    5048:	00000013          	addi	x0,x0,0
    504c:	00000013          	addi	x0,x0,0
    5050:	00000013          	addi	x0,x0,0
    5054:	00000013          	addi	x0,x0,0
    5058:	00000013          	addi	x0,x0,0
    505c:	00000013          	addi	x0,x0,0
    5060:	0001b097          	auipc	x1,0x1b
    5064:	1a4080e7          	jalr	x1,420(x1) # 20204 <rvmodel_io_write_str>
    5068:	0000a517          	auipc	x10,0xa
    506c:	0d852503          	lw	x10,216(x10) # f140 <trap_diag_expected_offset>
    5070:	02000593          	addi	x11,x0,32
    5074:	605000ef          	jal	x1,5e78 <failedtest_hex_to_str>
    5078:	00000013          	addi	x0,x0,0
    507c:	00000013          	addi	x0,x0,0
    5080:	0000a517          	auipc	x10,0xa
    5084:	0f850513          	addi	x10,x10,248 # f178 <ascii_buffer>
    5088:	00000013          	addi	x0,x0,0
    508c:	00000013          	addi	x0,x0,0
    5090:	00000013          	addi	x0,x0,0
    5094:	00000013          	addi	x0,x0,0
    5098:	00000013          	addi	x0,x0,0
    509c:	00000013          	addi	x0,x0,0
    50a0:	0001b097          	auipc	x1,0x1b
    50a4:	164080e7          	jalr	x1,356(x1) # 20204 <rvmodel_io_write_str>
    50a8:	00000013          	addi	x0,x0,0
    50ac:	00000013          	addi	x0,x0,0
    50b0:	00000013          	addi	x0,x0,0
    50b4:	00000013          	addi	x0,x0,0
    50b8:	00000013          	addi	x0,x0,0
    50bc:	00000013          	addi	x0,x0,0
    50c0:	0000b517          	auipc	x10,0xb
    50c4:	25250513          	addi	x10,x10,594 # 10312 <trap_diag_actual_offset_str>
    50c8:	00000013          	addi	x0,x0,0
    50cc:	00000013          	addi	x0,x0,0
    50d0:	00000013          	addi	x0,x0,0
    50d4:	00000013          	addi	x0,x0,0
    50d8:	00000013          	addi	x0,x0,0
    50dc:	00000013          	addi	x0,x0,0
    50e0:	0001b097          	auipc	x1,0x1b
    50e4:	124080e7          	jalr	x1,292(x1) # 20204 <rvmodel_io_write_str>
    50e8:	0000a517          	auipc	x10,0xa
    50ec:	05052503          	lw	x10,80(x10) # f138 <trap_diag_actual_offset>
    50f0:	02000593          	addi	x11,x0,32
    50f4:	585000ef          	jal	x1,5e78 <failedtest_hex_to_str>
    50f8:	00000013          	addi	x0,x0,0
    50fc:	00000013          	addi	x0,x0,0
    5100:	0000a517          	auipc	x10,0xa
    5104:	07850513          	addi	x10,x10,120 # f178 <ascii_buffer>
    5108:	00000013          	addi	x0,x0,0
    510c:	00000013          	addi	x0,x0,0
    5110:	00000013          	addi	x0,x0,0
    5114:	00000013          	addi	x0,x0,0
    5118:	00000013          	addi	x0,x0,0
    511c:	00000013          	addi	x0,x0,0
    5120:	0001b097          	auipc	x1,0x1b
    5124:	0e4080e7          	jalr	x1,228(x1) # 20204 <rvmodel_io_write_str>
    5128:	0000a317          	auipc	x6,0xa
    512c:	01032303          	lw	x6,16(x6) # f138 <trap_diag_actual_offset>
    5130:	0000a397          	auipc	x7,0xa
    5134:	0103a383          	lw	x7,16(x7) # f140 <trap_diag_expected_offset>
    5138:	10734e63          	blt	x6,x7,5254 <trap_report_missing_traps>

0000513c <trap_report_extra_traps>:
    513c:	00000013          	addi	x0,x0,0
    5140:	0000b517          	auipc	x10,0xb
    5144:	1f950513          	addi	x10,x10,505 # 10339 <trap_diag_extra_traps_str>
    5148:	00000013          	addi	x0,x0,0
    514c:	00000013          	addi	x0,x0,0
    5150:	00000013          	addi	x0,x0,0
    5154:	00000013          	addi	x0,x0,0
    5158:	00000013          	addi	x0,x0,0
    515c:	00000013          	addi	x0,x0,0
    5160:	0001b097          	auipc	x1,0x1b
    5164:	0a4080e7          	jalr	x1,164(x1) # 20204 <rvmodel_io_write_str>
    5168:	0000a317          	auipc	x6,0xa
    516c:	fd032303          	lw	x6,-48(x6) # f138 <trap_diag_actual_offset>
    5170:	0000a397          	auipc	x7,0xa
    5174:	fd03a383          	lw	x7,-48(x7) # f140 <trap_diag_expected_offset>
    5178:	40730333          	sub	x6,x6,x7
    517c:	00235313          	srli	x6,x6,0x2
    5180:	0000b517          	auipc	x10,0xb
    5184:	23e50513          	addi	x10,x10,574 # 103be <trap_diag_extra_bytes_str>
    5188:	00000013          	addi	x0,x0,0
    518c:	00000013          	addi	x0,x0,0
    5190:	00000013          	addi	x0,x0,0
    5194:	00000013          	addi	x0,x0,0
    5198:	00000013          	addi	x0,x0,0
    519c:	00000013          	addi	x0,x0,0
    51a0:	0001b097          	auipc	x1,0x1b
    51a4:	064080e7          	jalr	x1,100(x1) # 20204 <rvmodel_io_write_str>
    51a8:	0000a317          	auipc	x6,0xa
    51ac:	f9032303          	lw	x6,-112(x6) # f138 <trap_diag_actual_offset>
    51b0:	0000a397          	auipc	x7,0xa
    51b4:	f903a383          	lw	x7,-112(x7) # f140 <trap_diag_expected_offset>
    51b8:	40730533          	sub	x10,x6,x7
    51bc:	02000593          	addi	x11,x0,32
    51c0:	4b9000ef          	jal	x1,5e78 <failedtest_hex_to_str>
    51c4:	00000013          	addi	x0,x0,0
    51c8:	00000013          	addi	x0,x0,0
    51cc:	00000013          	addi	x0,x0,0
    51d0:	00000013          	addi	x0,x0,0
    51d4:	00000013          	addi	x0,x0,0
    51d8:	00000013          	addi	x0,x0,0
    51dc:	00000013          	addi	x0,x0,0
    51e0:	0000a517          	auipc	x10,0xa
    51e4:	f9850513          	addi	x10,x10,-104 # f178 <ascii_buffer>
    51e8:	00000013          	addi	x0,x0,0
    51ec:	00000013          	addi	x0,x0,0
    51f0:	00000013          	addi	x0,x0,0
    51f4:	00000013          	addi	x0,x0,0
    51f8:	00000013          	addi	x0,x0,0
    51fc:	00000013          	addi	x0,x0,0
    5200:	0001b097          	auipc	x1,0x1b
    5204:	004080e7          	jalr	x1,4(x1) # 20204 <rvmodel_io_write_str>
    5208:	00000013          	addi	x0,x0,0
    520c:	00000013          	addi	x0,x0,0
    5210:	00000013          	addi	x0,x0,0
    5214:	00000013          	addi	x0,x0,0
    5218:	00000013          	addi	x0,x0,0
    521c:	00000013          	addi	x0,x0,0
    5220:	0000b517          	auipc	x10,0xb
    5224:	1c950513          	addi	x10,x10,457 # 103e9 <trap_diag_extra_hint_str>
    5228:	00000013          	addi	x0,x0,0
    522c:	00000013          	addi	x0,x0,0
    5230:	00000013          	addi	x0,x0,0
    5234:	00000013          	addi	x0,x0,0
    5238:	00000013          	addi	x0,x0,0
    523c:	00000013          	addi	x0,x0,0
    5240:	0001b097          	auipc	x1,0x1b
    5244:	fc4080e7          	jalr	x1,-60(x1) # 20204 <rvmodel_io_write_str>
    5248:	00001097          	auipc	x1,0x1
    524c:	a28080e7          	jalr	x1,-1496(x1) # 5c70 <failedtest_print_csr_context>
    5250:	1d50006f          	jal	x0,5c24 <failedtest_report_end>

00005254 <trap_report_missing_traps>:
    5254:	00000013          	addi	x0,x0,0
    5258:	00000013          	addi	x0,x0,0
    525c:	00000013          	addi	x0,x0,0
    5260:	0000b517          	auipc	x10,0xb
    5264:	11350513          	addi	x10,x10,275 # 10373 <trap_diag_missing_traps_str>
    5268:	00000013          	addi	x0,x0,0
    526c:	00000013          	addi	x0,x0,0
    5270:	00000013          	addi	x0,x0,0
    5274:	00000013          	addi	x0,x0,0
    5278:	00000013          	addi	x0,x0,0
    527c:	00000013          	addi	x0,x0,0
    5280:	0001b097          	auipc	x1,0x1b
    5284:	f84080e7          	jalr	x1,-124(x1) # 20204 <rvmodel_io_write_str>
    5288:	00000013          	addi	x0,x0,0
    528c:	00000013          	addi	x0,x0,0
    5290:	00000013          	addi	x0,x0,0
    5294:	00000013          	addi	x0,x0,0
    5298:	00000013          	addi	x0,x0,0
    529c:	00000013          	addi	x0,x0,0
    52a0:	0000b517          	auipc	x10,0xb
    52a4:	11e50513          	addi	x10,x10,286 # 103be <trap_diag_extra_bytes_str>
    52a8:	00000013          	addi	x0,x0,0
    52ac:	00000013          	addi	x0,x0,0
    52b0:	00000013          	addi	x0,x0,0
    52b4:	00000013          	addi	x0,x0,0
    52b8:	00000013          	addi	x0,x0,0
    52bc:	00000013          	addi	x0,x0,0
    52c0:	0001b097          	auipc	x1,0x1b
    52c4:	f44080e7          	jalr	x1,-188(x1) # 20204 <rvmodel_io_write_str>
    52c8:	0000a317          	auipc	x6,0xa
    52cc:	e7832303          	lw	x6,-392(x6) # f140 <trap_diag_expected_offset>
    52d0:	0000a397          	auipc	x7,0xa
    52d4:	e683a383          	lw	x7,-408(x7) # f138 <trap_diag_actual_offset>
    52d8:	40730533          	sub	x10,x6,x7
    52dc:	02000593          	addi	x11,x0,32
    52e0:	399000ef          	jal	x1,5e78 <failedtest_hex_to_str>
    52e4:	00000013          	addi	x0,x0,0
    52e8:	00000013          	addi	x0,x0,0
    52ec:	00000013          	addi	x0,x0,0
    52f0:	00000013          	addi	x0,x0,0
    52f4:	00000013          	addi	x0,x0,0
    52f8:	00000013          	addi	x0,x0,0
    52fc:	00000013          	addi	x0,x0,0
    5300:	0000a517          	auipc	x10,0xa
    5304:	e7850513          	addi	x10,x10,-392 # f178 <ascii_buffer>
    5308:	00000013          	addi	x0,x0,0
    530c:	00000013          	addi	x0,x0,0
    5310:	00000013          	addi	x0,x0,0
    5314:	00000013          	addi	x0,x0,0
    5318:	00000013          	addi	x0,x0,0
    531c:	00000013          	addi	x0,x0,0
    5320:	0001b097          	auipc	x1,0x1b
    5324:	ee4080e7          	jalr	x1,-284(x1) # 20204 <rvmodel_io_write_str>
    5328:	00000013          	addi	x0,x0,0
    532c:	00000013          	addi	x0,x0,0
    5330:	00000013          	addi	x0,x0,0
    5334:	00000013          	addi	x0,x0,0
    5338:	00000013          	addi	x0,x0,0
    533c:	00000013          	addi	x0,x0,0
    5340:	0000b517          	auipc	x10,0xb
    5344:	19150513          	addi	x10,x10,401 # 104d1 <trap_diag_missing_hint_str>
    5348:	00000013          	addi	x0,x0,0
    534c:	00000013          	addi	x0,x0,0
    5350:	00000013          	addi	x0,x0,0
    5354:	00000013          	addi	x0,x0,0
    5358:	00000013          	addi	x0,x0,0
    535c:	00000013          	addi	x0,x0,0
    5360:	0001b097          	auipc	x1,0x1b
    5364:	ea4080e7          	jalr	x1,-348(x1) # 20204 <rvmodel_io_write_str>
    5368:	00001097          	auipc	x1,0x1
    536c:	908080e7          	jalr	x1,-1784(x1) # 5c70 <failedtest_print_csr_context>
    5370:	0b50006f          	jal	x0,5c24 <failedtest_report_end>

00005374 <trap_report_field_mismatch>:
    5374:	00000013          	addi	x0,x0,0
    5378:	00000013          	addi	x0,x0,0
    537c:	00000013          	addi	x0,x0,0
    5380:	0000b517          	auipc	x10,0xb
    5384:	23850513          	addi	x10,x10,568 # 105b8 <trap_diag_handler_mode_str>
    5388:	00000013          	addi	x0,x0,0
    538c:	00000013          	addi	x0,x0,0
    5390:	00000013          	addi	x0,x0,0
    5394:	00000013          	addi	x0,x0,0
    5398:	00000013          	addi	x0,x0,0
    539c:	00000013          	addi	x0,x0,0
    53a0:	0001b097          	auipc	x1,0x1b
    53a4:	e64080e7          	jalr	x1,-412(x1) # 20204 <rvmodel_io_write_str>
    53a8:	0000a517          	auipc	x10,0xa
    53ac:	d7c52503          	lw	x10,-644(x10) # f124 <trap_diag_mode>
    53b0:	04050a63          	beq	x10,x0,5404 <trap_mode_m>
    53b4:	00100593          	addi	x11,x0,1
    53b8:	08b50663          	beq	x10,x11,5444 <trap_mode_s>
    53bc:	00200593          	addi	x11,x0,2
    53c0:	0cb50263          	beq	x10,x11,5484 <trap_mode_h>
    53c4:	00300593          	addi	x11,x0,3
    53c8:	0eb50e63          	beq	x10,x11,54c4 <trap_mode_v>
    53cc:	00000013          	addi	x0,x0,0
    53d0:	00000013          	addi	x0,x0,0
    53d4:	00000013          	addi	x0,x0,0
    53d8:	00000013          	addi	x0,x0,0
    53dc:	00000013          	addi	x0,x0,0
    53e0:	0000b517          	auipc	x10,0xb
    53e4:	21450513          	addi	x10,x10,532 # 105f4 <trap_diag_mode_unknown_str>
    53e8:	00000013          	addi	x0,x0,0
    53ec:	00000013          	addi	x0,x0,0
    53f0:	00000013          	addi	x0,x0,0
    53f4:	00000013          	addi	x0,x0,0
    53f8:	00000013          	addi	x0,x0,0
    53fc:	00000013          	addi	x0,x0,0
    5400:	1000006f          	jal	x0,5500 <trap_mode_print>

00005404 <trap_mode_m>:
    5404:	00000013          	addi	x0,x0,0
    5408:	00000013          	addi	x0,x0,0
    540c:	00000013          	addi	x0,x0,0
    5410:	00000013          	addi	x0,x0,0
    5414:	00000013          	addi	x0,x0,0
    5418:	00000013          	addi	x0,x0,0
    541c:	00000013          	addi	x0,x0,0
    5420:	0000b517          	auipc	x10,0xb
    5424:	1b250513          	addi	x10,x10,434 # 105d2 <trap_diag_mode_m_str>
    5428:	00000013          	addi	x0,x0,0
    542c:	00000013          	addi	x0,x0,0
    5430:	00000013          	addi	x0,x0,0
    5434:	00000013          	addi	x0,x0,0
    5438:	00000013          	addi	x0,x0,0
    543c:	00000013          	addi	x0,x0,0
    5440:	0c00006f          	jal	x0,5500 <trap_mode_print>

00005444 <trap_mode_s>:
    5444:	00000013          	addi	x0,x0,0
    5448:	00000013          	addi	x0,x0,0
    544c:	00000013          	addi	x0,x0,0
    5450:	00000013          	addi	x0,x0,0
    5454:	00000013          	addi	x0,x0,0
    5458:	00000013          	addi	x0,x0,0
    545c:	00000013          	addi	x0,x0,0
    5460:	0000b517          	auipc	x10,0xb
    5464:	17a50513          	addi	x10,x10,378 # 105da <trap_diag_mode_s_str>
    5468:	00000013          	addi	x0,x0,0
    546c:	00000013          	addi	x0,x0,0
    5470:	00000013          	addi	x0,x0,0
    5474:	00000013          	addi	x0,x0,0
    5478:	00000013          	addi	x0,x0,0
    547c:	00000013          	addi	x0,x0,0
    5480:	0800006f          	jal	x0,5500 <trap_mode_print>

00005484 <trap_mode_h>:
    5484:	00000013          	addi	x0,x0,0
    5488:	00000013          	addi	x0,x0,0
    548c:	00000013          	addi	x0,x0,0
    5490:	00000013          	addi	x0,x0,0
    5494:	00000013          	addi	x0,x0,0
    5498:	00000013          	addi	x0,x0,0
    549c:	00000013          	addi	x0,x0,0
    54a0:	0000b517          	auipc	x10,0xb
    54a4:	14250513          	addi	x10,x10,322 # 105e2 <trap_diag_mode_hs_str>
    54a8:	00000013          	addi	x0,x0,0
    54ac:	00000013          	addi	x0,x0,0
    54b0:	00000013          	addi	x0,x0,0
    54b4:	00000013          	addi	x0,x0,0
    54b8:	00000013          	addi	x0,x0,0
    54bc:	00000013          	addi	x0,x0,0
    54c0:	0400006f          	jal	x0,5500 <trap_mode_print>

000054c4 <trap_mode_v>:
    54c4:	00000013          	addi	x0,x0,0
    54c8:	00000013          	addi	x0,x0,0
    54cc:	00000013          	addi	x0,x0,0
    54d0:	00000013          	addi	x0,x0,0
    54d4:	00000013          	addi	x0,x0,0
    54d8:	00000013          	addi	x0,x0,0
    54dc:	00000013          	addi	x0,x0,0
    54e0:	0000b517          	auipc	x10,0xb
    54e4:	10b50513          	addi	x10,x10,267 # 105eb <trap_diag_mode_vs_str>
    54e8:	00000013          	addi	x0,x0,0
    54ec:	00000013          	addi	x0,x0,0
    54f0:	00000013          	addi	x0,x0,0
    54f4:	00000013          	addi	x0,x0,0
    54f8:	00000013          	addi	x0,x0,0
    54fc:	00000013          	addi	x0,x0,0

00005500 <trap_mode_print>:
    5500:	0001b097          	auipc	x1,0x1b
    5504:	d04080e7          	jalr	x1,-764(x1) # 20204 <rvmodel_io_write_str>
    5508:	00000013          	addi	x0,x0,0
    550c:	00000013          	addi	x0,x0,0
    5510:	00000013          	addi	x0,x0,0
    5514:	00000013          	addi	x0,x0,0
    5518:	00000013          	addi	x0,x0,0
    551c:	00000013          	addi	x0,x0,0
    5520:	0000b517          	auipc	x10,0xb
    5524:	0dd50513          	addi	x10,x10,221 # 105fd <trap_diag_field_str>
    5528:	00000013          	addi	x0,x0,0
    552c:	00000013          	addi	x0,x0,0
    5530:	00000013          	addi	x0,x0,0
    5534:	00000013          	addi	x0,x0,0
    5538:	00000013          	addi	x0,x0,0
    553c:	00000013          	addi	x0,x0,0
    5540:	0001b097          	auipc	x1,0x1b
    5544:	cc4080e7          	jalr	x1,-828(x1) # 20204 <rvmodel_io_write_str>
    5548:	0000a517          	auipc	x10,0xa
    554c:	bd852503          	lw	x10,-1064(x10) # f120 <trap_diag_subtype>
    5550:	00100593          	addi	x11,x0,1
    5554:	06b50863          	beq	x10,x11,55c4 <trap_field_vect>
    5558:	00200593          	addi	x11,x0,2
    555c:	0ab50463          	beq	x10,x11,5604 <trap_field_cause>
    5560:	00300593          	addi	x11,x0,3
    5564:	0eb50063          	beq	x10,x11,5644 <trap_field_epc>
    5568:	00400593          	addi	x11,x0,4
    556c:	10b50c63          	beq	x10,x11,5684 <trap_field_tval>
    5570:	00500593          	addi	x11,x0,5
    5574:	14b50863          	beq	x10,x11,56c4 <trap_field_ip>
    5578:	00600593          	addi	x11,x0,6
    557c:	18b50463          	beq	x10,x11,5704 <trap_field_tval2>
    5580:	00700593          	addi	x11,x0,7
    5584:	1cb50063          	beq	x10,x11,5744 <trap_field_tinst>
    5588:	00800593          	addi	x11,x0,8
    558c:	1eb50c63          	beq	x10,x11,5784 <trap_field_intid>
    5590:	00000013          	addi	x0,x0,0
    5594:	00000013          	addi	x0,x0,0
    5598:	00000013          	addi	x0,x0,0
    559c:	00000013          	addi	x0,x0,0
    55a0:	0000b517          	auipc	x10,0xb
    55a4:	1b450513          	addi	x10,x10,436 # 10754 <trap_diag_field_unknown_str>
    55a8:	00000013          	addi	x0,x0,0
    55ac:	00000013          	addi	x0,x0,0
    55b0:	00000013          	addi	x0,x0,0
    55b4:	00000013          	addi	x0,x0,0
    55b8:	00000013          	addi	x0,x0,0
    55bc:	00000013          	addi	x0,x0,0
    55c0:	2000006f          	jal	x0,57c0 <trap_field_print>

000055c4 <trap_field_vect>:
    55c4:	00000013          	addi	x0,x0,0
    55c8:	00000013          	addi	x0,x0,0
    55cc:	00000013          	addi	x0,x0,0
    55d0:	00000013          	addi	x0,x0,0
    55d4:	00000013          	addi	x0,x0,0
    55d8:	00000013          	addi	x0,x0,0
    55dc:	00000013          	addi	x0,x0,0
    55e0:	0000b517          	auipc	x10,0xb
    55e4:	03750513          	addi	x10,x10,55 # 10617 <trap_diag_field_vect_str>
    55e8:	00000013          	addi	x0,x0,0
    55ec:	00000013          	addi	x0,x0,0
    55f0:	00000013          	addi	x0,x0,0
    55f4:	00000013          	addi	x0,x0,0
    55f8:	00000013          	addi	x0,x0,0
    55fc:	00000013          	addi	x0,x0,0
    5600:	1c00006f          	jal	x0,57c0 <trap_field_print>

00005604 <trap_field_cause>:
    5604:	00000013          	addi	x0,x0,0
    5608:	00000013          	addi	x0,x0,0
    560c:	00000013          	addi	x0,x0,0
    5610:	00000013          	addi	x0,x0,0
    5614:	00000013          	addi	x0,x0,0
    5618:	00000013          	addi	x0,x0,0
    561c:	00000013          	addi	x0,x0,0
    5620:	0000b517          	auipc	x10,0xb
    5624:	02850513          	addi	x10,x10,40 # 10648 <trap_diag_field_cause_str>
    5628:	00000013          	addi	x0,x0,0
    562c:	00000013          	addi	x0,x0,0
    5630:	00000013          	addi	x0,x0,0
    5634:	00000013          	addi	x0,x0,0
    5638:	00000013          	addi	x0,x0,0
    563c:	00000013          	addi	x0,x0,0
    5640:	1800006f          	jal	x0,57c0 <trap_field_print>

00005644 <trap_field_epc>:
    5644:	00000013          	addi	x0,x0,0
    5648:	00000013          	addi	x0,x0,0
    564c:	00000013          	addi	x0,x0,0
    5650:	00000013          	addi	x0,x0,0
    5654:	00000013          	addi	x0,x0,0
    5658:	00000013          	addi	x0,x0,0
    565c:	00000013          	addi	x0,x0,0
    5660:	0000b517          	auipc	x10,0xb
    5664:	00850513          	addi	x10,x10,8 # 10668 <trap_diag_field_epc_str>
    5668:	00000013          	addi	x0,x0,0
    566c:	00000013          	addi	x0,x0,0
    5670:	00000013          	addi	x0,x0,0
    5674:	00000013          	addi	x0,x0,0
    5678:	00000013          	addi	x0,x0,0
    567c:	00000013          	addi	x0,x0,0
    5680:	1400006f          	jal	x0,57c0 <trap_field_print>

00005684 <trap_field_tval>:
    5684:	00000013          	addi	x0,x0,0
    5688:	00000013          	addi	x0,x0,0
    568c:	00000013          	addi	x0,x0,0
    5690:	00000013          	addi	x0,x0,0
    5694:	00000013          	addi	x0,x0,0
    5698:	00000013          	addi	x0,x0,0
    569c:	00000013          	addi	x0,x0,0
    56a0:	0000b517          	auipc	x10,0xb
    56a4:	fe650513          	addi	x10,x10,-26 # 10686 <trap_diag_field_tval_str>
    56a8:	00000013          	addi	x0,x0,0
    56ac:	00000013          	addi	x0,x0,0
    56b0:	00000013          	addi	x0,x0,0
    56b4:	00000013          	addi	x0,x0,0
    56b8:	00000013          	addi	x0,x0,0
    56bc:	00000013          	addi	x0,x0,0
    56c0:	1000006f          	jal	x0,57c0 <trap_field_print>

000056c4 <trap_field_ip>:
    56c4:	00000013          	addi	x0,x0,0
    56c8:	00000013          	addi	x0,x0,0
    56cc:	00000013          	addi	x0,x0,0
    56d0:	00000013          	addi	x0,x0,0
    56d4:	00000013          	addi	x0,x0,0
    56d8:	00000013          	addi	x0,x0,0
    56dc:	00000013          	addi	x0,x0,0
    56e0:	0000b517          	auipc	x10,0xb
    56e4:	fc550513          	addi	x10,x10,-59 # 106a5 <trap_diag_field_ip_str>
    56e8:	00000013          	addi	x0,x0,0
    56ec:	00000013          	addi	x0,x0,0
    56f0:	00000013          	addi	x0,x0,0
    56f4:	00000013          	addi	x0,x0,0
    56f8:	00000013          	addi	x0,x0,0
    56fc:	00000013          	addi	x0,x0,0
    5700:	0c00006f          	jal	x0,57c0 <trap_field_print>

00005704 <trap_field_tval2>:
    5704:	00000013          	addi	x0,x0,0
    5708:	00000013          	addi	x0,x0,0
    570c:	00000013          	addi	x0,x0,0
    5710:	00000013          	addi	x0,x0,0
    5714:	00000013          	addi	x0,x0,0
    5718:	00000013          	addi	x0,x0,0
    571c:	00000013          	addi	x0,x0,0
    5720:	0000b517          	auipc	x10,0xb
    5724:	fad50513          	addi	x10,x10,-83 # 106cd <trap_diag_field_tval2_str>
    5728:	00000013          	addi	x0,x0,0
    572c:	00000013          	addi	x0,x0,0
    5730:	00000013          	addi	x0,x0,0
    5734:	00000013          	addi	x0,x0,0
    5738:	00000013          	addi	x0,x0,0
    573c:	00000013          	addi	x0,x0,0
    5740:	0800006f          	jal	x0,57c0 <trap_field_print>

00005744 <trap_field_tinst>:
    5744:	00000013          	addi	x0,x0,0
    5748:	00000013          	addi	x0,x0,0
    574c:	00000013          	addi	x0,x0,0
    5750:	00000013          	addi	x0,x0,0
    5754:	00000013          	addi	x0,x0,0
    5758:	00000013          	addi	x0,x0,0
    575c:	00000013          	addi	x0,x0,0
    5760:	0000b517          	auipc	x10,0xb
    5764:	f9950513          	addi	x10,x10,-103 # 106f9 <trap_diag_field_tinst_str>
    5768:	00000013          	addi	x0,x0,0
    576c:	00000013          	addi	x0,x0,0
    5770:	00000013          	addi	x0,x0,0
    5774:	00000013          	addi	x0,x0,0
    5778:	00000013          	addi	x0,x0,0
    577c:	00000013          	addi	x0,x0,0
    5780:	0400006f          	jal	x0,57c0 <trap_field_print>

00005784 <trap_field_intid>:
    5784:	00000013          	addi	x0,x0,0
    5788:	00000013          	addi	x0,x0,0
    578c:	00000013          	addi	x0,x0,0
    5790:	00000013          	addi	x0,x0,0
    5794:	00000013          	addi	x0,x0,0
    5798:	00000013          	addi	x0,x0,0
    579c:	00000013          	addi	x0,x0,0
    57a0:	0000b517          	auipc	x10,0xb
    57a4:	f8550513          	addi	x10,x10,-123 # 10725 <trap_diag_field_intid_str>
    57a8:	00000013          	addi	x0,x0,0
    57ac:	00000013          	addi	x0,x0,0
    57b0:	00000013          	addi	x0,x0,0
    57b4:	00000013          	addi	x0,x0,0
    57b8:	00000013          	addi	x0,x0,0
    57bc:	00000013          	addi	x0,x0,0

000057c0 <trap_field_print>:
    57c0:	0001b097          	auipc	x1,0x1b
    57c4:	a44080e7          	jalr	x1,-1468(x1) # 20204 <rvmodel_io_write_str>
    57c8:	00000013          	addi	x0,x0,0
    57cc:	00000013          	addi	x0,x0,0
    57d0:	00000013          	addi	x0,x0,0
    57d4:	00000013          	addi	x0,x0,0
    57d8:	00000013          	addi	x0,x0,0
    57dc:	00000013          	addi	x0,x0,0
    57e0:	0000b517          	auipc	x10,0xb
    57e4:	f8350513          	addi	x10,x10,-125 # 10763 <trap_diag_expected_str>
    57e8:	00000013          	addi	x0,x0,0
    57ec:	00000013          	addi	x0,x0,0
    57f0:	00000013          	addi	x0,x0,0
    57f4:	00000013          	addi	x0,x0,0
    57f8:	00000013          	addi	x0,x0,0
    57fc:	00000013          	addi	x0,x0,0
    5800:	0001b097          	auipc	x1,0x1b
    5804:	a04080e7          	jalr	x1,-1532(x1) # 20204 <rvmodel_io_write_str>
    5808:	0000a517          	auipc	x10,0xa
    580c:	92852503          	lw	x10,-1752(x10) # f130 <trap_diag_expected_value>
    5810:	02000593          	addi	x11,x0,32
    5814:	664000ef          	jal	x1,5e78 <failedtest_hex_to_str>
    5818:	00000013          	addi	x0,x0,0
    581c:	00000013          	addi	x0,x0,0
    5820:	0000a517          	auipc	x10,0xa
    5824:	95850513          	addi	x10,x10,-1704 # f178 <ascii_buffer>
    5828:	00000013          	addi	x0,x0,0
    582c:	00000013          	addi	x0,x0,0
    5830:	00000013          	addi	x0,x0,0
    5834:	00000013          	addi	x0,x0,0
    5838:	00000013          	addi	x0,x0,0
    583c:	00000013          	addi	x0,x0,0
    5840:	0001b097          	auipc	x1,0x1b
    5844:	9c4080e7          	jalr	x1,-1596(x1) # 20204 <rvmodel_io_write_str>
    5848:	00000013          	addi	x0,x0,0
    584c:	00000013          	addi	x0,x0,0
    5850:	00000013          	addi	x0,x0,0
    5854:	00000013          	addi	x0,x0,0
    5858:	00000013          	addi	x0,x0,0
    585c:	00000013          	addi	x0,x0,0
    5860:	0000b517          	auipc	x10,0xb
    5864:	f1a50513          	addi	x10,x10,-230 # 1077a <trap_diag_actual_str>
    5868:	00000013          	addi	x0,x0,0
    586c:	00000013          	addi	x0,x0,0
    5870:	00000013          	addi	x0,x0,0
    5874:	00000013          	addi	x0,x0,0
    5878:	00000013          	addi	x0,x0,0
    587c:	00000013          	addi	x0,x0,0
    5880:	0001b097          	auipc	x1,0x1b
    5884:	984080e7          	jalr	x1,-1660(x1) # 20204 <rvmodel_io_write_str>
    5888:	0000a517          	auipc	x10,0xa
    588c:	8a052503          	lw	x10,-1888(x10) # f128 <trap_diag_actual_value>
    5890:	02000593          	addi	x11,x0,32
    5894:	5e4000ef          	jal	x1,5e78 <failedtest_hex_to_str>
    5898:	00000013          	addi	x0,x0,0
    589c:	00000013          	addi	x0,x0,0
    58a0:	0000a517          	auipc	x10,0xa
    58a4:	8d850513          	addi	x10,x10,-1832 # f178 <ascii_buffer>
    58a8:	00000013          	addi	x0,x0,0
    58ac:	00000013          	addi	x0,x0,0
    58b0:	00000013          	addi	x0,x0,0
    58b4:	00000013          	addi	x0,x0,0
    58b8:	00000013          	addi	x0,x0,0
    58bc:	00000013          	addi	x0,x0,0
    58c0:	0001b097          	auipc	x1,0x1b
    58c4:	944080e7          	jalr	x1,-1724(x1) # 20204 <rvmodel_io_write_str>
    58c8:	0000a517          	auipc	x10,0xa
    58cc:	85852503          	lw	x10,-1960(x10) # f120 <trap_diag_subtype>
    58d0:	00200593          	addi	x11,x0,2
    58d4:	08b51463          	bne	x10,x11,595c <trap_field_not_cause>
    58d8:	00000013          	addi	x0,x0,0
    58dc:	00000013          	addi	x0,x0,0
    58e0:	0000b517          	auipc	x10,0xb
    58e4:	eb150513          	addi	x10,x10,-335 # 10791 <trap_diag_expected_cause_name_str>
    58e8:	00000013          	addi	x0,x0,0
    58ec:	00000013          	addi	x0,x0,0
    58f0:	00000013          	addi	x0,x0,0
    58f4:	00000013          	addi	x0,x0,0
    58f8:	00000013          	addi	x0,x0,0
    58fc:	00000013          	addi	x0,x0,0
    5900:	0001b097          	auipc	x1,0x1b
    5904:	904080e7          	jalr	x1,-1788(x1) # 20204 <rvmodel_io_write_str>
    5908:	0000a517          	auipc	x10,0xa
    590c:	82852503          	lw	x10,-2008(x10) # f130 <trap_diag_expected_value>
    5910:	284000ef          	jal	x1,5b94 <trap_cause_to_str>
    5914:	0001b097          	auipc	x1,0x1b
    5918:	8f0080e7          	jalr	x1,-1808(x1) # 20204 <rvmodel_io_write_str>
    591c:	00000013          	addi	x0,x0,0
    5920:	0000b517          	auipc	x10,0xb
    5924:	e8850513          	addi	x10,x10,-376 # 107a8 <trap_diag_actual_cause_name_str>
    5928:	00000013          	addi	x0,x0,0
    592c:	00000013          	addi	x0,x0,0
    5930:	00000013          	addi	x0,x0,0
    5934:	00000013          	addi	x0,x0,0
    5938:	00000013          	addi	x0,x0,0
    593c:	00000013          	addi	x0,x0,0
    5940:	0001b097          	auipc	x1,0x1b
    5944:	8c4080e7          	jalr	x1,-1852(x1) # 20204 <rvmodel_io_write_str>
    5948:	00009517          	auipc	x10,0x9
    594c:	7e052503          	lw	x10,2016(x10) # f128 <trap_diag_actual_value>
    5950:	244000ef          	jal	x1,5b94 <trap_cause_to_str>
    5954:	0001b097          	auipc	x1,0x1b
    5958:	8b0080e7          	jalr	x1,-1872(x1) # 20204 <rvmodel_io_write_str>

0000595c <trap_field_not_cause>:
    595c:	00000097          	auipc	x1,0x0
    5960:	314080e7          	jalr	x1,788(x1) # 5c70 <failedtest_print_csr_context>
    5964:	00009517          	auipc	x10,0x9
    5968:	7bc52503          	lw	x10,1980(x10) # f120 <trap_diag_subtype>
    596c:	00100593          	addi	x11,x0,1
    5970:	02b51e63          	bne	x10,x11,59ac <trap_field_not_cause+0x50>
    5974:	00000013          	addi	x0,x0,0
    5978:	00000013          	addi	x0,x0,0
    597c:	00000013          	addi	x0,x0,0
    5980:	0000b517          	auipc	x10,0xb
    5984:	e9e50513          	addi	x10,x10,-354 # 1081e <trap_diag_hint_vect_str>
    5988:	00000013          	addi	x0,x0,0
    598c:	00000013          	addi	x0,x0,0
    5990:	00000013          	addi	x0,x0,0
    5994:	00000013          	addi	x0,x0,0
    5998:	00000013          	addi	x0,x0,0
    599c:	00000013          	addi	x0,x0,0
    59a0:	0001b097          	auipc	x1,0x1b
    59a4:	864080e7          	jalr	x1,-1948(x1) # 20204 <rvmodel_io_write_str>
    59a8:	27c0006f          	jal	x0,5c24 <failedtest_report_end>
    59ac:	00200593          	addi	x11,x0,2
    59b0:	02b51e63          	bne	x10,x11,59ec <trap_field_not_cause+0x90>
    59b4:	00000013          	addi	x0,x0,0
    59b8:	00000013          	addi	x0,x0,0
    59bc:	00000013          	addi	x0,x0,0
    59c0:	0000b517          	auipc	x10,0xb
    59c4:	f3450513          	addi	x10,x10,-204 # 108f4 <trap_diag_hint_cause_str>
    59c8:	00000013          	addi	x0,x0,0
    59cc:	00000013          	addi	x0,x0,0
    59d0:	00000013          	addi	x0,x0,0
    59d4:	00000013          	addi	x0,x0,0
    59d8:	00000013          	addi	x0,x0,0
    59dc:	00000013          	addi	x0,x0,0
    59e0:	0001b097          	auipc	x1,0x1b
    59e4:	824080e7          	jalr	x1,-2012(x1) # 20204 <rvmodel_io_write_str>
    59e8:	23c0006f          	jal	x0,5c24 <failedtest_report_end>
    59ec:	00300593          	addi	x11,x0,3
    59f0:	02b51e63          	bne	x10,x11,5a2c <trap_field_not_cause+0xd0>
    59f4:	00000013          	addi	x0,x0,0
    59f8:	00000013          	addi	x0,x0,0
    59fc:	00000013          	addi	x0,x0,0
    5a00:	0000b517          	auipc	x10,0xb
    5a04:	fe750513          	addi	x10,x10,-25 # 109e7 <trap_diag_hint_epc_str>
    5a08:	00000013          	addi	x0,x0,0
    5a0c:	00000013          	addi	x0,x0,0
    5a10:	00000013          	addi	x0,x0,0
    5a14:	00000013          	addi	x0,x0,0
    5a18:	00000013          	addi	x0,x0,0
    5a1c:	00000013          	addi	x0,x0,0
    5a20:	0001a097          	auipc	x1,0x1a
    5a24:	7e4080e7          	jalr	x1,2020(x1) # 20204 <rvmodel_io_write_str>
    5a28:	1fc0006f          	jal	x0,5c24 <failedtest_report_end>
    5a2c:	00400593          	addi	x11,x0,4
    5a30:	02b51e63          	bne	x10,x11,5a6c <trap_field_not_cause+0x110>
    5a34:	00000013          	addi	x0,x0,0
    5a38:	00000013          	addi	x0,x0,0
    5a3c:	00000013          	addi	x0,x0,0
    5a40:	0000b517          	auipc	x10,0xb
    5a44:	0a250513          	addi	x10,x10,162 # 10ae2 <trap_diag_hint_tval_str>
    5a48:	00000013          	addi	x0,x0,0
    5a4c:	00000013          	addi	x0,x0,0
    5a50:	00000013          	addi	x0,x0,0
    5a54:	00000013          	addi	x0,x0,0
    5a58:	00000013          	addi	x0,x0,0
    5a5c:	00000013          	addi	x0,x0,0
    5a60:	0001a097          	auipc	x1,0x1a
    5a64:	7a4080e7          	jalr	x1,1956(x1) # 20204 <rvmodel_io_write_str>
    5a68:	1bc0006f          	jal	x0,5c24 <failedtest_report_end>
    5a6c:	00500593          	addi	x11,x0,5
    5a70:	02b51e63          	bne	x10,x11,5aac <trap_field_not_cause+0x150>
    5a74:	00000013          	addi	x0,x0,0
    5a78:	00000013          	addi	x0,x0,0
    5a7c:	00000013          	addi	x0,x0,0
    5a80:	0000b517          	auipc	x10,0xb
    5a84:	14950513          	addi	x10,x10,329 # 10bc9 <trap_diag_hint_ip_str>
    5a88:	00000013          	addi	x0,x0,0
    5a8c:	00000013          	addi	x0,x0,0
    5a90:	00000013          	addi	x0,x0,0
    5a94:	00000013          	addi	x0,x0,0
    5a98:	00000013          	addi	x0,x0,0
    5a9c:	00000013          	addi	x0,x0,0
    5aa0:	0001a097          	auipc	x1,0x1a
    5aa4:	764080e7          	jalr	x1,1892(x1) # 20204 <rvmodel_io_write_str>
    5aa8:	17c0006f          	jal	x0,5c24 <failedtest_report_end>
    5aac:	1780006f          	jal	x0,5c24 <failedtest_report_end>

00005ab0 <trap_report_generic>:
    5ab0:	00000013          	addi	x0,x0,0
    5ab4:	00000013          	addi	x0,x0,0
    5ab8:	00000013          	addi	x0,x0,0
    5abc:	00000013          	addi	x0,x0,0
    5ac0:	0000b517          	auipc	x10,0xb
    5ac4:	d1650513          	addi	x10,x10,-746 # 107d6 <trap_diag_generic_str>
    5ac8:	00000013          	addi	x0,x0,0
    5acc:	00000013          	addi	x0,x0,0
    5ad0:	00000013          	addi	x0,x0,0
    5ad4:	00000013          	addi	x0,x0,0
    5ad8:	00000013          	addi	x0,x0,0
    5adc:	00000013          	addi	x0,x0,0
    5ae0:	0001a097          	auipc	x1,0x1a
    5ae4:	724080e7          	jalr	x1,1828(x1) # 20204 <rvmodel_io_write_str>
    5ae8:	00009617          	auipc	x12,0x9
    5aec:	67062603          	lw	x12,1648(x12) # f158 <saved_mepc>
    5af0:	00000013          	addi	x0,x0,0
    5af4:	00000013          	addi	x0,x0,0
    5af8:	00000013          	addi	x0,x0,0
    5afc:	00000013          	addi	x0,x0,0
    5b00:	0000a517          	auipc	x10,0xa
    5b04:	cb950513          	addi	x10,x10,-839 # f7b9 <xepcinstrstr>
    5b08:	00000013          	addi	x0,x0,0
    5b0c:	00000013          	addi	x0,x0,0
    5b10:	00000013          	addi	x0,x0,0
    5b14:	00000013          	addi	x0,x0,0
    5b18:	00000013          	addi	x0,x0,0
    5b1c:	00000013          	addi	x0,x0,0
    5b20:	0001a097          	auipc	x1,0x1a
    5b24:	6e4080e7          	jalr	x1,1764(x1) # 20204 <rvmodel_io_write_str>
    5b28:	00065503          	lhu	x10,0(x12)
    5b2c:	01000593          	addi	x11,x0,16
    5b30:	00357413          	andi	x8,x10,3
    5b34:	00300493          	addi	x9,x0,3
    5b38:	00941a63          	bne	x8,x9,5b4c <trap_report_generic+0x9c>
    5b3c:	00265403          	lhu	x8,2(x12)
    5b40:	01041413          	slli	x8,x8,0x10
    5b44:	00856533          	or	x10,x10,x8
    5b48:	02000593          	addi	x11,x0,32
    5b4c:	32c000ef          	jal	x1,5e78 <failedtest_hex_to_str>
    5b50:	00000013          	addi	x0,x0,0
    5b54:	00000013          	addi	x0,x0,0
    5b58:	00000013          	addi	x0,x0,0
    5b5c:	00000013          	addi	x0,x0,0
    5b60:	00009517          	auipc	x10,0x9
    5b64:	61850513          	addi	x10,x10,1560 # f178 <ascii_buffer>
    5b68:	00000013          	addi	x0,x0,0
    5b6c:	00000013          	addi	x0,x0,0
    5b70:	00000013          	addi	x0,x0,0
    5b74:	00000013          	addi	x0,x0,0
    5b78:	00000013          	addi	x0,x0,0
    5b7c:	00000013          	addi	x0,x0,0
    5b80:	0001a097          	auipc	x1,0x1a
    5b84:	684080e7          	jalr	x1,1668(x1) # 20204 <rvmodel_io_write_str>
    5b88:	00000097          	auipc	x1,0x0
    5b8c:	0e8080e7          	jalr	x1,232(x1) # 5c70 <failedtest_print_csr_context>
    5b90:	0940006f          	jal	x0,5c24 <failedtest_report_end>

00005b94 <trap_cause_to_str>:
    5b94:	02054263          	blt	x10,x0,5bb8 <trap_cause_interrupt>

00005b98 <trap_cause_exception>:
    5b98:	01800593          	addi	x11,x0,24
    5b9c:	04b55463          	bge	x10,x11,5be4 <trap_cause_unknown>
    5ba0:	00009597          	auipc	x11,0x9
    5ba4:	60058593          	addi	x11,x11,1536 # f1a0 <end_failure_scratch>
    5ba8:	00251613          	slli	x12,x10,0x2
    5bac:	00c585b3          	add	x11,x11,x12
    5bb0:	0005a503          	lw	x10,0(x11)
    5bb4:	00008067          	jalr	x0,0(x1)

00005bb8 <trap_cause_interrupt>:
    5bb8:	00100593          	addi	x11,x0,1
    5bbc:	01f59593          	slli	x11,x11,0x1f
    5bc0:	00b54533          	xor	x10,x10,x11
    5bc4:	01000593          	addi	x11,x0,16
    5bc8:	00b55e63          	bge	x10,x11,5be4 <trap_cause_unknown>
    5bcc:	00009597          	auipc	x11,0x9
    5bd0:	63458593          	addi	x11,x11,1588 # f200 <trap_int_name_tbl>
    5bd4:	00251613          	slli	x12,x10,0x2
    5bd8:	00c585b3          	add	x11,x11,x12
    5bdc:	0005a503          	lw	x10,0(x11)
    5be0:	00008067          	jalr	x0,0(x1)

00005be4 <trap_cause_unknown>:
    5be4:	00000013          	addi	x0,x0,0
    5be8:	00000013          	addi	x0,x0,0
    5bec:	00000013          	addi	x0,x0,0
    5bf0:	00000013          	addi	x0,x0,0
    5bf4:	00000013          	addi	x0,x0,0
    5bf8:	00000013          	addi	x0,x0,0
    5bfc:	00000013          	addi	x0,x0,0
    5c00:	0000a517          	auipc	x10,0xa
    5c04:	a3e50513          	addi	x10,x10,-1474 # f63e <trap_cause_unknown_str>
    5c08:	00000013          	addi	x0,x0,0
    5c0c:	00000013          	addi	x0,x0,0
    5c10:	00000013          	addi	x0,x0,0
    5c14:	00000013          	addi	x0,x0,0
    5c18:	00000013          	addi	x0,x0,0
    5c1c:	00000013          	addi	x0,x0,0
    5c20:	00008067          	jalr	x0,0(x1)

00005c24 <failedtest_report_end>:
    5c24:	00000013          	addi	x0,x0,0
    5c28:	00000013          	addi	x0,x0,0
    5c2c:	00000013          	addi	x0,x0,0
    5c30:	00000013          	addi	x0,x0,0
    5c34:	00000013          	addi	x0,x0,0
    5c38:	00000013          	addi	x0,x0,0
    5c3c:	00000013          	addi	x0,x0,0
    5c40:	0000a517          	auipc	x10,0xa
    5c44:	5c150513          	addi	x10,x10,1473 # 10201 <endstr>
    5c48:	00000013          	addi	x0,x0,0
    5c4c:	00000013          	addi	x0,x0,0
    5c50:	00000013          	addi	x0,x0,0
    5c54:	00000013          	addi	x0,x0,0
    5c58:	00000013          	addi	x0,x0,0
    5c5c:	00000013          	addi	x0,x0,0
    5c60:	0001a097          	auipc	x1,0x1a
    5c64:	5a4080e7          	jalr	x1,1444(x1) # 20204 <rvmodel_io_write_str>

00005c68 <failedtest_terminate>:
    5c68:	0001a097          	auipc	x1,0x1a
    5c6c:	5ac080e7          	jalr	x1,1452(x1) # 20214 <rvmodel_halt_fail>

00005c70 <failedtest_print_csr_context>:
    5c70:	00009617          	auipc	x12,0x9
    5c74:	4e060613          	addi	x12,x12,1248 # f150 <csr_context_ret_addr>
    5c78:	00162023          	sw	x1,0(x12)
    5c7c:	00000013          	addi	x0,x0,0
    5c80:	0000a517          	auipc	x10,0xa
    5c84:	b5a50513          	addi	x10,x10,-1190 # f7da <mepcstr>
    5c88:	00000013          	addi	x0,x0,0
    5c8c:	00000013          	addi	x0,x0,0
    5c90:	00000013          	addi	x0,x0,0
    5c94:	00000013          	addi	x0,x0,0
    5c98:	00000013          	addi	x0,x0,0
    5c9c:	00000013          	addi	x0,x0,0
    5ca0:	0001a097          	auipc	x1,0x1a
    5ca4:	564080e7          	jalr	x1,1380(x1) # 20204 <rvmodel_io_write_str>
    5ca8:	00009517          	auipc	x10,0x9
    5cac:	4b052503          	lw	x10,1200(x10) # f158 <saved_mepc>
    5cb0:	02000593          	addi	x11,x0,32
    5cb4:	1c4000ef          	jal	x1,5e78 <failedtest_hex_to_str>
    5cb8:	00000013          	addi	x0,x0,0
    5cbc:	00000013          	addi	x0,x0,0
    5cc0:	00009517          	auipc	x10,0x9
    5cc4:	4b850513          	addi	x10,x10,1208 # f178 <ascii_buffer>
    5cc8:	00000013          	addi	x0,x0,0
    5ccc:	00000013          	addi	x0,x0,0
    5cd0:	00000013          	addi	x0,x0,0
    5cd4:	00000013          	addi	x0,x0,0
    5cd8:	00000013          	addi	x0,x0,0
    5cdc:	00000013          	addi	x0,x0,0
    5ce0:	0001a097          	auipc	x1,0x1a
    5ce4:	524080e7          	jalr	x1,1316(x1) # 20204 <rvmodel_io_write_str>
    5ce8:	00000013          	addi	x0,x0,0
    5cec:	00000013          	addi	x0,x0,0
    5cf0:	00000013          	addi	x0,x0,0
    5cf4:	00000013          	addi	x0,x0,0
    5cf8:	00000013          	addi	x0,x0,0
    5cfc:	00000013          	addi	x0,x0,0
    5d00:	0000a517          	auipc	x10,0xa
    5d04:	aea50513          	addi	x10,x10,-1302 # f7ea <mcausestr>
    5d08:	00000013          	addi	x0,x0,0
    5d0c:	00000013          	addi	x0,x0,0
    5d10:	00000013          	addi	x0,x0,0
    5d14:	00000013          	addi	x0,x0,0
    5d18:	00000013          	addi	x0,x0,0
    5d1c:	00000013          	addi	x0,x0,0
    5d20:	0001a097          	auipc	x1,0x1a
    5d24:	4e4080e7          	jalr	x1,1252(x1) # 20204 <rvmodel_io_write_str>
    5d28:	00009517          	auipc	x10,0x9
    5d2c:	43852503          	lw	x10,1080(x10) # f160 <saved_mcause>
    5d30:	02000593          	addi	x11,x0,32
    5d34:	144000ef          	jal	x1,5e78 <failedtest_hex_to_str>
    5d38:	00000013          	addi	x0,x0,0
    5d3c:	00000013          	addi	x0,x0,0
    5d40:	00009517          	auipc	x10,0x9
    5d44:	43850513          	addi	x10,x10,1080 # f178 <ascii_buffer>
    5d48:	00000013          	addi	x0,x0,0
    5d4c:	00000013          	addi	x0,x0,0
    5d50:	00000013          	addi	x0,x0,0
    5d54:	00000013          	addi	x0,x0,0
    5d58:	00000013          	addi	x0,x0,0
    5d5c:	00000013          	addi	x0,x0,0
    5d60:	0001a097          	auipc	x1,0x1a
    5d64:	4a4080e7          	jalr	x1,1188(x1) # 20204 <rvmodel_io_write_str>
    5d68:	00000013          	addi	x0,x0,0
    5d6c:	00000013          	addi	x0,x0,0
    5d70:	00000013          	addi	x0,x0,0
    5d74:	00000013          	addi	x0,x0,0
    5d78:	00000013          	addi	x0,x0,0
    5d7c:	00000013          	addi	x0,x0,0
    5d80:	0000a517          	auipc	x10,0xa
    5d84:	a7a50513          	addi	x10,x10,-1414 # f7fa <mtvalstr>
    5d88:	00000013          	addi	x0,x0,0
    5d8c:	00000013          	addi	x0,x0,0
    5d90:	00000013          	addi	x0,x0,0
    5d94:	00000013          	addi	x0,x0,0
    5d98:	00000013          	addi	x0,x0,0
    5d9c:	00000013          	addi	x0,x0,0
    5da0:	0001a097          	auipc	x1,0x1a
    5da4:	464080e7          	jalr	x1,1124(x1) # 20204 <rvmodel_io_write_str>
    5da8:	00009517          	auipc	x10,0x9
    5dac:	3c052503          	lw	x10,960(x10) # f168 <saved_mtval>
    5db0:	02000593          	addi	x11,x0,32
    5db4:	0c4000ef          	jal	x1,5e78 <failedtest_hex_to_str>
    5db8:	00000013          	addi	x0,x0,0
    5dbc:	00000013          	addi	x0,x0,0
    5dc0:	00009517          	auipc	x10,0x9
    5dc4:	3b850513          	addi	x10,x10,952 # f178 <ascii_buffer>
    5dc8:	00000013          	addi	x0,x0,0
    5dcc:	00000013          	addi	x0,x0,0
    5dd0:	00000013          	addi	x0,x0,0
    5dd4:	00000013          	addi	x0,x0,0
    5dd8:	00000013          	addi	x0,x0,0
    5ddc:	00000013          	addi	x0,x0,0
    5de0:	0001a097          	auipc	x1,0x1a
    5de4:	424080e7          	jalr	x1,1060(x1) # 20204 <rvmodel_io_write_str>
    5de8:	00000013          	addi	x0,x0,0
    5dec:	00000013          	addi	x0,x0,0
    5df0:	00000013          	addi	x0,x0,0
    5df4:	00000013          	addi	x0,x0,0
    5df8:	00000013          	addi	x0,x0,0
    5dfc:	00000013          	addi	x0,x0,0
    5e00:	0000a517          	auipc	x10,0xa
    5e04:	a0a50513          	addi	x10,x10,-1526 # f80a <mstatusstr>
    5e08:	00000013          	addi	x0,x0,0
    5e0c:	00000013          	addi	x0,x0,0
    5e10:	00000013          	addi	x0,x0,0
    5e14:	00000013          	addi	x0,x0,0
    5e18:	00000013          	addi	x0,x0,0
    5e1c:	00000013          	addi	x0,x0,0
    5e20:	0001a097          	auipc	x1,0x1a
    5e24:	3e4080e7          	jalr	x1,996(x1) # 20204 <rvmodel_io_write_str>
    5e28:	00009517          	auipc	x10,0x9
    5e2c:	34852503          	lw	x10,840(x10) # f170 <saved_mstatus>
    5e30:	02000593          	addi	x11,x0,32
    5e34:	044000ef          	jal	x1,5e78 <failedtest_hex_to_str>
    5e38:	00000013          	addi	x0,x0,0
    5e3c:	00000013          	addi	x0,x0,0
    5e40:	00009517          	auipc	x10,0x9
    5e44:	33850513          	addi	x10,x10,824 # f178 <ascii_buffer>
    5e48:	00000013          	addi	x0,x0,0
    5e4c:	00000013          	addi	x0,x0,0
    5e50:	00000013          	addi	x0,x0,0
    5e54:	00000013          	addi	x0,x0,0
    5e58:	00000013          	addi	x0,x0,0
    5e5c:	00000013          	addi	x0,x0,0
    5e60:	0001a097          	auipc	x1,0x1a
    5e64:	3a4080e7          	jalr	x1,932(x1) # 20204 <rvmodel_io_write_str>
    5e68:	00009617          	auipc	x12,0x9
    5e6c:	2e860613          	addi	x12,x12,744 # f150 <csr_context_ret_addr>
    5e70:	00062083          	lw	x1,0(x12)
    5e74:	00008067          	jalr	x0,0(x1)

00005e78 <failedtest_hex_to_str>:
    5e78:	00000013          	addi	x0,x0,0
    5e7c:	00000013          	addi	x0,x0,0
    5e80:	00009617          	auipc	x12,0x9
    5e84:	2f860613          	addi	x12,x12,760 # f178 <ascii_buffer>
    5e88:	00000013          	addi	x0,x0,0
    5e8c:	00000013          	addi	x0,x0,0
    5e90:	00000013          	addi	x0,x0,0
    5e94:	00000013          	addi	x0,x0,0
    5e98:	00000013          	addi	x0,x0,0
    5e9c:	00000013          	addi	x0,x0,0
    5ea0:	03000693          	addi	x13,x0,48
    5ea4:	00d60023          	sb	x13,0(x12)
    5ea8:	07800693          	addi	x13,x0,120
    5eac:	00d600a3          	sb	x13,1(x12)
    5eb0:	00260613          	addi	x12,x12,2
    5eb4:	00058693          	addi	x13,x11,0

00005eb8 <failedtest_hex_to_str_loop>:
    5eb8:	ffc68693          	addi	x13,x13,-4
    5ebc:	00d55733          	srl	x14,x10,x13
    5ec0:	00f77713          	andi	x14,x14,15
    5ec4:	00a00793          	addi	x15,x0,10
    5ec8:	00f74663          	blt	x14,x15,5ed4 <failedtest_hex_to_str_digit>
    5ecc:	05770713          	addi	x14,x14,87
    5ed0:	0080006f          	jal	x0,5ed8 <failedtest_hex_to_str_write>

00005ed4 <failedtest_hex_to_str_digit>:
    5ed4:	03070713          	addi	x14,x14,48

00005ed8 <failedtest_hex_to_str_write>:
    5ed8:	00e60023          	sb	x14,0(x12)
    5edc:	00160613          	addi	x12,x12,1
    5ee0:	fc069ce3          	bne	x13,x0,5eb8 <failedtest_hex_to_str_loop>
    5ee4:	00a00693          	addi	x13,x0,10
    5ee8:	00d60023          	sb	x13,0(x12)
    5eec:	000600a3          	sb	x0,1(x12)
    5ef0:	00008067          	jalr	x0,0(x1)

00005ef4 <failedtest_dec_to_str>:
    5ef4:	00a00693          	addi	x13,x0,10
    5ef8:	02d54663          	blt	x10,x13,5f24 <failedtest_dec_to_str+0x30>
    5efc:	ff650513          	addi	x10,x10,-10
    5f00:	03100713          	addi	x14,x0,49
    5f04:	00d54c63          	blt	x10,x13,5f1c <failedtest_dec_to_str+0x28>
    5f08:	ff650513          	addi	x10,x10,-10
    5f0c:	03200713          	addi	x14,x0,50
    5f10:	00d54663          	blt	x10,x13,5f1c <failedtest_dec_to_str+0x28>
    5f14:	ff650513          	addi	x10,x10,-10
    5f18:	03300713          	addi	x14,x0,51
    5f1c:	00e60023          	sb	x14,0(x12)
    5f20:	00160613          	addi	x12,x12,1
    5f24:	03050513          	addi	x10,x10,48
    5f28:	00a60023          	sb	x10,0(x12)
    5f2c:	00a00693          	addi	x13,x0,10
    5f30:	00d600a3          	sb	x13,1(x12)
    5f34:	00060123          	sb	x0,2(x12)
    5f38:	00008067          	jalr	x0,0(x1)
    5f3c:	00000013          	addi	x0,x0,0

Disassembly of section .text.rvmodel:

00020000 <rvmodel_boot>:
   20000:	feedc0b7          	lui	x1,0xfeedc
   20004:	ead08093          	addi	x1,x1,-339 # feedbead <absimm+0x8f911ba4>
   20008:	01909793          	slli	x15,x1,0x19
   2000c:	0070d113          	srli	x2,x1,0x7
   20010:	00f16133          	or	x2,x2,x15
   20014:	01911793          	slli	x15,x2,0x19
   20018:	00715193          	srli	x3,x2,0x7
   2001c:	00f1e1b3          	or	x3,x3,x15
   20020:	01919793          	slli	x15,x3,0x19
   20024:	0071d213          	srli	x4,x3,0x7
   20028:	00f26233          	or	x4,x4,x15
   2002c:	01921793          	slli	x15,x4,0x19
   20030:	00725293          	srli	x5,x4,0x7
   20034:	00f2e2b3          	or	x5,x5,x15
   20038:	01929793          	slli	x15,x5,0x19
   2003c:	0072d313          	srli	x6,x5,0x7
   20040:	00f36333          	or	x6,x6,x15
   20044:	01931793          	slli	x15,x6,0x19
   20048:	00735393          	srli	x7,x6,0x7
   2004c:	00f3e3b3          	or	x7,x7,x15
   20050:	01939793          	slli	x15,x7,0x19
   20054:	0073d413          	srli	x8,x7,0x7
   20058:	00f46433          	or	x8,x8,x15
   2005c:	01941793          	slli	x15,x8,0x19
   20060:	00745493          	srli	x9,x8,0x7
   20064:	00f4e4b3          	or	x9,x9,x15
   20068:	01949793          	slli	x15,x9,0x19
   2006c:	0074d513          	srli	x10,x9,0x7
   20070:	00f56533          	or	x10,x10,x15
   20074:	01951793          	slli	x15,x10,0x19
   20078:	00755593          	srli	x11,x10,0x7
   2007c:	00f5e5b3          	or	x11,x11,x15
   20080:	01959793          	slli	x15,x11,0x19
   20084:	0075d613          	srli	x12,x11,0x7
   20088:	00f66633          	or	x12,x12,x15
   2008c:	01961793          	slli	x15,x12,0x19
   20090:	00765693          	srli	x13,x12,0x7
   20094:	00f6e6b3          	or	x13,x13,x15
   20098:	01969793          	slli	x15,x13,0x19
   2009c:	0076d713          	srli	x14,x13,0x7
   200a0:	00f76733          	or	x14,x14,x15
   200a4:	fab807b7          	lui	x15,0xfab80
   200a8:	bb678793          	addi	x15,x15,-1098 # fab7fbb6 <absimm+0x8b5b58ad>
   200ac:	7d5c0837          	lui	x16,0x7d5c0
   200b0:	ddb80813          	addi	x16,x16,-549 # 7d5bfddb <absimm+0xdff5ad2>
   200b4:	01981793          	slli	x15,x16,0x19
   200b8:	00785893          	srli	x17,x16,0x7
   200bc:	00f8e8b3          	or	x17,x17,x15
   200c0:	01989793          	slli	x15,x17,0x19
   200c4:	0078d913          	srli	x18,x17,0x7
   200c8:	00f96933          	or	x18,x18,x15
   200cc:	01991793          	slli	x15,x18,0x19
   200d0:	00795993          	srli	x19,x18,0x7
   200d4:	00f9e9b3          	or	x19,x19,x15
   200d8:	01999793          	slli	x15,x19,0x19
   200dc:	0079da13          	srli	x20,x19,0x7
   200e0:	00fa6a33          	or	x20,x20,x15
   200e4:	019a1793          	slli	x15,x20,0x19
   200e8:	007a5a93          	srli	x21,x20,0x7
   200ec:	00faeab3          	or	x21,x21,x15
   200f0:	019a9793          	slli	x15,x21,0x19
   200f4:	007adb13          	srli	x22,x21,0x7
   200f8:	00fb6b33          	or	x22,x22,x15
   200fc:	019b1793          	slli	x15,x22,0x19
   20100:	007b5b93          	srli	x23,x22,0x7
   20104:	00fbebb3          	or	x23,x23,x15
   20108:	019b9793          	slli	x15,x23,0x19
   2010c:	007bdc13          	srli	x24,x23,0x7
   20110:	00fc6c33          	or	x24,x24,x15
   20114:	019c1793          	slli	x15,x24,0x19
   20118:	007c5c93          	srli	x25,x24,0x7
   2011c:	00fcecb3          	or	x25,x25,x15
   20120:	019c9793          	slli	x15,x25,0x19
   20124:	007cdd13          	srli	x26,x25,0x7
   20128:	00fd6d33          	or	x26,x26,x15
   2012c:	019d1793          	slli	x15,x26,0x19
   20130:	007d5d93          	srli	x27,x26,0x7
   20134:	00fdedb3          	or	x27,x27,x15
   20138:	019d9793          	slli	x15,x27,0x19
   2013c:	007dde13          	srli	x28,x27,0x7
   20140:	00fe6e33          	or	x28,x28,x15
   20144:	019e1793          	slli	x15,x28,0x19
   20148:	007e5e93          	srli	x29,x28,0x7
   2014c:	00feeeb3          	or	x29,x29,x15
   20150:	019e9793          	slli	x15,x29,0x19
   20154:	007edf13          	srli	x30,x29,0x7
   20158:	00ff6f33          	or	x30,x30,x15
   2015c:	019f1793          	slli	x15,x30,0x19
   20160:	007f5f93          	srli	x31,x30,0x7
   20164:	00ffefb3          	or	x31,x31,x15
   20168:	00000013          	addi	x0,x0,0
   2016c:	00000013          	addi	x0,x0,0
   20170:	00000013          	addi	x0,x0,0
   20174:	00000013          	addi	x0,x0,0
   20178:	00000013          	addi	x0,x0,0
   2017c:	00000013          	addi	x0,x0,0
   20180:	ffff1117          	auipc	x2,0xffff1
   20184:	b3010113          	addi	x2,x2,-1232 # 10cb0 <begin_signature>
   20188:	00000013          	addi	x0,x0,0
   2018c:	00000013          	addi	x0,x0,0
   20190:	00000013          	addi	x0,x0,0
   20194:	00000013          	addi	x0,x0,0
   20198:	00000013          	addi	x0,x0,0
   2019c:	00000013          	addi	x0,x0,0

000201a0 <canary_check>:
   201a0:	6f5ca337          	lui	x6,0x6f5ca
   201a4:	30930313          	addi	x6,x6,777 # 6f5ca309 <absimm>
   201a8:	00012203          	lw	x4,0(x2)
   201ac:	00620863          	beq	x4,x6,201bc <canary_check+0x1c>
   201b0:	b0ce42ef          	jal	x5,44bc <failedtest_x5_x4>
   201b4:	000201a0          	.word	0x000201a0
   201b8:	0001022a          	.word	0x0001022a
   201bc:	00410113          	addi	x2,x2,4
   201c0:	fffe8197          	auipc	x3,0xfffe8
   201c4:	f5018193          	addi	x3,x3,-176 # 8110 <rvtest_data_begin>
   201c8:	00000013          	addi	x0,x0,0
   201cc:	00000013          	addi	x0,x0,0
   201d0:	00000013          	addi	x0,x0,0
   201d4:	00000013          	addi	x0,x0,0
   201d8:	00000013          	addi	x0,x0,0
   201dc:	00000013          	addi	x0,x0,0
   201e0:	fffe0317          	auipc	x6,0xfffe0
   201e4:	e6030313          	addi	x6,x6,-416 # 40 <rvtest_code_begin>
   201e8:	00000013          	addi	x0,x0,0
   201ec:	00000013          	addi	x0,x0,0
   201f0:	00000013          	addi	x0,x0,0
   201f4:	00000013          	addi	x0,x0,0
   201f8:	00000013          	addi	x0,x0,0
   201fc:	00000013          	addi	x0,x0,0
   20200:	00030067          	jalr	x0,0(x6)

00020204 <rvmodel_io_write_str>:
   20204:	00008067          	jalr	x0,0(x1)

00020208 <rvmodel_halt_pass>:
   20208:	00000513          	addi	x10,x0,0
   2020c:	00000073          	ecall
   20210:	0000006f          	jal	x0,20210 <rvmodel_halt_pass+0x8>

00020214 <rvmodel_halt_fail>:
   20214:	00100513          	addi	x10,x0,1
   20218:	00000073          	ecall
   2021c:	0000006f          	jal	x0,2021c <rvmodel_halt_fail+0x8>
   20220:	00000013          	addi	x0,x0,0
   20224:	00000013          	addi	x0,x0,0
   20228:	00000013          	addi	x0,x0,0
   2022c:	00000013          	addi	x0,x0,0
   20230:	00000013          	addi	x0,x0,0
   20234:	00000013          	addi	x0,x0,0
   20238:	00000013          	addi	x0,x0,0
   2023c:	00000013          	addi	x0,x0,0
