
/home/dev/github/clones/riscv-arch-test/work/rv32i-core/elfs/rv32i/I/I-srai-00.elf:     file format elf32-littleriscv
/home/dev/github/clones/riscv-arch-test/work/rv32i-core/elfs/rv32i/I/I-srai-00.elf
architecture: riscv:rv32, flags 0x00000112:
EXEC_P, HAS_SYMS, D_PAGED
start address 0x00000000

Program Header:
0x70000003 off    0x00019240 vaddr 0x00000000 paddr 0x00000000 align 2**0
         filesz 0x00000033 memsz 0x00000000 flags r--
    LOAD off    0x00001000 vaddr 0x00000000 paddr 0x00000000 align 2**12
         filesz 0x000037a0 memsz 0x000037a0 flags r-x
    LOAD off    0x00005000 vaddr 0x00004000 paddr 0x00004000 align 2**12
         filesz 0x00014240 memsz 0x00014240 flags rwx

Sections:
Idx Name          Size      VMA       LMA       File off  Algn
  0 .text.init    00000040  00000000  00000000  00001000  2**5
                  CONTENTS, ALLOC, LOAD, READONLY, CODE
  1 .text.rvtest  00003760  00000040  00000040  00001040  2**5
                  CONTENTS, ALLOC, LOAD, READONLY, CODE
  2 .data         00013f30  00004000  00004000  00005000  2**8
                  CONTENTS, ALLOC, LOAD, DATA
  3 .text.rvmodel 00000240  00018000  00018000  00019000  2**5
                  CONTENTS, ALLOC, LOAD, READONLY, CODE
  4 .riscv.attributes 00000033  00000000  00000000  00019240  2**0
                  CONTENTS, READONLY
  5 .debug_line   00000f18  00000000  00000000  00019273  2**0
                  CONTENTS, READONLY, DEBUGGING, OCTETS
  6 .debug_line_str 0000006a  00000000  00000000  0001a18b  2**0
                  CONTENTS, READONLY, DEBUGGING, OCTETS
  7 .debug_info   00000023  00000000  00000000  0001a1f5  2**0
                  CONTENTS, READONLY, DEBUGGING, OCTETS
  8 .debug_abbrev 00000012  00000000  00000000  0001a218  2**0
                  CONTENTS, READONLY, DEBUGGING, OCTETS
  9 .debug_aranges 00000028  00000000  00000000  0001a230  2**3
                  CONTENTS, READONLY, DEBUGGING, OCTETS
 10 .debug_str    00000076  00000000  00000000  0001a258  2**0
                  CONTENTS, READONLY, DEBUGGING, OCTETS
 11 .debug_rnglists 0000001a  00000000  00000000  0001a2ce  2**0
                  CONTENTS, READONLY, DEBUGGING, OCTETS
SYMBOL TABLE:
00000000 l    d  .text.init	00000000 .text.init
00000040 l    d  .text.rvtest	00000000 .text.rvtest
00004000 l    d  .data	00000000 .data
00018000 l    d  .text.rvmodel	00000000 .text.rvmodel
00000000 l    d  .riscv.attributes	00000000 .riscv.attributes
00000000 l    d  .debug_line	00000000 .debug_line
00000000 l    d  .debug_line_str	00000000 .debug_line_str
00000000 l    d  .debug_info	00000000 .debug_info
00000000 l    d  .debug_abbrev	00000000 .debug_abbrev
00000000 l    d  .debug_aranges	00000000 .debug_aranges
00000000 l    d  .debug_str	00000000 .debug_str
00000000 l    d  .debug_rnglists	00000000 .debug_rnglists
00000000 l    df *ABS*	00000000 ccbpM1DP.o
00000003 l       *ABS*	00000000 MMODE_SIG
00000001 l       *ABS*	00000000 SMODE_SIG
00000001 l       *ABS*	00000000 HMODE_SIG
00000002 l       *ABS*	00000000 VMODE_SIG
00018000 l       .text.rvmodel	00000000 rvmodel_boot
00000048 l       .text.rvtest	00000000 I_srai_cg_cp_rs1_b0
00001d1c l       .text.rvtest	00000000 failedtest_x5_x4
00004430 l       .data	00000000 I_srai_cg_cp_rs1_b0_str
0000006c l       .text.rvtest	00000000 I_srai_cg_cp_rs1_b1
0000445e l       .data	00000000 I_srai_cg_cp_rs1_b1_str
00000094 l       .text.rvtest	00000000 I_srai_cg_cp_rs1_b2
0000448c l       .data	00000000 I_srai_cg_cp_rs1_b2_str
000000bc l       .text.rvtest	00000000 I_srai_cg_cp_rs1_b3
000044ba l       .data	00000000 I_srai_cg_cp_rs1_b3_str
000000e8 l       .text.rvtest	00000000 I_srai_cg_cp_rs1_b4
00001d34 l       .text.rvtest	00000000 failedtest_x8_x7
000044e8 l       .data	00000000 I_srai_cg_cp_rs1_b4_str
0000010c l       .text.rvtest	00000000 I_srai_cg_cp_rs1_b5
00004516 l       .data	00000000 I_srai_cg_cp_rs1_b5_str
00000130 l       .text.rvtest	00000000 I_srai_cg_cp_rs1_b6
00004544 l       .data	00000000 I_srai_cg_cp_rs1_b6_str
0000015c l       .text.rvtest	00000000 I_srai_cg_cp_rs1_b7
00001d5c l       .text.rvtest	00000000 failedtest_x14_x13
00004572 l       .data	00000000 I_srai_cg_cp_rs1_b7_str
00000180 l       .text.rvtest	00000000 I_srai_cg_cp_rs1_b8
000045a0 l       .data	00000000 I_srai_cg_cp_rs1_b8_str
000001a4 l       .text.rvtest	00000000 I_srai_cg_cp_rs1_b9
000045ce l       .data	00000000 I_srai_cg_cp_rs1_b9_str
000001c8 l       .text.rvtest	00000000 I_srai_cg_cp_rs1_b10
000045fd l       .data	00000000 I_srai_cg_cp_rs1_b10_str
000001ec l       .text.rvtest	00000000 I_srai_cg_cp_rs1_b11
0000462d l       .data	00000000 I_srai_cg_cp_rs1_b11_str
00000210 l       .text.rvtest	00000000 I_srai_cg_cp_rs1_b12
0000465d l       .data	00000000 I_srai_cg_cp_rs1_b12_str
0000023c l       .text.rvtest	00000000 I_srai_cg_cp_rs1_b13
0000468d l       .data	00000000 I_srai_cg_cp_rs1_b13_str
00000260 l       .text.rvtest	00000000 I_srai_cg_cp_rs1_b14
000046bd l       .data	00000000 I_srai_cg_cp_rs1_b14_str
00000284 l       .text.rvtest	00000000 I_srai_cg_cp_rs1_b15
000046ed l       .data	00000000 I_srai_cg_cp_rs1_b15_str
000002a8 l       .text.rvtest	00000000 I_srai_cg_cp_rs1_b16
0000471d l       .data	00000000 I_srai_cg_cp_rs1_b16_str
000002cc l       .text.rvtest	00000000 I_srai_cg_cp_rs1_b17
0000474d l       .data	00000000 I_srai_cg_cp_rs1_b17_str
000002f0 l       .text.rvtest	00000000 I_srai_cg_cp_rs1_b18
0000477d l       .data	00000000 I_srai_cg_cp_rs1_b18_str
00000314 l       .text.rvtest	00000000 I_srai_cg_cp_rs1_b19
000047ad l       .data	00000000 I_srai_cg_cp_rs1_b19_str
00000338 l       .text.rvtest	00000000 I_srai_cg_cp_rs1_b20
000047dd l       .data	00000000 I_srai_cg_cp_rs1_b20_str
0000035c l       .text.rvtest	00000000 I_srai_cg_cp_rs1_b21
0000480d l       .data	00000000 I_srai_cg_cp_rs1_b21_str
00000384 l       .text.rvtest	00000000 I_srai_cg_cp_rs1_b22
0000483d l       .data	00000000 I_srai_cg_cp_rs1_b22_str
000003a8 l       .text.rvtest	00000000 I_srai_cg_cp_rs1_b23
0000486d l       .data	00000000 I_srai_cg_cp_rs1_b23_str
000003cc l       .text.rvtest	00000000 I_srai_cg_cp_rs1_b24
0000489d l       .data	00000000 I_srai_cg_cp_rs1_b24_str
000003f0 l       .text.rvtest	00000000 I_srai_cg_cp_rs1_b25
000048cd l       .data	00000000 I_srai_cg_cp_rs1_b25_str
00000414 l       .text.rvtest	00000000 I_srai_cg_cp_rs1_b26
000048fd l       .data	00000000 I_srai_cg_cp_rs1_b26_str
0000043c l       .text.rvtest	00000000 I_srai_cg_cp_rs1_b27
0000492d l       .data	00000000 I_srai_cg_cp_rs1_b27_str
00000460 l       .text.rvtest	00000000 I_srai_cg_cp_rs1_b28
0000495d l       .data	00000000 I_srai_cg_cp_rs1_b28_str
00000484 l       .text.rvtest	00000000 I_srai_cg_cp_rs1_b29
0000498d l       .data	00000000 I_srai_cg_cp_rs1_b29_str
000004a8 l       .text.rvtest	00000000 I_srai_cg_cp_rs1_b30
000049bd l       .data	00000000 I_srai_cg_cp_rs1_b30_str
000004cc l       .text.rvtest	00000000 I_srai_cg_cp_rs1_b31
000049ed l       .data	00000000 I_srai_cg_cp_rs1_b31_str
000004f0 l       .text.rvtest	00000000 I_srai_cg_cp_rd_b0
00004a1d l       .data	00000000 I_srai_cg_cp_rd_b0_str
00000518 l       .text.rvtest	00000000 I_srai_cg_cp_rd_b1
00004a4b l       .data	00000000 I_srai_cg_cp_rd_b1_str
0000053c l       .text.rvtest	00000000 I_srai_cg_cp_rd_b2
00004a79 l       .data	00000000 I_srai_cg_cp_rd_b2_str
00000560 l       .text.rvtest	00000000 I_srai_cg_cp_rd_b3
00004aa7 l       .data	00000000 I_srai_cg_cp_rd_b3_str
00000584 l       .text.rvtest	00000000 I_srai_cg_cp_rd_b4
00004ad5 l       .data	00000000 I_srai_cg_cp_rd_b4_str
000005a8 l       .text.rvtest	00000000 I_srai_cg_cp_rd_b5
00004b03 l       .data	00000000 I_srai_cg_cp_rd_b5_str
000005d0 l       .text.rvtest	00000000 I_srai_cg_cp_rd_b6
00004b31 l       .data	00000000 I_srai_cg_cp_rd_b6_str
000005fc l       .text.rvtest	00000000 I_srai_cg_cp_rd_b7
00004b5f l       .data	00000000 I_srai_cg_cp_rd_b7_str
00000620 l       .text.rvtest	00000000 I_srai_cg_cp_rd_b8
00004b8d l       .data	00000000 I_srai_cg_cp_rd_b8_str
00000644 l       .text.rvtest	00000000 I_srai_cg_cp_rd_b9
00004bbb l       .data	00000000 I_srai_cg_cp_rd_b9_str
00000668 l       .text.rvtest	00000000 I_srai_cg_cp_rd_b10
00004be9 l       .data	00000000 I_srai_cg_cp_rd_b10_str
0000068c l       .text.rvtest	00000000 I_srai_cg_cp_rd_b11
00004c18 l       .data	00000000 I_srai_cg_cp_rd_b11_str
000006b0 l       .text.rvtest	00000000 I_srai_cg_cp_rd_b12
00004c47 l       .data	00000000 I_srai_cg_cp_rd_b12_str
000006dc l       .text.rvtest	00000000 I_srai_cg_cp_rd_b13
00004c76 l       .data	00000000 I_srai_cg_cp_rd_b13_str
00000700 l       .text.rvtest	00000000 I_srai_cg_cp_rd_b14
00004ca5 l       .data	00000000 I_srai_cg_cp_rd_b14_str
00000724 l       .text.rvtest	00000000 I_srai_cg_cp_rd_b15
00004cd4 l       .data	00000000 I_srai_cg_cp_rd_b15_str
00000748 l       .text.rvtest	00000000 I_srai_cg_cp_rd_b16
00004d03 l       .data	00000000 I_srai_cg_cp_rd_b16_str
0000076c l       .text.rvtest	00000000 I_srai_cg_cp_rd_b17
00004d32 l       .data	00000000 I_srai_cg_cp_rd_b17_str
00000790 l       .text.rvtest	00000000 I_srai_cg_cp_rd_b18
00004d61 l       .data	00000000 I_srai_cg_cp_rd_b18_str
000007b8 l       .text.rvtest	00000000 I_srai_cg_cp_rd_b19
00004d90 l       .data	00000000 I_srai_cg_cp_rd_b19_str
000007dc l       .text.rvtest	00000000 I_srai_cg_cp_rd_b20
00004dbf l       .data	00000000 I_srai_cg_cp_rd_b20_str
00000800 l       .text.rvtest	00000000 I_srai_cg_cp_rd_b21
00004dee l       .data	00000000 I_srai_cg_cp_rd_b21_str
00000824 l       .text.rvtest	00000000 I_srai_cg_cp_rd_b22
00004e1d l       .data	00000000 I_srai_cg_cp_rd_b22_str
00000848 l       .text.rvtest	00000000 I_srai_cg_cp_rd_b23
00004e4c l       .data	00000000 I_srai_cg_cp_rd_b23_str
0000086c l       .text.rvtest	00000000 I_srai_cg_cp_rd_b24
00004e7b l       .data	00000000 I_srai_cg_cp_rd_b24_str
00000890 l       .text.rvtest	00000000 I_srai_cg_cp_rd_b25
00004eaa l       .data	00000000 I_srai_cg_cp_rd_b25_str
000008b8 l       .text.rvtest	00000000 I_srai_cg_cp_rd_b26
00004ed9 l       .data	00000000 I_srai_cg_cp_rd_b26_str
000008dc l       .text.rvtest	00000000 I_srai_cg_cp_rd_b27
00004f08 l       .data	00000000 I_srai_cg_cp_rd_b27_str
00000904 l       .text.rvtest	00000000 I_srai_cg_cp_rd_b28
00004f37 l       .data	00000000 I_srai_cg_cp_rd_b28_str
00000928 l       .text.rvtest	00000000 I_srai_cg_cp_rd_b29
00004f66 l       .data	00000000 I_srai_cg_cp_rd_b29_str
0000094c l       .text.rvtest	00000000 I_srai_cg_cp_rd_b30
00004f95 l       .data	00000000 I_srai_cg_cp_rd_b30_str
00000974 l       .text.rvtest	00000000 I_srai_cg_cp_rd_b31
00004fc4 l       .data	00000000 I_srai_cg_cp_rd_b31_str
00000998 l       .text.rvtest	00000000 I_srai_cg_cp_rs1_edges_0x0
00004ff3 l       .data	00000000 I_srai_cg_cp_rs1_edges_0x0_str
000009bc l       .text.rvtest	00000000 I_srai_cg_cp_rs1_edges_0x1
00005029 l       .data	00000000 I_srai_cg_cp_rs1_edges_0x1_str
000009e0 l       .text.rvtest	00000000 I_srai_cg_cp_rs1_edges_0x2
0000505f l       .data	00000000 I_srai_cg_cp_rs1_edges_0x2_str
00000a04 l       .text.rvtest	00000000 I_srai_cg_cp_rs1_edges_0x80000000
00005095 l       .data	00000000 I_srai_cg_cp_rs1_edges_0x80000000_str
00000a28 l       .text.rvtest	00000000 I_srai_cg_cp_rs1_edges_0x80000001
000050d2 l       .data	00000000 I_srai_cg_cp_rs1_edges_0x80000001_str
00000a4c l       .text.rvtest	00000000 I_srai_cg_cp_rs1_edges_0x7fffffff
0000510f l       .data	00000000 I_srai_cg_cp_rs1_edges_0x7fffffff_str
00000a70 l       .text.rvtest	00000000 I_srai_cg_cp_rs1_edges_0x7ffffffe
0000514c l       .data	00000000 I_srai_cg_cp_rs1_edges_0x7ffffffe_str
00000a94 l       .text.rvtest	00000000 I_srai_cg_cp_rs1_edges_0xffffffff
00005189 l       .data	00000000 I_srai_cg_cp_rs1_edges_0xffffffff_str
00000ab8 l       .text.rvtest	00000000 I_srai_cg_cp_rs1_edges_0xfffffffe
000051c6 l       .data	00000000 I_srai_cg_cp_rs1_edges_0xfffffffe_str
00000adc l       .text.rvtest	00000000 I_srai_cg_cp_rs1_edges_0x5bbc8872
00005203 l       .data	00000000 I_srai_cg_cp_rs1_edges_0x5bbc8872_str
00000b00 l       .text.rvtest	00000000 I_srai_cg_cp_rs1_edges_0xaaaaaaaa
00005240 l       .data	00000000 I_srai_cg_cp_rs1_edges_0xaaaaaaaa_str
00000b24 l       .text.rvtest	00000000 I_srai_cg_cp_rs1_edges_0x55555555
0000527d l       .data	00000000 I_srai_cg_cp_rs1_edges_0x55555555_str
00000b48 l       .text.rvtest	00000000 I_srai_cg_cr_rs1_imm_edges_uimm_rs1val_0x0_immval_0x0
000052ba l       .data	00000000 I_srai_cg_cr_rs1_imm_edges_uimm_rs1val_0x0_immval_0x0_str
00000b6c l       .text.rvtest	00000000 I_srai_cg_cr_rs1_imm_edges_uimm_rs1val_0x0_immval_0x1
0000530c l       .data	00000000 I_srai_cg_cr_rs1_imm_edges_uimm_rs1val_0x0_immval_0x1_str
00000b90 l       .text.rvtest	00000000 I_srai_cg_cr_rs1_imm_edges_uimm_rs1val_0x0_immval_0x13
0000535e l       .data	00000000 I_srai_cg_cr_rs1_imm_edges_uimm_rs1val_0x0_immval_0x13_str
00000bb4 l       .text.rvtest	00000000 I_srai_cg_cr_rs1_imm_edges_uimm_rs1val_0x0_immval_0x1e
000053b1 l       .data	00000000 I_srai_cg_cr_rs1_imm_edges_uimm_rs1val_0x0_immval_0x1e_str
00000bd8 l       .text.rvtest	00000000 I_srai_cg_cr_rs1_imm_edges_uimm_rs1val_0x0_immval_0x1f
00005404 l       .data	00000000 I_srai_cg_cr_rs1_imm_edges_uimm_rs1val_0x0_immval_0x1f_str
00000bfc l       .text.rvtest	00000000 I_srai_cg_cr_rs1_imm_edges_uimm_rs1val_0x1_immval_0x0
00005457 l       .data	00000000 I_srai_cg_cr_rs1_imm_edges_uimm_rs1val_0x1_immval_0x0_str
00000c20 l       .text.rvtest	00000000 I_srai_cg_cr_rs1_imm_edges_uimm_rs1val_0x1_immval_0x1
000054a9 l       .data	00000000 I_srai_cg_cr_rs1_imm_edges_uimm_rs1val_0x1_immval_0x1_str
00000c44 l       .text.rvtest	00000000 I_srai_cg_cr_rs1_imm_edges_uimm_rs1val_0x1_immval_0x13
000054fb l       .data	00000000 I_srai_cg_cr_rs1_imm_edges_uimm_rs1val_0x1_immval_0x13_str
00000c68 l       .text.rvtest	00000000 I_srai_cg_cr_rs1_imm_edges_uimm_rs1val_0x1_immval_0x1e
0000554e l       .data	00000000 I_srai_cg_cr_rs1_imm_edges_uimm_rs1val_0x1_immval_0x1e_str
00000c8c l       .text.rvtest	00000000 I_srai_cg_cr_rs1_imm_edges_uimm_rs1val_0x1_immval_0x1f
000055a1 l       .data	00000000 I_srai_cg_cr_rs1_imm_edges_uimm_rs1val_0x1_immval_0x1f_str
00000cb0 l       .text.rvtest	00000000 I_srai_cg_cr_rs1_imm_edges_uimm_rs1val_0x2_immval_0x0
000055f4 l       .data	00000000 I_srai_cg_cr_rs1_imm_edges_uimm_rs1val_0x2_immval_0x0_str
00000cd4 l       .text.rvtest	00000000 I_srai_cg_cr_rs1_imm_edges_uimm_rs1val_0x2_immval_0x1
00005646 l       .data	00000000 I_srai_cg_cr_rs1_imm_edges_uimm_rs1val_0x2_immval_0x1_str
00000cf8 l       .text.rvtest	00000000 I_srai_cg_cr_rs1_imm_edges_uimm_rs1val_0x2_immval_0x13
00005698 l       .data	00000000 I_srai_cg_cr_rs1_imm_edges_uimm_rs1val_0x2_immval_0x13_str
00000d1c l       .text.rvtest	00000000 I_srai_cg_cr_rs1_imm_edges_uimm_rs1val_0x2_immval_0x1e
000056eb l       .data	00000000 I_srai_cg_cr_rs1_imm_edges_uimm_rs1val_0x2_immval_0x1e_str
00000d40 l       .text.rvtest	00000000 I_srai_cg_cr_rs1_imm_edges_uimm_rs1val_0x2_immval_0x1f
0000573e l       .data	00000000 I_srai_cg_cr_rs1_imm_edges_uimm_rs1val_0x2_immval_0x1f_str
00000d64 l       .text.rvtest	00000000 I_srai_cg_cr_rs1_imm_edges_uimm_rs1val_0x80000000_immval_0x0
00005791 l       .data	00000000 I_srai_cg_cr_rs1_imm_edges_uimm_rs1val_0x80000000_immval_0x0_str
00000d88 l       .text.rvtest	00000000 I_srai_cg_cr_rs1_imm_edges_uimm_rs1val_0x80000000_immval_0x1
000057ea l       .data	00000000 I_srai_cg_cr_rs1_imm_edges_uimm_rs1val_0x80000000_immval_0x1_str
00000dac l       .text.rvtest	00000000 I_srai_cg_cr_rs1_imm_edges_uimm_rs1val_0x80000000_immval_0x13
00005843 l       .data	00000000 I_srai_cg_cr_rs1_imm_edges_uimm_rs1val_0x80000000_immval_0x13_str
00000dd0 l       .text.rvtest	00000000 I_srai_cg_cr_rs1_imm_edges_uimm_rs1val_0x80000000_immval_0x1e
0000589d l       .data	00000000 I_srai_cg_cr_rs1_imm_edges_uimm_rs1val_0x80000000_immval_0x1e_str
00000df4 l       .text.rvtest	00000000 I_srai_cg_cr_rs1_imm_edges_uimm_rs1val_0x80000000_immval_0x1f
000058f7 l       .data	00000000 I_srai_cg_cr_rs1_imm_edges_uimm_rs1val_0x80000000_immval_0x1f_str
00000e18 l       .text.rvtest	00000000 I_srai_cg_cr_rs1_imm_edges_uimm_rs1val_0x80000001_immval_0x0
00005951 l       .data	00000000 I_srai_cg_cr_rs1_imm_edges_uimm_rs1val_0x80000001_immval_0x0_str
00000e3c l       .text.rvtest	00000000 I_srai_cg_cr_rs1_imm_edges_uimm_rs1val_0x80000001_immval_0x1
000059aa l       .data	00000000 I_srai_cg_cr_rs1_imm_edges_uimm_rs1val_0x80000001_immval_0x1_str
00000e60 l       .text.rvtest	00000000 I_srai_cg_cr_rs1_imm_edges_uimm_rs1val_0x80000001_immval_0x13
00005a03 l       .data	00000000 I_srai_cg_cr_rs1_imm_edges_uimm_rs1val_0x80000001_immval_0x13_str
00000e84 l       .text.rvtest	00000000 I_srai_cg_cr_rs1_imm_edges_uimm_rs1val_0x80000001_immval_0x1e
00005a5d l       .data	00000000 I_srai_cg_cr_rs1_imm_edges_uimm_rs1val_0x80000001_immval_0x1e_str
00000ea8 l       .text.rvtest	00000000 I_srai_cg_cr_rs1_imm_edges_uimm_rs1val_0x80000001_immval_0x1f
00005ab8 l       .data	00000000 I_srai_cg_cr_rs1_imm_edges_uimm_rs1val_0x80000001_immval_0x1f_str
00000ecc l       .text.rvtest	00000000 I_srai_cg_cr_rs1_imm_edges_uimm_rs1val_0x7fffffff_immval_0x0
00005b13 l       .data	00000000 I_srai_cg_cr_rs1_imm_edges_uimm_rs1val_0x7fffffff_immval_0x0_str
00000ef0 l       .text.rvtest	00000000 I_srai_cg_cr_rs1_imm_edges_uimm_rs1val_0x7fffffff_immval_0x1
00005b6d l       .data	00000000 I_srai_cg_cr_rs1_imm_edges_uimm_rs1val_0x7fffffff_immval_0x1_str
00000f14 l       .text.rvtest	00000000 I_srai_cg_cr_rs1_imm_edges_uimm_rs1val_0x7fffffff_immval_0x13
00005bc7 l       .data	00000000 I_srai_cg_cr_rs1_imm_edges_uimm_rs1val_0x7fffffff_immval_0x13_str
00000f38 l       .text.rvtest	00000000 I_srai_cg_cr_rs1_imm_edges_uimm_rs1val_0x7fffffff_immval_0x1e
00005c22 l       .data	00000000 I_srai_cg_cr_rs1_imm_edges_uimm_rs1val_0x7fffffff_immval_0x1e_str
00000f5c l       .text.rvtest	00000000 I_srai_cg_cr_rs1_imm_edges_uimm_rs1val_0x7fffffff_immval_0x1f
00005c7d l       .data	00000000 I_srai_cg_cr_rs1_imm_edges_uimm_rs1val_0x7fffffff_immval_0x1f_str
00000f80 l       .text.rvtest	00000000 I_srai_cg_cr_rs1_imm_edges_uimm_rs1val_0x7ffffffe_immval_0x0
00005cd8 l       .data	00000000 I_srai_cg_cr_rs1_imm_edges_uimm_rs1val_0x7ffffffe_immval_0x0_str
00000fa4 l       .text.rvtest	00000000 I_srai_cg_cr_rs1_imm_edges_uimm_rs1val_0x7ffffffe_immval_0x1
00005d32 l       .data	00000000 I_srai_cg_cr_rs1_imm_edges_uimm_rs1val_0x7ffffffe_immval_0x1_str
00000fc8 l       .text.rvtest	00000000 I_srai_cg_cr_rs1_imm_edges_uimm_rs1val_0x7ffffffe_immval_0x13
00005d8c l       .data	00000000 I_srai_cg_cr_rs1_imm_edges_uimm_rs1val_0x7ffffffe_immval_0x13_str
00000fec l       .text.rvtest	00000000 I_srai_cg_cr_rs1_imm_edges_uimm_rs1val_0x7ffffffe_immval_0x1e
00005de7 l       .data	00000000 I_srai_cg_cr_rs1_imm_edges_uimm_rs1val_0x7ffffffe_immval_0x1e_str
00001010 l       .text.rvtest	00000000 I_srai_cg_cr_rs1_imm_edges_uimm_rs1val_0x7ffffffe_immval_0x1f
00005e42 l       .data	00000000 I_srai_cg_cr_rs1_imm_edges_uimm_rs1val_0x7ffffffe_immval_0x1f_str
00001034 l       .text.rvtest	00000000 I_srai_cg_cr_rs1_imm_edges_uimm_rs1val_0xffffffff_immval_0x0
00005e9d l       .data	00000000 I_srai_cg_cr_rs1_imm_edges_uimm_rs1val_0xffffffff_immval_0x0_str
00001058 l       .text.rvtest	00000000 I_srai_cg_cr_rs1_imm_edges_uimm_rs1val_0xffffffff_immval_0x1
00005ef7 l       .data	00000000 I_srai_cg_cr_rs1_imm_edges_uimm_rs1val_0xffffffff_immval_0x1_str
0000107c l       .text.rvtest	00000000 I_srai_cg_cr_rs1_imm_edges_uimm_rs1val_0xffffffff_immval_0x13
00005f51 l       .data	00000000 I_srai_cg_cr_rs1_imm_edges_uimm_rs1val_0xffffffff_immval_0x13_str
000010a0 l       .text.rvtest	00000000 I_srai_cg_cr_rs1_imm_edges_uimm_rs1val_0xffffffff_immval_0x1e
00005fac l       .data	00000000 I_srai_cg_cr_rs1_imm_edges_uimm_rs1val_0xffffffff_immval_0x1e_str
000010c4 l       .text.rvtest	00000000 I_srai_cg_cr_rs1_imm_edges_uimm_rs1val_0xffffffff_immval_0x1f
00006007 l       .data	00000000 I_srai_cg_cr_rs1_imm_edges_uimm_rs1val_0xffffffff_immval_0x1f_str
000010e8 l       .text.rvtest	00000000 I_srai_cg_cr_rs1_imm_edges_uimm_rs1val_0xfffffffe_immval_0x0
00006062 l       .data	00000000 I_srai_cg_cr_rs1_imm_edges_uimm_rs1val_0xfffffffe_immval_0x0_str
0000110c l       .text.rvtest	00000000 I_srai_cg_cr_rs1_imm_edges_uimm_rs1val_0xfffffffe_immval_0x1
000060bc l       .data	00000000 I_srai_cg_cr_rs1_imm_edges_uimm_rs1val_0xfffffffe_immval_0x1_str
00001130 l       .text.rvtest	00000000 I_srai_cg_cr_rs1_imm_edges_uimm_rs1val_0xfffffffe_immval_0x13
00006116 l       .data	00000000 I_srai_cg_cr_rs1_imm_edges_uimm_rs1val_0xfffffffe_immval_0x13_str
00001154 l       .text.rvtest	00000000 I_srai_cg_cr_rs1_imm_edges_uimm_rs1val_0xfffffffe_immval_0x1e
00006171 l       .data	00000000 I_srai_cg_cr_rs1_imm_edges_uimm_rs1val_0xfffffffe_immval_0x1e_str
00001178 l       .text.rvtest	00000000 I_srai_cg_cr_rs1_imm_edges_uimm_rs1val_0xfffffffe_immval_0x1f
000061cc l       .data	00000000 I_srai_cg_cr_rs1_imm_edges_uimm_rs1val_0xfffffffe_immval_0x1f_str
0000119c l       .text.rvtest	00000000 I_srai_cg_cr_rs1_imm_edges_uimm_rs1val_0x5bbc8872_immval_0x0
00006227 l       .data	00000000 I_srai_cg_cr_rs1_imm_edges_uimm_rs1val_0x5bbc8872_immval_0x0_str
000011c0 l       .text.rvtest	00000000 I_srai_cg_cr_rs1_imm_edges_uimm_rs1val_0x5bbc8872_immval_0x1
00006281 l       .data	00000000 I_srai_cg_cr_rs1_imm_edges_uimm_rs1val_0x5bbc8872_immval_0x1_str
000011e4 l       .text.rvtest	00000000 I_srai_cg_cr_rs1_imm_edges_uimm_rs1val_0x5bbc8872_immval_0x13
000062db l       .data	00000000 I_srai_cg_cr_rs1_imm_edges_uimm_rs1val_0x5bbc8872_immval_0x13_str
00001208 l       .text.rvtest	00000000 I_srai_cg_cr_rs1_imm_edges_uimm_rs1val_0x5bbc8872_immval_0x1e
00006336 l       .data	00000000 I_srai_cg_cr_rs1_imm_edges_uimm_rs1val_0x5bbc8872_immval_0x1e_str
0000122c l       .text.rvtest	00000000 I_srai_cg_cr_rs1_imm_edges_uimm_rs1val_0x5bbc8872_immval_0x1f
00006391 l       .data	00000000 I_srai_cg_cr_rs1_imm_edges_uimm_rs1val_0x5bbc8872_immval_0x1f_str
00001250 l       .text.rvtest	00000000 I_srai_cg_cr_rs1_imm_edges_uimm_rs1val_0xaaaaaaaa_immval_0x0
000063ec l       .data	00000000 I_srai_cg_cr_rs1_imm_edges_uimm_rs1val_0xaaaaaaaa_immval_0x0_str
00001274 l       .text.rvtest	00000000 I_srai_cg_cr_rs1_imm_edges_uimm_rs1val_0xaaaaaaaa_immval_0x1
00006446 l       .data	00000000 I_srai_cg_cr_rs1_imm_edges_uimm_rs1val_0xaaaaaaaa_immval_0x1_str
00001298 l       .text.rvtest	00000000 I_srai_cg_cr_rs1_imm_edges_uimm_rs1val_0xaaaaaaaa_immval_0x13
000064a0 l       .data	00000000 I_srai_cg_cr_rs1_imm_edges_uimm_rs1val_0xaaaaaaaa_immval_0x13_str
000012bc l       .text.rvtest	00000000 I_srai_cg_cr_rs1_imm_edges_uimm_rs1val_0xaaaaaaaa_immval_0x1e
000064fb l       .data	00000000 I_srai_cg_cr_rs1_imm_edges_uimm_rs1val_0xaaaaaaaa_immval_0x1e_str
000012e0 l       .text.rvtest	00000000 I_srai_cg_cr_rs1_imm_edges_uimm_rs1val_0xaaaaaaaa_immval_0x1f
00006556 l       .data	00000000 I_srai_cg_cr_rs1_imm_edges_uimm_rs1val_0xaaaaaaaa_immval_0x1f_str
00001304 l       .text.rvtest	00000000 I_srai_cg_cr_rs1_imm_edges_uimm_rs1val_0x55555555_immval_0x0
000065b1 l       .data	00000000 I_srai_cg_cr_rs1_imm_edges_uimm_rs1val_0x55555555_immval_0x0_str
00001328 l       .text.rvtest	00000000 I_srai_cg_cr_rs1_imm_edges_uimm_rs1val_0x55555555_immval_0x1
0000660b l       .data	00000000 I_srai_cg_cr_rs1_imm_edges_uimm_rs1val_0x55555555_immval_0x1_str
0000134c l       .text.rvtest	00000000 I_srai_cg_cr_rs1_imm_edges_uimm_rs1val_0x55555555_immval_0x13
00006665 l       .data	00000000 I_srai_cg_cr_rs1_imm_edges_uimm_rs1val_0x55555555_immval_0x13_str
00001370 l       .text.rvtest	00000000 I_srai_cg_cr_rs1_imm_edges_uimm_rs1val_0x55555555_immval_0x1e
000066c0 l       .data	00000000 I_srai_cg_cr_rs1_imm_edges_uimm_rs1val_0x55555555_immval_0x1e_str
00001394 l       .text.rvtest	00000000 I_srai_cg_cr_rs1_imm_edges_uimm_rs1val_0x55555555_immval_0x1f
0000671b l       .data	00000000 I_srai_cg_cr_rs1_imm_edges_uimm_rs1val_0x55555555_immval_0x1f_str
000013b8 l       .text.rvtest	00000000 I_srai_cg_cmp_rd_rs1_b0
00006776 l       .data	00000000 I_srai_cg_cmp_rd_rs1_b0_str
000013dc l       .text.rvtest	00000000 I_srai_cg_cmp_rd_rs1_b1
000067aa l       .data	00000000 I_srai_cg_cmp_rd_rs1_b1_str
00001400 l       .text.rvtest	00000000 I_srai_cg_cmp_rd_rs1_b2
000067de l       .data	00000000 I_srai_cg_cmp_rd_rs1_b2_str
00001424 l       .text.rvtest	00000000 I_srai_cg_cmp_rd_rs1_b3
00006812 l       .data	00000000 I_srai_cg_cmp_rd_rs1_b3_str
00001450 l       .text.rvtest	00000000 I_srai_cg_cmp_rd_rs1_b4
00006846 l       .data	00000000 I_srai_cg_cmp_rd_rs1_b4_str
00001474 l       .text.rvtest	00000000 I_srai_cg_cmp_rd_rs1_b5
0000687a l       .data	00000000 I_srai_cg_cmp_rd_rs1_b5_str
00001498 l       .text.rvtest	00000000 I_srai_cg_cmp_rd_rs1_b6
000068ae l       .data	00000000 I_srai_cg_cmp_rd_rs1_b6_str
000014c4 l       .text.rvtest	00000000 I_srai_cg_cmp_rd_rs1_b7
000068e2 l       .data	00000000 I_srai_cg_cmp_rd_rs1_b7_str
000014e8 l       .text.rvtest	00000000 I_srai_cg_cmp_rd_rs1_b8
00006916 l       .data	00000000 I_srai_cg_cmp_rd_rs1_b8_str
0000150c l       .text.rvtest	00000000 I_srai_cg_cmp_rd_rs1_b9
0000694a l       .data	00000000 I_srai_cg_cmp_rd_rs1_b9_str
00001530 l       .text.rvtest	00000000 I_srai_cg_cmp_rd_rs1_b10
0000697e l       .data	00000000 I_srai_cg_cmp_rd_rs1_b10_str
00001554 l       .text.rvtest	00000000 I_srai_cg_cmp_rd_rs1_b11
000069b3 l       .data	00000000 I_srai_cg_cmp_rd_rs1_b11_str
0000157c l       .text.rvtest	00000000 I_srai_cg_cmp_rd_rs1_b12
000069e8 l       .data	00000000 I_srai_cg_cmp_rd_rs1_b12_str
000015a8 l       .text.rvtest	00000000 I_srai_cg_cmp_rd_rs1_b13
00006a1d l       .data	00000000 I_srai_cg_cmp_rd_rs1_b13_str
000015cc l       .text.rvtest	00000000 I_srai_cg_cmp_rd_rs1_b14
00006a52 l       .data	00000000 I_srai_cg_cmp_rd_rs1_b14_str
000015f0 l       .text.rvtest	00000000 I_srai_cg_cmp_rd_rs1_b15
00006a87 l       .data	00000000 I_srai_cg_cmp_rd_rs1_b15_str
00001614 l       .text.rvtest	00000000 I_srai_cg_cmp_rd_rs1_b16
00006abc l       .data	00000000 I_srai_cg_cmp_rd_rs1_b16_str
00001638 l       .text.rvtest	00000000 I_srai_cg_cmp_rd_rs1_b17
00006af1 l       .data	00000000 I_srai_cg_cmp_rd_rs1_b17_str
0000165c l       .text.rvtest	00000000 I_srai_cg_cmp_rd_rs1_b18
00006b26 l       .data	00000000 I_srai_cg_cmp_rd_rs1_b18_str
00001680 l       .text.rvtest	00000000 I_srai_cg_cmp_rd_rs1_b19
00006b5b l       .data	00000000 I_srai_cg_cmp_rd_rs1_b19_str
000016a4 l       .text.rvtest	00000000 I_srai_cg_cmp_rd_rs1_b20
00006b90 l       .data	00000000 I_srai_cg_cmp_rd_rs1_b20_str
000016c8 l       .text.rvtest	00000000 I_srai_cg_cmp_rd_rs1_b21
00006bc5 l       .data	00000000 I_srai_cg_cmp_rd_rs1_b21_str
000016ec l       .text.rvtest	00000000 I_srai_cg_cmp_rd_rs1_b22
00006bfa l       .data	00000000 I_srai_cg_cmp_rd_rs1_b22_str
00001710 l       .text.rvtest	00000000 I_srai_cg_cmp_rd_rs1_b23
00006c2f l       .data	00000000 I_srai_cg_cmp_rd_rs1_b23_str
00001734 l       .text.rvtest	00000000 I_srai_cg_cmp_rd_rs1_b24
00006c64 l       .data	00000000 I_srai_cg_cmp_rd_rs1_b24_str
00001758 l       .text.rvtest	00000000 I_srai_cg_cmp_rd_rs1_b25
00006c99 l       .data	00000000 I_srai_cg_cmp_rd_rs1_b25_str
00001780 l       .text.rvtest	00000000 I_srai_cg_cmp_rd_rs1_b26
00006cce l       .data	00000000 I_srai_cg_cmp_rd_rs1_b26_str
000017a4 l       .text.rvtest	00000000 I_srai_cg_cmp_rd_rs1_b27
00006d03 l       .data	00000000 I_srai_cg_cmp_rd_rs1_b27_str
000017c8 l       .text.rvtest	00000000 I_srai_cg_cmp_rd_rs1_b28
00006d38 l       .data	00000000 I_srai_cg_cmp_rd_rs1_b28_str
000017ec l       .text.rvtest	00000000 I_srai_cg_cmp_rd_rs1_b29
00006d6d l       .data	00000000 I_srai_cg_cmp_rd_rs1_b29_str
00001810 l       .text.rvtest	00000000 I_srai_cg_cmp_rd_rs1_b30
00006da2 l       .data	00000000 I_srai_cg_cmp_rd_rs1_b30_str
00001834 l       .text.rvtest	00000000 I_srai_cg_cmp_rd_rs1_b31
00006dd7 l       .data	00000000 I_srai_cg_cmp_rd_rs1_b31_str
00001858 l       .text.rvtest	00000000 I_srai_cg_cp_uimm_uimm0
00006e0c l       .data	00000000 I_srai_cg_cp_uimm_uimm0_str
0000187c l       .text.rvtest	00000000 I_srai_cg_cp_uimm_uimm1
00006e40 l       .data	00000000 I_srai_cg_cp_uimm_uimm1_str
000018a0 l       .text.rvtest	00000000 I_srai_cg_cp_uimm_uimm2
00006e74 l       .data	00000000 I_srai_cg_cp_uimm_uimm2_str
000018c4 l       .text.rvtest	00000000 I_srai_cg_cp_uimm_uimm3
00006ea8 l       .data	00000000 I_srai_cg_cp_uimm_uimm3_str
000018e8 l       .text.rvtest	00000000 I_srai_cg_cp_uimm_uimm4
00006edc l       .data	00000000 I_srai_cg_cp_uimm_uimm4_str
0000190c l       .text.rvtest	00000000 I_srai_cg_cp_uimm_uimm5
00006f10 l       .data	00000000 I_srai_cg_cp_uimm_uimm5_str
00001930 l       .text.rvtest	00000000 I_srai_cg_cp_uimm_uimm6
00006f44 l       .data	00000000 I_srai_cg_cp_uimm_uimm6_str
00001954 l       .text.rvtest	00000000 I_srai_cg_cp_uimm_uimm7
00006f78 l       .data	00000000 I_srai_cg_cp_uimm_uimm7_str
00001978 l       .text.rvtest	00000000 I_srai_cg_cp_uimm_uimm8
00006fac l       .data	00000000 I_srai_cg_cp_uimm_uimm8_str
0000199c l       .text.rvtest	00000000 I_srai_cg_cp_uimm_uimm9
00006fe0 l       .data	00000000 I_srai_cg_cp_uimm_uimm9_str
000019c0 l       .text.rvtest	00000000 I_srai_cg_cp_uimm_uimm10
00007014 l       .data	00000000 I_srai_cg_cp_uimm_uimm10_str
000019e4 l       .text.rvtest	00000000 I_srai_cg_cp_uimm_uimm11
00007049 l       .data	00000000 I_srai_cg_cp_uimm_uimm11_str
00001a08 l       .text.rvtest	00000000 I_srai_cg_cp_uimm_uimm12
0000707e l       .data	00000000 I_srai_cg_cp_uimm_uimm12_str
00001a2c l       .text.rvtest	00000000 I_srai_cg_cp_uimm_uimm13
000070b3 l       .data	00000000 I_srai_cg_cp_uimm_uimm13_str
00001a50 l       .text.rvtest	00000000 I_srai_cg_cp_uimm_uimm14
000070e8 l       .data	00000000 I_srai_cg_cp_uimm_uimm14_str
00001a74 l       .text.rvtest	00000000 I_srai_cg_cp_uimm_uimm15
0000711d l       .data	00000000 I_srai_cg_cp_uimm_uimm15_str
00001a98 l       .text.rvtest	00000000 I_srai_cg_cp_uimm_uimm16
00007152 l       .data	00000000 I_srai_cg_cp_uimm_uimm16_str
00001abc l       .text.rvtest	00000000 I_srai_cg_cp_uimm_uimm17
00007187 l       .data	00000000 I_srai_cg_cp_uimm_uimm17_str
00001ae0 l       .text.rvtest	00000000 I_srai_cg_cp_uimm_uimm18
000071bc l       .data	00000000 I_srai_cg_cp_uimm_uimm18_str
00001b04 l       .text.rvtest	00000000 I_srai_cg_cp_uimm_uimm19
000071f1 l       .data	00000000 I_srai_cg_cp_uimm_uimm19_str
00001b28 l       .text.rvtest	00000000 I_srai_cg_cp_uimm_uimm20
00007226 l       .data	00000000 I_srai_cg_cp_uimm_uimm20_str
00001b4c l       .text.rvtest	00000000 I_srai_cg_cp_uimm_uimm21
0000725b l       .data	00000000 I_srai_cg_cp_uimm_uimm21_str
00001b70 l       .text.rvtest	00000000 I_srai_cg_cp_uimm_uimm22
00007290 l       .data	00000000 I_srai_cg_cp_uimm_uimm22_str
00001b94 l       .text.rvtest	00000000 I_srai_cg_cp_uimm_uimm23
000072c5 l       .data	00000000 I_srai_cg_cp_uimm_uimm23_str
00001bb8 l       .text.rvtest	00000000 I_srai_cg_cp_uimm_uimm24
000072fa l       .data	00000000 I_srai_cg_cp_uimm_uimm24_str
00001bdc l       .text.rvtest	00000000 I_srai_cg_cp_uimm_uimm25
0000732f l       .data	00000000 I_srai_cg_cp_uimm_uimm25_str
00001c00 l       .text.rvtest	00000000 I_srai_cg_cp_uimm_uimm26
00007364 l       .data	00000000 I_srai_cg_cp_uimm_uimm26_str
00001c24 l       .text.rvtest	00000000 I_srai_cg_cp_uimm_uimm27
00007399 l       .data	00000000 I_srai_cg_cp_uimm_uimm27_str
00001c48 l       .text.rvtest	00000000 I_srai_cg_cp_uimm_uimm28
000073ce l       .data	00000000 I_srai_cg_cp_uimm_uimm28_str
00001c6c l       .text.rvtest	00000000 I_srai_cg_cp_uimm_uimm29
00007403 l       .data	00000000 I_srai_cg_cp_uimm_uimm29_str
00001c90 l       .text.rvtest	00000000 I_srai_cg_cp_uimm_uimm30
00007438 l       .data	00000000 I_srai_cg_cp_uimm_uimm30_str
00001cb4 l       .text.rvtest	00000000 I_srai_cg_cp_uimm_uimm31
0000746d l       .data	00000000 I_srai_cg_cp_uimm_uimm31_str
00001cd4 l       .text.rvtest	00000000 exit_cleanup
00007b14 l       .data	00000000 successstr
00018204 l       .text.rvmodel	00000000 rvmodel_io_write_str
00018208 l       .text.rvmodel	00000000 rvmodel_halt_pass
00001d10 l       .text.rvtest	00000000 abort_test
6f5ca309 l       *ABS*	00000000 immx
6f5ca309 l       *ABS*	00000000 absimm
00000000 l       *ABS*	00000000 cry
00000309 l       *ABS*	00000000 imm12
000074b0 l       .data	00000000 begin_failure_scratch
00001de0 l       .text.rvtest	00000000 failedtest_saveregs
00001d84 l       .text.rvtest	00000000 failedtest_trap_x7_x9
00007620 l       .data	00000000 saved_mcause
00007628 l       .data	00000000 saved_mtval
00007630 l       .data	00000000 saved_mstatus
00001e50 l       .text.rvtest	00000000 failedtest_saveresults
000074b0 l       .data	00000000 failure_type
00001ecc l       .text.rvtest	00000000 failedtest_saveresults_trap
00001e60 l       .text.rvtest	00000000 failedtest_saveresults_int
000022a0 l       .text.rvtest	00000000 failedtest_saveresults_common
00007608 l       .data	00000000 trap_diag_fail_str_ptr
00007cdc l       .data	00000000 trap_sig_offset_mismatch
00002180 l       .text.rvtest	00000000 trap_diag_offset_mismatch
000075e0 l       .data	00000000 trap_diag_subtype
00007d40 l       .data	00000000 sv_Mvect_str
00002200 l       .text.rvtest	00000000 trap_diag_field_identified
00007e42 l       .data	00000000 sv_Mcause_str
00007f3d l       .data	00000000 sv_Mepc_str
00008030 l       .data	00000000 sv_Mtval_str
000081a3 l       .data	00000000 sv_Mip_str
00008127 l       .data	00000000 sv_Mtval2_str
00008165 l       .data	00000000 sv_Mtinst_str
00007d80 l       .data	00000000 sv_Svect_str
00007e80 l       .data	00000000 sv_Scause_str
00007f79 l       .data	00000000 sv_Sepc_str
0000806d l       .data	00000000 sv_Stval_str
000081de l       .data	00000000 sv_Sip_str
00007dc0 l       .data	00000000 sv_Hvect_str
00007ebe l       .data	00000000 sv_Hcause_str
00007fb5 l       .data	00000000 sv_Hepc_str
000080aa l       .data	00000000 sv_Htval_str
00008219 l       .data	00000000 sv_Hip_str
00007e01 l       .data	00000000 sv_Vvect_str
00007efd l       .data	00000000 sv_Vcause_str
00007ff2 l       .data	00000000 sv_Vepc_str
000080e8 l       .data	00000000 sv_Vtval_str
00008255 l       .data	00000000 sv_Vip_str
00008292 l       .data	00000000 Mclr_Mext_int_str
000082e1 l       .data	00000000 Mclr_Sext_int_str
000083dc l       .data	00000000 Sclr_Sext_int_str
000084d8 l       .data	00000000 Hclr_Sext_int_str
00002290 l       .text.rvtest	00000000 trap_diag_generic_report
000075f8 l       .data	00000000 trap_diag_actual_offset
00007600 l       .data	00000000 trap_diag_expected_offset
000075e4 l       .data	00000000 trap_diag_mode
000075e8 l       .data	00000000 trap_diag_actual_value
000075f0 l       .data	00000000 trap_diag_expected_value
000022d0 l       .text.rvtest	00000000 failedtest_report
000022d0 l       .text.rvtest	00000000 print_failstr
00007b4b l       .data	00000000 failstr
00002308 l       .text.rvtest	00000000 print_testnamestr
00007bdf l       .data	00000000 testnamestr
00002348 l       .text.rvtest	00000000 print_failure_test_name_str
000075d0 l       .data	00000000 failure_string_ptr
00002358 l       .text.rvtest	00000000 print_newline_str
00007bf1 l       .data	00000000 newlinestr
0000278c l       .text.rvtest	00000000 failedtest_report_trap_detailed
00007bf3 l       .data	00000000 inststr
000075b0 l       .data	00000000 failing_instruction
000036d8 l       .text.rvtest	00000000 failedtest_hex_to_str
00007638 l       .data	00000000 ascii_buffer
00007c07 l       .data	00000000 addrstr
000075b8 l       .data	00000000 failing_addr
00008684 l       .data	00000000 regstr
00002538 l       .text.rvtest	00000000 failedtest_report_not_intreg
000075b4 l       .data	00000000 failing_reg
00003754 l       .text.rvtest	00000000 failedtest_dec_to_str
00002614 l       .text.rvtest	00000000 failedtest_report_print_regstr
0000258c l       .text.rvtest	00000000 failedtest_report_fpreg
000025d8 l       .text.rvtest	00000000 failedtest_report_vecreg
000086e4 l       .data	00000000 fflagsstr
00002648 l       .text.rvtest	00000000 failedtest_report_after_reg
00008695 l       .data	00000000 badvalstr
000026ac l       .text.rvtest	00000000 failedtest_report_badval_not_fp
000075c0 l       .data	00000000 failing_value
000026bc l       .text.rvtest	00000000 failedtest_report_badval_done
000086ac l       .data	00000000 expvalstr
0000274c l       .text.rvtest	00000000 failedtest_report_expval_not_fp
000075c8 l       .data	00000000 expected_value
0000275c l       .text.rvtest	00000000 failedtest_report_expval_done
00003484 l       .text.rvtest	00000000 failedtest_report_end
00008710 l       .data	00000000 trap_diag_header_str
0000873c l       .data	00000000 trap_diag_origstr_label
00002860 l       .text.rvtest	00000000 trap_report_offset_mismatch
00003310 l       .text.rvtest	00000000 trap_report_generic
00002bd4 l       .text.rvtest	00000000 trap_report_field_mismatch
0000874c l       .data	00000000 trap_diag_count_mismatch_str
000087ad l       .data	00000000 trap_diag_expected_offset_str
000087d4 l       .data	00000000 trap_diag_actual_offset_str
00002ab4 l       .text.rvtest	00000000 trap_report_missing_traps
0000299c l       .text.rvtest	00000000 trap_report_extra_traps
000087fb l       .data	00000000 trap_diag_extra_traps_str
00008880 l       .data	00000000 trap_diag_extra_bytes_str
000088ab l       .data	00000000 trap_diag_extra_hint_str
000034d0 l       .text.rvtest	00000000 failedtest_print_csr_context
00008835 l       .data	00000000 trap_diag_missing_traps_str
00008993 l       .data	00000000 trap_diag_missing_hint_str
00008a7a l       .data	00000000 trap_diag_handler_mode_str
00002c64 l       .text.rvtest	00000000 trap_mode_m
00002ca4 l       .text.rvtest	00000000 trap_mode_s
00002ce4 l       .text.rvtest	00000000 trap_mode_h
00002d24 l       .text.rvtest	00000000 trap_mode_v
00008ab6 l       .data	00000000 trap_diag_mode_unknown_str
00002d60 l       .text.rvtest	00000000 trap_mode_print
00008a94 l       .data	00000000 trap_diag_mode_m_str
00008a9c l       .data	00000000 trap_diag_mode_s_str
00008aa4 l       .data	00000000 trap_diag_mode_hs_str
00008aad l       .data	00000000 trap_diag_mode_vs_str
00008abf l       .data	00000000 trap_diag_field_str
00002e24 l       .text.rvtest	00000000 trap_field_vect
00002e64 l       .text.rvtest	00000000 trap_field_cause
00002ea4 l       .text.rvtest	00000000 trap_field_epc
00002ee4 l       .text.rvtest	00000000 trap_field_tval
00002f24 l       .text.rvtest	00000000 trap_field_ip
00002f64 l       .text.rvtest	00000000 trap_field_tval2
00002fa4 l       .text.rvtest	00000000 trap_field_tinst
00002fe4 l       .text.rvtest	00000000 trap_field_intid
00008c16 l       .data	00000000 trap_diag_field_unknown_str
00003020 l       .text.rvtest	00000000 trap_field_print
00008ad9 l       .data	00000000 trap_diag_field_vect_str
00008b0a l       .data	00000000 trap_diag_field_cause_str
00008b2a l       .data	00000000 trap_diag_field_epc_str
00008b48 l       .data	00000000 trap_diag_field_tval_str
00008b67 l       .data	00000000 trap_diag_field_ip_str
00008b8f l       .data	00000000 trap_diag_field_tval2_str
00008bbb l       .data	00000000 trap_diag_field_tinst_str
00008be7 l       .data	00000000 trap_diag_field_intid_str
00008c25 l       .data	00000000 trap_diag_expected_str
00008c3c l       .data	00000000 trap_diag_actual_str
000031bc l       .text.rvtest	00000000 trap_field_not_cause
00008c53 l       .data	00000000 trap_diag_expected_cause_name_str
000033f4 l       .text.rvtest	00000000 trap_cause_to_str
00008c6a l       .data	00000000 trap_diag_actual_cause_name_str
000031bc l       .text.rvtest	00000000 trap_field_not_epc
00008ce0 l       .data	00000000 trap_diag_hint_vect_str
00008db6 l       .data	00000000 trap_diag_hint_cause_str
00008ea9 l       .data	00000000 trap_diag_hint_epc_str
00008fa4 l       .data	00000000 trap_diag_hint_tval_str
0000908b l       .data	00000000 trap_diag_hint_ip_str
00008c98 l       .data	00000000 trap_diag_generic_str
00007618 l       .data	00000000 saved_mepc
00007c7b l       .data	00000000 xepcinstrstr
00003418 l       .text.rvtest	00000000 trap_cause_interrupt
000033f8 l       .text.rvtest	00000000 trap_cause_exception
00003444 l       .text.rvtest	00000000 trap_cause_unknown
00007660 l       .data	00000000 trap_excpt_name_tbl
000076c0 l       .data	00000000 trap_int_name_tbl
00007afe l       .data	00000000 trap_cause_unknown_str
000086c3 l       .data	00000000 endstr
000034c8 l       .text.rvtest	00000000 failedtest_terminate
00018214 l       .text.rvmodel	00000000 rvmodel_halt_fail
00007610 l       .data	00000000 csr_context_ret_addr
00007c9c l       .data	00000000 mepcstr
00007cac l       .data	00000000 mcausestr
00007cbc l       .data	00000000 mtvalstr
00007ccc l       .data	00000000 mstatusstr
00003718 l       .text.rvtest	00000000 failedtest_hex_to_str_loop
00003734 l       .text.rvtest	00000000 failedtest_hex_to_str_digit
00003738 l       .text.rvtest	00000000 failedtest_hex_to_str_write
00018000 l       .text.rvmodel	00000000 rvtest_boot_to_mmode
00018000 l       .text.rvmodel	00000000 rvtest_init_regs
00009170 l       .data	00000000 signature_base
000181a0 l       .text.rvmodel	00000000 canary_check
000086ec l       .data	00000000 canary_mismatch
00004000 l       .data	00000000 scratch
00007660 l       .data	00000000 end_failure_scratch
00007700 l       .data	00000000 trap_excpt_name_0
00007720 l       .data	00000000 trap_excpt_name_1
0000773a l       .data	00000000 trap_excpt_name_2
0000774f l       .data	00000000 trap_excpt_name_3
0000775b l       .data	00000000 trap_excpt_name_4
00007774 l       .data	00000000 trap_excpt_name_5
00007787 l       .data	00000000 trap_excpt_name_6
000077a5 l       .data	00000000 trap_excpt_name_7
000077bd l       .data	00000000 trap_excpt_name_8
000077db l       .data	00000000 trap_excpt_name_9
000077f9 l       .data	00000000 trap_excpt_name_10
00007818 l       .data	00000000 trap_excpt_name_11
00007836 l       .data	00000000 trap_excpt_name_12
0000784e l       .data	00000000 trap_excpt_name_13
0000785f l       .data	00000000 trap_excpt_name_14
0000786e l       .data	00000000 trap_excpt_name_15
00007884 l       .data	00000000 trap_excpt_name_16
00007891 l       .data	00000000 trap_excpt_name_17
000078a0 l       .data	00000000 trap_excpt_name_18
000078b0 l       .data	00000000 trap_excpt_name_19
000078c0 l       .data	00000000 trap_excpt_name_20
000078de l       .data	00000000 trap_excpt_name_21
000078f5 l       .data	00000000 trap_excpt_name_22
0000790a l       .data	00000000 trap_excpt_name_23
00007926 l       .data	00000000 trap_int_name_0
0000793e l       .data	00000000 trap_int_name_1
0000795d l       .data	00000000 trap_int_name_2
00007984 l       .data	00000000 trap_int_name_3
000079a0 l       .data	00000000 trap_int_name_4
000079b8 l       .data	00000000 trap_int_name_5
000079d4 l       .data	00000000 trap_int_name_6
000079f8 l       .data	00000000 trap_int_name_7
00007a11 l       .data	00000000 trap_int_name_8
00007a29 l       .data	00000000 trap_int_name_9
00007a48 l       .data	00000000 trap_int_name_10
00007a6f l       .data	00000000 trap_int_name_11
00007a8b l       .data	00000000 trap_int_name_12
00007ab0 l       .data	00000000 trap_int_name_13
00007acc l       .data	00000000 trap_int_name_14
00007ae5 l       .data	00000000 trap_int_name_15
00007ba1 l       .data	00000000 abortstr
00007c48 l       .data	00000000 xepcstr
00008333 l       .data	00000000 Mclr_Vext_int_str
0000838d l       .data	00000000 Sclr_Mext_int_str
0000842e l       .data	00000000 Sclr_Vext_int_str
00008488 l       .data	00000000 Hclr_Mext_int_str
0000852b l       .data	00000000 Hclr_Vext_int_str
00008586 l       .data	00000000 Vclr_Mext_int_str
000085d6 l       .data	00000000 Vclr_Sext_int_str
00008629 l       .data	00000000 Vclr_Vext_int_str
00008c81 l       .data	00000000 trap_diag_curr_xepc_str
000094c0 l       .data	00000000 trap_sigptr
00017f30 g       .data	00000000 end_signature
00017f30 g       .data	00000000 rvtest_sig_end
00000000 g       .text.init	00000000 rvtest_entry_point
00009170 g       .data	00000000 begin_signature
00001cd4 g       .text.rvtest	00000000 rvtest_code_end
00000040 g       .text.rvtest	00000000 rvtest_code_begin
00009170 g       .data	00000000 rvtest_sig_begin
00004110 g       .data	00000000 rvtest_data_begin
00009170 g       .data	00000000 rvtest_data_end
00001cd4 g       .text.rvtest	00000000 cleanup_epilogs
00019000 g       .text.rvmodel	00000000 _end



Disassembly of section .text.init:

00000000 <rvtest_entry_point>:

// Include framework macros
#include "riscv_arch_test.h"

// Set up test environment and declare main entry point
RVTEST_BEGIN
   0:	00018097          	auipc	x1,0x18
   4:	00008093          	addi	x1,x1,0 # 18000 <rvmodel_boot>
   8:	00000013          	addi	x0,x0,0
   c:	00000013          	addi	x0,x0,0
  10:	00000013          	addi	x0,x0,0
  14:	00000013          	addi	x0,x0,0
  18:	00000013          	addi	x0,x0,0
  1c:	00000013          	addi	x0,x0,0
  20:	000080e7          	jalr	x1,0(x1)
  24:	00000013          	addi	x0,x0,0
  28:	00000013          	addi	x0,x0,0
  2c:	00000013          	addi	x0,x0,0
  30:	00000013          	addi	x0,x0,0
  34:	00000013          	addi	x0,x0,0
  38:	00000013          	addi	x0,x0,0
  3c:	00000013          	addi	x0,x0,0

Disassembly of section .text.rvtest:

00000040 <rvtest_code_begin>:
/////////////////////////////////
// cp_rs1
/////////////////////////////////

# Testcase cp_rs1 (Test source rs1 = x0)
  RVTEST_TESTDATA_LOAD_INT(x3, x0) # load rs1: x0 = 0xc891ebff
      40:	0001a003          	lw	x0,0(x3)
      44:	00418193          	addi	x3,x3,4

00000048 <I_srai_cg_cp_rs1_b0>:
I_srai_cg_cp_rs1_b0:
  srai x17, x0, 10 # perform operation
      48:	40a05893          	srai	x17,x0,0xa
  # Check if x17 contains the expected result. x2 is the signature ptr, x5 is the link ptr, x4 is a temp reg.
  RVTEST_SIGUPD(x2, x5, x4, x17, I_srai_cg_cp_rs1_b0, I_srai_cg_cp_rs1_b0_str)
      4c:	00012203          	lw	x4,0(x2)
      50:	01120863          	beq	x4,x17,60 <I_srai_cg_cp_rs1_b0+0x18>
      54:	4c9012ef          	jal	x5,1d1c <failedtest_x5_x4>
      58:	00000048          	.word	0x00000048
      5c:	00004430          	.word	0x00004430
      60:	00410113          	addi	x2,x2,4

# Testcase cp_rs1 (Test source rs1 = x1)
  RVTEST_TESTDATA_LOAD_INT(x3, x1) # load rs1: x1 = 0x2108ed79
      64:	0001a083          	lw	x1,0(x3)
      68:	00418193          	addi	x3,x3,4

0000006c <I_srai_cg_cp_rs1_b1>:
I_srai_cg_cp_rs1_b1:
  srai x24, x1, 31 # perform operation
      6c:	41f0dc13          	srai	x24,x1,0x1f
  # Check if x24 contains the expected result. x2 is the signature ptr, x5 is the link ptr, x4 is a temp reg.
  RVTEST_SIGUPD(x2, x5, x4, x24, I_srai_cg_cp_rs1_b1, I_srai_cg_cp_rs1_b1_str)
      70:	00012203          	lw	x4,0(x2)
      74:	01820863          	beq	x4,x24,84 <I_srai_cg_cp_rs1_b1+0x18>
      78:	4a5012ef          	jal	x5,1d1c <failedtest_x5_x4>
      7c:	0000006c          	.word	0x0000006c
      80:	0000445e          	.word	0x0000445e
      84:	00410113          	addi	x2,x2,4

  mv x22, x2 # switch signature pointer register to avoid conflict with test
      88:	00010b13          	addi	x22,x2,0
# Testcase cp_rs1 (Test source rs1 = x2)
  RVTEST_TESTDATA_LOAD_INT(x3, x2) # load rs1: x2 = 0xc76e3a3f
      8c:	0001a103          	lw	x2,0(x3)
      90:	00418193          	addi	x3,x3,4

00000094 <I_srai_cg_cp_rs1_b2>:
I_srai_cg_cp_rs1_b2:
  srai x19, x2, 5 # perform operation
      94:	40515993          	srai	x19,x2,0x5
  # Check if x19 contains the expected result. x22 is the signature ptr, x5 is the link ptr, x4 is a temp reg.
  RVTEST_SIGUPD(x22, x5, x4, x19, I_srai_cg_cp_rs1_b2, I_srai_cg_cp_rs1_b2_str)
      98:	000b2203          	lw	x4,0(x22)
      9c:	01320863          	beq	x4,x19,ac <I_srai_cg_cp_rs1_b2+0x18>
      a0:	47d012ef          	jal	x5,1d1c <failedtest_x5_x4>
      a4:	00000094          	.word	0x00000094
      a8:	0000448c          	.word	0x0000448c
      ac:	004b0b13          	addi	x22,x22,4

  mv x1, x3 # switch data pointer register to avoid conflict with test
      b0:	00018093          	addi	x1,x3,0
# Testcase cp_rs1 (Test source rs1 = x3)
  RVTEST_TESTDATA_LOAD_INT(x1, x3) # load rs1: x3 = 0x88e3dab8
      b4:	0000a183          	lw	x3,0(x1)
      b8:	00408093          	addi	x1,x1,4

000000bc <I_srai_cg_cp_rs1_b3>:
I_srai_cg_cp_rs1_b3:
  srai x30, x3, 25 # perform operation
      bc:	4191df13          	srai	x30,x3,0x19
  # Check if x30 contains the expected result. x22 is the signature ptr, x5 is the link ptr, x4 is a temp reg.
  RVTEST_SIGUPD(x22, x5, x4, x30, I_srai_cg_cp_rs1_b3, I_srai_cg_cp_rs1_b3_str)
      c0:	000b2203          	lw	x4,0(x22)
      c4:	01e20863          	beq	x4,x30,d4 <I_srai_cg_cp_rs1_b3+0x18>
      c8:	455012ef          	jal	x5,1d1c <failedtest_x5_x4>
      cc:	000000bc          	.word	0x000000bc
      d0:	000044ba          	.word	0x000044ba
      d4:	004b0b13          	addi	x22,x22,4

  mv x7, x4 # switch temp register to avoid conflict with test
      d8:	00020393          	addi	x7,x4,0 # 0 <rvtest_entry_point>
  mv x8, x5 # switch link pointer register to avoid conflict with test
      dc:	00028413          	addi	x8,x5,0
# Testcase cp_rs1 (Test source rs1 = x4)
  RVTEST_TESTDATA_LOAD_INT(x1, x4) # load rs1: x4 = 0xc0a9d558
      e0:	0000a203          	lw	x4,0(x1)
      e4:	00408093          	addi	x1,x1,4

000000e8 <I_srai_cg_cp_rs1_b4>:
I_srai_cg_cp_rs1_b4:
  srai x27, x4, 22 # perform operation
      e8:	41625d93          	srai	x27,x4,0x16
  # Check if x27 contains the expected result. x22 is the signature ptr, x8 is the link ptr, x7 is a temp reg.
  RVTEST_SIGUPD(x22, x8, x7, x27, I_srai_cg_cp_rs1_b4, I_srai_cg_cp_rs1_b4_str)
      ec:	000b2383          	lw	x7,0(x22)
      f0:	01b38863          	beq	x7,x27,100 <I_srai_cg_cp_rs1_b4+0x18>
      f4:	4410146f          	jal	x8,1d34 <failedtest_x8_x7>
      f8:	000000e8          	.word	0x000000e8
      fc:	000044e8          	.word	0x000044e8
     100:	004b0b13          	addi	x22,x22,4

# Testcase cp_rs1 (Test source rs1 = x5)
  RVTEST_TESTDATA_LOAD_INT(x1, x5) # load rs1: x5 = 0x76fbb36c
     104:	0000a283          	lw	x5,0(x1)
     108:	00408093          	addi	x1,x1,4

0000010c <I_srai_cg_cp_rs1_b5>:
I_srai_cg_cp_rs1_b5:
  srai x15, x5, 7 # perform operation
     10c:	4072d793          	srai	x15,x5,0x7
  # Check if x15 contains the expected result. x22 is the signature ptr, x8 is the link ptr, x7 is a temp reg.
  RVTEST_SIGUPD(x22, x8, x7, x15, I_srai_cg_cp_rs1_b5, I_srai_cg_cp_rs1_b5_str)
     110:	000b2383          	lw	x7,0(x22)
     114:	00f38863          	beq	x7,x15,124 <I_srai_cg_cp_rs1_b5+0x18>
     118:	41d0146f          	jal	x8,1d34 <failedtest_x8_x7>
     11c:	0000010c          	.word	0x0000010c
     120:	00004516          	.word	0x00004516
     124:	004b0b13          	addi	x22,x22,4

# Testcase cp_rs1 (Test source rs1 = x6)
  RVTEST_TESTDATA_LOAD_INT(x1, x6) # load rs1: x6 = 0xf166f6c5
     128:	0000a303          	lw	x6,0(x1)
     12c:	00408093          	addi	x1,x1,4

00000130 <I_srai_cg_cp_rs1_b6>:
I_srai_cg_cp_rs1_b6:
  srai x28, x6, 5 # perform operation
     130:	40535e13          	srai	x28,x6,0x5
  # Check if x28 contains the expected result. x22 is the signature ptr, x8 is the link ptr, x7 is a temp reg.
  RVTEST_SIGUPD(x22, x8, x7, x28, I_srai_cg_cp_rs1_b6, I_srai_cg_cp_rs1_b6_str)
     134:	000b2383          	lw	x7,0(x22)
     138:	01c38863          	beq	x7,x28,148 <I_srai_cg_cp_rs1_b6+0x18>
     13c:	3f90146f          	jal	x8,1d34 <failedtest_x8_x7>
     140:	00000130          	.word	0x00000130
     144:	00004544          	.word	0x00004544
     148:	004b0b13          	addi	x22,x22,4

  mv x13, x7 # switch temp register to avoid conflict with test
     14c:	00038693          	addi	x13,x7,0
  mv x14, x8 # switch link pointer register to avoid conflict with test
     150:	00040713          	addi	x14,x8,0
# Testcase cp_rs1 (Test source rs1 = x7)
  RVTEST_TESTDATA_LOAD_INT(x1, x7) # load rs1: x7 = 0xd097b5c4
     154:	0000a383          	lw	x7,0(x1)
     158:	00408093          	addi	x1,x1,4

0000015c <I_srai_cg_cp_rs1_b7>:
I_srai_cg_cp_rs1_b7:
  srai x19, x7, 10 # perform operation
     15c:	40a3d993          	srai	x19,x7,0xa
  # Check if x19 contains the expected result. x22 is the signature ptr, x14 is the link ptr, x13 is a temp reg.
  RVTEST_SIGUPD(x22, x14, x13, x19, I_srai_cg_cp_rs1_b7, I_srai_cg_cp_rs1_b7_str)
     160:	000b2683          	lw	x13,0(x22)
     164:	01368863          	beq	x13,x19,174 <I_srai_cg_cp_rs1_b7+0x18>
     168:	3f50176f          	jal	x14,1d5c <failedtest_x14_x13>
     16c:	0000015c          	.word	0x0000015c
     170:	00004572          	.word	0x00004572
     174:	004b0b13          	addi	x22,x22,4

# Testcase cp_rs1 (Test source rs1 = x8)
  RVTEST_TESTDATA_LOAD_INT(x1, x8) # load rs1: x8 = 0x32ab3eb1
     178:	0000a403          	lw	x8,0(x1)
     17c:	00408093          	addi	x1,x1,4

00000180 <I_srai_cg_cp_rs1_b8>:
I_srai_cg_cp_rs1_b8:
  srai x17, x8, 28 # perform operation
     180:	41c45893          	srai	x17,x8,0x1c
  # Check if x17 contains the expected result. x22 is the signature ptr, x14 is the link ptr, x13 is a temp reg.
  RVTEST_SIGUPD(x22, x14, x13, x17, I_srai_cg_cp_rs1_b8, I_srai_cg_cp_rs1_b8_str)
     184:	000b2683          	lw	x13,0(x22)
     188:	01168863          	beq	x13,x17,198 <I_srai_cg_cp_rs1_b8+0x18>
     18c:	3d10176f          	jal	x14,1d5c <failedtest_x14_x13>
     190:	00000180          	.word	0x00000180
     194:	000045a0          	.word	0x000045a0
     198:	004b0b13          	addi	x22,x22,4

# Testcase cp_rs1 (Test source rs1 = x9)
  RVTEST_TESTDATA_LOAD_INT(x1, x9) # load rs1: x9 = 0xe53888bd
     19c:	0000a483          	lw	x9,0(x1)
     1a0:	00408093          	addi	x1,x1,4

000001a4 <I_srai_cg_cp_rs1_b9>:
I_srai_cg_cp_rs1_b9:
  srai x27, x9, 0 # perform operation
     1a4:	4004dd93          	srai	x27,x9,0x0
  # Check if x27 contains the expected result. x22 is the signature ptr, x14 is the link ptr, x13 is a temp reg.
  RVTEST_SIGUPD(x22, x14, x13, x27, I_srai_cg_cp_rs1_b9, I_srai_cg_cp_rs1_b9_str)
     1a8:	000b2683          	lw	x13,0(x22)
     1ac:	01b68863          	beq	x13,x27,1bc <I_srai_cg_cp_rs1_b9+0x18>
     1b0:	3ad0176f          	jal	x14,1d5c <failedtest_x14_x13>
     1b4:	000001a4          	.word	0x000001a4
     1b8:	000045ce          	.word	0x000045ce
     1bc:	004b0b13          	addi	x22,x22,4

# Testcase cp_rs1 (Test source rs1 = x10)
  RVTEST_TESTDATA_LOAD_INT(x1, x10) # load rs1: x10 = 0xd1c4b814
     1c0:	0000a503          	lw	x10,0(x1)
     1c4:	00408093          	addi	x1,x1,4

000001c8 <I_srai_cg_cp_rs1_b10>:
I_srai_cg_cp_rs1_b10:
  srai x25, x10, 4 # perform operation
     1c8:	40455c93          	srai	x25,x10,0x4
  # Check if x25 contains the expected result. x22 is the signature ptr, x14 is the link ptr, x13 is a temp reg.
  RVTEST_SIGUPD(x22, x14, x13, x25, I_srai_cg_cp_rs1_b10, I_srai_cg_cp_rs1_b10_str)
     1cc:	000b2683          	lw	x13,0(x22)
     1d0:	01968863          	beq	x13,x25,1e0 <I_srai_cg_cp_rs1_b10+0x18>
     1d4:	3890176f          	jal	x14,1d5c <failedtest_x14_x13>
     1d8:	000001c8          	.word	0x000001c8
     1dc:	000045fd          	.word	0x000045fd
     1e0:	004b0b13          	addi	x22,x22,4

# Testcase cp_rs1 (Test source rs1 = x11)
  RVTEST_TESTDATA_LOAD_INT(x1, x11) # load rs1: x11 = 0x7fdb959a
     1e4:	0000a583          	lw	x11,0(x1)
     1e8:	00408093          	addi	x1,x1,4

000001ec <I_srai_cg_cp_rs1_b11>:
I_srai_cg_cp_rs1_b11:
  srai x7, x11, 29 # perform operation
     1ec:	41d5d393          	srai	x7,x11,0x1d
  # Check if x7 contains the expected result. x22 is the signature ptr, x14 is the link ptr, x13 is a temp reg.
  RVTEST_SIGUPD(x22, x14, x13, x7, I_srai_cg_cp_rs1_b11, I_srai_cg_cp_rs1_b11_str)
     1f0:	000b2683          	lw	x13,0(x22)
     1f4:	00768863          	beq	x13,x7,204 <I_srai_cg_cp_rs1_b11+0x18>
     1f8:	3650176f          	jal	x14,1d5c <failedtest_x14_x13>
     1fc:	000001ec          	.word	0x000001ec
     200:	0000462d          	.word	0x0000462d
     204:	004b0b13          	addi	x22,x22,4

# Testcase cp_rs1 (Test source rs1 = x12)
  RVTEST_TESTDATA_LOAD_INT(x1, x12) # load rs1: x12 = 0xc1d39cc5
     208:	0000a603          	lw	x12,0(x1)
     20c:	00408093          	addi	x1,x1,4

00000210 <I_srai_cg_cp_rs1_b12>:
I_srai_cg_cp_rs1_b12:
  srai x18, x12, 18 # perform operation
     210:	41265913          	srai	x18,x12,0x12
  # Check if x18 contains the expected result. x22 is the signature ptr, x14 is the link ptr, x13 is a temp reg.
  RVTEST_SIGUPD(x22, x14, x13, x18, I_srai_cg_cp_rs1_b12, I_srai_cg_cp_rs1_b12_str)
     214:	000b2683          	lw	x13,0(x22)
     218:	01268863          	beq	x13,x18,228 <I_srai_cg_cp_rs1_b12+0x18>
     21c:	3410176f          	jal	x14,1d5c <failedtest_x14_x13>
     220:	00000210          	.word	0x00000210
     224:	0000465d          	.word	0x0000465d
     228:	004b0b13          	addi	x22,x22,4

  mv x7, x13 # switch temp register to avoid conflict with test
     22c:	00068393          	addi	x7,x13,0
  mv x8, x14 # switch link pointer register to avoid conflict with test
     230:	00070413          	addi	x8,x14,0
# Testcase cp_rs1 (Test source rs1 = x13)
  RVTEST_TESTDATA_LOAD_INT(x1, x13) # load rs1: x13 = 0x9e858e70
     234:	0000a683          	lw	x13,0(x1)
     238:	00408093          	addi	x1,x1,4

0000023c <I_srai_cg_cp_rs1_b13>:
I_srai_cg_cp_rs1_b13:
  srai x9, x13, 3 # perform operation
     23c:	4036d493          	srai	x9,x13,0x3
  # Check if x9 contains the expected result. x22 is the signature ptr, x8 is the link ptr, x7 is a temp reg.
  RVTEST_SIGUPD(x22, x8, x7, x9, I_srai_cg_cp_rs1_b13, I_srai_cg_cp_rs1_b13_str)
     240:	000b2383          	lw	x7,0(x22)
     244:	00938863          	beq	x7,x9,254 <I_srai_cg_cp_rs1_b13+0x18>
     248:	2ed0146f          	jal	x8,1d34 <failedtest_x8_x7>
     24c:	0000023c          	.word	0x0000023c
     250:	0000468d          	.word	0x0000468d
     254:	004b0b13          	addi	x22,x22,4

# Testcase cp_rs1 (Test source rs1 = x14)
  RVTEST_TESTDATA_LOAD_INT(x1, x14) # load rs1: x14 = 0x52d748a6
     258:	0000a703          	lw	x14,0(x1)
     25c:	00408093          	addi	x1,x1,4

00000260 <I_srai_cg_cp_rs1_b14>:
I_srai_cg_cp_rs1_b14:
  srai x11, x14, 14 # perform operation
     260:	40e75593          	srai	x11,x14,0xe
  # Check if x11 contains the expected result. x22 is the signature ptr, x8 is the link ptr, x7 is a temp reg.
  RVTEST_SIGUPD(x22, x8, x7, x11, I_srai_cg_cp_rs1_b14, I_srai_cg_cp_rs1_b14_str)
     264:	000b2383          	lw	x7,0(x22)
     268:	00b38863          	beq	x7,x11,278 <I_srai_cg_cp_rs1_b14+0x18>
     26c:	2c90146f          	jal	x8,1d34 <failedtest_x8_x7>
     270:	00000260          	.word	0x00000260
     274:	000046bd          	.word	0x000046bd
     278:	004b0b13          	addi	x22,x22,4

# Testcase cp_rs1 (Test source rs1 = x15)
  RVTEST_TESTDATA_LOAD_INT(x1, x15) # load rs1: x15 = 0x11010847
     27c:	0000a783          	lw	x15,0(x1)
     280:	00408093          	addi	x1,x1,4

00000284 <I_srai_cg_cp_rs1_b15>:
I_srai_cg_cp_rs1_b15:
  srai x25, x15, 6 # perform operation
     284:	4067dc93          	srai	x25,x15,0x6
  # Check if x25 contains the expected result. x22 is the signature ptr, x8 is the link ptr, x7 is a temp reg.
  RVTEST_SIGUPD(x22, x8, x7, x25, I_srai_cg_cp_rs1_b15, I_srai_cg_cp_rs1_b15_str)
     288:	000b2383          	lw	x7,0(x22)
     28c:	01938863          	beq	x7,x25,29c <I_srai_cg_cp_rs1_b15+0x18>
     290:	2a50146f          	jal	x8,1d34 <failedtest_x8_x7>
     294:	00000284          	.word	0x00000284
     298:	000046ed          	.word	0x000046ed
     29c:	004b0b13          	addi	x22,x22,4

# Testcase cp_rs1 (Test source rs1 = x16)
  RVTEST_TESTDATA_LOAD_INT(x1, x16) # load rs1: x16 = 0x6a642f32
     2a0:	0000a803          	lw	x16,0(x1)
     2a4:	00408093          	addi	x1,x1,4

000002a8 <I_srai_cg_cp_rs1_b16>:
I_srai_cg_cp_rs1_b16:
  srai x17, x16, 3 # perform operation
     2a8:	40385893          	srai	x17,x16,0x3
  # Check if x17 contains the expected result. x22 is the signature ptr, x8 is the link ptr, x7 is a temp reg.
  RVTEST_SIGUPD(x22, x8, x7, x17, I_srai_cg_cp_rs1_b16, I_srai_cg_cp_rs1_b16_str)
     2ac:	000b2383          	lw	x7,0(x22)
     2b0:	01138863          	beq	x7,x17,2c0 <I_srai_cg_cp_rs1_b16+0x18>
     2b4:	2810146f          	jal	x8,1d34 <failedtest_x8_x7>
     2b8:	000002a8          	.word	0x000002a8
     2bc:	0000471d          	.word	0x0000471d
     2c0:	004b0b13          	addi	x22,x22,4

# Testcase cp_rs1 (Test source rs1 = x17)
  RVTEST_TESTDATA_LOAD_INT(x1, x17) # load rs1: x17 = 0x5b84d4cf
     2c4:	0000a883          	lw	x17,0(x1)
     2c8:	00408093          	addi	x1,x1,4

000002cc <I_srai_cg_cp_rs1_b17>:
I_srai_cg_cp_rs1_b17:
  srai x13, x17, 28 # perform operation
     2cc:	41c8d693          	srai	x13,x17,0x1c
  # Check if x13 contains the expected result. x22 is the signature ptr, x8 is the link ptr, x7 is a temp reg.
  RVTEST_SIGUPD(x22, x8, x7, x13, I_srai_cg_cp_rs1_b17, I_srai_cg_cp_rs1_b17_str)
     2d0:	000b2383          	lw	x7,0(x22)
     2d4:	00d38863          	beq	x7,x13,2e4 <I_srai_cg_cp_rs1_b17+0x18>
     2d8:	25d0146f          	jal	x8,1d34 <failedtest_x8_x7>
     2dc:	000002cc          	.word	0x000002cc
     2e0:	0000474d          	.word	0x0000474d
     2e4:	004b0b13          	addi	x22,x22,4

# Testcase cp_rs1 (Test source rs1 = x18)
  RVTEST_TESTDATA_LOAD_INT(x1, x18) # load rs1: x18 = 0xc4b442f7
     2e8:	0000a903          	lw	x18,0(x1)
     2ec:	00408093          	addi	x1,x1,4

000002f0 <I_srai_cg_cp_rs1_b18>:
I_srai_cg_cp_rs1_b18:
  srai x13, x18, 6 # perform operation
     2f0:	40695693          	srai	x13,x18,0x6
  # Check if x13 contains the expected result. x22 is the signature ptr, x8 is the link ptr, x7 is a temp reg.
  RVTEST_SIGUPD(x22, x8, x7, x13, I_srai_cg_cp_rs1_b18, I_srai_cg_cp_rs1_b18_str)
     2f4:	000b2383          	lw	x7,0(x22)
     2f8:	00d38863          	beq	x7,x13,308 <I_srai_cg_cp_rs1_b18+0x18>
     2fc:	2390146f          	jal	x8,1d34 <failedtest_x8_x7>
     300:	000002f0          	.word	0x000002f0
     304:	0000477d          	.word	0x0000477d
     308:	004b0b13          	addi	x22,x22,4

# Testcase cp_rs1 (Test source rs1 = x19)
  RVTEST_TESTDATA_LOAD_INT(x1, x19) # load rs1: x19 = 0x04cdc54e
     30c:	0000a983          	lw	x19,0(x1)
     310:	00408093          	addi	x1,x1,4

00000314 <I_srai_cg_cp_rs1_b19>:
I_srai_cg_cp_rs1_b19:
  srai x30, x19, 28 # perform operation
     314:	41c9df13          	srai	x30,x19,0x1c
  # Check if x30 contains the expected result. x22 is the signature ptr, x8 is the link ptr, x7 is a temp reg.
  RVTEST_SIGUPD(x22, x8, x7, x30, I_srai_cg_cp_rs1_b19, I_srai_cg_cp_rs1_b19_str)
     318:	000b2383          	lw	x7,0(x22)
     31c:	01e38863          	beq	x7,x30,32c <I_srai_cg_cp_rs1_b19+0x18>
     320:	2150146f          	jal	x8,1d34 <failedtest_x8_x7>
     324:	00000314          	.word	0x00000314
     328:	000047ad          	.word	0x000047ad
     32c:	004b0b13          	addi	x22,x22,4

# Testcase cp_rs1 (Test source rs1 = x20)
  RVTEST_TESTDATA_LOAD_INT(x1, x20) # load rs1: x20 = 0x101905c2
     330:	0000aa03          	lw	x20,0(x1)
     334:	00408093          	addi	x1,x1,4

00000338 <I_srai_cg_cp_rs1_b20>:
I_srai_cg_cp_rs1_b20:
  srai x24, x20, 17 # perform operation
     338:	411a5c13          	srai	x24,x20,0x11
  # Check if x24 contains the expected result. x22 is the signature ptr, x8 is the link ptr, x7 is a temp reg.
  RVTEST_SIGUPD(x22, x8, x7, x24, I_srai_cg_cp_rs1_b20, I_srai_cg_cp_rs1_b20_str)
     33c:	000b2383          	lw	x7,0(x22)
     340:	01838863          	beq	x7,x24,350 <I_srai_cg_cp_rs1_b20+0x18>
     344:	1f10146f          	jal	x8,1d34 <failedtest_x8_x7>
     348:	00000338          	.word	0x00000338
     34c:	000047dd          	.word	0x000047dd
     350:	004b0b13          	addi	x22,x22,4

# Testcase cp_rs1 (Test source rs1 = x21)
  RVTEST_TESTDATA_LOAD_INT(x1, x21) # load rs1: x21 = 0x8d1cd9e4
     354:	0000aa83          	lw	x21,0(x1)
     358:	00408093          	addi	x1,x1,4

0000035c <I_srai_cg_cp_rs1_b21>:
I_srai_cg_cp_rs1_b21:
  srai x27, x21, 30 # perform operation
     35c:	41eadd93          	srai	x27,x21,0x1e
  # Check if x27 contains the expected result. x22 is the signature ptr, x8 is the link ptr, x7 is a temp reg.
  RVTEST_SIGUPD(x22, x8, x7, x27, I_srai_cg_cp_rs1_b21, I_srai_cg_cp_rs1_b21_str)
     360:	000b2383          	lw	x7,0(x22)
     364:	01b38863          	beq	x7,x27,374 <I_srai_cg_cp_rs1_b21+0x18>
     368:	1cd0146f          	jal	x8,1d34 <failedtest_x8_x7>
     36c:	0000035c          	.word	0x0000035c
     370:	0000480d          	.word	0x0000480d
     374:	004b0b13          	addi	x22,x22,4

  mv x27, x22 # switch signature pointer register to avoid conflict with test
     378:	000b0d93          	addi	x27,x22,0
# Testcase cp_rs1 (Test source rs1 = x22)
  RVTEST_TESTDATA_LOAD_INT(x1, x22) # load rs1: x22 = 0xaffef9c7
     37c:	0000ab03          	lw	x22,0(x1)
     380:	00408093          	addi	x1,x1,4

00000384 <I_srai_cg_cp_rs1_b22>:
I_srai_cg_cp_rs1_b22:
  srai x9, x22, 31 # perform operation
     384:	41fb5493          	srai	x9,x22,0x1f
  # Check if x9 contains the expected result. x27 is the signature ptr, x8 is the link ptr, x7 is a temp reg.
  RVTEST_SIGUPD(x27, x8, x7, x9, I_srai_cg_cp_rs1_b22, I_srai_cg_cp_rs1_b22_str)
     388:	000da383          	lw	x7,0(x27)
     38c:	00938863          	beq	x7,x9,39c <I_srai_cg_cp_rs1_b22+0x18>
     390:	1a50146f          	jal	x8,1d34 <failedtest_x8_x7>
     394:	00000384          	.word	0x00000384
     398:	0000483d          	.word	0x0000483d
     39c:	004d8d93          	addi	x27,x27,4

# Testcase cp_rs1 (Test source rs1 = x23)
  RVTEST_TESTDATA_LOAD_INT(x1, x23) # load rs1: x23 = 0x5f83e4b6
     3a0:	0000ab83          	lw	x23,0(x1)
     3a4:	00408093          	addi	x1,x1,4

000003a8 <I_srai_cg_cp_rs1_b23>:
I_srai_cg_cp_rs1_b23:
  srai x18, x23, 5 # perform operation
     3a8:	405bd913          	srai	x18,x23,0x5
  # Check if x18 contains the expected result. x27 is the signature ptr, x8 is the link ptr, x7 is a temp reg.
  RVTEST_SIGUPD(x27, x8, x7, x18, I_srai_cg_cp_rs1_b23, I_srai_cg_cp_rs1_b23_str)
     3ac:	000da383          	lw	x7,0(x27)
     3b0:	01238863          	beq	x7,x18,3c0 <I_srai_cg_cp_rs1_b23+0x18>
     3b4:	1810146f          	jal	x8,1d34 <failedtest_x8_x7>
     3b8:	000003a8          	.word	0x000003a8
     3bc:	0000486d          	.word	0x0000486d
     3c0:	004d8d93          	addi	x27,x27,4

# Testcase cp_rs1 (Test source rs1 = x24)
  RVTEST_TESTDATA_LOAD_INT(x1, x24) # load rs1: x24 = 0x58f56683
     3c4:	0000ac03          	lw	x24,0(x1)
     3c8:	00408093          	addi	x1,x1,4

000003cc <I_srai_cg_cp_rs1_b24>:
I_srai_cg_cp_rs1_b24:
  srai x10, x24, 31 # perform operation
     3cc:	41fc5513          	srai	x10,x24,0x1f
  # Check if x10 contains the expected result. x27 is the signature ptr, x8 is the link ptr, x7 is a temp reg.
  RVTEST_SIGUPD(x27, x8, x7, x10, I_srai_cg_cp_rs1_b24, I_srai_cg_cp_rs1_b24_str)
     3d0:	000da383          	lw	x7,0(x27)
     3d4:	00a38863          	beq	x7,x10,3e4 <I_srai_cg_cp_rs1_b24+0x18>
     3d8:	15d0146f          	jal	x8,1d34 <failedtest_x8_x7>
     3dc:	000003cc          	.word	0x000003cc
     3e0:	0000489d          	.word	0x0000489d
     3e4:	004d8d93          	addi	x27,x27,4

# Testcase cp_rs1 (Test source rs1 = x25)
  RVTEST_TESTDATA_LOAD_INT(x1, x25) # load rs1: x25 = 0x839fb22d
     3e8:	0000ac83          	lw	x25,0(x1)
     3ec:	00408093          	addi	x1,x1,4

000003f0 <I_srai_cg_cp_rs1_b25>:
I_srai_cg_cp_rs1_b25:
  srai x14, x25, 22 # perform operation
     3f0:	416cd713          	srai	x14,x25,0x16
  # Check if x14 contains the expected result. x27 is the signature ptr, x8 is the link ptr, x7 is a temp reg.
  RVTEST_SIGUPD(x27, x8, x7, x14, I_srai_cg_cp_rs1_b25, I_srai_cg_cp_rs1_b25_str)
     3f4:	000da383          	lw	x7,0(x27)
     3f8:	00e38863          	beq	x7,x14,408 <I_srai_cg_cp_rs1_b25+0x18>
     3fc:	1390146f          	jal	x8,1d34 <failedtest_x8_x7>
     400:	000003f0          	.word	0x000003f0
     404:	000048cd          	.word	0x000048cd
     408:	004d8d93          	addi	x27,x27,4

# Testcase cp_rs1 (Test source rs1 = x26)
  RVTEST_TESTDATA_LOAD_INT(x1, x26) # load rs1: x26 = 0x8b188461
     40c:	0000ad03          	lw	x26,0(x1)
     410:	00408093          	addi	x1,x1,4

00000414 <I_srai_cg_cp_rs1_b26>:
I_srai_cg_cp_rs1_b26:
  srai x14, x26, 7 # perform operation
     414:	407d5713          	srai	x14,x26,0x7
  # Check if x14 contains the expected result. x27 is the signature ptr, x8 is the link ptr, x7 is a temp reg.
  RVTEST_SIGUPD(x27, x8, x7, x14, I_srai_cg_cp_rs1_b26, I_srai_cg_cp_rs1_b26_str)
     418:	000da383          	lw	x7,0(x27)
     41c:	00e38863          	beq	x7,x14,42c <I_srai_cg_cp_rs1_b26+0x18>
     420:	1150146f          	jal	x8,1d34 <failedtest_x8_x7>
     424:	00000414          	.word	0x00000414
     428:	000048fd          	.word	0x000048fd
     42c:	004d8d93          	addi	x27,x27,4

  mv x6, x27 # switch signature pointer register to avoid conflict with test
     430:	000d8313          	addi	x6,x27,0
# Testcase cp_rs1 (Test source rs1 = x27)
  RVTEST_TESTDATA_LOAD_INT(x1, x27) # load rs1: x27 = 0xa3a2085b
     434:	0000ad83          	lw	x27,0(x1)
     438:	00408093          	addi	x1,x1,4

0000043c <I_srai_cg_cp_rs1_b27>:
I_srai_cg_cp_rs1_b27:
  srai x31, x27, 14 # perform operation
     43c:	40eddf93          	srai	x31,x27,0xe
  # Check if x31 contains the expected result. x6 is the signature ptr, x8 is the link ptr, x7 is a temp reg.
  RVTEST_SIGUPD(x6, x8, x7, x31, I_srai_cg_cp_rs1_b27, I_srai_cg_cp_rs1_b27_str)
     440:	00032383          	lw	x7,0(x6)
     444:	01f38863          	beq	x7,x31,454 <I_srai_cg_cp_rs1_b27+0x18>
     448:	0ed0146f          	jal	x8,1d34 <failedtest_x8_x7>
     44c:	0000043c          	.word	0x0000043c
     450:	0000492d          	.word	0x0000492d
     454:	00430313          	addi	x6,x6,4

# Testcase cp_rs1 (Test source rs1 = x28)
  RVTEST_TESTDATA_LOAD_INT(x1, x28) # load rs1: x28 = 0x4ab56b59
     458:	0000ae03          	lw	x28,0(x1)
     45c:	00408093          	addi	x1,x1,4

00000460 <I_srai_cg_cp_rs1_b28>:
I_srai_cg_cp_rs1_b28:
  srai x3, x28, 6 # perform operation
     460:	406e5193          	srai	x3,x28,0x6
  # Check if x3 contains the expected result. x6 is the signature ptr, x8 is the link ptr, x7 is a temp reg.
  RVTEST_SIGUPD(x6, x8, x7, x3, I_srai_cg_cp_rs1_b28, I_srai_cg_cp_rs1_b28_str)
     464:	00032383          	lw	x7,0(x6)
     468:	00338863          	beq	x7,x3,478 <I_srai_cg_cp_rs1_b28+0x18>
     46c:	0c90146f          	jal	x8,1d34 <failedtest_x8_x7>
     470:	00000460          	.word	0x00000460
     474:	0000495d          	.word	0x0000495d
     478:	00430313          	addi	x6,x6,4

# Testcase cp_rs1 (Test source rs1 = x29)
  RVTEST_TESTDATA_LOAD_INT(x1, x29) # load rs1: x29 = 0x72c78364
     47c:	0000ae83          	lw	x29,0(x1)
     480:	00408093          	addi	x1,x1,4

00000484 <I_srai_cg_cp_rs1_b29>:
I_srai_cg_cp_rs1_b29:
  srai x3, x29, 24 # perform operation
     484:	418ed193          	srai	x3,x29,0x18
  # Check if x3 contains the expected result. x6 is the signature ptr, x8 is the link ptr, x7 is a temp reg.
  RVTEST_SIGUPD(x6, x8, x7, x3, I_srai_cg_cp_rs1_b29, I_srai_cg_cp_rs1_b29_str)
     488:	00032383          	lw	x7,0(x6)
     48c:	00338863          	beq	x7,x3,49c <I_srai_cg_cp_rs1_b29+0x18>
     490:	0a50146f          	jal	x8,1d34 <failedtest_x8_x7>
     494:	00000484          	.word	0x00000484
     498:	0000498d          	.word	0x0000498d
     49c:	00430313          	addi	x6,x6,4

# Testcase cp_rs1 (Test source rs1 = x30)
  RVTEST_TESTDATA_LOAD_INT(x1, x30) # load rs1: x30 = 0xdd627761
     4a0:	0000af03          	lw	x30,0(x1)
     4a4:	00408093          	addi	x1,x1,4

000004a8 <I_srai_cg_cp_rs1_b30>:
I_srai_cg_cp_rs1_b30:
  srai x13, x30, 9 # perform operation
     4a8:	409f5693          	srai	x13,x30,0x9
  # Check if x13 contains the expected result. x6 is the signature ptr, x8 is the link ptr, x7 is a temp reg.
  RVTEST_SIGUPD(x6, x8, x7, x13, I_srai_cg_cp_rs1_b30, I_srai_cg_cp_rs1_b30_str)
     4ac:	00032383          	lw	x7,0(x6)
     4b0:	00d38863          	beq	x7,x13,4c0 <I_srai_cg_cp_rs1_b30+0x18>
     4b4:	0810146f          	jal	x8,1d34 <failedtest_x8_x7>
     4b8:	000004a8          	.word	0x000004a8
     4bc:	000049bd          	.word	0x000049bd
     4c0:	00430313          	addi	x6,x6,4

# Testcase cp_rs1 (Test source rs1 = x31)
  RVTEST_TESTDATA_LOAD_INT(x1, x31) # load rs1: x31 = 0x1aa9365d
     4c4:	0000af83          	lw	x31,0(x1)
     4c8:	00408093          	addi	x1,x1,4

000004cc <I_srai_cg_cp_rs1_b31>:
I_srai_cg_cp_rs1_b31:
  srai x0, x31, 16 # perform operation
     4cc:	410fd013          	srai	x0,x31,0x10
  # Check if x0 contains the expected result. x6 is the signature ptr, x8 is the link ptr, x7 is a temp reg.
  RVTEST_SIGUPD(x6, x8, x7, x0, I_srai_cg_cp_rs1_b31, I_srai_cg_cp_rs1_b31_str)
     4d0:	00032383          	lw	x7,0(x6)
     4d4:	00038863          	beq	x7,x0,4e4 <I_srai_cg_cp_rs1_b31+0x18>
     4d8:	05d0146f          	jal	x8,1d34 <failedtest_x8_x7>
     4dc:	000004cc          	.word	0x000004cc
     4e0:	000049ed          	.word	0x000049ed
     4e4:	00430313          	addi	x6,x6,4
/////////////////////////////////
// cp_rd
/////////////////////////////////

# Testcase cp_rd (Test destination rd = x0)
  RVTEST_TESTDATA_LOAD_INT(x1, x27) # load rs1: x27 = 0x1c8a6ffc
     4e8:	0000ad83          	lw	x27,0(x1)
     4ec:	00408093          	addi	x1,x1,4

000004f0 <I_srai_cg_cp_rd_b0>:
I_srai_cg_cp_rd_b0:
  srai x0, x27, 7 # perform operation
     4f0:	407dd013          	srai	x0,x27,0x7
  # Check if x0 contains the expected result. x6 is the signature ptr, x8 is the link ptr, x7 is a temp reg.
  RVTEST_SIGUPD(x6, x8, x7, x0, I_srai_cg_cp_rd_b0, I_srai_cg_cp_rd_b0_str)
     4f4:	00032383          	lw	x7,0(x6)
     4f8:	00038863          	beq	x7,x0,508 <I_srai_cg_cp_rd_b0+0x18>
     4fc:	0390146f          	jal	x8,1d34 <failedtest_x8_x7>
     500:	000004f0          	.word	0x000004f0
     504:	00004a1d          	.word	0x00004a1d
     508:	00430313          	addi	x6,x6,4

  mv x19, x1 # switch data pointer register to avoid conflict with test
     50c:	00008993          	addi	x19,x1,0
# Testcase cp_rd (Test destination rd = x1)
  RVTEST_TESTDATA_LOAD_INT(x19, x17) # load rs1: x17 = 0x9a4c2d64
     510:	0009a883          	lw	x17,0(x19)
     514:	00498993          	addi	x19,x19,4

00000518 <I_srai_cg_cp_rd_b1>:
I_srai_cg_cp_rd_b1:
  srai x1, x17, 18 # perform operation
     518:	4128d093          	srai	x1,x17,0x12
  # Check if x1 contains the expected result. x6 is the signature ptr, x8 is the link ptr, x7 is a temp reg.
  RVTEST_SIGUPD(x6, x8, x7, x1, I_srai_cg_cp_rd_b1, I_srai_cg_cp_rd_b1_str)
     51c:	00032383          	lw	x7,0(x6)
     520:	00138863          	beq	x7,x1,530 <I_srai_cg_cp_rd_b1+0x18>
     524:	0110146f          	jal	x8,1d34 <failedtest_x8_x7>
     528:	00000518          	.word	0x00000518
     52c:	00004a4b          	.word	0x00004a4b
     530:	00430313          	addi	x6,x6,4

# Testcase cp_rd (Test destination rd = x2)
  RVTEST_TESTDATA_LOAD_INT(x19, x23) # load rs1: x23 = 0x69a2df3f
     534:	0009ab83          	lw	x23,0(x19)
     538:	00498993          	addi	x19,x19,4

0000053c <I_srai_cg_cp_rd_b2>:
I_srai_cg_cp_rd_b2:
  srai x2, x23, 19 # perform operation
     53c:	413bd113          	srai	x2,x23,0x13
  # Check if x2 contains the expected result. x6 is the signature ptr, x8 is the link ptr, x7 is a temp reg.
  RVTEST_SIGUPD(x6, x8, x7, x2, I_srai_cg_cp_rd_b2, I_srai_cg_cp_rd_b2_str)
     540:	00032383          	lw	x7,0(x6)
     544:	00238863          	beq	x7,x2,554 <I_srai_cg_cp_rd_b2+0x18>
     548:	7ec0146f          	jal	x8,1d34 <failedtest_x8_x7>
     54c:	0000053c          	.word	0x0000053c
     550:	00004a79          	.word	0x00004a79
     554:	00430313          	addi	x6,x6,4

# Testcase cp_rd (Test destination rd = x3)
  RVTEST_TESTDATA_LOAD_INT(x19, x1) # load rs1: x1 = 0x5f1219ed
     558:	0009a083          	lw	x1,0(x19)
     55c:	00498993          	addi	x19,x19,4

00000560 <I_srai_cg_cp_rd_b3>:
I_srai_cg_cp_rd_b3:
  srai x3, x1, 26 # perform operation
     560:	41a0d193          	srai	x3,x1,0x1a
  # Check if x3 contains the expected result. x6 is the signature ptr, x8 is the link ptr, x7 is a temp reg.
  RVTEST_SIGUPD(x6, x8, x7, x3, I_srai_cg_cp_rd_b3, I_srai_cg_cp_rd_b3_str)
     564:	00032383          	lw	x7,0(x6)
     568:	00338863          	beq	x7,x3,578 <I_srai_cg_cp_rd_b3+0x18>
     56c:	7c80146f          	jal	x8,1d34 <failedtest_x8_x7>
     570:	00000560          	.word	0x00000560
     574:	00004aa7          	.word	0x00004aa7
     578:	00430313          	addi	x6,x6,4

# Testcase cp_rd (Test destination rd = x4)
  RVTEST_TESTDATA_LOAD_INT(x19, x13) # load rs1: x13 = 0x1140bbf8
     57c:	0009a683          	lw	x13,0(x19)
     580:	00498993          	addi	x19,x19,4

00000584 <I_srai_cg_cp_rd_b4>:
I_srai_cg_cp_rd_b4:
  srai x4, x13, 20 # perform operation
     584:	4146d213          	srai	x4,x13,0x14
  # Check if x4 contains the expected result. x6 is the signature ptr, x8 is the link ptr, x7 is a temp reg.
  RVTEST_SIGUPD(x6, x8, x7, x4, I_srai_cg_cp_rd_b4, I_srai_cg_cp_rd_b4_str)
     588:	00032383          	lw	x7,0(x6)
     58c:	00438863          	beq	x7,x4,59c <I_srai_cg_cp_rd_b4+0x18>
     590:	7a40146f          	jal	x8,1d34 <failedtest_x8_x7>
     594:	00000584          	.word	0x00000584
     598:	00004ad5          	.word	0x00004ad5
     59c:	00430313          	addi	x6,x6,4

# Testcase cp_rd (Test destination rd = x5)
  RVTEST_TESTDATA_LOAD_INT(x19, x22) # load rs1: x22 = 0xe76efef4
     5a0:	0009ab03          	lw	x22,0(x19)
     5a4:	00498993          	addi	x19,x19,4

000005a8 <I_srai_cg_cp_rd_b5>:
I_srai_cg_cp_rd_b5:
  srai x5, x22, 27 # perform operation
     5a8:	41bb5293          	srai	x5,x22,0x1b
  # Check if x5 contains the expected result. x6 is the signature ptr, x8 is the link ptr, x7 is a temp reg.
  RVTEST_SIGUPD(x6, x8, x7, x5, I_srai_cg_cp_rd_b5, I_srai_cg_cp_rd_b5_str)
     5ac:	00032383          	lw	x7,0(x6)
     5b0:	00538863          	beq	x7,x5,5c0 <I_srai_cg_cp_rd_b5+0x18>
     5b4:	7800146f          	jal	x8,1d34 <failedtest_x8_x7>
     5b8:	000005a8          	.word	0x000005a8
     5bc:	00004b03          	.word	0x00004b03
     5c0:	00430313          	addi	x6,x6,4

  mv x26, x6 # switch signature pointer register to avoid conflict with test
     5c4:	00030d13          	addi	x26,x6,0
# Testcase cp_rd (Test destination rd = x6)
  RVTEST_TESTDATA_LOAD_INT(x19, x3) # load rs1: x3 = 0xec4238ed
     5c8:	0009a183          	lw	x3,0(x19)
     5cc:	00498993          	addi	x19,x19,4

000005d0 <I_srai_cg_cp_rd_b6>:
I_srai_cg_cp_rd_b6:
  srai x6, x3, 3 # perform operation
     5d0:	4031d313          	srai	x6,x3,0x3
  # Check if x6 contains the expected result. x26 is the signature ptr, x8 is the link ptr, x7 is a temp reg.
  RVTEST_SIGUPD(x26, x8, x7, x6, I_srai_cg_cp_rd_b6, I_srai_cg_cp_rd_b6_str)
     5d4:	000d2383          	lw	x7,0(x26)
     5d8:	00638863          	beq	x7,x6,5e8 <I_srai_cg_cp_rd_b6+0x18>
     5dc:	7580146f          	jal	x8,1d34 <failedtest_x8_x7>
     5e0:	000005d0          	.word	0x000005d0
     5e4:	00004b31          	.word	0x00004b31
     5e8:	004d0d13          	addi	x26,x26,4

  mv x13, x7 # switch temp register to avoid conflict with test
     5ec:	00038693          	addi	x13,x7,0
  mv x14, x8 # switch link pointer register to avoid conflict with test
     5f0:	00040713          	addi	x14,x8,0
# Testcase cp_rd (Test destination rd = x7)
  RVTEST_TESTDATA_LOAD_INT(x19, x10) # load rs1: x10 = 0x8d80dafc
     5f4:	0009a503          	lw	x10,0(x19)
     5f8:	00498993          	addi	x19,x19,4

000005fc <I_srai_cg_cp_rd_b7>:
I_srai_cg_cp_rd_b7:
  srai x7, x10, 19 # perform operation
     5fc:	41355393          	srai	x7,x10,0x13
  # Check if x7 contains the expected result. x26 is the signature ptr, x14 is the link ptr, x13 is a temp reg.
  RVTEST_SIGUPD(x26, x14, x13, x7, I_srai_cg_cp_rd_b7, I_srai_cg_cp_rd_b7_str)
     600:	000d2683          	lw	x13,0(x26)
     604:	00768863          	beq	x13,x7,614 <I_srai_cg_cp_rd_b7+0x18>
     608:	7540176f          	jal	x14,1d5c <failedtest_x14_x13>
     60c:	000005fc          	.word	0x000005fc
     610:	00004b5f          	.word	0x00004b5f
     614:	004d0d13          	addi	x26,x26,4

# Testcase cp_rd (Test destination rd = x8)
  RVTEST_TESTDATA_LOAD_INT(x19, x31) # load rs1: x31 = 0x54957ecd
     618:	0009af83          	lw	x31,0(x19)
     61c:	00498993          	addi	x19,x19,4

00000620 <I_srai_cg_cp_rd_b8>:
I_srai_cg_cp_rd_b8:
  srai x8, x31, 4 # perform operation
     620:	404fd413          	srai	x8,x31,0x4
  # Check if x8 contains the expected result. x26 is the signature ptr, x14 is the link ptr, x13 is a temp reg.
  RVTEST_SIGUPD(x26, x14, x13, x8, I_srai_cg_cp_rd_b8, I_srai_cg_cp_rd_b8_str)
     624:	000d2683          	lw	x13,0(x26)
     628:	00868863          	beq	x13,x8,638 <I_srai_cg_cp_rd_b8+0x18>
     62c:	7300176f          	jal	x14,1d5c <failedtest_x14_x13>
     630:	00000620          	.word	0x00000620
     634:	00004b8d          	.word	0x00004b8d
     638:	004d0d13          	addi	x26,x26,4

# Testcase cp_rd (Test destination rd = x9)
  RVTEST_TESTDATA_LOAD_INT(x19, x11) # load rs1: x11 = 0xe71396c1
     63c:	0009a583          	lw	x11,0(x19)
     640:	00498993          	addi	x19,x19,4

00000644 <I_srai_cg_cp_rd_b9>:
I_srai_cg_cp_rd_b9:
  srai x9, x11, 4 # perform operation
     644:	4045d493          	srai	x9,x11,0x4
  # Check if x9 contains the expected result. x26 is the signature ptr, x14 is the link ptr, x13 is a temp reg.
  RVTEST_SIGUPD(x26, x14, x13, x9, I_srai_cg_cp_rd_b9, I_srai_cg_cp_rd_b9_str)
     648:	000d2683          	lw	x13,0(x26)
     64c:	00968863          	beq	x13,x9,65c <I_srai_cg_cp_rd_b9+0x18>
     650:	70c0176f          	jal	x14,1d5c <failedtest_x14_x13>
     654:	00000644          	.word	0x00000644
     658:	00004bbb          	.word	0x00004bbb
     65c:	004d0d13          	addi	x26,x26,4

# Testcase cp_rd (Test destination rd = x10)
  RVTEST_TESTDATA_LOAD_INT(x19, x6) # load rs1: x6 = 0x94d5aaae
     660:	0009a303          	lw	x6,0(x19)
     664:	00498993          	addi	x19,x19,4

00000668 <I_srai_cg_cp_rd_b10>:
I_srai_cg_cp_rd_b10:
  srai x10, x6, 24 # perform operation
     668:	41835513          	srai	x10,x6,0x18
  # Check if x10 contains the expected result. x26 is the signature ptr, x14 is the link ptr, x13 is a temp reg.
  RVTEST_SIGUPD(x26, x14, x13, x10, I_srai_cg_cp_rd_b10, I_srai_cg_cp_rd_b10_str)
     66c:	000d2683          	lw	x13,0(x26)
     670:	00a68863          	beq	x13,x10,680 <I_srai_cg_cp_rd_b10+0x18>
     674:	6e80176f          	jal	x14,1d5c <failedtest_x14_x13>
     678:	00000668          	.word	0x00000668
     67c:	00004be9          	.word	0x00004be9
     680:	004d0d13          	addi	x26,x26,4

# Testcase cp_rd (Test destination rd = x11)
  RVTEST_TESTDATA_LOAD_INT(x19, x5) # load rs1: x5 = 0x84602ce7
     684:	0009a283          	lw	x5,0(x19)
     688:	00498993          	addi	x19,x19,4

0000068c <I_srai_cg_cp_rd_b11>:
I_srai_cg_cp_rd_b11:
  srai x11, x5, 26 # perform operation
     68c:	41a2d593          	srai	x11,x5,0x1a
  # Check if x11 contains the expected result. x26 is the signature ptr, x14 is the link ptr, x13 is a temp reg.
  RVTEST_SIGUPD(x26, x14, x13, x11, I_srai_cg_cp_rd_b11, I_srai_cg_cp_rd_b11_str)
     690:	000d2683          	lw	x13,0(x26)
     694:	00b68863          	beq	x13,x11,6a4 <I_srai_cg_cp_rd_b11+0x18>
     698:	6c40176f          	jal	x14,1d5c <failedtest_x14_x13>
     69c:	0000068c          	.word	0x0000068c
     6a0:	00004c18          	.word	0x00004c18
     6a4:	004d0d13          	addi	x26,x26,4

# Testcase cp_rd (Test destination rd = x12)
  RVTEST_TESTDATA_LOAD_INT(x19, x0) # load rs1: x0 = 0x8efbfacf
     6a8:	0009a003          	lw	x0,0(x19)
     6ac:	00498993          	addi	x19,x19,4

000006b0 <I_srai_cg_cp_rd_b12>:
I_srai_cg_cp_rd_b12:
  srai x12, x0, 25 # perform operation
     6b0:	41905613          	srai	x12,x0,0x19
  # Check if x12 contains the expected result. x26 is the signature ptr, x14 is the link ptr, x13 is a temp reg.
  RVTEST_SIGUPD(x26, x14, x13, x12, I_srai_cg_cp_rd_b12, I_srai_cg_cp_rd_b12_str)
     6b4:	000d2683          	lw	x13,0(x26)
     6b8:	00c68863          	beq	x13,x12,6c8 <I_srai_cg_cp_rd_b12+0x18>
     6bc:	6a00176f          	jal	x14,1d5c <failedtest_x14_x13>
     6c0:	000006b0          	.word	0x000006b0
     6c4:	00004c47          	.word	0x00004c47
     6c8:	004d0d13          	addi	x26,x26,4

  mv x4, x13 # switch temp register to avoid conflict with test
     6cc:	00068213          	addi	x4,x13,0
  mv x5, x14 # switch link pointer register to avoid conflict with test
     6d0:	00070293          	addi	x5,x14,0
# Testcase cp_rd (Test destination rd = x13)
  RVTEST_TESTDATA_LOAD_INT(x19, x29) # load rs1: x29 = 0xd845b4e0
     6d4:	0009ae83          	lw	x29,0(x19)
     6d8:	00498993          	addi	x19,x19,4

000006dc <I_srai_cg_cp_rd_b13>:
I_srai_cg_cp_rd_b13:
  srai x13, x29, 13 # perform operation
     6dc:	40ded693          	srai	x13,x29,0xd
  # Check if x13 contains the expected result. x26 is the signature ptr, x5 is the link ptr, x4 is a temp reg.
  RVTEST_SIGUPD(x26, x5, x4, x13, I_srai_cg_cp_rd_b13, I_srai_cg_cp_rd_b13_str)
     6e0:	000d2203          	lw	x4,0(x26)
     6e4:	00d20863          	beq	x4,x13,6f4 <I_srai_cg_cp_rd_b13+0x18>
     6e8:	634012ef          	jal	x5,1d1c <failedtest_x5_x4>
     6ec:	000006dc          	.word	0x000006dc
     6f0:	00004c76          	.word	0x00004c76
     6f4:	004d0d13          	addi	x26,x26,4

# Testcase cp_rd (Test destination rd = x14)
  RVTEST_TESTDATA_LOAD_INT(x19, x13) # load rs1: x13 = 0x0b98f364
     6f8:	0009a683          	lw	x13,0(x19)
     6fc:	00498993          	addi	x19,x19,4

00000700 <I_srai_cg_cp_rd_b14>:
I_srai_cg_cp_rd_b14:
  srai x14, x13, 22 # perform operation
     700:	4166d713          	srai	x14,x13,0x16
  # Check if x14 contains the expected result. x26 is the signature ptr, x5 is the link ptr, x4 is a temp reg.
  RVTEST_SIGUPD(x26, x5, x4, x14, I_srai_cg_cp_rd_b14, I_srai_cg_cp_rd_b14_str)
     704:	000d2203          	lw	x4,0(x26)
     708:	00e20863          	beq	x4,x14,718 <I_srai_cg_cp_rd_b14+0x18>
     70c:	610012ef          	jal	x5,1d1c <failedtest_x5_x4>
     710:	00000700          	.word	0x00000700
     714:	00004ca5          	.word	0x00004ca5
     718:	004d0d13          	addi	x26,x26,4

# Testcase cp_rd (Test destination rd = x15)
  RVTEST_TESTDATA_LOAD_INT(x19, x12) # load rs1: x12 = 0xaff25402
     71c:	0009a603          	lw	x12,0(x19)
     720:	00498993          	addi	x19,x19,4

00000724 <I_srai_cg_cp_rd_b15>:
I_srai_cg_cp_rd_b15:
  srai x15, x12, 9 # perform operation
     724:	40965793          	srai	x15,x12,0x9
  # Check if x15 contains the expected result. x26 is the signature ptr, x5 is the link ptr, x4 is a temp reg.
  RVTEST_SIGUPD(x26, x5, x4, x15, I_srai_cg_cp_rd_b15, I_srai_cg_cp_rd_b15_str)
     728:	000d2203          	lw	x4,0(x26)
     72c:	00f20863          	beq	x4,x15,73c <I_srai_cg_cp_rd_b15+0x18>
     730:	5ec012ef          	jal	x5,1d1c <failedtest_x5_x4>
     734:	00000724          	.word	0x00000724
     738:	00004cd4          	.word	0x00004cd4
     73c:	004d0d13          	addi	x26,x26,4

# Testcase cp_rd (Test destination rd = x16)
  RVTEST_TESTDATA_LOAD_INT(x19, x28) # load rs1: x28 = 0xeadf2ea4
     740:	0009ae03          	lw	x28,0(x19)
     744:	00498993          	addi	x19,x19,4

00000748 <I_srai_cg_cp_rd_b16>:
I_srai_cg_cp_rd_b16:
  srai x16, x28, 26 # perform operation
     748:	41ae5813          	srai	x16,x28,0x1a
  # Check if x16 contains the expected result. x26 is the signature ptr, x5 is the link ptr, x4 is a temp reg.
  RVTEST_SIGUPD(x26, x5, x4, x16, I_srai_cg_cp_rd_b16, I_srai_cg_cp_rd_b16_str)
     74c:	000d2203          	lw	x4,0(x26)
     750:	01020863          	beq	x4,x16,760 <I_srai_cg_cp_rd_b16+0x18>
     754:	5c8012ef          	jal	x5,1d1c <failedtest_x5_x4>
     758:	00000748          	.word	0x00000748
     75c:	00004d03          	.word	0x00004d03
     760:	004d0d13          	addi	x26,x26,4

# Testcase cp_rd (Test destination rd = x17)
  RVTEST_TESTDATA_LOAD_INT(x19, x22) # load rs1: x22 = 0xf265cf1a
     764:	0009ab03          	lw	x22,0(x19)
     768:	00498993          	addi	x19,x19,4

0000076c <I_srai_cg_cp_rd_b17>:
I_srai_cg_cp_rd_b17:
  srai x17, x22, 16 # perform operation
     76c:	410b5893          	srai	x17,x22,0x10
  # Check if x17 contains the expected result. x26 is the signature ptr, x5 is the link ptr, x4 is a temp reg.
  RVTEST_SIGUPD(x26, x5, x4, x17, I_srai_cg_cp_rd_b17, I_srai_cg_cp_rd_b17_str)
     770:	000d2203          	lw	x4,0(x26)
     774:	01120863          	beq	x4,x17,784 <I_srai_cg_cp_rd_b17+0x18>
     778:	5a4012ef          	jal	x5,1d1c <failedtest_x5_x4>
     77c:	0000076c          	.word	0x0000076c
     780:	00004d32          	.word	0x00004d32
     784:	004d0d13          	addi	x26,x26,4

# Testcase cp_rd (Test destination rd = x18)
  RVTEST_TESTDATA_LOAD_INT(x19, x31) # load rs1: x31 = 0x46d63049
     788:	0009af83          	lw	x31,0(x19)
     78c:	00498993          	addi	x19,x19,4

00000790 <I_srai_cg_cp_rd_b18>:
I_srai_cg_cp_rd_b18:
  srai x18, x31, 19 # perform operation
     790:	413fd913          	srai	x18,x31,0x13
  # Check if x18 contains the expected result. x26 is the signature ptr, x5 is the link ptr, x4 is a temp reg.
  RVTEST_SIGUPD(x26, x5, x4, x18, I_srai_cg_cp_rd_b18, I_srai_cg_cp_rd_b18_str)
     794:	000d2203          	lw	x4,0(x26)
     798:	01220863          	beq	x4,x18,7a8 <I_srai_cg_cp_rd_b18+0x18>
     79c:	580012ef          	jal	x5,1d1c <failedtest_x5_x4>
     7a0:	00000790          	.word	0x00000790
     7a4:	00004d61          	.word	0x00004d61
     7a8:	004d0d13          	addi	x26,x26,4

  mv x28, x19 # switch data pointer register to avoid conflict with test
     7ac:	00098e13          	addi	x28,x19,0
# Testcase cp_rd (Test destination rd = x19)
  RVTEST_TESTDATA_LOAD_INT(x28, x9) # load rs1: x9 = 0xbbd804a1
     7b0:	000e2483          	lw	x9,0(x28)
     7b4:	004e0e13          	addi	x28,x28,4

000007b8 <I_srai_cg_cp_rd_b19>:
I_srai_cg_cp_rd_b19:
  srai x19, x9, 29 # perform operation
     7b8:	41d4d993          	srai	x19,x9,0x1d
  # Check if x19 contains the expected result. x26 is the signature ptr, x5 is the link ptr, x4 is a temp reg.
  RVTEST_SIGUPD(x26, x5, x4, x19, I_srai_cg_cp_rd_b19, I_srai_cg_cp_rd_b19_str)
     7bc:	000d2203          	lw	x4,0(x26)
     7c0:	01320863          	beq	x4,x19,7d0 <I_srai_cg_cp_rd_b19+0x18>
     7c4:	558012ef          	jal	x5,1d1c <failedtest_x5_x4>
     7c8:	000007b8          	.word	0x000007b8
     7cc:	00004d90          	.word	0x00004d90
     7d0:	004d0d13          	addi	x26,x26,4

# Testcase cp_rd (Test destination rd = x20)
  RVTEST_TESTDATA_LOAD_INT(x28, x2) # load rs1: x2 = 0xe3528e29
     7d4:	000e2103          	lw	x2,0(x28)
     7d8:	004e0e13          	addi	x28,x28,4

000007dc <I_srai_cg_cp_rd_b20>:
I_srai_cg_cp_rd_b20:
  srai x20, x2, 16 # perform operation
     7dc:	41015a13          	srai	x20,x2,0x10
  # Check if x20 contains the expected result. x26 is the signature ptr, x5 is the link ptr, x4 is a temp reg.
  RVTEST_SIGUPD(x26, x5, x4, x20, I_srai_cg_cp_rd_b20, I_srai_cg_cp_rd_b20_str)
     7e0:	000d2203          	lw	x4,0(x26)
     7e4:	01420863          	beq	x4,x20,7f4 <I_srai_cg_cp_rd_b20+0x18>
     7e8:	534012ef          	jal	x5,1d1c <failedtest_x5_x4>
     7ec:	000007dc          	.word	0x000007dc
     7f0:	00004dbf          	.word	0x00004dbf
     7f4:	004d0d13          	addi	x26,x26,4

# Testcase cp_rd (Test destination rd = x21)
  RVTEST_TESTDATA_LOAD_INT(x28, x16) # load rs1: x16 = 0xc89bd199
     7f8:	000e2803          	lw	x16,0(x28)
     7fc:	004e0e13          	addi	x28,x28,4

00000800 <I_srai_cg_cp_rd_b21>:
I_srai_cg_cp_rd_b21:
  srai x21, x16, 10 # perform operation
     800:	40a85a93          	srai	x21,x16,0xa
  # Check if x21 contains the expected result. x26 is the signature ptr, x5 is the link ptr, x4 is a temp reg.
  RVTEST_SIGUPD(x26, x5, x4, x21, I_srai_cg_cp_rd_b21, I_srai_cg_cp_rd_b21_str)
     804:	000d2203          	lw	x4,0(x26)
     808:	01520863          	beq	x4,x21,818 <I_srai_cg_cp_rd_b21+0x18>
     80c:	510012ef          	jal	x5,1d1c <failedtest_x5_x4>
     810:	00000800          	.word	0x00000800
     814:	00004dee          	.word	0x00004dee
     818:	004d0d13          	addi	x26,x26,4

# Testcase cp_rd (Test destination rd = x22)
  RVTEST_TESTDATA_LOAD_INT(x28, x13) # load rs1: x13 = 0xab82b9e7
     81c:	000e2683          	lw	x13,0(x28)
     820:	004e0e13          	addi	x28,x28,4

00000824 <I_srai_cg_cp_rd_b22>:
I_srai_cg_cp_rd_b22:
  srai x22, x13, 14 # perform operation
     824:	40e6db13          	srai	x22,x13,0xe
  # Check if x22 contains the expected result. x26 is the signature ptr, x5 is the link ptr, x4 is a temp reg.
  RVTEST_SIGUPD(x26, x5, x4, x22, I_srai_cg_cp_rd_b22, I_srai_cg_cp_rd_b22_str)
     828:	000d2203          	lw	x4,0(x26)
     82c:	01620863          	beq	x4,x22,83c <I_srai_cg_cp_rd_b22+0x18>
     830:	4ec012ef          	jal	x5,1d1c <failedtest_x5_x4>
     834:	00000824          	.word	0x00000824
     838:	00004e1d          	.word	0x00004e1d
     83c:	004d0d13          	addi	x26,x26,4

# Testcase cp_rd (Test destination rd = x23)
  RVTEST_TESTDATA_LOAD_INT(x28, x10) # load rs1: x10 = 0xb5ccba7b
     840:	000e2503          	lw	x10,0(x28)
     844:	004e0e13          	addi	x28,x28,4

00000848 <I_srai_cg_cp_rd_b23>:
I_srai_cg_cp_rd_b23:
  srai x23, x10, 17 # perform operation
     848:	41155b93          	srai	x23,x10,0x11
  # Check if x23 contains the expected result. x26 is the signature ptr, x5 is the link ptr, x4 is a temp reg.
  RVTEST_SIGUPD(x26, x5, x4, x23, I_srai_cg_cp_rd_b23, I_srai_cg_cp_rd_b23_str)
     84c:	000d2203          	lw	x4,0(x26)
     850:	01720863          	beq	x4,x23,860 <I_srai_cg_cp_rd_b23+0x18>
     854:	4c8012ef          	jal	x5,1d1c <failedtest_x5_x4>
     858:	00000848          	.word	0x00000848
     85c:	00004e4c          	.word	0x00004e4c
     860:	004d0d13          	addi	x26,x26,4

# Testcase cp_rd (Test destination rd = x24)
  RVTEST_TESTDATA_LOAD_INT(x28, x9) # load rs1: x9 = 0x64c24e6f
     864:	000e2483          	lw	x9,0(x28)
     868:	004e0e13          	addi	x28,x28,4

0000086c <I_srai_cg_cp_rd_b24>:
I_srai_cg_cp_rd_b24:
  srai x24, x9, 14 # perform operation
     86c:	40e4dc13          	srai	x24,x9,0xe
  # Check if x24 contains the expected result. x26 is the signature ptr, x5 is the link ptr, x4 is a temp reg.
  RVTEST_SIGUPD(x26, x5, x4, x24, I_srai_cg_cp_rd_b24, I_srai_cg_cp_rd_b24_str)
     870:	000d2203          	lw	x4,0(x26)
     874:	01820863          	beq	x4,x24,884 <I_srai_cg_cp_rd_b24+0x18>
     878:	4a4012ef          	jal	x5,1d1c <failedtest_x5_x4>
     87c:	0000086c          	.word	0x0000086c
     880:	00004e7b          	.word	0x00004e7b
     884:	004d0d13          	addi	x26,x26,4

# Testcase cp_rd (Test destination rd = x25)
  RVTEST_TESTDATA_LOAD_INT(x28, x1) # load rs1: x1 = 0xb7a02a47
     888:	000e2083          	lw	x1,0(x28)
     88c:	004e0e13          	addi	x28,x28,4

00000890 <I_srai_cg_cp_rd_b25>:
I_srai_cg_cp_rd_b25:
  srai x25, x1, 11 # perform operation
     890:	40b0dc93          	srai	x25,x1,0xb
  # Check if x25 contains the expected result. x26 is the signature ptr, x5 is the link ptr, x4 is a temp reg.
  RVTEST_SIGUPD(x26, x5, x4, x25, I_srai_cg_cp_rd_b25, I_srai_cg_cp_rd_b25_str)
     894:	000d2203          	lw	x4,0(x26)
     898:	01920863          	beq	x4,x25,8a8 <I_srai_cg_cp_rd_b25+0x18>
     89c:	480012ef          	jal	x5,1d1c <failedtest_x5_x4>
     8a0:	00000890          	.word	0x00000890
     8a4:	00004eaa          	.word	0x00004eaa
     8a8:	004d0d13          	addi	x26,x26,4

  mv x31, x26 # switch signature pointer register to avoid conflict with test
     8ac:	000d0f93          	addi	x31,x26,0
# Testcase cp_rd (Test destination rd = x26)
  RVTEST_TESTDATA_LOAD_INT(x28, x29) # load rs1: x29 = 0x9a728fe8
     8b0:	000e2e83          	lw	x29,0(x28)
     8b4:	004e0e13          	addi	x28,x28,4

000008b8 <I_srai_cg_cp_rd_b26>:
I_srai_cg_cp_rd_b26:
  srai x26, x29, 1 # perform operation
     8b8:	401edd13          	srai	x26,x29,0x1
  # Check if x26 contains the expected result. x31 is the signature ptr, x5 is the link ptr, x4 is a temp reg.
  RVTEST_SIGUPD(x31, x5, x4, x26, I_srai_cg_cp_rd_b26, I_srai_cg_cp_rd_b26_str)
     8bc:	000fa203          	lw	x4,0(x31)
     8c0:	01a20863          	beq	x4,x26,8d0 <I_srai_cg_cp_rd_b26+0x18>
     8c4:	458012ef          	jal	x5,1d1c <failedtest_x5_x4>
     8c8:	000008b8          	.word	0x000008b8
     8cc:	00004ed9          	.word	0x00004ed9
     8d0:	004f8f93          	addi	x31,x31,4

# Testcase cp_rd (Test destination rd = x27)
  RVTEST_TESTDATA_LOAD_INT(x28, x25) # load rs1: x25 = 0x10d47909
     8d4:	000e2c83          	lw	x25,0(x28)
     8d8:	004e0e13          	addi	x28,x28,4

000008dc <I_srai_cg_cp_rd_b27>:
I_srai_cg_cp_rd_b27:
  srai x27, x25, 30 # perform operation
     8dc:	41ecdd93          	srai	x27,x25,0x1e
  # Check if x27 contains the expected result. x31 is the signature ptr, x5 is the link ptr, x4 is a temp reg.
  RVTEST_SIGUPD(x31, x5, x4, x27, I_srai_cg_cp_rd_b27, I_srai_cg_cp_rd_b27_str)
     8e0:	000fa203          	lw	x4,0(x31)
     8e4:	01b20863          	beq	x4,x27,8f4 <I_srai_cg_cp_rd_b27+0x18>
     8e8:	434012ef          	jal	x5,1d1c <failedtest_x5_x4>
     8ec:	000008dc          	.word	0x000008dc
     8f0:	00004f08          	.word	0x00004f08
     8f4:	004f8f93          	addi	x31,x31,4

  mv x26, x28 # switch data pointer register to avoid conflict with test
     8f8:	000e0d13          	addi	x26,x28,0
# Testcase cp_rd (Test destination rd = x28)
  RVTEST_TESTDATA_LOAD_INT(x26, x2) # load rs1: x2 = 0x0b49e3d2
     8fc:	000d2103          	lw	x2,0(x26)
     900:	004d0d13          	addi	x26,x26,4

00000904 <I_srai_cg_cp_rd_b28>:
I_srai_cg_cp_rd_b28:
  srai x28, x2, 9 # perform operation
     904:	40915e13          	srai	x28,x2,0x9
  # Check if x28 contains the expected result. x31 is the signature ptr, x5 is the link ptr, x4 is a temp reg.
  RVTEST_SIGUPD(x31, x5, x4, x28, I_srai_cg_cp_rd_b28, I_srai_cg_cp_rd_b28_str)
     908:	000fa203          	lw	x4,0(x31)
     90c:	01c20863          	beq	x4,x28,91c <I_srai_cg_cp_rd_b28+0x18>
     910:	40c012ef          	jal	x5,1d1c <failedtest_x5_x4>
     914:	00000904          	.word	0x00000904
     918:	00004f37          	.word	0x00004f37
     91c:	004f8f93          	addi	x31,x31,4

# Testcase cp_rd (Test destination rd = x29)
  RVTEST_TESTDATA_LOAD_INT(x26, x2) # load rs1: x2 = 0xc5490b95
     920:	000d2103          	lw	x2,0(x26)
     924:	004d0d13          	addi	x26,x26,4

00000928 <I_srai_cg_cp_rd_b29>:
I_srai_cg_cp_rd_b29:
  srai x29, x2, 5 # perform operation
     928:	40515e93          	srai	x29,x2,0x5
  # Check if x29 contains the expected result. x31 is the signature ptr, x5 is the link ptr, x4 is a temp reg.
  RVTEST_SIGUPD(x31, x5, x4, x29, I_srai_cg_cp_rd_b29, I_srai_cg_cp_rd_b29_str)
     92c:	000fa203          	lw	x4,0(x31)
     930:	01d20863          	beq	x4,x29,940 <I_srai_cg_cp_rd_b29+0x18>
     934:	3e8012ef          	jal	x5,1d1c <failedtest_x5_x4>
     938:	00000928          	.word	0x00000928
     93c:	00004f66          	.word	0x00004f66
     940:	004f8f93          	addi	x31,x31,4

# Testcase cp_rd (Test destination rd = x30)
  RVTEST_TESTDATA_LOAD_INT(x26, x15) # load rs1: x15 = 0x51c583ed
     944:	000d2783          	lw	x15,0(x26)
     948:	004d0d13          	addi	x26,x26,4

0000094c <I_srai_cg_cp_rd_b30>:
I_srai_cg_cp_rd_b30:
  srai x30, x15, 10 # perform operation
     94c:	40a7df13          	srai	x30,x15,0xa
  # Check if x30 contains the expected result. x31 is the signature ptr, x5 is the link ptr, x4 is a temp reg.
  RVTEST_SIGUPD(x31, x5, x4, x30, I_srai_cg_cp_rd_b30, I_srai_cg_cp_rd_b30_str)
     950:	000fa203          	lw	x4,0(x31)
     954:	01e20863          	beq	x4,x30,964 <I_srai_cg_cp_rd_b30+0x18>
     958:	3c4012ef          	jal	x5,1d1c <failedtest_x5_x4>
     95c:	0000094c          	.word	0x0000094c
     960:	00004f95          	.word	0x00004f95
     964:	004f8f93          	addi	x31,x31,4

  mv x12, x31 # switch signature pointer register to avoid conflict with test
     968:	000f8613          	addi	x12,x31,0
# Testcase cp_rd (Test destination rd = x31)
  RVTEST_TESTDATA_LOAD_INT(x26, x19) # load rs1: x19 = 0xe5ee7bd2
     96c:	000d2983          	lw	x19,0(x26)
     970:	004d0d13          	addi	x26,x26,4

00000974 <I_srai_cg_cp_rd_b31>:
I_srai_cg_cp_rd_b31:
  srai x31, x19, 11 # perform operation
     974:	40b9df93          	srai	x31,x19,0xb
  # Check if x31 contains the expected result. x12 is the signature ptr, x5 is the link ptr, x4 is a temp reg.
  RVTEST_SIGUPD(x12, x5, x4, x31, I_srai_cg_cp_rd_b31, I_srai_cg_cp_rd_b31_str)
     978:	00062203          	lw	x4,0(x12)
     97c:	01f20863          	beq	x4,x31,98c <I_srai_cg_cp_rd_b31+0x18>
     980:	39c012ef          	jal	x5,1d1c <failedtest_x5_x4>
     984:	00000974          	.word	0x00000974
     988:	00004fc4          	.word	0x00004fc4
     98c:	00460613          	addi	x12,x12,4
/////////////////////////////////
// cp_rs1_edges
/////////////////////////////////

# Testcase cp_rs1_edges (Test source rs1 value = 0x00000000)
  RVTEST_TESTDATA_LOAD_INT(x26, x13) # load rs1: x13 = 0x00000000
     990:	000d2683          	lw	x13,0(x26)
     994:	004d0d13          	addi	x26,x26,4

00000998 <I_srai_cg_cp_rs1_edges_0x0>:
I_srai_cg_cp_rs1_edges_0x0:
  srai x16, x13, 31 # perform operation
     998:	41f6d813          	srai	x16,x13,0x1f
  # Check if x16 contains the expected result. x12 is the signature ptr, x5 is the link ptr, x4 is a temp reg.
  RVTEST_SIGUPD(x12, x5, x4, x16, I_srai_cg_cp_rs1_edges_0x0, I_srai_cg_cp_rs1_edges_0x0_str)
     99c:	00062203          	lw	x4,0(x12)
     9a0:	01020863          	beq	x4,x16,9b0 <I_srai_cg_cp_rs1_edges_0x0+0x18>
     9a4:	378012ef          	jal	x5,1d1c <failedtest_x5_x4>
     9a8:	00000998          	.word	0x00000998
     9ac:	00004ff3          	.word	0x00004ff3
     9b0:	00460613          	addi	x12,x12,4

# Testcase cp_rs1_edges (Test source rs1 value = 0x00000001)
  RVTEST_TESTDATA_LOAD_INT(x26, x10) # load rs1: x10 = 0x00000001
     9b4:	000d2503          	lw	x10,0(x26)
     9b8:	004d0d13          	addi	x26,x26,4

000009bc <I_srai_cg_cp_rs1_edges_0x1>:
I_srai_cg_cp_rs1_edges_0x1:
  srai x28, x10, 11 # perform operation
     9bc:	40b55e13          	srai	x28,x10,0xb
  # Check if x28 contains the expected result. x12 is the signature ptr, x5 is the link ptr, x4 is a temp reg.
  RVTEST_SIGUPD(x12, x5, x4, x28, I_srai_cg_cp_rs1_edges_0x1, I_srai_cg_cp_rs1_edges_0x1_str)
     9c0:	00062203          	lw	x4,0(x12)
     9c4:	01c20863          	beq	x4,x28,9d4 <I_srai_cg_cp_rs1_edges_0x1+0x18>
     9c8:	354012ef          	jal	x5,1d1c <failedtest_x5_x4>
     9cc:	000009bc          	.word	0x000009bc
     9d0:	00005029          	.word	0x00005029
     9d4:	00460613          	addi	x12,x12,4

# Testcase cp_rs1_edges (Test source rs1 value = 0x00000002)
  RVTEST_TESTDATA_LOAD_INT(x26, x20) # load rs1: x20 = 0x00000002
     9d8:	000d2a03          	lw	x20,0(x26)
     9dc:	004d0d13          	addi	x26,x26,4

000009e0 <I_srai_cg_cp_rs1_edges_0x2>:
I_srai_cg_cp_rs1_edges_0x2:
  srai x13, x20, 0 # perform operation
     9e0:	400a5693          	srai	x13,x20,0x0
  # Check if x13 contains the expected result. x12 is the signature ptr, x5 is the link ptr, x4 is a temp reg.
  RVTEST_SIGUPD(x12, x5, x4, x13, I_srai_cg_cp_rs1_edges_0x2, I_srai_cg_cp_rs1_edges_0x2_str)
     9e4:	00062203          	lw	x4,0(x12)
     9e8:	00d20863          	beq	x4,x13,9f8 <I_srai_cg_cp_rs1_edges_0x2+0x18>
     9ec:	330012ef          	jal	x5,1d1c <failedtest_x5_x4>
     9f0:	000009e0          	.word	0x000009e0
     9f4:	0000505f          	.word	0x0000505f
     9f8:	00460613          	addi	x12,x12,4

# Testcase cp_rs1_edges (Test source rs1 value = 0x80000000)
  RVTEST_TESTDATA_LOAD_INT(x26, x14) # load rs1: x14 = 0x80000000
     9fc:	000d2703          	lw	x14,0(x26)
     a00:	004d0d13          	addi	x26,x26,4

00000a04 <I_srai_cg_cp_rs1_edges_0x80000000>:
I_srai_cg_cp_rs1_edges_0x80000000:
  srai x2, x14, 12 # perform operation
     a04:	40c75113          	srai	x2,x14,0xc
  # Check if x2 contains the expected result. x12 is the signature ptr, x5 is the link ptr, x4 is a temp reg.
  RVTEST_SIGUPD(x12, x5, x4, x2, I_srai_cg_cp_rs1_edges_0x80000000, I_srai_cg_cp_rs1_edges_0x80000000_str)
     a08:	00062203          	lw	x4,0(x12)
     a0c:	00220863          	beq	x4,x2,a1c <I_srai_cg_cp_rs1_edges_0x80000000+0x18>
     a10:	30c012ef          	jal	x5,1d1c <failedtest_x5_x4>
     a14:	00000a04          	.word	0x00000a04
     a18:	00005095          	.word	0x00005095
     a1c:	00460613          	addi	x12,x12,4

# Testcase cp_rs1_edges (Test source rs1 value = 0x80000001)
  RVTEST_TESTDATA_LOAD_INT(x26, x1) # load rs1: x1 = 0x80000001
     a20:	000d2083          	lw	x1,0(x26)
     a24:	004d0d13          	addi	x26,x26,4

00000a28 <I_srai_cg_cp_rs1_edges_0x80000001>:
I_srai_cg_cp_rs1_edges_0x80000001:
  srai x17, x1, 7 # perform operation
     a28:	4070d893          	srai	x17,x1,0x7
  # Check if x17 contains the expected result. x12 is the signature ptr, x5 is the link ptr, x4 is a temp reg.
  RVTEST_SIGUPD(x12, x5, x4, x17, I_srai_cg_cp_rs1_edges_0x80000001, I_srai_cg_cp_rs1_edges_0x80000001_str)
     a2c:	00062203          	lw	x4,0(x12)
     a30:	01120863          	beq	x4,x17,a40 <I_srai_cg_cp_rs1_edges_0x80000001+0x18>
     a34:	2e8012ef          	jal	x5,1d1c <failedtest_x5_x4>
     a38:	00000a28          	.word	0x00000a28
     a3c:	000050d2          	.word	0x000050d2
     a40:	00460613          	addi	x12,x12,4

# Testcase cp_rs1_edges (Test source rs1 value = 0x7fffffff)
  RVTEST_TESTDATA_LOAD_INT(x26, x10) # load rs1: x10 = 0x7fffffff
     a44:	000d2503          	lw	x10,0(x26)
     a48:	004d0d13          	addi	x26,x26,4

00000a4c <I_srai_cg_cp_rs1_edges_0x7fffffff>:
I_srai_cg_cp_rs1_edges_0x7fffffff:
  srai x30, x10, 6 # perform operation
     a4c:	40655f13          	srai	x30,x10,0x6
  # Check if x30 contains the expected result. x12 is the signature ptr, x5 is the link ptr, x4 is a temp reg.
  RVTEST_SIGUPD(x12, x5, x4, x30, I_srai_cg_cp_rs1_edges_0x7fffffff, I_srai_cg_cp_rs1_edges_0x7fffffff_str)
     a50:	00062203          	lw	x4,0(x12)
     a54:	01e20863          	beq	x4,x30,a64 <I_srai_cg_cp_rs1_edges_0x7fffffff+0x18>
     a58:	2c4012ef          	jal	x5,1d1c <failedtest_x5_x4>
     a5c:	00000a4c          	.word	0x00000a4c
     a60:	0000510f          	.word	0x0000510f
     a64:	00460613          	addi	x12,x12,4

# Testcase cp_rs1_edges (Test source rs1 value = 0x7ffffffe)
  RVTEST_TESTDATA_LOAD_INT(x26, x23) # load rs1: x23 = 0x7ffffffe
     a68:	000d2b83          	lw	x23,0(x26)
     a6c:	004d0d13          	addi	x26,x26,4

00000a70 <I_srai_cg_cp_rs1_edges_0x7ffffffe>:
I_srai_cg_cp_rs1_edges_0x7ffffffe:
  srai x11, x23, 11 # perform operation
     a70:	40bbd593          	srai	x11,x23,0xb
  # Check if x11 contains the expected result. x12 is the signature ptr, x5 is the link ptr, x4 is a temp reg.
  RVTEST_SIGUPD(x12, x5, x4, x11, I_srai_cg_cp_rs1_edges_0x7ffffffe, I_srai_cg_cp_rs1_edges_0x7ffffffe_str)
     a74:	00062203          	lw	x4,0(x12)
     a78:	00b20863          	beq	x4,x11,a88 <I_srai_cg_cp_rs1_edges_0x7ffffffe+0x18>
     a7c:	2a0012ef          	jal	x5,1d1c <failedtest_x5_x4>
     a80:	00000a70          	.word	0x00000a70
     a84:	0000514c          	.word	0x0000514c
     a88:	00460613          	addi	x12,x12,4

# Testcase cp_rs1_edges (Test source rs1 value = 0xffffffff)
  RVTEST_TESTDATA_LOAD_INT(x26, x17) # load rs1: x17 = 0xffffffff
     a8c:	000d2883          	lw	x17,0(x26)
     a90:	004d0d13          	addi	x26,x26,4

00000a94 <I_srai_cg_cp_rs1_edges_0xffffffff>:
I_srai_cg_cp_rs1_edges_0xffffffff:
  srai x29, x17, 28 # perform operation
     a94:	41c8de93          	srai	x29,x17,0x1c
  # Check if x29 contains the expected result. x12 is the signature ptr, x5 is the link ptr, x4 is a temp reg.
  RVTEST_SIGUPD(x12, x5, x4, x29, I_srai_cg_cp_rs1_edges_0xffffffff, I_srai_cg_cp_rs1_edges_0xffffffff_str)
     a98:	00062203          	lw	x4,0(x12)
     a9c:	01d20863          	beq	x4,x29,aac <I_srai_cg_cp_rs1_edges_0xffffffff+0x18>
     aa0:	27c012ef          	jal	x5,1d1c <failedtest_x5_x4>
     aa4:	00000a94          	.word	0x00000a94
     aa8:	00005189          	.word	0x00005189
     aac:	00460613          	addi	x12,x12,4

# Testcase cp_rs1_edges (Test source rs1 value = 0xfffffffe)
  RVTEST_TESTDATA_LOAD_INT(x26, x29) # load rs1: x29 = 0xfffffffe
     ab0:	000d2e83          	lw	x29,0(x26)
     ab4:	004d0d13          	addi	x26,x26,4

00000ab8 <I_srai_cg_cp_rs1_edges_0xfffffffe>:
I_srai_cg_cp_rs1_edges_0xfffffffe:
  srai x7, x29, 1 # perform operation
     ab8:	401ed393          	srai	x7,x29,0x1
  # Check if x7 contains the expected result. x12 is the signature ptr, x5 is the link ptr, x4 is a temp reg.
  RVTEST_SIGUPD(x12, x5, x4, x7, I_srai_cg_cp_rs1_edges_0xfffffffe, I_srai_cg_cp_rs1_edges_0xfffffffe_str)
     abc:	00062203          	lw	x4,0(x12)
     ac0:	00720863          	beq	x4,x7,ad0 <I_srai_cg_cp_rs1_edges_0xfffffffe+0x18>
     ac4:	258012ef          	jal	x5,1d1c <failedtest_x5_x4>
     ac8:	00000ab8          	.word	0x00000ab8
     acc:	000051c6          	.word	0x000051c6
     ad0:	00460613          	addi	x12,x12,4

# Testcase cp_rs1_edges (Test source rs1 value = 0x5bbc8872)
  RVTEST_TESTDATA_LOAD_INT(x26, x11) # load rs1: x11 = 0x5bbc8872
     ad4:	000d2583          	lw	x11,0(x26)
     ad8:	004d0d13          	addi	x26,x26,4

00000adc <I_srai_cg_cp_rs1_edges_0x5bbc8872>:
I_srai_cg_cp_rs1_edges_0x5bbc8872:
  srai x3, x11, 29 # perform operation
     adc:	41d5d193          	srai	x3,x11,0x1d
  # Check if x3 contains the expected result. x12 is the signature ptr, x5 is the link ptr, x4 is a temp reg.
  RVTEST_SIGUPD(x12, x5, x4, x3, I_srai_cg_cp_rs1_edges_0x5bbc8872, I_srai_cg_cp_rs1_edges_0x5bbc8872_str)
     ae0:	00062203          	lw	x4,0(x12)
     ae4:	00320863          	beq	x4,x3,af4 <I_srai_cg_cp_rs1_edges_0x5bbc8872+0x18>
     ae8:	234012ef          	jal	x5,1d1c <failedtest_x5_x4>
     aec:	00000adc          	.word	0x00000adc
     af0:	00005203          	.word	0x00005203
     af4:	00460613          	addi	x12,x12,4

# Testcase cp_rs1_edges (Test source rs1 value = 0xaaaaaaaa)
  RVTEST_TESTDATA_LOAD_INT(x26, x25) # load rs1: x25 = 0xaaaaaaaa
     af8:	000d2c83          	lw	x25,0(x26)
     afc:	004d0d13          	addi	x26,x26,4

00000b00 <I_srai_cg_cp_rs1_edges_0xaaaaaaaa>:
I_srai_cg_cp_rs1_edges_0xaaaaaaaa:
  srai x22, x25, 5 # perform operation
     b00:	405cdb13          	srai	x22,x25,0x5
  # Check if x22 contains the expected result. x12 is the signature ptr, x5 is the link ptr, x4 is a temp reg.
  RVTEST_SIGUPD(x12, x5, x4, x22, I_srai_cg_cp_rs1_edges_0xaaaaaaaa, I_srai_cg_cp_rs1_edges_0xaaaaaaaa_str)
     b04:	00062203          	lw	x4,0(x12)
     b08:	01620863          	beq	x4,x22,b18 <I_srai_cg_cp_rs1_edges_0xaaaaaaaa+0x18>
     b0c:	210012ef          	jal	x5,1d1c <failedtest_x5_x4>
     b10:	00000b00          	.word	0x00000b00
     b14:	00005240          	.word	0x00005240
     b18:	00460613          	addi	x12,x12,4

# Testcase cp_rs1_edges (Test source rs1 value = 0x55555555)
  RVTEST_TESTDATA_LOAD_INT(x26, x6) # load rs1: x6 = 0x55555555
     b1c:	000d2303          	lw	x6,0(x26)
     b20:	004d0d13          	addi	x26,x26,4

00000b24 <I_srai_cg_cp_rs1_edges_0x55555555>:
I_srai_cg_cp_rs1_edges_0x55555555:
  srai x11, x6, 29 # perform operation
     b24:	41d35593          	srai	x11,x6,0x1d
  # Check if x11 contains the expected result. x12 is the signature ptr, x5 is the link ptr, x4 is a temp reg.
  RVTEST_SIGUPD(x12, x5, x4, x11, I_srai_cg_cp_rs1_edges_0x55555555, I_srai_cg_cp_rs1_edges_0x55555555_str)
     b28:	00062203          	lw	x4,0(x12)
     b2c:	00b20863          	beq	x4,x11,b3c <I_srai_cg_cp_rs1_edges_0x55555555+0x18>
     b30:	1ec012ef          	jal	x5,1d1c <failedtest_x5_x4>
     b34:	00000b24          	.word	0x00000b24
     b38:	0000527d          	.word	0x0000527d
     b3c:	00460613          	addi	x12,x12,4
/////////////////////////////////
// cr_rs1_imm_edges_uimm
/////////////////////////////////

# Testcase cr_rs1_imm_edges_uimm (rs1 = 0x00000000, imm = 0)
  RVTEST_TESTDATA_LOAD_INT(x26, x11) # load rs1: x11 = 0x00000000
     b40:	000d2583          	lw	x11,0(x26)
     b44:	004d0d13          	addi	x26,x26,4

00000b48 <I_srai_cg_cr_rs1_imm_edges_uimm_rs1val_0x0_immval_0x0>:
I_srai_cg_cr_rs1_imm_edges_uimm_rs1val_0x0_immval_0x0:
  srai x28, x11, 0 # perform operation
     b48:	4005de13          	srai	x28,x11,0x0
  # Check if x28 contains the expected result. x12 is the signature ptr, x5 is the link ptr, x4 is a temp reg.
  RVTEST_SIGUPD(x12, x5, x4, x28, I_srai_cg_cr_rs1_imm_edges_uimm_rs1val_0x0_immval_0x0, I_srai_cg_cr_rs1_imm_edges_uimm_rs1val_0x0_immval_0x0_str)
     b4c:	00062203          	lw	x4,0(x12)
     b50:	01c20863          	beq	x4,x28,b60 <I_srai_cg_cr_rs1_imm_edges_uimm_rs1val_0x0_immval_0x0+0x18>
     b54:	1c8012ef          	jal	x5,1d1c <failedtest_x5_x4>
     b58:	00000b48          	.word	0x00000b48
     b5c:	000052ba          	.word	0x000052ba
     b60:	00460613          	addi	x12,x12,4

# Testcase cr_rs1_imm_edges_uimm (rs1 = 0x00000000, imm = 1)
  RVTEST_TESTDATA_LOAD_INT(x26, x2) # load rs1: x2 = 0x00000000
     b64:	000d2103          	lw	x2,0(x26)
     b68:	004d0d13          	addi	x26,x26,4

00000b6c <I_srai_cg_cr_rs1_imm_edges_uimm_rs1val_0x0_immval_0x1>:
I_srai_cg_cr_rs1_imm_edges_uimm_rs1val_0x0_immval_0x1:
  srai x28, x2, 1 # perform operation
     b6c:	40115e13          	srai	x28,x2,0x1
  # Check if x28 contains the expected result. x12 is the signature ptr, x5 is the link ptr, x4 is a temp reg.
  RVTEST_SIGUPD(x12, x5, x4, x28, I_srai_cg_cr_rs1_imm_edges_uimm_rs1val_0x0_immval_0x1, I_srai_cg_cr_rs1_imm_edges_uimm_rs1val_0x0_immval_0x1_str)
     b70:	00062203          	lw	x4,0(x12)
     b74:	01c20863          	beq	x4,x28,b84 <I_srai_cg_cr_rs1_imm_edges_uimm_rs1val_0x0_immval_0x1+0x18>
     b78:	1a4012ef          	jal	x5,1d1c <failedtest_x5_x4>
     b7c:	00000b6c          	.word	0x00000b6c
     b80:	0000530c          	.word	0x0000530c
     b84:	00460613          	addi	x12,x12,4

# Testcase cr_rs1_imm_edges_uimm (rs1 = 0x00000000, imm = 19)
  RVTEST_TESTDATA_LOAD_INT(x26, x19) # load rs1: x19 = 0x00000000
     b88:	000d2983          	lw	x19,0(x26)
     b8c:	004d0d13          	addi	x26,x26,4

00000b90 <I_srai_cg_cr_rs1_imm_edges_uimm_rs1val_0x0_immval_0x13>:
I_srai_cg_cr_rs1_imm_edges_uimm_rs1val_0x0_immval_0x13:
  srai x11, x19, 19 # perform operation
     b90:	4139d593          	srai	x11,x19,0x13
  # Check if x11 contains the expected result. x12 is the signature ptr, x5 is the link ptr, x4 is a temp reg.
  RVTEST_SIGUPD(x12, x5, x4, x11, I_srai_cg_cr_rs1_imm_edges_uimm_rs1val_0x0_immval_0x13, I_srai_cg_cr_rs1_imm_edges_uimm_rs1val_0x0_immval_0x13_str)
     b94:	00062203          	lw	x4,0(x12)
     b98:	00b20863          	beq	x4,x11,ba8 <I_srai_cg_cr_rs1_imm_edges_uimm_rs1val_0x0_immval_0x13+0x18>
     b9c:	180012ef          	jal	x5,1d1c <failedtest_x5_x4>
     ba0:	00000b90          	.word	0x00000b90
     ba4:	0000535e          	.word	0x0000535e
     ba8:	00460613          	addi	x12,x12,4

# Testcase cr_rs1_imm_edges_uimm (rs1 = 0x00000000, imm = 30)
  RVTEST_TESTDATA_LOAD_INT(x26, x22) # load rs1: x22 = 0x00000000
     bac:	000d2b03          	lw	x22,0(x26)
     bb0:	004d0d13          	addi	x26,x26,4

00000bb4 <I_srai_cg_cr_rs1_imm_edges_uimm_rs1val_0x0_immval_0x1e>:
I_srai_cg_cr_rs1_imm_edges_uimm_rs1val_0x0_immval_0x1e:
  srai x31, x22, 30 # perform operation
     bb4:	41eb5f93          	srai	x31,x22,0x1e
  # Check if x31 contains the expected result. x12 is the signature ptr, x5 is the link ptr, x4 is a temp reg.
  RVTEST_SIGUPD(x12, x5, x4, x31, I_srai_cg_cr_rs1_imm_edges_uimm_rs1val_0x0_immval_0x1e, I_srai_cg_cr_rs1_imm_edges_uimm_rs1val_0x0_immval_0x1e_str)
     bb8:	00062203          	lw	x4,0(x12)
     bbc:	01f20863          	beq	x4,x31,bcc <I_srai_cg_cr_rs1_imm_edges_uimm_rs1val_0x0_immval_0x1e+0x18>
     bc0:	15c012ef          	jal	x5,1d1c <failedtest_x5_x4>
     bc4:	00000bb4          	.word	0x00000bb4
     bc8:	000053b1          	.word	0x000053b1
     bcc:	00460613          	addi	x12,x12,4

# Testcase cr_rs1_imm_edges_uimm (rs1 = 0x00000000, imm = 31)
  RVTEST_TESTDATA_LOAD_INT(x26, x10) # load rs1: x10 = 0x00000000
     bd0:	000d2503          	lw	x10,0(x26)
     bd4:	004d0d13          	addi	x26,x26,4

00000bd8 <I_srai_cg_cr_rs1_imm_edges_uimm_rs1val_0x0_immval_0x1f>:
I_srai_cg_cr_rs1_imm_edges_uimm_rs1val_0x0_immval_0x1f:
  srai x9, x10, 31 # perform operation
     bd8:	41f55493          	srai	x9,x10,0x1f
  # Check if x9 contains the expected result. x12 is the signature ptr, x5 is the link ptr, x4 is a temp reg.
  RVTEST_SIGUPD(x12, x5, x4, x9, I_srai_cg_cr_rs1_imm_edges_uimm_rs1val_0x0_immval_0x1f, I_srai_cg_cr_rs1_imm_edges_uimm_rs1val_0x0_immval_0x1f_str)
     bdc:	00062203          	lw	x4,0(x12)
     be0:	00920863          	beq	x4,x9,bf0 <I_srai_cg_cr_rs1_imm_edges_uimm_rs1val_0x0_immval_0x1f+0x18>
     be4:	138012ef          	jal	x5,1d1c <failedtest_x5_x4>
     be8:	00000bd8          	.word	0x00000bd8
     bec:	00005404          	.word	0x00005404
     bf0:	00460613          	addi	x12,x12,4

# Testcase cr_rs1_imm_edges_uimm (rs1 = 0x00000001, imm = 0)
  RVTEST_TESTDATA_LOAD_INT(x26, x24) # load rs1: x24 = 0x00000001
     bf4:	000d2c03          	lw	x24,0(x26)
     bf8:	004d0d13          	addi	x26,x26,4

00000bfc <I_srai_cg_cr_rs1_imm_edges_uimm_rs1val_0x1_immval_0x0>:
I_srai_cg_cr_rs1_imm_edges_uimm_rs1val_0x1_immval_0x0:
  srai x3, x24, 0 # perform operation
     bfc:	400c5193          	srai	x3,x24,0x0
  # Check if x3 contains the expected result. x12 is the signature ptr, x5 is the link ptr, x4 is a temp reg.
  RVTEST_SIGUPD(x12, x5, x4, x3, I_srai_cg_cr_rs1_imm_edges_uimm_rs1val_0x1_immval_0x0, I_srai_cg_cr_rs1_imm_edges_uimm_rs1val_0x1_immval_0x0_str)
     c00:	00062203          	lw	x4,0(x12)
     c04:	00320863          	beq	x4,x3,c14 <I_srai_cg_cr_rs1_imm_edges_uimm_rs1val_0x1_immval_0x0+0x18>
     c08:	114012ef          	jal	x5,1d1c <failedtest_x5_x4>
     c0c:	00000bfc          	.word	0x00000bfc
     c10:	00005457          	.word	0x00005457
     c14:	00460613          	addi	x12,x12,4

# Testcase cr_rs1_imm_edges_uimm (rs1 = 0x00000001, imm = 1)
  RVTEST_TESTDATA_LOAD_INT(x26, x2) # load rs1: x2 = 0x00000001
     c18:	000d2103          	lw	x2,0(x26)
     c1c:	004d0d13          	addi	x26,x26,4

00000c20 <I_srai_cg_cr_rs1_imm_edges_uimm_rs1val_0x1_immval_0x1>:
I_srai_cg_cr_rs1_imm_edges_uimm_rs1val_0x1_immval_0x1:
  srai x27, x2, 1 # perform operation
     c20:	40115d93          	srai	x27,x2,0x1
  # Check if x27 contains the expected result. x12 is the signature ptr, x5 is the link ptr, x4 is a temp reg.
  RVTEST_SIGUPD(x12, x5, x4, x27, I_srai_cg_cr_rs1_imm_edges_uimm_rs1val_0x1_immval_0x1, I_srai_cg_cr_rs1_imm_edges_uimm_rs1val_0x1_immval_0x1_str)
     c24:	00062203          	lw	x4,0(x12)
     c28:	01b20863          	beq	x4,x27,c38 <I_srai_cg_cr_rs1_imm_edges_uimm_rs1val_0x1_immval_0x1+0x18>
     c2c:	0f0012ef          	jal	x5,1d1c <failedtest_x5_x4>
     c30:	00000c20          	.word	0x00000c20
     c34:	000054a9          	.word	0x000054a9
     c38:	00460613          	addi	x12,x12,4

# Testcase cr_rs1_imm_edges_uimm (rs1 = 0x00000001, imm = 19)
  RVTEST_TESTDATA_LOAD_INT(x26, x21) # load rs1: x21 = 0x00000001
     c3c:	000d2a83          	lw	x21,0(x26)
     c40:	004d0d13          	addi	x26,x26,4

00000c44 <I_srai_cg_cr_rs1_imm_edges_uimm_rs1val_0x1_immval_0x13>:
I_srai_cg_cr_rs1_imm_edges_uimm_rs1val_0x1_immval_0x13:
  srai x30, x21, 19 # perform operation
     c44:	413adf13          	srai	x30,x21,0x13
  # Check if x30 contains the expected result. x12 is the signature ptr, x5 is the link ptr, x4 is a temp reg.
  RVTEST_SIGUPD(x12, x5, x4, x30, I_srai_cg_cr_rs1_imm_edges_uimm_rs1val_0x1_immval_0x13, I_srai_cg_cr_rs1_imm_edges_uimm_rs1val_0x1_immval_0x13_str)
     c48:	00062203          	lw	x4,0(x12)
     c4c:	01e20863          	beq	x4,x30,c5c <I_srai_cg_cr_rs1_imm_edges_uimm_rs1val_0x1_immval_0x13+0x18>
     c50:	0cc012ef          	jal	x5,1d1c <failedtest_x5_x4>
     c54:	00000c44          	.word	0x00000c44
     c58:	000054fb          	.word	0x000054fb
     c5c:	00460613          	addi	x12,x12,4

# Testcase cr_rs1_imm_edges_uimm (rs1 = 0x00000001, imm = 30)
  RVTEST_TESTDATA_LOAD_INT(x26, x18) # load rs1: x18 = 0x00000001
     c60:	000d2903          	lw	x18,0(x26)
     c64:	004d0d13          	addi	x26,x26,4

00000c68 <I_srai_cg_cr_rs1_imm_edges_uimm_rs1val_0x1_immval_0x1e>:
I_srai_cg_cr_rs1_imm_edges_uimm_rs1val_0x1_immval_0x1e:
  srai x20, x18, 30 # perform operation
     c68:	41e95a13          	srai	x20,x18,0x1e
  # Check if x20 contains the expected result. x12 is the signature ptr, x5 is the link ptr, x4 is a temp reg.
  RVTEST_SIGUPD(x12, x5, x4, x20, I_srai_cg_cr_rs1_imm_edges_uimm_rs1val_0x1_immval_0x1e, I_srai_cg_cr_rs1_imm_edges_uimm_rs1val_0x1_immval_0x1e_str)
     c6c:	00062203          	lw	x4,0(x12)
     c70:	01420863          	beq	x4,x20,c80 <I_srai_cg_cr_rs1_imm_edges_uimm_rs1val_0x1_immval_0x1e+0x18>
     c74:	0a8012ef          	jal	x5,1d1c <failedtest_x5_x4>
     c78:	00000c68          	.word	0x00000c68
     c7c:	0000554e          	.word	0x0000554e
     c80:	00460613          	addi	x12,x12,4

# Testcase cr_rs1_imm_edges_uimm (rs1 = 0x00000001, imm = 31)
  RVTEST_TESTDATA_LOAD_INT(x26, x2) # load rs1: x2 = 0x00000001
     c84:	000d2103          	lw	x2,0(x26)
     c88:	004d0d13          	addi	x26,x26,4

00000c8c <I_srai_cg_cr_rs1_imm_edges_uimm_rs1val_0x1_immval_0x1f>:
I_srai_cg_cr_rs1_imm_edges_uimm_rs1val_0x1_immval_0x1f:
  srai x27, x2, 31 # perform operation
     c8c:	41f15d93          	srai	x27,x2,0x1f
  # Check if x27 contains the expected result. x12 is the signature ptr, x5 is the link ptr, x4 is a temp reg.
  RVTEST_SIGUPD(x12, x5, x4, x27, I_srai_cg_cr_rs1_imm_edges_uimm_rs1val_0x1_immval_0x1f, I_srai_cg_cr_rs1_imm_edges_uimm_rs1val_0x1_immval_0x1f_str)
     c90:	00062203          	lw	x4,0(x12)
     c94:	01b20863          	beq	x4,x27,ca4 <I_srai_cg_cr_rs1_imm_edges_uimm_rs1val_0x1_immval_0x1f+0x18>
     c98:	084012ef          	jal	x5,1d1c <failedtest_x5_x4>
     c9c:	00000c8c          	.word	0x00000c8c
     ca0:	000055a1          	.word	0x000055a1
     ca4:	00460613          	addi	x12,x12,4

# Testcase cr_rs1_imm_edges_uimm (rs1 = 0x00000002, imm = 0)
  RVTEST_TESTDATA_LOAD_INT(x26, x6) # load rs1: x6 = 0x00000002
     ca8:	000d2303          	lw	x6,0(x26)
     cac:	004d0d13          	addi	x26,x26,4

00000cb0 <I_srai_cg_cr_rs1_imm_edges_uimm_rs1val_0x2_immval_0x0>:
I_srai_cg_cr_rs1_imm_edges_uimm_rs1val_0x2_immval_0x0:
  srai x20, x6, 0 # perform operation
     cb0:	40035a13          	srai	x20,x6,0x0
  # Check if x20 contains the expected result. x12 is the signature ptr, x5 is the link ptr, x4 is a temp reg.
  RVTEST_SIGUPD(x12, x5, x4, x20, I_srai_cg_cr_rs1_imm_edges_uimm_rs1val_0x2_immval_0x0, I_srai_cg_cr_rs1_imm_edges_uimm_rs1val_0x2_immval_0x0_str)
     cb4:	00062203          	lw	x4,0(x12)
     cb8:	01420863          	beq	x4,x20,cc8 <I_srai_cg_cr_rs1_imm_edges_uimm_rs1val_0x2_immval_0x0+0x18>
     cbc:	060012ef          	jal	x5,1d1c <failedtest_x5_x4>
     cc0:	00000cb0          	.word	0x00000cb0
     cc4:	000055f4          	.word	0x000055f4
     cc8:	00460613          	addi	x12,x12,4

# Testcase cr_rs1_imm_edges_uimm (rs1 = 0x00000002, imm = 1)
  RVTEST_TESTDATA_LOAD_INT(x26, x11) # load rs1: x11 = 0x00000002
     ccc:	000d2583          	lw	x11,0(x26)
     cd0:	004d0d13          	addi	x26,x26,4

00000cd4 <I_srai_cg_cr_rs1_imm_edges_uimm_rs1val_0x2_immval_0x1>:
I_srai_cg_cr_rs1_imm_edges_uimm_rs1val_0x2_immval_0x1:
  srai x30, x11, 1 # perform operation
     cd4:	4015df13          	srai	x30,x11,0x1
  # Check if x30 contains the expected result. x12 is the signature ptr, x5 is the link ptr, x4 is a temp reg.
  RVTEST_SIGUPD(x12, x5, x4, x30, I_srai_cg_cr_rs1_imm_edges_uimm_rs1val_0x2_immval_0x1, I_srai_cg_cr_rs1_imm_edges_uimm_rs1val_0x2_immval_0x1_str)
     cd8:	00062203          	lw	x4,0(x12)
     cdc:	01e20863          	beq	x4,x30,cec <I_srai_cg_cr_rs1_imm_edges_uimm_rs1val_0x2_immval_0x1+0x18>
     ce0:	03c012ef          	jal	x5,1d1c <failedtest_x5_x4>
     ce4:	00000cd4          	.word	0x00000cd4
     ce8:	00005646          	.word	0x00005646
     cec:	00460613          	addi	x12,x12,4

# Testcase cr_rs1_imm_edges_uimm (rs1 = 0x00000002, imm = 19)
  RVTEST_TESTDATA_LOAD_INT(x26, x11) # load rs1: x11 = 0x00000002
     cf0:	000d2583          	lw	x11,0(x26)
     cf4:	004d0d13          	addi	x26,x26,4

00000cf8 <I_srai_cg_cr_rs1_imm_edges_uimm_rs1val_0x2_immval_0x13>:
I_srai_cg_cr_rs1_imm_edges_uimm_rs1val_0x2_immval_0x13:
  srai x18, x11, 19 # perform operation
     cf8:	4135d913          	srai	x18,x11,0x13
  # Check if x18 contains the expected result. x12 is the signature ptr, x5 is the link ptr, x4 is a temp reg.
  RVTEST_SIGUPD(x12, x5, x4, x18, I_srai_cg_cr_rs1_imm_edges_uimm_rs1val_0x2_immval_0x13, I_srai_cg_cr_rs1_imm_edges_uimm_rs1val_0x2_immval_0x13_str)
     cfc:	00062203          	lw	x4,0(x12)
     d00:	01220863          	beq	x4,x18,d10 <I_srai_cg_cr_rs1_imm_edges_uimm_rs1val_0x2_immval_0x13+0x18>
     d04:	018012ef          	jal	x5,1d1c <failedtest_x5_x4>
     d08:	00000cf8          	.word	0x00000cf8
     d0c:	00005698          	.word	0x00005698
     d10:	00460613          	addi	x12,x12,4

# Testcase cr_rs1_imm_edges_uimm (rs1 = 0x00000002, imm = 30)
  RVTEST_TESTDATA_LOAD_INT(x26, x16) # load rs1: x16 = 0x00000002
     d14:	000d2803          	lw	x16,0(x26)
     d18:	004d0d13          	addi	x26,x26,4

00000d1c <I_srai_cg_cr_rs1_imm_edges_uimm_rs1val_0x2_immval_0x1e>:
I_srai_cg_cr_rs1_imm_edges_uimm_rs1val_0x2_immval_0x1e:
  srai x14, x16, 30 # perform operation
     d1c:	41e85713          	srai	x14,x16,0x1e
  # Check if x14 contains the expected result. x12 is the signature ptr, x5 is the link ptr, x4 is a temp reg.
  RVTEST_SIGUPD(x12, x5, x4, x14, I_srai_cg_cr_rs1_imm_edges_uimm_rs1val_0x2_immval_0x1e, I_srai_cg_cr_rs1_imm_edges_uimm_rs1val_0x2_immval_0x1e_str)
     d20:	00062203          	lw	x4,0(x12)
     d24:	00e20863          	beq	x4,x14,d34 <I_srai_cg_cr_rs1_imm_edges_uimm_rs1val_0x2_immval_0x1e+0x18>
     d28:	7f5002ef          	jal	x5,1d1c <failedtest_x5_x4>
     d2c:	00000d1c          	.word	0x00000d1c
     d30:	000056eb          	.word	0x000056eb
     d34:	00460613          	addi	x12,x12,4

# Testcase cr_rs1_imm_edges_uimm (rs1 = 0x00000002, imm = 31)
  RVTEST_TESTDATA_LOAD_INT(x26, x15) # load rs1: x15 = 0x00000002
     d38:	000d2783          	lw	x15,0(x26)
     d3c:	004d0d13          	addi	x26,x26,4

00000d40 <I_srai_cg_cr_rs1_imm_edges_uimm_rs1val_0x2_immval_0x1f>:
I_srai_cg_cr_rs1_imm_edges_uimm_rs1val_0x2_immval_0x1f:
  srai x20, x15, 31 # perform operation
     d40:	41f7da13          	srai	x20,x15,0x1f
  # Check if x20 contains the expected result. x12 is the signature ptr, x5 is the link ptr, x4 is a temp reg.
  RVTEST_SIGUPD(x12, x5, x4, x20, I_srai_cg_cr_rs1_imm_edges_uimm_rs1val_0x2_immval_0x1f, I_srai_cg_cr_rs1_imm_edges_uimm_rs1val_0x2_immval_0x1f_str)
     d44:	00062203          	lw	x4,0(x12)
     d48:	01420863          	beq	x4,x20,d58 <I_srai_cg_cr_rs1_imm_edges_uimm_rs1val_0x2_immval_0x1f+0x18>
     d4c:	7d1002ef          	jal	x5,1d1c <failedtest_x5_x4>
     d50:	00000d40          	.word	0x00000d40
     d54:	0000573e          	.word	0x0000573e
     d58:	00460613          	addi	x12,x12,4

# Testcase cr_rs1_imm_edges_uimm (rs1 = 0x80000000, imm = 0)
  RVTEST_TESTDATA_LOAD_INT(x26, x6) # load rs1: x6 = 0x80000000
     d5c:	000d2303          	lw	x6,0(x26)
     d60:	004d0d13          	addi	x26,x26,4

00000d64 <I_srai_cg_cr_rs1_imm_edges_uimm_rs1val_0x80000000_immval_0x0>:
I_srai_cg_cr_rs1_imm_edges_uimm_rs1val_0x80000000_immval_0x0:
  srai x10, x6, 0 # perform operation
     d64:	40035513          	srai	x10,x6,0x0
  # Check if x10 contains the expected result. x12 is the signature ptr, x5 is the link ptr, x4 is a temp reg.
  RVTEST_SIGUPD(x12, x5, x4, x10, I_srai_cg_cr_rs1_imm_edges_uimm_rs1val_0x80000000_immval_0x0, I_srai_cg_cr_rs1_imm_edges_uimm_rs1val_0x80000000_immval_0x0_str)
     d68:	00062203          	lw	x4,0(x12)
     d6c:	00a20863          	beq	x4,x10,d7c <I_srai_cg_cr_rs1_imm_edges_uimm_rs1val_0x80000000_immval_0x0+0x18>
     d70:	7ad002ef          	jal	x5,1d1c <failedtest_x5_x4>
     d74:	00000d64          	.word	0x00000d64
     d78:	00005791          	.word	0x00005791
     d7c:	00460613          	addi	x12,x12,4

# Testcase cr_rs1_imm_edges_uimm (rs1 = 0x80000000, imm = 1)
  RVTEST_TESTDATA_LOAD_INT(x26, x16) # load rs1: x16 = 0x80000000
     d80:	000d2803          	lw	x16,0(x26)
     d84:	004d0d13          	addi	x26,x26,4

00000d88 <I_srai_cg_cr_rs1_imm_edges_uimm_rs1val_0x80000000_immval_0x1>:
I_srai_cg_cr_rs1_imm_edges_uimm_rs1val_0x80000000_immval_0x1:
  srai x17, x16, 1 # perform operation
     d88:	40185893          	srai	x17,x16,0x1
  # Check if x17 contains the expected result. x12 is the signature ptr, x5 is the link ptr, x4 is a temp reg.
  RVTEST_SIGUPD(x12, x5, x4, x17, I_srai_cg_cr_rs1_imm_edges_uimm_rs1val_0x80000000_immval_0x1, I_srai_cg_cr_rs1_imm_edges_uimm_rs1val_0x80000000_immval_0x1_str)
     d8c:	00062203          	lw	x4,0(x12)
     d90:	01120863          	beq	x4,x17,da0 <I_srai_cg_cr_rs1_imm_edges_uimm_rs1val_0x80000000_immval_0x1+0x18>
     d94:	789002ef          	jal	x5,1d1c <failedtest_x5_x4>
     d98:	00000d88          	.word	0x00000d88
     d9c:	000057ea          	.word	0x000057ea
     da0:	00460613          	addi	x12,x12,4

# Testcase cr_rs1_imm_edges_uimm (rs1 = 0x80000000, imm = 19)
  RVTEST_TESTDATA_LOAD_INT(x26, x18) # load rs1: x18 = 0x80000000
     da4:	000d2903          	lw	x18,0(x26)
     da8:	004d0d13          	addi	x26,x26,4

00000dac <I_srai_cg_cr_rs1_imm_edges_uimm_rs1val_0x80000000_immval_0x13>:
I_srai_cg_cr_rs1_imm_edges_uimm_rs1val_0x80000000_immval_0x13:
  srai x15, x18, 19 # perform operation
     dac:	41395793          	srai	x15,x18,0x13
  # Check if x15 contains the expected result. x12 is the signature ptr, x5 is the link ptr, x4 is a temp reg.
  RVTEST_SIGUPD(x12, x5, x4, x15, I_srai_cg_cr_rs1_imm_edges_uimm_rs1val_0x80000000_immval_0x13, I_srai_cg_cr_rs1_imm_edges_uimm_rs1val_0x80000000_immval_0x13_str)
     db0:	00062203          	lw	x4,0(x12)
     db4:	00f20863          	beq	x4,x15,dc4 <I_srai_cg_cr_rs1_imm_edges_uimm_rs1val_0x80000000_immval_0x13+0x18>
     db8:	765002ef          	jal	x5,1d1c <failedtest_x5_x4>
     dbc:	00000dac          	.word	0x00000dac
     dc0:	00005843          	.word	0x00005843
     dc4:	00460613          	addi	x12,x12,4

# Testcase cr_rs1_imm_edges_uimm (rs1 = 0x80000000, imm = 30)
  RVTEST_TESTDATA_LOAD_INT(x26, x1) # load rs1: x1 = 0x80000000
     dc8:	000d2083          	lw	x1,0(x26)
     dcc:	004d0d13          	addi	x26,x26,4

00000dd0 <I_srai_cg_cr_rs1_imm_edges_uimm_rs1val_0x80000000_immval_0x1e>:
I_srai_cg_cr_rs1_imm_edges_uimm_rs1val_0x80000000_immval_0x1e:
  srai x3, x1, 30 # perform operation
     dd0:	41e0d193          	srai	x3,x1,0x1e
  # Check if x3 contains the expected result. x12 is the signature ptr, x5 is the link ptr, x4 is a temp reg.
  RVTEST_SIGUPD(x12, x5, x4, x3, I_srai_cg_cr_rs1_imm_edges_uimm_rs1val_0x80000000_immval_0x1e, I_srai_cg_cr_rs1_imm_edges_uimm_rs1val_0x80000000_immval_0x1e_str)
     dd4:	00062203          	lw	x4,0(x12)
     dd8:	00320863          	beq	x4,x3,de8 <I_srai_cg_cr_rs1_imm_edges_uimm_rs1val_0x80000000_immval_0x1e+0x18>
     ddc:	741002ef          	jal	x5,1d1c <failedtest_x5_x4>
     de0:	00000dd0          	.word	0x00000dd0
     de4:	0000589d          	.word	0x0000589d
     de8:	00460613          	addi	x12,x12,4

# Testcase cr_rs1_imm_edges_uimm (rs1 = 0x80000000, imm = 31)
  RVTEST_TESTDATA_LOAD_INT(x26, x23) # load rs1: x23 = 0x80000000
     dec:	000d2b83          	lw	x23,0(x26)
     df0:	004d0d13          	addi	x26,x26,4

00000df4 <I_srai_cg_cr_rs1_imm_edges_uimm_rs1val_0x80000000_immval_0x1f>:
I_srai_cg_cr_rs1_imm_edges_uimm_rs1val_0x80000000_immval_0x1f:
  srai x13, x23, 31 # perform operation
     df4:	41fbd693          	srai	x13,x23,0x1f
  # Check if x13 contains the expected result. x12 is the signature ptr, x5 is the link ptr, x4 is a temp reg.
  RVTEST_SIGUPD(x12, x5, x4, x13, I_srai_cg_cr_rs1_imm_edges_uimm_rs1val_0x80000000_immval_0x1f, I_srai_cg_cr_rs1_imm_edges_uimm_rs1val_0x80000000_immval_0x1f_str)
     df8:	00062203          	lw	x4,0(x12)
     dfc:	00d20863          	beq	x4,x13,e0c <I_srai_cg_cr_rs1_imm_edges_uimm_rs1val_0x80000000_immval_0x1f+0x18>
     e00:	71d002ef          	jal	x5,1d1c <failedtest_x5_x4>
     e04:	00000df4          	.word	0x00000df4
     e08:	000058f7          	.word	0x000058f7
     e0c:	00460613          	addi	x12,x12,4

# Testcase cr_rs1_imm_edges_uimm (rs1 = 0x80000001, imm = 0)
  RVTEST_TESTDATA_LOAD_INT(x26, x17) # load rs1: x17 = 0x80000001
     e10:	000d2883          	lw	x17,0(x26)
     e14:	004d0d13          	addi	x26,x26,4

00000e18 <I_srai_cg_cr_rs1_imm_edges_uimm_rs1val_0x80000001_immval_0x0>:
I_srai_cg_cr_rs1_imm_edges_uimm_rs1val_0x80000001_immval_0x0:
  srai x29, x17, 0 # perform operation
     e18:	4008de93          	srai	x29,x17,0x0
  # Check if x29 contains the expected result. x12 is the signature ptr, x5 is the link ptr, x4 is a temp reg.
  RVTEST_SIGUPD(x12, x5, x4, x29, I_srai_cg_cr_rs1_imm_edges_uimm_rs1val_0x80000001_immval_0x0, I_srai_cg_cr_rs1_imm_edges_uimm_rs1val_0x80000001_immval_0x0_str)
     e1c:	00062203          	lw	x4,0(x12)
     e20:	01d20863          	beq	x4,x29,e30 <I_srai_cg_cr_rs1_imm_edges_uimm_rs1val_0x80000001_immval_0x0+0x18>
     e24:	6f9002ef          	jal	x5,1d1c <failedtest_x5_x4>
     e28:	00000e18          	.word	0x00000e18
     e2c:	00005951          	.word	0x00005951
     e30:	00460613          	addi	x12,x12,4

# Testcase cr_rs1_imm_edges_uimm (rs1 = 0x80000001, imm = 1)
  RVTEST_TESTDATA_LOAD_INT(x26, x8) # load rs1: x8 = 0x80000001
     e34:	000d2403          	lw	x8,0(x26)
     e38:	004d0d13          	addi	x26,x26,4

00000e3c <I_srai_cg_cr_rs1_imm_edges_uimm_rs1val_0x80000001_immval_0x1>:
I_srai_cg_cr_rs1_imm_edges_uimm_rs1val_0x80000001_immval_0x1:
  srai x31, x8, 1 # perform operation
     e3c:	40145f93          	srai	x31,x8,0x1
  # Check if x31 contains the expected result. x12 is the signature ptr, x5 is the link ptr, x4 is a temp reg.
  RVTEST_SIGUPD(x12, x5, x4, x31, I_srai_cg_cr_rs1_imm_edges_uimm_rs1val_0x80000001_immval_0x1, I_srai_cg_cr_rs1_imm_edges_uimm_rs1val_0x80000001_immval_0x1_str)
     e40:	00062203          	lw	x4,0(x12)
     e44:	01f20863          	beq	x4,x31,e54 <I_srai_cg_cr_rs1_imm_edges_uimm_rs1val_0x80000001_immval_0x1+0x18>
     e48:	6d5002ef          	jal	x5,1d1c <failedtest_x5_x4>
     e4c:	00000e3c          	.word	0x00000e3c
     e50:	000059aa          	.word	0x000059aa
     e54:	00460613          	addi	x12,x12,4

# Testcase cr_rs1_imm_edges_uimm (rs1 = 0x80000001, imm = 19)
  RVTEST_TESTDATA_LOAD_INT(x26, x14) # load rs1: x14 = 0x80000001
     e58:	000d2703          	lw	x14,0(x26)
     e5c:	004d0d13          	addi	x26,x26,4

00000e60 <I_srai_cg_cr_rs1_imm_edges_uimm_rs1val_0x80000001_immval_0x13>:
I_srai_cg_cr_rs1_imm_edges_uimm_rs1val_0x80000001_immval_0x13:
  srai x6, x14, 19 # perform operation
     e60:	41375313          	srai	x6,x14,0x13
  # Check if x6 contains the expected result. x12 is the signature ptr, x5 is the link ptr, x4 is a temp reg.
  RVTEST_SIGUPD(x12, x5, x4, x6, I_srai_cg_cr_rs1_imm_edges_uimm_rs1val_0x80000001_immval_0x13, I_srai_cg_cr_rs1_imm_edges_uimm_rs1val_0x80000001_immval_0x13_str)
     e64:	00062203          	lw	x4,0(x12)
     e68:	00620863          	beq	x4,x6,e78 <I_srai_cg_cr_rs1_imm_edges_uimm_rs1val_0x80000001_immval_0x13+0x18>
     e6c:	6b1002ef          	jal	x5,1d1c <failedtest_x5_x4>
     e70:	00000e60          	.word	0x00000e60
     e74:	00005a03          	.word	0x00005a03
     e78:	00460613          	addi	x12,x12,4

# Testcase cr_rs1_imm_edges_uimm (rs1 = 0x80000001, imm = 30)
  RVTEST_TESTDATA_LOAD_INT(x26, x13) # load rs1: x13 = 0x80000001
     e7c:	000d2683          	lw	x13,0(x26)
     e80:	004d0d13          	addi	x26,x26,4

00000e84 <I_srai_cg_cr_rs1_imm_edges_uimm_rs1val_0x80000001_immval_0x1e>:
I_srai_cg_cr_rs1_imm_edges_uimm_rs1val_0x80000001_immval_0x1e:
  srai x15, x13, 30 # perform operation
     e84:	41e6d793          	srai	x15,x13,0x1e
  # Check if x15 contains the expected result. x12 is the signature ptr, x5 is the link ptr, x4 is a temp reg.
  RVTEST_SIGUPD(x12, x5, x4, x15, I_srai_cg_cr_rs1_imm_edges_uimm_rs1val_0x80000001_immval_0x1e, I_srai_cg_cr_rs1_imm_edges_uimm_rs1val_0x80000001_immval_0x1e_str)
     e88:	00062203          	lw	x4,0(x12)
     e8c:	00f20863          	beq	x4,x15,e9c <I_srai_cg_cr_rs1_imm_edges_uimm_rs1val_0x80000001_immval_0x1e+0x18>
     e90:	68d002ef          	jal	x5,1d1c <failedtest_x5_x4>
     e94:	00000e84          	.word	0x00000e84
     e98:	00005a5d          	.word	0x00005a5d
     e9c:	00460613          	addi	x12,x12,4

# Testcase cr_rs1_imm_edges_uimm (rs1 = 0x80000001, imm = 31)
  RVTEST_TESTDATA_LOAD_INT(x26, x23) # load rs1: x23 = 0x80000001
     ea0:	000d2b83          	lw	x23,0(x26)
     ea4:	004d0d13          	addi	x26,x26,4

00000ea8 <I_srai_cg_cr_rs1_imm_edges_uimm_rs1val_0x80000001_immval_0x1f>:
I_srai_cg_cr_rs1_imm_edges_uimm_rs1val_0x80000001_immval_0x1f:
  srai x9, x23, 31 # perform operation
     ea8:	41fbd493          	srai	x9,x23,0x1f
  # Check if x9 contains the expected result. x12 is the signature ptr, x5 is the link ptr, x4 is a temp reg.
  RVTEST_SIGUPD(x12, x5, x4, x9, I_srai_cg_cr_rs1_imm_edges_uimm_rs1val_0x80000001_immval_0x1f, I_srai_cg_cr_rs1_imm_edges_uimm_rs1val_0x80000001_immval_0x1f_str)
     eac:	00062203          	lw	x4,0(x12)
     eb0:	00920863          	beq	x4,x9,ec0 <I_srai_cg_cr_rs1_imm_edges_uimm_rs1val_0x80000001_immval_0x1f+0x18>
     eb4:	669002ef          	jal	x5,1d1c <failedtest_x5_x4>
     eb8:	00000ea8          	.word	0x00000ea8
     ebc:	00005ab8          	.word	0x00005ab8
     ec0:	00460613          	addi	x12,x12,4

# Testcase cr_rs1_imm_edges_uimm (rs1 = 0x7fffffff, imm = 0)
  RVTEST_TESTDATA_LOAD_INT(x26, x22) # load rs1: x22 = 0x7fffffff
     ec4:	000d2b03          	lw	x22,0(x26)
     ec8:	004d0d13          	addi	x26,x26,4

00000ecc <I_srai_cg_cr_rs1_imm_edges_uimm_rs1val_0x7fffffff_immval_0x0>:
I_srai_cg_cr_rs1_imm_edges_uimm_rs1val_0x7fffffff_immval_0x0:
  srai x24, x22, 0 # perform operation
     ecc:	400b5c13          	srai	x24,x22,0x0
  # Check if x24 contains the expected result. x12 is the signature ptr, x5 is the link ptr, x4 is a temp reg.
  RVTEST_SIGUPD(x12, x5, x4, x24, I_srai_cg_cr_rs1_imm_edges_uimm_rs1val_0x7fffffff_immval_0x0, I_srai_cg_cr_rs1_imm_edges_uimm_rs1val_0x7fffffff_immval_0x0_str)
     ed0:	00062203          	lw	x4,0(x12)
     ed4:	01820863          	beq	x4,x24,ee4 <I_srai_cg_cr_rs1_imm_edges_uimm_rs1val_0x7fffffff_immval_0x0+0x18>
     ed8:	645002ef          	jal	x5,1d1c <failedtest_x5_x4>
     edc:	00000ecc          	.word	0x00000ecc
     ee0:	00005b13          	.word	0x00005b13
     ee4:	00460613          	addi	x12,x12,4

# Testcase cr_rs1_imm_edges_uimm (rs1 = 0x7fffffff, imm = 1)
  RVTEST_TESTDATA_LOAD_INT(x26, x13) # load rs1: x13 = 0x7fffffff
     ee8:	000d2683          	lw	x13,0(x26)
     eec:	004d0d13          	addi	x26,x26,4

00000ef0 <I_srai_cg_cr_rs1_imm_edges_uimm_rs1val_0x7fffffff_immval_0x1>:
I_srai_cg_cr_rs1_imm_edges_uimm_rs1val_0x7fffffff_immval_0x1:
  srai x1, x13, 1 # perform operation
     ef0:	4016d093          	srai	x1,x13,0x1
  # Check if x1 contains the expected result. x12 is the signature ptr, x5 is the link ptr, x4 is a temp reg.
  RVTEST_SIGUPD(x12, x5, x4, x1, I_srai_cg_cr_rs1_imm_edges_uimm_rs1val_0x7fffffff_immval_0x1, I_srai_cg_cr_rs1_imm_edges_uimm_rs1val_0x7fffffff_immval_0x1_str)
     ef4:	00062203          	lw	x4,0(x12)
     ef8:	00120863          	beq	x4,x1,f08 <I_srai_cg_cr_rs1_imm_edges_uimm_rs1val_0x7fffffff_immval_0x1+0x18>
     efc:	621002ef          	jal	x5,1d1c <failedtest_x5_x4>
     f00:	00000ef0          	.word	0x00000ef0
     f04:	00005b6d          	.word	0x00005b6d
     f08:	00460613          	addi	x12,x12,4

# Testcase cr_rs1_imm_edges_uimm (rs1 = 0x7fffffff, imm = 19)
  RVTEST_TESTDATA_LOAD_INT(x26, x8) # load rs1: x8 = 0x7fffffff
     f0c:	000d2403          	lw	x8,0(x26)
     f10:	004d0d13          	addi	x26,x26,4

00000f14 <I_srai_cg_cr_rs1_imm_edges_uimm_rs1val_0x7fffffff_immval_0x13>:
I_srai_cg_cr_rs1_imm_edges_uimm_rs1val_0x7fffffff_immval_0x13:
  srai x16, x8, 19 # perform operation
     f14:	41345813          	srai	x16,x8,0x13
  # Check if x16 contains the expected result. x12 is the signature ptr, x5 is the link ptr, x4 is a temp reg.
  RVTEST_SIGUPD(x12, x5, x4, x16, I_srai_cg_cr_rs1_imm_edges_uimm_rs1val_0x7fffffff_immval_0x13, I_srai_cg_cr_rs1_imm_edges_uimm_rs1val_0x7fffffff_immval_0x13_str)
     f18:	00062203          	lw	x4,0(x12)
     f1c:	01020863          	beq	x4,x16,f2c <I_srai_cg_cr_rs1_imm_edges_uimm_rs1val_0x7fffffff_immval_0x13+0x18>
     f20:	5fd002ef          	jal	x5,1d1c <failedtest_x5_x4>
     f24:	00000f14          	.word	0x00000f14
     f28:	00005bc7          	.word	0x00005bc7
     f2c:	00460613          	addi	x12,x12,4

# Testcase cr_rs1_imm_edges_uimm (rs1 = 0x7fffffff, imm = 30)
  RVTEST_TESTDATA_LOAD_INT(x26, x23) # load rs1: x23 = 0x7fffffff
     f30:	000d2b83          	lw	x23,0(x26)
     f34:	004d0d13          	addi	x26,x26,4

00000f38 <I_srai_cg_cr_rs1_imm_edges_uimm_rs1val_0x7fffffff_immval_0x1e>:
I_srai_cg_cr_rs1_imm_edges_uimm_rs1val_0x7fffffff_immval_0x1e:
  srai x13, x23, 30 # perform operation
     f38:	41ebd693          	srai	x13,x23,0x1e
  # Check if x13 contains the expected result. x12 is the signature ptr, x5 is the link ptr, x4 is a temp reg.
  RVTEST_SIGUPD(x12, x5, x4, x13, I_srai_cg_cr_rs1_imm_edges_uimm_rs1val_0x7fffffff_immval_0x1e, I_srai_cg_cr_rs1_imm_edges_uimm_rs1val_0x7fffffff_immval_0x1e_str)
     f3c:	00062203          	lw	x4,0(x12)
     f40:	00d20863          	beq	x4,x13,f50 <I_srai_cg_cr_rs1_imm_edges_uimm_rs1val_0x7fffffff_immval_0x1e+0x18>
     f44:	5d9002ef          	jal	x5,1d1c <failedtest_x5_x4>
     f48:	00000f38          	.word	0x00000f38
     f4c:	00005c22          	.word	0x00005c22
     f50:	00460613          	addi	x12,x12,4

# Testcase cr_rs1_imm_edges_uimm (rs1 = 0x7fffffff, imm = 31)
  RVTEST_TESTDATA_LOAD_INT(x26, x11) # load rs1: x11 = 0x7fffffff
     f54:	000d2583          	lw	x11,0(x26)
     f58:	004d0d13          	addi	x26,x26,4

00000f5c <I_srai_cg_cr_rs1_imm_edges_uimm_rs1val_0x7fffffff_immval_0x1f>:
I_srai_cg_cr_rs1_imm_edges_uimm_rs1val_0x7fffffff_immval_0x1f:
  srai x27, x11, 31 # perform operation
     f5c:	41f5dd93          	srai	x27,x11,0x1f
  # Check if x27 contains the expected result. x12 is the signature ptr, x5 is the link ptr, x4 is a temp reg.
  RVTEST_SIGUPD(x12, x5, x4, x27, I_srai_cg_cr_rs1_imm_edges_uimm_rs1val_0x7fffffff_immval_0x1f, I_srai_cg_cr_rs1_imm_edges_uimm_rs1val_0x7fffffff_immval_0x1f_str)
     f60:	00062203          	lw	x4,0(x12)
     f64:	01b20863          	beq	x4,x27,f74 <I_srai_cg_cr_rs1_imm_edges_uimm_rs1val_0x7fffffff_immval_0x1f+0x18>
     f68:	5b5002ef          	jal	x5,1d1c <failedtest_x5_x4>
     f6c:	00000f5c          	.word	0x00000f5c
     f70:	00005c7d          	.word	0x00005c7d
     f74:	00460613          	addi	x12,x12,4

# Testcase cr_rs1_imm_edges_uimm (rs1 = 0x7ffffffe, imm = 0)
  RVTEST_TESTDATA_LOAD_INT(x26, x7) # load rs1: x7 = 0x7ffffffe
     f78:	000d2383          	lw	x7,0(x26)
     f7c:	004d0d13          	addi	x26,x26,4

00000f80 <I_srai_cg_cr_rs1_imm_edges_uimm_rs1val_0x7ffffffe_immval_0x0>:
I_srai_cg_cr_rs1_imm_edges_uimm_rs1val_0x7ffffffe_immval_0x0:
  srai x13, x7, 0 # perform operation
     f80:	4003d693          	srai	x13,x7,0x0
  # Check if x13 contains the expected result. x12 is the signature ptr, x5 is the link ptr, x4 is a temp reg.
  RVTEST_SIGUPD(x12, x5, x4, x13, I_srai_cg_cr_rs1_imm_edges_uimm_rs1val_0x7ffffffe_immval_0x0, I_srai_cg_cr_rs1_imm_edges_uimm_rs1val_0x7ffffffe_immval_0x0_str)
     f84:	00062203          	lw	x4,0(x12)
     f88:	00d20863          	beq	x4,x13,f98 <I_srai_cg_cr_rs1_imm_edges_uimm_rs1val_0x7ffffffe_immval_0x0+0x18>
     f8c:	591002ef          	jal	x5,1d1c <failedtest_x5_x4>
     f90:	00000f80          	.word	0x00000f80
     f94:	00005cd8          	.word	0x00005cd8
     f98:	00460613          	addi	x12,x12,4

# Testcase cr_rs1_imm_edges_uimm (rs1 = 0x7ffffffe, imm = 1)
  RVTEST_TESTDATA_LOAD_INT(x26, x6) # load rs1: x6 = 0x7ffffffe
     f9c:	000d2303          	lw	x6,0(x26)
     fa0:	004d0d13          	addi	x26,x26,4

00000fa4 <I_srai_cg_cr_rs1_imm_edges_uimm_rs1val_0x7ffffffe_immval_0x1>:
I_srai_cg_cr_rs1_imm_edges_uimm_rs1val_0x7ffffffe_immval_0x1:
  srai x2, x6, 1 # perform operation
     fa4:	40135113          	srai	x2,x6,0x1
  # Check if x2 contains the expected result. x12 is the signature ptr, x5 is the link ptr, x4 is a temp reg.
  RVTEST_SIGUPD(x12, x5, x4, x2, I_srai_cg_cr_rs1_imm_edges_uimm_rs1val_0x7ffffffe_immval_0x1, I_srai_cg_cr_rs1_imm_edges_uimm_rs1val_0x7ffffffe_immval_0x1_str)
     fa8:	00062203          	lw	x4,0(x12)
     fac:	00220863          	beq	x4,x2,fbc <I_srai_cg_cr_rs1_imm_edges_uimm_rs1val_0x7ffffffe_immval_0x1+0x18>
     fb0:	56d002ef          	jal	x5,1d1c <failedtest_x5_x4>
     fb4:	00000fa4          	.word	0x00000fa4
     fb8:	00005d32          	.word	0x00005d32
     fbc:	00460613          	addi	x12,x12,4

# Testcase cr_rs1_imm_edges_uimm (rs1 = 0x7ffffffe, imm = 19)
  RVTEST_TESTDATA_LOAD_INT(x26, x22) # load rs1: x22 = 0x7ffffffe
     fc0:	000d2b03          	lw	x22,0(x26)
     fc4:	004d0d13          	addi	x26,x26,4

00000fc8 <I_srai_cg_cr_rs1_imm_edges_uimm_rs1val_0x7ffffffe_immval_0x13>:
I_srai_cg_cr_rs1_imm_edges_uimm_rs1val_0x7ffffffe_immval_0x13:
  srai x1, x22, 19 # perform operation
     fc8:	413b5093          	srai	x1,x22,0x13
  # Check if x1 contains the expected result. x12 is the signature ptr, x5 is the link ptr, x4 is a temp reg.
  RVTEST_SIGUPD(x12, x5, x4, x1, I_srai_cg_cr_rs1_imm_edges_uimm_rs1val_0x7ffffffe_immval_0x13, I_srai_cg_cr_rs1_imm_edges_uimm_rs1val_0x7ffffffe_immval_0x13_str)
     fcc:	00062203          	lw	x4,0(x12)
     fd0:	00120863          	beq	x4,x1,fe0 <I_srai_cg_cr_rs1_imm_edges_uimm_rs1val_0x7ffffffe_immval_0x13+0x18>
     fd4:	549002ef          	jal	x5,1d1c <failedtest_x5_x4>
     fd8:	00000fc8          	.word	0x00000fc8
     fdc:	00005d8c          	.word	0x00005d8c
     fe0:	00460613          	addi	x12,x12,4

# Testcase cr_rs1_imm_edges_uimm (rs1 = 0x7ffffffe, imm = 30)
  RVTEST_TESTDATA_LOAD_INT(x26, x13) # load rs1: x13 = 0x7ffffffe
     fe4:	000d2683          	lw	x13,0(x26)
     fe8:	004d0d13          	addi	x26,x26,4

00000fec <I_srai_cg_cr_rs1_imm_edges_uimm_rs1val_0x7ffffffe_immval_0x1e>:
I_srai_cg_cr_rs1_imm_edges_uimm_rs1val_0x7ffffffe_immval_0x1e:
  srai x30, x13, 30 # perform operation
     fec:	41e6df13          	srai	x30,x13,0x1e
  # Check if x30 contains the expected result. x12 is the signature ptr, x5 is the link ptr, x4 is a temp reg.
  RVTEST_SIGUPD(x12, x5, x4, x30, I_srai_cg_cr_rs1_imm_edges_uimm_rs1val_0x7ffffffe_immval_0x1e, I_srai_cg_cr_rs1_imm_edges_uimm_rs1val_0x7ffffffe_immval_0x1e_str)
     ff0:	00062203          	lw	x4,0(x12)
     ff4:	01e20863          	beq	x4,x30,1004 <I_srai_cg_cr_rs1_imm_edges_uimm_rs1val_0x7ffffffe_immval_0x1e+0x18>
     ff8:	525002ef          	jal	x5,1d1c <failedtest_x5_x4>
     ffc:	00000fec          	.word	0x00000fec
    1000:	00005de7          	.word	0x00005de7
    1004:	00460613          	addi	x12,x12,4

# Testcase cr_rs1_imm_edges_uimm (rs1 = 0x7ffffffe, imm = 31)
  RVTEST_TESTDATA_LOAD_INT(x26, x2) # load rs1: x2 = 0x7ffffffe
    1008:	000d2103          	lw	x2,0(x26)
    100c:	004d0d13          	addi	x26,x26,4

00001010 <I_srai_cg_cr_rs1_imm_edges_uimm_rs1val_0x7ffffffe_immval_0x1f>:
I_srai_cg_cr_rs1_imm_edges_uimm_rs1val_0x7ffffffe_immval_0x1f:
  srai x10, x2, 31 # perform operation
    1010:	41f15513          	srai	x10,x2,0x1f
  # Check if x10 contains the expected result. x12 is the signature ptr, x5 is the link ptr, x4 is a temp reg.
  RVTEST_SIGUPD(x12, x5, x4, x10, I_srai_cg_cr_rs1_imm_edges_uimm_rs1val_0x7ffffffe_immval_0x1f, I_srai_cg_cr_rs1_imm_edges_uimm_rs1val_0x7ffffffe_immval_0x1f_str)
    1014:	00062203          	lw	x4,0(x12)
    1018:	00a20863          	beq	x4,x10,1028 <I_srai_cg_cr_rs1_imm_edges_uimm_rs1val_0x7ffffffe_immval_0x1f+0x18>
    101c:	501002ef          	jal	x5,1d1c <failedtest_x5_x4>
    1020:	00001010          	.word	0x00001010
    1024:	00005e42          	.word	0x00005e42
    1028:	00460613          	addi	x12,x12,4

# Testcase cr_rs1_imm_edges_uimm (rs1 = 0xffffffff, imm = 0)
  RVTEST_TESTDATA_LOAD_INT(x26, x11) # load rs1: x11 = 0xffffffff
    102c:	000d2583          	lw	x11,0(x26)
    1030:	004d0d13          	addi	x26,x26,4

00001034 <I_srai_cg_cr_rs1_imm_edges_uimm_rs1val_0xffffffff_immval_0x0>:
I_srai_cg_cr_rs1_imm_edges_uimm_rs1val_0xffffffff_immval_0x0:
  srai x25, x11, 0 # perform operation
    1034:	4005dc93          	srai	x25,x11,0x0
  # Check if x25 contains the expected result. x12 is the signature ptr, x5 is the link ptr, x4 is a temp reg.
  RVTEST_SIGUPD(x12, x5, x4, x25, I_srai_cg_cr_rs1_imm_edges_uimm_rs1val_0xffffffff_immval_0x0, I_srai_cg_cr_rs1_imm_edges_uimm_rs1val_0xffffffff_immval_0x0_str)
    1038:	00062203          	lw	x4,0(x12)
    103c:	01920863          	beq	x4,x25,104c <I_srai_cg_cr_rs1_imm_edges_uimm_rs1val_0xffffffff_immval_0x0+0x18>
    1040:	4dd002ef          	jal	x5,1d1c <failedtest_x5_x4>
    1044:	00001034          	.word	0x00001034
    1048:	00005e9d          	.word	0x00005e9d
    104c:	00460613          	addi	x12,x12,4

# Testcase cr_rs1_imm_edges_uimm (rs1 = 0xffffffff, imm = 1)
  RVTEST_TESTDATA_LOAD_INT(x26, x13) # load rs1: x13 = 0xffffffff
    1050:	000d2683          	lw	x13,0(x26)
    1054:	004d0d13          	addi	x26,x26,4

00001058 <I_srai_cg_cr_rs1_imm_edges_uimm_rs1val_0xffffffff_immval_0x1>:
I_srai_cg_cr_rs1_imm_edges_uimm_rs1val_0xffffffff_immval_0x1:
  srai x30, x13, 1 # perform operation
    1058:	4016df13          	srai	x30,x13,0x1
  # Check if x30 contains the expected result. x12 is the signature ptr, x5 is the link ptr, x4 is a temp reg.
  RVTEST_SIGUPD(x12, x5, x4, x30, I_srai_cg_cr_rs1_imm_edges_uimm_rs1val_0xffffffff_immval_0x1, I_srai_cg_cr_rs1_imm_edges_uimm_rs1val_0xffffffff_immval_0x1_str)
    105c:	00062203          	lw	x4,0(x12)
    1060:	01e20863          	beq	x4,x30,1070 <I_srai_cg_cr_rs1_imm_edges_uimm_rs1val_0xffffffff_immval_0x1+0x18>
    1064:	4b9002ef          	jal	x5,1d1c <failedtest_x5_x4>
    1068:	00001058          	.word	0x00001058
    106c:	00005ef7          	.word	0x00005ef7
    1070:	00460613          	addi	x12,x12,4

# Testcase cr_rs1_imm_edges_uimm (rs1 = 0xffffffff, imm = 19)
  RVTEST_TESTDATA_LOAD_INT(x26, x18) # load rs1: x18 = 0xffffffff
    1074:	000d2903          	lw	x18,0(x26)
    1078:	004d0d13          	addi	x26,x26,4

0000107c <I_srai_cg_cr_rs1_imm_edges_uimm_rs1val_0xffffffff_immval_0x13>:
I_srai_cg_cr_rs1_imm_edges_uimm_rs1val_0xffffffff_immval_0x13:
  srai x25, x18, 19 # perform operation
    107c:	41395c93          	srai	x25,x18,0x13
  # Check if x25 contains the expected result. x12 is the signature ptr, x5 is the link ptr, x4 is a temp reg.
  RVTEST_SIGUPD(x12, x5, x4, x25, I_srai_cg_cr_rs1_imm_edges_uimm_rs1val_0xffffffff_immval_0x13, I_srai_cg_cr_rs1_imm_edges_uimm_rs1val_0xffffffff_immval_0x13_str)
    1080:	00062203          	lw	x4,0(x12)
    1084:	01920863          	beq	x4,x25,1094 <I_srai_cg_cr_rs1_imm_edges_uimm_rs1val_0xffffffff_immval_0x13+0x18>
    1088:	495002ef          	jal	x5,1d1c <failedtest_x5_x4>
    108c:	0000107c          	.word	0x0000107c
    1090:	00005f51          	.word	0x00005f51
    1094:	00460613          	addi	x12,x12,4

# Testcase cr_rs1_imm_edges_uimm (rs1 = 0xffffffff, imm = 30)
  RVTEST_TESTDATA_LOAD_INT(x26, x30) # load rs1: x30 = 0xffffffff
    1098:	000d2f03          	lw	x30,0(x26)
    109c:	004d0d13          	addi	x26,x26,4

000010a0 <I_srai_cg_cr_rs1_imm_edges_uimm_rs1val_0xffffffff_immval_0x1e>:
I_srai_cg_cr_rs1_imm_edges_uimm_rs1val_0xffffffff_immval_0x1e:
  srai x27, x30, 30 # perform operation
    10a0:	41ef5d93          	srai	x27,x30,0x1e
  # Check if x27 contains the expected result. x12 is the signature ptr, x5 is the link ptr, x4 is a temp reg.
  RVTEST_SIGUPD(x12, x5, x4, x27, I_srai_cg_cr_rs1_imm_edges_uimm_rs1val_0xffffffff_immval_0x1e, I_srai_cg_cr_rs1_imm_edges_uimm_rs1val_0xffffffff_immval_0x1e_str)
    10a4:	00062203          	lw	x4,0(x12)
    10a8:	01b20863          	beq	x4,x27,10b8 <I_srai_cg_cr_rs1_imm_edges_uimm_rs1val_0xffffffff_immval_0x1e+0x18>
    10ac:	471002ef          	jal	x5,1d1c <failedtest_x5_x4>
    10b0:	000010a0          	.word	0x000010a0
    10b4:	00005fac          	.word	0x00005fac
    10b8:	00460613          	addi	x12,x12,4

# Testcase cr_rs1_imm_edges_uimm (rs1 = 0xffffffff, imm = 31)
  RVTEST_TESTDATA_LOAD_INT(x26, x8) # load rs1: x8 = 0xffffffff
    10bc:	000d2403          	lw	x8,0(x26)
    10c0:	004d0d13          	addi	x26,x26,4

000010c4 <I_srai_cg_cr_rs1_imm_edges_uimm_rs1val_0xffffffff_immval_0x1f>:
I_srai_cg_cr_rs1_imm_edges_uimm_rs1val_0xffffffff_immval_0x1f:
  srai x24, x8, 31 # perform operation
    10c4:	41f45c13          	srai	x24,x8,0x1f
  # Check if x24 contains the expected result. x12 is the signature ptr, x5 is the link ptr, x4 is a temp reg.
  RVTEST_SIGUPD(x12, x5, x4, x24, I_srai_cg_cr_rs1_imm_edges_uimm_rs1val_0xffffffff_immval_0x1f, I_srai_cg_cr_rs1_imm_edges_uimm_rs1val_0xffffffff_immval_0x1f_str)
    10c8:	00062203          	lw	x4,0(x12)
    10cc:	01820863          	beq	x4,x24,10dc <I_srai_cg_cr_rs1_imm_edges_uimm_rs1val_0xffffffff_immval_0x1f+0x18>
    10d0:	44d002ef          	jal	x5,1d1c <failedtest_x5_x4>
    10d4:	000010c4          	.word	0x000010c4
    10d8:	00006007          	.word	0x00006007
    10dc:	00460613          	addi	x12,x12,4

# Testcase cr_rs1_imm_edges_uimm (rs1 = 0xfffffffe, imm = 0)
  RVTEST_TESTDATA_LOAD_INT(x26, x29) # load rs1: x29 = 0xfffffffe
    10e0:	000d2e83          	lw	x29,0(x26)
    10e4:	004d0d13          	addi	x26,x26,4

000010e8 <I_srai_cg_cr_rs1_imm_edges_uimm_rs1val_0xfffffffe_immval_0x0>:
I_srai_cg_cr_rs1_imm_edges_uimm_rs1val_0xfffffffe_immval_0x0:
  srai x7, x29, 0 # perform operation
    10e8:	400ed393          	srai	x7,x29,0x0
  # Check if x7 contains the expected result. x12 is the signature ptr, x5 is the link ptr, x4 is a temp reg.
  RVTEST_SIGUPD(x12, x5, x4, x7, I_srai_cg_cr_rs1_imm_edges_uimm_rs1val_0xfffffffe_immval_0x0, I_srai_cg_cr_rs1_imm_edges_uimm_rs1val_0xfffffffe_immval_0x0_str)
    10ec:	00062203          	lw	x4,0(x12)
    10f0:	00720863          	beq	x4,x7,1100 <I_srai_cg_cr_rs1_imm_edges_uimm_rs1val_0xfffffffe_immval_0x0+0x18>
    10f4:	429002ef          	jal	x5,1d1c <failedtest_x5_x4>
    10f8:	000010e8          	.word	0x000010e8
    10fc:	00006062          	.word	0x00006062
    1100:	00460613          	addi	x12,x12,4

# Testcase cr_rs1_imm_edges_uimm (rs1 = 0xfffffffe, imm = 1)
  RVTEST_TESTDATA_LOAD_INT(x26, x11) # load rs1: x11 = 0xfffffffe
    1104:	000d2583          	lw	x11,0(x26)
    1108:	004d0d13          	addi	x26,x26,4

0000110c <I_srai_cg_cr_rs1_imm_edges_uimm_rs1val_0xfffffffe_immval_0x1>:
I_srai_cg_cr_rs1_imm_edges_uimm_rs1val_0xfffffffe_immval_0x1:
  srai x1, x11, 1 # perform operation
    110c:	4015d093          	srai	x1,x11,0x1
  # Check if x1 contains the expected result. x12 is the signature ptr, x5 is the link ptr, x4 is a temp reg.
  RVTEST_SIGUPD(x12, x5, x4, x1, I_srai_cg_cr_rs1_imm_edges_uimm_rs1val_0xfffffffe_immval_0x1, I_srai_cg_cr_rs1_imm_edges_uimm_rs1val_0xfffffffe_immval_0x1_str)
    1110:	00062203          	lw	x4,0(x12)
    1114:	00120863          	beq	x4,x1,1124 <I_srai_cg_cr_rs1_imm_edges_uimm_rs1val_0xfffffffe_immval_0x1+0x18>
    1118:	405002ef          	jal	x5,1d1c <failedtest_x5_x4>
    111c:	0000110c          	.word	0x0000110c
    1120:	000060bc          	.word	0x000060bc
    1124:	00460613          	addi	x12,x12,4

# Testcase cr_rs1_imm_edges_uimm (rs1 = 0xfffffffe, imm = 19)
  RVTEST_TESTDATA_LOAD_INT(x26, x22) # load rs1: x22 = 0xfffffffe
    1128:	000d2b03          	lw	x22,0(x26)
    112c:	004d0d13          	addi	x26,x26,4

00001130 <I_srai_cg_cr_rs1_imm_edges_uimm_rs1val_0xfffffffe_immval_0x13>:
I_srai_cg_cr_rs1_imm_edges_uimm_rs1val_0xfffffffe_immval_0x13:
  srai x13, x22, 19 # perform operation
    1130:	413b5693          	srai	x13,x22,0x13
  # Check if x13 contains the expected result. x12 is the signature ptr, x5 is the link ptr, x4 is a temp reg.
  RVTEST_SIGUPD(x12, x5, x4, x13, I_srai_cg_cr_rs1_imm_edges_uimm_rs1val_0xfffffffe_immval_0x13, I_srai_cg_cr_rs1_imm_edges_uimm_rs1val_0xfffffffe_immval_0x13_str)
    1134:	00062203          	lw	x4,0(x12)
    1138:	00d20863          	beq	x4,x13,1148 <I_srai_cg_cr_rs1_imm_edges_uimm_rs1val_0xfffffffe_immval_0x13+0x18>
    113c:	3e1002ef          	jal	x5,1d1c <failedtest_x5_x4>
    1140:	00001130          	.word	0x00001130
    1144:	00006116          	.word	0x00006116
    1148:	00460613          	addi	x12,x12,4

# Testcase cr_rs1_imm_edges_uimm (rs1 = 0xfffffffe, imm = 30)
  RVTEST_TESTDATA_LOAD_INT(x26, x17) # load rs1: x17 = 0xfffffffe
    114c:	000d2883          	lw	x17,0(x26)
    1150:	004d0d13          	addi	x26,x26,4

00001154 <I_srai_cg_cr_rs1_imm_edges_uimm_rs1val_0xfffffffe_immval_0x1e>:
I_srai_cg_cr_rs1_imm_edges_uimm_rs1val_0xfffffffe_immval_0x1e:
  srai x30, x17, 30 # perform operation
    1154:	41e8df13          	srai	x30,x17,0x1e
  # Check if x30 contains the expected result. x12 is the signature ptr, x5 is the link ptr, x4 is a temp reg.
  RVTEST_SIGUPD(x12, x5, x4, x30, I_srai_cg_cr_rs1_imm_edges_uimm_rs1val_0xfffffffe_immval_0x1e, I_srai_cg_cr_rs1_imm_edges_uimm_rs1val_0xfffffffe_immval_0x1e_str)
    1158:	00062203          	lw	x4,0(x12)
    115c:	01e20863          	beq	x4,x30,116c <I_srai_cg_cr_rs1_imm_edges_uimm_rs1val_0xfffffffe_immval_0x1e+0x18>
    1160:	3bd002ef          	jal	x5,1d1c <failedtest_x5_x4>
    1164:	00001154          	.word	0x00001154
    1168:	00006171          	.word	0x00006171
    116c:	00460613          	addi	x12,x12,4

# Testcase cr_rs1_imm_edges_uimm (rs1 = 0xfffffffe, imm = 31)
  RVTEST_TESTDATA_LOAD_INT(x26, x1) # load rs1: x1 = 0xfffffffe
    1170:	000d2083          	lw	x1,0(x26)
    1174:	004d0d13          	addi	x26,x26,4

00001178 <I_srai_cg_cr_rs1_imm_edges_uimm_rs1val_0xfffffffe_immval_0x1f>:
I_srai_cg_cr_rs1_imm_edges_uimm_rs1val_0xfffffffe_immval_0x1f:
  srai x31, x1, 31 # perform operation
    1178:	41f0df93          	srai	x31,x1,0x1f
  # Check if x31 contains the expected result. x12 is the signature ptr, x5 is the link ptr, x4 is a temp reg.
  RVTEST_SIGUPD(x12, x5, x4, x31, I_srai_cg_cr_rs1_imm_edges_uimm_rs1val_0xfffffffe_immval_0x1f, I_srai_cg_cr_rs1_imm_edges_uimm_rs1val_0xfffffffe_immval_0x1f_str)
    117c:	00062203          	lw	x4,0(x12)
    1180:	01f20863          	beq	x4,x31,1190 <I_srai_cg_cr_rs1_imm_edges_uimm_rs1val_0xfffffffe_immval_0x1f+0x18>
    1184:	399002ef          	jal	x5,1d1c <failedtest_x5_x4>
    1188:	00001178          	.word	0x00001178
    118c:	000061cc          	.word	0x000061cc
    1190:	00460613          	addi	x12,x12,4

# Testcase cr_rs1_imm_edges_uimm (rs1 = 0x5bbc8872, imm = 0)
  RVTEST_TESTDATA_LOAD_INT(x26, x15) # load rs1: x15 = 0x5bbc8872
    1194:	000d2783          	lw	x15,0(x26)
    1198:	004d0d13          	addi	x26,x26,4

0000119c <I_srai_cg_cr_rs1_imm_edges_uimm_rs1val_0x5bbc8872_immval_0x0>:
I_srai_cg_cr_rs1_imm_edges_uimm_rs1val_0x5bbc8872_immval_0x0:
  srai x7, x15, 0 # perform operation
    119c:	4007d393          	srai	x7,x15,0x0
  # Check if x7 contains the expected result. x12 is the signature ptr, x5 is the link ptr, x4 is a temp reg.
  RVTEST_SIGUPD(x12, x5, x4, x7, I_srai_cg_cr_rs1_imm_edges_uimm_rs1val_0x5bbc8872_immval_0x0, I_srai_cg_cr_rs1_imm_edges_uimm_rs1val_0x5bbc8872_immval_0x0_str)
    11a0:	00062203          	lw	x4,0(x12)
    11a4:	00720863          	beq	x4,x7,11b4 <I_srai_cg_cr_rs1_imm_edges_uimm_rs1val_0x5bbc8872_immval_0x0+0x18>
    11a8:	375002ef          	jal	x5,1d1c <failedtest_x5_x4>
    11ac:	0000119c          	.word	0x0000119c
    11b0:	00006227          	.word	0x00006227
    11b4:	00460613          	addi	x12,x12,4

# Testcase cr_rs1_imm_edges_uimm (rs1 = 0x5bbc8872, imm = 1)
  RVTEST_TESTDATA_LOAD_INT(x26, x25) # load rs1: x25 = 0x5bbc8872
    11b8:	000d2c83          	lw	x25,0(x26)
    11bc:	004d0d13          	addi	x26,x26,4

000011c0 <I_srai_cg_cr_rs1_imm_edges_uimm_rs1val_0x5bbc8872_immval_0x1>:
I_srai_cg_cr_rs1_imm_edges_uimm_rs1val_0x5bbc8872_immval_0x1:
  srai x19, x25, 1 # perform operation
    11c0:	401cd993          	srai	x19,x25,0x1
  # Check if x19 contains the expected result. x12 is the signature ptr, x5 is the link ptr, x4 is a temp reg.
  RVTEST_SIGUPD(x12, x5, x4, x19, I_srai_cg_cr_rs1_imm_edges_uimm_rs1val_0x5bbc8872_immval_0x1, I_srai_cg_cr_rs1_imm_edges_uimm_rs1val_0x5bbc8872_immval_0x1_str)
    11c4:	00062203          	lw	x4,0(x12)
    11c8:	01320863          	beq	x4,x19,11d8 <I_srai_cg_cr_rs1_imm_edges_uimm_rs1val_0x5bbc8872_immval_0x1+0x18>
    11cc:	351002ef          	jal	x5,1d1c <failedtest_x5_x4>
    11d0:	000011c0          	.word	0x000011c0
    11d4:	00006281          	.word	0x00006281
    11d8:	00460613          	addi	x12,x12,4

# Testcase cr_rs1_imm_edges_uimm (rs1 = 0x5bbc8872, imm = 19)
  RVTEST_TESTDATA_LOAD_INT(x26, x10) # load rs1: x10 = 0x5bbc8872
    11dc:	000d2503          	lw	x10,0(x26)
    11e0:	004d0d13          	addi	x26,x26,4

000011e4 <I_srai_cg_cr_rs1_imm_edges_uimm_rs1val_0x5bbc8872_immval_0x13>:
I_srai_cg_cr_rs1_imm_edges_uimm_rs1val_0x5bbc8872_immval_0x13:
  srai x22, x10, 19 # perform operation
    11e4:	41355b13          	srai	x22,x10,0x13
  # Check if x22 contains the expected result. x12 is the signature ptr, x5 is the link ptr, x4 is a temp reg.
  RVTEST_SIGUPD(x12, x5, x4, x22, I_srai_cg_cr_rs1_imm_edges_uimm_rs1val_0x5bbc8872_immval_0x13, I_srai_cg_cr_rs1_imm_edges_uimm_rs1val_0x5bbc8872_immval_0x13_str)
    11e8:	00062203          	lw	x4,0(x12)
    11ec:	01620863          	beq	x4,x22,11fc <I_srai_cg_cr_rs1_imm_edges_uimm_rs1val_0x5bbc8872_immval_0x13+0x18>
    11f0:	32d002ef          	jal	x5,1d1c <failedtest_x5_x4>
    11f4:	000011e4          	.word	0x000011e4
    11f8:	000062db          	.word	0x000062db
    11fc:	00460613          	addi	x12,x12,4

# Testcase cr_rs1_imm_edges_uimm (rs1 = 0x5bbc8872, imm = 30)
  RVTEST_TESTDATA_LOAD_INT(x26, x9) # load rs1: x9 = 0x5bbc8872
    1200:	000d2483          	lw	x9,0(x26)
    1204:	004d0d13          	addi	x26,x26,4

00001208 <I_srai_cg_cr_rs1_imm_edges_uimm_rs1val_0x5bbc8872_immval_0x1e>:
I_srai_cg_cr_rs1_imm_edges_uimm_rs1val_0x5bbc8872_immval_0x1e:
  srai x3, x9, 30 # perform operation
    1208:	41e4d193          	srai	x3,x9,0x1e
  # Check if x3 contains the expected result. x12 is the signature ptr, x5 is the link ptr, x4 is a temp reg.
  RVTEST_SIGUPD(x12, x5, x4, x3, I_srai_cg_cr_rs1_imm_edges_uimm_rs1val_0x5bbc8872_immval_0x1e, I_srai_cg_cr_rs1_imm_edges_uimm_rs1val_0x5bbc8872_immval_0x1e_str)
    120c:	00062203          	lw	x4,0(x12)
    1210:	00320863          	beq	x4,x3,1220 <I_srai_cg_cr_rs1_imm_edges_uimm_rs1val_0x5bbc8872_immval_0x1e+0x18>
    1214:	309002ef          	jal	x5,1d1c <failedtest_x5_x4>
    1218:	00001208          	.word	0x00001208
    121c:	00006336          	.word	0x00006336
    1220:	00460613          	addi	x12,x12,4

# Testcase cr_rs1_imm_edges_uimm (rs1 = 0x5bbc8872, imm = 31)
  RVTEST_TESTDATA_LOAD_INT(x26, x28) # load rs1: x28 = 0x5bbc8872
    1224:	000d2e03          	lw	x28,0(x26)
    1228:	004d0d13          	addi	x26,x26,4

0000122c <I_srai_cg_cr_rs1_imm_edges_uimm_rs1val_0x5bbc8872_immval_0x1f>:
I_srai_cg_cr_rs1_imm_edges_uimm_rs1val_0x5bbc8872_immval_0x1f:
  srai x22, x28, 31 # perform operation
    122c:	41fe5b13          	srai	x22,x28,0x1f
  # Check if x22 contains the expected result. x12 is the signature ptr, x5 is the link ptr, x4 is a temp reg.
  RVTEST_SIGUPD(x12, x5, x4, x22, I_srai_cg_cr_rs1_imm_edges_uimm_rs1val_0x5bbc8872_immval_0x1f, I_srai_cg_cr_rs1_imm_edges_uimm_rs1val_0x5bbc8872_immval_0x1f_str)
    1230:	00062203          	lw	x4,0(x12)
    1234:	01620863          	beq	x4,x22,1244 <I_srai_cg_cr_rs1_imm_edges_uimm_rs1val_0x5bbc8872_immval_0x1f+0x18>
    1238:	2e5002ef          	jal	x5,1d1c <failedtest_x5_x4>
    123c:	0000122c          	.word	0x0000122c
    1240:	00006391          	.word	0x00006391
    1244:	00460613          	addi	x12,x12,4

# Testcase cr_rs1_imm_edges_uimm (rs1 = 0xaaaaaaaa, imm = 0)
  RVTEST_TESTDATA_LOAD_INT(x26, x19) # load rs1: x19 = 0xaaaaaaaa
    1248:	000d2983          	lw	x19,0(x26)
    124c:	004d0d13          	addi	x26,x26,4

00001250 <I_srai_cg_cr_rs1_imm_edges_uimm_rs1val_0xaaaaaaaa_immval_0x0>:
I_srai_cg_cr_rs1_imm_edges_uimm_rs1val_0xaaaaaaaa_immval_0x0:
  srai x20, x19, 0 # perform operation
    1250:	4009da13          	srai	x20,x19,0x0
  # Check if x20 contains the expected result. x12 is the signature ptr, x5 is the link ptr, x4 is a temp reg.
  RVTEST_SIGUPD(x12, x5, x4, x20, I_srai_cg_cr_rs1_imm_edges_uimm_rs1val_0xaaaaaaaa_immval_0x0, I_srai_cg_cr_rs1_imm_edges_uimm_rs1val_0xaaaaaaaa_immval_0x0_str)
    1254:	00062203          	lw	x4,0(x12)
    1258:	01420863          	beq	x4,x20,1268 <I_srai_cg_cr_rs1_imm_edges_uimm_rs1val_0xaaaaaaaa_immval_0x0+0x18>
    125c:	2c1002ef          	jal	x5,1d1c <failedtest_x5_x4>
    1260:	00001250          	.word	0x00001250
    1264:	000063ec          	.word	0x000063ec
    1268:	00460613          	addi	x12,x12,4

# Testcase cr_rs1_imm_edges_uimm (rs1 = 0xaaaaaaaa, imm = 1)
  RVTEST_TESTDATA_LOAD_INT(x26, x2) # load rs1: x2 = 0xaaaaaaaa
    126c:	000d2103          	lw	x2,0(x26)
    1270:	004d0d13          	addi	x26,x26,4

00001274 <I_srai_cg_cr_rs1_imm_edges_uimm_rs1val_0xaaaaaaaa_immval_0x1>:
I_srai_cg_cr_rs1_imm_edges_uimm_rs1val_0xaaaaaaaa_immval_0x1:
  srai x24, x2, 1 # perform operation
    1274:	40115c13          	srai	x24,x2,0x1
  # Check if x24 contains the expected result. x12 is the signature ptr, x5 is the link ptr, x4 is a temp reg.
  RVTEST_SIGUPD(x12, x5, x4, x24, I_srai_cg_cr_rs1_imm_edges_uimm_rs1val_0xaaaaaaaa_immval_0x1, I_srai_cg_cr_rs1_imm_edges_uimm_rs1val_0xaaaaaaaa_immval_0x1_str)
    1278:	00062203          	lw	x4,0(x12)
    127c:	01820863          	beq	x4,x24,128c <I_srai_cg_cr_rs1_imm_edges_uimm_rs1val_0xaaaaaaaa_immval_0x1+0x18>
    1280:	29d002ef          	jal	x5,1d1c <failedtest_x5_x4>
    1284:	00001274          	.word	0x00001274
    1288:	00006446          	.word	0x00006446
    128c:	00460613          	addi	x12,x12,4

# Testcase cr_rs1_imm_edges_uimm (rs1 = 0xaaaaaaaa, imm = 19)
  RVTEST_TESTDATA_LOAD_INT(x26, x19) # load rs1: x19 = 0xaaaaaaaa
    1290:	000d2983          	lw	x19,0(x26)
    1294:	004d0d13          	addi	x26,x26,4

00001298 <I_srai_cg_cr_rs1_imm_edges_uimm_rs1val_0xaaaaaaaa_immval_0x13>:
I_srai_cg_cr_rs1_imm_edges_uimm_rs1val_0xaaaaaaaa_immval_0x13:
  srai x1, x19, 19 # perform operation
    1298:	4139d093          	srai	x1,x19,0x13
  # Check if x1 contains the expected result. x12 is the signature ptr, x5 is the link ptr, x4 is a temp reg.
  RVTEST_SIGUPD(x12, x5, x4, x1, I_srai_cg_cr_rs1_imm_edges_uimm_rs1val_0xaaaaaaaa_immval_0x13, I_srai_cg_cr_rs1_imm_edges_uimm_rs1val_0xaaaaaaaa_immval_0x13_str)
    129c:	00062203          	lw	x4,0(x12)
    12a0:	00120863          	beq	x4,x1,12b0 <I_srai_cg_cr_rs1_imm_edges_uimm_rs1val_0xaaaaaaaa_immval_0x13+0x18>
    12a4:	279002ef          	jal	x5,1d1c <failedtest_x5_x4>
    12a8:	00001298          	.word	0x00001298
    12ac:	000064a0          	.word	0x000064a0
    12b0:	00460613          	addi	x12,x12,4

# Testcase cr_rs1_imm_edges_uimm (rs1 = 0xaaaaaaaa, imm = 30)
  RVTEST_TESTDATA_LOAD_INT(x26, x16) # load rs1: x16 = 0xaaaaaaaa
    12b4:	000d2803          	lw	x16,0(x26)
    12b8:	004d0d13          	addi	x26,x26,4

000012bc <I_srai_cg_cr_rs1_imm_edges_uimm_rs1val_0xaaaaaaaa_immval_0x1e>:
I_srai_cg_cr_rs1_imm_edges_uimm_rs1val_0xaaaaaaaa_immval_0x1e:
  srai x31, x16, 30 # perform operation
    12bc:	41e85f93          	srai	x31,x16,0x1e
  # Check if x31 contains the expected result. x12 is the signature ptr, x5 is the link ptr, x4 is a temp reg.
  RVTEST_SIGUPD(x12, x5, x4, x31, I_srai_cg_cr_rs1_imm_edges_uimm_rs1val_0xaaaaaaaa_immval_0x1e, I_srai_cg_cr_rs1_imm_edges_uimm_rs1val_0xaaaaaaaa_immval_0x1e_str)
    12c0:	00062203          	lw	x4,0(x12)
    12c4:	01f20863          	beq	x4,x31,12d4 <I_srai_cg_cr_rs1_imm_edges_uimm_rs1val_0xaaaaaaaa_immval_0x1e+0x18>
    12c8:	255002ef          	jal	x5,1d1c <failedtest_x5_x4>
    12cc:	000012bc          	.word	0x000012bc
    12d0:	000064fb          	.word	0x000064fb
    12d4:	00460613          	addi	x12,x12,4

# Testcase cr_rs1_imm_edges_uimm (rs1 = 0xaaaaaaaa, imm = 31)
  RVTEST_TESTDATA_LOAD_INT(x26, x30) # load rs1: x30 = 0xaaaaaaaa
    12d8:	000d2f03          	lw	x30,0(x26)
    12dc:	004d0d13          	addi	x26,x26,4

000012e0 <I_srai_cg_cr_rs1_imm_edges_uimm_rs1val_0xaaaaaaaa_immval_0x1f>:
I_srai_cg_cr_rs1_imm_edges_uimm_rs1val_0xaaaaaaaa_immval_0x1f:
  srai x9, x30, 31 # perform operation
    12e0:	41ff5493          	srai	x9,x30,0x1f
  # Check if x9 contains the expected result. x12 is the signature ptr, x5 is the link ptr, x4 is a temp reg.
  RVTEST_SIGUPD(x12, x5, x4, x9, I_srai_cg_cr_rs1_imm_edges_uimm_rs1val_0xaaaaaaaa_immval_0x1f, I_srai_cg_cr_rs1_imm_edges_uimm_rs1val_0xaaaaaaaa_immval_0x1f_str)
    12e4:	00062203          	lw	x4,0(x12)
    12e8:	00920863          	beq	x4,x9,12f8 <I_srai_cg_cr_rs1_imm_edges_uimm_rs1val_0xaaaaaaaa_immval_0x1f+0x18>
    12ec:	231002ef          	jal	x5,1d1c <failedtest_x5_x4>
    12f0:	000012e0          	.word	0x000012e0
    12f4:	00006556          	.word	0x00006556
    12f8:	00460613          	addi	x12,x12,4

# Testcase cr_rs1_imm_edges_uimm (rs1 = 0x55555555, imm = 0)
  RVTEST_TESTDATA_LOAD_INT(x26, x29) # load rs1: x29 = 0x55555555
    12fc:	000d2e83          	lw	x29,0(x26)
    1300:	004d0d13          	addi	x26,x26,4

00001304 <I_srai_cg_cr_rs1_imm_edges_uimm_rs1val_0x55555555_immval_0x0>:
I_srai_cg_cr_rs1_imm_edges_uimm_rs1val_0x55555555_immval_0x0:
  srai x14, x29, 0 # perform operation
    1304:	400ed713          	srai	x14,x29,0x0
  # Check if x14 contains the expected result. x12 is the signature ptr, x5 is the link ptr, x4 is a temp reg.
  RVTEST_SIGUPD(x12, x5, x4, x14, I_srai_cg_cr_rs1_imm_edges_uimm_rs1val_0x55555555_immval_0x0, I_srai_cg_cr_rs1_imm_edges_uimm_rs1val_0x55555555_immval_0x0_str)
    1308:	00062203          	lw	x4,0(x12)
    130c:	00e20863          	beq	x4,x14,131c <I_srai_cg_cr_rs1_imm_edges_uimm_rs1val_0x55555555_immval_0x0+0x18>
    1310:	20d002ef          	jal	x5,1d1c <failedtest_x5_x4>
    1314:	00001304          	.word	0x00001304
    1318:	000065b1          	.word	0x000065b1
    131c:	00460613          	addi	x12,x12,4

# Testcase cr_rs1_imm_edges_uimm (rs1 = 0x55555555, imm = 1)
  RVTEST_TESTDATA_LOAD_INT(x26, x8) # load rs1: x8 = 0x55555555
    1320:	000d2403          	lw	x8,0(x26)
    1324:	004d0d13          	addi	x26,x26,4

00001328 <I_srai_cg_cr_rs1_imm_edges_uimm_rs1val_0x55555555_immval_0x1>:
I_srai_cg_cr_rs1_imm_edges_uimm_rs1val_0x55555555_immval_0x1:
  srai x21, x8, 1 # perform operation
    1328:	40145a93          	srai	x21,x8,0x1
  # Check if x21 contains the expected result. x12 is the signature ptr, x5 is the link ptr, x4 is a temp reg.
  RVTEST_SIGUPD(x12, x5, x4, x21, I_srai_cg_cr_rs1_imm_edges_uimm_rs1val_0x55555555_immval_0x1, I_srai_cg_cr_rs1_imm_edges_uimm_rs1val_0x55555555_immval_0x1_str)
    132c:	00062203          	lw	x4,0(x12)
    1330:	01520863          	beq	x4,x21,1340 <I_srai_cg_cr_rs1_imm_edges_uimm_rs1val_0x55555555_immval_0x1+0x18>
    1334:	1e9002ef          	jal	x5,1d1c <failedtest_x5_x4>
    1338:	00001328          	.word	0x00001328
    133c:	0000660b          	.word	0x0000660b
    1340:	00460613          	addi	x12,x12,4

# Testcase cr_rs1_imm_edges_uimm (rs1 = 0x55555555, imm = 19)
  RVTEST_TESTDATA_LOAD_INT(x26, x8) # load rs1: x8 = 0x55555555
    1344:	000d2403          	lw	x8,0(x26)
    1348:	004d0d13          	addi	x26,x26,4

0000134c <I_srai_cg_cr_rs1_imm_edges_uimm_rs1val_0x55555555_immval_0x13>:
I_srai_cg_cr_rs1_imm_edges_uimm_rs1val_0x55555555_immval_0x13:
  srai x28, x8, 19 # perform operation
    134c:	41345e13          	srai	x28,x8,0x13
  # Check if x28 contains the expected result. x12 is the signature ptr, x5 is the link ptr, x4 is a temp reg.
  RVTEST_SIGUPD(x12, x5, x4, x28, I_srai_cg_cr_rs1_imm_edges_uimm_rs1val_0x55555555_immval_0x13, I_srai_cg_cr_rs1_imm_edges_uimm_rs1val_0x55555555_immval_0x13_str)
    1350:	00062203          	lw	x4,0(x12)
    1354:	01c20863          	beq	x4,x28,1364 <I_srai_cg_cr_rs1_imm_edges_uimm_rs1val_0x55555555_immval_0x13+0x18>
    1358:	1c5002ef          	jal	x5,1d1c <failedtest_x5_x4>
    135c:	0000134c          	.word	0x0000134c
    1360:	00006665          	.word	0x00006665
    1364:	00460613          	addi	x12,x12,4

# Testcase cr_rs1_imm_edges_uimm (rs1 = 0x55555555, imm = 30)
  RVTEST_TESTDATA_LOAD_INT(x26, x29) # load rs1: x29 = 0x55555555
    1368:	000d2e83          	lw	x29,0(x26)
    136c:	004d0d13          	addi	x26,x26,4

00001370 <I_srai_cg_cr_rs1_imm_edges_uimm_rs1val_0x55555555_immval_0x1e>:
I_srai_cg_cr_rs1_imm_edges_uimm_rs1val_0x55555555_immval_0x1e:
  srai x23, x29, 30 # perform operation
    1370:	41eedb93          	srai	x23,x29,0x1e
  # Check if x23 contains the expected result. x12 is the signature ptr, x5 is the link ptr, x4 is a temp reg.
  RVTEST_SIGUPD(x12, x5, x4, x23, I_srai_cg_cr_rs1_imm_edges_uimm_rs1val_0x55555555_immval_0x1e, I_srai_cg_cr_rs1_imm_edges_uimm_rs1val_0x55555555_immval_0x1e_str)
    1374:	00062203          	lw	x4,0(x12)
    1378:	01720863          	beq	x4,x23,1388 <I_srai_cg_cr_rs1_imm_edges_uimm_rs1val_0x55555555_immval_0x1e+0x18>
    137c:	1a1002ef          	jal	x5,1d1c <failedtest_x5_x4>
    1380:	00001370          	.word	0x00001370
    1384:	000066c0          	.word	0x000066c0
    1388:	00460613          	addi	x12,x12,4

# Testcase cr_rs1_imm_edges_uimm (rs1 = 0x55555555, imm = 31)
  RVTEST_TESTDATA_LOAD_INT(x26, x17) # load rs1: x17 = 0x55555555
    138c:	000d2883          	lw	x17,0(x26)
    1390:	004d0d13          	addi	x26,x26,4

00001394 <I_srai_cg_cr_rs1_imm_edges_uimm_rs1val_0x55555555_immval_0x1f>:
I_srai_cg_cr_rs1_imm_edges_uimm_rs1val_0x55555555_immval_0x1f:
  srai x24, x17, 31 # perform operation
    1394:	41f8dc13          	srai	x24,x17,0x1f
  # Check if x24 contains the expected result. x12 is the signature ptr, x5 is the link ptr, x4 is a temp reg.
  RVTEST_SIGUPD(x12, x5, x4, x24, I_srai_cg_cr_rs1_imm_edges_uimm_rs1val_0x55555555_immval_0x1f, I_srai_cg_cr_rs1_imm_edges_uimm_rs1val_0x55555555_immval_0x1f_str)
    1398:	00062203          	lw	x4,0(x12)
    139c:	01820863          	beq	x4,x24,13ac <I_srai_cg_cr_rs1_imm_edges_uimm_rs1val_0x55555555_immval_0x1f+0x18>
    13a0:	17d002ef          	jal	x5,1d1c <failedtest_x5_x4>
    13a4:	00001394          	.word	0x00001394
    13a8:	0000671b          	.word	0x0000671b
    13ac:	00460613          	addi	x12,x12,4
/////////////////////////////////
// cmp_rd_rs1
/////////////////////////////////

# Testcase cmp_rd_rs1 (Test rd = rs1 = x0)
  RVTEST_TESTDATA_LOAD_INT(x26, x0) # load rs1: x0 = 0x6d464dc4
    13b0:	000d2003          	lw	x0,0(x26)
    13b4:	004d0d13          	addi	x26,x26,4

000013b8 <I_srai_cg_cmp_rd_rs1_b0>:
I_srai_cg_cmp_rd_rs1_b0:
  srai x0, x0, 30 # perform operation
    13b8:	41e05013          	srai	x0,x0,0x1e
  # Check if x0 contains the expected result. x12 is the signature ptr, x5 is the link ptr, x4 is a temp reg.
  RVTEST_SIGUPD(x12, x5, x4, x0, I_srai_cg_cmp_rd_rs1_b0, I_srai_cg_cmp_rd_rs1_b0_str)
    13bc:	00062203          	lw	x4,0(x12)
    13c0:	00020863          	beq	x4,x0,13d0 <I_srai_cg_cmp_rd_rs1_b0+0x18>
    13c4:	159002ef          	jal	x5,1d1c <failedtest_x5_x4>
    13c8:	000013b8          	.word	0x000013b8
    13cc:	00006776          	.word	0x00006776
    13d0:	00460613          	addi	x12,x12,4

# Testcase cmp_rd_rs1 (Test rd = rs1 = x1)
  RVTEST_TESTDATA_LOAD_INT(x26, x1) # load rs1: x1 = 0xef79f008
    13d4:	000d2083          	lw	x1,0(x26)
    13d8:	004d0d13          	addi	x26,x26,4

000013dc <I_srai_cg_cmp_rd_rs1_b1>:
I_srai_cg_cmp_rd_rs1_b1:
  srai x1, x1, 18 # perform operation
    13dc:	4120d093          	srai	x1,x1,0x12
  # Check if x1 contains the expected result. x12 is the signature ptr, x5 is the link ptr, x4 is a temp reg.
  RVTEST_SIGUPD(x12, x5, x4, x1, I_srai_cg_cmp_rd_rs1_b1, I_srai_cg_cmp_rd_rs1_b1_str)
    13e0:	00062203          	lw	x4,0(x12)
    13e4:	00120863          	beq	x4,x1,13f4 <I_srai_cg_cmp_rd_rs1_b1+0x18>
    13e8:	135002ef          	jal	x5,1d1c <failedtest_x5_x4>
    13ec:	000013dc          	.word	0x000013dc
    13f0:	000067aa          	.word	0x000067aa
    13f4:	00460613          	addi	x12,x12,4

# Testcase cmp_rd_rs1 (Test rd = rs1 = x2)
  RVTEST_TESTDATA_LOAD_INT(x26, x2) # load rs1: x2 = 0xfda2603d
    13f8:	000d2103          	lw	x2,0(x26)
    13fc:	004d0d13          	addi	x26,x26,4

00001400 <I_srai_cg_cmp_rd_rs1_b2>:
I_srai_cg_cmp_rd_rs1_b2:
  srai x2, x2, 12 # perform operation
    1400:	40c15113          	srai	x2,x2,0xc
  # Check if x2 contains the expected result. x12 is the signature ptr, x5 is the link ptr, x4 is a temp reg.
  RVTEST_SIGUPD(x12, x5, x4, x2, I_srai_cg_cmp_rd_rs1_b2, I_srai_cg_cmp_rd_rs1_b2_str)
    1404:	00062203          	lw	x4,0(x12)
    1408:	00220863          	beq	x4,x2,1418 <I_srai_cg_cmp_rd_rs1_b2+0x18>
    140c:	111002ef          	jal	x5,1d1c <failedtest_x5_x4>
    1410:	00001400          	.word	0x00001400
    1414:	000067de          	.word	0x000067de
    1418:	00460613          	addi	x12,x12,4

# Testcase cmp_rd_rs1 (Test rd = rs1 = x3)
  RVTEST_TESTDATA_LOAD_INT(x26, x3) # load rs1: x3 = 0x1bcc9ef9
    141c:	000d2183          	lw	x3,0(x26)
    1420:	004d0d13          	addi	x26,x26,4

00001424 <I_srai_cg_cmp_rd_rs1_b3>:
I_srai_cg_cmp_rd_rs1_b3:
  srai x3, x3, 15 # perform operation
    1424:	40f1d193          	srai	x3,x3,0xf
  # Check if x3 contains the expected result. x12 is the signature ptr, x5 is the link ptr, x4 is a temp reg.
  RVTEST_SIGUPD(x12, x5, x4, x3, I_srai_cg_cmp_rd_rs1_b3, I_srai_cg_cmp_rd_rs1_b3_str)
    1428:	00062203          	lw	x4,0(x12)
    142c:	00320863          	beq	x4,x3,143c <I_srai_cg_cmp_rd_rs1_b3+0x18>
    1430:	0ed002ef          	jal	x5,1d1c <failedtest_x5_x4>
    1434:	00001424          	.word	0x00001424
    1438:	00006812          	.word	0x00006812
    143c:	00460613          	addi	x12,x12,4

  mv x7, x4 # switch temp register to avoid conflict with test
    1440:	00020393          	addi	x7,x4,0 # 0 <rvtest_entry_point>
  mv x8, x5 # switch link pointer register to avoid conflict with test
    1444:	00028413          	addi	x8,x5,0
# Testcase cmp_rd_rs1 (Test rd = rs1 = x4)
  RVTEST_TESTDATA_LOAD_INT(x26, x4) # load rs1: x4 = 0x614d6908
    1448:	000d2203          	lw	x4,0(x26)
    144c:	004d0d13          	addi	x26,x26,4

00001450 <I_srai_cg_cmp_rd_rs1_b4>:
I_srai_cg_cmp_rd_rs1_b4:
  srai x4, x4, 16 # perform operation
    1450:	41025213          	srai	x4,x4,0x10
  # Check if x4 contains the expected result. x12 is the signature ptr, x8 is the link ptr, x7 is a temp reg.
  RVTEST_SIGUPD(x12, x8, x7, x4, I_srai_cg_cmp_rd_rs1_b4, I_srai_cg_cmp_rd_rs1_b4_str)
    1454:	00062383          	lw	x7,0(x12)
    1458:	00438863          	beq	x7,x4,1468 <I_srai_cg_cmp_rd_rs1_b4+0x18>
    145c:	0d90046f          	jal	x8,1d34 <failedtest_x8_x7>
    1460:	00001450          	.word	0x00001450
    1464:	00006846          	.word	0x00006846
    1468:	00460613          	addi	x12,x12,4

# Testcase cmp_rd_rs1 (Test rd = rs1 = x5)
  RVTEST_TESTDATA_LOAD_INT(x26, x5) # load rs1: x5 = 0x73a3dfd1
    146c:	000d2283          	lw	x5,0(x26)
    1470:	004d0d13          	addi	x26,x26,4

00001474 <I_srai_cg_cmp_rd_rs1_b5>:
I_srai_cg_cmp_rd_rs1_b5:
  srai x5, x5, 2 # perform operation
    1474:	4022d293          	srai	x5,x5,0x2
  # Check if x5 contains the expected result. x12 is the signature ptr, x8 is the link ptr, x7 is a temp reg.
  RVTEST_SIGUPD(x12, x8, x7, x5, I_srai_cg_cmp_rd_rs1_b5, I_srai_cg_cmp_rd_rs1_b5_str)
    1478:	00062383          	lw	x7,0(x12)
    147c:	00538863          	beq	x7,x5,148c <I_srai_cg_cmp_rd_rs1_b5+0x18>
    1480:	0b50046f          	jal	x8,1d34 <failedtest_x8_x7>
    1484:	00001474          	.word	0x00001474
    1488:	0000687a          	.word	0x0000687a
    148c:	00460613          	addi	x12,x12,4

# Testcase cmp_rd_rs1 (Test rd = rs1 = x6)
  RVTEST_TESTDATA_LOAD_INT(x26, x6) # load rs1: x6 = 0x9742d9c0
    1490:	000d2303          	lw	x6,0(x26)
    1494:	004d0d13          	addi	x26,x26,4

00001498 <I_srai_cg_cmp_rd_rs1_b6>:
I_srai_cg_cmp_rd_rs1_b6:
  srai x6, x6, 14 # perform operation
    1498:	40e35313          	srai	x6,x6,0xe
  # Check if x6 contains the expected result. x12 is the signature ptr, x8 is the link ptr, x7 is a temp reg.
  RVTEST_SIGUPD(x12, x8, x7, x6, I_srai_cg_cmp_rd_rs1_b6, I_srai_cg_cmp_rd_rs1_b6_str)
    149c:	00062383          	lw	x7,0(x12)
    14a0:	00638863          	beq	x7,x6,14b0 <I_srai_cg_cmp_rd_rs1_b6+0x18>
    14a4:	0910046f          	jal	x8,1d34 <failedtest_x8_x7>
    14a8:	00001498          	.word	0x00001498
    14ac:	000068ae          	.word	0x000068ae
    14b0:	00460613          	addi	x12,x12,4

  mv x13, x7 # switch temp register to avoid conflict with test
    14b4:	00038693          	addi	x13,x7,0
  mv x14, x8 # switch link pointer register to avoid conflict with test
    14b8:	00040713          	addi	x14,x8,0
# Testcase cmp_rd_rs1 (Test rd = rs1 = x7)
  RVTEST_TESTDATA_LOAD_INT(x26, x7) # load rs1: x7 = 0xef18e119
    14bc:	000d2383          	lw	x7,0(x26)
    14c0:	004d0d13          	addi	x26,x26,4

000014c4 <I_srai_cg_cmp_rd_rs1_b7>:
I_srai_cg_cmp_rd_rs1_b7:
  srai x7, x7, 6 # perform operation
    14c4:	4063d393          	srai	x7,x7,0x6
  # Check if x7 contains the expected result. x12 is the signature ptr, x14 is the link ptr, x13 is a temp reg.
  RVTEST_SIGUPD(x12, x14, x13, x7, I_srai_cg_cmp_rd_rs1_b7, I_srai_cg_cmp_rd_rs1_b7_str)
    14c8:	00062683          	lw	x13,0(x12)
    14cc:	00768863          	beq	x13,x7,14dc <I_srai_cg_cmp_rd_rs1_b7+0x18>
    14d0:	08d0076f          	jal	x14,1d5c <failedtest_x14_x13>
    14d4:	000014c4          	.word	0x000014c4
    14d8:	000068e2          	.word	0x000068e2
    14dc:	00460613          	addi	x12,x12,4

# Testcase cmp_rd_rs1 (Test rd = rs1 = x8)
  RVTEST_TESTDATA_LOAD_INT(x26, x8) # load rs1: x8 = 0x07c5a9b5
    14e0:	000d2403          	lw	x8,0(x26)
    14e4:	004d0d13          	addi	x26,x26,4

000014e8 <I_srai_cg_cmp_rd_rs1_b8>:
I_srai_cg_cmp_rd_rs1_b8:
  srai x8, x8, 12 # perform operation
    14e8:	40c45413          	srai	x8,x8,0xc
  # Check if x8 contains the expected result. x12 is the signature ptr, x14 is the link ptr, x13 is a temp reg.
  RVTEST_SIGUPD(x12, x14, x13, x8, I_srai_cg_cmp_rd_rs1_b8, I_srai_cg_cmp_rd_rs1_b8_str)
    14ec:	00062683          	lw	x13,0(x12)
    14f0:	00868863          	beq	x13,x8,1500 <I_srai_cg_cmp_rd_rs1_b8+0x18>
    14f4:	0690076f          	jal	x14,1d5c <failedtest_x14_x13>
    14f8:	000014e8          	.word	0x000014e8
    14fc:	00006916          	.word	0x00006916
    1500:	00460613          	addi	x12,x12,4

# Testcase cmp_rd_rs1 (Test rd = rs1 = x9)
  RVTEST_TESTDATA_LOAD_INT(x26, x9) # load rs1: x9 = 0x3c428ad9
    1504:	000d2483          	lw	x9,0(x26)
    1508:	004d0d13          	addi	x26,x26,4

0000150c <I_srai_cg_cmp_rd_rs1_b9>:
I_srai_cg_cmp_rd_rs1_b9:
  srai x9, x9, 3 # perform operation
    150c:	4034d493          	srai	x9,x9,0x3
  # Check if x9 contains the expected result. x12 is the signature ptr, x14 is the link ptr, x13 is a temp reg.
  RVTEST_SIGUPD(x12, x14, x13, x9, I_srai_cg_cmp_rd_rs1_b9, I_srai_cg_cmp_rd_rs1_b9_str)
    1510:	00062683          	lw	x13,0(x12)
    1514:	00968863          	beq	x13,x9,1524 <I_srai_cg_cmp_rd_rs1_b9+0x18>
    1518:	0450076f          	jal	x14,1d5c <failedtest_x14_x13>
    151c:	0000150c          	.word	0x0000150c
    1520:	0000694a          	.word	0x0000694a
    1524:	00460613          	addi	x12,x12,4

# Testcase cmp_rd_rs1 (Test rd = rs1 = x10)
  RVTEST_TESTDATA_LOAD_INT(x26, x10) # load rs1: x10 = 0xc8d48290
    1528:	000d2503          	lw	x10,0(x26)
    152c:	004d0d13          	addi	x26,x26,4

00001530 <I_srai_cg_cmp_rd_rs1_b10>:
I_srai_cg_cmp_rd_rs1_b10:
  srai x10, x10, 2 # perform operation
    1530:	40255513          	srai	x10,x10,0x2
  # Check if x10 contains the expected result. x12 is the signature ptr, x14 is the link ptr, x13 is a temp reg.
  RVTEST_SIGUPD(x12, x14, x13, x10, I_srai_cg_cmp_rd_rs1_b10, I_srai_cg_cmp_rd_rs1_b10_str)
    1534:	00062683          	lw	x13,0(x12)
    1538:	00a68863          	beq	x13,x10,1548 <I_srai_cg_cmp_rd_rs1_b10+0x18>
    153c:	0210076f          	jal	x14,1d5c <failedtest_x14_x13>
    1540:	00001530          	.word	0x00001530
    1544:	0000697e          	.word	0x0000697e
    1548:	00460613          	addi	x12,x12,4

# Testcase cmp_rd_rs1 (Test rd = rs1 = x11)
  RVTEST_TESTDATA_LOAD_INT(x26, x11) # load rs1: x11 = 0xd9b4ead2
    154c:	000d2583          	lw	x11,0(x26)
    1550:	004d0d13          	addi	x26,x26,4

00001554 <I_srai_cg_cmp_rd_rs1_b11>:
I_srai_cg_cmp_rd_rs1_b11:
  srai x11, x11, 12 # perform operation
    1554:	40c5d593          	srai	x11,x11,0xc
  # Check if x11 contains the expected result. x12 is the signature ptr, x14 is the link ptr, x13 is a temp reg.
  RVTEST_SIGUPD(x12, x14, x13, x11, I_srai_cg_cmp_rd_rs1_b11, I_srai_cg_cmp_rd_rs1_b11_str)
    1558:	00062683          	lw	x13,0(x12)
    155c:	00b68863          	beq	x13,x11,156c <I_srai_cg_cmp_rd_rs1_b11+0x18>
    1560:	7fc0076f          	jal	x14,1d5c <failedtest_x14_x13>
    1564:	00001554          	.word	0x00001554
    1568:	000069b3          	.word	0x000069b3
    156c:	00460613          	addi	x12,x12,4

  mv x10, x12 # switch signature pointer register to avoid conflict with test
    1570:	00060513          	addi	x10,x12,0
# Testcase cmp_rd_rs1 (Test rd = rs1 = x12)
  RVTEST_TESTDATA_LOAD_INT(x26, x12) # load rs1: x12 = 0xa05de3b6
    1574:	000d2603          	lw	x12,0(x26)
    1578:	004d0d13          	addi	x26,x26,4

0000157c <I_srai_cg_cmp_rd_rs1_b12>:
I_srai_cg_cmp_rd_rs1_b12:
  srai x12, x12, 0 # perform operation
    157c:	40065613          	srai	x12,x12,0x0
  # Check if x12 contains the expected result. x10 is the signature ptr, x14 is the link ptr, x13 is a temp reg.
  RVTEST_SIGUPD(x10, x14, x13, x12, I_srai_cg_cmp_rd_rs1_b12, I_srai_cg_cmp_rd_rs1_b12_str)
    1580:	00052683          	lw	x13,0(x10)
    1584:	00c68863          	beq	x13,x12,1594 <I_srai_cg_cmp_rd_rs1_b12+0x18>
    1588:	7d40076f          	jal	x14,1d5c <failedtest_x14_x13>
    158c:	0000157c          	.word	0x0000157c
    1590:	000069e8          	.word	0x000069e8
    1594:	00450513          	addi	x10,x10,4

  mv x7, x13 # switch temp register to avoid conflict with test
    1598:	00068393          	addi	x7,x13,0
  mv x8, x14 # switch link pointer register to avoid conflict with test
    159c:	00070413          	addi	x8,x14,0
# Testcase cmp_rd_rs1 (Test rd = rs1 = x13)
  RVTEST_TESTDATA_LOAD_INT(x26, x13) # load rs1: x13 = 0xe64b0938
    15a0:	000d2683          	lw	x13,0(x26)
    15a4:	004d0d13          	addi	x26,x26,4

000015a8 <I_srai_cg_cmp_rd_rs1_b13>:
I_srai_cg_cmp_rd_rs1_b13:
  srai x13, x13, 2 # perform operation
    15a8:	4026d693          	srai	x13,x13,0x2
  # Check if x13 contains the expected result. x10 is the signature ptr, x8 is the link ptr, x7 is a temp reg.
  RVTEST_SIGUPD(x10, x8, x7, x13, I_srai_cg_cmp_rd_rs1_b13, I_srai_cg_cmp_rd_rs1_b13_str)
    15ac:	00052383          	lw	x7,0(x10)
    15b0:	00d38863          	beq	x7,x13,15c0 <I_srai_cg_cmp_rd_rs1_b13+0x18>
    15b4:	7800046f          	jal	x8,1d34 <failedtest_x8_x7>
    15b8:	000015a8          	.word	0x000015a8
    15bc:	00006a1d          	.word	0x00006a1d
    15c0:	00450513          	addi	x10,x10,4

# Testcase cmp_rd_rs1 (Test rd = rs1 = x14)
  RVTEST_TESTDATA_LOAD_INT(x26, x14) # load rs1: x14 = 0x71196f5d
    15c4:	000d2703          	lw	x14,0(x26)
    15c8:	004d0d13          	addi	x26,x26,4

000015cc <I_srai_cg_cmp_rd_rs1_b14>:
I_srai_cg_cmp_rd_rs1_b14:
  srai x14, x14, 11 # perform operation
    15cc:	40b75713          	srai	x14,x14,0xb
  # Check if x14 contains the expected result. x10 is the signature ptr, x8 is the link ptr, x7 is a temp reg.
  RVTEST_SIGUPD(x10, x8, x7, x14, I_srai_cg_cmp_rd_rs1_b14, I_srai_cg_cmp_rd_rs1_b14_str)
    15d0:	00052383          	lw	x7,0(x10)
    15d4:	00e38863          	beq	x7,x14,15e4 <I_srai_cg_cmp_rd_rs1_b14+0x18>
    15d8:	75c0046f          	jal	x8,1d34 <failedtest_x8_x7>
    15dc:	000015cc          	.word	0x000015cc
    15e0:	00006a52          	.word	0x00006a52
    15e4:	00450513          	addi	x10,x10,4

# Testcase cmp_rd_rs1 (Test rd = rs1 = x15)
  RVTEST_TESTDATA_LOAD_INT(x26, x15) # load rs1: x15 = 0xe4dac414
    15e8:	000d2783          	lw	x15,0(x26)
    15ec:	004d0d13          	addi	x26,x26,4

000015f0 <I_srai_cg_cmp_rd_rs1_b15>:
I_srai_cg_cmp_rd_rs1_b15:
  srai x15, x15, 8 # perform operation
    15f0:	4087d793          	srai	x15,x15,0x8
  # Check if x15 contains the expected result. x10 is the signature ptr, x8 is the link ptr, x7 is a temp reg.
  RVTEST_SIGUPD(x10, x8, x7, x15, I_srai_cg_cmp_rd_rs1_b15, I_srai_cg_cmp_rd_rs1_b15_str)
    15f4:	00052383          	lw	x7,0(x10)
    15f8:	00f38863          	beq	x7,x15,1608 <I_srai_cg_cmp_rd_rs1_b15+0x18>
    15fc:	7380046f          	jal	x8,1d34 <failedtest_x8_x7>
    1600:	000015f0          	.word	0x000015f0
    1604:	00006a87          	.word	0x00006a87
    1608:	00450513          	addi	x10,x10,4

# Testcase cmp_rd_rs1 (Test rd = rs1 = x16)
  RVTEST_TESTDATA_LOAD_INT(x26, x16) # load rs1: x16 = 0x99740405
    160c:	000d2803          	lw	x16,0(x26)
    1610:	004d0d13          	addi	x26,x26,4

00001614 <I_srai_cg_cmp_rd_rs1_b16>:
I_srai_cg_cmp_rd_rs1_b16:
  srai x16, x16, 5 # perform operation
    1614:	40585813          	srai	x16,x16,0x5
  # Check if x16 contains the expected result. x10 is the signature ptr, x8 is the link ptr, x7 is a temp reg.
  RVTEST_SIGUPD(x10, x8, x7, x16, I_srai_cg_cmp_rd_rs1_b16, I_srai_cg_cmp_rd_rs1_b16_str)
    1618:	00052383          	lw	x7,0(x10)
    161c:	01038863          	beq	x7,x16,162c <I_srai_cg_cmp_rd_rs1_b16+0x18>
    1620:	7140046f          	jal	x8,1d34 <failedtest_x8_x7>
    1624:	00001614          	.word	0x00001614
    1628:	00006abc          	.word	0x00006abc
    162c:	00450513          	addi	x10,x10,4

# Testcase cmp_rd_rs1 (Test rd = rs1 = x17)
  RVTEST_TESTDATA_LOAD_INT(x26, x17) # load rs1: x17 = 0xb8daa75b
    1630:	000d2883          	lw	x17,0(x26)
    1634:	004d0d13          	addi	x26,x26,4

00001638 <I_srai_cg_cmp_rd_rs1_b17>:
I_srai_cg_cmp_rd_rs1_b17:
  srai x17, x17, 20 # perform operation
    1638:	4148d893          	srai	x17,x17,0x14
  # Check if x17 contains the expected result. x10 is the signature ptr, x8 is the link ptr, x7 is a temp reg.
  RVTEST_SIGUPD(x10, x8, x7, x17, I_srai_cg_cmp_rd_rs1_b17, I_srai_cg_cmp_rd_rs1_b17_str)
    163c:	00052383          	lw	x7,0(x10)
    1640:	01138863          	beq	x7,x17,1650 <I_srai_cg_cmp_rd_rs1_b17+0x18>
    1644:	6f00046f          	jal	x8,1d34 <failedtest_x8_x7>
    1648:	00001638          	.word	0x00001638
    164c:	00006af1          	.word	0x00006af1
    1650:	00450513          	addi	x10,x10,4

# Testcase cmp_rd_rs1 (Test rd = rs1 = x18)
  RVTEST_TESTDATA_LOAD_INT(x26, x18) # load rs1: x18 = 0x2ebac312
    1654:	000d2903          	lw	x18,0(x26)
    1658:	004d0d13          	addi	x26,x26,4

0000165c <I_srai_cg_cmp_rd_rs1_b18>:
I_srai_cg_cmp_rd_rs1_b18:
  srai x18, x18, 30 # perform operation
    165c:	41e95913          	srai	x18,x18,0x1e
  # Check if x18 contains the expected result. x10 is the signature ptr, x8 is the link ptr, x7 is a temp reg.
  RVTEST_SIGUPD(x10, x8, x7, x18, I_srai_cg_cmp_rd_rs1_b18, I_srai_cg_cmp_rd_rs1_b18_str)
    1660:	00052383          	lw	x7,0(x10)
    1664:	01238863          	beq	x7,x18,1674 <I_srai_cg_cmp_rd_rs1_b18+0x18>
    1668:	6cc0046f          	jal	x8,1d34 <failedtest_x8_x7>
    166c:	0000165c          	.word	0x0000165c
    1670:	00006b26          	.word	0x00006b26
    1674:	00450513          	addi	x10,x10,4

# Testcase cmp_rd_rs1 (Test rd = rs1 = x19)
  RVTEST_TESTDATA_LOAD_INT(x26, x19) # load rs1: x19 = 0x5dad8bc6
    1678:	000d2983          	lw	x19,0(x26)
    167c:	004d0d13          	addi	x26,x26,4

00001680 <I_srai_cg_cmp_rd_rs1_b19>:
I_srai_cg_cmp_rd_rs1_b19:
  srai x19, x19, 20 # perform operation
    1680:	4149d993          	srai	x19,x19,0x14
  # Check if x19 contains the expected result. x10 is the signature ptr, x8 is the link ptr, x7 is a temp reg.
  RVTEST_SIGUPD(x10, x8, x7, x19, I_srai_cg_cmp_rd_rs1_b19, I_srai_cg_cmp_rd_rs1_b19_str)
    1684:	00052383          	lw	x7,0(x10)
    1688:	01338863          	beq	x7,x19,1698 <I_srai_cg_cmp_rd_rs1_b19+0x18>
    168c:	6a80046f          	jal	x8,1d34 <failedtest_x8_x7>
    1690:	00001680          	.word	0x00001680
    1694:	00006b5b          	.word	0x00006b5b
    1698:	00450513          	addi	x10,x10,4

# Testcase cmp_rd_rs1 (Test rd = rs1 = x20)
  RVTEST_TESTDATA_LOAD_INT(x26, x20) # load rs1: x20 = 0xf4422b6b
    169c:	000d2a03          	lw	x20,0(x26)
    16a0:	004d0d13          	addi	x26,x26,4

000016a4 <I_srai_cg_cmp_rd_rs1_b20>:
I_srai_cg_cmp_rd_rs1_b20:
  srai x20, x20, 15 # perform operation
    16a4:	40fa5a13          	srai	x20,x20,0xf
  # Check if x20 contains the expected result. x10 is the signature ptr, x8 is the link ptr, x7 is a temp reg.
  RVTEST_SIGUPD(x10, x8, x7, x20, I_srai_cg_cmp_rd_rs1_b20, I_srai_cg_cmp_rd_rs1_b20_str)
    16a8:	00052383          	lw	x7,0(x10)
    16ac:	01438863          	beq	x7,x20,16bc <I_srai_cg_cmp_rd_rs1_b20+0x18>
    16b0:	6840046f          	jal	x8,1d34 <failedtest_x8_x7>
    16b4:	000016a4          	.word	0x000016a4
    16b8:	00006b90          	.word	0x00006b90
    16bc:	00450513          	addi	x10,x10,4

# Testcase cmp_rd_rs1 (Test rd = rs1 = x21)
  RVTEST_TESTDATA_LOAD_INT(x26, x21) # load rs1: x21 = 0x3f0fff20
    16c0:	000d2a83          	lw	x21,0(x26)
    16c4:	004d0d13          	addi	x26,x26,4

000016c8 <I_srai_cg_cmp_rd_rs1_b21>:
I_srai_cg_cmp_rd_rs1_b21:
  srai x21, x21, 12 # perform operation
    16c8:	40cada93          	srai	x21,x21,0xc
  # Check if x21 contains the expected result. x10 is the signature ptr, x8 is the link ptr, x7 is a temp reg.
  RVTEST_SIGUPD(x10, x8, x7, x21, I_srai_cg_cmp_rd_rs1_b21, I_srai_cg_cmp_rd_rs1_b21_str)
    16cc:	00052383          	lw	x7,0(x10)
    16d0:	01538863          	beq	x7,x21,16e0 <I_srai_cg_cmp_rd_rs1_b21+0x18>
    16d4:	6600046f          	jal	x8,1d34 <failedtest_x8_x7>
    16d8:	000016c8          	.word	0x000016c8
    16dc:	00006bc5          	.word	0x00006bc5
    16e0:	00450513          	addi	x10,x10,4

# Testcase cmp_rd_rs1 (Test rd = rs1 = x22)
  RVTEST_TESTDATA_LOAD_INT(x26, x22) # load rs1: x22 = 0xf09a0d8c
    16e4:	000d2b03          	lw	x22,0(x26)
    16e8:	004d0d13          	addi	x26,x26,4

000016ec <I_srai_cg_cmp_rd_rs1_b22>:
I_srai_cg_cmp_rd_rs1_b22:
  srai x22, x22, 22 # perform operation
    16ec:	416b5b13          	srai	x22,x22,0x16
  # Check if x22 contains the expected result. x10 is the signature ptr, x8 is the link ptr, x7 is a temp reg.
  RVTEST_SIGUPD(x10, x8, x7, x22, I_srai_cg_cmp_rd_rs1_b22, I_srai_cg_cmp_rd_rs1_b22_str)
    16f0:	00052383          	lw	x7,0(x10)
    16f4:	01638863          	beq	x7,x22,1704 <I_srai_cg_cmp_rd_rs1_b22+0x18>
    16f8:	63c0046f          	jal	x8,1d34 <failedtest_x8_x7>
    16fc:	000016ec          	.word	0x000016ec
    1700:	00006bfa          	.word	0x00006bfa
    1704:	00450513          	addi	x10,x10,4

# Testcase cmp_rd_rs1 (Test rd = rs1 = x23)
  RVTEST_TESTDATA_LOAD_INT(x26, x23) # load rs1: x23 = 0xe431dda7
    1708:	000d2b83          	lw	x23,0(x26)
    170c:	004d0d13          	addi	x26,x26,4

00001710 <I_srai_cg_cmp_rd_rs1_b23>:
I_srai_cg_cmp_rd_rs1_b23:
  srai x23, x23, 8 # perform operation
    1710:	408bdb93          	srai	x23,x23,0x8
  # Check if x23 contains the expected result. x10 is the signature ptr, x8 is the link ptr, x7 is a temp reg.
  RVTEST_SIGUPD(x10, x8, x7, x23, I_srai_cg_cmp_rd_rs1_b23, I_srai_cg_cmp_rd_rs1_b23_str)
    1714:	00052383          	lw	x7,0(x10)
    1718:	01738863          	beq	x7,x23,1728 <I_srai_cg_cmp_rd_rs1_b23+0x18>
    171c:	6180046f          	jal	x8,1d34 <failedtest_x8_x7>
    1720:	00001710          	.word	0x00001710
    1724:	00006c2f          	.word	0x00006c2f
    1728:	00450513          	addi	x10,x10,4

# Testcase cmp_rd_rs1 (Test rd = rs1 = x24)
  RVTEST_TESTDATA_LOAD_INT(x26, x24) # load rs1: x24 = 0x74e804e4
    172c:	000d2c03          	lw	x24,0(x26)
    1730:	004d0d13          	addi	x26,x26,4

00001734 <I_srai_cg_cmp_rd_rs1_b24>:
I_srai_cg_cmp_rd_rs1_b24:
  srai x24, x24, 26 # perform operation
    1734:	41ac5c13          	srai	x24,x24,0x1a
  # Check if x24 contains the expected result. x10 is the signature ptr, x8 is the link ptr, x7 is a temp reg.
  RVTEST_SIGUPD(x10, x8, x7, x24, I_srai_cg_cmp_rd_rs1_b24, I_srai_cg_cmp_rd_rs1_b24_str)
    1738:	00052383          	lw	x7,0(x10)
    173c:	01838863          	beq	x7,x24,174c <I_srai_cg_cmp_rd_rs1_b24+0x18>
    1740:	5f40046f          	jal	x8,1d34 <failedtest_x8_x7>
    1744:	00001734          	.word	0x00001734
    1748:	00006c64          	.word	0x00006c64
    174c:	00450513          	addi	x10,x10,4

# Testcase cmp_rd_rs1 (Test rd = rs1 = x25)
  RVTEST_TESTDATA_LOAD_INT(x26, x25) # load rs1: x25 = 0x9682c439
    1750:	000d2c83          	lw	x25,0(x26)
    1754:	004d0d13          	addi	x26,x26,4

00001758 <I_srai_cg_cmp_rd_rs1_b25>:
I_srai_cg_cmp_rd_rs1_b25:
  srai x25, x25, 18 # perform operation
    1758:	412cdc93          	srai	x25,x25,0x12
  # Check if x25 contains the expected result. x10 is the signature ptr, x8 is the link ptr, x7 is a temp reg.
  RVTEST_SIGUPD(x10, x8, x7, x25, I_srai_cg_cmp_rd_rs1_b25, I_srai_cg_cmp_rd_rs1_b25_str)
    175c:	00052383          	lw	x7,0(x10)
    1760:	01938863          	beq	x7,x25,1770 <I_srai_cg_cmp_rd_rs1_b25+0x18>
    1764:	5d00046f          	jal	x8,1d34 <failedtest_x8_x7>
    1768:	00001758          	.word	0x00001758
    176c:	00006c99          	.word	0x00006c99
    1770:	00450513          	addi	x10,x10,4

  mv x22, x26 # switch data pointer register to avoid conflict with test
    1774:	000d0b13          	addi	x22,x26,0
# Testcase cmp_rd_rs1 (Test rd = rs1 = x26)
  RVTEST_TESTDATA_LOAD_INT(x22, x26) # load rs1: x26 = 0xd2847fec
    1778:	000b2d03          	lw	x26,0(x22)
    177c:	004b0b13          	addi	x22,x22,4

00001780 <I_srai_cg_cmp_rd_rs1_b26>:
I_srai_cg_cmp_rd_rs1_b26:
  srai x26, x26, 28 # perform operation
    1780:	41cd5d13          	srai	x26,x26,0x1c
  # Check if x26 contains the expected result. x10 is the signature ptr, x8 is the link ptr, x7 is a temp reg.
  RVTEST_SIGUPD(x10, x8, x7, x26, I_srai_cg_cmp_rd_rs1_b26, I_srai_cg_cmp_rd_rs1_b26_str)
    1784:	00052383          	lw	x7,0(x10)
    1788:	01a38863          	beq	x7,x26,1798 <I_srai_cg_cmp_rd_rs1_b26+0x18>
    178c:	5a80046f          	jal	x8,1d34 <failedtest_x8_x7>
    1790:	00001780          	.word	0x00001780
    1794:	00006cce          	.word	0x00006cce
    1798:	00450513          	addi	x10,x10,4

# Testcase cmp_rd_rs1 (Test rd = rs1 = x27)
  RVTEST_TESTDATA_LOAD_INT(x22, x27) # load rs1: x27 = 0x7b36c0d7
    179c:	000b2d83          	lw	x27,0(x22)
    17a0:	004b0b13          	addi	x22,x22,4

000017a4 <I_srai_cg_cmp_rd_rs1_b27>:
I_srai_cg_cmp_rd_rs1_b27:
  srai x27, x27, 1 # perform operation
    17a4:	401ddd93          	srai	x27,x27,0x1
  # Check if x27 contains the expected result. x10 is the signature ptr, x8 is the link ptr, x7 is a temp reg.
  RVTEST_SIGUPD(x10, x8, x7, x27, I_srai_cg_cmp_rd_rs1_b27, I_srai_cg_cmp_rd_rs1_b27_str)
    17a8:	00052383          	lw	x7,0(x10)
    17ac:	01b38863          	beq	x7,x27,17bc <I_srai_cg_cmp_rd_rs1_b27+0x18>
    17b0:	5840046f          	jal	x8,1d34 <failedtest_x8_x7>
    17b4:	000017a4          	.word	0x000017a4
    17b8:	00006d03          	.word	0x00006d03
    17bc:	00450513          	addi	x10,x10,4

# Testcase cmp_rd_rs1 (Test rd = rs1 = x28)
  RVTEST_TESTDATA_LOAD_INT(x22, x28) # load rs1: x28 = 0x265895ec
    17c0:	000b2e03          	lw	x28,0(x22)
    17c4:	004b0b13          	addi	x22,x22,4

000017c8 <I_srai_cg_cmp_rd_rs1_b28>:
I_srai_cg_cmp_rd_rs1_b28:
  srai x28, x28, 21 # perform operation
    17c8:	415e5e13          	srai	x28,x28,0x15
  # Check if x28 contains the expected result. x10 is the signature ptr, x8 is the link ptr, x7 is a temp reg.
  RVTEST_SIGUPD(x10, x8, x7, x28, I_srai_cg_cmp_rd_rs1_b28, I_srai_cg_cmp_rd_rs1_b28_str)
    17cc:	00052383          	lw	x7,0(x10)
    17d0:	01c38863          	beq	x7,x28,17e0 <I_srai_cg_cmp_rd_rs1_b28+0x18>
    17d4:	5600046f          	jal	x8,1d34 <failedtest_x8_x7>
    17d8:	000017c8          	.word	0x000017c8
    17dc:	00006d38          	.word	0x00006d38
    17e0:	00450513          	addi	x10,x10,4

# Testcase cmp_rd_rs1 (Test rd = rs1 = x29)
  RVTEST_TESTDATA_LOAD_INT(x22, x29) # load rs1: x29 = 0xaa06504c
    17e4:	000b2e83          	lw	x29,0(x22)
    17e8:	004b0b13          	addi	x22,x22,4

000017ec <I_srai_cg_cmp_rd_rs1_b29>:
I_srai_cg_cmp_rd_rs1_b29:
  srai x29, x29, 7 # perform operation
    17ec:	407ede93          	srai	x29,x29,0x7
  # Check if x29 contains the expected result. x10 is the signature ptr, x8 is the link ptr, x7 is a temp reg.
  RVTEST_SIGUPD(x10, x8, x7, x29, I_srai_cg_cmp_rd_rs1_b29, I_srai_cg_cmp_rd_rs1_b29_str)
    17f0:	00052383          	lw	x7,0(x10)
    17f4:	01d38863          	beq	x7,x29,1804 <I_srai_cg_cmp_rd_rs1_b29+0x18>
    17f8:	53c0046f          	jal	x8,1d34 <failedtest_x8_x7>
    17fc:	000017ec          	.word	0x000017ec
    1800:	00006d6d          	.word	0x00006d6d
    1804:	00450513          	addi	x10,x10,4

# Testcase cmp_rd_rs1 (Test rd = rs1 = x30)
  RVTEST_TESTDATA_LOAD_INT(x22, x30) # load rs1: x30 = 0x0455b632
    1808:	000b2f03          	lw	x30,0(x22)
    180c:	004b0b13          	addi	x22,x22,4

00001810 <I_srai_cg_cmp_rd_rs1_b30>:
I_srai_cg_cmp_rd_rs1_b30:
  srai x30, x30, 11 # perform operation
    1810:	40bf5f13          	srai	x30,x30,0xb
  # Check if x30 contains the expected result. x10 is the signature ptr, x8 is the link ptr, x7 is a temp reg.
  RVTEST_SIGUPD(x10, x8, x7, x30, I_srai_cg_cmp_rd_rs1_b30, I_srai_cg_cmp_rd_rs1_b30_str)
    1814:	00052383          	lw	x7,0(x10)
    1818:	01e38863          	beq	x7,x30,1828 <I_srai_cg_cmp_rd_rs1_b30+0x18>
    181c:	5180046f          	jal	x8,1d34 <failedtest_x8_x7>
    1820:	00001810          	.word	0x00001810
    1824:	00006da2          	.word	0x00006da2
    1828:	00450513          	addi	x10,x10,4

# Testcase cmp_rd_rs1 (Test rd = rs1 = x31)
  RVTEST_TESTDATA_LOAD_INT(x22, x31) # load rs1: x31 = 0x210e3916
    182c:	000b2f83          	lw	x31,0(x22)
    1830:	004b0b13          	addi	x22,x22,4

00001834 <I_srai_cg_cmp_rd_rs1_b31>:
I_srai_cg_cmp_rd_rs1_b31:
  srai x31, x31, 8 # perform operation
    1834:	408fdf93          	srai	x31,x31,0x8
  # Check if x31 contains the expected result. x10 is the signature ptr, x8 is the link ptr, x7 is a temp reg.
  RVTEST_SIGUPD(x10, x8, x7, x31, I_srai_cg_cmp_rd_rs1_b31, I_srai_cg_cmp_rd_rs1_b31_str)
    1838:	00052383          	lw	x7,0(x10)
    183c:	01f38863          	beq	x7,x31,184c <I_srai_cg_cmp_rd_rs1_b31+0x18>
    1840:	4f40046f          	jal	x8,1d34 <failedtest_x8_x7>
    1844:	00001834          	.word	0x00001834
    1848:	00006dd7          	.word	0x00006dd7
    184c:	00450513          	addi	x10,x10,4
/////////////////////////////////
// cp_uimm
/////////////////////////////////

# Testcase cp_uimm: imm=0
  RVTEST_TESTDATA_LOAD_INT(x22, x5) # load rs1: x5 = 0x17ab25b7
    1850:	000b2283          	lw	x5,0(x22)
    1854:	004b0b13          	addi	x22,x22,4

00001858 <I_srai_cg_cp_uimm_uimm0>:
I_srai_cg_cp_uimm_uimm0:
  srai x13, x5, 0 # perform operation
    1858:	4002d693          	srai	x13,x5,0x0
  # Check if x13 contains the expected result. x10 is the signature ptr, x8 is the link ptr, x7 is a temp reg.
  RVTEST_SIGUPD(x10, x8, x7, x13, I_srai_cg_cp_uimm_uimm0, I_srai_cg_cp_uimm_uimm0_str)
    185c:	00052383          	lw	x7,0(x10)
    1860:	00d38863          	beq	x7,x13,1870 <I_srai_cg_cp_uimm_uimm0+0x18>
    1864:	4d00046f          	jal	x8,1d34 <failedtest_x8_x7>
    1868:	00001858          	.word	0x00001858
    186c:	00006e0c          	.word	0x00006e0c
    1870:	00450513          	addi	x10,x10,4

# Testcase cp_uimm: imm=1
  RVTEST_TESTDATA_LOAD_INT(x22, x9) # load rs1: x9 = 0x540a0f46
    1874:	000b2483          	lw	x9,0(x22)
    1878:	004b0b13          	addi	x22,x22,4

0000187c <I_srai_cg_cp_uimm_uimm1>:
I_srai_cg_cp_uimm_uimm1:
  srai x15, x9, 1 # perform operation
    187c:	4014d793          	srai	x15,x9,0x1
  # Check if x15 contains the expected result. x10 is the signature ptr, x8 is the link ptr, x7 is a temp reg.
  RVTEST_SIGUPD(x10, x8, x7, x15, I_srai_cg_cp_uimm_uimm1, I_srai_cg_cp_uimm_uimm1_str)
    1880:	00052383          	lw	x7,0(x10)
    1884:	00f38863          	beq	x7,x15,1894 <I_srai_cg_cp_uimm_uimm1+0x18>
    1888:	4ac0046f          	jal	x8,1d34 <failedtest_x8_x7>
    188c:	0000187c          	.word	0x0000187c
    1890:	00006e40          	.word	0x00006e40
    1894:	00450513          	addi	x10,x10,4

# Testcase cp_uimm: imm=2
  RVTEST_TESTDATA_LOAD_INT(x22, x2) # load rs1: x2 = 0x9bc45b9e
    1898:	000b2103          	lw	x2,0(x22)
    189c:	004b0b13          	addi	x22,x22,4

000018a0 <I_srai_cg_cp_uimm_uimm2>:
I_srai_cg_cp_uimm_uimm2:
  srai x23, x2, 2 # perform operation
    18a0:	40215b93          	srai	x23,x2,0x2
  # Check if x23 contains the expected result. x10 is the signature ptr, x8 is the link ptr, x7 is a temp reg.
  RVTEST_SIGUPD(x10, x8, x7, x23, I_srai_cg_cp_uimm_uimm2, I_srai_cg_cp_uimm_uimm2_str)
    18a4:	00052383          	lw	x7,0(x10)
    18a8:	01738863          	beq	x7,x23,18b8 <I_srai_cg_cp_uimm_uimm2+0x18>
    18ac:	4880046f          	jal	x8,1d34 <failedtest_x8_x7>
    18b0:	000018a0          	.word	0x000018a0
    18b4:	00006e74          	.word	0x00006e74
    18b8:	00450513          	addi	x10,x10,4

# Testcase cp_uimm: imm=3
  RVTEST_TESTDATA_LOAD_INT(x22, x4) # load rs1: x4 = 0xff52ebb9
    18bc:	000b2203          	lw	x4,0(x22)
    18c0:	004b0b13          	addi	x22,x22,4

000018c4 <I_srai_cg_cp_uimm_uimm3>:
I_srai_cg_cp_uimm_uimm3:
  srai x5, x4, 3 # perform operation
    18c4:	40325293          	srai	x5,x4,0x3
  # Check if x5 contains the expected result. x10 is the signature ptr, x8 is the link ptr, x7 is a temp reg.
  RVTEST_SIGUPD(x10, x8, x7, x5, I_srai_cg_cp_uimm_uimm3, I_srai_cg_cp_uimm_uimm3_str)
    18c8:	00052383          	lw	x7,0(x10)
    18cc:	00538863          	beq	x7,x5,18dc <I_srai_cg_cp_uimm_uimm3+0x18>
    18d0:	4640046f          	jal	x8,1d34 <failedtest_x8_x7>
    18d4:	000018c4          	.word	0x000018c4
    18d8:	00006ea8          	.word	0x00006ea8
    18dc:	00450513          	addi	x10,x10,4

# Testcase cp_uimm: imm=4
  RVTEST_TESTDATA_LOAD_INT(x22, x11) # load rs1: x11 = 0x6c796211
    18e0:	000b2583          	lw	x11,0(x22)
    18e4:	004b0b13          	addi	x22,x22,4

000018e8 <I_srai_cg_cp_uimm_uimm4>:
I_srai_cg_cp_uimm_uimm4:
  srai x15, x11, 4 # perform operation
    18e8:	4045d793          	srai	x15,x11,0x4
  # Check if x15 contains the expected result. x10 is the signature ptr, x8 is the link ptr, x7 is a temp reg.
  RVTEST_SIGUPD(x10, x8, x7, x15, I_srai_cg_cp_uimm_uimm4, I_srai_cg_cp_uimm_uimm4_str)
    18ec:	00052383          	lw	x7,0(x10)
    18f0:	00f38863          	beq	x7,x15,1900 <I_srai_cg_cp_uimm_uimm4+0x18>
    18f4:	4400046f          	jal	x8,1d34 <failedtest_x8_x7>
    18f8:	000018e8          	.word	0x000018e8
    18fc:	00006edc          	.word	0x00006edc
    1900:	00450513          	addi	x10,x10,4

# Testcase cp_uimm: imm=5
  RVTEST_TESTDATA_LOAD_INT(x22, x9) # load rs1: x9 = 0x4ad9c5af
    1904:	000b2483          	lw	x9,0(x22)
    1908:	004b0b13          	addi	x22,x22,4

0000190c <I_srai_cg_cp_uimm_uimm5>:
I_srai_cg_cp_uimm_uimm5:
  srai x4, x9, 5 # perform operation
    190c:	4054d213          	srai	x4,x9,0x5
  # Check if x4 contains the expected result. x10 is the signature ptr, x8 is the link ptr, x7 is a temp reg.
  RVTEST_SIGUPD(x10, x8, x7, x4, I_srai_cg_cp_uimm_uimm5, I_srai_cg_cp_uimm_uimm5_str)
    1910:	00052383          	lw	x7,0(x10)
    1914:	00438863          	beq	x7,x4,1924 <I_srai_cg_cp_uimm_uimm5+0x18>
    1918:	41c0046f          	jal	x8,1d34 <failedtest_x8_x7>
    191c:	0000190c          	.word	0x0000190c
    1920:	00006f10          	.word	0x00006f10
    1924:	00450513          	addi	x10,x10,4

# Testcase cp_uimm: imm=6
  RVTEST_TESTDATA_LOAD_INT(x22, x0) # load rs1: x0 = 0xeebed545
    1928:	000b2003          	lw	x0,0(x22)
    192c:	004b0b13          	addi	x22,x22,4

00001930 <I_srai_cg_cp_uimm_uimm6>:
I_srai_cg_cp_uimm_uimm6:
  srai x16, x0, 6 # perform operation
    1930:	40605813          	srai	x16,x0,0x6
  # Check if x16 contains the expected result. x10 is the signature ptr, x8 is the link ptr, x7 is a temp reg.
  RVTEST_SIGUPD(x10, x8, x7, x16, I_srai_cg_cp_uimm_uimm6, I_srai_cg_cp_uimm_uimm6_str)
    1934:	00052383          	lw	x7,0(x10)
    1938:	01038863          	beq	x7,x16,1948 <I_srai_cg_cp_uimm_uimm6+0x18>
    193c:	3f80046f          	jal	x8,1d34 <failedtest_x8_x7>
    1940:	00001930          	.word	0x00001930
    1944:	00006f44          	.word	0x00006f44
    1948:	00450513          	addi	x10,x10,4

# Testcase cp_uimm: imm=7
  RVTEST_TESTDATA_LOAD_INT(x22, x26) # load rs1: x26 = 0xeb827f56
    194c:	000b2d03          	lw	x26,0(x22)
    1950:	004b0b13          	addi	x22,x22,4

00001954 <I_srai_cg_cp_uimm_uimm7>:
I_srai_cg_cp_uimm_uimm7:
  srai x0, x26, 7 # perform operation
    1954:	407d5013          	srai	x0,x26,0x7
  # Check if x0 contains the expected result. x10 is the signature ptr, x8 is the link ptr, x7 is a temp reg.
  RVTEST_SIGUPD(x10, x8, x7, x0, I_srai_cg_cp_uimm_uimm7, I_srai_cg_cp_uimm_uimm7_str)
    1958:	00052383          	lw	x7,0(x10)
    195c:	00038863          	beq	x7,x0,196c <I_srai_cg_cp_uimm_uimm7+0x18>
    1960:	3d40046f          	jal	x8,1d34 <failedtest_x8_x7>
    1964:	00001954          	.word	0x00001954
    1968:	00006f78          	.word	0x00006f78
    196c:	00450513          	addi	x10,x10,4

# Testcase cp_uimm: imm=8
  RVTEST_TESTDATA_LOAD_INT(x22, x11) # load rs1: x11 = 0xb16d845a
    1970:	000b2583          	lw	x11,0(x22)
    1974:	004b0b13          	addi	x22,x22,4

00001978 <I_srai_cg_cp_uimm_uimm8>:
I_srai_cg_cp_uimm_uimm8:
  srai x31, x11, 8 # perform operation
    1978:	4085df93          	srai	x31,x11,0x8
  # Check if x31 contains the expected result. x10 is the signature ptr, x8 is the link ptr, x7 is a temp reg.
  RVTEST_SIGUPD(x10, x8, x7, x31, I_srai_cg_cp_uimm_uimm8, I_srai_cg_cp_uimm_uimm8_str)
    197c:	00052383          	lw	x7,0(x10)
    1980:	01f38863          	beq	x7,x31,1990 <I_srai_cg_cp_uimm_uimm8+0x18>
    1984:	3b00046f          	jal	x8,1d34 <failedtest_x8_x7>
    1988:	00001978          	.word	0x00001978
    198c:	00006fac          	.word	0x00006fac
    1990:	00450513          	addi	x10,x10,4

# Testcase cp_uimm: imm=9
  RVTEST_TESTDATA_LOAD_INT(x22, x21) # load rs1: x21 = 0xb2eaca65
    1994:	000b2a83          	lw	x21,0(x22)
    1998:	004b0b13          	addi	x22,x22,4

0000199c <I_srai_cg_cp_uimm_uimm9>:
I_srai_cg_cp_uimm_uimm9:
  srai x6, x21, 9 # perform operation
    199c:	409ad313          	srai	x6,x21,0x9
  # Check if x6 contains the expected result. x10 is the signature ptr, x8 is the link ptr, x7 is a temp reg.
  RVTEST_SIGUPD(x10, x8, x7, x6, I_srai_cg_cp_uimm_uimm9, I_srai_cg_cp_uimm_uimm9_str)
    19a0:	00052383          	lw	x7,0(x10)
    19a4:	00638863          	beq	x7,x6,19b4 <I_srai_cg_cp_uimm_uimm9+0x18>
    19a8:	38c0046f          	jal	x8,1d34 <failedtest_x8_x7>
    19ac:	0000199c          	.word	0x0000199c
    19b0:	00006fe0          	.word	0x00006fe0
    19b4:	00450513          	addi	x10,x10,4

# Testcase cp_uimm: imm=10
  RVTEST_TESTDATA_LOAD_INT(x22, x30) # load rs1: x30 = 0xee677ec6
    19b8:	000b2f03          	lw	x30,0(x22)
    19bc:	004b0b13          	addi	x22,x22,4

000019c0 <I_srai_cg_cp_uimm_uimm10>:
I_srai_cg_cp_uimm_uimm10:
  srai x28, x30, 10 # perform operation
    19c0:	40af5e13          	srai	x28,x30,0xa
  # Check if x28 contains the expected result. x10 is the signature ptr, x8 is the link ptr, x7 is a temp reg.
  RVTEST_SIGUPD(x10, x8, x7, x28, I_srai_cg_cp_uimm_uimm10, I_srai_cg_cp_uimm_uimm10_str)
    19c4:	00052383          	lw	x7,0(x10)
    19c8:	01c38863          	beq	x7,x28,19d8 <I_srai_cg_cp_uimm_uimm10+0x18>
    19cc:	3680046f          	jal	x8,1d34 <failedtest_x8_x7>
    19d0:	000019c0          	.word	0x000019c0
    19d4:	00007014          	.word	0x00007014
    19d8:	00450513          	addi	x10,x10,4

# Testcase cp_uimm: imm=11
  RVTEST_TESTDATA_LOAD_INT(x22, x2) # load rs1: x2 = 0x67ba7472
    19dc:	000b2103          	lw	x2,0(x22)
    19e0:	004b0b13          	addi	x22,x22,4

000019e4 <I_srai_cg_cp_uimm_uimm11>:
I_srai_cg_cp_uimm_uimm11:
  srai x27, x2, 11 # perform operation
    19e4:	40b15d93          	srai	x27,x2,0xb
  # Check if x27 contains the expected result. x10 is the signature ptr, x8 is the link ptr, x7 is a temp reg.
  RVTEST_SIGUPD(x10, x8, x7, x27, I_srai_cg_cp_uimm_uimm11, I_srai_cg_cp_uimm_uimm11_str)
    19e8:	00052383          	lw	x7,0(x10)
    19ec:	01b38863          	beq	x7,x27,19fc <I_srai_cg_cp_uimm_uimm11+0x18>
    19f0:	3440046f          	jal	x8,1d34 <failedtest_x8_x7>
    19f4:	000019e4          	.word	0x000019e4
    19f8:	00007049          	.word	0x00007049
    19fc:	00450513          	addi	x10,x10,4

# Testcase cp_uimm: imm=12
  RVTEST_TESTDATA_LOAD_INT(x22, x3) # load rs1: x3 = 0x1257e58b
    1a00:	000b2183          	lw	x3,0(x22)
    1a04:	004b0b13          	addi	x22,x22,4

00001a08 <I_srai_cg_cp_uimm_uimm12>:
I_srai_cg_cp_uimm_uimm12:
  srai x2, x3, 12 # perform operation
    1a08:	40c1d113          	srai	x2,x3,0xc
  # Check if x2 contains the expected result. x10 is the signature ptr, x8 is the link ptr, x7 is a temp reg.
  RVTEST_SIGUPD(x10, x8, x7, x2, I_srai_cg_cp_uimm_uimm12, I_srai_cg_cp_uimm_uimm12_str)
    1a0c:	00052383          	lw	x7,0(x10)
    1a10:	00238863          	beq	x7,x2,1a20 <I_srai_cg_cp_uimm_uimm12+0x18>
    1a14:	3200046f          	jal	x8,1d34 <failedtest_x8_x7>
    1a18:	00001a08          	.word	0x00001a08
    1a1c:	0000707e          	.word	0x0000707e
    1a20:	00450513          	addi	x10,x10,4

# Testcase cp_uimm: imm=13
  RVTEST_TESTDATA_LOAD_INT(x22, x3) # load rs1: x3 = 0xb0c6893f
    1a24:	000b2183          	lw	x3,0(x22)
    1a28:	004b0b13          	addi	x22,x22,4

00001a2c <I_srai_cg_cp_uimm_uimm13>:
I_srai_cg_cp_uimm_uimm13:
  srai x14, x3, 13 # perform operation
    1a2c:	40d1d713          	srai	x14,x3,0xd
  # Check if x14 contains the expected result. x10 is the signature ptr, x8 is the link ptr, x7 is a temp reg.
  RVTEST_SIGUPD(x10, x8, x7, x14, I_srai_cg_cp_uimm_uimm13, I_srai_cg_cp_uimm_uimm13_str)
    1a30:	00052383          	lw	x7,0(x10)
    1a34:	00e38863          	beq	x7,x14,1a44 <I_srai_cg_cp_uimm_uimm13+0x18>
    1a38:	2fc0046f          	jal	x8,1d34 <failedtest_x8_x7>
    1a3c:	00001a2c          	.word	0x00001a2c
    1a40:	000070b3          	.word	0x000070b3
    1a44:	00450513          	addi	x10,x10,4

# Testcase cp_uimm: imm=14
  RVTEST_TESTDATA_LOAD_INT(x22, x1) # load rs1: x1 = 0xceba3026
    1a48:	000b2083          	lw	x1,0(x22)
    1a4c:	004b0b13          	addi	x22,x22,4

00001a50 <I_srai_cg_cp_uimm_uimm14>:
I_srai_cg_cp_uimm_uimm14:
  srai x25, x1, 14 # perform operation
    1a50:	40e0dc93          	srai	x25,x1,0xe
  # Check if x25 contains the expected result. x10 is the signature ptr, x8 is the link ptr, x7 is a temp reg.
  RVTEST_SIGUPD(x10, x8, x7, x25, I_srai_cg_cp_uimm_uimm14, I_srai_cg_cp_uimm_uimm14_str)
    1a54:	00052383          	lw	x7,0(x10)
    1a58:	01938863          	beq	x7,x25,1a68 <I_srai_cg_cp_uimm_uimm14+0x18>
    1a5c:	2d80046f          	jal	x8,1d34 <failedtest_x8_x7>
    1a60:	00001a50          	.word	0x00001a50
    1a64:	000070e8          	.word	0x000070e8
    1a68:	00450513          	addi	x10,x10,4

# Testcase cp_uimm: imm=15
  RVTEST_TESTDATA_LOAD_INT(x22, x25) # load rs1: x25 = 0x5d5d87ec
    1a6c:	000b2c83          	lw	x25,0(x22)
    1a70:	004b0b13          	addi	x22,x22,4

00001a74 <I_srai_cg_cp_uimm_uimm15>:
I_srai_cg_cp_uimm_uimm15:
  srai x11, x25, 15 # perform operation
    1a74:	40fcd593          	srai	x11,x25,0xf
  # Check if x11 contains the expected result. x10 is the signature ptr, x8 is the link ptr, x7 is a temp reg.
  RVTEST_SIGUPD(x10, x8, x7, x11, I_srai_cg_cp_uimm_uimm15, I_srai_cg_cp_uimm_uimm15_str)
    1a78:	00052383          	lw	x7,0(x10)
    1a7c:	00b38863          	beq	x7,x11,1a8c <I_srai_cg_cp_uimm_uimm15+0x18>
    1a80:	2b40046f          	jal	x8,1d34 <failedtest_x8_x7>
    1a84:	00001a74          	.word	0x00001a74
    1a88:	0000711d          	.word	0x0000711d
    1a8c:	00450513          	addi	x10,x10,4

# Testcase cp_uimm: imm=16
  RVTEST_TESTDATA_LOAD_INT(x22, x21) # load rs1: x21 = 0x66d5a22f
    1a90:	000b2a83          	lw	x21,0(x22)
    1a94:	004b0b13          	addi	x22,x22,4

00001a98 <I_srai_cg_cp_uimm_uimm16>:
I_srai_cg_cp_uimm_uimm16:
  srai x9, x21, 16 # perform operation
    1a98:	410ad493          	srai	x9,x21,0x10
  # Check if x9 contains the expected result. x10 is the signature ptr, x8 is the link ptr, x7 is a temp reg.
  RVTEST_SIGUPD(x10, x8, x7, x9, I_srai_cg_cp_uimm_uimm16, I_srai_cg_cp_uimm_uimm16_str)
    1a9c:	00052383          	lw	x7,0(x10)
    1aa0:	00938863          	beq	x7,x9,1ab0 <I_srai_cg_cp_uimm_uimm16+0x18>
    1aa4:	2900046f          	jal	x8,1d34 <failedtest_x8_x7>
    1aa8:	00001a98          	.word	0x00001a98
    1aac:	00007152          	.word	0x00007152
    1ab0:	00450513          	addi	x10,x10,4

# Testcase cp_uimm: imm=17
  RVTEST_TESTDATA_LOAD_INT(x22, x20) # load rs1: x20 = 0x420137e8
    1ab4:	000b2a03          	lw	x20,0(x22)
    1ab8:	004b0b13          	addi	x22,x22,4

00001abc <I_srai_cg_cp_uimm_uimm17>:
I_srai_cg_cp_uimm_uimm17:
  srai x25, x20, 17 # perform operation
    1abc:	411a5c93          	srai	x25,x20,0x11
  # Check if x25 contains the expected result. x10 is the signature ptr, x8 is the link ptr, x7 is a temp reg.
  RVTEST_SIGUPD(x10, x8, x7, x25, I_srai_cg_cp_uimm_uimm17, I_srai_cg_cp_uimm_uimm17_str)
    1ac0:	00052383          	lw	x7,0(x10)
    1ac4:	01938863          	beq	x7,x25,1ad4 <I_srai_cg_cp_uimm_uimm17+0x18>
    1ac8:	26c0046f          	jal	x8,1d34 <failedtest_x8_x7>
    1acc:	00001abc          	.word	0x00001abc
    1ad0:	00007187          	.word	0x00007187
    1ad4:	00450513          	addi	x10,x10,4

# Testcase cp_uimm: imm=18
  RVTEST_TESTDATA_LOAD_INT(x22, x4) # load rs1: x4 = 0x26c12f9c
    1ad8:	000b2203          	lw	x4,0(x22)
    1adc:	004b0b13          	addi	x22,x22,4

00001ae0 <I_srai_cg_cp_uimm_uimm18>:
I_srai_cg_cp_uimm_uimm18:
  srai x24, x4, 18 # perform operation
    1ae0:	41225c13          	srai	x24,x4,0x12
  # Check if x24 contains the expected result. x10 is the signature ptr, x8 is the link ptr, x7 is a temp reg.
  RVTEST_SIGUPD(x10, x8, x7, x24, I_srai_cg_cp_uimm_uimm18, I_srai_cg_cp_uimm_uimm18_str)
    1ae4:	00052383          	lw	x7,0(x10)
    1ae8:	01838863          	beq	x7,x24,1af8 <I_srai_cg_cp_uimm_uimm18+0x18>
    1aec:	2480046f          	jal	x8,1d34 <failedtest_x8_x7>
    1af0:	00001ae0          	.word	0x00001ae0
    1af4:	000071bc          	.word	0x000071bc
    1af8:	00450513          	addi	x10,x10,4

# Testcase cp_uimm: imm=19
  RVTEST_TESTDATA_LOAD_INT(x22, x4) # load rs1: x4 = 0x1184eaa8
    1afc:	000b2203          	lw	x4,0(x22)
    1b00:	004b0b13          	addi	x22,x22,4

00001b04 <I_srai_cg_cp_uimm_uimm19>:
I_srai_cg_cp_uimm_uimm19:
  srai x20, x4, 19 # perform operation
    1b04:	41325a13          	srai	x20,x4,0x13
  # Check if x20 contains the expected result. x10 is the signature ptr, x8 is the link ptr, x7 is a temp reg.
  RVTEST_SIGUPD(x10, x8, x7, x20, I_srai_cg_cp_uimm_uimm19, I_srai_cg_cp_uimm_uimm19_str)
    1b08:	00052383          	lw	x7,0(x10)
    1b0c:	01438863          	beq	x7,x20,1b1c <I_srai_cg_cp_uimm_uimm19+0x18>
    1b10:	2240046f          	jal	x8,1d34 <failedtest_x8_x7>
    1b14:	00001b04          	.word	0x00001b04
    1b18:	000071f1          	.word	0x000071f1
    1b1c:	00450513          	addi	x10,x10,4

# Testcase cp_uimm: imm=20
  RVTEST_TESTDATA_LOAD_INT(x22, x18) # load rs1: x18 = 0x0653fc9a
    1b20:	000b2903          	lw	x18,0(x22)
    1b24:	004b0b13          	addi	x22,x22,4

00001b28 <I_srai_cg_cp_uimm_uimm20>:
I_srai_cg_cp_uimm_uimm20:
  srai x17, x18, 20 # perform operation
    1b28:	41495893          	srai	x17,x18,0x14
  # Check if x17 contains the expected result. x10 is the signature ptr, x8 is the link ptr, x7 is a temp reg.
  RVTEST_SIGUPD(x10, x8, x7, x17, I_srai_cg_cp_uimm_uimm20, I_srai_cg_cp_uimm_uimm20_str)
    1b2c:	00052383          	lw	x7,0(x10)
    1b30:	01138863          	beq	x7,x17,1b40 <I_srai_cg_cp_uimm_uimm20+0x18>
    1b34:	2000046f          	jal	x8,1d34 <failedtest_x8_x7>
    1b38:	00001b28          	.word	0x00001b28
    1b3c:	00007226          	.word	0x00007226
    1b40:	00450513          	addi	x10,x10,4

# Testcase cp_uimm: imm=21
  RVTEST_TESTDATA_LOAD_INT(x22, x17) # load rs1: x17 = 0x84bc3ed5
    1b44:	000b2883          	lw	x17,0(x22)
    1b48:	004b0b13          	addi	x22,x22,4

00001b4c <I_srai_cg_cp_uimm_uimm21>:
I_srai_cg_cp_uimm_uimm21:
  srai x15, x17, 21 # perform operation
    1b4c:	4158d793          	srai	x15,x17,0x15
  # Check if x15 contains the expected result. x10 is the signature ptr, x8 is the link ptr, x7 is a temp reg.
  RVTEST_SIGUPD(x10, x8, x7, x15, I_srai_cg_cp_uimm_uimm21, I_srai_cg_cp_uimm_uimm21_str)
    1b50:	00052383          	lw	x7,0(x10)
    1b54:	00f38863          	beq	x7,x15,1b64 <I_srai_cg_cp_uimm_uimm21+0x18>
    1b58:	1dc0046f          	jal	x8,1d34 <failedtest_x8_x7>
    1b5c:	00001b4c          	.word	0x00001b4c
    1b60:	0000725b          	.word	0x0000725b
    1b64:	00450513          	addi	x10,x10,4

# Testcase cp_uimm: imm=22
  RVTEST_TESTDATA_LOAD_INT(x22, x21) # load rs1: x21 = 0xdba1217d
    1b68:	000b2a83          	lw	x21,0(x22)
    1b6c:	004b0b13          	addi	x22,x22,4

00001b70 <I_srai_cg_cp_uimm_uimm22>:
I_srai_cg_cp_uimm_uimm22:
  srai x0, x21, 22 # perform operation
    1b70:	416ad013          	srai	x0,x21,0x16
  # Check if x0 contains the expected result. x10 is the signature ptr, x8 is the link ptr, x7 is a temp reg.
  RVTEST_SIGUPD(x10, x8, x7, x0, I_srai_cg_cp_uimm_uimm22, I_srai_cg_cp_uimm_uimm22_str)
    1b74:	00052383          	lw	x7,0(x10)
    1b78:	00038863          	beq	x7,x0,1b88 <I_srai_cg_cp_uimm_uimm22+0x18>
    1b7c:	1b80046f          	jal	x8,1d34 <failedtest_x8_x7>
    1b80:	00001b70          	.word	0x00001b70
    1b84:	00007290          	.word	0x00007290
    1b88:	00450513          	addi	x10,x10,4

# Testcase cp_uimm: imm=23
  RVTEST_TESTDATA_LOAD_INT(x22, x14) # load rs1: x14 = 0x897b316a
    1b8c:	000b2703          	lw	x14,0(x22)
    1b90:	004b0b13          	addi	x22,x22,4

00001b94 <I_srai_cg_cp_uimm_uimm23>:
I_srai_cg_cp_uimm_uimm23:
  srai x24, x14, 23 # perform operation
    1b94:	41775c13          	srai	x24,x14,0x17
  # Check if x24 contains the expected result. x10 is the signature ptr, x8 is the link ptr, x7 is a temp reg.
  RVTEST_SIGUPD(x10, x8, x7, x24, I_srai_cg_cp_uimm_uimm23, I_srai_cg_cp_uimm_uimm23_str)
    1b98:	00052383          	lw	x7,0(x10)
    1b9c:	01838863          	beq	x7,x24,1bac <I_srai_cg_cp_uimm_uimm23+0x18>
    1ba0:	1940046f          	jal	x8,1d34 <failedtest_x8_x7>
    1ba4:	00001b94          	.word	0x00001b94
    1ba8:	000072c5          	.word	0x000072c5
    1bac:	00450513          	addi	x10,x10,4

# Testcase cp_uimm: imm=24
  RVTEST_TESTDATA_LOAD_INT(x22, x2) # load rs1: x2 = 0x55589709
    1bb0:	000b2103          	lw	x2,0(x22)
    1bb4:	004b0b13          	addi	x22,x22,4

00001bb8 <I_srai_cg_cp_uimm_uimm24>:
I_srai_cg_cp_uimm_uimm24:
  srai x25, x2, 24 # perform operation
    1bb8:	41815c93          	srai	x25,x2,0x18
  # Check if x25 contains the expected result. x10 is the signature ptr, x8 is the link ptr, x7 is a temp reg.
  RVTEST_SIGUPD(x10, x8, x7, x25, I_srai_cg_cp_uimm_uimm24, I_srai_cg_cp_uimm_uimm24_str)
    1bbc:	00052383          	lw	x7,0(x10)
    1bc0:	01938863          	beq	x7,x25,1bd0 <I_srai_cg_cp_uimm_uimm24+0x18>
    1bc4:	1700046f          	jal	x8,1d34 <failedtest_x8_x7>
    1bc8:	00001bb8          	.word	0x00001bb8
    1bcc:	000072fa          	.word	0x000072fa
    1bd0:	00450513          	addi	x10,x10,4

# Testcase cp_uimm: imm=25
  RVTEST_TESTDATA_LOAD_INT(x22, x2) # load rs1: x2 = 0xd03989c2
    1bd4:	000b2103          	lw	x2,0(x22)
    1bd8:	004b0b13          	addi	x22,x22,4

00001bdc <I_srai_cg_cp_uimm_uimm25>:
I_srai_cg_cp_uimm_uimm25:
  srai x20, x2, 25 # perform operation
    1bdc:	41915a13          	srai	x20,x2,0x19
  # Check if x20 contains the expected result. x10 is the signature ptr, x8 is the link ptr, x7 is a temp reg.
  RVTEST_SIGUPD(x10, x8, x7, x20, I_srai_cg_cp_uimm_uimm25, I_srai_cg_cp_uimm_uimm25_str)
    1be0:	00052383          	lw	x7,0(x10)
    1be4:	01438863          	beq	x7,x20,1bf4 <I_srai_cg_cp_uimm_uimm25+0x18>
    1be8:	14c0046f          	jal	x8,1d34 <failedtest_x8_x7>
    1bec:	00001bdc          	.word	0x00001bdc
    1bf0:	0000732f          	.word	0x0000732f
    1bf4:	00450513          	addi	x10,x10,4

# Testcase cp_uimm: imm=26
  RVTEST_TESTDATA_LOAD_INT(x22, x6) # load rs1: x6 = 0x2868a413
    1bf8:	000b2303          	lw	x6,0(x22)
    1bfc:	004b0b13          	addi	x22,x22,4

00001c00 <I_srai_cg_cp_uimm_uimm26>:
I_srai_cg_cp_uimm_uimm26:
  srai x26, x6, 26 # perform operation
    1c00:	41a35d13          	srai	x26,x6,0x1a
  # Check if x26 contains the expected result. x10 is the signature ptr, x8 is the link ptr, x7 is a temp reg.
  RVTEST_SIGUPD(x10, x8, x7, x26, I_srai_cg_cp_uimm_uimm26, I_srai_cg_cp_uimm_uimm26_str)
    1c04:	00052383          	lw	x7,0(x10)
    1c08:	01a38863          	beq	x7,x26,1c18 <I_srai_cg_cp_uimm_uimm26+0x18>
    1c0c:	1280046f          	jal	x8,1d34 <failedtest_x8_x7>
    1c10:	00001c00          	.word	0x00001c00
    1c14:	00007364          	.word	0x00007364
    1c18:	00450513          	addi	x10,x10,4

# Testcase cp_uimm: imm=27
  RVTEST_TESTDATA_LOAD_INT(x22, x9) # load rs1: x9 = 0xf158fbfc
    1c1c:	000b2483          	lw	x9,0(x22)
    1c20:	004b0b13          	addi	x22,x22,4

00001c24 <I_srai_cg_cp_uimm_uimm27>:
I_srai_cg_cp_uimm_uimm27:
  srai x1, x9, 27 # perform operation
    1c24:	41b4d093          	srai	x1,x9,0x1b
  # Check if x1 contains the expected result. x10 is the signature ptr, x8 is the link ptr, x7 is a temp reg.
  RVTEST_SIGUPD(x10, x8, x7, x1, I_srai_cg_cp_uimm_uimm27, I_srai_cg_cp_uimm_uimm27_str)
    1c28:	00052383          	lw	x7,0(x10)
    1c2c:	00138863          	beq	x7,x1,1c3c <I_srai_cg_cp_uimm_uimm27+0x18>
    1c30:	1040046f          	jal	x8,1d34 <failedtest_x8_x7>
    1c34:	00001c24          	.word	0x00001c24
    1c38:	00007399          	.word	0x00007399
    1c3c:	00450513          	addi	x10,x10,4

# Testcase cp_uimm: imm=28
  RVTEST_TESTDATA_LOAD_INT(x22, x3) # load rs1: x3 = 0x6abee74b
    1c40:	000b2183          	lw	x3,0(x22)
    1c44:	004b0b13          	addi	x22,x22,4

00001c48 <I_srai_cg_cp_uimm_uimm28>:
I_srai_cg_cp_uimm_uimm28:
  srai x11, x3, 28 # perform operation
    1c48:	41c1d593          	srai	x11,x3,0x1c
  # Check if x11 contains the expected result. x10 is the signature ptr, x8 is the link ptr, x7 is a temp reg.
  RVTEST_SIGUPD(x10, x8, x7, x11, I_srai_cg_cp_uimm_uimm28, I_srai_cg_cp_uimm_uimm28_str)
    1c4c:	00052383          	lw	x7,0(x10)
    1c50:	00b38863          	beq	x7,x11,1c60 <I_srai_cg_cp_uimm_uimm28+0x18>
    1c54:	0e00046f          	jal	x8,1d34 <failedtest_x8_x7>
    1c58:	00001c48          	.word	0x00001c48
    1c5c:	000073ce          	.word	0x000073ce
    1c60:	00450513          	addi	x10,x10,4

# Testcase cp_uimm: imm=29
  RVTEST_TESTDATA_LOAD_INT(x22, x16) # load rs1: x16 = 0xc0fd96fc
    1c64:	000b2803          	lw	x16,0(x22)
    1c68:	004b0b13          	addi	x22,x22,4

00001c6c <I_srai_cg_cp_uimm_uimm29>:
I_srai_cg_cp_uimm_uimm29:
  srai x21, x16, 29 # perform operation
    1c6c:	41d85a93          	srai	x21,x16,0x1d
  # Check if x21 contains the expected result. x10 is the signature ptr, x8 is the link ptr, x7 is a temp reg.
  RVTEST_SIGUPD(x10, x8, x7, x21, I_srai_cg_cp_uimm_uimm29, I_srai_cg_cp_uimm_uimm29_str)
    1c70:	00052383          	lw	x7,0(x10)
    1c74:	01538863          	beq	x7,x21,1c84 <I_srai_cg_cp_uimm_uimm29+0x18>
    1c78:	0bc0046f          	jal	x8,1d34 <failedtest_x8_x7>
    1c7c:	00001c6c          	.word	0x00001c6c
    1c80:	00007403          	.word	0x00007403
    1c84:	00450513          	addi	x10,x10,4

# Testcase cp_uimm: imm=30
  RVTEST_TESTDATA_LOAD_INT(x22, x29) # load rs1: x29 = 0x11ff8e34
    1c88:	000b2e83          	lw	x29,0(x22)
    1c8c:	004b0b13          	addi	x22,x22,4

00001c90 <I_srai_cg_cp_uimm_uimm30>:
I_srai_cg_cp_uimm_uimm30:
  srai x23, x29, 30 # perform operation
    1c90:	41eedb93          	srai	x23,x29,0x1e
  # Check if x23 contains the expected result. x10 is the signature ptr, x8 is the link ptr, x7 is a temp reg.
  RVTEST_SIGUPD(x10, x8, x7, x23, I_srai_cg_cp_uimm_uimm30, I_srai_cg_cp_uimm_uimm30_str)
    1c94:	00052383          	lw	x7,0(x10)
    1c98:	01738863          	beq	x7,x23,1ca8 <I_srai_cg_cp_uimm_uimm30+0x18>
    1c9c:	0980046f          	jal	x8,1d34 <failedtest_x8_x7>
    1ca0:	00001c90          	.word	0x00001c90
    1ca4:	00007438          	.word	0x00007438
    1ca8:	00450513          	addi	x10,x10,4

# Testcase cp_uimm: imm=31
  RVTEST_TESTDATA_LOAD_INT(x22, x27) # load rs1: x27 = 0x35595a60
    1cac:	000b2d83          	lw	x27,0(x22)
    1cb0:	004b0b13          	addi	x22,x22,4

00001cb4 <I_srai_cg_cp_uimm_uimm31>:
I_srai_cg_cp_uimm_uimm31:
  srai x21, x27, 31 # perform operation
    1cb4:	41fdda93          	srai	x21,x27,0x1f
  # Check if x21 contains the expected result. x10 is the signature ptr, x8 is the link ptr, x7 is a temp reg.
  RVTEST_SIGUPD(x10, x8, x7, x21, I_srai_cg_cp_uimm_uimm31, I_srai_cg_cp_uimm_uimm31_str)
    1cb8:	00052383          	lw	x7,0(x10)
    1cbc:	01538863          	beq	x7,x21,1ccc <I_srai_cg_cp_uimm_uimm31+0x18>
    1cc0:	0740046f          	jal	x8,1d34 <failedtest_x8_x7>
    1cc4:	00001cb4          	.word	0x00001cb4
    1cc8:	0000746d          	.word	0x0000746d
    1ccc:	00450513          	addi	x10,x10,4

  mv x2, x10 # restore signature pointer to default register for teardown
    1cd0:	00050113          	addi	x2,x10,0

00001cd4 <cleanup_epilogs>:
    1cd4:	00000013          	addi	x0,x0,0
    1cd8:	00000013          	addi	x0,x0,0
    1cdc:	00000013          	addi	x0,x0,0

// Instantiate trap handlers and other epilog code, call RVMODEL_HALT at end of test
RVTEST_CODE_END
    1ce0:	00006517          	auipc	x10,0x6
    1ce4:	e3450513          	addi	x10,x10,-460 # 7b14 <successstr>
    1ce8:	00000013          	addi	x0,x0,0
    1cec:	00000013          	addi	x0,x0,0
    1cf0:	00000013          	addi	x0,x0,0
    1cf4:	00000013          	addi	x0,x0,0
    1cf8:	00000013          	addi	x0,x0,0
    1cfc:	00000013          	addi	x0,x0,0
    1d00:	00016097          	auipc	x1,0x16
    1d04:	504080e7          	jalr	x1,1284(x1) # 18204 <rvmodel_io_write_str>
    1d08:	00016097          	auipc	x1,0x16
    1d0c:	500080e7          	jalr	x1,1280(x1) # 18208 <rvmodel_halt_pass>

00001d10 <abort_test>:
    1d10:	bad0e737          	lui	x14,0xbad0e
    1d14:	ead70713          	addi	x14,x14,-339 # bad0dead <absimm+0x4b743ba4>
    1d18:	fbdff06f          	jal	x0,1cd4 <cleanup_epilogs>

00001d1c <failedtest_x5_x4>:
    1d1c:	00005217          	auipc	x4,0x5
    1d20:	79420213          	addi	x4,x4,1940 # 74b0 <begin_failure_scratch>
    1d24:	02522423          	sw	x5,40(x4) # 28 <MMODE_SIG+0x25>
    1d28:	00122423          	sw	x1,8(x4) # 8 <MMODE_SIG+0x5>
    1d2c:	00022023          	sw	x0,0(x4) # 0 <rvtest_entry_point>
    1d30:	0b00006f          	jal	x0,1de0 <failedtest_saveregs>

00001d34 <failedtest_x8_x7>:
    1d34:	00005397          	auipc	x7,0x5
    1d38:	77c38393          	addi	x7,x7,1916 # 74b0 <begin_failure_scratch>
    1d3c:	0483a023          	sw	x8,64(x7)
    1d40:	0243a023          	sw	x4,32(x7)
    1d44:	0253a423          	sw	x5,40(x7)
    1d48:	0013a423          	sw	x1,8(x7)
    1d4c:	0003a023          	sw	x0,0(x7)
    1d50:	00038213          	addi	x4,x7,0
    1d54:	00040293          	addi	x5,x8,0
    1d58:	0880006f          	jal	x0,1de0 <failedtest_saveregs>

00001d5c <failedtest_x14_x13>:
    1d5c:	00005697          	auipc	x13,0x5
    1d60:	75468693          	addi	x13,x13,1876 # 74b0 <begin_failure_scratch>
    1d64:	06e6a823          	sw	x14,112(x13)
    1d68:	0246a023          	sw	x4,32(x13)
    1d6c:	0256a423          	sw	x5,40(x13)
    1d70:	0016a423          	sw	x1,8(x13)
    1d74:	0006a023          	sw	x0,0(x13)
    1d78:	00068213          	addi	x4,x13,0
    1d7c:	00070293          	addi	x5,x14,0
    1d80:	0600006f          	jal	x0,1de0 <failedtest_saveregs>

00001d84 <failedtest_trap_x7_x9>:
    1d84:	00005497          	auipc	x9,0x5
    1d88:	72c48493          	addi	x9,x9,1836 # 74b0 <begin_failure_scratch>
    1d8c:	0674a423          	sw	x7,104(x9)
    1d90:	0244a023          	sw	x4,32(x9)
    1d94:	0254a423          	sw	x5,40(x9)
    1d98:	0014a423          	sw	x1,8(x9)
    1d9c:	00300093          	addi	x1,x0,3
    1da0:	0014a023          	sw	x1,0(x9)
    1da4:	00048213          	addi	x4,x9,0
    1da8:	00038293          	addi	x5,x7,0
    1dac:	342020f3          	csrrs	x1,mcause,x0
    1db0:	00006497          	auipc	x9,0x6
    1db4:	87048493          	addi	x9,x9,-1936 # 7620 <saved_mcause>
    1db8:	0014a023          	sw	x1,0(x9)
    1dbc:	343020f3          	csrrs	x1,mtval,x0
    1dc0:	00006497          	auipc	x9,0x6
    1dc4:	86848493          	addi	x9,x9,-1944 # 7628 <saved_mtval>
    1dc8:	0014a023          	sw	x1,0(x9)
    1dcc:	300020f3          	csrrs	x1,mstatus,x0
    1dd0:	00006497          	auipc	x9,0x6
    1dd4:	86048493          	addi	x9,x9,-1952 # 7630 <saved_mstatus>
    1dd8:	0014a023          	sw	x1,0(x9)
    1ddc:	0040006f          	jal	x0,1de0 <failedtest_saveregs>

00001de0 <failedtest_saveregs>:
    1de0:	00222823          	sw	x2,16(x4) # 10 <MMODE_SIG+0xd>
    1de4:	00322c23          	sw	x3,24(x4) # 18 <MMODE_SIG+0x15>
    1de8:	02622823          	sw	x6,48(x4) # 30 <MMODE_SIG+0x2d>
    1dec:	02722c23          	sw	x7,56(x4) # 38 <MMODE_SIG+0x35>
    1df0:	04822023          	sw	x8,64(x4) # 40 <rvtest_code_begin>
    1df4:	04922423          	sw	x9,72(x4) # 48 <I_srai_cg_cp_rs1_b0>
    1df8:	04a22823          	sw	x10,80(x4) # 50 <I_srai_cg_cp_rs1_b0+0x8>
    1dfc:	04b22c23          	sw	x11,88(x4) # 58 <I_srai_cg_cp_rs1_b0+0x10>
    1e00:	06c22023          	sw	x12,96(x4) # 60 <I_srai_cg_cp_rs1_b0+0x18>
    1e04:	06d22423          	sw	x13,104(x4) # 68 <I_srai_cg_cp_rs1_b0+0x20>
    1e08:	06e22823          	sw	x14,112(x4) # 70 <I_srai_cg_cp_rs1_b1+0x4>
    1e0c:	06f22c23          	sw	x15,120(x4) # 78 <I_srai_cg_cp_rs1_b1+0xc>
    1e10:	09022023          	sw	x16,128(x4) # 80 <I_srai_cg_cp_rs1_b1+0x14>
    1e14:	09122423          	sw	x17,136(x4) # 88 <I_srai_cg_cp_rs1_b1+0x1c>
    1e18:	09222823          	sw	x18,144(x4) # 90 <I_srai_cg_cp_rs1_b1+0x24>
    1e1c:	09322c23          	sw	x19,152(x4) # 98 <I_srai_cg_cp_rs1_b2+0x4>
    1e20:	0b422023          	sw	x20,160(x4) # a0 <I_srai_cg_cp_rs1_b2+0xc>
    1e24:	0b522423          	sw	x21,168(x4) # a8 <I_srai_cg_cp_rs1_b2+0x14>
    1e28:	0b622823          	sw	x22,176(x4) # b0 <I_srai_cg_cp_rs1_b2+0x1c>
    1e2c:	0b722c23          	sw	x23,184(x4) # b8 <I_srai_cg_cp_rs1_b2+0x24>
    1e30:	0d822023          	sw	x24,192(x4) # c0 <I_srai_cg_cp_rs1_b3+0x4>
    1e34:	0d922423          	sw	x25,200(x4) # c8 <I_srai_cg_cp_rs1_b3+0xc>
    1e38:	0da22823          	sw	x26,208(x4) # d0 <I_srai_cg_cp_rs1_b3+0x14>
    1e3c:	0db22c23          	sw	x27,216(x4) # d8 <I_srai_cg_cp_rs1_b3+0x1c>
    1e40:	0fc22023          	sw	x28,224(x4) # e0 <I_srai_cg_cp_rs1_b3+0x24>
    1e44:	0fd22423          	sw	x29,232(x4) # e8 <I_srai_cg_cp_rs1_b4>
    1e48:	0fe22823          	sw	x30,240(x4) # f0 <I_srai_cg_cp_rs1_b4+0x8>
    1e4c:	0ff22c23          	sw	x31,248(x4) # f8 <I_srai_cg_cp_rs1_b4+0x10>

00001e50 <failedtest_saveresults>:
    1e50:	00005497          	auipc	x9,0x5
    1e54:	6604a483          	lw	x9,1632(x9) # 74b0 <begin_failure_scratch>
    1e58:	00300513          	addi	x10,x0,3
    1e5c:	06a48863          	beq	x9,x10,1ecc <failedtest_saveresults_trap>

00001e60 <failedtest_saveresults_int>:
    1e60:	ffa2d303          	lhu	x6,-6(x5)
    1e64:	ff82d383          	lhu	x7,-8(x5)
    1e68:	01031313          	slli	x6,x6,0x10
    1e6c:	00736333          	or	x6,x6,x7
    1e70:	00f35393          	srli	x7,x6,0xf
    1e74:	01f3f393          	andi	x7,x7,31
    1e78:	01435413          	srli	x8,x6,0x14
    1e7c:	01f47413          	andi	x8,x8,31
    1e80:	10822223          	sw	x8,260(x4) # 104 <I_srai_cg_cp_rs1_b4+0x1c>
    1e84:	00341313          	slli	x6,x8,0x3
    1e88:	00620333          	add	x6,x4,x6
    1e8c:	00032303          	lw	x6,0(x6)
    1e90:	10622823          	sw	x6,272(x4) # 110 <I_srai_cg_cp_rs1_b5+0x4>
    1e94:	ff62d303          	lhu	x6,-10(x5)
    1e98:	ff42d383          	lhu	x7,-12(x5)
    1e9c:	01031313          	slli	x6,x6,0x10
    1ea0:	00736333          	or	x6,x6,x7
    1ea4:	41435393          	srai	x7,x6,0x14
    1ea8:	00f35313          	srli	x6,x6,0xf
    1eac:	01f37313          	andi	x6,x6,31
    1eb0:	00331313          	slli	x6,x6,0x3
    1eb4:	00620333          	add	x6,x4,x6
    1eb8:	00032303          	lw	x6,0(x6)
    1ebc:	00730333          	add	x6,x6,x7
    1ec0:	00032303          	lw	x6,0(x6)
    1ec4:	10622c23          	sw	x6,280(x4) # 118 <I_srai_cg_cp_rs1_b5+0xc>
    1ec8:	3d80006f          	jal	x0,22a0 <failedtest_saveresults_common>

00001ecc <failedtest_saveresults_trap>:
    1ecc:	0042a303          	lw	x6,4(x5)
    1ed0:	00005817          	auipc	x16,0x5
    1ed4:	73880813          	addi	x16,x16,1848 # 7608 <trap_diag_fail_str_ptr>
    1ed8:	00682023          	sw	x6,0(x16)
    1edc:	0002a303          	lw	x6,0(x5)
    1ee0:	10622423          	sw	x6,264(x4) # 108 <I_srai_cg_cp_rs1_b4+0x20>
    1ee4:	00005817          	auipc	x16,0x5
    1ee8:	72480813          	addi	x16,x16,1828 # 7608 <trap_diag_fail_str_ptr>
    1eec:	00082303          	lw	x6,0(x16)
    1ef0:	00006397          	auipc	x7,0x6
    1ef4:	dec38393          	addi	x7,x7,-532 # 7cdc <trap_sig_offset_mismatch>
    1ef8:	28730463          	beq	x6,x7,2180 <trap_diag_offset_mismatch>
    1efc:	00000413          	addi	x8,x0,0
    1f00:	00005817          	auipc	x16,0x5
    1f04:	6e080813          	addi	x16,x16,1760 # 75e0 <trap_diag_subtype>
    1f08:	00882023          	sw	x8,0(x16)
    1f0c:	00006397          	auipc	x7,0x6
    1f10:	e3438393          	addi	x7,x7,-460 # 7d40 <sv_Mvect_str>
    1f14:	00731863          	bne	x6,x7,1f24 <failedtest_saveresults_trap+0x58>
    1f18:	00100413          	addi	x8,x0,1
    1f1c:	00000493          	addi	x9,x0,0
    1f20:	2e00006f          	jal	x0,2200 <trap_diag_field_identified>
    1f24:	00006397          	auipc	x7,0x6
    1f28:	f1e38393          	addi	x7,x7,-226 # 7e42 <sv_Mcause_str>
    1f2c:	00731863          	bne	x6,x7,1f3c <failedtest_saveresults_trap+0x70>
    1f30:	00200413          	addi	x8,x0,2
    1f34:	00000493          	addi	x9,x0,0
    1f38:	2c80006f          	jal	x0,2200 <trap_diag_field_identified>
    1f3c:	00006397          	auipc	x7,0x6
    1f40:	00138393          	addi	x7,x7,1 # 7f3d <sv_Mepc_str>
    1f44:	00731863          	bne	x6,x7,1f54 <failedtest_saveresults_trap+0x88>
    1f48:	00300413          	addi	x8,x0,3
    1f4c:	00000493          	addi	x9,x0,0
    1f50:	2b00006f          	jal	x0,2200 <trap_diag_field_identified>
    1f54:	00006397          	auipc	x7,0x6
    1f58:	0dc38393          	addi	x7,x7,220 # 8030 <sv_Mtval_str>
    1f5c:	00731863          	bne	x6,x7,1f6c <failedtest_saveresults_trap+0xa0>
    1f60:	00400413          	addi	x8,x0,4
    1f64:	00000493          	addi	x9,x0,0
    1f68:	2980006f          	jal	x0,2200 <trap_diag_field_identified>
    1f6c:	00006397          	auipc	x7,0x6
    1f70:	23738393          	addi	x7,x7,567 # 81a3 <sv_Mip_str>
    1f74:	00731863          	bne	x6,x7,1f84 <failedtest_saveresults_trap+0xb8>
    1f78:	00500413          	addi	x8,x0,5
    1f7c:	00000493          	addi	x9,x0,0
    1f80:	2800006f          	jal	x0,2200 <trap_diag_field_identified>
    1f84:	00006397          	auipc	x7,0x6
    1f88:	1a338393          	addi	x7,x7,419 # 8127 <sv_Mtval2_str>
    1f8c:	00731863          	bne	x6,x7,1f9c <failedtest_saveresults_trap+0xd0>
    1f90:	00600413          	addi	x8,x0,6
    1f94:	00000493          	addi	x9,x0,0
    1f98:	2680006f          	jal	x0,2200 <trap_diag_field_identified>
    1f9c:	00006397          	auipc	x7,0x6
    1fa0:	1c938393          	addi	x7,x7,457 # 8165 <sv_Mtinst_str>
    1fa4:	00731863          	bne	x6,x7,1fb4 <failedtest_saveresults_trap+0xe8>
    1fa8:	00700413          	addi	x8,x0,7
    1fac:	00000493          	addi	x9,x0,0
    1fb0:	2500006f          	jal	x0,2200 <trap_diag_field_identified>
    1fb4:	00006397          	auipc	x7,0x6
    1fb8:	dcc38393          	addi	x7,x7,-564 # 7d80 <sv_Svect_str>
    1fbc:	00731863          	bne	x6,x7,1fcc <failedtest_saveresults_trap+0x100>
    1fc0:	00100413          	addi	x8,x0,1
    1fc4:	00100493          	addi	x9,x0,1
    1fc8:	2380006f          	jal	x0,2200 <trap_diag_field_identified>
    1fcc:	00006397          	auipc	x7,0x6
    1fd0:	eb438393          	addi	x7,x7,-332 # 7e80 <sv_Scause_str>
    1fd4:	00731863          	bne	x6,x7,1fe4 <failedtest_saveresults_trap+0x118>
    1fd8:	00200413          	addi	x8,x0,2
    1fdc:	00100493          	addi	x9,x0,1
    1fe0:	2200006f          	jal	x0,2200 <trap_diag_field_identified>
    1fe4:	00006397          	auipc	x7,0x6
    1fe8:	f9538393          	addi	x7,x7,-107 # 7f79 <sv_Sepc_str>
    1fec:	00731863          	bne	x6,x7,1ffc <failedtest_saveresults_trap+0x130>
    1ff0:	00300413          	addi	x8,x0,3
    1ff4:	00100493          	addi	x9,x0,1
    1ff8:	2080006f          	jal	x0,2200 <trap_diag_field_identified>
    1ffc:	00006397          	auipc	x7,0x6
    2000:	07138393          	addi	x7,x7,113 # 806d <sv_Stval_str>
    2004:	00731863          	bne	x6,x7,2014 <failedtest_saveresults_trap+0x148>
    2008:	00400413          	addi	x8,x0,4
    200c:	00100493          	addi	x9,x0,1
    2010:	1f00006f          	jal	x0,2200 <trap_diag_field_identified>
    2014:	00006397          	auipc	x7,0x6
    2018:	1ca38393          	addi	x7,x7,458 # 81de <sv_Sip_str>
    201c:	00731863          	bne	x6,x7,202c <failedtest_saveresults_trap+0x160>
    2020:	00500413          	addi	x8,x0,5
    2024:	00100493          	addi	x9,x0,1
    2028:	1d80006f          	jal	x0,2200 <trap_diag_field_identified>
    202c:	00006397          	auipc	x7,0x6
    2030:	d9438393          	addi	x7,x7,-620 # 7dc0 <sv_Hvect_str>
    2034:	00731863          	bne	x6,x7,2044 <failedtest_saveresults_trap+0x178>
    2038:	00100413          	addi	x8,x0,1
    203c:	00200493          	addi	x9,x0,2
    2040:	1c00006f          	jal	x0,2200 <trap_diag_field_identified>
    2044:	00006397          	auipc	x7,0x6
    2048:	e7a38393          	addi	x7,x7,-390 # 7ebe <sv_Hcause_str>
    204c:	00731863          	bne	x6,x7,205c <failedtest_saveresults_trap+0x190>
    2050:	00200413          	addi	x8,x0,2
    2054:	00200493          	addi	x9,x0,2
    2058:	1a80006f          	jal	x0,2200 <trap_diag_field_identified>
    205c:	00006397          	auipc	x7,0x6
    2060:	f5938393          	addi	x7,x7,-167 # 7fb5 <sv_Hepc_str>
    2064:	00731863          	bne	x6,x7,2074 <failedtest_saveresults_trap+0x1a8>
    2068:	00300413          	addi	x8,x0,3
    206c:	00200493          	addi	x9,x0,2
    2070:	1900006f          	jal	x0,2200 <trap_diag_field_identified>
    2074:	00006397          	auipc	x7,0x6
    2078:	03638393          	addi	x7,x7,54 # 80aa <sv_Htval_str>
    207c:	00731863          	bne	x6,x7,208c <failedtest_saveresults_trap+0x1c0>
    2080:	00400413          	addi	x8,x0,4
    2084:	00200493          	addi	x9,x0,2
    2088:	1780006f          	jal	x0,2200 <trap_diag_field_identified>
    208c:	00006397          	auipc	x7,0x6
    2090:	18d38393          	addi	x7,x7,397 # 8219 <sv_Hip_str>
    2094:	00731863          	bne	x6,x7,20a4 <failedtest_saveresults_trap+0x1d8>
    2098:	00500413          	addi	x8,x0,5
    209c:	00200493          	addi	x9,x0,2
    20a0:	1600006f          	jal	x0,2200 <trap_diag_field_identified>
    20a4:	00006397          	auipc	x7,0x6
    20a8:	d5d38393          	addi	x7,x7,-675 # 7e01 <sv_Vvect_str>
    20ac:	00731863          	bne	x6,x7,20bc <failedtest_saveresults_trap+0x1f0>
    20b0:	00100413          	addi	x8,x0,1
    20b4:	00300493          	addi	x9,x0,3
    20b8:	1480006f          	jal	x0,2200 <trap_diag_field_identified>
    20bc:	00006397          	auipc	x7,0x6
    20c0:	e4138393          	addi	x7,x7,-447 # 7efd <sv_Vcause_str>
    20c4:	00731863          	bne	x6,x7,20d4 <failedtest_saveresults_trap+0x208>
    20c8:	00200413          	addi	x8,x0,2
    20cc:	00300493          	addi	x9,x0,3
    20d0:	1300006f          	jal	x0,2200 <trap_diag_field_identified>
    20d4:	00006397          	auipc	x7,0x6
    20d8:	f1e38393          	addi	x7,x7,-226 # 7ff2 <sv_Vepc_str>
    20dc:	00731863          	bne	x6,x7,20ec <failedtest_saveresults_trap+0x220>
    20e0:	00300413          	addi	x8,x0,3
    20e4:	00300493          	addi	x9,x0,3
    20e8:	1180006f          	jal	x0,2200 <trap_diag_field_identified>
    20ec:	00006397          	auipc	x7,0x6
    20f0:	ffc38393          	addi	x7,x7,-4 # 80e8 <sv_Vtval_str>
    20f4:	00731863          	bne	x6,x7,2104 <failedtest_saveresults_trap+0x238>
    20f8:	00400413          	addi	x8,x0,4
    20fc:	00300493          	addi	x9,x0,3
    2100:	1000006f          	jal	x0,2200 <trap_diag_field_identified>
    2104:	00006397          	auipc	x7,0x6
    2108:	15138393          	addi	x7,x7,337 # 8255 <sv_Vip_str>
    210c:	00731863          	bne	x6,x7,211c <failedtest_saveresults_trap+0x250>
    2110:	00500413          	addi	x8,x0,5
    2114:	00300493          	addi	x9,x0,3
    2118:	0e80006f          	jal	x0,2200 <trap_diag_field_identified>
    211c:	00006397          	auipc	x7,0x6
    2120:	17638393          	addi	x7,x7,374 # 8292 <Mclr_Mext_int_str>
    2124:	00731863          	bne	x6,x7,2134 <failedtest_saveresults_trap+0x268>
    2128:	00800413          	addi	x8,x0,8
    212c:	00000493          	addi	x9,x0,0
    2130:	0d00006f          	jal	x0,2200 <trap_diag_field_identified>
    2134:	00006397          	auipc	x7,0x6
    2138:	1ad38393          	addi	x7,x7,429 # 82e1 <Mclr_Sext_int_str>
    213c:	00731863          	bne	x6,x7,214c <failedtest_saveresults_trap+0x280>
    2140:	00800413          	addi	x8,x0,8
    2144:	00000493          	addi	x9,x0,0
    2148:	0b80006f          	jal	x0,2200 <trap_diag_field_identified>
    214c:	00006397          	auipc	x7,0x6
    2150:	29038393          	addi	x7,x7,656 # 83dc <Sclr_Sext_int_str>
    2154:	00731863          	bne	x6,x7,2164 <failedtest_saveresults_trap+0x298>
    2158:	00800413          	addi	x8,x0,8
    215c:	00100493          	addi	x9,x0,1
    2160:	0a00006f          	jal	x0,2200 <trap_diag_field_identified>
    2164:	00006397          	auipc	x7,0x6
    2168:	37438393          	addi	x7,x7,884 # 84d8 <Hclr_Sext_int_str>
    216c:	00731863          	bne	x6,x7,217c <failedtest_saveresults_trap+0x2b0>
    2170:	00800413          	addi	x8,x0,8
    2174:	00200493          	addi	x9,x0,2
    2178:	0880006f          	jal	x0,2200 <trap_diag_field_identified>
    217c:	1140006f          	jal	x0,2290 <trap_diag_generic_report>

00002180 <trap_diag_offset_mismatch>:
    2180:	00900413          	addi	x8,x0,9
    2184:	00005817          	auipc	x16,0x5
    2188:	45c80813          	addi	x16,x16,1116 # 75e0 <trap_diag_subtype>
    218c:	00882023          	sw	x8,0(x16)
    2190:	ffa2d303          	lhu	x6,-6(x5)
    2194:	ff82d383          	lhu	x7,-8(x5)
    2198:	01031313          	slli	x6,x6,0x10
    219c:	00736333          	or	x6,x6,x7
    21a0:	01435413          	srli	x8,x6,0x14
    21a4:	01f47413          	andi	x8,x8,31
    21a8:	00341313          	slli	x6,x8,0x3
    21ac:	00620333          	add	x6,x4,x6
    21b0:	00032303          	lw	x6,0(x6)
    21b4:	00005817          	auipc	x16,0x5
    21b8:	44480813          	addi	x16,x16,1092 # 75f8 <trap_diag_actual_offset>
    21bc:	00682023          	sw	x6,0(x16)
    21c0:	ff62d303          	lhu	x6,-10(x5)
    21c4:	ff42d383          	lhu	x7,-12(x5)
    21c8:	01031313          	slli	x6,x6,0x10
    21cc:	00736333          	or	x6,x6,x7
    21d0:	41435393          	srai	x7,x6,0x14
    21d4:	00f35313          	srli	x6,x6,0xf
    21d8:	01f37313          	andi	x6,x6,31
    21dc:	00331313          	slli	x6,x6,0x3
    21e0:	00620333          	add	x6,x4,x6
    21e4:	00032303          	lw	x6,0(x6)
    21e8:	00730333          	add	x6,x6,x7
    21ec:	00032303          	lw	x6,0(x6)
    21f0:	00005817          	auipc	x16,0x5
    21f4:	41080813          	addi	x16,x16,1040 # 7600 <trap_diag_expected_offset>
    21f8:	00682023          	sw	x6,0(x16)
