
/home/dev/github/clones/riscv-arch-test/work/rv32i-core/elfs/rv32i/I/I-sub-00.elf:     file format elf32-littleriscv
/home/dev/github/clones/riscv-arch-test/work/rv32i-core/elfs/rv32i/I/I-sub-00.elf
architecture: riscv:rv32, flags 0x00000112:
EXEC_P, HAS_SYMS, D_PAGED
start address 0x00000000

Program Header:
0x70000003 off    0x0001f240 vaddr 0x00000000 paddr 0x00000000 align 2**0
         filesz 0x00000033 memsz 0x00000000 flags r--
    LOAD off    0x00001000 vaddr 0x00000000 paddr 0x00000000 align 2**12
         filesz 0x00005f60 memsz 0x00005f60 flags r-x
    LOAD off    0x00007000 vaddr 0x00008000 paddr 0x00008000 align 2**12
         filesz 0x00018240 memsz 0x00018240 flags rwx

Sections:
Idx Name          Size      VMA       LMA       File off  Algn
  0 .text.init    00000040  00000000  00000000  00001000  2**5
                  CONTENTS, ALLOC, LOAD, READONLY, CODE
  1 .text.rvtest  00005f20  00000040  00000040  00001040  2**5
                  CONTENTS, ALLOC, LOAD, READONLY, CODE
  2 .data         00017d70  00008000  00008000  00007000  2**8
                  CONTENTS, ALLOC, LOAD, DATA
  3 .text.rvmodel 00000240  00020000  00020000  0001f000  2**5
                  CONTENTS, ALLOC, LOAD, READONLY, CODE
  4 .riscv.attributes 00000033  00000000  00000000  0001f240  2**0
                  CONTENTS, READONLY
  5 .debug_line   00002670  00000000  00000000  0001f273  2**0
                  CONTENTS, READONLY, DEBUGGING, OCTETS
  6 .debug_line_str 00000069  00000000  00000000  000218e3  2**0
                  CONTENTS, READONLY, DEBUGGING, OCTETS
  7 .debug_info   00000023  00000000  00000000  0002194c  2**0
                  CONTENTS, READONLY, DEBUGGING, OCTETS
  8 .debug_abbrev 00000012  00000000  00000000  0002196f  2**0
                  CONTENTS, READONLY, DEBUGGING, OCTETS
  9 .debug_aranges 00000028  00000000  00000000  00021988  2**3
                  CONTENTS, READONLY, DEBUGGING, OCTETS
 10 .debug_str    00000075  00000000  00000000  000219b0  2**0
                  CONTENTS, READONLY, DEBUGGING, OCTETS
 11 .debug_rnglists 0000001b  00000000  00000000  00021a25  2**0
                  CONTENTS, READONLY, DEBUGGING, OCTETS
SYMBOL TABLE:
00000000 l    d  .text.init	00000000 .text.init
00000040 l    d  .text.rvtest	00000000 .text.rvtest
00008000 l    d  .data	00000000 .data
00020000 l    d  .text.rvmodel	00000000 .text.rvmodel
00000000 l    d  .riscv.attributes	00000000 .riscv.attributes
00000000 l    d  .debug_line	00000000 .debug_line
00000000 l    d  .debug_line_str	00000000 .debug_line_str
00000000 l    d  .debug_info	00000000 .debug_info
00000000 l    d  .debug_abbrev	00000000 .debug_abbrev
00000000 l    d  .debug_aranges	00000000 .debug_aranges
00000000 l    d  .debug_str	00000000 .debug_str
00000000 l    d  .debug_rnglists	00000000 .debug_rnglists
00000000 l    df *ABS*	00000000 cc677uig.o
00000003 l       *ABS*	00000000 MMODE_SIG
00000001 l       *ABS*	00000000 SMODE_SIG
00000001 l       *ABS*	00000000 HMODE_SIG
00000002 l       *ABS*	00000000 VMODE_SIG
00020000 l       .text.rvmodel	00000000 rvmodel_boot
00000050 l       .text.rvtest	00000000 I_sub_cg_cp_rs1_b0
000044dc l       .text.rvtest	00000000 failedtest_x5_x4
00008d50 l       .data	00000000 I_sub_cg_cp_rs1_b0_str
0000007c l       .text.rvtest	00000000 I_sub_cg_cp_rs1_b1
00008d7d l       .data	00000000 I_sub_cg_cp_rs1_b1_str
000000ac l       .text.rvtest	00000000 I_sub_cg_cp_rs1_b2
00008daa l       .data	00000000 I_sub_cg_cp_rs1_b2_str
000000dc l       .text.rvtest	00000000 I_sub_cg_cp_rs1_b3
00008dd7 l       .data	00000000 I_sub_cg_cp_rs1_b3_str
00000110 l       .text.rvtest	00000000 I_sub_cg_cp_rs1_b4
0000451c l       .text.rvtest	00000000 failedtest_x14_x13
00008e04 l       .data	00000000 I_sub_cg_cp_rs1_b4_str
0000013c l       .text.rvtest	00000000 I_sub_cg_cp_rs1_b5
00008e31 l       .data	00000000 I_sub_cg_cp_rs1_b5_str
00000168 l       .text.rvtest	00000000 I_sub_cg_cp_rs1_b6
00008e5e l       .data	00000000 I_sub_cg_cp_rs1_b6_str
00000194 l       .text.rvtest	00000000 I_sub_cg_cp_rs1_b7
00008e8b l       .data	00000000 I_sub_cg_cp_rs1_b7_str
000001c0 l       .text.rvtest	00000000 I_sub_cg_cp_rs1_b8
00008eb8 l       .data	00000000 I_sub_cg_cp_rs1_b8_str
000001ec l       .text.rvtest	00000000 I_sub_cg_cp_rs1_b9
00008ee5 l       .data	00000000 I_sub_cg_cp_rs1_b9_str
00000218 l       .text.rvtest	00000000 I_sub_cg_cp_rs1_b10
00008f13 l       .data	00000000 I_sub_cg_cp_rs1_b10_str
00000244 l       .text.rvtest	00000000 I_sub_cg_cp_rs1_b11
00008f42 l       .data	00000000 I_sub_cg_cp_rs1_b11_str
00000270 l       .text.rvtest	00000000 I_sub_cg_cp_rs1_b12
00008f71 l       .data	00000000 I_sub_cg_cp_rs1_b12_str
000002a4 l       .text.rvtest	00000000 I_sub_cg_cp_rs1_b13
00008fa0 l       .data	00000000 I_sub_cg_cp_rs1_b13_str
000002d0 l       .text.rvtest	00000000 I_sub_cg_cp_rs1_b14
00008fcf l       .data	00000000 I_sub_cg_cp_rs1_b14_str
000002fc l       .text.rvtest	00000000 I_sub_cg_cp_rs1_b15
00008ffe l       .data	00000000 I_sub_cg_cp_rs1_b15_str
00000328 l       .text.rvtest	00000000 I_sub_cg_cp_rs1_b16
0000902d l       .data	00000000 I_sub_cg_cp_rs1_b16_str
00000354 l       .text.rvtest	00000000 I_sub_cg_cp_rs1_b17
0000905c l       .data	00000000 I_sub_cg_cp_rs1_b17_str
00000380 l       .text.rvtest	00000000 I_sub_cg_cp_rs1_b18
0000908b l       .data	00000000 I_sub_cg_cp_rs1_b18_str
000003ac l       .text.rvtest	00000000 I_sub_cg_cp_rs1_b19
000090ba l       .data	00000000 I_sub_cg_cp_rs1_b19_str
000003d8 l       .text.rvtest	00000000 I_sub_cg_cp_rs1_b20
000090e9 l       .data	00000000 I_sub_cg_cp_rs1_b20_str
00000404 l       .text.rvtest	00000000 I_sub_cg_cp_rs1_b21
00009118 l       .data	00000000 I_sub_cg_cp_rs1_b21_str
00000430 l       .text.rvtest	00000000 I_sub_cg_cp_rs1_b22
00009147 l       .data	00000000 I_sub_cg_cp_rs1_b22_str
0000045c l       .text.rvtest	00000000 I_sub_cg_cp_rs1_b23
00009176 l       .data	00000000 I_sub_cg_cp_rs1_b23_str
0000048c l       .text.rvtest	00000000 I_sub_cg_cp_rs1_b24
000091a5 l       .data	00000000 I_sub_cg_cp_rs1_b24_str
000004b8 l       .text.rvtest	00000000 I_sub_cg_cp_rs1_b25
000091d4 l       .data	00000000 I_sub_cg_cp_rs1_b25_str
000004e8 l       .text.rvtest	00000000 I_sub_cg_cp_rs1_b26
00009203 l       .data	00000000 I_sub_cg_cp_rs1_b26_str
00000518 l       .text.rvtest	00000000 I_sub_cg_cp_rs1_b27
00009232 l       .data	00000000 I_sub_cg_cp_rs1_b27_str
00000544 l       .text.rvtest	00000000 I_sub_cg_cp_rs1_b28
00009261 l       .data	00000000 I_sub_cg_cp_rs1_b28_str
00000574 l       .text.rvtest	00000000 I_sub_cg_cp_rs1_b29
00009290 l       .data	00000000 I_sub_cg_cp_rs1_b29_str
000005a0 l       .text.rvtest	00000000 I_sub_cg_cp_rs1_b30
000092bf l       .data	00000000 I_sub_cg_cp_rs1_b30_str
000005d0 l       .text.rvtest	00000000 I_sub_cg_cp_rs1_b31
000092ee l       .data	00000000 I_sub_cg_cp_rs1_b31_str
000005fc l       .text.rvtest	00000000 I_sub_cg_cp_rs2_b0
0000931d l       .data	00000000 I_sub_cg_cp_rs2_b0_str
00000628 l       .text.rvtest	00000000 I_sub_cg_cp_rs2_b1
0000934b l       .data	00000000 I_sub_cg_cp_rs2_b1_str
00000658 l       .text.rvtest	00000000 I_sub_cg_cp_rs2_b2
00009379 l       .data	00000000 I_sub_cg_cp_rs2_b2_str
00000684 l       .text.rvtest	00000000 I_sub_cg_cp_rs2_b3
000093a7 l       .data	00000000 I_sub_cg_cp_rs2_b3_str
000006b8 l       .text.rvtest	00000000 I_sub_cg_cp_rs2_b4
000044f4 l       .text.rvtest	00000000 failedtest_x8_x7
000093d5 l       .data	00000000 I_sub_cg_cp_rs2_b4_str
000006e4 l       .text.rvtest	00000000 I_sub_cg_cp_rs2_b5
00009403 l       .data	00000000 I_sub_cg_cp_rs2_b5_str
00000710 l       .text.rvtest	00000000 I_sub_cg_cp_rs2_b6
00009431 l       .data	00000000 I_sub_cg_cp_rs2_b6_str
00000744 l       .text.rvtest	00000000 I_sub_cg_cp_rs2_b7
0000945f l       .data	00000000 I_sub_cg_cp_rs2_b7_str
00000770 l       .text.rvtest	00000000 I_sub_cg_cp_rs2_b8
0000948d l       .data	00000000 I_sub_cg_cp_rs2_b8_str
0000079c l       .text.rvtest	00000000 I_sub_cg_cp_rs2_b9
000094bb l       .data	00000000 I_sub_cg_cp_rs2_b9_str
000007cc l       .text.rvtest	00000000 I_sub_cg_cp_rs2_b10
000094e9 l       .data	00000000 I_sub_cg_cp_rs2_b10_str
000007f8 l       .text.rvtest	00000000 I_sub_cg_cp_rs2_b11
00009518 l       .data	00000000 I_sub_cg_cp_rs2_b11_str
00000824 l       .text.rvtest	00000000 I_sub_cg_cp_rs2_b12
00009547 l       .data	00000000 I_sub_cg_cp_rs2_b12_str
00000858 l       .text.rvtest	00000000 I_sub_cg_cp_rs2_b13
00009576 l       .data	00000000 I_sub_cg_cp_rs2_b13_str
00000884 l       .text.rvtest	00000000 I_sub_cg_cp_rs2_b14
000095a5 l       .data	00000000 I_sub_cg_cp_rs2_b14_str
000008b0 l       .text.rvtest	00000000 I_sub_cg_cp_rs2_b15
000095d4 l       .data	00000000 I_sub_cg_cp_rs2_b15_str
000008dc l       .text.rvtest	00000000 I_sub_cg_cp_rs2_b16
00009603 l       .data	00000000 I_sub_cg_cp_rs2_b16_str
0000090c l       .text.rvtest	00000000 I_sub_cg_cp_rs2_b17
00009632 l       .data	00000000 I_sub_cg_cp_rs2_b17_str
00000938 l       .text.rvtest	00000000 I_sub_cg_cp_rs2_b18
00009661 l       .data	00000000 I_sub_cg_cp_rs2_b18_str
00000964 l       .text.rvtest	00000000 I_sub_cg_cp_rs2_b19
00009690 l       .data	00000000 I_sub_cg_cp_rs2_b19_str
00000990 l       .text.rvtest	00000000 I_sub_cg_cp_rs2_b20
000096bf l       .data	00000000 I_sub_cg_cp_rs2_b20_str
000009bc l       .text.rvtest	00000000 I_sub_cg_cp_rs2_b21
000096ee l       .data	00000000 I_sub_cg_cp_rs2_b21_str
000009ec l       .text.rvtest	00000000 I_sub_cg_cp_rs2_b22
0000971d l       .data	00000000 I_sub_cg_cp_rs2_b22_str
00000a18 l       .text.rvtest	00000000 I_sub_cg_cp_rs2_b23
0000974c l       .data	00000000 I_sub_cg_cp_rs2_b23_str
00000a44 l       .text.rvtest	00000000 I_sub_cg_cp_rs2_b24
0000977b l       .data	00000000 I_sub_cg_cp_rs2_b24_str
00000a74 l       .text.rvtest	00000000 I_sub_cg_cp_rs2_b25
000097aa l       .data	00000000 I_sub_cg_cp_rs2_b25_str
00000aa0 l       .text.rvtest	00000000 I_sub_cg_cp_rs2_b26
000097d9 l       .data	00000000 I_sub_cg_cp_rs2_b26_str
00000acc l       .text.rvtest	00000000 I_sub_cg_cp_rs2_b27
00009808 l       .data	00000000 I_sub_cg_cp_rs2_b27_str
00000af8 l       .text.rvtest	00000000 I_sub_cg_cp_rs2_b28
00009837 l       .data	00000000 I_sub_cg_cp_rs2_b28_str
00000b24 l       .text.rvtest	00000000 I_sub_cg_cp_rs2_b29
00009866 l       .data	00000000 I_sub_cg_cp_rs2_b29_str
00000b50 l       .text.rvtest	00000000 I_sub_cg_cp_rs2_b30
00009895 l       .data	00000000 I_sub_cg_cp_rs2_b30_str
00000b7c l       .text.rvtest	00000000 I_sub_cg_cp_rs2_b31
000098c4 l       .data	00000000 I_sub_cg_cp_rs2_b31_str
00000ba8 l       .text.rvtest	00000000 I_sub_cg_cp_rd_b0
000098f3 l       .data	00000000 I_sub_cg_cp_rd_b0_str
00000bd4 l       .text.rvtest	00000000 I_sub_cg_cp_rd_b1
00009920 l       .data	00000000 I_sub_cg_cp_rd_b1_str
00000c00 l       .text.rvtest	00000000 I_sub_cg_cp_rd_b2
0000994d l       .data	00000000 I_sub_cg_cp_rd_b2_str
00000c2c l       .text.rvtest	00000000 I_sub_cg_cp_rd_b3
0000997a l       .data	00000000 I_sub_cg_cp_rd_b3_str
00000c58 l       .text.rvtest	00000000 I_sub_cg_cp_rd_b4
000099a7 l       .data	00000000 I_sub_cg_cp_rd_b4_str
00000c84 l       .text.rvtest	00000000 I_sub_cg_cp_rd_b5
000099d4 l       .data	00000000 I_sub_cg_cp_rd_b5_str
00000cb0 l       .text.rvtest	00000000 I_sub_cg_cp_rd_b6
00009a01 l       .data	00000000 I_sub_cg_cp_rd_b6_str
00000ce4 l       .text.rvtest	00000000 I_sub_cg_cp_rd_b7
00009a2e l       .data	00000000 I_sub_cg_cp_rd_b7_str
00000d10 l       .text.rvtest	00000000 I_sub_cg_cp_rd_b8
00009a5b l       .data	00000000 I_sub_cg_cp_rd_b8_str
00000d3c l       .text.rvtest	00000000 I_sub_cg_cp_rd_b9
00009a88 l       .data	00000000 I_sub_cg_cp_rd_b9_str
00000d68 l       .text.rvtest	00000000 I_sub_cg_cp_rd_b10
00009ab5 l       .data	00000000 I_sub_cg_cp_rd_b10_str
00000d98 l       .text.rvtest	00000000 I_sub_cg_cp_rd_b11
00009ae3 l       .data	00000000 I_sub_cg_cp_rd_b11_str
00000dc4 l       .text.rvtest	00000000 I_sub_cg_cp_rd_b12
00009b11 l       .data	00000000 I_sub_cg_cp_rd_b12_str
00000df0 l       .text.rvtest	00000000 I_sub_cg_cp_rd_b13
00009b3f l       .data	00000000 I_sub_cg_cp_rd_b13_str
00000e1c l       .text.rvtest	00000000 I_sub_cg_cp_rd_b14
00009b6d l       .data	00000000 I_sub_cg_cp_rd_b14_str
00000e48 l       .text.rvtest	00000000 I_sub_cg_cp_rd_b15
00009b9b l       .data	00000000 I_sub_cg_cp_rd_b15_str
00000e74 l       .text.rvtest	00000000 I_sub_cg_cp_rd_b16
00009bc9 l       .data	00000000 I_sub_cg_cp_rd_b16_str
00000ea0 l       .text.rvtest	00000000 I_sub_cg_cp_rd_b17
00009bf7 l       .data	00000000 I_sub_cg_cp_rd_b17_str
00000ecc l       .text.rvtest	00000000 I_sub_cg_cp_rd_b18
00009c25 l       .data	00000000 I_sub_cg_cp_rd_b18_str
00000ef8 l       .text.rvtest	00000000 I_sub_cg_cp_rd_b19
00009c53 l       .data	00000000 I_sub_cg_cp_rd_b19_str
00000f24 l       .text.rvtest	00000000 I_sub_cg_cp_rd_b20
00009c81 l       .data	00000000 I_sub_cg_cp_rd_b20_str
00000f54 l       .text.rvtest	00000000 I_sub_cg_cp_rd_b21
00009caf l       .data	00000000 I_sub_cg_cp_rd_b21_str
00000f80 l       .text.rvtest	00000000 I_sub_cg_cp_rd_b22
00009cdd l       .data	00000000 I_sub_cg_cp_rd_b22_str
00000fb0 l       .text.rvtest	00000000 I_sub_cg_cp_rd_b23
00009d0b l       .data	00000000 I_sub_cg_cp_rd_b23_str
00000fdc l       .text.rvtest	00000000 I_sub_cg_cp_rd_b24
00009d39 l       .data	00000000 I_sub_cg_cp_rd_b24_str
00001008 l       .text.rvtest	00000000 I_sub_cg_cp_rd_b25
00009d67 l       .data	00000000 I_sub_cg_cp_rd_b25_str
00001034 l       .text.rvtest	00000000 I_sub_cg_cp_rd_b26
00009d95 l       .data	00000000 I_sub_cg_cp_rd_b26_str
00001060 l       .text.rvtest	00000000 I_sub_cg_cp_rd_b27
00009dc3 l       .data	00000000 I_sub_cg_cp_rd_b27_str
0000108c l       .text.rvtest	00000000 I_sub_cg_cp_rd_b28
00009df1 l       .data	00000000 I_sub_cg_cp_rd_b28_str
000010b8 l       .text.rvtest	00000000 I_sub_cg_cp_rd_b29
00009e1f l       .data	00000000 I_sub_cg_cp_rd_b29_str
000010e4 l       .text.rvtest	00000000 I_sub_cg_cp_rd_b30
00009e4d l       .data	00000000 I_sub_cg_cp_rd_b30_str
00001110 l       .text.rvtest	00000000 I_sub_cg_cp_rd_b31
00009e7b l       .data	00000000 I_sub_cg_cp_rd_b31_str
0000113c l       .text.rvtest	00000000 I_sub_cg_cp_rs1_edges_0x0
00009ea9 l       .data	00000000 I_sub_cg_cp_rs1_edges_0x0_str
00001168 l       .text.rvtest	00000000 I_sub_cg_cp_rs1_edges_0x1
00009ede l       .data	00000000 I_sub_cg_cp_rs1_edges_0x1_str
00001194 l       .text.rvtest	00000000 I_sub_cg_cp_rs1_edges_0x2
00009f13 l       .data	00000000 I_sub_cg_cp_rs1_edges_0x2_str
000011c0 l       .text.rvtest	00000000 I_sub_cg_cp_rs1_edges_0x80000000
00009f48 l       .data	00000000 I_sub_cg_cp_rs1_edges_0x80000000_str
000011ec l       .text.rvtest	00000000 I_sub_cg_cp_rs1_edges_0x80000001
00009f85 l       .data	00000000 I_sub_cg_cp_rs1_edges_0x80000001_str
00001218 l       .text.rvtest	00000000 I_sub_cg_cp_rs1_edges_0x7fffffff
00009fc2 l       .data	00000000 I_sub_cg_cp_rs1_edges_0x7fffffff_str
00001244 l       .text.rvtest	00000000 I_sub_cg_cp_rs1_edges_0x7ffffffe
00009fff l       .data	00000000 I_sub_cg_cp_rs1_edges_0x7ffffffe_str
00001270 l       .text.rvtest	00000000 I_sub_cg_cp_rs1_edges_0xffffffff
0000a03c l       .data	00000000 I_sub_cg_cp_rs1_edges_0xffffffff_str
0000129c l       .text.rvtest	00000000 I_sub_cg_cp_rs1_edges_0xfffffffe
0000a079 l       .data	00000000 I_sub_cg_cp_rs1_edges_0xfffffffe_str
000012c8 l       .text.rvtest	00000000 I_sub_cg_cp_rs1_edges_0x5bbc8872
0000a0b6 l       .data	00000000 I_sub_cg_cp_rs1_edges_0x5bbc8872_str
000012f4 l       .text.rvtest	00000000 I_sub_cg_cp_rs1_edges_0xaaaaaaaa
0000a0f3 l       .data	00000000 I_sub_cg_cp_rs1_edges_0xaaaaaaaa_str
00001320 l       .text.rvtest	00000000 I_sub_cg_cp_rs1_edges_0x55555555
0000a130 l       .data	00000000 I_sub_cg_cp_rs1_edges_0x55555555_str
0000134c l       .text.rvtest	00000000 I_sub_cg_cp_rs2_edges_0x0
0000a16d l       .data	00000000 I_sub_cg_cp_rs2_edges_0x0_str
00001378 l       .text.rvtest	00000000 I_sub_cg_cp_rs2_edges_0x1
0000a1a3 l       .data	00000000 I_sub_cg_cp_rs2_edges_0x1_str
000013a4 l       .text.rvtest	00000000 I_sub_cg_cp_rs2_edges_0x2
0000a1d9 l       .data	00000000 I_sub_cg_cp_rs2_edges_0x2_str
000013d0 l       .text.rvtest	00000000 I_sub_cg_cp_rs2_edges_0x80000000
0000a20f l       .data	00000000 I_sub_cg_cp_rs2_edges_0x80000000_str
000013fc l       .text.rvtest	00000000 I_sub_cg_cp_rs2_edges_0x80000001
0000a24c l       .data	00000000 I_sub_cg_cp_rs2_edges_0x80000001_str
00001428 l       .text.rvtest	00000000 I_sub_cg_cp_rs2_edges_0x7fffffff
0000a289 l       .data	00000000 I_sub_cg_cp_rs2_edges_0x7fffffff_str
00001454 l       .text.rvtest	00000000 I_sub_cg_cp_rs2_edges_0x7ffffffe
0000a2c6 l       .data	00000000 I_sub_cg_cp_rs2_edges_0x7ffffffe_str
00001480 l       .text.rvtest	00000000 I_sub_cg_cp_rs2_edges_0xffffffff
0000a303 l       .data	00000000 I_sub_cg_cp_rs2_edges_0xffffffff_str
000014ac l       .text.rvtest	00000000 I_sub_cg_cp_rs2_edges_0xfffffffe
0000a340 l       .data	00000000 I_sub_cg_cp_rs2_edges_0xfffffffe_str
000014d8 l       .text.rvtest	00000000 I_sub_cg_cp_rs2_edges_0x5bbc8872
0000a37d l       .data	00000000 I_sub_cg_cp_rs2_edges_0x5bbc8872_str
00001504 l       .text.rvtest	00000000 I_sub_cg_cp_rs2_edges_0xaaaaaaaa
0000a3ba l       .data	00000000 I_sub_cg_cp_rs2_edges_0xaaaaaaaa_str
00001530 l       .text.rvtest	00000000 I_sub_cg_cp_rs2_edges_0x55555555
0000a3f7 l       .data	00000000 I_sub_cg_cp_rs2_edges_0x55555555_str
0000155c l       .text.rvtest	00000000 I_sub_cg_cr_rs1_rs2_edges_rs1val_0x0_rs2val_0x0
0000a434 l       .data	00000000 I_sub_cg_cr_rs1_rs2_edges_rs1val_0x0_rs2val_0x0_str
00001588 l       .text.rvtest	00000000 I_sub_cg_cr_rs1_rs2_edges_rs1val_0x0_rs2val_0x1
0000a481 l       .data	00000000 I_sub_cg_cr_rs1_rs2_edges_rs1val_0x0_rs2val_0x1_str
000015b4 l       .text.rvtest	00000000 I_sub_cg_cr_rs1_rs2_edges_rs1val_0x0_rs2val_0x2
0000a4ce l       .data	00000000 I_sub_cg_cr_rs1_rs2_edges_rs1val_0x0_rs2val_0x2_str
000015e0 l       .text.rvtest	00000000 I_sub_cg_cr_rs1_rs2_edges_rs1val_0x0_rs2val_0x80000000
0000a51b l       .data	00000000 I_sub_cg_cr_rs1_rs2_edges_rs1val_0x0_rs2val_0x80000000_str
0000160c l       .text.rvtest	00000000 I_sub_cg_cr_rs1_rs2_edges_rs1val_0x0_rs2val_0x80000001
0000a56f l       .data	00000000 I_sub_cg_cr_rs1_rs2_edges_rs1val_0x0_rs2val_0x80000001_str
00001638 l       .text.rvtest	00000000 I_sub_cg_cr_rs1_rs2_edges_rs1val_0x0_rs2val_0x7fffffff
0000a5c3 l       .data	00000000 I_sub_cg_cr_rs1_rs2_edges_rs1val_0x0_rs2val_0x7fffffff_str
00001664 l       .text.rvtest	00000000 I_sub_cg_cr_rs1_rs2_edges_rs1val_0x0_rs2val_0x7ffffffe
0000a617 l       .data	00000000 I_sub_cg_cr_rs1_rs2_edges_rs1val_0x0_rs2val_0x7ffffffe_str
00001690 l       .text.rvtest	00000000 I_sub_cg_cr_rs1_rs2_edges_rs1val_0x0_rs2val_0xffffffff
0000a66b l       .data	00000000 I_sub_cg_cr_rs1_rs2_edges_rs1val_0x0_rs2val_0xffffffff_str
000016bc l       .text.rvtest	00000000 I_sub_cg_cr_rs1_rs2_edges_rs1val_0x0_rs2val_0xfffffffe
0000a6bf l       .data	00000000 I_sub_cg_cr_rs1_rs2_edges_rs1val_0x0_rs2val_0xfffffffe_str
000016e8 l       .text.rvtest	00000000 I_sub_cg_cr_rs1_rs2_edges_rs1val_0x0_rs2val_0x5bbc8872
0000a713 l       .data	00000000 I_sub_cg_cr_rs1_rs2_edges_rs1val_0x0_rs2val_0x5bbc8872_str
00001714 l       .text.rvtest	00000000 I_sub_cg_cr_rs1_rs2_edges_rs1val_0x0_rs2val_0xaaaaaaaa
0000a767 l       .data	00000000 I_sub_cg_cr_rs1_rs2_edges_rs1val_0x0_rs2val_0xaaaaaaaa_str
00001740 l       .text.rvtest	00000000 I_sub_cg_cr_rs1_rs2_edges_rs1val_0x0_rs2val_0x55555555
0000a7bb l       .data	00000000 I_sub_cg_cr_rs1_rs2_edges_rs1val_0x0_rs2val_0x55555555_str
0000176c l       .text.rvtest	00000000 I_sub_cg_cr_rs1_rs2_edges_rs1val_0x1_rs2val_0x0
0000a80f l       .data	00000000 I_sub_cg_cr_rs1_rs2_edges_rs1val_0x1_rs2val_0x0_str
00001798 l       .text.rvtest	00000000 I_sub_cg_cr_rs1_rs2_edges_rs1val_0x1_rs2val_0x1
0000a85c l       .data	00000000 I_sub_cg_cr_rs1_rs2_edges_rs1val_0x1_rs2val_0x1_str
000017c4 l       .text.rvtest	00000000 I_sub_cg_cr_rs1_rs2_edges_rs1val_0x1_rs2val_0x2
0000a8a9 l       .data	00000000 I_sub_cg_cr_rs1_rs2_edges_rs1val_0x1_rs2val_0x2_str
000017f0 l       .text.rvtest	00000000 I_sub_cg_cr_rs1_rs2_edges_rs1val_0x1_rs2val_0x80000000
0000a8f6 l       .data	00000000 I_sub_cg_cr_rs1_rs2_edges_rs1val_0x1_rs2val_0x80000000_str
0000181c l       .text.rvtest	00000000 I_sub_cg_cr_rs1_rs2_edges_rs1val_0x1_rs2val_0x80000001
0000a94a l       .data	00000000 I_sub_cg_cr_rs1_rs2_edges_rs1val_0x1_rs2val_0x80000001_str
00001848 l       .text.rvtest	00000000 I_sub_cg_cr_rs1_rs2_edges_rs1val_0x1_rs2val_0x7fffffff
0000a99e l       .data	00000000 I_sub_cg_cr_rs1_rs2_edges_rs1val_0x1_rs2val_0x7fffffff_str
00001874 l       .text.rvtest	00000000 I_sub_cg_cr_rs1_rs2_edges_rs1val_0x1_rs2val_0x7ffffffe
0000a9f2 l       .data	00000000 I_sub_cg_cr_rs1_rs2_edges_rs1val_0x1_rs2val_0x7ffffffe_str
000018a0 l       .text.rvtest	00000000 I_sub_cg_cr_rs1_rs2_edges_rs1val_0x1_rs2val_0xffffffff
0000aa46 l       .data	00000000 I_sub_cg_cr_rs1_rs2_edges_rs1val_0x1_rs2val_0xffffffff_str
000018cc l       .text.rvtest	00000000 I_sub_cg_cr_rs1_rs2_edges_rs1val_0x1_rs2val_0xfffffffe
0000aa9a l       .data	00000000 I_sub_cg_cr_rs1_rs2_edges_rs1val_0x1_rs2val_0xfffffffe_str
000018f8 l       .text.rvtest	00000000 I_sub_cg_cr_rs1_rs2_edges_rs1val_0x1_rs2val_0x5bbc8872
0000aaee l       .data	00000000 I_sub_cg_cr_rs1_rs2_edges_rs1val_0x1_rs2val_0x5bbc8872_str
00001924 l       .text.rvtest	00000000 I_sub_cg_cr_rs1_rs2_edges_rs1val_0x1_rs2val_0xaaaaaaaa
0000ab42 l       .data	00000000 I_sub_cg_cr_rs1_rs2_edges_rs1val_0x1_rs2val_0xaaaaaaaa_str
00001950 l       .text.rvtest	00000000 I_sub_cg_cr_rs1_rs2_edges_rs1val_0x1_rs2val_0x55555555
0000ab96 l       .data	00000000 I_sub_cg_cr_rs1_rs2_edges_rs1val_0x1_rs2val_0x55555555_str
0000197c l       .text.rvtest	00000000 I_sub_cg_cr_rs1_rs2_edges_rs1val_0x2_rs2val_0x0
0000abea l       .data	00000000 I_sub_cg_cr_rs1_rs2_edges_rs1val_0x2_rs2val_0x0_str
000019a8 l       .text.rvtest	00000000 I_sub_cg_cr_rs1_rs2_edges_rs1val_0x2_rs2val_0x1
0000ac37 l       .data	00000000 I_sub_cg_cr_rs1_rs2_edges_rs1val_0x2_rs2val_0x1_str
000019d4 l       .text.rvtest	00000000 I_sub_cg_cr_rs1_rs2_edges_rs1val_0x2_rs2val_0x2
0000ac84 l       .data	00000000 I_sub_cg_cr_rs1_rs2_edges_rs1val_0x2_rs2val_0x2_str
00001a00 l       .text.rvtest	00000000 I_sub_cg_cr_rs1_rs2_edges_rs1val_0x2_rs2val_0x80000000
0000acd1 l       .data	00000000 I_sub_cg_cr_rs1_rs2_edges_rs1val_0x2_rs2val_0x80000000_str
00001a2c l       .text.rvtest	00000000 I_sub_cg_cr_rs1_rs2_edges_rs1val_0x2_rs2val_0x80000001
0000ad25 l       .data	00000000 I_sub_cg_cr_rs1_rs2_edges_rs1val_0x2_rs2val_0x80000001_str
00001a58 l       .text.rvtest	00000000 I_sub_cg_cr_rs1_rs2_edges_rs1val_0x2_rs2val_0x7fffffff
0000ad79 l       .data	00000000 I_sub_cg_cr_rs1_rs2_edges_rs1val_0x2_rs2val_0x7fffffff_str
00001a84 l       .text.rvtest	00000000 I_sub_cg_cr_rs1_rs2_edges_rs1val_0x2_rs2val_0x7ffffffe
0000adcd l       .data	00000000 I_sub_cg_cr_rs1_rs2_edges_rs1val_0x2_rs2val_0x7ffffffe_str
00001ab0 l       .text.rvtest	00000000 I_sub_cg_cr_rs1_rs2_edges_rs1val_0x2_rs2val_0xffffffff
0000ae21 l       .data	00000000 I_sub_cg_cr_rs1_rs2_edges_rs1val_0x2_rs2val_0xffffffff_str
00001adc l       .text.rvtest	00000000 I_sub_cg_cr_rs1_rs2_edges_rs1val_0x2_rs2val_0xfffffffe
0000ae75 l       .data	00000000 I_sub_cg_cr_rs1_rs2_edges_rs1val_0x2_rs2val_0xfffffffe_str
00001b08 l       .text.rvtest	00000000 I_sub_cg_cr_rs1_rs2_edges_rs1val_0x2_rs2val_0x5bbc8872
0000aec9 l       .data	00000000 I_sub_cg_cr_rs1_rs2_edges_rs1val_0x2_rs2val_0x5bbc8872_str
00001b34 l       .text.rvtest	00000000 I_sub_cg_cr_rs1_rs2_edges_rs1val_0x2_rs2val_0xaaaaaaaa
0000af1d l       .data	00000000 I_sub_cg_cr_rs1_rs2_edges_rs1val_0x2_rs2val_0xaaaaaaaa_str
00001b60 l       .text.rvtest	00000000 I_sub_cg_cr_rs1_rs2_edges_rs1val_0x2_rs2val_0x55555555
0000af71 l       .data	00000000 I_sub_cg_cr_rs1_rs2_edges_rs1val_0x2_rs2val_0x55555555_str
00001b8c l       .text.rvtest	00000000 I_sub_cg_cr_rs1_rs2_edges_rs1val_0x80000000_rs2val_0x0
0000afc5 l       .data	00000000 I_sub_cg_cr_rs1_rs2_edges_rs1val_0x80000000_rs2val_0x0_str
00001bb8 l       .text.rvtest	00000000 I_sub_cg_cr_rs1_rs2_edges_rs1val_0x80000000_rs2val_0x1
0000b019 l       .data	00000000 I_sub_cg_cr_rs1_rs2_edges_rs1val_0x80000000_rs2val_0x1_str
00001be4 l       .text.rvtest	00000000 I_sub_cg_cr_rs1_rs2_edges_rs1val_0x80000000_rs2val_0x2
0000b06d l       .data	00000000 I_sub_cg_cr_rs1_rs2_edges_rs1val_0x80000000_rs2val_0x2_str
00001c10 l       .text.rvtest	00000000 I_sub_cg_cr_rs1_rs2_edges_rs1val_0x80000000_rs2val_0x80000000
0000b0c1 l       .data	00000000 I_sub_cg_cr_rs1_rs2_edges_rs1val_0x80000000_rs2val_0x80000000_str
00001c3c l       .text.rvtest	00000000 I_sub_cg_cr_rs1_rs2_edges_rs1val_0x80000000_rs2val_0x80000001
0000b11c l       .data	00000000 I_sub_cg_cr_rs1_rs2_edges_rs1val_0x80000000_rs2val_0x80000001_str
00001c68 l       .text.rvtest	00000000 I_sub_cg_cr_rs1_rs2_edges_rs1val_0x80000000_rs2val_0x7fffffff
0000b177 l       .data	00000000 I_sub_cg_cr_rs1_rs2_edges_rs1val_0x80000000_rs2val_0x7fffffff_str
00001c94 l       .text.rvtest	00000000 I_sub_cg_cr_rs1_rs2_edges_rs1val_0x80000000_rs2val_0x7ffffffe
0000b1d2 l       .data	00000000 I_sub_cg_cr_rs1_rs2_edges_rs1val_0x80000000_rs2val_0x7ffffffe_str
00001cc0 l       .text.rvtest	00000000 I_sub_cg_cr_rs1_rs2_edges_rs1val_0x80000000_rs2val_0xffffffff
0000b22d l       .data	00000000 I_sub_cg_cr_rs1_rs2_edges_rs1val_0x80000000_rs2val_0xffffffff_str
00001cec l       .text.rvtest	00000000 I_sub_cg_cr_rs1_rs2_edges_rs1val_0x80000000_rs2val_0xfffffffe
0000b288 l       .data	00000000 I_sub_cg_cr_rs1_rs2_edges_rs1val_0x80000000_rs2val_0xfffffffe_str
00001d18 l       .text.rvtest	00000000 I_sub_cg_cr_rs1_rs2_edges_rs1val_0x80000000_rs2val_0x5bbc8872
0000b2e3 l       .data	00000000 I_sub_cg_cr_rs1_rs2_edges_rs1val_0x80000000_rs2val_0x5bbc8872_str
00001d44 l       .text.rvtest	00000000 I_sub_cg_cr_rs1_rs2_edges_rs1val_0x80000000_rs2val_0xaaaaaaaa
0000b33e l       .data	00000000 I_sub_cg_cr_rs1_rs2_edges_rs1val_0x80000000_rs2val_0xaaaaaaaa_str
00001d70 l       .text.rvtest	00000000 I_sub_cg_cr_rs1_rs2_edges_rs1val_0x80000000_rs2val_0x55555555
0000b399 l       .data	00000000 I_sub_cg_cr_rs1_rs2_edges_rs1val_0x80000000_rs2val_0x55555555_str
00001d9c l       .text.rvtest	00000000 I_sub_cg_cr_rs1_rs2_edges_rs1val_0x80000001_rs2val_0x0
0000b3f4 l       .data	00000000 I_sub_cg_cr_rs1_rs2_edges_rs1val_0x80000001_rs2val_0x0_str
00001dc8 l       .text.rvtest	00000000 I_sub_cg_cr_rs1_rs2_edges_rs1val_0x80000001_rs2val_0x1
0000b448 l       .data	00000000 I_sub_cg_cr_rs1_rs2_edges_rs1val_0x80000001_rs2val_0x1_str
00001df4 l       .text.rvtest	00000000 I_sub_cg_cr_rs1_rs2_edges_rs1val_0x80000001_rs2val_0x2
0000b49c l       .data	00000000 I_sub_cg_cr_rs1_rs2_edges_rs1val_0x80000001_rs2val_0x2_str
00001e20 l       .text.rvtest	00000000 I_sub_cg_cr_rs1_rs2_edges_rs1val_0x80000001_rs2val_0x80000000
0000b4f0 l       .data	00000000 I_sub_cg_cr_rs1_rs2_edges_rs1val_0x80000001_rs2val_0x80000000_str
00001e4c l       .text.rvtest	00000000 I_sub_cg_cr_rs1_rs2_edges_rs1val_0x80000001_rs2val_0x80000001
0000b54b l       .data	00000000 I_sub_cg_cr_rs1_rs2_edges_rs1val_0x80000001_rs2val_0x80000001_str
00001e78 l       .text.rvtest	00000000 I_sub_cg_cr_rs1_rs2_edges_rs1val_0x80000001_rs2val_0x7fffffff
0000b5a6 l       .data	00000000 I_sub_cg_cr_rs1_rs2_edges_rs1val_0x80000001_rs2val_0x7fffffff_str
00001ea4 l       .text.rvtest	00000000 I_sub_cg_cr_rs1_rs2_edges_rs1val_0x80000001_rs2val_0x7ffffffe
0000b601 l       .data	00000000 I_sub_cg_cr_rs1_rs2_edges_rs1val_0x80000001_rs2val_0x7ffffffe_str
00001ed0 l       .text.rvtest	00000000 I_sub_cg_cr_rs1_rs2_edges_rs1val_0x80000001_rs2val_0xffffffff
0000b65c l       .data	00000000 I_sub_cg_cr_rs1_rs2_edges_rs1val_0x80000001_rs2val_0xffffffff_str
00001efc l       .text.rvtest	00000000 I_sub_cg_cr_rs1_rs2_edges_rs1val_0x80000001_rs2val_0xfffffffe
0000b6b7 l       .data	00000000 I_sub_cg_cr_rs1_rs2_edges_rs1val_0x80000001_rs2val_0xfffffffe_str
00001f28 l       .text.rvtest	00000000 I_sub_cg_cr_rs1_rs2_edges_rs1val_0x80000001_rs2val_0x5bbc8872
0000b712 l       .data	00000000 I_sub_cg_cr_rs1_rs2_edges_rs1val_0x80000001_rs2val_0x5bbc8872_str
00001f54 l       .text.rvtest	00000000 I_sub_cg_cr_rs1_rs2_edges_rs1val_0x80000001_rs2val_0xaaaaaaaa
0000b76d l       .data	00000000 I_sub_cg_cr_rs1_rs2_edges_rs1val_0x80000001_rs2val_0xaaaaaaaa_str
00001f80 l       .text.rvtest	00000000 I_sub_cg_cr_rs1_rs2_edges_rs1val_0x80000001_rs2val_0x55555555
0000b7c8 l       .data	00000000 I_sub_cg_cr_rs1_rs2_edges_rs1val_0x80000001_rs2val_0x55555555_str
00001fac l       .text.rvtest	00000000 I_sub_cg_cr_rs1_rs2_edges_rs1val_0x7fffffff_rs2val_0x0
0000b823 l       .data	00000000 I_sub_cg_cr_rs1_rs2_edges_rs1val_0x7fffffff_rs2val_0x0_str
00001fd8 l       .text.rvtest	00000000 I_sub_cg_cr_rs1_rs2_edges_rs1val_0x7fffffff_rs2val_0x1
0000b877 l       .data	00000000 I_sub_cg_cr_rs1_rs2_edges_rs1val_0x7fffffff_rs2val_0x1_str
00002004 l       .text.rvtest	00000000 I_sub_cg_cr_rs1_rs2_edges_rs1val_0x7fffffff_rs2val_0x2
0000b8cb l       .data	00000000 I_sub_cg_cr_rs1_rs2_edges_rs1val_0x7fffffff_rs2val_0x2_str
00002030 l       .text.rvtest	00000000 I_sub_cg_cr_rs1_rs2_edges_rs1val_0x7fffffff_rs2val_0x80000000
0000b91f l       .data	00000000 I_sub_cg_cr_rs1_rs2_edges_rs1val_0x7fffffff_rs2val_0x80000000_str
0000205c l       .text.rvtest	00000000 I_sub_cg_cr_rs1_rs2_edges_rs1val_0x7fffffff_rs2val_0x80000001
0000b97a l       .data	00000000 I_sub_cg_cr_rs1_rs2_edges_rs1val_0x7fffffff_rs2val_0x80000001_str
00002088 l       .text.rvtest	00000000 I_sub_cg_cr_rs1_rs2_edges_rs1val_0x7fffffff_rs2val_0x7fffffff
0000b9d5 l       .data	00000000 I_sub_cg_cr_rs1_rs2_edges_rs1val_0x7fffffff_rs2val_0x7fffffff_str
000020b4 l       .text.rvtest	00000000 I_sub_cg_cr_rs1_rs2_edges_rs1val_0x7fffffff_rs2val_0x7ffffffe
0000ba30 l       .data	00000000 I_sub_cg_cr_rs1_rs2_edges_rs1val_0x7fffffff_rs2val_0x7ffffffe_str
000020e0 l       .text.rvtest	00000000 I_sub_cg_cr_rs1_rs2_edges_rs1val_0x7fffffff_rs2val_0xffffffff
0000ba8b l       .data	00000000 I_sub_cg_cr_rs1_rs2_edges_rs1val_0x7fffffff_rs2val_0xffffffff_str
0000210c l       .text.rvtest	00000000 I_sub_cg_cr_rs1_rs2_edges_rs1val_0x7fffffff_rs2val_0xfffffffe
0000bae6 l       .data	00000000 I_sub_cg_cr_rs1_rs2_edges_rs1val_0x7fffffff_rs2val_0xfffffffe_str
00002138 l       .text.rvtest	00000000 I_sub_cg_cr_rs1_rs2_edges_rs1val_0x7fffffff_rs2val_0x5bbc8872
0000bb41 l       .data	00000000 I_sub_cg_cr_rs1_rs2_edges_rs1val_0x7fffffff_rs2val_0x5bbc8872_str
00002164 l       .text.rvtest	00000000 I_sub_cg_cr_rs1_rs2_edges_rs1val_0x7fffffff_rs2val_0xaaaaaaaa
0000bb9c l       .data	00000000 I_sub_cg_cr_rs1_rs2_edges_rs1val_0x7fffffff_rs2val_0xaaaaaaaa_str
00002190 l       .text.rvtest	00000000 I_sub_cg_cr_rs1_rs2_edges_rs1val_0x7fffffff_rs2val_0x55555555
0000bbf7 l       .data	00000000 I_sub_cg_cr_rs1_rs2_edges_rs1val_0x7fffffff_rs2val_0x55555555_str
000021bc l       .text.rvtest	00000000 I_sub_cg_cr_rs1_rs2_edges_rs1val_0x7ffffffe_rs2val_0x0
0000bc52 l       .data	00000000 I_sub_cg_cr_rs1_rs2_edges_rs1val_0x7ffffffe_rs2val_0x0_str
000021e8 l       .text.rvtest	00000000 I_sub_cg_cr_rs1_rs2_edges_rs1val_0x7ffffffe_rs2val_0x1
0000bca6 l       .data	00000000 I_sub_cg_cr_rs1_rs2_edges_rs1val_0x7ffffffe_rs2val_0x1_str
00002214 l       .text.rvtest	00000000 I_sub_cg_cr_rs1_rs2_edges_rs1val_0x7ffffffe_rs2val_0x2
0000bcfa l       .data	00000000 I_sub_cg_cr_rs1_rs2_edges_rs1val_0x7ffffffe_rs2val_0x2_str
00002240 l       .text.rvtest	00000000 I_sub_cg_cr_rs1_rs2_edges_rs1val_0x7ffffffe_rs2val_0x80000000
0000bd4e l       .data	00000000 I_sub_cg_cr_rs1_rs2_edges_rs1val_0x7ffffffe_rs2val_0x80000000_str
0000226c l       .text.rvtest	00000000 I_sub_cg_cr_rs1_rs2_edges_rs1val_0x7ffffffe_rs2val_0x80000001
0000bda9 l       .data	00000000 I_sub_cg_cr_rs1_rs2_edges_rs1val_0x7ffffffe_rs2val_0x80000001_str
00002298 l       .text.rvtest	00000000 I_sub_cg_cr_rs1_rs2_edges_rs1val_0x7ffffffe_rs2val_0x7fffffff
0000be04 l       .data	00000000 I_sub_cg_cr_rs1_rs2_edges_rs1val_0x7ffffffe_rs2val_0x7fffffff_str
000022c4 l       .text.rvtest	00000000 I_sub_cg_cr_rs1_rs2_edges_rs1val_0x7ffffffe_rs2val_0x7ffffffe
0000be5f l       .data	00000000 I_sub_cg_cr_rs1_rs2_edges_rs1val_0x7ffffffe_rs2val_0x7ffffffe_str
000022f0 l       .text.rvtest	00000000 I_sub_cg_cr_rs1_rs2_edges_rs1val_0x7ffffffe_rs2val_0xffffffff
0000beba l       .data	00000000 I_sub_cg_cr_rs1_rs2_edges_rs1val_0x7ffffffe_rs2val_0xffffffff_str
0000231c l       .text.rvtest	00000000 I_sub_cg_cr_rs1_rs2_edges_rs1val_0x7ffffffe_rs2val_0xfffffffe
0000bf15 l       .data	00000000 I_sub_cg_cr_rs1_rs2_edges_rs1val_0x7ffffffe_rs2val_0xfffffffe_str
00002348 l       .text.rvtest	00000000 I_sub_cg_cr_rs1_rs2_edges_rs1val_0x7ffffffe_rs2val_0x5bbc8872
0000bf70 l       .data	00000000 I_sub_cg_cr_rs1_rs2_edges_rs1val_0x7ffffffe_rs2val_0x5bbc8872_str
00002374 l       .text.rvtest	00000000 I_sub_cg_cr_rs1_rs2_edges_rs1val_0x7ffffffe_rs2val_0xaaaaaaaa
0000bfcb l       .data	00000000 I_sub_cg_cr_rs1_rs2_edges_rs1val_0x7ffffffe_rs2val_0xaaaaaaaa_str
000023a0 l       .text.rvtest	00000000 I_sub_cg_cr_rs1_rs2_edges_rs1val_0x7ffffffe_rs2val_0x55555555
0000c026 l       .data	00000000 I_sub_cg_cr_rs1_rs2_edges_rs1val_0x7ffffffe_rs2val_0x55555555_str
000023cc l       .text.rvtest	00000000 I_sub_cg_cr_rs1_rs2_edges_rs1val_0xffffffff_rs2val_0x0
0000c081 l       .data	00000000 I_sub_cg_cr_rs1_rs2_edges_rs1val_0xffffffff_rs2val_0x0_str
000023f8 l       .text.rvtest	00000000 I_sub_cg_cr_rs1_rs2_edges_rs1val_0xffffffff_rs2val_0x1
0000c0d5 l       .data	00000000 I_sub_cg_cr_rs1_rs2_edges_rs1val_0xffffffff_rs2val_0x1_str
00002424 l       .text.rvtest	00000000 I_sub_cg_cr_rs1_rs2_edges_rs1val_0xffffffff_rs2val_0x2
0000c129 l       .data	00000000 I_sub_cg_cr_rs1_rs2_edges_rs1val_0xffffffff_rs2val_0x2_str
00002450 l       .text.rvtest	00000000 I_sub_cg_cr_rs1_rs2_edges_rs1val_0xffffffff_rs2val_0x80000000
0000c17d l       .data	00000000 I_sub_cg_cr_rs1_rs2_edges_rs1val_0xffffffff_rs2val_0x80000000_str
0000247c l       .text.rvtest	00000000 I_sub_cg_cr_rs1_rs2_edges_rs1val_0xffffffff_rs2val_0x80000001
0000c1d8 l       .data	00000000 I_sub_cg_cr_rs1_rs2_edges_rs1val_0xffffffff_rs2val_0x80000001_str
000024a8 l       .text.rvtest	00000000 I_sub_cg_cr_rs1_rs2_edges_rs1val_0xffffffff_rs2val_0x7fffffff
0000c233 l       .data	00000000 I_sub_cg_cr_rs1_rs2_edges_rs1val_0xffffffff_rs2val_0x7fffffff_str
000024d4 l       .text.rvtest	00000000 I_sub_cg_cr_rs1_rs2_edges_rs1val_0xffffffff_rs2val_0x7ffffffe
0000c28e l       .data	00000000 I_sub_cg_cr_rs1_rs2_edges_rs1val_0xffffffff_rs2val_0x7ffffffe_str
00002500 l       .text.rvtest	00000000 I_sub_cg_cr_rs1_rs2_edges_rs1val_0xffffffff_rs2val_0xffffffff
0000c2e9 l       .data	00000000 I_sub_cg_cr_rs1_rs2_edges_rs1val_0xffffffff_rs2val_0xffffffff_str
0000252c l       .text.rvtest	00000000 I_sub_cg_cr_rs1_rs2_edges_rs1val_0xffffffff_rs2val_0xfffffffe
0000c344 l       .data	00000000 I_sub_cg_cr_rs1_rs2_edges_rs1val_0xffffffff_rs2val_0xfffffffe_str
00002558 l       .text.rvtest	00000000 I_sub_cg_cr_rs1_rs2_edges_rs1val_0xffffffff_rs2val_0x5bbc8872
0000c39f l       .data	00000000 I_sub_cg_cr_rs1_rs2_edges_rs1val_0xffffffff_rs2val_0x5bbc8872_str
00002584 l       .text.rvtest	00000000 I_sub_cg_cr_rs1_rs2_edges_rs1val_0xffffffff_rs2val_0xaaaaaaaa
0000c3fa l       .data	00000000 I_sub_cg_cr_rs1_rs2_edges_rs1val_0xffffffff_rs2val_0xaaaaaaaa_str
000025b0 l       .text.rvtest	00000000 I_sub_cg_cr_rs1_rs2_edges_rs1val_0xffffffff_rs2val_0x55555555
0000c455 l       .data	00000000 I_sub_cg_cr_rs1_rs2_edges_rs1val_0xffffffff_rs2val_0x55555555_str
000025dc l       .text.rvtest	00000000 I_sub_cg_cr_rs1_rs2_edges_rs1val_0xfffffffe_rs2val_0x0
0000c4b0 l       .data	00000000 I_sub_cg_cr_rs1_rs2_edges_rs1val_0xfffffffe_rs2val_0x0_str
00002608 l       .text.rvtest	00000000 I_sub_cg_cr_rs1_rs2_edges_rs1val_0xfffffffe_rs2val_0x1
0000c504 l       .data	00000000 I_sub_cg_cr_rs1_rs2_edges_rs1val_0xfffffffe_rs2val_0x1_str
00002634 l       .text.rvtest	00000000 I_sub_cg_cr_rs1_rs2_edges_rs1val_0xfffffffe_rs2val_0x2
0000c558 l       .data	00000000 I_sub_cg_cr_rs1_rs2_edges_rs1val_0xfffffffe_rs2val_0x2_str
00002660 l       .text.rvtest	00000000 I_sub_cg_cr_rs1_rs2_edges_rs1val_0xfffffffe_rs2val_0x80000000
0000c5ac l       .data	00000000 I_sub_cg_cr_rs1_rs2_edges_rs1val_0xfffffffe_rs2val_0x80000000_str
0000268c l       .text.rvtest	00000000 I_sub_cg_cr_rs1_rs2_edges_rs1val_0xfffffffe_rs2val_0x80000001
0000c607 l       .data	00000000 I_sub_cg_cr_rs1_rs2_edges_rs1val_0xfffffffe_rs2val_0x80000001_str
000026b8 l       .text.rvtest	00000000 I_sub_cg_cr_rs1_rs2_edges_rs1val_0xfffffffe_rs2val_0x7fffffff
0000c662 l       .data	00000000 I_sub_cg_cr_rs1_rs2_edges_rs1val_0xfffffffe_rs2val_0x7fffffff_str
000026e4 l       .text.rvtest	00000000 I_sub_cg_cr_rs1_rs2_edges_rs1val_0xfffffffe_rs2val_0x7ffffffe
0000c6bd l       .data	00000000 I_sub_cg_cr_rs1_rs2_edges_rs1val_0xfffffffe_rs2val_0x7ffffffe_str
00002710 l       .text.rvtest	00000000 I_sub_cg_cr_rs1_rs2_edges_rs1val_0xfffffffe_rs2val_0xffffffff
0000c718 l       .data	00000000 I_sub_cg_cr_rs1_rs2_edges_rs1val_0xfffffffe_rs2val_0xffffffff_str
0000273c l       .text.rvtest	00000000 I_sub_cg_cr_rs1_rs2_edges_rs1val_0xfffffffe_rs2val_0xfffffffe
0000c773 l       .data	00000000 I_sub_cg_cr_rs1_rs2_edges_rs1val_0xfffffffe_rs2val_0xfffffffe_str
00002768 l       .text.rvtest	00000000 I_sub_cg_cr_rs1_rs2_edges_rs1val_0xfffffffe_rs2val_0x5bbc8872
0000c7ce l       .data	00000000 I_sub_cg_cr_rs1_rs2_edges_rs1val_0xfffffffe_rs2val_0x5bbc8872_str
00002794 l       .text.rvtest	00000000 I_sub_cg_cr_rs1_rs2_edges_rs1val_0xfffffffe_rs2val_0xaaaaaaaa
0000c829 l       .data	00000000 I_sub_cg_cr_rs1_rs2_edges_rs1val_0xfffffffe_rs2val_0xaaaaaaaa_str
000027c0 l       .text.rvtest	00000000 I_sub_cg_cr_rs1_rs2_edges_rs1val_0xfffffffe_rs2val_0x55555555
0000c884 l       .data	00000000 I_sub_cg_cr_rs1_rs2_edges_rs1val_0xfffffffe_rs2val_0x55555555_str
000027ec l       .text.rvtest	00000000 I_sub_cg_cr_rs1_rs2_edges_rs1val_0x5bbc8872_rs2val_0x0
0000c8df l       .data	00000000 I_sub_cg_cr_rs1_rs2_edges_rs1val_0x5bbc8872_rs2val_0x0_str
00002818 l       .text.rvtest	00000000 I_sub_cg_cr_rs1_rs2_edges_rs1val_0x5bbc8872_rs2val_0x1
0000c933 l       .data	00000000 I_sub_cg_cr_rs1_rs2_edges_rs1val_0x5bbc8872_rs2val_0x1_str
00002844 l       .text.rvtest	00000000 I_sub_cg_cr_rs1_rs2_edges_rs1val_0x5bbc8872_rs2val_0x2
0000c987 l       .data	00000000 I_sub_cg_cr_rs1_rs2_edges_rs1val_0x5bbc8872_rs2val_0x2_str
00002870 l       .text.rvtest	00000000 I_sub_cg_cr_rs1_rs2_edges_rs1val_0x5bbc8872_rs2val_0x80000000
0000c9db l       .data	00000000 I_sub_cg_cr_rs1_rs2_edges_rs1val_0x5bbc8872_rs2val_0x80000000_str
0000289c l       .text.rvtest	00000000 I_sub_cg_cr_rs1_rs2_edges_rs1val_0x5bbc8872_rs2val_0x80000001
0000ca36 l       .data	00000000 I_sub_cg_cr_rs1_rs2_edges_rs1val_0x5bbc8872_rs2val_0x80000001_str
000028c8 l       .text.rvtest	00000000 I_sub_cg_cr_rs1_rs2_edges_rs1val_0x5bbc8872_rs2val_0x7fffffff
0000ca91 l       .data	00000000 I_sub_cg_cr_rs1_rs2_edges_rs1val_0x5bbc8872_rs2val_0x7fffffff_str
000028f4 l       .text.rvtest	00000000 I_sub_cg_cr_rs1_rs2_edges_rs1val_0x5bbc8872_rs2val_0x7ffffffe
0000caec l       .data	00000000 I_sub_cg_cr_rs1_rs2_edges_rs1val_0x5bbc8872_rs2val_0x7ffffffe_str
00002920 l       .text.rvtest	00000000 I_sub_cg_cr_rs1_rs2_edges_rs1val_0x5bbc8872_rs2val_0xffffffff
0000cb47 l       .data	00000000 I_sub_cg_cr_rs1_rs2_edges_rs1val_0x5bbc8872_rs2val_0xffffffff_str
0000294c l       .text.rvtest	00000000 I_sub_cg_cr_rs1_rs2_edges_rs1val_0x5bbc8872_rs2val_0xfffffffe
0000cba2 l       .data	00000000 I_sub_cg_cr_rs1_rs2_edges_rs1val_0x5bbc8872_rs2val_0xfffffffe_str
00002978 l       .text.rvtest	00000000 I_sub_cg_cr_rs1_rs2_edges_rs1val_0x5bbc8872_rs2val_0x5bbc8872
0000cbfd l       .data	00000000 I_sub_cg_cr_rs1_rs2_edges_rs1val_0x5bbc8872_rs2val_0x5bbc8872_str
000029a4 l       .text.rvtest	00000000 I_sub_cg_cr_rs1_rs2_edges_rs1val_0x5bbc8872_rs2val_0xaaaaaaaa
0000cc58 l       .data	00000000 I_sub_cg_cr_rs1_rs2_edges_rs1val_0x5bbc8872_rs2val_0xaaaaaaaa_str
000029d0 l       .text.rvtest	00000000 I_sub_cg_cr_rs1_rs2_edges_rs1val_0x5bbc8872_rs2val_0x55555555
0000ccb3 l       .data	00000000 I_sub_cg_cr_rs1_rs2_edges_rs1val_0x5bbc8872_rs2val_0x55555555_str
000029fc l       .text.rvtest	00000000 I_sub_cg_cr_rs1_rs2_edges_rs1val_0xaaaaaaaa_rs2val_0x0
0000cd0e l       .data	00000000 I_sub_cg_cr_rs1_rs2_edges_rs1val_0xaaaaaaaa_rs2val_0x0_str
00002a28 l       .text.rvtest	00000000 I_sub_cg_cr_rs1_rs2_edges_rs1val_0xaaaaaaaa_rs2val_0x1
0000cd62 l       .data	00000000 I_sub_cg_cr_rs1_rs2_edges_rs1val_0xaaaaaaaa_rs2val_0x1_str
00002a54 l       .text.rvtest	00000000 I_sub_cg_cr_rs1_rs2_edges_rs1val_0xaaaaaaaa_rs2val_0x2
0000cdb6 l       .data	00000000 I_sub_cg_cr_rs1_rs2_edges_rs1val_0xaaaaaaaa_rs2val_0x2_str
00002a80 l       .text.rvtest	00000000 I_sub_cg_cr_rs1_rs2_edges_rs1val_0xaaaaaaaa_rs2val_0x80000000
0000ce0a l       .data	00000000 I_sub_cg_cr_rs1_rs2_edges_rs1val_0xaaaaaaaa_rs2val_0x80000000_str
00002aac l       .text.rvtest	00000000 I_sub_cg_cr_rs1_rs2_edges_rs1val_0xaaaaaaaa_rs2val_0x80000001
0000ce65 l       .data	00000000 I_sub_cg_cr_rs1_rs2_edges_rs1val_0xaaaaaaaa_rs2val_0x80000001_str
00002ad8 l       .text.rvtest	00000000 I_sub_cg_cr_rs1_rs2_edges_rs1val_0xaaaaaaaa_rs2val_0x7fffffff
0000cec0 l       .data	00000000 I_sub_cg_cr_rs1_rs2_edges_rs1val_0xaaaaaaaa_rs2val_0x7fffffff_str
00002b04 l       .text.rvtest	00000000 I_sub_cg_cr_rs1_rs2_edges_rs1val_0xaaaaaaaa_rs2val_0x7ffffffe
0000cf1b l       .data	00000000 I_sub_cg_cr_rs1_rs2_edges_rs1val_0xaaaaaaaa_rs2val_0x7ffffffe_str
00002b30 l       .text.rvtest	00000000 I_sub_cg_cr_rs1_rs2_edges_rs1val_0xaaaaaaaa_rs2val_0xffffffff
0000cf76 l       .data	00000000 I_sub_cg_cr_rs1_rs2_edges_rs1val_0xaaaaaaaa_rs2val_0xffffffff_str
00002b5c l       .text.rvtest	00000000 I_sub_cg_cr_rs1_rs2_edges_rs1val_0xaaaaaaaa_rs2val_0xfffffffe
0000cfd1 l       .data	00000000 I_sub_cg_cr_rs1_rs2_edges_rs1val_0xaaaaaaaa_rs2val_0xfffffffe_str
00002b88 l       .text.rvtest	00000000 I_sub_cg_cr_rs1_rs2_edges_rs1val_0xaaaaaaaa_rs2val_0x5bbc8872
0000d02c l       .data	00000000 I_sub_cg_cr_rs1_rs2_edges_rs1val_0xaaaaaaaa_rs2val_0x5bbc8872_str
00002bb4 l       .text.rvtest	00000000 I_sub_cg_cr_rs1_rs2_edges_rs1val_0xaaaaaaaa_rs2val_0xaaaaaaaa
0000d087 l       .data	00000000 I_sub_cg_cr_rs1_rs2_edges_rs1val_0xaaaaaaaa_rs2val_0xaaaaaaaa_str
00002be0 l       .text.rvtest	00000000 I_sub_cg_cr_rs1_rs2_edges_rs1val_0xaaaaaaaa_rs2val_0x55555555
0000d0e2 l       .data	00000000 I_sub_cg_cr_rs1_rs2_edges_rs1val_0xaaaaaaaa_rs2val_0x55555555_str
00002c0c l       .text.rvtest	00000000 I_sub_cg_cr_rs1_rs2_edges_rs1val_0x55555555_rs2val_0x0
0000d13d l       .data	00000000 I_sub_cg_cr_rs1_rs2_edges_rs1val_0x55555555_rs2val_0x0_str
00002c38 l       .text.rvtest	00000000 I_sub_cg_cr_rs1_rs2_edges_rs1val_0x55555555_rs2val_0x1
0000d191 l       .data	00000000 I_sub_cg_cr_rs1_rs2_edges_rs1val_0x55555555_rs2val_0x1_str
00002c64 l       .text.rvtest	00000000 I_sub_cg_cr_rs1_rs2_edges_rs1val_0x55555555_rs2val_0x2
0000d1e5 l       .data	00000000 I_sub_cg_cr_rs1_rs2_edges_rs1val_0x55555555_rs2val_0x2_str
00002c90 l       .text.rvtest	00000000 I_sub_cg_cr_rs1_rs2_edges_rs1val_0x55555555_rs2val_0x80000000
0000d239 l       .data	00000000 I_sub_cg_cr_rs1_rs2_edges_rs1val_0x55555555_rs2val_0x80000000_str
00002cbc l       .text.rvtest	00000000 I_sub_cg_cr_rs1_rs2_edges_rs1val_0x55555555_rs2val_0x80000001
0000d294 l       .data	00000000 I_sub_cg_cr_rs1_rs2_edges_rs1val_0x55555555_rs2val_0x80000001_str
00002ce8 l       .text.rvtest	00000000 I_sub_cg_cr_rs1_rs2_edges_rs1val_0x55555555_rs2val_0x7fffffff
0000d2ef l       .data	00000000 I_sub_cg_cr_rs1_rs2_edges_rs1val_0x55555555_rs2val_0x7fffffff_str
00002d14 l       .text.rvtest	00000000 I_sub_cg_cr_rs1_rs2_edges_rs1val_0x55555555_rs2val_0x7ffffffe
0000d34a l       .data	00000000 I_sub_cg_cr_rs1_rs2_edges_rs1val_0x55555555_rs2val_0x7ffffffe_str
00002d40 l       .text.rvtest	00000000 I_sub_cg_cr_rs1_rs2_edges_rs1val_0x55555555_rs2val_0xffffffff
0000d3a5 l       .data	00000000 I_sub_cg_cr_rs1_rs2_edges_rs1val_0x55555555_rs2val_0xffffffff_str
00002d6c l       .text.rvtest	00000000 I_sub_cg_cr_rs1_rs2_edges_rs1val_0x55555555_rs2val_0xfffffffe
0000d400 l       .data	00000000 I_sub_cg_cr_rs1_rs2_edges_rs1val_0x55555555_rs2val_0xfffffffe_str
00002d98 l       .text.rvtest	00000000 I_sub_cg_cr_rs1_rs2_edges_rs1val_0x55555555_rs2val_0x5bbc8872
0000d45b l       .data	00000000 I_sub_cg_cr_rs1_rs2_edges_rs1val_0x55555555_rs2val_0x5bbc8872_str
00002dc4 l       .text.rvtest	00000000 I_sub_cg_cr_rs1_rs2_edges_rs1val_0x55555555_rs2val_0xaaaaaaaa
0000d4b6 l       .data	00000000 I_sub_cg_cr_rs1_rs2_edges_rs1val_0x55555555_rs2val_0xaaaaaaaa_str
00002df0 l       .text.rvtest	00000000 I_sub_cg_cr_rs1_rs2_edges_rs1val_0x55555555_rs2val_0x55555555
0000d511 l       .data	00000000 I_sub_cg_cr_rs1_rs2_edges_rs1val_0x55555555_rs2val_0x55555555_str
00002e1c l       .text.rvtest	00000000 I_sub_cg_cmp_rs1_rs2_b0
0000d56c l       .data	00000000 I_sub_cg_cmp_rs1_rs2_b0_str
00002e48 l       .text.rvtest	00000000 I_sub_cg_cmp_rs1_rs2_b1
0000d5a0 l       .data	00000000 I_sub_cg_cmp_rs1_rs2_b1_str
00002e74 l       .text.rvtest	00000000 I_sub_cg_cmp_rs1_rs2_b2
0000d5d4 l       .data	00000000 I_sub_cg_cmp_rs1_rs2_b2_str
00002ea0 l       .text.rvtest	00000000 I_sub_cg_cmp_rs1_rs2_b3
0000d608 l       .data	00000000 I_sub_cg_cmp_rs1_rs2_b3_str
00002ed4 l       .text.rvtest	00000000 I_sub_cg_cmp_rs1_rs2_b4
0000d63c l       .data	00000000 I_sub_cg_cmp_rs1_rs2_b4_str
00002f00 l       .text.rvtest	00000000 I_sub_cg_cmp_rs1_rs2_b5
0000d670 l       .data	00000000 I_sub_cg_cmp_rs1_rs2_b5_str
00002f2c l       .text.rvtest	00000000 I_sub_cg_cmp_rs1_rs2_b6
0000d6a4 l       .data	00000000 I_sub_cg_cmp_rs1_rs2_b6_str
00002f58 l       .text.rvtest	00000000 I_sub_cg_cmp_rs1_rs2_b7
0000d6d8 l       .data	00000000 I_sub_cg_cmp_rs1_rs2_b7_str
00002f84 l       .text.rvtest	00000000 I_sub_cg_cmp_rs1_rs2_b8
0000d70c l       .data	00000000 I_sub_cg_cmp_rs1_rs2_b8_str
00002fb4 l       .text.rvtest	00000000 I_sub_cg_cmp_rs1_rs2_b9
0000d740 l       .data	00000000 I_sub_cg_cmp_rs1_rs2_b9_str
00002fe0 l       .text.rvtest	00000000 I_sub_cg_cmp_rs1_rs2_b10
0000d774 l       .data	00000000 I_sub_cg_cmp_rs1_rs2_b10_str
0000300c l       .text.rvtest	00000000 I_sub_cg_cmp_rs1_rs2_b11
0000d7a9 l       .data	00000000 I_sub_cg_cmp_rs1_rs2_b11_str
00003038 l       .text.rvtest	00000000 I_sub_cg_cmp_rs1_rs2_b12
0000d7de l       .data	00000000 I_sub_cg_cmp_rs1_rs2_b12_str
0000306c l       .text.rvtest	00000000 I_sub_cg_cmp_rs1_rs2_b13
0000d813 l       .data	00000000 I_sub_cg_cmp_rs1_rs2_b13_str
00003098 l       .text.rvtest	00000000 I_sub_cg_cmp_rs1_rs2_b14
0000d848 l       .data	00000000 I_sub_cg_cmp_rs1_rs2_b14_str
000030c4 l       .text.rvtest	00000000 I_sub_cg_cmp_rs1_rs2_b15
0000d87d l       .data	00000000 I_sub_cg_cmp_rs1_rs2_b15_str
000030f0 l       .text.rvtest	00000000 I_sub_cg_cmp_rs1_rs2_b16
0000d8b2 l       .data	00000000 I_sub_cg_cmp_rs1_rs2_b16_str
0000311c l       .text.rvtest	00000000 I_sub_cg_cmp_rs1_rs2_b17
0000d8e7 l       .data	00000000 I_sub_cg_cmp_rs1_rs2_b17_str
00003148 l       .text.rvtest	00000000 I_sub_cg_cmp_rs1_rs2_b18
0000d91c l       .data	00000000 I_sub_cg_cmp_rs1_rs2_b18_str
00003174 l       .text.rvtest	00000000 I_sub_cg_cmp_rs1_rs2_b19
0000d951 l       .data	00000000 I_sub_cg_cmp_rs1_rs2_b19_str
000031a4 l       .text.rvtest	00000000 I_sub_cg_cmp_rs1_rs2_b20
0000d986 l       .data	00000000 I_sub_cg_cmp_rs1_rs2_b20_str
000031d0 l       .text.rvtest	00000000 I_sub_cg_cmp_rs1_rs2_b21
0000d9bb l       .data	00000000 I_sub_cg_cmp_rs1_rs2_b21_str
000031fc l       .text.rvtest	00000000 I_sub_cg_cmp_rs1_rs2_b22
0000d9f0 l       .data	00000000 I_sub_cg_cmp_rs1_rs2_b22_str
00003228 l       .text.rvtest	00000000 I_sub_cg_cmp_rs1_rs2_b23
0000da25 l       .data	00000000 I_sub_cg_cmp_rs1_rs2_b23_str
00003254 l       .text.rvtest	00000000 I_sub_cg_cmp_rs1_rs2_b24
0000da5a l       .data	00000000 I_sub_cg_cmp_rs1_rs2_b24_str
00003280 l       .text.rvtest	00000000 I_sub_cg_cmp_rs1_rs2_b25
0000da8f l       .data	00000000 I_sub_cg_cmp_rs1_rs2_b25_str
000032ac l       .text.rvtest	00000000 I_sub_cg_cmp_rs1_rs2_b26
0000dac4 l       .data	00000000 I_sub_cg_cmp_rs1_rs2_b26_str
000032d8 l       .text.rvtest	00000000 I_sub_cg_cmp_rs1_rs2_b27
0000daf9 l       .data	00000000 I_sub_cg_cmp_rs1_rs2_b27_str
00003304 l       .text.rvtest	00000000 I_sub_cg_cmp_rs1_rs2_b28
0000db2e l       .data	00000000 I_sub_cg_cmp_rs1_rs2_b28_str
00003330 l       .text.rvtest	00000000 I_sub_cg_cmp_rs1_rs2_b29
0000db63 l       .data	00000000 I_sub_cg_cmp_rs1_rs2_b29_str
0000335c l       .text.rvtest	00000000 I_sub_cg_cmp_rs1_rs2_b30
0000db98 l       .data	00000000 I_sub_cg_cmp_rs1_rs2_b30_str
00003388 l       .text.rvtest	00000000 I_sub_cg_cmp_rs1_rs2_b31
0000dbcd l       .data	00000000 I_sub_cg_cmp_rs1_rs2_b31_str
000033b4 l       .text.rvtest	00000000 I_sub_cg_cmp_rd_rs1_b0
0000dc02 l       .data	00000000 I_sub_cg_cmp_rd_rs1_b0_str
000033e0 l       .text.rvtest	00000000 I_sub_cg_cmp_rd_rs1_b1
0000dc35 l       .data	00000000 I_sub_cg_cmp_rd_rs1_b1_str
00003410 l       .text.rvtest	00000000 I_sub_cg_cmp_rd_rs1_b2
0000dc68 l       .data	00000000 I_sub_cg_cmp_rd_rs1_b2_str
00003440 l       .text.rvtest	00000000 I_sub_cg_cmp_rd_rs1_b3
0000dc9b l       .data	00000000 I_sub_cg_cmp_rd_rs1_b3_str
0000346c l       .text.rvtest	00000000 I_sub_cg_cmp_rd_rs1_b4
0000dcce l       .data	00000000 I_sub_cg_cmp_rd_rs1_b4_str
00003498 l       .text.rvtest	00000000 I_sub_cg_cmp_rd_rs1_b5
0000dd01 l       .data	00000000 I_sub_cg_cmp_rd_rs1_b5_str
000034c4 l       .text.rvtest	00000000 I_sub_cg_cmp_rd_rs1_b6
0000dd34 l       .data	00000000 I_sub_cg_cmp_rd_rs1_b6_str
000034f8 l       .text.rvtest	00000000 I_sub_cg_cmp_rd_rs1_b7
0000dd67 l       .data	00000000 I_sub_cg_cmp_rd_rs1_b7_str
00003524 l       .text.rvtest	00000000 I_sub_cg_cmp_rd_rs1_b8
0000dd9a l       .data	00000000 I_sub_cg_cmp_rd_rs1_b8_str
00003550 l       .text.rvtest	00000000 I_sub_cg_cmp_rd_rs1_b9
0000ddcd l       .data	00000000 I_sub_cg_cmp_rd_rs1_b9_str
0000357c l       .text.rvtest	00000000 I_sub_cg_cmp_rd_rs1_b10
0000de00 l       .data	00000000 I_sub_cg_cmp_rd_rs1_b10_str
000035a8 l       .text.rvtest	00000000 I_sub_cg_cmp_rd_rs1_b11
0000de34 l       .data	00000000 I_sub_cg_cmp_rd_rs1_b11_str
000035d4 l       .text.rvtest	00000000 I_sub_cg_cmp_rd_rs1_b12
0000de68 l       .data	00000000 I_sub_cg_cmp_rd_rs1_b12_str
00003600 l       .text.rvtest	00000000 I_sub_cg_cmp_rd_rs1_b13
0000de9c l       .data	00000000 I_sub_cg_cmp_rd_rs1_b13_str
0000362c l       .text.rvtest	00000000 I_sub_cg_cmp_rd_rs1_b14
0000ded0 l       .data	00000000 I_sub_cg_cmp_rd_rs1_b14_str
00003658 l       .text.rvtest	00000000 I_sub_cg_cmp_rd_rs1_b15
0000df04 l       .data	00000000 I_sub_cg_cmp_rd_rs1_b15_str
00003684 l       .text.rvtest	00000000 I_sub_cg_cmp_rd_rs1_b16
0000df38 l       .data	00000000 I_sub_cg_cmp_rd_rs1_b16_str
000036b0 l       .text.rvtest	00000000 I_sub_cg_cmp_rd_rs1_b17
0000df6c l       .data	00000000 I_sub_cg_cmp_rd_rs1_b17_str
000036dc l       .text.rvtest	00000000 I_sub_cg_cmp_rd_rs1_b18
0000dfa0 l       .data	00000000 I_sub_cg_cmp_rd_rs1_b18_str
00003708 l       .text.rvtest	00000000 I_sub_cg_cmp_rd_rs1_b19
0000dfd4 l       .data	00000000 I_sub_cg_cmp_rd_rs1_b19_str
00003734 l       .text.rvtest	00000000 I_sub_cg_cmp_rd_rs1_b20
0000e008 l       .data	00000000 I_sub_cg_cmp_rd_rs1_b20_str
00003760 l       .text.rvtest	00000000 I_sub_cg_cmp_rd_rs1_b21
0000e03c l       .data	00000000 I_sub_cg_cmp_rd_rs1_b21_str
0000378c l       .text.rvtest	00000000 I_sub_cg_cmp_rd_rs1_b22
0000e070 l       .data	00000000 I_sub_cg_cmp_rd_rs1_b22_str
000037b8 l       .text.rvtest	00000000 I_sub_cg_cmp_rd_rs1_b23
0000e0a4 l       .data	00000000 I_sub_cg_cmp_rd_rs1_b23_str
000037e8 l       .text.rvtest	00000000 I_sub_cg_cmp_rd_rs1_b24
0000e0d8 l       .data	00000000 I_sub_cg_cmp_rd_rs1_b24_str
00003814 l       .text.rvtest	00000000 I_sub_cg_cmp_rd_rs1_b25
0000e10c l       .data	00000000 I_sub_cg_cmp_rd_rs1_b25_str
00003840 l       .text.rvtest	00000000 I_sub_cg_cmp_rd_rs1_b26
0000e140 l       .data	00000000 I_sub_cg_cmp_rd_rs1_b26_str
0000386c l       .text.rvtest	00000000 I_sub_cg_cmp_rd_rs1_b27
0000e174 l       .data	00000000 I_sub_cg_cmp_rd_rs1_b27_str
00003898 l       .text.rvtest	00000000 I_sub_cg_cmp_rd_rs1_b28
0000e1a8 l       .data	00000000 I_sub_cg_cmp_rd_rs1_b28_str
000038c8 l       .text.rvtest	00000000 I_sub_cg_cmp_rd_rs1_b29
0000e1dc l       .data	00000000 I_sub_cg_cmp_rd_rs1_b29_str
000038f4 l       .text.rvtest	00000000 I_sub_cg_cmp_rd_rs1_b30
0000e210 l       .data	00000000 I_sub_cg_cmp_rd_rs1_b30_str
00003920 l       .text.rvtest	00000000 I_sub_cg_cmp_rd_rs1_b31
0000e244 l       .data	00000000 I_sub_cg_cmp_rd_rs1_b31_str
0000394c l       .text.rvtest	00000000 I_sub_cg_cmp_rd_rs2_b0
0000e278 l       .data	00000000 I_sub_cg_cmp_rd_rs2_b0_str
00003978 l       .text.rvtest	00000000 I_sub_cg_cmp_rd_rs2_b1
0000e2ab l       .data	00000000 I_sub_cg_cmp_rd_rs2_b1_str
000039a4 l       .text.rvtest	00000000 I_sub_cg_cmp_rd_rs2_b2
0000e2de l       .data	00000000 I_sub_cg_cmp_rd_rs2_b2_str
000039d0 l       .text.rvtest	00000000 I_sub_cg_cmp_rd_rs2_b3
0000e311 l       .data	00000000 I_sub_cg_cmp_rd_rs2_b3_str
00003a04 l       .text.rvtest	00000000 I_sub_cg_cmp_rd_rs2_b4
0000e344 l       .data	00000000 I_sub_cg_cmp_rd_rs2_b4_str
00003a30 l       .text.rvtest	00000000 I_sub_cg_cmp_rd_rs2_b5
0000e377 l       .data	00000000 I_sub_cg_cmp_rd_rs2_b5_str
00003a60 l       .text.rvtest	00000000 I_sub_cg_cmp_rd_rs2_b6
0000e3aa l       .data	00000000 I_sub_cg_cmp_rd_rs2_b6_str
00003a94 l       .text.rvtest	00000000 I_sub_cg_cmp_rd_rs2_b7
0000e3dd l       .data	00000000 I_sub_cg_cmp_rd_rs2_b7_str
00003ac0 l       .text.rvtest	00000000 I_sub_cg_cmp_rd_rs2_b8
0000e410 l       .data	00000000 I_sub_cg_cmp_rd_rs2_b8_str
00003aec l       .text.rvtest	00000000 I_sub_cg_cmp_rd_rs2_b9
0000e443 l       .data	00000000 I_sub_cg_cmp_rd_rs2_b9_str
00003b18 l       .text.rvtest	00000000 I_sub_cg_cmp_rd_rs2_b10
0000e476 l       .data	00000000 I_sub_cg_cmp_rd_rs2_b10_str
00003b44 l       .text.rvtest	00000000 I_sub_cg_cmp_rd_rs2_b11
0000e4aa l       .data	00000000 I_sub_cg_cmp_rd_rs2_b11_str
00003b70 l       .text.rvtest	00000000 I_sub_cg_cmp_rd_rs2_b12
0000e4de l       .data	00000000 I_sub_cg_cmp_rd_rs2_b12_str
00003ba4 l       .text.rvtest	00000000 I_sub_cg_cmp_rd_rs2_b13
0000e512 l       .data	00000000 I_sub_cg_cmp_rd_rs2_b13_str
00003bd0 l       .text.rvtest	00000000 I_sub_cg_cmp_rd_rs2_b14
0000e546 l       .data	00000000 I_sub_cg_cmp_rd_rs2_b14_str
00003bfc l       .text.rvtest	00000000 I_sub_cg_cmp_rd_rs2_b15
0000e57a l       .data	00000000 I_sub_cg_cmp_rd_rs2_b15_str
00003c2c l       .text.rvtest	00000000 I_sub_cg_cmp_rd_rs2_b16
0000e5ae l       .data	00000000 I_sub_cg_cmp_rd_rs2_b16_str
00003c58 l       .text.rvtest	00000000 I_sub_cg_cmp_rd_rs2_b17
0000e5e2 l       .data	00000000 I_sub_cg_cmp_rd_rs2_b17_str
00003c84 l       .text.rvtest	00000000 I_sub_cg_cmp_rd_rs2_b18
0000e616 l       .data	00000000 I_sub_cg_cmp_rd_rs2_b18_str
00003cb0 l       .text.rvtest	00000000 I_sub_cg_cmp_rd_rs2_b19
0000e64a l       .data	00000000 I_sub_cg_cmp_rd_rs2_b19_str
00003cdc l       .text.rvtest	00000000 I_sub_cg_cmp_rd_rs2_b20
0000e67e l       .data	00000000 I_sub_cg_cmp_rd_rs2_b20_str
00003d0c l       .text.rvtest	00000000 I_sub_cg_cmp_rd_rs2_b21
0000e6b2 l       .data	00000000 I_sub_cg_cmp_rd_rs2_b21_str
00003d38 l       .text.rvtest	00000000 I_sub_cg_cmp_rd_rs2_b22
0000e6e6 l       .data	00000000 I_sub_cg_cmp_rd_rs2_b22_str
00003d64 l       .text.rvtest	00000000 I_sub_cg_cmp_rd_rs2_b23
0000e71a l       .data	00000000 I_sub_cg_cmp_rd_rs2_b23_str
00003d90 l       .text.rvtest	00000000 I_sub_cg_cmp_rd_rs2_b24
0000e74e l       .data	00000000 I_sub_cg_cmp_rd_rs2_b24_str
00003dbc l       .text.rvtest	00000000 I_sub_cg_cmp_rd_rs2_b25
0000e782 l       .data	00000000 I_sub_cg_cmp_rd_rs2_b25_str
00003de8 l       .text.rvtest	00000000 I_sub_cg_cmp_rd_rs2_b26
0000e7b6 l       .data	00000000 I_sub_cg_cmp_rd_rs2_b26_str
00003e18 l       .text.rvtest	00000000 I_sub_cg_cmp_rd_rs2_b27
0000e7ea l       .data	00000000 I_sub_cg_cmp_rd_rs2_b27_str
00003e48 l       .text.rvtest	00000000 I_sub_cg_cmp_rd_rs2_b28
0000e81e l       .data	00000000 I_sub_cg_cmp_rd_rs2_b28_str
00003e74 l       .text.rvtest	00000000 I_sub_cg_cmp_rd_rs2_b29
0000e852 l       .data	00000000 I_sub_cg_cmp_rd_rs2_b29_str
00003ea0 l       .text.rvtest	00000000 I_sub_cg_cmp_rd_rs2_b30
0000e886 l       .data	00000000 I_sub_cg_cmp_rd_rs2_b30_str
00003ecc l       .text.rvtest	00000000 I_sub_cg_cmp_rd_rs2_b31
0000e8ba l       .data	00000000 I_sub_cg_cmp_rd_rs2_b31_str
00003ef8 l       .text.rvtest	00000000 I_sub_cg_cmp_rd_rs1_rs2_b0
0000e8ee l       .data	00000000 I_sub_cg_cmp_rd_rs1_rs2_b0_str
00003f24 l       .text.rvtest	00000000 I_sub_cg_cmp_rd_rs1_rs2_b1
0000e925 l       .data	00000000 I_sub_cg_cmp_rd_rs1_rs2_b1_str
00003f50 l       .text.rvtest	00000000 I_sub_cg_cmp_rd_rs1_rs2_b2
0000e95c l       .data	00000000 I_sub_cg_cmp_rd_rs1_rs2_b2_str
00003f7c l       .text.rvtest	00000000 I_sub_cg_cmp_rd_rs1_rs2_b3
0000e993 l       .data	00000000 I_sub_cg_cmp_rd_rs1_rs2_b3_str
00003fb0 l       .text.rvtest	00000000 I_sub_cg_cmp_rd_rs1_rs2_b4
0000e9ca l       .data	00000000 I_sub_cg_cmp_rd_rs1_rs2_b4_str
00003fdc l       .text.rvtest	00000000 I_sub_cg_cmp_rd_rs1_rs2_b5
0000ea01 l       .data	00000000 I_sub_cg_cmp_rd_rs1_rs2_b5_str
00004008 l       .text.rvtest	00000000 I_sub_cg_cmp_rd_rs1_rs2_b6
0000ea38 l       .data	00000000 I_sub_cg_cmp_rd_rs1_rs2_b6_str
00004034 l       .text.rvtest	00000000 I_sub_cg_cmp_rd_rs1_rs2_b7
0000ea6f l       .data	00000000 I_sub_cg_cmp_rd_rs1_rs2_b7_str
00004060 l       .text.rvtest	00000000 I_sub_cg_cmp_rd_rs1_rs2_b8
0000eaa6 l       .data	00000000 I_sub_cg_cmp_rd_rs1_rs2_b8_str
0000408c l       .text.rvtest	00000000 I_sub_cg_cmp_rd_rs1_rs2_b9
0000eadd l       .data	00000000 I_sub_cg_cmp_rd_rs1_rs2_b9_str
000040b8 l       .text.rvtest	00000000 I_sub_cg_cmp_rd_rs1_rs2_b10
0000eb14 l       .data	00000000 I_sub_cg_cmp_rd_rs1_rs2_b10_str
000040e4 l       .text.rvtest	00000000 I_sub_cg_cmp_rd_rs1_rs2_b11
0000eb4c l       .data	00000000 I_sub_cg_cmp_rd_rs1_rs2_b11_str
00004110 l       .text.rvtest	00000000 I_sub_cg_cmp_rd_rs1_rs2_b12
0000eb84 l       .data	00000000 I_sub_cg_cmp_rd_rs1_rs2_b12_str
00004144 l       .text.rvtest	00000000 I_sub_cg_cmp_rd_rs1_rs2_b13
0000ebbc l       .data	00000000 I_sub_cg_cmp_rd_rs1_rs2_b13_str
00004170 l       .text.rvtest	00000000 I_sub_cg_cmp_rd_rs1_rs2_b14
0000ebf4 l       .data	00000000 I_sub_cg_cmp_rd_rs1_rs2_b14_str
0000419c l       .text.rvtest	00000000 I_sub_cg_cmp_rd_rs1_rs2_b15
0000ec2c l       .data	00000000 I_sub_cg_cmp_rd_rs1_rs2_b15_str
000041c8 l       .text.rvtest	00000000 I_sub_cg_cmp_rd_rs1_rs2_b16
0000ec64 l       .data	00000000 I_sub_cg_cmp_rd_rs1_rs2_b16_str
000041f4 l       .text.rvtest	00000000 I_sub_cg_cmp_rd_rs1_rs2_b17
0000ec9c l       .data	00000000 I_sub_cg_cmp_rd_rs1_rs2_b17_str
00004220 l       .text.rvtest	00000000 I_sub_cg_cmp_rd_rs1_rs2_b18
0000ecd4 l       .data	00000000 I_sub_cg_cmp_rd_rs1_rs2_b18_str
0000424c l       .text.rvtest	00000000 I_sub_cg_cmp_rd_rs1_rs2_b19
0000ed0c l       .data	00000000 I_sub_cg_cmp_rd_rs1_rs2_b19_str
00004278 l       .text.rvtest	00000000 I_sub_cg_cmp_rd_rs1_rs2_b20
0000ed44 l       .data	00000000 I_sub_cg_cmp_rd_rs1_rs2_b20_str
000042a4 l       .text.rvtest	00000000 I_sub_cg_cmp_rd_rs1_rs2_b21
0000ed7c l       .data	00000000 I_sub_cg_cmp_rd_rs1_rs2_b21_str
000042d0 l       .text.rvtest	00000000 I_sub_cg_cmp_rd_rs1_rs2_b22
0000edb4 l       .data	00000000 I_sub_cg_cmp_rd_rs1_rs2_b22_str
00004300 l       .text.rvtest	00000000 I_sub_cg_cmp_rd_rs1_rs2_b23
0000edec l       .data	00000000 I_sub_cg_cmp_rd_rs1_rs2_b23_str
0000432c l       .text.rvtest	00000000 I_sub_cg_cmp_rd_rs1_rs2_b24
0000ee24 l       .data	00000000 I_sub_cg_cmp_rd_rs1_rs2_b24_str
00004358 l       .text.rvtest	00000000 I_sub_cg_cmp_rd_rs1_rs2_b25
0000ee5c l       .data	00000000 I_sub_cg_cmp_rd_rs1_rs2_b25_str
00004388 l       .text.rvtest	00000000 I_sub_cg_cmp_rd_rs1_rs2_b26
0000ee94 l       .data	00000000 I_sub_cg_cmp_rd_rs1_rs2_b26_str
000043b4 l       .text.rvtest	00000000 I_sub_cg_cmp_rd_rs1_rs2_b27
0000eecc l       .data	00000000 I_sub_cg_cmp_rd_rs1_rs2_b27_str
000043e0 l       .text.rvtest	00000000 I_sub_cg_cmp_rd_rs1_rs2_b28
0000ef04 l       .data	00000000 I_sub_cg_cmp_rd_rs1_rs2_b28_str
0000440c l       .text.rvtest	00000000 I_sub_cg_cmp_rd_rs1_rs2_b29
0000ef3c l       .data	00000000 I_sub_cg_cmp_rd_rs1_rs2_b29_str
00004438 l       .text.rvtest	00000000 I_sub_cg_cmp_rd_rs1_rs2_b30
0000ef74 l       .data	00000000 I_sub_cg_cmp_rd_rs1_rs2_b30_str
00004464 l       .text.rvtest	00000000 I_sub_cg_cmp_rd_rs1_rs2_b31
0000efac l       .data	00000000 I_sub_cg_cmp_rd_rs1_rs2_b31_str
00004484 l       .text.rvtest	00000000 exit_cleanup
0000f654 l       .data	00000000 successstr
00020204 l       .text.rvmodel	00000000 rvmodel_io_write_str
00020208 l       .text.rvmodel	00000000 rvmodel_halt_pass
000044d0 l       .text.rvtest	00000000 abort_test
6f5ca309 l       *ABS*	00000000 immx
6f5ca309 l       *ABS*	00000000 absimm
00000000 l       *ABS*	00000000 cry
00000309 l       *ABS*	00000000 imm12
0000eff0 l       .data	00000000 begin_failure_scratch
000045a0 l       .text.rvtest	00000000 failedtest_saveregs
00004544 l       .text.rvtest	00000000 failedtest_trap_x7_x9
0000f160 l       .data	00000000 saved_mcause
0000f168 l       .data	00000000 saved_mtval
0000f170 l       .data	00000000 saved_mstatus
00004610 l       .text.rvtest	00000000 failedtest_saveresults
0000eff0 l       .data	00000000 failure_type
0000468c l       .text.rvtest	00000000 failedtest_saveresults_trap
00004620 l       .text.rvtest	00000000 failedtest_saveresults_int
00004a60 l       .text.rvtest	00000000 failedtest_saveresults_common
0000f148 l       .data	00000000 trap_diag_fail_str_ptr
0000f81a l       .data	00000000 trap_sig_offset_mismatch
00004940 l       .text.rvtest	00000000 trap_diag_offset_mismatch
0000f120 l       .data	00000000 trap_diag_subtype
0000f87e l       .data	00000000 sv_Mvect_str
000049c0 l       .text.rvtest	00000000 trap_diag_field_identified
0000f980 l       .data	00000000 sv_Mcause_str
0000fa7b l       .data	00000000 sv_Mepc_str
0000fb6e l       .data	00000000 sv_Mtval_str
0000fce1 l       .data	00000000 sv_Mip_str
0000fc65 l       .data	00000000 sv_Mtval2_str
0000fca3 l       .data	00000000 sv_Mtinst_str
0000f8be l       .data	00000000 sv_Svect_str
0000f9be l       .data	00000000 sv_Scause_str
0000fab7 l       .data	00000000 sv_Sepc_str
0000fbab l       .data	00000000 sv_Stval_str
0000fd1c l       .data	00000000 sv_Sip_str
0000f8fe l       .data	00000000 sv_Hvect_str
0000f9fc l       .data	00000000 sv_Hcause_str
0000faf3 l       .data	00000000 sv_Hepc_str
0000fbe8 l       .data	00000000 sv_Htval_str
0000fd57 l       .data	00000000 sv_Hip_str
0000f93f l       .data	00000000 sv_Vvect_str
0000fa3b l       .data	00000000 sv_Vcause_str
0000fb30 l       .data	00000000 sv_Vepc_str
0000fc26 l       .data	00000000 sv_Vtval_str
0000fd93 l       .data	00000000 sv_Vip_str
0000fdd0 l       .data	00000000 Mclr_Mext_int_str
0000fe1f l       .data	00000000 Mclr_Sext_int_str
0000ff1a l       .data	00000000 Sclr_Sext_int_str
00010016 l       .data	00000000 Hclr_Sext_int_str
00004a50 l       .text.rvtest	00000000 trap_diag_generic_report
0000f138 l       .data	00000000 trap_diag_actual_offset
0000f140 l       .data	00000000 trap_diag_expected_offset
0000f124 l       .data	00000000 trap_diag_mode
0000f128 l       .data	00000000 trap_diag_actual_value
0000f130 l       .data	00000000 trap_diag_expected_value
00004a90 l       .text.rvtest	00000000 failedtest_report
00004a90 l       .text.rvtest	00000000 print_failstr
0000f68a l       .data	00000000 failstr
00004ac8 l       .text.rvtest	00000000 print_testnamestr
0000f71d l       .data	00000000 testnamestr
00004b08 l       .text.rvtest	00000000 print_failure_test_name_str
0000f110 l       .data	00000000 failure_string_ptr
00004b18 l       .text.rvtest	00000000 print_newline_str
0000f72f l       .data	00000000 newlinestr
00004f4c l       .text.rvtest	00000000 failedtest_report_trap_detailed
0000f731 l       .data	00000000 inststr
0000f0f0 l       .data	00000000 failing_instruction
00005e98 l       .text.rvtest	00000000 failedtest_hex_to_str
0000f178 l       .data	00000000 ascii_buffer
0000f745 l       .data	00000000 addrstr
0000f0f8 l       .data	00000000 failing_addr
000101c2 l       .data	00000000 regstr
00004cf8 l       .text.rvtest	00000000 failedtest_report_not_intreg
0000f0f4 l       .data	00000000 failing_reg
00005f14 l       .text.rvtest	00000000 failedtest_dec_to_str
00004dd4 l       .text.rvtest	00000000 failedtest_report_print_regstr
00004d4c l       .text.rvtest	00000000 failedtest_report_fpreg
00004d98 l       .text.rvtest	00000000 failedtest_report_vecreg
00010222 l       .data	00000000 fflagsstr
00004e08 l       .text.rvtest	00000000 failedtest_report_after_reg
000101d3 l       .data	00000000 badvalstr
00004e6c l       .text.rvtest	00000000 failedtest_report_badval_not_fp
0000f100 l       .data	00000000 failing_value
00004e7c l       .text.rvtest	00000000 failedtest_report_badval_done
000101ea l       .data	00000000 expvalstr
00004f0c l       .text.rvtest	00000000 failedtest_report_expval_not_fp
0000f108 l       .data	00000000 expected_value
00004f1c l       .text.rvtest	00000000 failedtest_report_expval_done
00005c44 l       .text.rvtest	00000000 failedtest_report_end
0001024e l       .data	00000000 trap_diag_header_str
0001027a l       .data	00000000 trap_diag_origstr_label
00005020 l       .text.rvtest	00000000 trap_report_offset_mismatch
00005ad0 l       .text.rvtest	00000000 trap_report_generic
00005394 l       .text.rvtest	00000000 trap_report_field_mismatch
0001028a l       .data	00000000 trap_diag_count_mismatch_str
000102eb l       .data	00000000 trap_diag_expected_offset_str
00010312 l       .data	00000000 trap_diag_actual_offset_str
00005274 l       .text.rvtest	00000000 trap_report_missing_traps
0000515c l       .text.rvtest	00000000 trap_report_extra_traps
00010339 l       .data	00000000 trap_diag_extra_traps_str
000103be l       .data	00000000 trap_diag_extra_bytes_str
000103e9 l       .data	00000000 trap_diag_extra_hint_str
00005c90 l       .text.rvtest	00000000 failedtest_print_csr_context
00010373 l       .data	00000000 trap_diag_missing_traps_str
000104d1 l       .data	00000000 trap_diag_missing_hint_str
000105b8 l       .data	00000000 trap_diag_handler_mode_str
00005424 l       .text.rvtest	00000000 trap_mode_m
00005464 l       .text.rvtest	00000000 trap_mode_s
000054a4 l       .text.rvtest	00000000 trap_mode_h
000054e4 l       .text.rvtest	00000000 trap_mode_v
000105f4 l       .data	00000000 trap_diag_mode_unknown_str
00005520 l       .text.rvtest	00000000 trap_mode_print
000105d2 l       .data	00000000 trap_diag_mode_m_str
000105da l       .data	00000000 trap_diag_mode_s_str
000105e2 l       .data	00000000 trap_diag_mode_hs_str
000105eb l       .data	00000000 trap_diag_mode_vs_str
000105fd l       .data	00000000 trap_diag_field_str
000055e4 l       .text.rvtest	00000000 trap_field_vect
00005624 l       .text.rvtest	00000000 trap_field_cause
00005664 l       .text.rvtest	00000000 trap_field_epc
000056a4 l       .text.rvtest	00000000 trap_field_tval
000056e4 l       .text.rvtest	00000000 trap_field_ip
00005724 l       .text.rvtest	00000000 trap_field_tval2
00005764 l       .text.rvtest	00000000 trap_field_tinst
000057a4 l       .text.rvtest	00000000 trap_field_intid
00010754 l       .data	00000000 trap_diag_field_unknown_str
000057e0 l       .text.rvtest	00000000 trap_field_print
00010617 l       .data	00000000 trap_diag_field_vect_str
00010648 l       .data	00000000 trap_diag_field_cause_str
00010668 l       .data	00000000 trap_diag_field_epc_str
00010686 l       .data	00000000 trap_diag_field_tval_str
000106a5 l       .data	00000000 trap_diag_field_ip_str
000106cd l       .data	00000000 trap_diag_field_tval2_str
000106f9 l       .data	00000000 trap_diag_field_tinst_str
00010725 l       .data	00000000 trap_diag_field_intid_str
00010763 l       .data	00000000 trap_diag_expected_str
0001077a l       .data	00000000 trap_diag_actual_str
0000597c l       .text.rvtest	00000000 trap_field_not_cause
00010791 l       .data	00000000 trap_diag_expected_cause_name_str
00005bb4 l       .text.rvtest	00000000 trap_cause_to_str
000107a8 l       .data	00000000 trap_diag_actual_cause_name_str
0000597c l       .text.rvtest	00000000 trap_field_not_epc
0001081e l       .data	00000000 trap_diag_hint_vect_str
000108f4 l       .data	00000000 trap_diag_hint_cause_str
000109e7 l       .data	00000000 trap_diag_hint_epc_str
00010ae2 l       .data	00000000 trap_diag_hint_tval_str
00010bc9 l       .data	00000000 trap_diag_hint_ip_str
000107d6 l       .data	00000000 trap_diag_generic_str
0000f158 l       .data	00000000 saved_mepc
0000f7b9 l       .data	00000000 xepcinstrstr
00005bd8 l       .text.rvtest	00000000 trap_cause_interrupt
00005bb8 l       .text.rvtest	00000000 trap_cause_exception
00005c04 l       .text.rvtest	00000000 trap_cause_unknown
0000f1a0 l       .data	00000000 trap_excpt_name_tbl
0000f200 l       .data	00000000 trap_int_name_tbl
0000f63e l       .data	00000000 trap_cause_unknown_str
00010201 l       .data	00000000 endstr
00005c88 l       .text.rvtest	00000000 failedtest_terminate
00020214 l       .text.rvmodel	00000000 rvmodel_halt_fail
0000f150 l       .data	00000000 csr_context_ret_addr
0000f7da l       .data	00000000 mepcstr
0000f7ea l       .data	00000000 mcausestr
0000f7fa l       .data	00000000 mtvalstr
0000f80a l       .data	00000000 mstatusstr
00005ed8 l       .text.rvtest	00000000 failedtest_hex_to_str_loop
00005ef4 l       .text.rvtest	00000000 failedtest_hex_to_str_digit
00005ef8 l       .text.rvtest	00000000 failedtest_hex_to_str_write
00020000 l       .text.rvmodel	00000000 rvtest_boot_to_mmode
00020000 l       .text.rvmodel	00000000 rvtest_init_regs
00010cb0 l       .data	00000000 signature_base
000201a0 l       .text.rvmodel	00000000 canary_check
0001022a l       .data	00000000 canary_mismatch
00008000 l       .data	00000000 scratch
0000f1a0 l       .data	00000000 end_failure_scratch
0000f240 l       .data	00000000 trap_excpt_name_0
0000f260 l       .data	00000000 trap_excpt_name_1
0000f27a l       .data	00000000 trap_excpt_name_2
0000f28f l       .data	00000000 trap_excpt_name_3
0000f29b l       .data	00000000 trap_excpt_name_4
0000f2b4 l       .data	00000000 trap_excpt_name_5
0000f2c7 l       .data	00000000 trap_excpt_name_6
0000f2e5 l       .data	00000000 trap_excpt_name_7
0000f2fd l       .data	00000000 trap_excpt_name_8
0000f31b l       .data	00000000 trap_excpt_name_9
0000f339 l       .data	00000000 trap_excpt_name_10
0000f358 l       .data	00000000 trap_excpt_name_11
0000f376 l       .data	00000000 trap_excpt_name_12
0000f38e l       .data	00000000 trap_excpt_name_13
0000f39f l       .data	00000000 trap_excpt_name_14
0000f3ae l       .data	00000000 trap_excpt_name_15
0000f3c4 l       .data	00000000 trap_excpt_name_16
0000f3d1 l       .data	00000000 trap_excpt_name_17
0000f3e0 l       .data	00000000 trap_excpt_name_18
0000f3f0 l       .data	00000000 trap_excpt_name_19
0000f400 l       .data	00000000 trap_excpt_name_20
0000f41e l       .data	00000000 trap_excpt_name_21
0000f435 l       .data	00000000 trap_excpt_name_22
0000f44a l       .data	00000000 trap_excpt_name_23
0000f466 l       .data	00000000 trap_int_name_0
0000f47e l       .data	00000000 trap_int_name_1
0000f49d l       .data	00000000 trap_int_name_2
0000f4c4 l       .data	00000000 trap_int_name_3
0000f4e0 l       .data	00000000 trap_int_name_4
0000f4f8 l       .data	00000000 trap_int_name_5
0000f514 l       .data	00000000 trap_int_name_6
0000f538 l       .data	00000000 trap_int_name_7
0000f551 l       .data	00000000 trap_int_name_8
0000f569 l       .data	00000000 trap_int_name_9
0000f588 l       .data	00000000 trap_int_name_10
0000f5af l       .data	00000000 trap_int_name_11
0000f5cb l       .data	00000000 trap_int_name_12
0000f5f0 l       .data	00000000 trap_int_name_13
0000f60c l       .data	00000000 trap_int_name_14
0000f625 l       .data	00000000 trap_int_name_15
0000f6df l       .data	00000000 abortstr
0000f786 l       .data	00000000 xepcstr
0000fe71 l       .data	00000000 Mclr_Vext_int_str
0000fecb l       .data	00000000 Sclr_Mext_int_str
0000ff6c l       .data	00000000 Sclr_Vext_int_str
0000ffc6 l       .data	00000000 Hclr_Mext_int_str
00010069 l       .data	00000000 Hclr_Vext_int_str
000100c4 l       .data	00000000 Vclr_Mext_int_str
00010114 l       .data	00000000 Vclr_Sext_int_str
00010167 l       .data	00000000 Vclr_Vext_int_str
000107bf l       .data	00000000 trap_diag_curr_xepc_str
00011300 l       .data	00000000 trap_sigptr
0001fd70 g       .data	00000000 end_signature
0001fd70 g       .data	00000000 rvtest_sig_end
00000000 g       .text.init	00000000 rvtest_entry_point
00010cb0 g       .data	00000000 begin_signature
00004484 g       .text.rvtest	00000000 rvtest_code_end
00000040 g       .text.rvtest	00000000 rvtest_code_begin
00010cb0 g       .data	00000000 rvtest_sig_begin
00008110 g       .data	00000000 rvtest_data_begin
00010cae g       .data	00000000 rvtest_data_end
00004484 g       .text.rvtest	00000000 cleanup_epilogs
00021000 g       .text.rvmodel	00000000 _end



Disassembly of section .text.init:

00000000 <rvtest_entry_point>:

// Include framework macros
#include "riscv_arch_test.h"

// Set up test environment and declare main entry point
RVTEST_BEGIN
   0:	00020097          	auipc	x1,0x20
   4:	00008093          	addi	x1,x1,0 # 20000 <rvmodel_boot>
   8:	00000013          	addi	x0,x0,0
   c:	00000013          	addi	x0,x0,0
  10:	00000013          	addi	x0,x0,0
  14:	00000013          	addi	x0,x0,0
  18:	00000013          	addi	x0,x0,0
  1c:	00000013          	addi	x0,x0,0
  20:	000080e7          	jalr	x1,0(x1)
  24:	00000013          	addi	x0,x0,0
  28:	00000013          	addi	x0,x0,0
  2c:	00000013          	addi	x0,x0,0
  30:	00000013          	addi	x0,x0,0
  34:	00000013          	addi	x0,x0,0
  38:	00000013          	addi	x0,x0,0
  3c:	00000013          	addi	x0,x0,0

Disassembly of section .text.rvtest:

00000040 <rvtest_code_begin>:
/////////////////////////////////
// cp_rs1
/////////////////////////////////

# Testcase cp_rs1 (Test source rs1 = x0)
  RVTEST_TESTDATA_LOAD_INT(x3, x0) # load rs1: x0 = 0x625abdfa
      40:	0001a003          	lw	x0,0(x3)
      44:	00418193          	addi	x3,x3,4
  RVTEST_TESTDATA_LOAD_INT(x3, x28) # load rs2: x28 = 0xad56583f
      48:	0001ae03          	lw	x28,0(x3)
      4c:	00418193          	addi	x3,x3,4

00000050 <I_sub_cg_cp_rs1_b0>:
I_sub_cg_cp_rs1_b0:
  sub x31, x0, x28 # perform operation
      50:	41c00fb3          	sub	x31,x0,x28
  # Check if x31 contains the expected result. x2 is the signature ptr, x5 is the link ptr, x4 is a temp reg.
  RVTEST_SIGUPD(x2, x5, x4, x31, I_sub_cg_cp_rs1_b0, I_sub_cg_cp_rs1_b0_str)
      54:	00012203          	lw	x4,0(x2)
      58:	01f20863          	beq	x4,x31,68 <I_sub_cg_cp_rs1_b0+0x18>
      5c:	480042ef          	jal	x5,44dc <failedtest_x5_x4>
      60:	00000050          	.word	0x00000050
      64:	00008d50          	.word	0x00008d50
      68:	00410113          	addi	x2,x2,4

# Testcase cp_rs1 (Test source rs1 = x1)
  RVTEST_TESTDATA_LOAD_INT(x3, x1) # load rs1: x1 = 0xa3261797
      6c:	0001a083          	lw	x1,0(x3)
      70:	00418193          	addi	x3,x3,4
  RVTEST_TESTDATA_LOAD_INT(x3, x16) # load rs2: x16 = 0x1329fd5e
      74:	0001a803          	lw	x16,0(x3)
      78:	00418193          	addi	x3,x3,4

0000007c <I_sub_cg_cp_rs1_b1>:
I_sub_cg_cp_rs1_b1:
  sub x21, x1, x16 # perform operation
      7c:	41008ab3          	sub	x21,x1,x16
  # Check if x21 contains the expected result. x2 is the signature ptr, x5 is the link ptr, x4 is a temp reg.
  RVTEST_SIGUPD(x2, x5, x4, x21, I_sub_cg_cp_rs1_b1, I_sub_cg_cp_rs1_b1_str)
      80:	00012203          	lw	x4,0(x2)
      84:	01520863          	beq	x4,x21,94 <I_sub_cg_cp_rs1_b1+0x18>
      88:	454042ef          	jal	x5,44dc <failedtest_x5_x4>
      8c:	0000007c          	.word	0x0000007c
      90:	00008d7d          	.word	0x00008d7d
      94:	00410113          	addi	x2,x2,4

  mv x24, x2 # switch signature pointer register to avoid conflict with test
      98:	00010c13          	addi	x24,x2,0
# Testcase cp_rs1 (Test source rs1 = x2)
  RVTEST_TESTDATA_LOAD_INT(x3, x2) # load rs1: x2 = 0x64050eb9
      9c:	0001a103          	lw	x2,0(x3)
      a0:	00418193          	addi	x3,x3,4
  RVTEST_TESTDATA_LOAD_INT(x3, x12) # load rs2: x12 = 0xdc5dfa24
      a4:	0001a603          	lw	x12,0(x3)
      a8:	00418193          	addi	x3,x3,4

000000ac <I_sub_cg_cp_rs1_b2>:
I_sub_cg_cp_rs1_b2:
  sub x27, x2, x12 # perform operation
      ac:	40c10db3          	sub	x27,x2,x12
  # Check if x27 contains the expected result. x24 is the signature ptr, x5 is the link ptr, x4 is a temp reg.
  RVTEST_SIGUPD(x24, x5, x4, x27, I_sub_cg_cp_rs1_b2, I_sub_cg_cp_rs1_b2_str)
      b0:	000c2203          	lw	x4,0(x24)
      b4:	01b20863          	beq	x4,x27,c4 <I_sub_cg_cp_rs1_b2+0x18>
      b8:	424042ef          	jal	x5,44dc <failedtest_x5_x4>
      bc:	000000ac          	.word	0x000000ac
      c0:	00008daa          	.word	0x00008daa
      c4:	004c0c13          	addi	x24,x24,4

  mv x27, x3 # switch data pointer register to avoid conflict with test
      c8:	00018d93          	addi	x27,x3,0
# Testcase cp_rs1 (Test source rs1 = x3)
  RVTEST_TESTDATA_LOAD_INT(x27, x3) # load rs1: x3 = 0x501dd831
      cc:	000da183          	lw	x3,0(x27)
      d0:	004d8d93          	addi	x27,x27,4
  RVTEST_TESTDATA_LOAD_INT(x27, x9) # load rs2: x9 = 0xb612a486
      d4:	000da483          	lw	x9,0(x27)
      d8:	004d8d93          	addi	x27,x27,4

000000dc <I_sub_cg_cp_rs1_b3>:
I_sub_cg_cp_rs1_b3:
  sub x30, x3, x9 # perform operation
      dc:	40918f33          	sub	x30,x3,x9
  # Check if x30 contains the expected result. x24 is the signature ptr, x5 is the link ptr, x4 is a temp reg.
  RVTEST_SIGUPD(x24, x5, x4, x30, I_sub_cg_cp_rs1_b3, I_sub_cg_cp_rs1_b3_str)
      e0:	000c2203          	lw	x4,0(x24)
      e4:	01e20863          	beq	x4,x30,f4 <I_sub_cg_cp_rs1_b3+0x18>
      e8:	3f4042ef          	jal	x5,44dc <failedtest_x5_x4>
      ec:	000000dc          	.word	0x000000dc
      f0:	00008dd7          	.word	0x00008dd7
      f4:	004c0c13          	addi	x24,x24,4

  mv x13, x4 # switch temp register to avoid conflict with test
      f8:	00020693          	addi	x13,x4,0 # 0 <rvtest_entry_point>
  mv x14, x5 # switch link pointer register to avoid conflict with test
      fc:	00028713          	addi	x14,x5,0
# Testcase cp_rs1 (Test source rs1 = x4)
  RVTEST_TESTDATA_LOAD_INT(x27, x4) # load rs1: x4 = 0x9bfd6095
     100:	000da203          	lw	x4,0(x27)
     104:	004d8d93          	addi	x27,x27,4
  RVTEST_TESTDATA_LOAD_INT(x27, x10) # load rs2: x10 = 0x8e05331b
     108:	000da503          	lw	x10,0(x27)
     10c:	004d8d93          	addi	x27,x27,4

00000110 <I_sub_cg_cp_rs1_b4>:
I_sub_cg_cp_rs1_b4:
  sub x5, x4, x10 # perform operation
     110:	40a202b3          	sub	x5,x4,x10
  # Check if x5 contains the expected result. x24 is the signature ptr, x14 is the link ptr, x13 is a temp reg.
  RVTEST_SIGUPD(x24, x14, x13, x5, I_sub_cg_cp_rs1_b4, I_sub_cg_cp_rs1_b4_str)
     114:	000c2683          	lw	x13,0(x24)
     118:	00568863          	beq	x13,x5,128 <I_sub_cg_cp_rs1_b4+0x18>
     11c:	4000476f          	jal	x14,451c <failedtest_x14_x13>
     120:	00000110          	.word	0x00000110
     124:	00008e04          	.word	0x00008e04
     128:	004c0c13          	addi	x24,x24,4

# Testcase cp_rs1 (Test source rs1 = x5)
  RVTEST_TESTDATA_LOAD_INT(x27, x5) # load rs1: x5 = 0x3fb0fa12
     12c:	000da283          	lw	x5,0(x27)
     130:	004d8d93          	addi	x27,x27,4
  RVTEST_TESTDATA_LOAD_INT(x27, x21) # load rs2: x21 = 0x7c5408f2
     134:	000daa83          	lw	x21,0(x27)
     138:	004d8d93          	addi	x27,x27,4

0000013c <I_sub_cg_cp_rs1_b5>:
I_sub_cg_cp_rs1_b5:
  sub x9, x5, x21 # perform operation
     13c:	415284b3          	sub	x9,x5,x21
  # Check if x9 contains the expected result. x24 is the signature ptr, x14 is the link ptr, x13 is a temp reg.
  RVTEST_SIGUPD(x24, x14, x13, x9, I_sub_cg_cp_rs1_b5, I_sub_cg_cp_rs1_b5_str)
     140:	000c2683          	lw	x13,0(x24)
     144:	00968863          	beq	x13,x9,154 <I_sub_cg_cp_rs1_b5+0x18>
     148:	3d40476f          	jal	x14,451c <failedtest_x14_x13>
     14c:	0000013c          	.word	0x0000013c
     150:	00008e31          	.word	0x00008e31
     154:	004c0c13          	addi	x24,x24,4

# Testcase cp_rs1 (Test source rs1 = x6)
  RVTEST_TESTDATA_LOAD_INT(x27, x6) # load rs1: x6 = 0x7e8fcd03
     158:	000da303          	lw	x6,0(x27)
     15c:	004d8d93          	addi	x27,x27,4
  RVTEST_TESTDATA_LOAD_INT(x27, x2) # load rs2: x2 = 0x0602aba2
     160:	000da103          	lw	x2,0(x27)
     164:	004d8d93          	addi	x27,x27,4

00000168 <I_sub_cg_cp_rs1_b6>:
I_sub_cg_cp_rs1_b6:
  sub x5, x6, x2 # perform operation
     168:	402302b3          	sub	x5,x6,x2
  # Check if x5 contains the expected result. x24 is the signature ptr, x14 is the link ptr, x13 is a temp reg.
  RVTEST_SIGUPD(x24, x14, x13, x5, I_sub_cg_cp_rs1_b6, I_sub_cg_cp_rs1_b6_str)
     16c:	000c2683          	lw	x13,0(x24)
     170:	00568863          	beq	x13,x5,180 <I_sub_cg_cp_rs1_b6+0x18>
     174:	3a80476f          	jal	x14,451c <failedtest_x14_x13>
     178:	00000168          	.word	0x00000168
     17c:	00008e5e          	.word	0x00008e5e
     180:	004c0c13          	addi	x24,x24,4

# Testcase cp_rs1 (Test source rs1 = x7)
  RVTEST_TESTDATA_LOAD_INT(x27, x7) # load rs1: x7 = 0x93695800
     184:	000da383          	lw	x7,0(x27)
     188:	004d8d93          	addi	x27,x27,4
  RVTEST_TESTDATA_LOAD_INT(x27, x16) # load rs2: x16 = 0x99f018a4
     18c:	000da803          	lw	x16,0(x27)
     190:	004d8d93          	addi	x27,x27,4

00000194 <I_sub_cg_cp_rs1_b7>:
I_sub_cg_cp_rs1_b7:
  sub x23, x7, x16 # perform operation
     194:	41038bb3          	sub	x23,x7,x16
  # Check if x23 contains the expected result. x24 is the signature ptr, x14 is the link ptr, x13 is a temp reg.
  RVTEST_SIGUPD(x24, x14, x13, x23, I_sub_cg_cp_rs1_b7, I_sub_cg_cp_rs1_b7_str)
     198:	000c2683          	lw	x13,0(x24)
     19c:	01768863          	beq	x13,x23,1ac <I_sub_cg_cp_rs1_b7+0x18>
     1a0:	37c0476f          	jal	x14,451c <failedtest_x14_x13>
     1a4:	00000194          	.word	0x00000194
     1a8:	00008e8b          	.word	0x00008e8b
     1ac:	004c0c13          	addi	x24,x24,4

# Testcase cp_rs1 (Test source rs1 = x8)
  RVTEST_TESTDATA_LOAD_INT(x27, x8) # load rs1: x8 = 0x6a6e0bad
     1b0:	000da403          	lw	x8,0(x27)
     1b4:	004d8d93          	addi	x27,x27,4
  RVTEST_TESTDATA_LOAD_INT(x27, x31) # load rs2: x31 = 0xbf178292
     1b8:	000daf83          	lw	x31,0(x27)
     1bc:	004d8d93          	addi	x27,x27,4

000001c0 <I_sub_cg_cp_rs1_b8>:
I_sub_cg_cp_rs1_b8:
  sub x7, x8, x31 # perform operation
     1c0:	41f403b3          	sub	x7,x8,x31
  # Check if x7 contains the expected result. x24 is the signature ptr, x14 is the link ptr, x13 is a temp reg.
  RVTEST_SIGUPD(x24, x14, x13, x7, I_sub_cg_cp_rs1_b8, I_sub_cg_cp_rs1_b8_str)
     1c4:	000c2683          	lw	x13,0(x24)
     1c8:	00768863          	beq	x13,x7,1d8 <I_sub_cg_cp_rs1_b8+0x18>
     1cc:	3500476f          	jal	x14,451c <failedtest_x14_x13>
     1d0:	000001c0          	.word	0x000001c0
     1d4:	00008eb8          	.word	0x00008eb8
     1d8:	004c0c13          	addi	x24,x24,4

# Testcase cp_rs1 (Test source rs1 = x9)
  RVTEST_TESTDATA_LOAD_INT(x27, x9) # load rs1: x9 = 0xbd1f62e1
     1dc:	000da483          	lw	x9,0(x27)
     1e0:	004d8d93          	addi	x27,x27,4
  RVTEST_TESTDATA_LOAD_INT(x27, x1) # load rs2: x1 = 0xbc074215
     1e4:	000da083          	lw	x1,0(x27)
     1e8:	004d8d93          	addi	x27,x27,4

000001ec <I_sub_cg_cp_rs1_b9>:
I_sub_cg_cp_rs1_b9:
  sub x18, x9, x1 # perform operation
     1ec:	40148933          	sub	x18,x9,x1
  # Check if x18 contains the expected result. x24 is the signature ptr, x14 is the link ptr, x13 is a temp reg.
  RVTEST_SIGUPD(x24, x14, x13, x18, I_sub_cg_cp_rs1_b9, I_sub_cg_cp_rs1_b9_str)
     1f0:	000c2683          	lw	x13,0(x24)
     1f4:	01268863          	beq	x13,x18,204 <I_sub_cg_cp_rs1_b9+0x18>
     1f8:	3240476f          	jal	x14,451c <failedtest_x14_x13>
     1fc:	000001ec          	.word	0x000001ec
     200:	00008ee5          	.word	0x00008ee5
     204:	004c0c13          	addi	x24,x24,4

# Testcase cp_rs1 (Test source rs1 = x10)
  RVTEST_TESTDATA_LOAD_INT(x27, x10) # load rs1: x10 = 0xd5bc42b2
     208:	000da503          	lw	x10,0(x27)
     20c:	004d8d93          	addi	x27,x27,4
  RVTEST_TESTDATA_LOAD_INT(x27, x20) # load rs2: x20 = 0x6257bc19
     210:	000daa03          	lw	x20,0(x27)
     214:	004d8d93          	addi	x27,x27,4

00000218 <I_sub_cg_cp_rs1_b10>:
I_sub_cg_cp_rs1_b10:
  sub x18, x10, x20 # perform operation
     218:	41450933          	sub	x18,x10,x20
  # Check if x18 contains the expected result. x24 is the signature ptr, x14 is the link ptr, x13 is a temp reg.
  RVTEST_SIGUPD(x24, x14, x13, x18, I_sub_cg_cp_rs1_b10, I_sub_cg_cp_rs1_b10_str)
     21c:	000c2683          	lw	x13,0(x24)
     220:	01268863          	beq	x13,x18,230 <I_sub_cg_cp_rs1_b10+0x18>
     224:	2f80476f          	jal	x14,451c <failedtest_x14_x13>
     228:	00000218          	.word	0x00000218
     22c:	00008f13          	.word	0x00008f13
     230:	004c0c13          	addi	x24,x24,4

# Testcase cp_rs1 (Test source rs1 = x11)
  RVTEST_TESTDATA_LOAD_INT(x27, x11) # load rs1: x11 = 0x28035f58
     234:	000da583          	lw	x11,0(x27)
     238:	004d8d93          	addi	x27,x27,4
  RVTEST_TESTDATA_LOAD_INT(x27, x22) # load rs2: x22 = 0x02858110
     23c:	000dab03          	lw	x22,0(x27)
     240:	004d8d93          	addi	x27,x27,4

00000244 <I_sub_cg_cp_rs1_b11>:
I_sub_cg_cp_rs1_b11:
  sub x19, x11, x22 # perform operation
     244:	416589b3          	sub	x19,x11,x22
  # Check if x19 contains the expected result. x24 is the signature ptr, x14 is the link ptr, x13 is a temp reg.
  RVTEST_SIGUPD(x24, x14, x13, x19, I_sub_cg_cp_rs1_b11, I_sub_cg_cp_rs1_b11_str)
     248:	000c2683          	lw	x13,0(x24)
     24c:	01368863          	beq	x13,x19,25c <I_sub_cg_cp_rs1_b11+0x18>
     250:	2cc0476f          	jal	x14,451c <failedtest_x14_x13>
     254:	00000244          	.word	0x00000244
     258:	00008f42          	.word	0x00008f42
     25c:	004c0c13          	addi	x24,x24,4

# Testcase cp_rs1 (Test source rs1 = x12)
  RVTEST_TESTDATA_LOAD_INT(x27, x12) # load rs1: x12 = 0xbdbf3fbc
     260:	000da603          	lw	x12,0(x27)
     264:	004d8d93          	addi	x27,x27,4
  RVTEST_TESTDATA_LOAD_INT(x27, x20) # load rs2: x20 = 0xb79f277a
     268:	000daa03          	lw	x20,0(x27)
     26c:	004d8d93          	addi	x27,x27,4

00000270 <I_sub_cg_cp_rs1_b12>:
I_sub_cg_cp_rs1_b12:
  sub x30, x12, x20 # perform operation
     270:	41460f33          	sub	x30,x12,x20
  # Check if x30 contains the expected result. x24 is the signature ptr, x14 is the link ptr, x13 is a temp reg.
  RVTEST_SIGUPD(x24, x14, x13, x30, I_sub_cg_cp_rs1_b12, I_sub_cg_cp_rs1_b12_str)
     274:	000c2683          	lw	x13,0(x24)
     278:	01e68863          	beq	x13,x30,288 <I_sub_cg_cp_rs1_b12+0x18>
     27c:	2a00476f          	jal	x14,451c <failedtest_x14_x13>
     280:	00000270          	.word	0x00000270
     284:	00008f71          	.word	0x00008f71
     288:	004c0c13          	addi	x24,x24,4

  mv x4, x13 # switch temp register to avoid conflict with test
     28c:	00068213          	addi	x4,x13,0
  mv x5, x14 # switch link pointer register to avoid conflict with test
     290:	00070293          	addi	x5,x14,0
# Testcase cp_rs1 (Test source rs1 = x13)
  RVTEST_TESTDATA_LOAD_INT(x27, x13) # load rs1: x13 = 0xc9a716de
     294:	000da683          	lw	x13,0(x27)
     298:	004d8d93          	addi	x27,x27,4
  RVTEST_TESTDATA_LOAD_INT(x27, x7) # load rs2: x7 = 0x1b7a4cba
     29c:	000da383          	lw	x7,0(x27)
     2a0:	004d8d93          	addi	x27,x27,4

000002a4 <I_sub_cg_cp_rs1_b13>:
I_sub_cg_cp_rs1_b13:
  sub x23, x13, x7 # perform operation
     2a4:	40768bb3          	sub	x23,x13,x7
  # Check if x23 contains the expected result. x24 is the signature ptr, x5 is the link ptr, x4 is a temp reg.
  RVTEST_SIGUPD(x24, x5, x4, x23, I_sub_cg_cp_rs1_b13, I_sub_cg_cp_rs1_b13_str)
     2a8:	000c2203          	lw	x4,0(x24)
     2ac:	01720863          	beq	x4,x23,2bc <I_sub_cg_cp_rs1_b13+0x18>
     2b0:	22c042ef          	jal	x5,44dc <failedtest_x5_x4>
     2b4:	000002a4          	.word	0x000002a4
     2b8:	00008fa0          	.word	0x00008fa0
     2bc:	004c0c13          	addi	x24,x24,4

# Testcase cp_rs1 (Test source rs1 = x14)
  RVTEST_TESTDATA_LOAD_INT(x27, x14) # load rs1: x14 = 0xceb4e163
     2c0:	000da703          	lw	x14,0(x27)
     2c4:	004d8d93          	addi	x27,x27,4
  RVTEST_TESTDATA_LOAD_INT(x27, x29) # load rs2: x29 = 0x6b043c3d
     2c8:	000dae83          	lw	x29,0(x27)
     2cc:	004d8d93          	addi	x27,x27,4

000002d0 <I_sub_cg_cp_rs1_b14>:
I_sub_cg_cp_rs1_b14:
  sub x0, x14, x29 # perform operation
     2d0:	41d70033          	sub	x0,x14,x29
  # Check if x0 contains the expected result. x24 is the signature ptr, x5 is the link ptr, x4 is a temp reg.
  RVTEST_SIGUPD(x24, x5, x4, x0, I_sub_cg_cp_rs1_b14, I_sub_cg_cp_rs1_b14_str)
     2d4:	000c2203          	lw	x4,0(x24)
     2d8:	00020863          	beq	x4,x0,2e8 <I_sub_cg_cp_rs1_b14+0x18>
     2dc:	200042ef          	jal	x5,44dc <failedtest_x5_x4>
     2e0:	000002d0          	.word	0x000002d0
     2e4:	00008fcf          	.word	0x00008fcf
     2e8:	004c0c13          	addi	x24,x24,4

# Testcase cp_rs1 (Test source rs1 = x15)
  RVTEST_TESTDATA_LOAD_INT(x27, x15) # load rs1: x15 = 0xffb00acc
     2ec:	000da783          	lw	x15,0(x27)
     2f0:	004d8d93          	addi	x27,x27,4
  RVTEST_TESTDATA_LOAD_INT(x27, x28) # load rs2: x28 = 0x036cb930
     2f4:	000dae03          	lw	x28,0(x27)
     2f8:	004d8d93          	addi	x27,x27,4

000002fc <I_sub_cg_cp_rs1_b15>:
I_sub_cg_cp_rs1_b15:
  sub x2, x15, x28 # perform operation
     2fc:	41c78133          	sub	x2,x15,x28
  # Check if x2 contains the expected result. x24 is the signature ptr, x5 is the link ptr, x4 is a temp reg.
  RVTEST_SIGUPD(x24, x5, x4, x2, I_sub_cg_cp_rs1_b15, I_sub_cg_cp_rs1_b15_str)
     300:	000c2203          	lw	x4,0(x24)
     304:	00220863          	beq	x4,x2,314 <imm12+0xb>
     308:	1d4042ef          	jal	x5,44dc <failedtest_x5_x4>
     30c:	000002fc          	.word	0x000002fc
     310:	00008ffe          	.word	0x00008ffe
     314:	004c0c13          	addi	x24,x24,4

# Testcase cp_rs1 (Test source rs1 = x16)
  RVTEST_TESTDATA_LOAD_INT(x27, x16) # load rs1: x16 = 0xcbf35c7d
     318:	000da803          	lw	x16,0(x27)
     31c:	004d8d93          	addi	x27,x27,4
  RVTEST_TESTDATA_LOAD_INT(x27, x22) # load rs2: x22 = 0x5a67b7a4
     320:	000dab03          	lw	x22,0(x27)
     324:	004d8d93          	addi	x27,x27,4

00000328 <I_sub_cg_cp_rs1_b16>:
I_sub_cg_cp_rs1_b16:
  sub x29, x16, x22 # perform operation
     328:	41680eb3          	sub	x29,x16,x22
  # Check if x29 contains the expected result. x24 is the signature ptr, x5 is the link ptr, x4 is a temp reg.
  RVTEST_SIGUPD(x24, x5, x4, x29, I_sub_cg_cp_rs1_b16, I_sub_cg_cp_rs1_b16_str)
     32c:	000c2203          	lw	x4,0(x24)
     330:	01d20863          	beq	x4,x29,340 <I_sub_cg_cp_rs1_b16+0x18>
     334:	1a8042ef          	jal	x5,44dc <failedtest_x5_x4>
     338:	00000328          	.word	0x00000328
     33c:	0000902d          	.word	0x0000902d
     340:	004c0c13          	addi	x24,x24,4

# Testcase cp_rs1 (Test source rs1 = x17)
  RVTEST_TESTDATA_LOAD_INT(x27, x17) # load rs1: x17 = 0xe0a6c42a
     344:	000da883          	lw	x17,0(x27)
     348:	004d8d93          	addi	x27,x27,4
  RVTEST_TESTDATA_LOAD_INT(x27, x12) # load rs2: x12 = 0x84fc638a
     34c:	000da603          	lw	x12,0(x27)
     350:	004d8d93          	addi	x27,x27,4

00000354 <I_sub_cg_cp_rs1_b17>:
I_sub_cg_cp_rs1_b17:
  sub x20, x17, x12 # perform operation
     354:	40c88a33          	sub	x20,x17,x12
  # Check if x20 contains the expected result. x24 is the signature ptr, x5 is the link ptr, x4 is a temp reg.
  RVTEST_SIGUPD(x24, x5, x4, x20, I_sub_cg_cp_rs1_b17, I_sub_cg_cp_rs1_b17_str)
     358:	000c2203          	lw	x4,0(x24)
     35c:	01420863          	beq	x4,x20,36c <I_sub_cg_cp_rs1_b17+0x18>
     360:	17c042ef          	jal	x5,44dc <failedtest_x5_x4>
     364:	00000354          	.word	0x00000354
     368:	0000905c          	.word	0x0000905c
     36c:	004c0c13          	addi	x24,x24,4

# Testcase cp_rs1 (Test source rs1 = x18)
  RVTEST_TESTDATA_LOAD_INT(x27, x18) # load rs1: x18 = 0x7657bfaf
     370:	000da903          	lw	x18,0(x27)
     374:	004d8d93          	addi	x27,x27,4
  RVTEST_TESTDATA_LOAD_INT(x27, x3) # load rs2: x3 = 0xc0b3cd70
     378:	000da183          	lw	x3,0(x27)
     37c:	004d8d93          	addi	x27,x27,4

00000380 <I_sub_cg_cp_rs1_b18>:
I_sub_cg_cp_rs1_b18:
  sub x8, x18, x3 # perform operation
     380:	40390433          	sub	x8,x18,x3
  # Check if x8 contains the expected result. x24 is the signature ptr, x5 is the link ptr, x4 is a temp reg.
  RVTEST_SIGUPD(x24, x5, x4, x8, I_sub_cg_cp_rs1_b18, I_sub_cg_cp_rs1_b18_str)
     384:	000c2203          	lw	x4,0(x24)
     388:	00820863          	beq	x4,x8,398 <I_sub_cg_cp_rs1_b18+0x18>
     38c:	150042ef          	jal	x5,44dc <failedtest_x5_x4>
     390:	00000380          	.word	0x00000380
     394:	0000908b          	.word	0x0000908b
     398:	004c0c13          	addi	x24,x24,4

# Testcase cp_rs1 (Test source rs1 = x19)
  RVTEST_TESTDATA_LOAD_INT(x27, x19) # load rs1: x19 = 0xce0fb16f
     39c:	000da983          	lw	x19,0(x27)
     3a0:	004d8d93          	addi	x27,x27,4
  RVTEST_TESTDATA_LOAD_INT(x27, x9) # load rs2: x9 = 0x1c27ca40
     3a4:	000da483          	lw	x9,0(x27)
     3a8:	004d8d93          	addi	x27,x27,4

000003ac <I_sub_cg_cp_rs1_b19>:
I_sub_cg_cp_rs1_b19:
  sub x8, x19, x9 # perform operation
     3ac:	40998433          	sub	x8,x19,x9
  # Check if x8 contains the expected result. x24 is the signature ptr, x5 is the link ptr, x4 is a temp reg.
  RVTEST_SIGUPD(x24, x5, x4, x8, I_sub_cg_cp_rs1_b19, I_sub_cg_cp_rs1_b19_str)
     3b0:	000c2203          	lw	x4,0(x24)
     3b4:	00820863          	beq	x4,x8,3c4 <I_sub_cg_cp_rs1_b19+0x18>
     3b8:	124042ef          	jal	x5,44dc <failedtest_x5_x4>
     3bc:	000003ac          	.word	0x000003ac
     3c0:	000090ba          	.word	0x000090ba
     3c4:	004c0c13          	addi	x24,x24,4

# Testcase cp_rs1 (Test source rs1 = x20)
  RVTEST_TESTDATA_LOAD_INT(x27, x20) # load rs1: x20 = 0x8cbb85a2
     3c8:	000daa03          	lw	x20,0(x27)
     3cc:	004d8d93          	addi	x27,x27,4
  RVTEST_TESTDATA_LOAD_INT(x27, x13) # load rs2: x13 = 0xdb8e18c6
     3d0:	000da683          	lw	x13,0(x27)
     3d4:	004d8d93          	addi	x27,x27,4

000003d8 <I_sub_cg_cp_rs1_b20>:
I_sub_cg_cp_rs1_b20:
  sub x19, x20, x13 # perform operation
     3d8:	40da09b3          	sub	x19,x20,x13
  # Check if x19 contains the expected result. x24 is the signature ptr, x5 is the link ptr, x4 is a temp reg.
  RVTEST_SIGUPD(x24, x5, x4, x19, I_sub_cg_cp_rs1_b20, I_sub_cg_cp_rs1_b20_str)
     3dc:	000c2203          	lw	x4,0(x24)
     3e0:	01320863          	beq	x4,x19,3f0 <I_sub_cg_cp_rs1_b20+0x18>
     3e4:	0f8042ef          	jal	x5,44dc <failedtest_x5_x4>
     3e8:	000003d8          	.word	0x000003d8
     3ec:	000090e9          	.word	0x000090e9
     3f0:	004c0c13          	addi	x24,x24,4

# Testcase cp_rs1 (Test source rs1 = x21)
  RVTEST_TESTDATA_LOAD_INT(x27, x21) # load rs1: x21 = 0x7bfbe2d6
     3f4:	000daa83          	lw	x21,0(x27)
     3f8:	004d8d93          	addi	x27,x27,4
  RVTEST_TESTDATA_LOAD_INT(x27, x17) # load rs2: x17 = 0xe0e44daf
     3fc:	000da883          	lw	x17,0(x27)
     400:	004d8d93          	addi	x27,x27,4

00000404 <I_sub_cg_cp_rs1_b21>:
I_sub_cg_cp_rs1_b21:
  sub x22, x21, x17 # perform operation
     404:	411a8b33          	sub	x22,x21,x17
  # Check if x22 contains the expected result. x24 is the signature ptr, x5 is the link ptr, x4 is a temp reg.
  RVTEST_SIGUPD(x24, x5, x4, x22, I_sub_cg_cp_rs1_b21, I_sub_cg_cp_rs1_b21_str)
     408:	000c2203          	lw	x4,0(x24)
     40c:	01620863          	beq	x4,x22,41c <I_sub_cg_cp_rs1_b21+0x18>
     410:	0cc042ef          	jal	x5,44dc <failedtest_x5_x4>
     414:	00000404          	.word	0x00000404
     418:	00009118          	.word	0x00009118
     41c:	004c0c13          	addi	x24,x24,4

# Testcase cp_rs1 (Test source rs1 = x22)
  RVTEST_TESTDATA_LOAD_INT(x27, x22) # load rs1: x22 = 0x29ac8d41
     420:	000dab03          	lw	x22,0(x27)
     424:	004d8d93          	addi	x27,x27,4
  RVTEST_TESTDATA_LOAD_INT(x27, x20) # load rs2: x20 = 0x92a96c7a
     428:	000daa03          	lw	x20,0(x27)
     42c:	004d8d93          	addi	x27,x27,4

00000430 <I_sub_cg_cp_rs1_b22>:
I_sub_cg_cp_rs1_b22:
  sub x7, x22, x20 # perform operation
     430:	414b03b3          	sub	x7,x22,x20
  # Check if x7 contains the expected result. x24 is the signature ptr, x5 is the link ptr, x4 is a temp reg.
  RVTEST_SIGUPD(x24, x5, x4, x7, I_sub_cg_cp_rs1_b22, I_sub_cg_cp_rs1_b22_str)
     434:	000c2203          	lw	x4,0(x24)
     438:	00720863          	beq	x4,x7,448 <I_sub_cg_cp_rs1_b22+0x18>
     43c:	0a0042ef          	jal	x5,44dc <failedtest_x5_x4>
     440:	00000430          	.word	0x00000430
     444:	00009147          	.word	0x00009147
     448:	004c0c13          	addi	x24,x24,4

# Testcase cp_rs1 (Test source rs1 = x23)
  RVTEST_TESTDATA_LOAD_INT(x27, x23) # load rs1: x23 = 0xbaf4d8f3
     44c:	000dab83          	lw	x23,0(x27)
     450:	004d8d93          	addi	x27,x27,4
  RVTEST_TESTDATA_LOAD_INT(x27, x25) # load rs2: x25 = 0x0a502610
     454:	000dac83          	lw	x25,0(x27)
     458:	004d8d93          	addi	x27,x27,4

0000045c <I_sub_cg_cp_rs1_b23>:
I_sub_cg_cp_rs1_b23:
  sub x20, x23, x25 # perform operation
     45c:	419b8a33          	sub	x20,x23,x25
  # Check if x20 contains the expected result. x24 is the signature ptr, x5 is the link ptr, x4 is a temp reg.
  RVTEST_SIGUPD(x24, x5, x4, x20, I_sub_cg_cp_rs1_b23, I_sub_cg_cp_rs1_b23_str)
     460:	000c2203          	lw	x4,0(x24)
     464:	01420863          	beq	x4,x20,474 <I_sub_cg_cp_rs1_b23+0x18>
     468:	074042ef          	jal	x5,44dc <failedtest_x5_x4>
     46c:	0000045c          	.word	0x0000045c
     470:	00009176          	.word	0x00009176
     474:	004c0c13          	addi	x24,x24,4

  mv x26, x24 # switch signature pointer register to avoid conflict with test
     478:	000c0d13          	addi	x26,x24,0
# Testcase cp_rs1 (Test source rs1 = x24)
  RVTEST_TESTDATA_LOAD_INT(x27, x24) # load rs1: x24 = 0x7f822540
     47c:	000dac03          	lw	x24,0(x27)
     480:	004d8d93          	addi	x27,x27,4
  RVTEST_TESTDATA_LOAD_INT(x27, x23) # load rs2: x23 = 0x08002c32
     484:	000dab83          	lw	x23,0(x27)
     488:	004d8d93          	addi	x27,x27,4

0000048c <I_sub_cg_cp_rs1_b24>:
I_sub_cg_cp_rs1_b24:
  sub x3, x24, x23 # perform operation
     48c:	417c01b3          	sub	x3,x24,x23
  # Check if x3 contains the expected result. x26 is the signature ptr, x5 is the link ptr, x4 is a temp reg.
  RVTEST_SIGUPD(x26, x5, x4, x3, I_sub_cg_cp_rs1_b24, I_sub_cg_cp_rs1_b24_str)
     490:	000d2203          	lw	x4,0(x26)
     494:	00320863          	beq	x4,x3,4a4 <I_sub_cg_cp_rs1_b24+0x18>
     498:	044042ef          	jal	x5,44dc <failedtest_x5_x4>
     49c:	0000048c          	.word	0x0000048c
     4a0:	000091a5          	.word	0x000091a5
     4a4:	004d0d13          	addi	x26,x26,4

# Testcase cp_rs1 (Test source rs1 = x25)
  RVTEST_TESTDATA_LOAD_INT(x27, x25) # load rs1: x25 = 0x7170fbd5
     4a8:	000dac83          	lw	x25,0(x27)
     4ac:	004d8d93          	addi	x27,x27,4
  RVTEST_TESTDATA_LOAD_INT(x27, x13) # load rs2: x13 = 0xadfd16d5
     4b0:	000da683          	lw	x13,0(x27)
     4b4:	004d8d93          	addi	x27,x27,4

000004b8 <I_sub_cg_cp_rs1_b25>:
I_sub_cg_cp_rs1_b25:
  sub x3, x25, x13 # perform operation
     4b8:	40dc81b3          	sub	x3,x25,x13
  # Check if x3 contains the expected result. x26 is the signature ptr, x5 is the link ptr, x4 is a temp reg.
  RVTEST_SIGUPD(x26, x5, x4, x3, I_sub_cg_cp_rs1_b25, I_sub_cg_cp_rs1_b25_str)
     4bc:	000d2203          	lw	x4,0(x26)
     4c0:	00320863          	beq	x4,x3,4d0 <I_sub_cg_cp_rs1_b25+0x18>
     4c4:	018042ef          	jal	x5,44dc <failedtest_x5_x4>
     4c8:	000004b8          	.word	0x000004b8
     4cc:	000091d4          	.word	0x000091d4
     4d0:	004d0d13          	addi	x26,x26,4

  mv x29, x26 # switch signature pointer register to avoid conflict with test
     4d4:	000d0e93          	addi	x29,x26,0
# Testcase cp_rs1 (Test source rs1 = x26)
  RVTEST_TESTDATA_LOAD_INT(x27, x26) # load rs1: x26 = 0x85103366
     4d8:	000dad03          	lw	x26,0(x27)
     4dc:	004d8d93          	addi	x27,x27,4
  RVTEST_TESTDATA_LOAD_INT(x27, x15) # load rs2: x15 = 0x90a38481
     4e0:	000da783          	lw	x15,0(x27)
     4e4:	004d8d93          	addi	x27,x27,4

000004e8 <I_sub_cg_cp_rs1_b26>:
I_sub_cg_cp_rs1_b26:
  sub x30, x26, x15 # perform operation
     4e8:	40fd0f33          	sub	x30,x26,x15
  # Check if x30 contains the expected result. x29 is the signature ptr, x5 is the link ptr, x4 is a temp reg.
  RVTEST_SIGUPD(x29, x5, x4, x30, I_sub_cg_cp_rs1_b26, I_sub_cg_cp_rs1_b26_str)
     4ec:	000ea203          	lw	x4,0(x29)
     4f0:	01e20863          	beq	x4,x30,500 <I_sub_cg_cp_rs1_b26+0x18>
     4f4:	7e9032ef          	jal	x5,44dc <failedtest_x5_x4>
     4f8:	000004e8          	.word	0x000004e8
     4fc:	00009203          	.word	0x00009203
     500:	004e8e93          	addi	x29,x29,4

  mv x31, x27 # switch data pointer register to avoid conflict with test
     504:	000d8f93          	addi	x31,x27,0
# Testcase cp_rs1 (Test source rs1 = x27)
  RVTEST_TESTDATA_LOAD_INT(x31, x27) # load rs1: x27 = 0x220f4b30
     508:	000fad83          	lw	x27,0(x31)
     50c:	004f8f93          	addi	x31,x31,4
  RVTEST_TESTDATA_LOAD_INT(x31, x25) # load rs2: x25 = 0xd400feab
     510:	000fac83          	lw	x25,0(x31)
     514:	004f8f93          	addi	x31,x31,4

00000518 <I_sub_cg_cp_rs1_b27>:
I_sub_cg_cp_rs1_b27:
  sub x30, x27, x25 # perform operation
     518:	419d8f33          	sub	x30,x27,x25
  # Check if x30 contains the expected result. x29 is the signature ptr, x5 is the link ptr, x4 is a temp reg.
  RVTEST_SIGUPD(x29, x5, x4, x30, I_sub_cg_cp_rs1_b27, I_sub_cg_cp_rs1_b27_str)
     51c:	000ea203          	lw	x4,0(x29)
     520:	01e20863          	beq	x4,x30,530 <I_sub_cg_cp_rs1_b27+0x18>
     524:	7b9032ef          	jal	x5,44dc <failedtest_x5_x4>
     528:	00000518          	.word	0x00000518
     52c:	00009232          	.word	0x00009232
     530:	004e8e93          	addi	x29,x29,4

# Testcase cp_rs1 (Test source rs1 = x28)
  RVTEST_TESTDATA_LOAD_INT(x31, x28) # load rs1: x28 = 0x788de41b
     534:	000fae03          	lw	x28,0(x31)
     538:	004f8f93          	addi	x31,x31,4
  RVTEST_TESTDATA_LOAD_INT(x31, x2) # load rs2: x2 = 0x472e7336
     53c:	000fa103          	lw	x2,0(x31)
     540:	004f8f93          	addi	x31,x31,4

00000544 <I_sub_cg_cp_rs1_b28>:
I_sub_cg_cp_rs1_b28:
  sub x10, x28, x2 # perform operation
     544:	402e0533          	sub	x10,x28,x2
  # Check if x10 contains the expected result. x29 is the signature ptr, x5 is the link ptr, x4 is a temp reg.
  RVTEST_SIGUPD(x29, x5, x4, x10, I_sub_cg_cp_rs1_b28, I_sub_cg_cp_rs1_b28_str)
     548:	000ea203          	lw	x4,0(x29)
     54c:	00a20863          	beq	x4,x10,55c <I_sub_cg_cp_rs1_b28+0x18>
     550:	78d032ef          	jal	x5,44dc <failedtest_x5_x4>
     554:	00000544          	.word	0x00000544
     558:	00009261          	.word	0x00009261
     55c:	004e8e93          	addi	x29,x29,4

  mv x2, x29 # switch signature pointer register to avoid conflict with test
     560:	000e8113          	addi	x2,x29,0
# Testcase cp_rs1 (Test source rs1 = x29)
  RVTEST_TESTDATA_LOAD_INT(x31, x29) # load rs1: x29 = 0xe4c7b8b6
     564:	000fae83          	lw	x29,0(x31)
     568:	004f8f93          	addi	x31,x31,4
  RVTEST_TESTDATA_LOAD_INT(x31, x20) # load rs2: x20 = 0x674a5f51
     56c:	000faa03          	lw	x20,0(x31)
     570:	004f8f93          	addi	x31,x31,4

00000574 <I_sub_cg_cp_rs1_b29>:
I_sub_cg_cp_rs1_b29:
  sub x21, x29, x20 # perform operation
     574:	414e8ab3          	sub	x21,x29,x20
  # Check if x21 contains the expected result. x2 is the signature ptr, x5 is the link ptr, x4 is a temp reg.
  RVTEST_SIGUPD(x2, x5, x4, x21, I_sub_cg_cp_rs1_b29, I_sub_cg_cp_rs1_b29_str)
     578:	00012203          	lw	x4,0(x2)
     57c:	01520863          	beq	x4,x21,58c <I_sub_cg_cp_rs1_b29+0x18>
     580:	75d032ef          	jal	x5,44dc <failedtest_x5_x4>
     584:	00000574          	.word	0x00000574
     588:	00009290          	.word	0x00009290
     58c:	00410113          	addi	x2,x2,4

# Testcase cp_rs1 (Test source rs1 = x30)
  RVTEST_TESTDATA_LOAD_INT(x31, x30) # load rs1: x30 = 0xda12e803
     590:	000faf03          	lw	x30,0(x31)
     594:	004f8f93          	addi	x31,x31,4
  RVTEST_TESTDATA_LOAD_INT(x31, x1) # load rs2: x1 = 0xfa321aa2
     598:	000fa083          	lw	x1,0(x31)
     59c:	004f8f93          	addi	x31,x31,4

000005a0 <I_sub_cg_cp_rs1_b30>:
I_sub_cg_cp_rs1_b30:
  sub x14, x30, x1 # perform operation
     5a0:	401f0733          	sub	x14,x30,x1
  # Check if x14 contains the expected result. x2 is the signature ptr, x5 is the link ptr, x4 is a temp reg.
  RVTEST_SIGUPD(x2, x5, x4, x14, I_sub_cg_cp_rs1_b30, I_sub_cg_cp_rs1_b30_str)
     5a4:	00012203          	lw	x4,0(x2)
     5a8:	00e20863          	beq	x4,x14,5b8 <I_sub_cg_cp_rs1_b30+0x18>
     5ac:	731032ef          	jal	x5,44dc <failedtest_x5_x4>
     5b0:	000005a0          	.word	0x000005a0
     5b4:	000092bf          	.word	0x000092bf
     5b8:	00410113          	addi	x2,x2,4

  mv x10, x31 # switch data pointer register to avoid conflict with test
     5bc:	000f8513          	addi	x10,x31,0
# Testcase cp_rs1 (Test source rs1 = x31)
  RVTEST_TESTDATA_LOAD_INT(x10, x31) # load rs1: x31 = 0xe7259c22
     5c0:	00052f83          	lw	x31,0(x10)
     5c4:	00450513          	addi	x10,x10,4
  RVTEST_TESTDATA_LOAD_INT(x10, x9) # load rs2: x9 = 0x072958d5
     5c8:	00052483          	lw	x9,0(x10)
     5cc:	00450513          	addi	x10,x10,4

000005d0 <I_sub_cg_cp_rs1_b31>:
I_sub_cg_cp_rs1_b31:
  sub x25, x31, x9 # perform operation
     5d0:	409f8cb3          	sub	x25,x31,x9
  # Check if x25 contains the expected result. x2 is the signature ptr, x5 is the link ptr, x4 is a temp reg.
  RVTEST_SIGUPD(x2, x5, x4, x25, I_sub_cg_cp_rs1_b31, I_sub_cg_cp_rs1_b31_str)
     5d4:	00012203          	lw	x4,0(x2)
     5d8:	01920863          	beq	x4,x25,5e8 <I_sub_cg_cp_rs1_b31+0x18>
     5dc:	701032ef          	jal	x5,44dc <failedtest_x5_x4>
     5e0:	000005d0          	.word	0x000005d0
     5e4:	000092ee          	.word	0x000092ee
     5e8:	00410113          	addi	x2,x2,4
/////////////////////////////////
// cp_rs2
/////////////////////////////////

# Testcase cp_rs2 (Test source rs2 = x0)
  RVTEST_TESTDATA_LOAD_INT(x10, x30) # load rs1: x30 = 0xa9569575
     5ec:	00052f03          	lw	x30,0(x10)
     5f0:	00450513          	addi	x10,x10,4
  RVTEST_TESTDATA_LOAD_INT(x10, x0) # load rs2: x0 = 0x4e6d8f31
     5f4:	00052003          	lw	x0,0(x10)
     5f8:	00450513          	addi	x10,x10,4

000005fc <I_sub_cg_cp_rs2_b0>:
I_sub_cg_cp_rs2_b0:
  sub x9, x30, x0 # perform operation
     5fc:	400f04b3          	sub	x9,x30,x0
  # Check if x9 contains the expected result. x2 is the signature ptr, x5 is the link ptr, x4 is a temp reg.
  RVTEST_SIGUPD(x2, x5, x4, x9, I_sub_cg_cp_rs2_b0, I_sub_cg_cp_rs2_b0_str)
     600:	00012203          	lw	x4,0(x2)
     604:	00920863          	beq	x4,x9,614 <I_sub_cg_cp_rs2_b0+0x18>
     608:	6d5032ef          	jal	x5,44dc <failedtest_x5_x4>
     60c:	000005fc          	.word	0x000005fc
     610:	0000931d          	.word	0x0000931d
     614:	00410113          	addi	x2,x2,4

# Testcase cp_rs2 (Test source rs2 = x1)
  RVTEST_TESTDATA_LOAD_INT(x10, x22) # load rs1: x22 = 0xae64aeb9
     618:	00052b03          	lw	x22,0(x10)
     61c:	00450513          	addi	x10,x10,4
  RVTEST_TESTDATA_LOAD_INT(x10, x1) # load rs2: x1 = 0x6141cc44
     620:	00052083          	lw	x1,0(x10)
     624:	00450513          	addi	x10,x10,4

00000628 <I_sub_cg_cp_rs2_b1>:
I_sub_cg_cp_rs2_b1:
  sub x6, x22, x1 # perform operation
     628:	401b0333          	sub	x6,x22,x1
  # Check if x6 contains the expected result. x2 is the signature ptr, x5 is the link ptr, x4 is a temp reg.
  RVTEST_SIGUPD(x2, x5, x4, x6, I_sub_cg_cp_rs2_b1, I_sub_cg_cp_rs2_b1_str)
     62c:	00012203          	lw	x4,0(x2)
     630:	00620863          	beq	x4,x6,640 <I_sub_cg_cp_rs2_b1+0x18>
     634:	6a9032ef          	jal	x5,44dc <failedtest_x5_x4>
     638:	00000628          	.word	0x00000628
     63c:	0000934b          	.word	0x0000934b
     640:	00410113          	addi	x2,x2,4

  mv x25, x2 # switch signature pointer register to avoid conflict with test
     644:	00010c93          	addi	x25,x2,0
# Testcase cp_rs2 (Test source rs2 = x2)
  RVTEST_TESTDATA_LOAD_INT(x10, x18) # load rs1: x18 = 0x283b7884
     648:	00052903          	lw	x18,0(x10)
     64c:	00450513          	addi	x10,x10,4
  RVTEST_TESTDATA_LOAD_INT(x10, x2) # load rs2: x2 = 0x1b75291e
     650:	00052103          	lw	x2,0(x10)
     654:	00450513          	addi	x10,x10,4

00000658 <I_sub_cg_cp_rs2_b2>:
I_sub_cg_cp_rs2_b2:
  sub x16, x18, x2 # perform operation
     658:	40290833          	sub	x16,x18,x2
  # Check if x16 contains the expected result. x25 is the signature ptr, x5 is the link ptr, x4 is a temp reg.
  RVTEST_SIGUPD(x25, x5, x4, x16, I_sub_cg_cp_rs2_b2, I_sub_cg_cp_rs2_b2_str)
     65c:	000ca203          	lw	x4,0(x25)
     660:	01020863          	beq	x4,x16,670 <I_sub_cg_cp_rs2_b2+0x18>
     664:	679032ef          	jal	x5,44dc <failedtest_x5_x4>
     668:	00000658          	.word	0x00000658
     66c:	00009379          	.word	0x00009379
     670:	004c8c93          	addi	x25,x25,4

# Testcase cp_rs2 (Test source rs2 = x3)
  RVTEST_TESTDATA_LOAD_INT(x10, x29) # load rs1: x29 = 0xdcffee62
     674:	00052e83          	lw	x29,0(x10)
     678:	00450513          	addi	x10,x10,4
  RVTEST_TESTDATA_LOAD_INT(x10, x3) # load rs2: x3 = 0xc3073af5
     67c:	00052183          	lw	x3,0(x10)
     680:	00450513          	addi	x10,x10,4

00000684 <I_sub_cg_cp_rs2_b3>:
I_sub_cg_cp_rs2_b3:
  sub x16, x29, x3 # perform operation
     684:	403e8833          	sub	x16,x29,x3
  # Check if x16 contains the expected result. x25 is the signature ptr, x5 is the link ptr, x4 is a temp reg.
  RVTEST_SIGUPD(x25, x5, x4, x16, I_sub_cg_cp_rs2_b3, I_sub_cg_cp_rs2_b3_str)
     688:	000ca203          	lw	x4,0(x25)
     68c:	01020863          	beq	x4,x16,69c <I_sub_cg_cp_rs2_b3+0x18>
     690:	64d032ef          	jal	x5,44dc <failedtest_x5_x4>
     694:	00000684          	.word	0x00000684
     698:	000093a7          	.word	0x000093a7
     69c:	004c8c93          	addi	x25,x25,4

  mv x7, x4 # switch temp register to avoid conflict with test
     6a0:	00020393          	addi	x7,x4,0 # 0 <rvtest_entry_point>
  mv x8, x5 # switch link pointer register to avoid conflict with test
     6a4:	00028413          	addi	x8,x5,0
# Testcase cp_rs2 (Test source rs2 = x4)
  RVTEST_TESTDATA_LOAD_INT(x10, x1) # load rs1: x1 = 0x3796f060
     6a8:	00052083          	lw	x1,0(x10)
     6ac:	00450513          	addi	x10,x10,4
  RVTEST_TESTDATA_LOAD_INT(x10, x4) # load rs2: x4 = 0x21cfaae1
     6b0:	00052203          	lw	x4,0(x10)
     6b4:	00450513          	addi	x10,x10,4

000006b8 <I_sub_cg_cp_rs2_b4>:
I_sub_cg_cp_rs2_b4:
  sub x22, x1, x4 # perform operation
     6b8:	40408b33          	sub	x22,x1,x4
  # Check if x22 contains the expected result. x25 is the signature ptr, x8 is the link ptr, x7 is a temp reg.
  RVTEST_SIGUPD(x25, x8, x7, x22, I_sub_cg_cp_rs2_b4, I_sub_cg_cp_rs2_b4_str)
     6bc:	000ca383          	lw	x7,0(x25)
     6c0:	01638863          	beq	x7,x22,6d0 <I_sub_cg_cp_rs2_b4+0x18>
     6c4:	6310346f          	jal	x8,44f4 <failedtest_x8_x7>
     6c8:	000006b8          	.word	0x000006b8
     6cc:	000093d5          	.word	0x000093d5
     6d0:	004c8c93          	addi	x25,x25,4

# Testcase cp_rs2 (Test source rs2 = x5)
  RVTEST_TESTDATA_LOAD_INT(x10, x29) # load rs1: x29 = 0x5a678d6f
     6d4:	00052e83          	lw	x29,0(x10)
     6d8:	00450513          	addi	x10,x10,4
  RVTEST_TESTDATA_LOAD_INT(x10, x5) # load rs2: x5 = 0xf43444a4
     6dc:	00052283          	lw	x5,0(x10)
     6e0:	00450513          	addi	x10,x10,4

000006e4 <I_sub_cg_cp_rs2_b5>:
I_sub_cg_cp_rs2_b5:
  sub x24, x29, x5 # perform operation
     6e4:	405e8c33          	sub	x24,x29,x5
  # Check if x24 contains the expected result. x25 is the signature ptr, x8 is the link ptr, x7 is a temp reg.
  RVTEST_SIGUPD(x25, x8, x7, x24, I_sub_cg_cp_rs2_b5, I_sub_cg_cp_rs2_b5_str)
     6e8:	000ca383          	lw	x7,0(x25)
     6ec:	01838863          	beq	x7,x24,6fc <I_sub_cg_cp_rs2_b5+0x18>
     6f0:	6050346f          	jal	x8,44f4 <failedtest_x8_x7>
     6f4:	000006e4          	.word	0x000006e4
     6f8:	00009403          	.word	0x00009403
     6fc:	004c8c93          	addi	x25,x25,4

# Testcase cp_rs2 (Test source rs2 = x6)
  RVTEST_TESTDATA_LOAD_INT(x10, x12) # load rs1: x12 = 0x9ee9a912
     700:	00052603          	lw	x12,0(x10)
     704:	00450513          	addi	x10,x10,4
  RVTEST_TESTDATA_LOAD_INT(x10, x6) # load rs2: x6 = 0xfc345f09
     708:	00052303          	lw	x6,0(x10)
     70c:	00450513          	addi	x10,x10,4

00000710 <I_sub_cg_cp_rs2_b6>:
I_sub_cg_cp_rs2_b6:
  sub x21, x12, x6 # perform operation
     710:	40660ab3          	sub	x21,x12,x6
  # Check if x21 contains the expected result. x25 is the signature ptr, x8 is the link ptr, x7 is a temp reg.
  RVTEST_SIGUPD(x25, x8, x7, x21, I_sub_cg_cp_rs2_b6, I_sub_cg_cp_rs2_b6_str)
     714:	000ca383          	lw	x7,0(x25)
     718:	01538863          	beq	x7,x21,728 <I_sub_cg_cp_rs2_b6+0x18>
     71c:	5d90346f          	jal	x8,44f4 <failedtest_x8_x7>
     720:	00000710          	.word	0x00000710
     724:	00009431          	.word	0x00009431
     728:	004c8c93          	addi	x25,x25,4

  mv x13, x7 # switch temp register to avoid conflict with test
     72c:	00038693          	addi	x13,x7,0
  mv x14, x8 # switch link pointer register to avoid conflict with test
     730:	00040713          	addi	x14,x8,0
# Testcase cp_rs2 (Test source rs2 = x7)
  RVTEST_TESTDATA_LOAD_INT(x10, x11) # load rs1: x11 = 0x54e09973
     734:	00052583          	lw	x11,0(x10)
     738:	00450513          	addi	x10,x10,4
  RVTEST_TESTDATA_LOAD_INT(x10, x7) # load rs2: x7 = 0x7607c343
     73c:	00052383          	lw	x7,0(x10)
     740:	00450513          	addi	x10,x10,4

00000744 <I_sub_cg_cp_rs2_b7>:
I_sub_cg_cp_rs2_b7:
  sub x6, x11, x7 # perform operation
     744:	40758333          	sub	x6,x11,x7
  # Check if x6 contains the expected result. x25 is the signature ptr, x14 is the link ptr, x13 is a temp reg.
  RVTEST_SIGUPD(x25, x14, x13, x6, I_sub_cg_cp_rs2_b7, I_sub_cg_cp_rs2_b7_str)
     748:	000ca683          	lw	x13,0(x25)
     74c:	00668863          	beq	x13,x6,75c <I_sub_cg_cp_rs2_b7+0x18>
     750:	5cd0376f          	jal	x14,451c <failedtest_x14_x13>
     754:	00000744          	.word	0x00000744
     758:	0000945f          	.word	0x0000945f
     75c:	004c8c93          	addi	x25,x25,4

# Testcase cp_rs2 (Test source rs2 = x8)
  RVTEST_TESTDATA_LOAD_INT(x10, x26) # load rs1: x26 = 0xad2e3c7f
     760:	00052d03          	lw	x26,0(x10)
     764:	00450513          	addi	x10,x10,4
  RVTEST_TESTDATA_LOAD_INT(x10, x8) # load rs2: x8 = 0xe682ff28
     768:	00052403          	lw	x8,0(x10)
     76c:	00450513          	addi	x10,x10,4

00000770 <I_sub_cg_cp_rs2_b8>:
I_sub_cg_cp_rs2_b8:
  sub x3, x26, x8 # perform operation
     770:	408d01b3          	sub	x3,x26,x8
  # Check if x3 contains the expected result. x25 is the signature ptr, x14 is the link ptr, x13 is a temp reg.
  RVTEST_SIGUPD(x25, x14, x13, x3, I_sub_cg_cp_rs2_b8, I_sub_cg_cp_rs2_b8_str)
     774:	000ca683          	lw	x13,0(x25)
     778:	00368863          	beq	x13,x3,788 <I_sub_cg_cp_rs2_b8+0x18>
     77c:	5a10376f          	jal	x14,451c <failedtest_x14_x13>
     780:	00000770          	.word	0x00000770
     784:	0000948d          	.word	0x0000948d
     788:	004c8c93          	addi	x25,x25,4

# Testcase cp_rs2 (Test source rs2 = x9)
  RVTEST_TESTDATA_LOAD_INT(x10, x29) # load rs1: x29 = 0x1972de75
     78c:	00052e83          	lw	x29,0(x10)
     790:	00450513          	addi	x10,x10,4
  RVTEST_TESTDATA_LOAD_INT(x10, x9) # load rs2: x9 = 0xf01c80e8
     794:	00052483          	lw	x9,0(x10)
     798:	00450513          	addi	x10,x10,4

0000079c <I_sub_cg_cp_rs2_b9>:
I_sub_cg_cp_rs2_b9:
  sub x7, x29, x9 # perform operation
     79c:	409e83b3          	sub	x7,x29,x9
  # Check if x7 contains the expected result. x25 is the signature ptr, x14 is the link ptr, x13 is a temp reg.
  RVTEST_SIGUPD(x25, x14, x13, x7, I_sub_cg_cp_rs2_b9, I_sub_cg_cp_rs2_b9_str)
     7a0:	000ca683          	lw	x13,0(x25)
     7a4:	00768863          	beq	x13,x7,7b4 <I_sub_cg_cp_rs2_b9+0x18>
     7a8:	5750376f          	jal	x14,451c <failedtest_x14_x13>
     7ac:	0000079c          	.word	0x0000079c
     7b0:	000094bb          	.word	0x000094bb
     7b4:	004c8c93          	addi	x25,x25,4

  mv x17, x10 # switch data pointer register to avoid conflict with test
     7b8:	00050893          	addi	x17,x10,0
# Testcase cp_rs2 (Test source rs2 = x10)
  RVTEST_TESTDATA_LOAD_INT(x17, x20) # load rs1: x20 = 0x28113e0b
     7bc:	0008aa03          	lw	x20,0(x17)
     7c0:	00488893          	addi	x17,x17,4
  RVTEST_TESTDATA_LOAD_INT(x17, x10) # load rs2: x10 = 0xf13fd8ae
     7c4:	0008a503          	lw	x10,0(x17)
     7c8:	00488893          	addi	x17,x17,4

000007cc <I_sub_cg_cp_rs2_b10>:
I_sub_cg_cp_rs2_b10:
  sub x21, x20, x10 # perform operation
     7cc:	40aa0ab3          	sub	x21,x20,x10
  # Check if x21 contains the expected result. x25 is the signature ptr, x14 is the link ptr, x13 is a temp reg.
  RVTEST_SIGUPD(x25, x14, x13, x21, I_sub_cg_cp_rs2_b10, I_sub_cg_cp_rs2_b10_str)
     7d0:	000ca683          	lw	x13,0(x25)
     7d4:	01568863          	beq	x13,x21,7e4 <I_sub_cg_cp_rs2_b10+0x18>
     7d8:	5450376f          	jal	x14,451c <failedtest_x14_x13>
     7dc:	000007cc          	.word	0x000007cc
     7e0:	000094e9          	.word	0x000094e9
     7e4:	004c8c93          	addi	x25,x25,4

# Testcase cp_rs2 (Test source rs2 = x11)
  RVTEST_TESTDATA_LOAD_INT(x17, x19) # load rs1: x19 = 0xebcce8db
     7e8:	0008a983          	lw	x19,0(x17)
     7ec:	00488893          	addi	x17,x17,4
  RVTEST_TESTDATA_LOAD_INT(x17, x11) # load rs2: x11 = 0xb69c4173
     7f0:	0008a583          	lw	x11,0(x17)
     7f4:	00488893          	addi	x17,x17,4

000007f8 <I_sub_cg_cp_rs2_b11>:
I_sub_cg_cp_rs2_b11:
  sub x1, x19, x11 # perform operation
     7f8:	40b980b3          	sub	x1,x19,x11
  # Check if x1 contains the expected result. x25 is the signature ptr, x14 is the link ptr, x13 is a temp reg.
  RVTEST_SIGUPD(x25, x14, x13, x1, I_sub_cg_cp_rs2_b11, I_sub_cg_cp_rs2_b11_str)
     7fc:	000ca683          	lw	x13,0(x25)
     800:	00168863          	beq	x13,x1,810 <I_sub_cg_cp_rs2_b11+0x18>
     804:	5190376f          	jal	x14,451c <failedtest_x14_x13>
     808:	000007f8          	.word	0x000007f8
     80c:	00009518          	.word	0x00009518
     810:	004c8c93          	addi	x25,x25,4

# Testcase cp_rs2 (Test source rs2 = x12)
  RVTEST_TESTDATA_LOAD_INT(x17, x11) # load rs1: x11 = 0xeaf38412
     814:	0008a583          	lw	x11,0(x17)
     818:	00488893          	addi	x17,x17,4
  RVTEST_TESTDATA_LOAD_INT(x17, x12) # load rs2: x12 = 0x648dd2a7
     81c:	0008a603          	lw	x12,0(x17)
     820:	00488893          	addi	x17,x17,4

00000824 <I_sub_cg_cp_rs2_b12>:
I_sub_cg_cp_rs2_b12:
  sub x15, x11, x12 # perform operation
     824:	40c587b3          	sub	x15,x11,x12
  # Check if x15 contains the expected result. x25 is the signature ptr, x14 is the link ptr, x13 is a temp reg.
  RVTEST_SIGUPD(x25, x14, x13, x15, I_sub_cg_cp_rs2_b12, I_sub_cg_cp_rs2_b12_str)
     828:	000ca683          	lw	x13,0(x25)
     82c:	00f68863          	beq	x13,x15,83c <I_sub_cg_cp_rs2_b12+0x18>
     830:	4ed0376f          	jal	x14,451c <failedtest_x14_x13>
     834:	00000824          	.word	0x00000824
     838:	00009547          	.word	0x00009547
     83c:	004c8c93          	addi	x25,x25,4

  mv x7, x13 # switch temp register to avoid conflict with test
     840:	00068393          	addi	x7,x13,0
  mv x8, x14 # switch link pointer register to avoid conflict with test
     844:	00070413          	addi	x8,x14,0
# Testcase cp_rs2 (Test source rs2 = x13)
  RVTEST_TESTDATA_LOAD_INT(x17, x12) # load rs1: x12 = 0x7d96fd9a
     848:	0008a603          	lw	x12,0(x17)
     84c:	00488893          	addi	x17,x17,4
  RVTEST_TESTDATA_LOAD_INT(x17, x13) # load rs2: x13 = 0x09abbc91
     850:	0008a683          	lw	x13,0(x17)
     854:	00488893          	addi	x17,x17,4

00000858 <I_sub_cg_cp_rs2_b13>:
I_sub_cg_cp_rs2_b13:
  sub x5, x12, x13 # perform operation
     858:	40d602b3          	sub	x5,x12,x13
  # Check if x5 contains the expected result. x25 is the signature ptr, x8 is the link ptr, x7 is a temp reg.
  RVTEST_SIGUPD(x25, x8, x7, x5, I_sub_cg_cp_rs2_b13, I_sub_cg_cp_rs2_b13_str)
     85c:	000ca383          	lw	x7,0(x25)
     860:	00538863          	beq	x7,x5,870 <I_sub_cg_cp_rs2_b13+0x18>
     864:	4910346f          	jal	x8,44f4 <failedtest_x8_x7>
     868:	00000858          	.word	0x00000858
     86c:	00009576          	.word	0x00009576
     870:	004c8c93          	addi	x25,x25,4

# Testcase cp_rs2 (Test source rs2 = x14)
  RVTEST_TESTDATA_LOAD_INT(x17, x1) # load rs1: x1 = 0xed9a309a
     874:	0008a083          	lw	x1,0(x17)
     878:	00488893          	addi	x17,x17,4
  RVTEST_TESTDATA_LOAD_INT(x17, x14) # load rs2: x14 = 0xcc002fd9
     87c:	0008a703          	lw	x14,0(x17)
     880:	00488893          	addi	x17,x17,4

00000884 <I_sub_cg_cp_rs2_b14>:
I_sub_cg_cp_rs2_b14:
  sub x19, x1, x14 # perform operation
     884:	40e089b3          	sub	x19,x1,x14
  # Check if x19 contains the expected result. x25 is the signature ptr, x8 is the link ptr, x7 is a temp reg.
  RVTEST_SIGUPD(x25, x8, x7, x19, I_sub_cg_cp_rs2_b14, I_sub_cg_cp_rs2_b14_str)
     888:	000ca383          	lw	x7,0(x25)
     88c:	01338863          	beq	x7,x19,89c <I_sub_cg_cp_rs2_b14+0x18>
     890:	4650346f          	jal	x8,44f4 <failedtest_x8_x7>
     894:	00000884          	.word	0x00000884
     898:	000095a5          	.word	0x000095a5
     89c:	004c8c93          	addi	x25,x25,4

# Testcase cp_rs2 (Test source rs2 = x15)
  RVTEST_TESTDATA_LOAD_INT(x17, x0) # load rs1: x0 = 0x11a2f5d5
     8a0:	0008a003          	lw	x0,0(x17)
     8a4:	00488893          	addi	x17,x17,4
  RVTEST_TESTDATA_LOAD_INT(x17, x15) # load rs2: x15 = 0x0d81d696
     8a8:	0008a783          	lw	x15,0(x17)
     8ac:	00488893          	addi	x17,x17,4

000008b0 <I_sub_cg_cp_rs2_b15>:
I_sub_cg_cp_rs2_b15:
  sub x4, x0, x15 # perform operation
     8b0:	40f00233          	sub	x4,x0,x15
  # Check if x4 contains the expected result. x25 is the signature ptr, x8 is the link ptr, x7 is a temp reg.
  RVTEST_SIGUPD(x25, x8, x7, x4, I_sub_cg_cp_rs2_b15, I_sub_cg_cp_rs2_b15_str)
     8b4:	000ca383          	lw	x7,0(x25)
     8b8:	00438863          	beq	x7,x4,8c8 <I_sub_cg_cp_rs2_b15+0x18>
     8bc:	4390346f          	jal	x8,44f4 <failedtest_x8_x7>
     8c0:	000008b0          	.word	0x000008b0
     8c4:	000095d4          	.word	0x000095d4
     8c8:	004c8c93          	addi	x25,x25,4

# Testcase cp_rs2 (Test source rs2 = x16)
  RVTEST_TESTDATA_LOAD_INT(x17, x3) # load rs1: x3 = 0x0dacdda9
     8cc:	0008a183          	lw	x3,0(x17)
     8d0:	00488893          	addi	x17,x17,4
  RVTEST_TESTDATA_LOAD_INT(x17, x16) # load rs2: x16 = 0x15c63d5f
     8d4:	0008a803          	lw	x16,0(x17)
     8d8:	00488893          	addi	x17,x17,4

000008dc <I_sub_cg_cp_rs2_b16>:
I_sub_cg_cp_rs2_b16:
  sub x9, x3, x16 # perform operation
     8dc:	410184b3          	sub	x9,x3,x16
  # Check if x9 contains the expected result. x25 is the signature ptr, x8 is the link ptr, x7 is a temp reg.
  RVTEST_SIGUPD(x25, x8, x7, x9, I_sub_cg_cp_rs2_b16, I_sub_cg_cp_rs2_b16_str)
     8e0:	000ca383          	lw	x7,0(x25)
     8e4:	00938863          	beq	x7,x9,8f4 <I_sub_cg_cp_rs2_b16+0x18>
     8e8:	40d0346f          	jal	x8,44f4 <failedtest_x8_x7>
     8ec:	000008dc          	.word	0x000008dc
     8f0:	00009603          	.word	0x00009603
     8f4:	004c8c93          	addi	x25,x25,4

  mv x22, x17 # switch data pointer register to avoid conflict with test
     8f8:	00088b13          	addi	x22,x17,0
# Testcase cp_rs2 (Test source rs2 = x17)
  RVTEST_TESTDATA_LOAD_INT(x22, x23) # load rs1: x23 = 0x2d1cfe40
     8fc:	000b2b83          	lw	x23,0(x22)
     900:	004b0b13          	addi	x22,x22,4
  RVTEST_TESTDATA_LOAD_INT(x22, x17) # load rs2: x17 = 0xa7f04b49
     904:	000b2883          	lw	x17,0(x22)
     908:	004b0b13          	addi	x22,x22,4

0000090c <I_sub_cg_cp_rs2_b17>:
I_sub_cg_cp_rs2_b17:
  sub x21, x23, x17 # perform operation
     90c:	411b8ab3          	sub	x21,x23,x17
  # Check if x21 contains the expected result. x25 is the signature ptr, x8 is the link ptr, x7 is a temp reg.
  RVTEST_SIGUPD(x25, x8, x7, x21, I_sub_cg_cp_rs2_b17, I_sub_cg_cp_rs2_b17_str)
     910:	000ca383          	lw	x7,0(x25)
     914:	01538863          	beq	x7,x21,924 <I_sub_cg_cp_rs2_b17+0x18>
     918:	3dd0346f          	jal	x8,44f4 <failedtest_x8_x7>
     91c:	0000090c          	.word	0x0000090c
     920:	00009632          	.word	0x00009632
     924:	004c8c93          	addi	x25,x25,4

# Testcase cp_rs2 (Test source rs2 = x18)
  RVTEST_TESTDATA_LOAD_INT(x22, x17) # load rs1: x17 = 0x47c4924c
     928:	000b2883          	lw	x17,0(x22)
     92c:	004b0b13          	addi	x22,x22,4
  RVTEST_TESTDATA_LOAD_INT(x22, x18) # load rs2: x18 = 0x3bd40675
     930:	000b2903          	lw	x18,0(x22)
     934:	004b0b13          	addi	x22,x22,4

00000938 <I_sub_cg_cp_rs2_b18>:
I_sub_cg_cp_rs2_b18:
  sub x2, x17, x18 # perform operation
     938:	41288133          	sub	x2,x17,x18
  # Check if x2 contains the expected result. x25 is the signature ptr, x8 is the link ptr, x7 is a temp reg.
  RVTEST_SIGUPD(x25, x8, x7, x2, I_sub_cg_cp_rs2_b18, I_sub_cg_cp_rs2_b18_str)
     93c:	000ca383          	lw	x7,0(x25)
     940:	00238863          	beq	x7,x2,950 <I_sub_cg_cp_rs2_b18+0x18>
     944:	3b10346f          	jal	x8,44f4 <failedtest_x8_x7>
     948:	00000938          	.word	0x00000938
     94c:	00009661          	.word	0x00009661
     950:	004c8c93          	addi	x25,x25,4

# Testcase cp_rs2 (Test source rs2 = x19)
  RVTEST_TESTDATA_LOAD_INT(x22, x13) # load rs1: x13 = 0xef2ae8f2
     954:	000b2683          	lw	x13,0(x22)
     958:	004b0b13          	addi	x22,x22,4
  RVTEST_TESTDATA_LOAD_INT(x22, x19) # load rs2: x19 = 0xb9e13b17
     95c:	000b2983          	lw	x19,0(x22)
     960:	004b0b13          	addi	x22,x22,4

00000964 <I_sub_cg_cp_rs2_b19>:
I_sub_cg_cp_rs2_b19:
  sub x27, x13, x19 # perform operation
     964:	41368db3          	sub	x27,x13,x19
  # Check if x27 contains the expected result. x25 is the signature ptr, x8 is the link ptr, x7 is a temp reg.
  RVTEST_SIGUPD(x25, x8, x7, x27, I_sub_cg_cp_rs2_b19, I_sub_cg_cp_rs2_b19_str)
     968:	000ca383          	lw	x7,0(x25)
     96c:	01b38863          	beq	x7,x27,97c <I_sub_cg_cp_rs2_b19+0x18>
     970:	3850346f          	jal	x8,44f4 <failedtest_x8_x7>
     974:	00000964          	.word	0x00000964
     978:	00009690          	.word	0x00009690
     97c:	004c8c93          	addi	x25,x25,4

# Testcase cp_rs2 (Test source rs2 = x20)
  RVTEST_TESTDATA_LOAD_INT(x22, x30) # load rs1: x30 = 0xba64ec34
     980:	000b2f03          	lw	x30,0(x22)
     984:	004b0b13          	addi	x22,x22,4
  RVTEST_TESTDATA_LOAD_INT(x22, x20) # load rs2: x20 = 0x4168b527
     988:	000b2a03          	lw	x20,0(x22)
     98c:	004b0b13          	addi	x22,x22,4

00000990 <I_sub_cg_cp_rs2_b20>:
I_sub_cg_cp_rs2_b20:
  sub x9, x30, x20 # perform operation
     990:	414f04b3          	sub	x9,x30,x20
  # Check if x9 contains the expected result. x25 is the signature ptr, x8 is the link ptr, x7 is a temp reg.
  RVTEST_SIGUPD(x25, x8, x7, x9, I_sub_cg_cp_rs2_b20, I_sub_cg_cp_rs2_b20_str)
     994:	000ca383          	lw	x7,0(x25)
     998:	00938863          	beq	x7,x9,9a8 <I_sub_cg_cp_rs2_b20+0x18>
     99c:	3590346f          	jal	x8,44f4 <failedtest_x8_x7>
     9a0:	00000990          	.word	0x00000990
     9a4:	000096bf          	.word	0x000096bf
     9a8:	004c8c93          	addi	x25,x25,4

# Testcase cp_rs2 (Test source rs2 = x21)
  RVTEST_TESTDATA_LOAD_INT(x22, x23) # load rs1: x23 = 0x31c2e228
     9ac:	000b2b83          	lw	x23,0(x22)
     9b0:	004b0b13          	addi	x22,x22,4
  RVTEST_TESTDATA_LOAD_INT(x22, x21) # load rs2: x21 = 0xab9c93fb
     9b4:	000b2a83          	lw	x21,0(x22)
     9b8:	004b0b13          	addi	x22,x22,4

000009bc <I_sub_cg_cp_rs2_b21>:
I_sub_cg_cp_rs2_b21:
  sub x4, x23, x21 # perform operation
     9bc:	415b8233          	sub	x4,x23,x21
  # Check if x4 contains the expected result. x25 is the signature ptr, x8 is the link ptr, x7 is a temp reg.
  RVTEST_SIGUPD(x25, x8, x7, x4, I_sub_cg_cp_rs2_b21, I_sub_cg_cp_rs2_b21_str)
     9c0:	000ca383          	lw	x7,0(x25)
     9c4:	00438863          	beq	x7,x4,9d4 <I_sub_cg_cp_rs2_b21+0x18>
     9c8:	32d0346f          	jal	x8,44f4 <failedtest_x8_x7>
     9cc:	000009bc          	.word	0x000009bc
     9d0:	000096ee          	.word	0x000096ee
     9d4:	004c8c93          	addi	x25,x25,4

  mv x21, x22 # switch data pointer register to avoid conflict with test
     9d8:	000b0a93          	addi	x21,x22,0
# Testcase cp_rs2 (Test source rs2 = x22)
  RVTEST_TESTDATA_LOAD_INT(x21, x27) # load rs1: x27 = 0xaa54be3c
     9dc:	000aad83          	lw	x27,0(x21)
     9e0:	004a8a93          	addi	x21,x21,4
  RVTEST_TESTDATA_LOAD_INT(x21, x22) # load rs2: x22 = 0xb07ceb3b
     9e4:	000aab03          	lw	x22,0(x21)
     9e8:	004a8a93          	addi	x21,x21,4

000009ec <I_sub_cg_cp_rs2_b22>:
I_sub_cg_cp_rs2_b22:
  sub x15, x27, x22 # perform operation
     9ec:	416d87b3          	sub	x15,x27,x22
  # Check if x15 contains the expected result. x25 is the signature ptr, x8 is the link ptr, x7 is a temp reg.
  RVTEST_SIGUPD(x25, x8, x7, x15, I_sub_cg_cp_rs2_b22, I_sub_cg_cp_rs2_b22_str)
     9f0:	000ca383          	lw	x7,0(x25)
     9f4:	00f38863          	beq	x7,x15,a04 <I_sub_cg_cp_rs2_b22+0x18>
     9f8:	2fd0346f          	jal	x8,44f4 <failedtest_x8_x7>
     9fc:	000009ec          	.word	0x000009ec
     a00:	0000971d          	.word	0x0000971d
     a04:	004c8c93          	addi	x25,x25,4

# Testcase cp_rs2 (Test source rs2 = x23)
  RVTEST_TESTDATA_LOAD_INT(x21, x22) # load rs1: x22 = 0x47d15a52
     a08:	000aab03          	lw	x22,0(x21)
     a0c:	004a8a93          	addi	x21,x21,4
  RVTEST_TESTDATA_LOAD_INT(x21, x23) # load rs2: x23 = 0x9e894882
     a10:	000aab83          	lw	x23,0(x21)
     a14:	004a8a93          	addi	x21,x21,4

00000a18 <I_sub_cg_cp_rs2_b23>:
I_sub_cg_cp_rs2_b23:
  sub x16, x22, x23 # perform operation
     a18:	417b0833          	sub	x16,x22,x23
  # Check if x16 contains the expected result. x25 is the signature ptr, x8 is the link ptr, x7 is a temp reg.
  RVTEST_SIGUPD(x25, x8, x7, x16, I_sub_cg_cp_rs2_b23, I_sub_cg_cp_rs2_b23_str)
     a1c:	000ca383          	lw	x7,0(x25)
     a20:	01038863          	beq	x7,x16,a30 <I_sub_cg_cp_rs2_b23+0x18>
     a24:	2d10346f          	jal	x8,44f4 <failedtest_x8_x7>
     a28:	00000a18          	.word	0x00000a18
     a2c:	0000974c          	.word	0x0000974c
     a30:	004c8c93          	addi	x25,x25,4

# Testcase cp_rs2 (Test source rs2 = x24)
  RVTEST_TESTDATA_LOAD_INT(x21, x15) # load rs1: x15 = 0xab6c7fdc
     a34:	000aa783          	lw	x15,0(x21)
     a38:	004a8a93          	addi	x21,x21,4
  RVTEST_TESTDATA_LOAD_INT(x21, x24) # load rs2: x24 = 0xb604e87a
     a3c:	000aac03          	lw	x24,0(x21)
     a40:	004a8a93          	addi	x21,x21,4

00000a44 <I_sub_cg_cp_rs2_b24>:
I_sub_cg_cp_rs2_b24:
  sub x16, x15, x24 # perform operation
     a44:	41878833          	sub	x16,x15,x24
  # Check if x16 contains the expected result. x25 is the signature ptr, x8 is the link ptr, x7 is a temp reg.
  RVTEST_SIGUPD(x25, x8, x7, x16, I_sub_cg_cp_rs2_b24, I_sub_cg_cp_rs2_b24_str)
     a48:	000ca383          	lw	x7,0(x25)
     a4c:	01038863          	beq	x7,x16,a5c <I_sub_cg_cp_rs2_b24+0x18>
     a50:	2a50346f          	jal	x8,44f4 <failedtest_x8_x7>
     a54:	00000a44          	.word	0x00000a44
     a58:	0000977b          	.word	0x0000977b
     a5c:	004c8c93          	addi	x25,x25,4

  mv x11, x25 # switch signature pointer register to avoid conflict with test
     a60:	000c8593          	addi	x11,x25,0
# Testcase cp_rs2 (Test source rs2 = x25)
  RVTEST_TESTDATA_LOAD_INT(x21, x12) # load rs1: x12 = 0x7b4e9cdd
     a64:	000aa603          	lw	x12,0(x21)
     a68:	004a8a93          	addi	x21,x21,4
  RVTEST_TESTDATA_LOAD_INT(x21, x25) # load rs2: x25 = 0xe10b54e5
     a6c:	000aac83          	lw	x25,0(x21)
     a70:	004a8a93          	addi	x21,x21,4

00000a74 <I_sub_cg_cp_rs2_b25>:
I_sub_cg_cp_rs2_b25:
  sub x23, x12, x25 # perform operation
     a74:	41960bb3          	sub	x23,x12,x25
  # Check if x23 contains the expected result. x11 is the signature ptr, x8 is the link ptr, x7 is a temp reg.
  RVTEST_SIGUPD(x11, x8, x7, x23, I_sub_cg_cp_rs2_b25, I_sub_cg_cp_rs2_b25_str)
     a78:	0005a383          	lw	x7,0(x11)
     a7c:	01738863          	beq	x7,x23,a8c <I_sub_cg_cp_rs2_b25+0x18>
     a80:	2750346f          	jal	x8,44f4 <failedtest_x8_x7>
     a84:	00000a74          	.word	0x00000a74
     a88:	000097aa          	.word	0x000097aa
     a8c:	00458593          	addi	x11,x11,4

# Testcase cp_rs2 (Test source rs2 = x26)
  RVTEST_TESTDATA_LOAD_INT(x21, x19) # load rs1: x19 = 0xf1590ad7
     a90:	000aa983          	lw	x19,0(x21)
     a94:	004a8a93          	addi	x21,x21,4
  RVTEST_TESTDATA_LOAD_INT(x21, x26) # load rs2: x26 = 0xda472920
     a98:	000aad03          	lw	x26,0(x21)
     a9c:	004a8a93          	addi	x21,x21,4

00000aa0 <I_sub_cg_cp_rs2_b26>:
I_sub_cg_cp_rs2_b26:
  sub x3, x19, x26 # perform operation
     aa0:	41a981b3          	sub	x3,x19,x26
  # Check if x3 contains the expected result. x11 is the signature ptr, x8 is the link ptr, x7 is a temp reg.
  RVTEST_SIGUPD(x11, x8, x7, x3, I_sub_cg_cp_rs2_b26, I_sub_cg_cp_rs2_b26_str)
     aa4:	0005a383          	lw	x7,0(x11)
     aa8:	00338863          	beq	x7,x3,ab8 <I_sub_cg_cp_rs2_b26+0x18>
     aac:	2490346f          	jal	x8,44f4 <failedtest_x8_x7>
     ab0:	00000aa0          	.word	0x00000aa0
     ab4:	000097d9          	.word	0x000097d9
     ab8:	00458593          	addi	x11,x11,4

# Testcase cp_rs2 (Test source rs2 = x27)
  RVTEST_TESTDATA_LOAD_INT(x21, x22) # load rs1: x22 = 0xe03b7aa2
     abc:	000aab03          	lw	x22,0(x21)
     ac0:	004a8a93          	addi	x21,x21,4
  RVTEST_TESTDATA_LOAD_INT(x21, x27) # load rs2: x27 = 0xf1d5f3b5
     ac4:	000aad83          	lw	x27,0(x21)
     ac8:	004a8a93          	addi	x21,x21,4

00000acc <I_sub_cg_cp_rs2_b27>:
I_sub_cg_cp_rs2_b27:
  sub x26, x22, x27 # perform operation
     acc:	41bb0d33          	sub	x26,x22,x27
  # Check if x26 contains the expected result. x11 is the signature ptr, x8 is the link ptr, x7 is a temp reg.
  RVTEST_SIGUPD(x11, x8, x7, x26, I_sub_cg_cp_rs2_b27, I_sub_cg_cp_rs2_b27_str)
     ad0:	0005a383          	lw	x7,0(x11)
     ad4:	01a38863          	beq	x7,x26,ae4 <I_sub_cg_cp_rs2_b27+0x18>
     ad8:	21d0346f          	jal	x8,44f4 <failedtest_x8_x7>
     adc:	00000acc          	.word	0x00000acc
     ae0:	00009808          	.word	0x00009808
     ae4:	00458593          	addi	x11,x11,4

# Testcase cp_rs2 (Test source rs2 = x28)
  RVTEST_TESTDATA_LOAD_INT(x21, x10) # load rs1: x10 = 0x20182e90
     ae8:	000aa503          	lw	x10,0(x21)
     aec:	004a8a93          	addi	x21,x21,4
  RVTEST_TESTDATA_LOAD_INT(x21, x28) # load rs2: x28 = 0xe644b79b
     af0:	000aae03          	lw	x28,0(x21)
     af4:	004a8a93          	addi	x21,x21,4

00000af8 <I_sub_cg_cp_rs2_b28>:
I_sub_cg_cp_rs2_b28:
  sub x5, x10, x28 # perform operation
     af8:	41c502b3          	sub	x5,x10,x28
  # Check if x5 contains the expected result. x11 is the signature ptr, x8 is the link ptr, x7 is a temp reg.
  RVTEST_SIGUPD(x11, x8, x7, x5, I_sub_cg_cp_rs2_b28, I_sub_cg_cp_rs2_b28_str)
     afc:	0005a383          	lw	x7,0(x11)
     b00:	00538863          	beq	x7,x5,b10 <I_sub_cg_cp_rs2_b28+0x18>
     b04:	1f10346f          	jal	x8,44f4 <failedtest_x8_x7>
     b08:	00000af8          	.word	0x00000af8
     b0c:	00009837          	.word	0x00009837
     b10:	00458593          	addi	x11,x11,4

# Testcase cp_rs2 (Test source rs2 = x29)
  RVTEST_TESTDATA_LOAD_INT(x21, x19) # load rs1: x19 = 0x2a28e521
     b14:	000aa983          	lw	x19,0(x21)
     b18:	004a8a93          	addi	x21,x21,4
  RVTEST_TESTDATA_LOAD_INT(x21, x29) # load rs2: x29 = 0x61130ce7
     b1c:	000aae83          	lw	x29,0(x21)
     b20:	004a8a93          	addi	x21,x21,4

00000b24 <I_sub_cg_cp_rs2_b29>:
I_sub_cg_cp_rs2_b29:
  sub x9, x19, x29 # perform operation
     b24:	41d984b3          	sub	x9,x19,x29
  # Check if x9 contains the expected result. x11 is the signature ptr, x8 is the link ptr, x7 is a temp reg.
  RVTEST_SIGUPD(x11, x8, x7, x9, I_sub_cg_cp_rs2_b29, I_sub_cg_cp_rs2_b29_str)
     b28:	0005a383          	lw	x7,0(x11)
     b2c:	00938863          	beq	x7,x9,b3c <I_sub_cg_cp_rs2_b29+0x18>
     b30:	1c50346f          	jal	x8,44f4 <failedtest_x8_x7>
     b34:	00000b24          	.word	0x00000b24
     b38:	00009866          	.word	0x00009866
     b3c:	00458593          	addi	x11,x11,4

# Testcase cp_rs2 (Test source rs2 = x30)
  RVTEST_TESTDATA_LOAD_INT(x21, x29) # load rs1: x29 = 0x6c03d12d
     b40:	000aae83          	lw	x29,0(x21)
     b44:	004a8a93          	addi	x21,x21,4
  RVTEST_TESTDATA_LOAD_INT(x21, x30) # load rs2: x30 = 0x77f947b1
     b48:	000aaf03          	lw	x30,0(x21)
     b4c:	004a8a93          	addi	x21,x21,4

00000b50 <I_sub_cg_cp_rs2_b30>:
I_sub_cg_cp_rs2_b30:
  sub x16, x29, x30 # perform operation
     b50:	41ee8833          	sub	x16,x29,x30
  # Check if x16 contains the expected result. x11 is the signature ptr, x8 is the link ptr, x7 is a temp reg.
  RVTEST_SIGUPD(x11, x8, x7, x16, I_sub_cg_cp_rs2_b30, I_sub_cg_cp_rs2_b30_str)
     b54:	0005a383          	lw	x7,0(x11)
     b58:	01038863          	beq	x7,x16,b68 <I_sub_cg_cp_rs2_b30+0x18>
     b5c:	1990346f          	jal	x8,44f4 <failedtest_x8_x7>
     b60:	00000b50          	.word	0x00000b50
     b64:	00009895          	.word	0x00009895
     b68:	00458593          	addi	x11,x11,4

# Testcase cp_rs2 (Test source rs2 = x31)
  RVTEST_TESTDATA_LOAD_INT(x21, x2) # load rs1: x2 = 0xadd05eab
     b6c:	000aa103          	lw	x2,0(x21)
     b70:	004a8a93          	addi	x21,x21,4
  RVTEST_TESTDATA_LOAD_INT(x21, x31) # load rs2: x31 = 0xecbd32e7
     b74:	000aaf83          	lw	x31,0(x21)
     b78:	004a8a93          	addi	x21,x21,4

00000b7c <I_sub_cg_cp_rs2_b31>:
I_sub_cg_cp_rs2_b31:
  sub x29, x2, x31 # perform operation
     b7c:	41f10eb3          	sub	x29,x2,x31
  # Check if x29 contains the expected result. x11 is the signature ptr, x8 is the link ptr, x7 is a temp reg.
  RVTEST_SIGUPD(x11, x8, x7, x29, I_sub_cg_cp_rs2_b31, I_sub_cg_cp_rs2_b31_str)
     b80:	0005a383          	lw	x7,0(x11)
     b84:	01d38863          	beq	x7,x29,b94 <I_sub_cg_cp_rs2_b31+0x18>
     b88:	16d0346f          	jal	x8,44f4 <failedtest_x8_x7>
     b8c:	00000b7c          	.word	0x00000b7c
     b90:	000098c4          	.word	0x000098c4
     b94:	00458593          	addi	x11,x11,4
/////////////////////////////////
// cp_rd
/////////////////////////////////

# Testcase cp_rd (Test destination rd = x0)
  RVTEST_TESTDATA_LOAD_INT(x21, x13) # load rs1: x13 = 0x70d8dc58
     b98:	000aa683          	lw	x13,0(x21)
     b9c:	004a8a93          	addi	x21,x21,4
  RVTEST_TESTDATA_LOAD_INT(x21, x14) # load rs2: x14 = 0x130efbee
     ba0:	000aa703          	lw	x14,0(x21)
     ba4:	004a8a93          	addi	x21,x21,4

00000ba8 <I_sub_cg_cp_rd_b0>:
I_sub_cg_cp_rd_b0:
  sub x0, x13, x14 # perform operation
     ba8:	40e68033          	sub	x0,x13,x14
  # Check if x0 contains the expected result. x11 is the signature ptr, x8 is the link ptr, x7 is a temp reg.
  RVTEST_SIGUPD(x11, x8, x7, x0, I_sub_cg_cp_rd_b0, I_sub_cg_cp_rd_b0_str)
     bac:	0005a383          	lw	x7,0(x11)
     bb0:	00038863          	beq	x7,x0,bc0 <I_sub_cg_cp_rd_b0+0x18>
     bb4:	1410346f          	jal	x8,44f4 <failedtest_x8_x7>
     bb8:	00000ba8          	.word	0x00000ba8
     bbc:	000098f3          	.word	0x000098f3
     bc0:	00458593          	addi	x11,x11,4

# Testcase cp_rd (Test destination rd = x1)
  RVTEST_TESTDATA_LOAD_INT(x21, x14) # load rs1: x14 = 0xccb92270
     bc4:	000aa703          	lw	x14,0(x21)
     bc8:	004a8a93          	addi	x21,x21,4
  RVTEST_TESTDATA_LOAD_INT(x21, x2) # load rs2: x2 = 0xfc955067
     bcc:	000aa103          	lw	x2,0(x21)
     bd0:	004a8a93          	addi	x21,x21,4

00000bd4 <I_sub_cg_cp_rd_b1>:
I_sub_cg_cp_rd_b1:
  sub x1, x14, x2 # perform operation
     bd4:	402700b3          	sub	x1,x14,x2
  # Check if x1 contains the expected result. x11 is the signature ptr, x8 is the link ptr, x7 is a temp reg.
  RVTEST_SIGUPD(x11, x8, x7, x1, I_sub_cg_cp_rd_b1, I_sub_cg_cp_rd_b1_str)
     bd8:	0005a383          	lw	x7,0(x11)
     bdc:	00138863          	beq	x7,x1,bec <I_sub_cg_cp_rd_b1+0x18>
     be0:	1150346f          	jal	x8,44f4 <failedtest_x8_x7>
     be4:	00000bd4          	.word	0x00000bd4
     be8:	00009920          	.word	0x00009920
     bec:	00458593          	addi	x11,x11,4

# Testcase cp_rd (Test destination rd = x2)
  RVTEST_TESTDATA_LOAD_INT(x21, x9) # load rs1: x9 = 0x93a437f7
     bf0:	000aa483          	lw	x9,0(x21)
     bf4:	004a8a93          	addi	x21,x21,4
  RVTEST_TESTDATA_LOAD_INT(x21, x30) # load rs2: x30 = 0x3fd32c09
     bf8:	000aaf03          	lw	x30,0(x21)
     bfc:	004a8a93          	addi	x21,x21,4

00000c00 <I_sub_cg_cp_rd_b2>:
I_sub_cg_cp_rd_b2:
  sub x2, x9, x30 # perform operation
     c00:	41e48133          	sub	x2,x9,x30
  # Check if x2 contains the expected result. x11 is the signature ptr, x8 is the link ptr, x7 is a temp reg.
  RVTEST_SIGUPD(x11, x8, x7, x2, I_sub_cg_cp_rd_b2, I_sub_cg_cp_rd_b2_str)
     c04:	0005a383          	lw	x7,0(x11)
     c08:	00238863          	beq	x7,x2,c18 <I_sub_cg_cp_rd_b2+0x18>
     c0c:	0e90346f          	jal	x8,44f4 <failedtest_x8_x7>
     c10:	00000c00          	.word	0x00000c00
     c14:	0000994d          	.word	0x0000994d
     c18:	00458593          	addi	x11,x11,4

# Testcase cp_rd (Test destination rd = x3)
  RVTEST_TESTDATA_LOAD_INT(x21, x15) # load rs1: x15 = 0x8bc992ce
     c1c:	000aa783          	lw	x15,0(x21)
     c20:	004a8a93          	addi	x21,x21,4
  RVTEST_TESTDATA_LOAD_INT(x21, x13) # load rs2: x13 = 0x2d2bd9d0
     c24:	000aa683          	lw	x13,0(x21)
     c28:	004a8a93          	addi	x21,x21,4

00000c2c <I_sub_cg_cp_rd_b3>:
I_sub_cg_cp_rd_b3:
  sub x3, x15, x13 # perform operation
     c2c:	40d781b3          	sub	x3,x15,x13
  # Check if x3 contains the expected result. x11 is the signature ptr, x8 is the link ptr, x7 is a temp reg.
  RVTEST_SIGUPD(x11, x8, x7, x3, I_sub_cg_cp_rd_b3, I_sub_cg_cp_rd_b3_str)
     c30:	0005a383          	lw	x7,0(x11)
     c34:	00338863          	beq	x7,x3,c44 <I_sub_cg_cp_rd_b3+0x18>
     c38:	0bd0346f          	jal	x8,44f4 <failedtest_x8_x7>
     c3c:	00000c2c          	.word	0x00000c2c
     c40:	0000997a          	.word	0x0000997a
     c44:	00458593          	addi	x11,x11,4

# Testcase cp_rd (Test destination rd = x4)
  RVTEST_TESTDATA_LOAD_INT(x21, x25) # load rs1: x25 = 0xa56e868d
     c48:	000aac83          	lw	x25,0(x21)
     c4c:	004a8a93          	addi	x21,x21,4
  RVTEST_TESTDATA_LOAD_INT(x21, x28) # load rs2: x28 = 0x498be09b
     c50:	000aae03          	lw	x28,0(x21)
     c54:	004a8a93          	addi	x21,x21,4

00000c58 <I_sub_cg_cp_rd_b4>:
I_sub_cg_cp_rd_b4:
  sub x4, x25, x28 # perform operation
     c58:	41cc8233          	sub	x4,x25,x28
  # Check if x4 contains the expected result. x11 is the signature ptr, x8 is the link ptr, x7 is a temp reg.
  RVTEST_SIGUPD(x11, x8, x7, x4, I_sub_cg_cp_rd_b4, I_sub_cg_cp_rd_b4_str)
     c5c:	0005a383          	lw	x7,0(x11)
     c60:	00438863          	beq	x7,x4,c70 <I_sub_cg_cp_rd_b4+0x18>
     c64:	0910346f          	jal	x8,44f4 <failedtest_x8_x7>
     c68:	00000c58          	.word	0x00000c58
     c6c:	000099a7          	.word	0x000099a7
     c70:	00458593          	addi	x11,x11,4

# Testcase cp_rd (Test destination rd = x5)
  RVTEST_TESTDATA_LOAD_INT(x21, x18) # load rs1: x18 = 0xb9523266
     c74:	000aa903          	lw	x18,0(x21)
     c78:	004a8a93          	addi	x21,x21,4
  RVTEST_TESTDATA_LOAD_INT(x21, x4) # load rs2: x4 = 0xd66fe676
     c7c:	000aa203          	lw	x4,0(x21)
     c80:	004a8a93          	addi	x21,x21,4

00000c84 <I_sub_cg_cp_rd_b5>:
I_sub_cg_cp_rd_b5:
  sub x5, x18, x4 # perform operation
     c84:	404902b3          	sub	x5,x18,x4
  # Check if x5 contains the expected result. x11 is the signature ptr, x8 is the link ptr, x7 is a temp reg.
  RVTEST_SIGUPD(x11, x8, x7, x5, I_sub_cg_cp_rd_b5, I_sub_cg_cp_rd_b5_str)
     c88:	0005a383          	lw	x7,0(x11)
     c8c:	00538863          	beq	x7,x5,c9c <I_sub_cg_cp_rd_b5+0x18>
     c90:	0650346f          	jal	x8,44f4 <failedtest_x8_x7>
     c94:	00000c84          	.word	0x00000c84
     c98:	000099d4          	.word	0x000099d4
     c9c:	00458593          	addi	x11,x11,4

# Testcase cp_rd (Test destination rd = x6)
  RVTEST_TESTDATA_LOAD_INT(x21, x18) # load rs1: x18 = 0x073a74fe
     ca0:	000aa903          	lw	x18,0(x21)
     ca4:	004a8a93          	addi	x21,x21,4
  RVTEST_TESTDATA_LOAD_INT(x21, x12) # load rs2: x12 = 0xa14d5a68
     ca8:	000aa603          	lw	x12,0(x21)
     cac:	004a8a93          	addi	x21,x21,4

00000cb0 <I_sub_cg_cp_rd_b6>:
I_sub_cg_cp_rd_b6:
  sub x6, x18, x12 # perform operation
     cb0:	40c90333          	sub	x6,x18,x12
  # Check if x6 contains the expected result. x11 is the signature ptr, x8 is the link ptr, x7 is a temp reg.
  RVTEST_SIGUPD(x11, x8, x7, x6, I_sub_cg_cp_rd_b6, I_sub_cg_cp_rd_b6_str)
     cb4:	0005a383          	lw	x7,0(x11)
     cb8:	00638863          	beq	x7,x6,cc8 <I_sub_cg_cp_rd_b6+0x18>
     cbc:	0390346f          	jal	x8,44f4 <failedtest_x8_x7>
     cc0:	00000cb0          	.word	0x00000cb0
     cc4:	00009a01          	.word	0x00009a01
     cc8:	00458593          	addi	x11,x11,4

  mv x4, x7 # switch temp register to avoid conflict with test
     ccc:	00038213          	addi	x4,x7,0
  mv x5, x8 # switch link pointer register to avoid conflict with test
     cd0:	00040293          	addi	x5,x8,0
# Testcase cp_rd (Test destination rd = x7)
  RVTEST_TESTDATA_LOAD_INT(x21, x30) # load rs1: x30 = 0x70a39e51
     cd4:	000aaf03          	lw	x30,0(x21)
     cd8:	004a8a93          	addi	x21,x21,4
  RVTEST_TESTDATA_LOAD_INT(x21, x22) # load rs2: x22 = 0x1ccf10c8
     cdc:	000aab03          	lw	x22,0(x21)
     ce0:	004a8a93          	addi	x21,x21,4

00000ce4 <I_sub_cg_cp_rd_b7>:
I_sub_cg_cp_rd_b7:
  sub x7, x30, x22 # perform operation
     ce4:	416f03b3          	sub	x7,x30,x22
  # Check if x7 contains the expected result. x11 is the signature ptr, x5 is the link ptr, x4 is a temp reg.
  RVTEST_SIGUPD(x11, x5, x4, x7, I_sub_cg_cp_rd_b7, I_sub_cg_cp_rd_b7_str)
     ce8:	0005a203          	lw	x4,0(x11)
     cec:	00720863          	beq	x4,x7,cfc <I_sub_cg_cp_rd_b7+0x18>
     cf0:	7ec032ef          	jal	x5,44dc <failedtest_x5_x4>
     cf4:	00000ce4          	.word	0x00000ce4
     cf8:	00009a2e          	.word	0x00009a2e
     cfc:	00458593          	addi	x11,x11,4

# Testcase cp_rd (Test destination rd = x8)
  RVTEST_TESTDATA_LOAD_INT(x21, x28) # load rs1: x28 = 0xab185be9
     d00:	000aae03          	lw	x28,0(x21)
     d04:	004a8a93          	addi	x21,x21,4
  RVTEST_TESTDATA_LOAD_INT(x21, x23) # load rs2: x23 = 0xb8db53f9
     d08:	000aab83          	lw	x23,0(x21)
     d0c:	004a8a93          	addi	x21,x21,4

00000d10 <I_sub_cg_cp_rd_b8>:
I_sub_cg_cp_rd_b8:
  sub x8, x28, x23 # perform operation
     d10:	417e0433          	sub	x8,x28,x23
  # Check if x8 contains the expected result. x11 is the signature ptr, x5 is the link ptr, x4 is a temp reg.
  RVTEST_SIGUPD(x11, x5, x4, x8, I_sub_cg_cp_rd_b8, I_sub_cg_cp_rd_b8_str)
     d14:	0005a203          	lw	x4,0(x11)
     d18:	00820863          	beq	x4,x8,d28 <I_sub_cg_cp_rd_b8+0x18>
     d1c:	7c0032ef          	jal	x5,44dc <failedtest_x5_x4>
     d20:	00000d10          	.word	0x00000d10
     d24:	00009a5b          	.word	0x00009a5b
     d28:	00458593          	addi	x11,x11,4

# Testcase cp_rd (Test destination rd = x9)
  RVTEST_TESTDATA_LOAD_INT(x21, x27) # load rs1: x27 = 0x3133ca97
     d2c:	000aad83          	lw	x27,0(x21)
     d30:	004a8a93          	addi	x21,x21,4
  RVTEST_TESTDATA_LOAD_INT(x21, x18) # load rs2: x18 = 0x985baea7
     d34:	000aa903          	lw	x18,0(x21)
     d38:	004a8a93          	addi	x21,x21,4

00000d3c <I_sub_cg_cp_rd_b9>:
I_sub_cg_cp_rd_b9:
  sub x9, x27, x18 # perform operation
     d3c:	412d84b3          	sub	x9,x27,x18
  # Check if x9 contains the expected result. x11 is the signature ptr, x5 is the link ptr, x4 is a temp reg.
  RVTEST_SIGUPD(x11, x5, x4, x9, I_sub_cg_cp_rd_b9, I_sub_cg_cp_rd_b9_str)
     d40:	0005a203          	lw	x4,0(x11)
     d44:	00920863          	beq	x4,x9,d54 <I_sub_cg_cp_rd_b9+0x18>
     d48:	794032ef          	jal	x5,44dc <failedtest_x5_x4>
     d4c:	00000d3c          	.word	0x00000d3c
     d50:	00009a88          	.word	0x00009a88
     d54:	00458593          	addi	x11,x11,4

# Testcase cp_rd (Test destination rd = x10)
  RVTEST_TESTDATA_LOAD_INT(x21, x17) # load rs1: x17 = 0xcb22f03b
     d58:	000aa883          	lw	x17,0(x21)
     d5c:	004a8a93          	addi	x21,x21,4
  RVTEST_TESTDATA_LOAD_INT(x21, x19) # load rs2: x19 = 0xc08c84bf
     d60:	000aa983          	lw	x19,0(x21)
     d64:	004a8a93          	addi	x21,x21,4

00000d68 <I_sub_cg_cp_rd_b10>:
I_sub_cg_cp_rd_b10:
  sub x10, x17, x19 # perform operation
     d68:	41388533          	sub	x10,x17,x19
  # Check if x10 contains the expected result. x11 is the signature ptr, x5 is the link ptr, x4 is a temp reg.
  RVTEST_SIGUPD(x11, x5, x4, x10, I_sub_cg_cp_rd_b10, I_sub_cg_cp_rd_b10_str)
     d6c:	0005a203          	lw	x4,0(x11)
     d70:	00a20863          	beq	x4,x10,d80 <I_sub_cg_cp_rd_b10+0x18>
     d74:	768032ef          	jal	x5,44dc <failedtest_x5_x4>
     d78:	00000d68          	.word	0x00000d68
     d7c:	00009ab5          	.word	0x00009ab5
     d80:	00458593          	addi	x11,x11,4

  mv x23, x11 # switch signature pointer register to avoid conflict with test
     d84:	00058b93          	addi	x23,x11,0
# Testcase cp_rd (Test destination rd = x11)
  RVTEST_TESTDATA_LOAD_INT(x21, x19) # load rs1: x19 = 0xcc9283da
     d88:	000aa983          	lw	x19,0(x21)
     d8c:	004a8a93          	addi	x21,x21,4
  RVTEST_TESTDATA_LOAD_INT(x21, x7) # load rs2: x7 = 0xe3bd083e
     d90:	000aa383          	lw	x7,0(x21)
     d94:	004a8a93          	addi	x21,x21,4

00000d98 <I_sub_cg_cp_rd_b11>:
I_sub_cg_cp_rd_b11:
  sub x11, x19, x7 # perform operation
     d98:	407985b3          	sub	x11,x19,x7
  # Check if x11 contains the expected result. x23 is the signature ptr, x5 is the link ptr, x4 is a temp reg.
  RVTEST_SIGUPD(x23, x5, x4, x11, I_sub_cg_cp_rd_b11, I_sub_cg_cp_rd_b11_str)
     d9c:	000ba203          	lw	x4,0(x23)
     da0:	00b20863          	beq	x4,x11,db0 <I_sub_cg_cp_rd_b11+0x18>
     da4:	738032ef          	jal	x5,44dc <failedtest_x5_x4>
     da8:	00000d98          	.word	0x00000d98
     dac:	00009ae3          	.word	0x00009ae3
     db0:	004b8b93          	addi	x23,x23,4

# Testcase cp_rd (Test destination rd = x12)
  RVTEST_TESTDATA_LOAD_INT(x21, x13) # load rs1: x13 = 0x8602db6d
     db4:	000aa683          	lw	x13,0(x21)
     db8:	004a8a93          	addi	x21,x21,4
  RVTEST_TESTDATA_LOAD_INT(x21, x0) # load rs2: x0 = 0xb308df38
     dbc:	000aa003          	lw	x0,0(x21)
     dc0:	004a8a93          	addi	x21,x21,4

00000dc4 <I_sub_cg_cp_rd_b12>:
I_sub_cg_cp_rd_b12:
  sub x12, x13, x0 # perform operation
     dc4:	40068633          	sub	x12,x13,x0
  # Check if x12 contains the expected result. x23 is the signature ptr, x5 is the link ptr, x4 is a temp reg.
  RVTEST_SIGUPD(x23, x5, x4, x12, I_sub_cg_cp_rd_b12, I_sub_cg_cp_rd_b12_str)
     dc8:	000ba203          	lw	x4,0(x23)
     dcc:	00c20863          	beq	x4,x12,ddc <I_sub_cg_cp_rd_b12+0x18>
     dd0:	70c032ef          	jal	x5,44dc <failedtest_x5_x4>
     dd4:	00000dc4          	.word	0x00000dc4
     dd8:	00009b11          	.word	0x00009b11
     ddc:	004b8b93          	addi	x23,x23,4

# Testcase cp_rd (Test destination rd = x13)
  RVTEST_TESTDATA_LOAD_INT(x21, x8) # load rs1: x8 = 0xdecda46d
     de0:	000aa403          	lw	x8,0(x21)
     de4:	004a8a93          	addi	x21,x21,4
  RVTEST_TESTDATA_LOAD_INT(x21, x22) # load rs2: x22 = 0xe364952b
     de8:	000aab03          	lw	x22,0(x21)
     dec:	004a8a93          	addi	x21,x21,4

00000df0 <I_sub_cg_cp_rd_b13>:
I_sub_cg_cp_rd_b13:
  sub x13, x8, x22 # perform operation
     df0:	416406b3          	sub	x13,x8,x22
  # Check if x13 contains the expected result. x23 is the signature ptr, x5 is the link ptr, x4 is a temp reg.
  RVTEST_SIGUPD(x23, x5, x4, x13, I_sub_cg_cp_rd_b13, I_sub_cg_cp_rd_b13_str)
     df4:	000ba203          	lw	x4,0(x23)
     df8:	00d20863          	beq	x4,x13,e08 <I_sub_cg_cp_rd_b13+0x18>
     dfc:	6e0032ef          	jal	x5,44dc <failedtest_x5_x4>
     e00:	00000df0          	.word	0x00000df0
     e04:	00009b3f          	.word	0x00009b3f
     e08:	004b8b93          	addi	x23,x23,4

# Testcase cp_rd (Test destination rd = x14)
  RVTEST_TESTDATA_LOAD_INT(x21, x19) # load rs1: x19 = 0xe740bdc2
     e0c:	000aa983          	lw	x19,0(x21)
     e10:	004a8a93          	addi	x21,x21,4
  RVTEST_TESTDATA_LOAD_INT(x21, x6) # load rs2: x6 = 0x8ff5ce57
     e14:	000aa303          	lw	x6,0(x21)
     e18:	004a8a93          	addi	x21,x21,4

00000e1c <I_sub_cg_cp_rd_b14>:
I_sub_cg_cp_rd_b14:
  sub x14, x19, x6 # perform operation
     e1c:	40698733          	sub	x14,x19,x6
  # Check if x14 contains the expected result. x23 is the signature ptr, x5 is the link ptr, x4 is a temp reg.
  RVTEST_SIGUPD(x23, x5, x4, x14, I_sub_cg_cp_rd_b14, I_sub_cg_cp_rd_b14_str)
     e20:	000ba203          	lw	x4,0(x23)
     e24:	00e20863          	beq	x4,x14,e34 <I_sub_cg_cp_rd_b14+0x18>
     e28:	6b4032ef          	jal	x5,44dc <failedtest_x5_x4>
     e2c:	00000e1c          	.word	0x00000e1c
     e30:	00009b6d          	.word	0x00009b6d
     e34:	004b8b93          	addi	x23,x23,4

# Testcase cp_rd (Test destination rd = x15)
  RVTEST_TESTDATA_LOAD_INT(x21, x11) # load rs1: x11 = 0xeb82e645
     e38:	000aa583          	lw	x11,0(x21)
     e3c:	004a8a93          	addi	x21,x21,4
  RVTEST_TESTDATA_LOAD_INT(x21, x12) # load rs2: x12 = 0x47879239
     e40:	000aa603          	lw	x12,0(x21)
     e44:	004a8a93          	addi	x21,x21,4

00000e48 <I_sub_cg_cp_rd_b15>:
I_sub_cg_cp_rd_b15:
  sub x15, x11, x12 # perform operation
     e48:	40c587b3          	sub	x15,x11,x12
  # Check if x15 contains the expected result. x23 is the signature ptr, x5 is the link ptr, x4 is a temp reg.
  RVTEST_SIGUPD(x23, x5, x4, x15, I_sub_cg_cp_rd_b15, I_sub_cg_cp_rd_b15_str)
     e4c:	000ba203          	lw	x4,0(x23)
     e50:	00f20863          	beq	x4,x15,e60 <I_sub_cg_cp_rd_b15+0x18>
     e54:	688032ef          	jal	x5,44dc <failedtest_x5_x4>
     e58:	00000e48          	.word	0x00000e48
     e5c:	00009b9b          	.word	0x00009b9b
     e60:	004b8b93          	addi	x23,x23,4

# Testcase cp_rd (Test destination rd = x16)
  RVTEST_TESTDATA_LOAD_INT(x21, x6) # load rs1: x6 = 0xa6c51350
     e64:	000aa303          	lw	x6,0(x21)
     e68:	004a8a93          	addi	x21,x21,4
  RVTEST_TESTDATA_LOAD_INT(x21, x25) # load rs2: x25 = 0xb65dc882
     e6c:	000aac83          	lw	x25,0(x21)
     e70:	004a8a93          	addi	x21,x21,4

00000e74 <I_sub_cg_cp_rd_b16>:
I_sub_cg_cp_rd_b16:
  sub x16, x6, x25 # perform operation
     e74:	41930833          	sub	x16,x6,x25
  # Check if x16 contains the expected result. x23 is the signature ptr, x5 is the link ptr, x4 is a temp reg.
  RVTEST_SIGUPD(x23, x5, x4, x16, I_sub_cg_cp_rd_b16, I_sub_cg_cp_rd_b16_str)
     e78:	000ba203          	lw	x4,0(x23)
     e7c:	01020863          	beq	x4,x16,e8c <I_sub_cg_cp_rd_b16+0x18>
     e80:	65c032ef          	jal	x5,44dc <failedtest_x5_x4>
     e84:	00000e74          	.word	0x00000e74
     e88:	00009bc9          	.word	0x00009bc9
     e8c:	004b8b93          	addi	x23,x23,4

# Testcase cp_rd (Test destination rd = x17)
  RVTEST_TESTDATA_LOAD_INT(x21, x16) # load rs1: x16 = 0x1355545d
     e90:	000aa803          	lw	x16,0(x21)
     e94:	004a8a93          	addi	x21,x21,4
  RVTEST_TESTDATA_LOAD_INT(x21, x10) # load rs2: x10 = 0x196466e5
     e98:	000aa503          	lw	x10,0(x21)
     e9c:	004a8a93          	addi	x21,x21,4

00000ea0 <I_sub_cg_cp_rd_b17>:
I_sub_cg_cp_rd_b17:
  sub x17, x16, x10 # perform operation
     ea0:	40a808b3          	sub	x17,x16,x10
  # Check if x17 contains the expected result. x23 is the signature ptr, x5 is the link ptr, x4 is a temp reg.
  RVTEST_SIGUPD(x23, x5, x4, x17, I_sub_cg_cp_rd_b17, I_sub_cg_cp_rd_b17_str)
     ea4:	000ba203          	lw	x4,0(x23)
     ea8:	01120863          	beq	x4,x17,eb8 <I_sub_cg_cp_rd_b17+0x18>
     eac:	630032ef          	jal	x5,44dc <failedtest_x5_x4>
     eb0:	00000ea0          	.word	0x00000ea0
     eb4:	00009bf7          	.word	0x00009bf7
     eb8:	004b8b93          	addi	x23,x23,4

# Testcase cp_rd (Test destination rd = x18)
  RVTEST_TESTDATA_LOAD_INT(x21, x31) # load rs1: x31 = 0xa15c150d
     ebc:	000aaf83          	lw	x31,0(x21)
     ec0:	004a8a93          	addi	x21,x21,4
  RVTEST_TESTDATA_LOAD_INT(x21, x19) # load rs2: x19 = 0x48e8d093
     ec4:	000aa983          	lw	x19,0(x21)
     ec8:	004a8a93          	addi	x21,x21,4

00000ecc <I_sub_cg_cp_rd_b18>:
I_sub_cg_cp_rd_b18:
  sub x18, x31, x19 # perform operation
     ecc:	413f8933          	sub	x18,x31,x19
  # Check if x18 contains the expected result. x23 is the signature ptr, x5 is the link ptr, x4 is a temp reg.
  RVTEST_SIGUPD(x23, x5, x4, x18, I_sub_cg_cp_rd_b18, I_sub_cg_cp_rd_b18_str)
     ed0:	000ba203          	lw	x4,0(x23)
     ed4:	01220863          	beq	x4,x18,ee4 <I_sub_cg_cp_rd_b18+0x18>
     ed8:	604032ef          	jal	x5,44dc <failedtest_x5_x4>
     edc:	00000ecc          	.word	0x00000ecc
     ee0:	00009c25          	.word	0x00009c25
     ee4:	004b8b93          	addi	x23,x23,4

# Testcase cp_rd (Test destination rd = x19)
  RVTEST_TESTDATA_LOAD_INT(x21, x3) # load rs1: x3 = 0x76b08c0f
     ee8:	000aa183          	lw	x3,0(x21)
     eec:	004a8a93          	addi	x21,x21,4
  RVTEST_TESTDATA_LOAD_INT(x21, x30) # load rs2: x30 = 0x3621cc62
     ef0:	000aaf03          	lw	x30,0(x21)
     ef4:	004a8a93          	addi	x21,x21,4

00000ef8 <I_sub_cg_cp_rd_b19>:
I_sub_cg_cp_rd_b19:
  sub x19, x3, x30 # perform operation
     ef8:	41e189b3          	sub	x19,x3,x30
  # Check if x19 contains the expected result. x23 is the signature ptr, x5 is the link ptr, x4 is a temp reg.
  RVTEST_SIGUPD(x23, x5, x4, x19, I_sub_cg_cp_rd_b19, I_sub_cg_cp_rd_b19_str)
     efc:	000ba203          	lw	x4,0(x23)
     f00:	01320863          	beq	x4,x19,f10 <I_sub_cg_cp_rd_b19+0x18>
     f04:	5d8032ef          	jal	x5,44dc <failedtest_x5_x4>
     f08:	00000ef8          	.word	0x00000ef8
     f0c:	00009c53          	.word	0x00009c53
     f10:	004b8b93          	addi	x23,x23,4

# Testcase cp_rd (Test destination rd = x20)
  RVTEST_TESTDATA_LOAD_INT(x21, x22) # load rs1: x22 = 0x345be6b0
     f14:	000aab03          	lw	x22,0(x21)
     f18:	004a8a93          	addi	x21,x21,4
  RVTEST_TESTDATA_LOAD_INT(x21, x15) # load rs2: x15 = 0x067f55e9
     f1c:	000aa783          	lw	x15,0(x21)
     f20:	004a8a93          	addi	x21,x21,4

00000f24 <I_sub_cg_cp_rd_b20>:
I_sub_cg_cp_rd_b20:
  sub x20, x22, x15 # perform operation
     f24:	40fb0a33          	sub	x20,x22,x15
  # Check if x20 contains the expected result. x23 is the signature ptr, x5 is the link ptr, x4 is a temp reg.
  RVTEST_SIGUPD(x23, x5, x4, x20, I_sub_cg_cp_rd_b20, I_sub_cg_cp_rd_b20_str)
     f28:	000ba203          	lw	x4,0(x23)
     f2c:	01420863          	beq	x4,x20,f3c <I_sub_cg_cp_rd_b20+0x18>
     f30:	5ac032ef          	jal	x5,44dc <failedtest_x5_x4>
     f34:	00000f24          	.word	0x00000f24
     f38:	00009c81          	.word	0x00009c81
     f3c:	004b8b93          	addi	x23,x23,4

  mv x20, x21 # switch data pointer register to avoid conflict with test
     f40:	000a8a13          	addi	x20,x21,0
# Testcase cp_rd (Test destination rd = x21)
  RVTEST_TESTDATA_LOAD_INT(x20, x6) # load rs1: x6 = 0x2ae75375
     f44:	000a2303          	lw	x6,0(x20)
     f48:	004a0a13          	addi	x20,x20,4
  RVTEST_TESTDATA_LOAD_INT(x20, x30) # load rs2: x30 = 0x835393c2
     f4c:	000a2f03          	lw	x30,0(x20)
     f50:	004a0a13          	addi	x20,x20,4

00000f54 <I_sub_cg_cp_rd_b21>:
I_sub_cg_cp_rd_b21:
  sub x21, x6, x30 # perform operation
     f54:	41e30ab3          	sub	x21,x6,x30
  # Check if x21 contains the expected result. x23 is the signature ptr, x5 is the link ptr, x4 is a temp reg.
  RVTEST_SIGUPD(x23, x5, x4, x21, I_sub_cg_cp_rd_b21, I_sub_cg_cp_rd_b21_str)
     f58:	000ba203          	lw	x4,0(x23)
     f5c:	01520863          	beq	x4,x21,f6c <I_sub_cg_cp_rd_b21+0x18>
     f60:	57c032ef          	jal	x5,44dc <failedtest_x5_x4>
     f64:	00000f54          	.word	0x00000f54
     f68:	00009caf          	.word	0x00009caf
     f6c:	004b8b93          	addi	x23,x23,4

# Testcase cp_rd (Test destination rd = x22)
  RVTEST_TESTDATA_LOAD_INT(x20, x10) # load rs1: x10 = 0xf36cb020
     f70:	000a2503          	lw	x10,0(x20)
     f74:	004a0a13          	addi	x20,x20,4
  RVTEST_TESTDATA_LOAD_INT(x20, x18) # load rs2: x18 = 0x521c63ae
     f78:	000a2903          	lw	x18,0(x20)
     f7c:	004a0a13          	addi	x20,x20,4

00000f80 <I_sub_cg_cp_rd_b22>:
I_sub_cg_cp_rd_b22:
  sub x22, x10, x18 # perform operation
     f80:	41250b33          	sub	x22,x10,x18
  # Check if x22 contains the expected result. x23 is the signature ptr, x5 is the link ptr, x4 is a temp reg.
  RVTEST_SIGUPD(x23, x5, x4, x22, I_sub_cg_cp_rd_b22, I_sub_cg_cp_rd_b22_str)
     f84:	000ba203          	lw	x4,0(x23)
     f88:	01620863          	beq	x4,x22,f98 <I_sub_cg_cp_rd_b22+0x18>
     f8c:	550032ef          	jal	x5,44dc <failedtest_x5_x4>
     f90:	00000f80          	.word	0x00000f80
     f94:	00009cdd          	.word	0x00009cdd
     f98:	004b8b93          	addi	x23,x23,4

  mv x9, x23 # switch signature pointer register to avoid conflict with test
     f9c:	000b8493          	addi	x9,x23,0
# Testcase cp_rd (Test destination rd = x23)
  RVTEST_TESTDATA_LOAD_INT(x20, x7) # load rs1: x7 = 0x34b2aefe
     fa0:	000a2383          	lw	x7,0(x20)
     fa4:	004a0a13          	addi	x20,x20,4
  RVTEST_TESTDATA_LOAD_INT(x20, x11) # load rs2: x11 = 0x57d5118c
     fa8:	000a2583          	lw	x11,0(x20)
     fac:	004a0a13          	addi	x20,x20,4

00000fb0 <I_sub_cg_cp_rd_b23>:
I_sub_cg_cp_rd_b23:
  sub x23, x7, x11 # perform operation
     fb0:	40b38bb3          	sub	x23,x7,x11
  # Check if x23 contains the expected result. x9 is the signature ptr, x5 is the link ptr, x4 is a temp reg.
  RVTEST_SIGUPD(x9, x5, x4, x23, I_sub_cg_cp_rd_b23, I_sub_cg_cp_rd_b23_str)
     fb4:	0004a203          	lw	x4,0(x9)
     fb8:	01720863          	beq	x4,x23,fc8 <I_sub_cg_cp_rd_b23+0x18>
     fbc:	520032ef          	jal	x5,44dc <failedtest_x5_x4>
     fc0:	00000fb0          	.word	0x00000fb0
     fc4:	00009d0b          	.word	0x00009d0b
     fc8:	00448493          	addi	x9,x9,4

# Testcase cp_rd (Test destination rd = x24)
  RVTEST_TESTDATA_LOAD_INT(x20, x27) # load rs1: x27 = 0xc2fe8e80
     fcc:	000a2d83          	lw	x27,0(x20)
     fd0:	004a0a13          	addi	x20,x20,4
  RVTEST_TESTDATA_LOAD_INT(x20, x23) # load rs2: x23 = 0x2a099c2b
     fd4:	000a2b83          	lw	x23,0(x20)
     fd8:	004a0a13          	addi	x20,x20,4

00000fdc <I_sub_cg_cp_rd_b24>:
I_sub_cg_cp_rd_b24:
  sub x24, x27, x23 # perform operation
     fdc:	417d8c33          	sub	x24,x27,x23
  # Check if x24 contains the expected result. x9 is the signature ptr, x5 is the link ptr, x4 is a temp reg.
  RVTEST_SIGUPD(x9, x5, x4, x24, I_sub_cg_cp_rd_b24, I_sub_cg_cp_rd_b24_str)
     fe0:	0004a203          	lw	x4,0(x9)
     fe4:	01820863          	beq	x4,x24,ff4 <I_sub_cg_cp_rd_b24+0x18>
     fe8:	4f4032ef          	jal	x5,44dc <failedtest_x5_x4>
     fec:	00000fdc          	.word	0x00000fdc
     ff0:	00009d39          	.word	0x00009d39
     ff4:	00448493          	addi	x9,x9,4

# Testcase cp_rd (Test destination rd = x25)
  RVTEST_TESTDATA_LOAD_INT(x20, x19) # load rs1: x19 = 0x1e06d399
     ff8:	000a2983          	lw	x19,0(x20)
     ffc:	004a0a13          	addi	x20,x20,4
  RVTEST_TESTDATA_LOAD_INT(x20, x6) # load rs2: x6 = 0xe27ce966
    1000:	000a2303          	lw	x6,0(x20)
    1004:	004a0a13          	addi	x20,x20,4

00001008 <I_sub_cg_cp_rd_b25>:
I_sub_cg_cp_rd_b25:
  sub x25, x19, x6 # perform operation
    1008:	40698cb3          	sub	x25,x19,x6
  # Check if x25 contains the expected result. x9 is the signature ptr, x5 is the link ptr, x4 is a temp reg.
  RVTEST_SIGUPD(x9, x5, x4, x25, I_sub_cg_cp_rd_b25, I_sub_cg_cp_rd_b25_str)
    100c:	0004a203          	lw	x4,0(x9)
    1010:	01920863          	beq	x4,x25,1020 <I_sub_cg_cp_rd_b25+0x18>
    1014:	4c8032ef          	jal	x5,44dc <failedtest_x5_x4>
    1018:	00001008          	.word	0x00001008
    101c:	00009d67          	.word	0x00009d67
    1020:	00448493          	addi	x9,x9,4

# Testcase cp_rd (Test destination rd = x26)
  RVTEST_TESTDATA_LOAD_INT(x20, x23) # load rs1: x23 = 0x297438a5
    1024:	000a2b83          	lw	x23,0(x20)
    1028:	004a0a13          	addi	x20,x20,4
  RVTEST_TESTDATA_LOAD_INT(x20, x27) # load rs2: x27 = 0x0ae34eee
    102c:	000a2d83          	lw	x27,0(x20)
    1030:	004a0a13          	addi	x20,x20,4

00001034 <I_sub_cg_cp_rd_b26>:
I_sub_cg_cp_rd_b26:
  sub x26, x23, x27 # perform operation
    1034:	41bb8d33          	sub	x26,x23,x27
  # Check if x26 contains the expected result. x9 is the signature ptr, x5 is the link ptr, x4 is a temp reg.
  RVTEST_SIGUPD(x9, x5, x4, x26, I_sub_cg_cp_rd_b26, I_sub_cg_cp_rd_b26_str)
    1038:	0004a203          	lw	x4,0(x9)
    103c:	01a20863          	beq	x4,x26,104c <I_sub_cg_cp_rd_b26+0x18>
    1040:	49c032ef          	jal	x5,44dc <failedtest_x5_x4>
    1044:	00001034          	.word	0x00001034
    1048:	00009d95          	.word	0x00009d95
    104c:	00448493          	addi	x9,x9,4

# Testcase cp_rd (Test destination rd = x27)
  RVTEST_TESTDATA_LOAD_INT(x20, x21) # load rs1: x21 = 0x553f0451
    1050:	000a2a83          	lw	x21,0(x20)
    1054:	004a0a13          	addi	x20,x20,4
  RVTEST_TESTDATA_LOAD_INT(x20, x23) # load rs2: x23 = 0x43aa9df3
    1058:	000a2b83          	lw	x23,0(x20)
    105c:	004a0a13          	addi	x20,x20,4

00001060 <I_sub_cg_cp_rd_b27>:
I_sub_cg_cp_rd_b27:
  sub x27, x21, x23 # perform operation
    1060:	417a8db3          	sub	x27,x21,x23
  # Check if x27 contains the expected result. x9 is the signature ptr, x5 is the link ptr, x4 is a temp reg.
  RVTEST_SIGUPD(x9, x5, x4, x27, I_sub_cg_cp_rd_b27, I_sub_cg_cp_rd_b27_str)
    1064:	0004a203          	lw	x4,0(x9)
    1068:	01b20863          	beq	x4,x27,1078 <I_sub_cg_cp_rd_b27+0x18>
    106c:	470032ef          	jal	x5,44dc <failedtest_x5_x4>
    1070:	00001060          	.word	0x00001060
    1074:	00009dc3          	.word	0x00009dc3
    1078:	00448493          	addi	x9,x9,4

# Testcase cp_rd (Test destination rd = x28)
  RVTEST_TESTDATA_LOAD_INT(x20, x22) # load rs1: x22 = 0xfe67bd74
    107c:	000a2b03          	lw	x22,0(x20)
    1080:	004a0a13          	addi	x20,x20,4
  RVTEST_TESTDATA_LOAD_INT(x20, x0) # load rs2: x0 = 0xd5c3c9d8
    1084:	000a2003          	lw	x0,0(x20)
    1088:	004a0a13          	addi	x20,x20,4

0000108c <I_sub_cg_cp_rd_b28>:
I_sub_cg_cp_rd_b28:
  sub x28, x22, x0 # perform operation
    108c:	400b0e33          	sub	x28,x22,x0
  # Check if x28 contains the expected result. x9 is the signature ptr, x5 is the link ptr, x4 is a temp reg.
  RVTEST_SIGUPD(x9, x5, x4, x28, I_sub_cg_cp_rd_b28, I_sub_cg_cp_rd_b28_str)
    1090:	0004a203          	lw	x4,0(x9)
    1094:	01c20863          	beq	x4,x28,10a4 <I_sub_cg_cp_rd_b28+0x18>
    1098:	444032ef          	jal	x5,44dc <failedtest_x5_x4>
    109c:	0000108c          	.word	0x0000108c
    10a0:	00009df1          	.word	0x00009df1
    10a4:	00448493          	addi	x9,x9,4

# Testcase cp_rd (Test destination rd = x29)
  RVTEST_TESTDATA_LOAD_INT(x20, x30) # load rs1: x30 = 0x92a6560c
    10a8:	000a2f03          	lw	x30,0(x20)
    10ac:	004a0a13          	addi	x20,x20,4
  RVTEST_TESTDATA_LOAD_INT(x20, x10) # load rs2: x10 = 0xb457819e
    10b0:	000a2503          	lw	x10,0(x20)
    10b4:	004a0a13          	addi	x20,x20,4

000010b8 <I_sub_cg_cp_rd_b29>:
I_sub_cg_cp_rd_b29:
  sub x29, x30, x10 # perform operation
    10b8:	40af0eb3          	sub	x29,x30,x10
  # Check if x29 contains the expected result. x9 is the signature ptr, x5 is the link ptr, x4 is a temp reg.
  RVTEST_SIGUPD(x9, x5, x4, x29, I_sub_cg_cp_rd_b29, I_sub_cg_cp_rd_b29_str)
    10bc:	0004a203          	lw	x4,0(x9)
    10c0:	01d20863          	beq	x4,x29,10d0 <I_sub_cg_cp_rd_b29+0x18>
    10c4:	418032ef          	jal	x5,44dc <failedtest_x5_x4>
    10c8:	000010b8          	.word	0x000010b8
    10cc:	00009e1f          	.word	0x00009e1f
    10d0:	00448493          	addi	x9,x9,4

# Testcase cp_rd (Test destination rd = x30)
  RVTEST_TESTDATA_LOAD_INT(x20, x31) # load rs1: x31 = 0xe4a0a315
    10d4:	000a2f83          	lw	x31,0(x20)
    10d8:	004a0a13          	addi	x20,x20,4
  RVTEST_TESTDATA_LOAD_INT(x20, x13) # load rs2: x13 = 0x114dd452
    10dc:	000a2683          	lw	x13,0(x20)
    10e0:	004a0a13          	addi	x20,x20,4

000010e4 <I_sub_cg_cp_rd_b30>:
I_sub_cg_cp_rd_b30:
  sub x30, x31, x13 # perform operation
    10e4:	40df8f33          	sub	x30,x31,x13
  # Check if x30 contains the expected result. x9 is the signature ptr, x5 is the link ptr, x4 is a temp reg.
  RVTEST_SIGUPD(x9, x5, x4, x30, I_sub_cg_cp_rd_b30, I_sub_cg_cp_rd_b30_str)
    10e8:	0004a203          	lw	x4,0(x9)
    10ec:	01e20863          	beq	x4,x30,10fc <I_sub_cg_cp_rd_b30+0x18>
    10f0:	3ec032ef          	jal	x5,44dc <failedtest_x5_x4>
    10f4:	000010e4          	.word	0x000010e4
    10f8:	00009e4d          	.word	0x00009e4d
    10fc:	00448493          	addi	x9,x9,4

# Testcase cp_rd (Test destination rd = x31)
  RVTEST_TESTDATA_LOAD_INT(x20, x6) # load rs1: x6 = 0xe8110a08
    1100:	000a2303          	lw	x6,0(x20)
    1104:	004a0a13          	addi	x20,x20,4
  RVTEST_TESTDATA_LOAD_INT(x20, x27) # load rs2: x27 = 0xb6c79d2a
    1108:	000a2d83          	lw	x27,0(x20)
    110c:	004a0a13          	addi	x20,x20,4

00001110 <I_sub_cg_cp_rd_b31>:
I_sub_cg_cp_rd_b31:
  sub x31, x6, x27 # perform operation
    1110:	41b30fb3          	sub	x31,x6,x27
  # Check if x31 contains the expected result. x9 is the signature ptr, x5 is the link ptr, x4 is a temp reg.
  RVTEST_SIGUPD(x9, x5, x4, x31, I_sub_cg_cp_rd_b31, I_sub_cg_cp_rd_b31_str)
    1114:	0004a203          	lw	x4,0(x9)
    1118:	01f20863          	beq	x4,x31,1128 <I_sub_cg_cp_rd_b31+0x18>
    111c:	3c0032ef          	jal	x5,44dc <failedtest_x5_x4>
    1120:	00001110          	.word	0x00001110
    1124:	00009e7b          	.word	0x00009e7b
    1128:	00448493          	addi	x9,x9,4
/////////////////////////////////
// cp_rs1_edges
/////////////////////////////////

# Testcase cp_rs1_edges (Test source rs1 value = 0x00000000)
  RVTEST_TESTDATA_LOAD_INT(x20, x15) # load rs1: x15 = 0x00000000
    112c:	000a2783          	lw	x15,0(x20)
    1130:	004a0a13          	addi	x20,x20,4
  RVTEST_TESTDATA_LOAD_INT(x20, x25) # load rs2: x25 = 0x11c5e7da
    1134:	000a2c83          	lw	x25,0(x20)
    1138:	004a0a13          	addi	x20,x20,4

0000113c <I_sub_cg_cp_rs1_edges_0x0>:
I_sub_cg_cp_rs1_edges_0x0:
  sub x30, x15, x25 # perform operation
    113c:	41978f33          	sub	x30,x15,x25
  # Check if x30 contains the expected result. x9 is the signature ptr, x5 is the link ptr, x4 is a temp reg.
  RVTEST_SIGUPD(x9, x5, x4, x30, I_sub_cg_cp_rs1_edges_0x0, I_sub_cg_cp_rs1_edges_0x0_str)
    1140:	0004a203          	lw	x4,0(x9)
    1144:	01e20863          	beq	x4,x30,1154 <I_sub_cg_cp_rs1_edges_0x0+0x18>
    1148:	394032ef          	jal	x5,44dc <failedtest_x5_x4>
    114c:	0000113c          	.word	0x0000113c
    1150:	00009ea9          	.word	0x00009ea9
    1154:	00448493          	addi	x9,x9,4

# Testcase cp_rs1_edges (Test source rs1 value = 0x00000001)
  RVTEST_TESTDATA_LOAD_INT(x20, x24) # load rs1: x24 = 0x00000001
    1158:	000a2c03          	lw	x24,0(x20)
    115c:	004a0a13          	addi	x20,x20,4
  RVTEST_TESTDATA_LOAD_INT(x20, x22) # load rs2: x22 = 0x39f88d11
    1160:	000a2b03          	lw	x22,0(x20)
    1164:	004a0a13          	addi	x20,x20,4

00001168 <I_sub_cg_cp_rs1_edges_0x1>:
I_sub_cg_cp_rs1_edges_0x1:
  sub x14, x24, x22 # perform operation
    1168:	416c0733          	sub	x14,x24,x22
  # Check if x14 contains the expected result. x9 is the signature ptr, x5 is the link ptr, x4 is a temp reg.
  RVTEST_SIGUPD(x9, x5, x4, x14, I_sub_cg_cp_rs1_edges_0x1, I_sub_cg_cp_rs1_edges_0x1_str)
    116c:	0004a203          	lw	x4,0(x9)
    1170:	00e20863          	beq	x4,x14,1180 <I_sub_cg_cp_rs1_edges_0x1+0x18>
    1174:	368032ef          	jal	x5,44dc <failedtest_x5_x4>
    1178:	00001168          	.word	0x00001168
    117c:	00009ede          	.word	0x00009ede
    1180:	00448493          	addi	x9,x9,4

# Testcase cp_rs1_edges (Test source rs1 value = 0x00000002)
  RVTEST_TESTDATA_LOAD_INT(x20, x27) # load rs1: x27 = 0x00000002
    1184:	000a2d83          	lw	x27,0(x20)
    1188:	004a0a13          	addi	x20,x20,4
  RVTEST_TESTDATA_LOAD_INT(x20, x3) # load rs2: x3 = 0xe603a805
    118c:	000a2183          	lw	x3,0(x20)
    1190:	004a0a13          	addi	x20,x20,4

00001194 <I_sub_cg_cp_rs1_edges_0x2>:
I_sub_cg_cp_rs1_edges_0x2:
  sub x8, x27, x3 # perform operation
    1194:	403d8433          	sub	x8,x27,x3
  # Check if x8 contains the expected result. x9 is the signature ptr, x5 is the link ptr, x4 is a temp reg.
  RVTEST_SIGUPD(x9, x5, x4, x8, I_sub_cg_cp_rs1_edges_0x2, I_sub_cg_cp_rs1_edges_0x2_str)
    1198:	0004a203          	lw	x4,0(x9)
    119c:	00820863          	beq	x4,x8,11ac <I_sub_cg_cp_rs1_edges_0x2+0x18>
    11a0:	33c032ef          	jal	x5,44dc <failedtest_x5_x4>
    11a4:	00001194          	.word	0x00001194
    11a8:	00009f13          	.word	0x00009f13
    11ac:	00448493          	addi	x9,x9,4

# Testcase cp_rs1_edges (Test source rs1 value = 0x80000000)
  RVTEST_TESTDATA_LOAD_INT(x20, x15) # load rs1: x15 = 0x80000000
    11b0:	000a2783          	lw	x15,0(x20)
    11b4:	004a0a13          	addi	x20,x20,4
  RVTEST_TESTDATA_LOAD_INT(x20, x25) # load rs2: x25 = 0xfd9bda49
    11b8:	000a2c83          	lw	x25,0(x20)
    11bc:	004a0a13          	addi	x20,x20,4

000011c0 <I_sub_cg_cp_rs1_edges_0x80000000>:
I_sub_cg_cp_rs1_edges_0x80000000:
  sub x24, x15, x25 # perform operation
    11c0:	41978c33          	sub	x24,x15,x25
  # Check if x24 contains the expected result. x9 is the signature ptr, x5 is the link ptr, x4 is a temp reg.
  RVTEST_SIGUPD(x9, x5, x4, x24, I_sub_cg_cp_rs1_edges_0x80000000, I_sub_cg_cp_rs1_edges_0x80000000_str)
    11c4:	0004a203          	lw	x4,0(x9)
    11c8:	01820863          	beq	x4,x24,11d8 <I_sub_cg_cp_rs1_edges_0x80000000+0x18>
    11cc:	310032ef          	jal	x5,44dc <failedtest_x5_x4>
    11d0:	000011c0          	.word	0x000011c0
    11d4:	00009f48          	.word	0x00009f48
    11d8:	00448493          	addi	x9,x9,4

# Testcase cp_rs1_edges (Test source rs1 value = 0x80000001)
  RVTEST_TESTDATA_LOAD_INT(x20, x23) # load rs1: x23 = 0x80000001
    11dc:	000a2b83          	lw	x23,0(x20)
    11e0:	004a0a13          	addi	x20,x20,4
  RVTEST_TESTDATA_LOAD_INT(x20, x16) # load rs2: x16 = 0xbcb492a1
    11e4:	000a2803          	lw	x16,0(x20)
    11e8:	004a0a13          	addi	x20,x20,4

000011ec <I_sub_cg_cp_rs1_edges_0x80000001>:
I_sub_cg_cp_rs1_edges_0x80000001:
  sub x22, x23, x16 # perform operation
    11ec:	410b8b33          	sub	x22,x23,x16
  # Check if x22 contains the expected result. x9 is the signature ptr, x5 is the link ptr, x4 is a temp reg.
  RVTEST_SIGUPD(x9, x5, x4, x22, I_sub_cg_cp_rs1_edges_0x80000001, I_sub_cg_cp_rs1_edges_0x80000001_str)
    11f0:	0004a203          	lw	x4,0(x9)
    11f4:	01620863          	beq	x4,x22,1204 <I_sub_cg_cp_rs1_edges_0x80000001+0x18>
    11f8:	2e4032ef          	jal	x5,44dc <failedtest_x5_x4>
    11fc:	000011ec          	.word	0x000011ec
    1200:	00009f85          	.word	0x00009f85
    1204:	00448493          	addi	x9,x9,4

# Testcase cp_rs1_edges (Test source rs1 value = 0x7fffffff)
  RVTEST_TESTDATA_LOAD_INT(x20, x6) # load rs1: x6 = 0x7fffffff
    1208:	000a2303          	lw	x6,0(x20)
    120c:	004a0a13          	addi	x20,x20,4
  RVTEST_TESTDATA_LOAD_INT(x20, x28) # load rs2: x28 = 0x02da84f7
    1210:	000a2e03          	lw	x28,0(x20)
    1214:	004a0a13          	addi	x20,x20,4

00001218 <I_sub_cg_cp_rs1_edges_0x7fffffff>:
I_sub_cg_cp_rs1_edges_0x7fffffff:
  sub x18, x6, x28 # perform operation
    1218:	41c30933          	sub	x18,x6,x28
  # Check if x18 contains the expected result. x9 is the signature ptr, x5 is the link ptr, x4 is a temp reg.
  RVTEST_SIGUPD(x9, x5, x4, x18, I_sub_cg_cp_rs1_edges_0x7fffffff, I_sub_cg_cp_rs1_edges_0x7fffffff_str)
    121c:	0004a203          	lw	x4,0(x9)
    1220:	01220863          	beq	x4,x18,1230 <I_sub_cg_cp_rs1_edges_0x7fffffff+0x18>
    1224:	2b8032ef          	jal	x5,44dc <failedtest_x5_x4>
    1228:	00001218          	.word	0x00001218
    122c:	00009fc2          	.word	0x00009fc2
    1230:	00448493          	addi	x9,x9,4

# Testcase cp_rs1_edges (Test source rs1 value = 0x7ffffffe)
  RVTEST_TESTDATA_LOAD_INT(x20, x14) # load rs1: x14 = 0x7ffffffe
    1234:	000a2703          	lw	x14,0(x20)
    1238:	004a0a13          	addi	x20,x20,4
  RVTEST_TESTDATA_LOAD_INT(x20, x18) # load rs2: x18 = 0x839601ff
    123c:	000a2903          	lw	x18,0(x20)
    1240:	004a0a13          	addi	x20,x20,4

00001244 <I_sub_cg_cp_rs1_edges_0x7ffffffe>:
I_sub_cg_cp_rs1_edges_0x7ffffffe:
  sub x23, x14, x18 # perform operation
    1244:	41270bb3          	sub	x23,x14,x18
  # Check if x23 contains the expected result. x9 is the signature ptr, x5 is the link ptr, x4 is a temp reg.
  RVTEST_SIGUPD(x9, x5, x4, x23, I_sub_cg_cp_rs1_edges_0x7ffffffe, I_sub_cg_cp_rs1_edges_0x7ffffffe_str)
    1248:	0004a203          	lw	x4,0(x9)
    124c:	01720863          	beq	x4,x23,125c <I_sub_cg_cp_rs1_edges_0x7ffffffe+0x18>
    1250:	28c032ef          	jal	x5,44dc <failedtest_x5_x4>
    1254:	00001244          	.word	0x00001244
    1258:	00009fff          	.word	0x00009fff
    125c:	00448493          	addi	x9,x9,4

# Testcase cp_rs1_edges (Test source rs1 value = 0xffffffff)
  RVTEST_TESTDATA_LOAD_INT(x20, x3) # load rs1: x3 = 0xffffffff
    1260:	000a2183          	lw	x3,0(x20)
    1264:	004a0a13          	addi	x20,x20,4
  RVTEST_TESTDATA_LOAD_INT(x20, x11) # load rs2: x11 = 0x0d6262de
    1268:	000a2583          	lw	x11,0(x20)
    126c:	004a0a13          	addi	x20,x20,4

00001270 <I_sub_cg_cp_rs1_edges_0xffffffff>:
I_sub_cg_cp_rs1_edges_0xffffffff:
  sub x17, x3, x11 # perform operation
    1270:	40b188b3          	sub	x17,x3,x11
  # Check if x17 contains the expected result. x9 is the signature ptr, x5 is the link ptr, x4 is a temp reg.
  RVTEST_SIGUPD(x9, x5, x4, x17, I_sub_cg_cp_rs1_edges_0xffffffff, I_sub_cg_cp_rs1_edges_0xffffffff_str)
    1274:	0004a203          	lw	x4,0(x9)
    1278:	01120863          	beq	x4,x17,1288 <I_sub_cg_cp_rs1_edges_0xffffffff+0x18>
    127c:	260032ef          	jal	x5,44dc <failedtest_x5_x4>
    1280:	00001270          	.word	0x00001270
    1284:	0000a03c          	.word	0x0000a03c
    1288:	00448493          	addi	x9,x9,4

# Testcase cp_rs1_edges (Test source rs1 value = 0xfffffffe)
  RVTEST_TESTDATA_LOAD_INT(x20, x7) # load rs1: x7 = 0xfffffffe
    128c:	000a2383          	lw	x7,0(x20)
    1290:	004a0a13          	addi	x20,x20,4
  RVTEST_TESTDATA_LOAD_INT(x20, x22) # load rs2: x22 = 0xd60f5038
    1294:	000a2b03          	lw	x22,0(x20)
    1298:	004a0a13          	addi	x20,x20,4

0000129c <I_sub_cg_cp_rs1_edges_0xfffffffe>:
I_sub_cg_cp_rs1_edges_0xfffffffe:
  sub x1, x7, x22 # perform operation
    129c:	416380b3          	sub	x1,x7,x22
  # Check if x1 contains the expected result. x9 is the signature ptr, x5 is the link ptr, x4 is a temp reg.
  RVTEST_SIGUPD(x9, x5, x4, x1, I_sub_cg_cp_rs1_edges_0xfffffffe, I_sub_cg_cp_rs1_edges_0xfffffffe_str)
    12a0:	0004a203          	lw	x4,0(x9)
    12a4:	00120863          	beq	x4,x1,12b4 <I_sub_cg_cp_rs1_edges_0xfffffffe+0x18>
    12a8:	234032ef          	jal	x5,44dc <failedtest_x5_x4>
    12ac:	0000129c          	.word	0x0000129c
    12b0:	0000a079          	.word	0x0000a079
    12b4:	00448493          	addi	x9,x9,4

# Testcase cp_rs1_edges (Test source rs1 value = 0x5bbc8872)
  RVTEST_TESTDATA_LOAD_INT(x20, x22) # load rs1: x22 = 0x5bbc8872
    12b8:	000a2b03          	lw	x22,0(x20)
    12bc:	004a0a13          	addi	x20,x20,4
  RVTEST_TESTDATA_LOAD_INT(x20, x7) # load rs2: x7 = 0xaa236c77
    12c0:	000a2383          	lw	x7,0(x20)
    12c4:	004a0a13          	addi	x20,x20,4

000012c8 <I_sub_cg_cp_rs1_edges_0x5bbc8872>:
I_sub_cg_cp_rs1_edges_0x5bbc8872:
  sub x6, x22, x7 # perform operation
    12c8:	407b0333          	sub	x6,x22,x7
  # Check if x6 contains the expected result. x9 is the signature ptr, x5 is the link ptr, x4 is a temp reg.
  RVTEST_SIGUPD(x9, x5, x4, x6, I_sub_cg_cp_rs1_edges_0x5bbc8872, I_sub_cg_cp_rs1_edges_0x5bbc8872_str)
    12cc:	0004a203          	lw	x4,0(x9)
    12d0:	00620863          	beq	x4,x6,12e0 <I_sub_cg_cp_rs1_edges_0x5bbc8872+0x18>
    12d4:	208032ef          	jal	x5,44dc <failedtest_x5_x4>
    12d8:	000012c8          	.word	0x000012c8
    12dc:	0000a0b6          	.word	0x0000a0b6
    12e0:	00448493          	addi	x9,x9,4

# Testcase cp_rs1_edges (Test source rs1 value = 0xaaaaaaaa)
  RVTEST_TESTDATA_LOAD_INT(x20, x15) # load rs1: x15 = 0xaaaaaaaa
    12e4:	000a2783          	lw	x15,0(x20)
    12e8:	004a0a13          	addi	x20,x20,4
  RVTEST_TESTDATA_LOAD_INT(x20, x13) # load rs2: x13 = 0x4b04b33c
    12ec:	000a2683          	lw	x13,0(x20)
    12f0:	004a0a13          	addi	x20,x20,4

000012f4 <I_sub_cg_cp_rs1_edges_0xaaaaaaaa>:
I_sub_cg_cp_rs1_edges_0xaaaaaaaa:
  sub x8, x15, x13 # perform operation
    12f4:	40d78433          	sub	x8,x15,x13
  # Check if x8 contains the expected result. x9 is the signature ptr, x5 is the link ptr, x4 is a temp reg.
  RVTEST_SIGUPD(x9, x5, x4, x8, I_sub_cg_cp_rs1_edges_0xaaaaaaaa, I_sub_cg_cp_rs1_edges_0xaaaaaaaa_str)
    12f8:	0004a203          	lw	x4,0(x9)
    12fc:	00820863          	beq	x4,x8,130c <I_sub_cg_cp_rs1_edges_0xaaaaaaaa+0x18>
    1300:	1dc032ef          	jal	x5,44dc <failedtest_x5_x4>
    1304:	000012f4          	.word	0x000012f4
    1308:	0000a0f3          	.word	0x0000a0f3
    130c:	00448493          	addi	x9,x9,4

# Testcase cp_rs1_edges (Test source rs1 value = 0x55555555)
  RVTEST_TESTDATA_LOAD_INT(x20, x16) # load rs1: x16 = 0x55555555
    1310:	000a2803          	lw	x16,0(x20)
    1314:	004a0a13          	addi	x20,x20,4
  RVTEST_TESTDATA_LOAD_INT(x20, x19) # load rs2: x19 = 0x850de42c
    1318:	000a2983          	lw	x19,0(x20)
    131c:	004a0a13          	addi	x20,x20,4

00001320 <I_sub_cg_cp_rs1_edges_0x55555555>:
I_sub_cg_cp_rs1_edges_0x55555555:
  sub x10, x16, x19 # perform operation
    1320:	41380533          	sub	x10,x16,x19
  # Check if x10 contains the expected result. x9 is the signature ptr, x5 is the link ptr, x4 is a temp reg.
  RVTEST_SIGUPD(x9, x5, x4, x10, I_sub_cg_cp_rs1_edges_0x55555555, I_sub_cg_cp_rs1_edges_0x55555555_str)
    1324:	0004a203          	lw	x4,0(x9)
    1328:	00a20863          	beq	x4,x10,1338 <I_sub_cg_cp_rs1_edges_0x55555555+0x18>
    132c:	1b0032ef          	jal	x5,44dc <failedtest_x5_x4>
    1330:	00001320          	.word	0x00001320
    1334:	0000a130          	.word	0x0000a130
    1338:	00448493          	addi	x9,x9,4
/////////////////////////////////
// cp_rs2_edges
/////////////////////////////////

# Testcase cp_rs2_edges (Test source rs2 value = 0x00000000)
  RVTEST_TESTDATA_LOAD_INT(x20, x7) # load rs1: x7 = 0x1425dd70
    133c:	000a2383          	lw	x7,0(x20)
    1340:	004a0a13          	addi	x20,x20,4
  RVTEST_TESTDATA_LOAD_INT(x20, x26) # load rs2: x26 = 0x00000000
    1344:	000a2d03          	lw	x26,0(x20)
    1348:	004a0a13          	addi	x20,x20,4

0000134c <I_sub_cg_cp_rs2_edges_0x0>:
I_sub_cg_cp_rs2_edges_0x0:
  sub x12, x7, x26 # perform operation
    134c:	41a38633          	sub	x12,x7,x26
  # Check if x12 contains the expected result. x9 is the signature ptr, x5 is the link ptr, x4 is a temp reg.
  RVTEST_SIGUPD(x9, x5, x4, x12, I_sub_cg_cp_rs2_edges_0x0, I_sub_cg_cp_rs2_edges_0x0_str)
    1350:	0004a203          	lw	x4,0(x9)
    1354:	00c20863          	beq	x4,x12,1364 <I_sub_cg_cp_rs2_edges_0x0+0x18>
    1358:	184032ef          	jal	x5,44dc <failedtest_x5_x4>
    135c:	0000134c          	.word	0x0000134c
    1360:	0000a16d          	.word	0x0000a16d
    1364:	00448493          	addi	x9,x9,4

# Testcase cp_rs2_edges (Test source rs2 value = 0x00000001)
  RVTEST_TESTDATA_LOAD_INT(x20, x10) # load rs1: x10 = 0x599f146c
    1368:	000a2503          	lw	x10,0(x20)
    136c:	004a0a13          	addi	x20,x20,4
  RVTEST_TESTDATA_LOAD_INT(x20, x29) # load rs2: x29 = 0x00000001
    1370:	000a2e83          	lw	x29,0(x20)
    1374:	004a0a13          	addi	x20,x20,4

00001378 <I_sub_cg_cp_rs2_edges_0x1>:
I_sub_cg_cp_rs2_edges_0x1:
  sub x18, x10, x29 # perform operation
    1378:	41d50933          	sub	x18,x10,x29
  # Check if x18 contains the expected result. x9 is the signature ptr, x5 is the link ptr, x4 is a temp reg.
  RVTEST_SIGUPD(x9, x5, x4, x18, I_sub_cg_cp_rs2_edges_0x1, I_sub_cg_cp_rs2_edges_0x1_str)
    137c:	0004a203          	lw	x4,0(x9)
    1380:	01220863          	beq	x4,x18,1390 <I_sub_cg_cp_rs2_edges_0x1+0x18>
    1384:	158032ef          	jal	x5,44dc <failedtest_x5_x4>
    1388:	00001378          	.word	0x00001378
    138c:	0000a1a3          	.word	0x0000a1a3
    1390:	00448493          	addi	x9,x9,4

# Testcase cp_rs2_edges (Test source rs2 value = 0x00000002)
  RVTEST_TESTDATA_LOAD_INT(x20, x18) # load rs1: x18 = 0x4c552306
    1394:	000a2903          	lw	x18,0(x20)
    1398:	004a0a13          	addi	x20,x20,4
  RVTEST_TESTDATA_LOAD_INT(x20, x13) # load rs2: x13 = 0x00000002
    139c:	000a2683          	lw	x13,0(x20)
    13a0:	004a0a13          	addi	x20,x20,4

000013a4 <I_sub_cg_cp_rs2_edges_0x2>:
I_sub_cg_cp_rs2_edges_0x2:
  sub x23, x18, x13 # perform operation
    13a4:	40d90bb3          	sub	x23,x18,x13
  # Check if x23 contains the expected result. x9 is the signature ptr, x5 is the link ptr, x4 is a temp reg.
  RVTEST_SIGUPD(x9, x5, x4, x23, I_sub_cg_cp_rs2_edges_0x2, I_sub_cg_cp_rs2_edges_0x2_str)
    13a8:	0004a203          	lw	x4,0(x9)
    13ac:	01720863          	beq	x4,x23,13bc <I_sub_cg_cp_rs2_edges_0x2+0x18>
    13b0:	12c032ef          	jal	x5,44dc <failedtest_x5_x4>
    13b4:	000013a4          	.word	0x000013a4
    13b8:	0000a1d9          	.word	0x0000a1d9
    13bc:	00448493          	addi	x9,x9,4

# Testcase cp_rs2_edges (Test source rs2 value = 0x80000000)
  RVTEST_TESTDATA_LOAD_INT(x20, x7) # load rs1: x7 = 0x296347c6
    13c0:	000a2383          	lw	x7,0(x20)
    13c4:	004a0a13          	addi	x20,x20,4
  RVTEST_TESTDATA_LOAD_INT(x20, x25) # load rs2: x25 = 0x80000000
    13c8:	000a2c83          	lw	x25,0(x20)
    13cc:	004a0a13          	addi	x20,x20,4

000013d0 <I_sub_cg_cp_rs2_edges_0x80000000>:
I_sub_cg_cp_rs2_edges_0x80000000:
  sub x2, x7, x25 # perform operation
    13d0:	41938133          	sub	x2,x7,x25
  # Check if x2 contains the expected result. x9 is the signature ptr, x5 is the link ptr, x4 is a temp reg.
  RVTEST_SIGUPD(x9, x5, x4, x2, I_sub_cg_cp_rs2_edges_0x80000000, I_sub_cg_cp_rs2_edges_0x80000000_str)
    13d4:	0004a203          	lw	x4,0(x9)
    13d8:	00220863          	beq	x4,x2,13e8 <I_sub_cg_cp_rs2_edges_0x80000000+0x18>
    13dc:	100032ef          	jal	x5,44dc <failedtest_x5_x4>
    13e0:	000013d0          	.word	0x000013d0
    13e4:	0000a20f          	.word	0x0000a20f
    13e8:	00448493          	addi	x9,x9,4

# Testcase cp_rs2_edges (Test source rs2 value = 0x80000001)
  RVTEST_TESTDATA_LOAD_INT(x20, x25) # load rs1: x25 = 0x1b8ba12d
    13ec:	000a2c83          	lw	x25,0(x20)
    13f0:	004a0a13          	addi	x20,x20,4
  RVTEST_TESTDATA_LOAD_INT(x20, x19) # load rs2: x19 = 0x80000001
    13f4:	000a2983          	lw	x19,0(x20)
    13f8:	004a0a13          	addi	x20,x20,4

000013fc <I_sub_cg_cp_rs2_edges_0x80000001>:
I_sub_cg_cp_rs2_edges_0x80000001:
  sub x30, x25, x19 # perform operation
    13fc:	413c8f33          	sub	x30,x25,x19
  # Check if x30 contains the expected result. x9 is the signature ptr, x5 is the link ptr, x4 is a temp reg.
  RVTEST_SIGUPD(x9, x5, x4, x30, I_sub_cg_cp_rs2_edges_0x80000001, I_sub_cg_cp_rs2_edges_0x80000001_str)
    1400:	0004a203          	lw	x4,0(x9)
    1404:	01e20863          	beq	x4,x30,1414 <I_sub_cg_cp_rs2_edges_0x80000001+0x18>
    1408:	0d4032ef          	jal	x5,44dc <failedtest_x5_x4>
    140c:	000013fc          	.word	0x000013fc
    1410:	0000a24c          	.word	0x0000a24c
    1414:	00448493          	addi	x9,x9,4

# Testcase cp_rs2_edges (Test source rs2 value = 0x7fffffff)
  RVTEST_TESTDATA_LOAD_INT(x20, x6) # load rs1: x6 = 0xbc96ffe0
    1418:	000a2303          	lw	x6,0(x20)
    141c:	004a0a13          	addi	x20,x20,4
  RVTEST_TESTDATA_LOAD_INT(x20, x23) # load rs2: x23 = 0x7fffffff
    1420:	000a2b83          	lw	x23,0(x20)
    1424:	004a0a13          	addi	x20,x20,4

00001428 <I_sub_cg_cp_rs2_edges_0x7fffffff>:
I_sub_cg_cp_rs2_edges_0x7fffffff:
  sub x3, x6, x23 # perform operation
    1428:	417301b3          	sub	x3,x6,x23
  # Check if x3 contains the expected result. x9 is the signature ptr, x5 is the link ptr, x4 is a temp reg.
  RVTEST_SIGUPD(x9, x5, x4, x3, I_sub_cg_cp_rs2_edges_0x7fffffff, I_sub_cg_cp_rs2_edges_0x7fffffff_str)
    142c:	0004a203          	lw	x4,0(x9)
    1430:	00320863          	beq	x4,x3,1440 <I_sub_cg_cp_rs2_edges_0x7fffffff+0x18>
    1434:	0a8032ef          	jal	x5,44dc <failedtest_x5_x4>
    1438:	00001428          	.word	0x00001428
    143c:	0000a289          	.word	0x0000a289
    1440:	00448493          	addi	x9,x9,4

# Testcase cp_rs2_edges (Test source rs2 value = 0x7ffffffe)
  RVTEST_TESTDATA_LOAD_INT(x20, x15) # load rs1: x15 = 0x489c4e61
    1444:	000a2783          	lw	x15,0(x20)
    1448:	004a0a13          	addi	x20,x20,4
  RVTEST_TESTDATA_LOAD_INT(x20, x29) # load rs2: x29 = 0x7ffffffe
    144c:	000a2e83          	lw	x29,0(x20)
    1450:	004a0a13          	addi	x20,x20,4

00001454 <I_sub_cg_cp_rs2_edges_0x7ffffffe>:
I_sub_cg_cp_rs2_edges_0x7ffffffe:
  sub x8, x15, x29 # perform operation
    1454:	41d78433          	sub	x8,x15,x29
  # Check if x8 contains the expected result. x9 is the signature ptr, x5 is the link ptr, x4 is a temp reg.
  RVTEST_SIGUPD(x9, x5, x4, x8, I_sub_cg_cp_rs2_edges_0x7ffffffe, I_sub_cg_cp_rs2_edges_0x7ffffffe_str)
    1458:	0004a203          	lw	x4,0(x9)
    145c:	00820863          	beq	x4,x8,146c <I_sub_cg_cp_rs2_edges_0x7ffffffe+0x18>
    1460:	07c032ef          	jal	x5,44dc <failedtest_x5_x4>
    1464:	00001454          	.word	0x00001454
    1468:	0000a2c6          	.word	0x0000a2c6
    146c:	00448493          	addi	x9,x9,4

# Testcase cp_rs2_edges (Test source rs2 value = 0xffffffff)
  RVTEST_TESTDATA_LOAD_INT(x20, x26) # load rs1: x26 = 0x9b2b065b
    1470:	000a2d03          	lw	x26,0(x20)
    1474:	004a0a13          	addi	x20,x20,4
  RVTEST_TESTDATA_LOAD_INT(x20, x27) # load rs2: x27 = 0xffffffff
    1478:	000a2d83          	lw	x27,0(x20)
    147c:	004a0a13          	addi	x20,x20,4

00001480 <I_sub_cg_cp_rs2_edges_0xffffffff>:
I_sub_cg_cp_rs2_edges_0xffffffff:
  sub x31, x26, x27 # perform operation
    1480:	41bd0fb3          	sub	x31,x26,x27
  # Check if x31 contains the expected result. x9 is the signature ptr, x5 is the link ptr, x4 is a temp reg.
  RVTEST_SIGUPD(x9, x5, x4, x31, I_sub_cg_cp_rs2_edges_0xffffffff, I_sub_cg_cp_rs2_edges_0xffffffff_str)
    1484:	0004a203          	lw	x4,0(x9)
    1488:	01f20863          	beq	x4,x31,1498 <I_sub_cg_cp_rs2_edges_0xffffffff+0x18>
    148c:	050032ef          	jal	x5,44dc <failedtest_x5_x4>
    1490:	00001480          	.word	0x00001480
    1494:	0000a303          	.word	0x0000a303
    1498:	00448493          	addi	x9,x9,4

# Testcase cp_rs2_edges (Test source rs2 value = 0xfffffffe)
  RVTEST_TESTDATA_LOAD_INT(x20, x16) # load rs1: x16 = 0x94aa27c8
    149c:	000a2803          	lw	x16,0(x20)
    14a0:	004a0a13          	addi	x20,x20,4
  RVTEST_TESTDATA_LOAD_INT(x20, x28) # load rs2: x28 = 0xfffffffe
    14a4:	000a2e03          	lw	x28,0(x20)
    14a8:	004a0a13          	addi	x20,x20,4

000014ac <I_sub_cg_cp_rs2_edges_0xfffffffe>:
I_sub_cg_cp_rs2_edges_0xfffffffe:
  sub x22, x16, x28 # perform operation
    14ac:	41c80b33          	sub	x22,x16,x28
  # Check if x22 contains the expected result. x9 is the signature ptr, x5 is the link ptr, x4 is a temp reg.
  RVTEST_SIGUPD(x9, x5, x4, x22, I_sub_cg_cp_rs2_edges_0xfffffffe, I_sub_cg_cp_rs2_edges_0xfffffffe_str)
    14b0:	0004a203          	lw	x4,0(x9)
    14b4:	01620863          	beq	x4,x22,14c4 <I_sub_cg_cp_rs2_edges_0xfffffffe+0x18>
    14b8:	024032ef          	jal	x5,44dc <failedtest_x5_x4>
    14bc:	000014ac          	.word	0x000014ac
    14c0:	0000a340          	.word	0x0000a340
    14c4:	00448493          	addi	x9,x9,4

# Testcase cp_rs2_edges (Test source rs2 value = 0x5bbc8872)
  RVTEST_TESTDATA_LOAD_INT(x20, x30) # load rs1: x30 = 0x5f6a4924
    14c8:	000a2f03          	lw	x30,0(x20)
    14cc:	004a0a13          	addi	x20,x20,4
  RVTEST_TESTDATA_LOAD_INT(x20, x15) # load rs2: x15 = 0x5bbc8872
    14d0:	000a2783          	lw	x15,0(x20)
    14d4:	004a0a13          	addi	x20,x20,4

000014d8 <I_sub_cg_cp_rs2_edges_0x5bbc8872>:
I_sub_cg_cp_rs2_edges_0x5bbc8872:
  sub x18, x30, x15 # perform operation
    14d8:	40ff0933          	sub	x18,x30,x15
  # Check if x18 contains the expected result. x9 is the signature ptr, x5 is the link ptr, x4 is a temp reg.
  RVTEST_SIGUPD(x9, x5, x4, x18, I_sub_cg_cp_rs2_edges_0x5bbc8872, I_sub_cg_cp_rs2_edges_0x5bbc8872_str)
    14dc:	0004a203          	lw	x4,0(x9)
    14e0:	01220863          	beq	x4,x18,14f0 <I_sub_cg_cp_rs2_edges_0x5bbc8872+0x18>
    14e4:	7f9022ef          	jal	x5,44dc <failedtest_x5_x4>
    14e8:	000014d8          	.word	0x000014d8
    14ec:	0000a37d          	.word	0x0000a37d
    14f0:	00448493          	addi	x9,x9,4

# Testcase cp_rs2_edges (Test source rs2 value = 0xaaaaaaaa)
  RVTEST_TESTDATA_LOAD_INT(x20, x19) # load rs1: x19 = 0x5f5ce76b
    14f4:	000a2983          	lw	x19,0(x20)
    14f8:	004a0a13          	addi	x20,x20,4
  RVTEST_TESTDATA_LOAD_INT(x20, x16) # load rs2: x16 = 0xaaaaaaaa
    14fc:	000a2803          	lw	x16,0(x20)
    1500:	004a0a13          	addi	x20,x20,4

00001504 <I_sub_cg_cp_rs2_edges_0xaaaaaaaa>:
I_sub_cg_cp_rs2_edges_0xaaaaaaaa:
  sub x6, x19, x16 # perform operation
    1504:	41098333          	sub	x6,x19,x16
  # Check if x6 contains the expected result. x9 is the signature ptr, x5 is the link ptr, x4 is a temp reg.
  RVTEST_SIGUPD(x9, x5, x4, x6, I_sub_cg_cp_rs2_edges_0xaaaaaaaa, I_sub_cg_cp_rs2_edges_0xaaaaaaaa_str)
    1508:	0004a203          	lw	x4,0(x9)
    150c:	00620863          	beq	x4,x6,151c <I_sub_cg_cp_rs2_edges_0xaaaaaaaa+0x18>
    1510:	7cd022ef          	jal	x5,44dc <failedtest_x5_x4>
    1514:	00001504          	.word	0x00001504
    1518:	0000a3ba          	.word	0x0000a3ba
    151c:	00448493          	addi	x9,x9,4

# Testcase cp_rs2_edges (Test source rs2 value = 0x55555555)
  RVTEST_TESTDATA_LOAD_INT(x20, x28) # load rs1: x28 = 0xf2739c2b
    1520:	000a2e03          	lw	x28,0(x20)
    1524:	004a0a13          	addi	x20,x20,4
  RVTEST_TESTDATA_LOAD_INT(x20, x23) # load rs2: x23 = 0x55555555
    1528:	000a2b83          	lw	x23,0(x20)
    152c:	004a0a13          	addi	x20,x20,4

00001530 <I_sub_cg_cp_rs2_edges_0x55555555>:
I_sub_cg_cp_rs2_edges_0x55555555:
  sub x1, x28, x23 # perform operation
    1530:	417e00b3          	sub	x1,x28,x23
  # Check if x1 contains the expected result. x9 is the signature ptr, x5 is the link ptr, x4 is a temp reg.
  RVTEST_SIGUPD(x9, x5, x4, x1, I_sub_cg_cp_rs2_edges_0x55555555, I_sub_cg_cp_rs2_edges_0x55555555_str)
    1534:	0004a203          	lw	x4,0(x9)
    1538:	00120863          	beq	x4,x1,1548 <I_sub_cg_cp_rs2_edges_0x55555555+0x18>
    153c:	7a1022ef          	jal	x5,44dc <failedtest_x5_x4>
    1540:	00001530          	.word	0x00001530
    1544:	0000a3f7          	.word	0x0000a3f7
    1548:	00448493          	addi	x9,x9,4
/////////////////////////////////
// cr_rs1_rs2_edges
/////////////////////////////////

# Testcase cr_rs1_rs2_edges (Test source rs1 = 0x00000000 rs2 = 0x00000000)
  RVTEST_TESTDATA_LOAD_INT(x20, x21) # load rs1: x21 = 0x00000000
    154c:	000a2a83          	lw	x21,0(x20)
    1550:	004a0a13          	addi	x20,x20,4
  RVTEST_TESTDATA_LOAD_INT(x20, x18) # load rs2: x18 = 0x00000000
    1554:	000a2903          	lw	x18,0(x20)
    1558:	004a0a13          	addi	x20,x20,4

0000155c <I_sub_cg_cr_rs1_rs2_edges_rs1val_0x0_rs2val_0x0>:
I_sub_cg_cr_rs1_rs2_edges_rs1val_0x0_rs2val_0x0:
  sub x30, x21, x18 # perform operation
    155c:	412a8f33          	sub	x30,x21,x18
  # Check if x30 contains the expected result. x9 is the signature ptr, x5 is the link ptr, x4 is a temp reg.
  RVTEST_SIGUPD(x9, x5, x4, x30, I_sub_cg_cr_rs1_rs2_edges_rs1val_0x0_rs2val_0x0, I_sub_cg_cr_rs1_rs2_edges_rs1val_0x0_rs2val_0x0_str)
    1560:	0004a203          	lw	x4,0(x9)
    1564:	01e20863          	beq	x4,x30,1574 <I_sub_cg_cr_rs1_rs2_edges_rs1val_0x0_rs2val_0x0+0x18>
    1568:	775022ef          	jal	x5,44dc <failedtest_x5_x4>
    156c:	0000155c          	.word	0x0000155c
    1570:	0000a434          	.word	0x0000a434
    1574:	00448493          	addi	x9,x9,4

# Testcase cr_rs1_rs2_edges (Test source rs1 = 0x00000000 rs2 = 0x00000001)
  RVTEST_TESTDATA_LOAD_INT(x20, x17) # load rs1: x17 = 0x00000000
    1578:	000a2883          	lw	x17,0(x20)
    157c:	004a0a13          	addi	x20,x20,4
  RVTEST_TESTDATA_LOAD_INT(x20, x15) # load rs2: x15 = 0x00000001
    1580:	000a2783          	lw	x15,0(x20)
    1584:	004a0a13          	addi	x20,x20,4

00001588 <I_sub_cg_cr_rs1_rs2_edges_rs1val_0x0_rs2val_0x1>:
I_sub_cg_cr_rs1_rs2_edges_rs1val_0x0_rs2val_0x1:
  sub x26, x17, x15 # perform operation
    1588:	40f88d33          	sub	x26,x17,x15
  # Check if x26 contains the expected result. x9 is the signature ptr, x5 is the link ptr, x4 is a temp reg.
  RVTEST_SIGUPD(x9, x5, x4, x26, I_sub_cg_cr_rs1_rs2_edges_rs1val_0x0_rs2val_0x1, I_sub_cg_cr_rs1_rs2_edges_rs1val_0x0_rs2val_0x1_str)
    158c:	0004a203          	lw	x4,0(x9)
    1590:	01a20863          	beq	x4,x26,15a0 <I_sub_cg_cr_rs1_rs2_edges_rs1val_0x0_rs2val_0x1+0x18>
    1594:	749022ef          	jal	x5,44dc <failedtest_x5_x4>
    1598:	00001588          	.word	0x00001588
    159c:	0000a481          	.word	0x0000a481
    15a0:	00448493          	addi	x9,x9,4

# Testcase cr_rs1_rs2_edges (Test source rs1 = 0x00000000 rs2 = 0x00000002)
  RVTEST_TESTDATA_LOAD_INT(x20, x29) # load rs1: x29 = 0x00000000
    15a4:	000a2e83          	lw	x29,0(x20)
    15a8:	004a0a13          	addi	x20,x20,4
  RVTEST_TESTDATA_LOAD_INT(x20, x28) # load rs2: x28 = 0x00000002
    15ac:	000a2e03          	lw	x28,0(x20)
    15b0:	004a0a13          	addi	x20,x20,4

000015b4 <I_sub_cg_cr_rs1_rs2_edges_rs1val_0x0_rs2val_0x2>:
I_sub_cg_cr_rs1_rs2_edges_rs1val_0x0_rs2val_0x2:
  sub x10, x29, x28 # perform operation
    15b4:	41ce8533          	sub	x10,x29,x28
  # Check if x10 contains the expected result. x9 is the signature ptr, x5 is the link ptr, x4 is a temp reg.
  RVTEST_SIGUPD(x9, x5, x4, x10, I_sub_cg_cr_rs1_rs2_edges_rs1val_0x0_rs2val_0x2, I_sub_cg_cr_rs1_rs2_edges_rs1val_0x0_rs2val_0x2_str)
    15b8:	0004a203          	lw	x4,0(x9)
    15bc:	00a20863          	beq	x4,x10,15cc <I_sub_cg_cr_rs1_rs2_edges_rs1val_0x0_rs2val_0x2+0x18>
    15c0:	71d022ef          	jal	x5,44dc <failedtest_x5_x4>
    15c4:	000015b4          	.word	0x000015b4
    15c8:	0000a4ce          	.word	0x0000a4ce
    15cc:	00448493          	addi	x9,x9,4

# Testcase cr_rs1_rs2_edges (Test source rs1 = 0x00000000 rs2 = 0x80000000)
  RVTEST_TESTDATA_LOAD_INT(x20, x7) # load rs1: x7 = 0x00000000
    15d0:	000a2383          	lw	x7,0(x20)
    15d4:	004a0a13          	addi	x20,x20,4
  RVTEST_TESTDATA_LOAD_INT(x20, x22) # load rs2: x22 = 0x80000000
    15d8:	000a2b03          	lw	x22,0(x20)
    15dc:	004a0a13          	addi	x20,x20,4

000015e0 <I_sub_cg_cr_rs1_rs2_edges_rs1val_0x0_rs2val_0x80000000>:
I_sub_cg_cr_rs1_rs2_edges_rs1val_0x0_rs2val_0x80000000:
  sub x15, x7, x22 # perform operation
    15e0:	416387b3          	sub	x15,x7,x22
  # Check if x15 contains the expected result. x9 is the signature ptr, x5 is the link ptr, x4 is a temp reg.
  RVTEST_SIGUPD(x9, x5, x4, x15, I_sub_cg_cr_rs1_rs2_edges_rs1val_0x0_rs2val_0x80000000, I_sub_cg_cr_rs1_rs2_edges_rs1val_0x0_rs2val_0x80000000_str)
    15e4:	0004a203          	lw	x4,0(x9)
    15e8:	00f20863          	beq	x4,x15,15f8 <I_sub_cg_cr_rs1_rs2_edges_rs1val_0x0_rs2val_0x80000000+0x18>
    15ec:	6f1022ef          	jal	x5,44dc <failedtest_x5_x4>
    15f0:	000015e0          	.word	0x000015e0
    15f4:	0000a51b          	.word	0x0000a51b
    15f8:	00448493          	addi	x9,x9,4

# Testcase cr_rs1_rs2_edges (Test source rs1 = 0x00000000 rs2 = 0x80000001)
  RVTEST_TESTDATA_LOAD_INT(x20, x12) # load rs1: x12 = 0x00000000
    15fc:	000a2603          	lw	x12,0(x20)
    1600:	004a0a13          	addi	x20,x20,4
  RVTEST_TESTDATA_LOAD_INT(x20, x3) # load rs2: x3 = 0x80000001
    1604:	000a2183          	lw	x3,0(x20)
    1608:	004a0a13          	addi	x20,x20,4

0000160c <I_sub_cg_cr_rs1_rs2_edges_rs1val_0x0_rs2val_0x80000001>:
I_sub_cg_cr_rs1_rs2_edges_rs1val_0x0_rs2val_0x80000001:
  sub x21, x12, x3 # perform operation
    160c:	40360ab3          	sub	x21,x12,x3
  # Check if x21 contains the expected result. x9 is the signature ptr, x5 is the link ptr, x4 is a temp reg.
  RVTEST_SIGUPD(x9, x5, x4, x21, I_sub_cg_cr_rs1_rs2_edges_rs1val_0x0_rs2val_0x80000001, I_sub_cg_cr_rs1_rs2_edges_rs1val_0x0_rs2val_0x80000001_str)
    1610:	0004a203          	lw	x4,0(x9)
    1614:	01520863          	beq	x4,x21,1624 <I_sub_cg_cr_rs1_rs2_edges_rs1val_0x0_rs2val_0x80000001+0x18>
    1618:	6c5022ef          	jal	x5,44dc <failedtest_x5_x4>
    161c:	0000160c          	.word	0x0000160c
    1620:	0000a56f          	.word	0x0000a56f
    1624:	00448493          	addi	x9,x9,4

# Testcase cr_rs1_rs2_edges (Test source rs1 = 0x00000000 rs2 = 0x7fffffff)
  RVTEST_TESTDATA_LOAD_INT(x20, x11) # load rs1: x11 = 0x00000000
    1628:	000a2583          	lw	x11,0(x20)
    162c:	004a0a13          	addi	x20,x20,4
  RVTEST_TESTDATA_LOAD_INT(x20, x30) # load rs2: x30 = 0x7fffffff
    1630:	000a2f03          	lw	x30,0(x20)
    1634:	004a0a13          	addi	x20,x20,4

00001638 <I_sub_cg_cr_rs1_rs2_edges_rs1val_0x0_rs2val_0x7fffffff>:
I_sub_cg_cr_rs1_rs2_edges_rs1val_0x0_rs2val_0x7fffffff:
  sub x10, x11, x30 # perform operation
    1638:	41e58533          	sub	x10,x11,x30
  # Check if x10 contains the expected result. x9 is the signature ptr, x5 is the link ptr, x4 is a temp reg.
  RVTEST_SIGUPD(x9, x5, x4, x10, I_sub_cg_cr_rs1_rs2_edges_rs1val_0x0_rs2val_0x7fffffff, I_sub_cg_cr_rs1_rs2_edges_rs1val_0x0_rs2val_0x7fffffff_str)
    163c:	0004a203          	lw	x4,0(x9)
    1640:	00a20863          	beq	x4,x10,1650 <I_sub_cg_cr_rs1_rs2_edges_rs1val_0x0_rs2val_0x7fffffff+0x18>
    1644:	699022ef          	jal	x5,44dc <failedtest_x5_x4>
    1648:	00001638          	.word	0x00001638
    164c:	0000a5c3          	.word	0x0000a5c3
    1650:	00448493          	addi	x9,x9,4

# Testcase cr_rs1_rs2_edges (Test source rs1 = 0x00000000 rs2 = 0x7ffffffe)
  RVTEST_TESTDATA_LOAD_INT(x20, x11) # load rs1: x11 = 0x00000000
    1654:	000a2583          	lw	x11,0(x20)
    1658:	004a0a13          	addi	x20,x20,4
  RVTEST_TESTDATA_LOAD_INT(x20, x21) # load rs2: x21 = 0x7ffffffe
    165c:	000a2a83          	lw	x21,0(x20)
    1660:	004a0a13          	addi	x20,x20,4

00001664 <I_sub_cg_cr_rs1_rs2_edges_rs1val_0x0_rs2val_0x7ffffffe>:
I_sub_cg_cr_rs1_rs2_edges_rs1val_0x0_rs2val_0x7ffffffe:
  sub x13, x11, x21 # perform operation
    1664:	415586b3          	sub	x13,x11,x21
  # Check if x13 contains the expected result. x9 is the signature ptr, x5 is the link ptr, x4 is a temp reg.
  RVTEST_SIGUPD(x9, x5, x4, x13, I_sub_cg_cr_rs1_rs2_edges_rs1val_0x0_rs2val_0x7ffffffe, I_sub_cg_cr_rs1_rs2_edges_rs1val_0x0_rs2val_0x7ffffffe_str)
    1668:	0004a203          	lw	x4,0(x9)
    166c:	00d20863          	beq	x4,x13,167c <I_sub_cg_cr_rs1_rs2_edges_rs1val_0x0_rs2val_0x7ffffffe+0x18>
    1670:	66d022ef          	jal	x5,44dc <failedtest_x5_x4>
    1674:	00001664          	.word	0x00001664
    1678:	0000a617          	.word	0x0000a617
    167c:	00448493          	addi	x9,x9,4

# Testcase cr_rs1_rs2_edges (Test source rs1 = 0x00000000 rs2 = 0xffffffff)
  RVTEST_TESTDATA_LOAD_INT(x20, x18) # load rs1: x18 = 0x00000000
    1680:	000a2903          	lw	x18,0(x20)
    1684:	004a0a13          	addi	x20,x20,4
  RVTEST_TESTDATA_LOAD_INT(x20, x28) # load rs2: x28 = 0xffffffff
    1688:	000a2e03          	lw	x28,0(x20)
    168c:	004a0a13          	addi	x20,x20,4

00001690 <I_sub_cg_cr_rs1_rs2_edges_rs1val_0x0_rs2val_0xffffffff>:
I_sub_cg_cr_rs1_rs2_edges_rs1val_0x0_rs2val_0xffffffff:
  sub x17, x18, x28 # perform operation
    1690:	41c908b3          	sub	x17,x18,x28
  # Check if x17 contains the expected result. x9 is the signature ptr, x5 is the link ptr, x4 is a temp reg.
  RVTEST_SIGUPD(x9, x5, x4, x17, I_sub_cg_cr_rs1_rs2_edges_rs1val_0x0_rs2val_0xffffffff, I_sub_cg_cr_rs1_rs2_edges_rs1val_0x0_rs2val_0xffffffff_str)
    1694:	0004a203          	lw	x4,0(x9)
    1698:	01120863          	beq	x4,x17,16a8 <I_sub_cg_cr_rs1_rs2_edges_rs1val_0x0_rs2val_0xffffffff+0x18>
    169c:	641022ef          	jal	x5,44dc <failedtest_x5_x4>
    16a0:	00001690          	.word	0x00001690
    16a4:	0000a66b          	.word	0x0000a66b
    16a8:	00448493          	addi	x9,x9,4

# Testcase cr_rs1_rs2_edges (Test source rs1 = 0x00000000 rs2 = 0xfffffffe)
  RVTEST_TESTDATA_LOAD_INT(x20, x26) # load rs1: x26 = 0x00000000
    16ac:	000a2d03          	lw	x26,0(x20)
    16b0:	004a0a13          	addi	x20,x20,4
  RVTEST_TESTDATA_LOAD_INT(x20, x21) # load rs2: x21 = 0xfffffffe
    16b4:	000a2a83          	lw	x21,0(x20)
    16b8:	004a0a13          	addi	x20,x20,4

000016bc <I_sub_cg_cr_rs1_rs2_edges_rs1val_0x0_rs2val_0xfffffffe>:
I_sub_cg_cr_rs1_rs2_edges_rs1val_0x0_rs2val_0xfffffffe:
  sub x6, x26, x21 # perform operation
    16bc:	415d0333          	sub	x6,x26,x21
  # Check if x6 contains the expected result. x9 is the signature ptr, x5 is the link ptr, x4 is a temp reg.
  RVTEST_SIGUPD(x9, x5, x4, x6, I_sub_cg_cr_rs1_rs2_edges_rs1val_0x0_rs2val_0xfffffffe, I_sub_cg_cr_rs1_rs2_edges_rs1val_0x0_rs2val_0xfffffffe_str)
    16c0:	0004a203          	lw	x4,0(x9)
    16c4:	00620863          	beq	x4,x6,16d4 <I_sub_cg_cr_rs1_rs2_edges_rs1val_0x0_rs2val_0xfffffffe+0x18>
    16c8:	615022ef          	jal	x5,44dc <failedtest_x5_x4>
    16cc:	000016bc          	.word	0x000016bc
    16d0:	0000a6bf          	.word	0x0000a6bf
    16d4:	00448493          	addi	x9,x9,4

# Testcase cr_rs1_rs2_edges (Test source rs1 = 0x00000000 rs2 = 0x5bbc8872)
  RVTEST_TESTDATA_LOAD_INT(x20, x3) # load rs1: x3 = 0x00000000
    16d8:	000a2183          	lw	x3,0(x20)
    16dc:	004a0a13          	addi	x20,x20,4
  RVTEST_TESTDATA_LOAD_INT(x20, x30) # load rs2: x30 = 0x5bbc8872
    16e0:	000a2f03          	lw	x30,0(x20)
    16e4:	004a0a13          	addi	x20,x20,4

000016e8 <I_sub_cg_cr_rs1_rs2_edges_rs1val_0x0_rs2val_0x5bbc8872>:
I_sub_cg_cr_rs1_rs2_edges_rs1val_0x0_rs2val_0x5bbc8872:
  sub x23, x3, x30 # perform operation
    16e8:	41e18bb3          	sub	x23,x3,x30
  # Check if x23 contains the expected result. x9 is the signature ptr, x5 is the link ptr, x4 is a temp reg.
  RVTEST_SIGUPD(x9, x5, x4, x23, I_sub_cg_cr_rs1_rs2_edges_rs1val_0x0_rs2val_0x5bbc8872, I_sub_cg_cr_rs1_rs2_edges_rs1val_0x0_rs2val_0x5bbc8872_str)
    16ec:	0004a203          	lw	x4,0(x9)
    16f0:	01720863          	beq	x4,x23,1700 <I_sub_cg_cr_rs1_rs2_edges_rs1val_0x0_rs2val_0x5bbc8872+0x18>
    16f4:	5e9022ef          	jal	x5,44dc <failedtest_x5_x4>
    16f8:	000016e8          	.word	0x000016e8
    16fc:	0000a713          	.word	0x0000a713
    1700:	00448493          	addi	x9,x9,4

# Testcase cr_rs1_rs2_edges (Test source rs1 = 0x00000000 rs2 = 0xaaaaaaaa)
  RVTEST_TESTDATA_LOAD_INT(x20, x15) # load rs1: x15 = 0x00000000
    1704:	000a2783          	lw	x15,0(x20)
    1708:	004a0a13          	addi	x20,x20,4
  RVTEST_TESTDATA_LOAD_INT(x20, x22) # load rs2: x22 = 0xaaaaaaaa
    170c:	000a2b03          	lw	x22,0(x20)
    1710:	004a0a13          	addi	x20,x20,4

00001714 <I_sub_cg_cr_rs1_rs2_edges_rs1val_0x0_rs2val_0xaaaaaaaa>:
I_sub_cg_cr_rs1_rs2_edges_rs1val_0x0_rs2val_0xaaaaaaaa:
  sub x18, x15, x22 # perform operation
    1714:	41678933          	sub	x18,x15,x22
  # Check if x18 contains the expected result. x9 is the signature ptr, x5 is the link ptr, x4 is a temp reg.
  RVTEST_SIGUPD(x9, x5, x4, x18, I_sub_cg_cr_rs1_rs2_edges_rs1val_0x0_rs2val_0xaaaaaaaa, I_sub_cg_cr_rs1_rs2_edges_rs1val_0x0_rs2val_0xaaaaaaaa_str)
    1718:	0004a203          	lw	x4,0(x9)
    171c:	01220863          	beq	x4,x18,172c <I_sub_cg_cr_rs1_rs2_edges_rs1val_0x0_rs2val_0xaaaaaaaa+0x18>
    1720:	5bd022ef          	jal	x5,44dc <failedtest_x5_x4>
    1724:	00001714          	.word	0x00001714
    1728:	0000a767          	.word	0x0000a767
    172c:	00448493          	addi	x9,x9,4

# Testcase cr_rs1_rs2_edges (Test source rs1 = 0x00000000 rs2 = 0x55555555)
  RVTEST_TESTDATA_LOAD_INT(x20, x12) # load rs1: x12 = 0x00000000
    1730:	000a2603          	lw	x12,0(x20)
    1734:	004a0a13          	addi	x20,x20,4
  RVTEST_TESTDATA_LOAD_INT(x20, x23) # load rs2: x23 = 0x55555555
    1738:	000a2b83          	lw	x23,0(x20)
    173c:	004a0a13          	addi	x20,x20,4

00001740 <I_sub_cg_cr_rs1_rs2_edges_rs1val_0x0_rs2val_0x55555555>:
I_sub_cg_cr_rs1_rs2_edges_rs1val_0x0_rs2val_0x55555555:
  sub x3, x12, x23 # perform operation
    1740:	417601b3          	sub	x3,x12,x23
  # Check if x3 contains the expected result. x9 is the signature ptr, x5 is the link ptr, x4 is a temp reg.
  RVTEST_SIGUPD(x9, x5, x4, x3, I_sub_cg_cr_rs1_rs2_edges_rs1val_0x0_rs2val_0x55555555, I_sub_cg_cr_rs1_rs2_edges_rs1val_0x0_rs2val_0x55555555_str)
    1744:	0004a203          	lw	x4,0(x9)
    1748:	00320863          	beq	x4,x3,1758 <I_sub_cg_cr_rs1_rs2_edges_rs1val_0x0_rs2val_0x55555555+0x18>
    174c:	591022ef          	jal	x5,44dc <failedtest_x5_x4>
    1750:	00001740          	.word	0x00001740
    1754:	0000a7bb          	.word	0x0000a7bb
    1758:	00448493          	addi	x9,x9,4

# Testcase cr_rs1_rs2_edges (Test source rs1 = 0x00000001 rs2 = 0x00000000)
  RVTEST_TESTDATA_LOAD_INT(x20, x13) # load rs1: x13 = 0x00000001
    175c:	000a2683          	lw	x13,0(x20)
    1760:	004a0a13          	addi	x20,x20,4
  RVTEST_TESTDATA_LOAD_INT(x20, x21) # load rs2: x21 = 0x00000000
    1764:	000a2a83          	lw	x21,0(x20)
    1768:	004a0a13          	addi	x20,x20,4

0000176c <I_sub_cg_cr_rs1_rs2_edges_rs1val_0x1_rs2val_0x0>:
I_sub_cg_cr_rs1_rs2_edges_rs1val_0x1_rs2val_0x0:
  sub x11, x13, x21 # perform operation
    176c:	415685b3          	sub	x11,x13,x21
  # Check if x11 contains the expected result. x9 is the signature ptr, x5 is the link ptr, x4 is a temp reg.
  RVTEST_SIGUPD(x9, x5, x4, x11, I_sub_cg_cr_rs1_rs2_edges_rs1val_0x1_rs2val_0x0, I_sub_cg_cr_rs1_rs2_edges_rs1val_0x1_rs2val_0x0_str)
    1770:	0004a203          	lw	x4,0(x9)
    1774:	00b20863          	beq	x4,x11,1784 <I_sub_cg_cr_rs1_rs2_edges_rs1val_0x1_rs2val_0x0+0x18>
    1778:	565022ef          	jal	x5,44dc <failedtest_x5_x4>
    177c:	0000176c          	.word	0x0000176c
    1780:	0000a80f          	.word	0x0000a80f
    1784:	00448493          	addi	x9,x9,4

# Testcase cr_rs1_rs2_edges (Test source rs1 = 0x00000001 rs2 = 0x00000001)
  RVTEST_TESTDATA_LOAD_INT(x20, x17) # load rs1: x17 = 0x00000001
    1788:	000a2883          	lw	x17,0(x20)
    178c:	004a0a13          	addi	x20,x20,4
  RVTEST_TESTDATA_LOAD_INT(x20, x11) # load rs2: x11 = 0x00000001
    1790:	000a2583          	lw	x11,0(x20)
    1794:	004a0a13          	addi	x20,x20,4

00001798 <I_sub_cg_cr_rs1_rs2_edges_rs1val_0x1_rs2val_0x1>:
I_sub_cg_cr_rs1_rs2_edges_rs1val_0x1_rs2val_0x1:
  sub x27, x17, x11 # perform operation
    1798:	40b88db3          	sub	x27,x17,x11
  # Check if x27 contains the expected result. x9 is the signature ptr, x5 is the link ptr, x4 is a temp reg.
  RVTEST_SIGUPD(x9, x5, x4, x27, I_sub_cg_cr_rs1_rs2_edges_rs1val_0x1_rs2val_0x1, I_sub_cg_cr_rs1_rs2_edges_rs1val_0x1_rs2val_0x1_str)
    179c:	0004a203          	lw	x4,0(x9)
    17a0:	01b20863          	beq	x4,x27,17b0 <I_sub_cg_cr_rs1_rs2_edges_rs1val_0x1_rs2val_0x1+0x18>
    17a4:	539022ef          	jal	x5,44dc <failedtest_x5_x4>
    17a8:	00001798          	.word	0x00001798
    17ac:	0000a85c          	.word	0x0000a85c
    17b0:	00448493          	addi	x9,x9,4

# Testcase cr_rs1_rs2_edges (Test source rs1 = 0x00000001 rs2 = 0x00000002)
  RVTEST_TESTDATA_LOAD_INT(x20, x18) # load rs1: x18 = 0x00000001
    17b4:	000a2903          	lw	x18,0(x20)
    17b8:	004a0a13          	addi	x20,x20,4
  RVTEST_TESTDATA_LOAD_INT(x20, x11) # load rs2: x11 = 0x00000002
    17bc:	000a2583          	lw	x11,0(x20)
    17c0:	004a0a13          	addi	x20,x20,4

000017c4 <I_sub_cg_cr_rs1_rs2_edges_rs1val_0x1_rs2val_0x2>:
I_sub_cg_cr_rs1_rs2_edges_rs1val_0x1_rs2val_0x2:
  sub x8, x18, x11 # perform operation
    17c4:	40b90433          	sub	x8,x18,x11
  # Check if x8 contains the expected result. x9 is the signature ptr, x5 is the link ptr, x4 is a temp reg.
  RVTEST_SIGUPD(x9, x5, x4, x8, I_sub_cg_cr_rs1_rs2_edges_rs1val_0x1_rs2val_0x2, I_sub_cg_cr_rs1_rs2_edges_rs1val_0x1_rs2val_0x2_str)
    17c8:	0004a203          	lw	x4,0(x9)
    17cc:	00820863          	beq	x4,x8,17dc <I_sub_cg_cr_rs1_rs2_edges_rs1val_0x1_rs2val_0x2+0x18>
    17d0:	50d022ef          	jal	x5,44dc <failedtest_x5_x4>
    17d4:	000017c4          	.word	0x000017c4
    17d8:	0000a8a9          	.word	0x0000a8a9
    17dc:	00448493          	addi	x9,x9,4

# Testcase cr_rs1_rs2_edges (Test source rs1 = 0x00000001 rs2 = 0x80000000)
  RVTEST_TESTDATA_LOAD_INT(x20, x11) # load rs1: x11 = 0x00000001
    17e0:	000a2583          	lw	x11,0(x20)
    17e4:	004a0a13          	addi	x20,x20,4
  RVTEST_TESTDATA_LOAD_INT(x20, x22) # load rs2: x22 = 0x80000000
    17e8:	000a2b03          	lw	x22,0(x20)
    17ec:	004a0a13          	addi	x20,x20,4

000017f0 <I_sub_cg_cr_rs1_rs2_edges_rs1val_0x1_rs2val_0x80000000>:
I_sub_cg_cr_rs1_rs2_edges_rs1val_0x1_rs2val_0x80000000:
  sub x29, x11, x22 # perform operation
    17f0:	41658eb3          	sub	x29,x11,x22
  # Check if x29 contains the expected result. x9 is the signature ptr, x5 is the link ptr, x4 is a temp reg.
  RVTEST_SIGUPD(x9, x5, x4, x29, I_sub_cg_cr_rs1_rs2_edges_rs1val_0x1_rs2val_0x80000000, I_sub_cg_cr_rs1_rs2_edges_rs1val_0x1_rs2val_0x80000000_str)
    17f4:	0004a203          	lw	x4,0(x9)
    17f8:	01d20863          	beq	x4,x29,1808 <I_sub_cg_cr_rs1_rs2_edges_rs1val_0x1_rs2val_0x80000000+0x18>
    17fc:	4e1022ef          	jal	x5,44dc <failedtest_x5_x4>
    1800:	000017f0          	.word	0x000017f0
    1804:	0000a8f6          	.word	0x0000a8f6
    1808:	00448493          	addi	x9,x9,4

# Testcase cr_rs1_rs2_edges (Test source rs1 = 0x00000001 rs2 = 0x80000001)
  RVTEST_TESTDATA_LOAD_INT(x20, x18) # load rs1: x18 = 0x00000001
    180c:	000a2903          	lw	x18,0(x20)
    1810:	004a0a13          	addi	x20,x20,4
  RVTEST_TESTDATA_LOAD_INT(x20, x17) # load rs2: x17 = 0x80000001
    1814:	000a2883          	lw	x17,0(x20)
    1818:	004a0a13          	addi	x20,x20,4

0000181c <I_sub_cg_cr_rs1_rs2_edges_rs1val_0x1_rs2val_0x80000001>:
I_sub_cg_cr_rs1_rs2_edges_rs1val_0x1_rs2val_0x80000001:
  sub x6, x18, x17 # perform operation
    181c:	41190333          	sub	x6,x18,x17
  # Check if x6 contains the expected result. x9 is the signature ptr, x5 is the link ptr, x4 is a temp reg.
  RVTEST_SIGUPD(x9, x5, x4, x6, I_sub_cg_cr_rs1_rs2_edges_rs1val_0x1_rs2val_0x80000001, I_sub_cg_cr_rs1_rs2_edges_rs1val_0x1_rs2val_0x80000001_str)
    1820:	0004a203          	lw	x4,0(x9)
    1824:	00620863          	beq	x4,x6,1834 <I_sub_cg_cr_rs1_rs2_edges_rs1val_0x1_rs2val_0x80000001+0x18>
    1828:	4b5022ef          	jal	x5,44dc <failedtest_x5_x4>
    182c:	0000181c          	.word	0x0000181c
    1830:	0000a94a          	.word	0x0000a94a
    1834:	00448493          	addi	x9,x9,4

# Testcase cr_rs1_rs2_edges (Test source rs1 = 0x00000001 rs2 = 0x7fffffff)
  RVTEST_TESTDATA_LOAD_INT(x20, x12) # load rs1: x12 = 0x00000001
    1838:	000a2603          	lw	x12,0(x20)
    183c:	004a0a13          	addi	x20,x20,4
  RVTEST_TESTDATA_LOAD_INT(x20, x31) # load rs2: x31 = 0x7fffffff
    1840:	000a2f83          	lw	x31,0(x20)
    1844:	004a0a13          	addi	x20,x20,4

00001848 <I_sub_cg_cr_rs1_rs2_edges_rs1val_0x1_rs2val_0x7fffffff>:
I_sub_cg_cr_rs1_rs2_edges_rs1val_0x1_rs2val_0x7fffffff:
  sub x21, x12, x31 # perform operation
    1848:	41f60ab3          	sub	x21,x12,x31
  # Check if x21 contains the expected result. x9 is the signature ptr, x5 is the link ptr, x4 is a temp reg.
  RVTEST_SIGUPD(x9, x5, x4, x21, I_sub_cg_cr_rs1_rs2_edges_rs1val_0x1_rs2val_0x7fffffff, I_sub_cg_cr_rs1_rs2_edges_rs1val_0x1_rs2val_0x7fffffff_str)
    184c:	0004a203          	lw	x4,0(x9)
    1850:	01520863          	beq	x4,x21,1860 <I_sub_cg_cr_rs1_rs2_edges_rs1val_0x1_rs2val_0x7fffffff+0x18>
    1854:	489022ef          	jal	x5,44dc <failedtest_x5_x4>
    1858:	00001848          	.word	0x00001848
    185c:	0000a99e          	.word	0x0000a99e
    1860:	00448493          	addi	x9,x9,4

# Testcase cr_rs1_rs2_edges (Test source rs1 = 0x00000001 rs2 = 0x7ffffffe)
  RVTEST_TESTDATA_LOAD_INT(x20, x8) # load rs1: x8 = 0x00000001
    1864:	000a2403          	lw	x8,0(x20)
    1868:	004a0a13          	addi	x20,x20,4
  RVTEST_TESTDATA_LOAD_INT(x20, x18) # load rs2: x18 = 0x7ffffffe
    186c:	000a2903          	lw	x18,0(x20)
    1870:	004a0a13          	addi	x20,x20,4

00001874 <I_sub_cg_cr_rs1_rs2_edges_rs1val_0x1_rs2val_0x7ffffffe>:
I_sub_cg_cr_rs1_rs2_edges_rs1val_0x1_rs2val_0x7ffffffe:
  sub x27, x8, x18 # perform operation
    1874:	41240db3          	sub	x27,x8,x18
  # Check if x27 contains the expected result. x9 is the signature ptr, x5 is the link ptr, x4 is a temp reg.
  RVTEST_SIGUPD(x9, x5, x4, x27, I_sub_cg_cr_rs1_rs2_edges_rs1val_0x1_rs2val_0x7ffffffe, I_sub_cg_cr_rs1_rs2_edges_rs1val_0x1_rs2val_0x7ffffffe_str)
    1878:	0004a203          	lw	x4,0(x9)
    187c:	01b20863          	beq	x4,x27,188c <I_sub_cg_cr_rs1_rs2_edges_rs1val_0x1_rs2val_0x7ffffffe+0x18>
    1880:	45d022ef          	jal	x5,44dc <failedtest_x5_x4>
    1884:	00001874          	.word	0x00001874
    1888:	0000a9f2          	.word	0x0000a9f2
    188c:	00448493          	addi	x9,x9,4

# Testcase cr_rs1_rs2_edges (Test source rs1 = 0x00000001 rs2 = 0xffffffff)
  RVTEST_TESTDATA_LOAD_INT(x20, x31) # load rs1: x31 = 0x00000001
    1890:	000a2f83          	lw	x31,0(x20)
    1894:	004a0a13          	addi	x20,x20,4
  RVTEST_TESTDATA_LOAD_INT(x20, x29) # load rs2: x29 = 0xffffffff
    1898:	000a2e83          	lw	x29,0(x20)
    189c:	004a0a13          	addi	x20,x20,4

000018a0 <I_sub_cg_cr_rs1_rs2_edges_rs1val_0x1_rs2val_0xffffffff>:
I_sub_cg_cr_rs1_rs2_edges_rs1val_0x1_rs2val_0xffffffff:
  sub x19, x31, x29 # perform operation
    18a0:	41df89b3          	sub	x19,x31,x29
  # Check if x19 contains the expected result. x9 is the signature ptr, x5 is the link ptr, x4 is a temp reg.
  RVTEST_SIGUPD(x9, x5, x4, x19, I_sub_cg_cr_rs1_rs2_edges_rs1val_0x1_rs2val_0xffffffff, I_sub_cg_cr_rs1_rs2_edges_rs1val_0x1_rs2val_0xffffffff_str)
    18a4:	0004a203          	lw	x4,0(x9)
    18a8:	01320863          	beq	x4,x19,18b8 <I_sub_cg_cr_rs1_rs2_edges_rs1val_0x1_rs2val_0xffffffff+0x18>
    18ac:	431022ef          	jal	x5,44dc <failedtest_x5_x4>
    18b0:	000018a0          	.word	0x000018a0
    18b4:	0000aa46          	.word	0x0000aa46
    18b8:	00448493          	addi	x9,x9,4

# Testcase cr_rs1_rs2_edges (Test source rs1 = 0x00000001 rs2 = 0xfffffffe)
  RVTEST_TESTDATA_LOAD_INT(x20, x21) # load rs1: x21 = 0x00000001
    18bc:	000a2a83          	lw	x21,0(x20)
    18c0:	004a0a13          	addi	x20,x20,4
  RVTEST_TESTDATA_LOAD_INT(x20, x16) # load rs2: x16 = 0xfffffffe
    18c4:	000a2803          	lw	x16,0(x20)
    18c8:	004a0a13          	addi	x20,x20,4

000018cc <I_sub_cg_cr_rs1_rs2_edges_rs1val_0x1_rs2val_0xfffffffe>:
I_sub_cg_cr_rs1_rs2_edges_rs1val_0x1_rs2val_0xfffffffe:
  sub x26, x21, x16 # perform operation
    18cc:	410a8d33          	sub	x26,x21,x16
  # Check if x26 contains the expected result. x9 is the signature ptr, x5 is the link ptr, x4 is a temp reg.
  RVTEST_SIGUPD(x9, x5, x4, x26, I_sub_cg_cr_rs1_rs2_edges_rs1val_0x1_rs2val_0xfffffffe, I_sub_cg_cr_rs1_rs2_edges_rs1val_0x1_rs2val_0xfffffffe_str)
    18d0:	0004a203          	lw	x4,0(x9)
    18d4:	01a20863          	beq	x4,x26,18e4 <I_sub_cg_cr_rs1_rs2_edges_rs1val_0x1_rs2val_0xfffffffe+0x18>
    18d8:	405022ef          	jal	x5,44dc <failedtest_x5_x4>
    18dc:	000018cc          	.word	0x000018cc
    18e0:	0000aa9a          	.word	0x0000aa9a
    18e4:	00448493          	addi	x9,x9,4

# Testcase cr_rs1_rs2_edges (Test source rs1 = 0x00000001 rs2 = 0x5bbc8872)
  RVTEST_TESTDATA_LOAD_INT(x20, x1) # load rs1: x1 = 0x00000001
    18e8:	000a2083          	lw	x1,0(x20)
    18ec:	004a0a13          	addi	x20,x20,4
  RVTEST_TESTDATA_LOAD_INT(x20, x21) # load rs2: x21 = 0x5bbc8872
    18f0:	000a2a83          	lw	x21,0(x20)
    18f4:	004a0a13          	addi	x20,x20,4

000018f8 <I_sub_cg_cr_rs1_rs2_edges_rs1val_0x1_rs2val_0x5bbc8872>:
I_sub_cg_cr_rs1_rs2_edges_rs1val_0x1_rs2val_0x5bbc8872:
  sub x22, x1, x21 # perform operation
    18f8:	41508b33          	sub	x22,x1,x21
  # Check if x22 contains the expected result. x9 is the signature ptr, x5 is the link ptr, x4 is a temp reg.
  RVTEST_SIGUPD(x9, x5, x4, x22, I_sub_cg_cr_rs1_rs2_edges_rs1val_0x1_rs2val_0x5bbc8872, I_sub_cg_cr_rs1_rs2_edges_rs1val_0x1_rs2val_0x5bbc8872_str)
    18fc:	0004a203          	lw	x4,0(x9)
    1900:	01620863          	beq	x4,x22,1910 <I_sub_cg_cr_rs1_rs2_edges_rs1val_0x1_rs2val_0x5bbc8872+0x18>
    1904:	3d9022ef          	jal	x5,44dc <failedtest_x5_x4>
    1908:	000018f8          	.word	0x000018f8
    190c:	0000aaee          	.word	0x0000aaee
    1910:	00448493          	addi	x9,x9,4

# Testcase cr_rs1_rs2_edges (Test source rs1 = 0x00000001 rs2 = 0xaaaaaaaa)
  RVTEST_TESTDATA_LOAD_INT(x20, x27) # load rs1: x27 = 0x00000001
    1914:	000a2d83          	lw	x27,0(x20)
    1918:	004a0a13          	addi	x20,x20,4
  RVTEST_TESTDATA_LOAD_INT(x20, x25) # load rs2: x25 = 0xaaaaaaaa
    191c:	000a2c83          	lw	x25,0(x20)
    1920:	004a0a13          	addi	x20,x20,4

00001924 <I_sub_cg_cr_rs1_rs2_edges_rs1val_0x1_rs2val_0xaaaaaaaa>:
I_sub_cg_cr_rs1_rs2_edges_rs1val_0x1_rs2val_0xaaaaaaaa:
  sub x17, x27, x25 # perform operation
    1924:	419d88b3          	sub	x17,x27,x25
  # Check if x17 contains the expected result. x9 is the signature ptr, x5 is the link ptr, x4 is a temp reg.
  RVTEST_SIGUPD(x9, x5, x4, x17, I_sub_cg_cr_rs1_rs2_edges_rs1val_0x1_rs2val_0xaaaaaaaa, I_sub_cg_cr_rs1_rs2_edges_rs1val_0x1_rs2val_0xaaaaaaaa_str)
    1928:	0004a203          	lw	x4,0(x9)
    192c:	01120863          	beq	x4,x17,193c <I_sub_cg_cr_rs1_rs2_edges_rs1val_0x1_rs2val_0xaaaaaaaa+0x18>
    1930:	3ad022ef          	jal	x5,44dc <failedtest_x5_x4>
    1934:	00001924          	.word	0x00001924
    1938:	0000ab42          	.word	0x0000ab42
    193c:	00448493          	addi	x9,x9,4

# Testcase cr_rs1_rs2_edges (Test source rs1 = 0x00000001 rs2 = 0x55555555)
  RVTEST_TESTDATA_LOAD_INT(x20, x1) # load rs1: x1 = 0x00000001
    1940:	000a2083          	lw	x1,0(x20)
    1944:	004a0a13          	addi	x20,x20,4
  RVTEST_TESTDATA_LOAD_INT(x20, x7) # load rs2: x7 = 0x55555555
    1948:	000a2383          	lw	x7,0(x20)
    194c:	004a0a13          	addi	x20,x20,4

00001950 <I_sub_cg_cr_rs1_rs2_edges_rs1val_0x1_rs2val_0x55555555>:
I_sub_cg_cr_rs1_rs2_edges_rs1val_0x1_rs2val_0x55555555:
  sub x10, x1, x7 # perform operation
    1950:	40708533          	sub	x10,x1,x7
  # Check if x10 contains the expected result. x9 is the signature ptr, x5 is the link ptr, x4 is a temp reg.
  RVTEST_SIGUPD(x9, x5, x4, x10, I_sub_cg_cr_rs1_rs2_edges_rs1val_0x1_rs2val_0x55555555, I_sub_cg_cr_rs1_rs2_edges_rs1val_0x1_rs2val_0x55555555_str)
    1954:	0004a203          	lw	x4,0(x9)
    1958:	00a20863          	beq	x4,x10,1968 <I_sub_cg_cr_rs1_rs2_edges_rs1val_0x1_rs2val_0x55555555+0x18>
    195c:	381022ef          	jal	x5,44dc <failedtest_x5_x4>
    1960:	00001950          	.word	0x00001950
    1964:	0000ab96          	.word	0x0000ab96
    1968:	00448493          	addi	x9,x9,4

# Testcase cr_rs1_rs2_edges (Test source rs1 = 0x00000002 rs2 = 0x00000000)
  RVTEST_TESTDATA_LOAD_INT(x20, x11) # load rs1: x11 = 0x00000002
    196c:	000a2583          	lw	x11,0(x20)
    1970:	004a0a13          	addi	x20,x20,4
  RVTEST_TESTDATA_LOAD_INT(x20, x12) # load rs2: x12 = 0x00000000
    1974:	000a2603          	lw	x12,0(x20)
    1978:	004a0a13          	addi	x20,x20,4

0000197c <I_sub_cg_cr_rs1_rs2_edges_rs1val_0x2_rs2val_0x0>:
I_sub_cg_cr_rs1_rs2_edges_rs1val_0x2_rs2val_0x0:
  sub x23, x11, x12 # perform operation
    197c:	40c58bb3          	sub	x23,x11,x12
  # Check if x23 contains the expected result. x9 is the signature ptr, x5 is the link ptr, x4 is a temp reg.
  RVTEST_SIGUPD(x9, x5, x4, x23, I_sub_cg_cr_rs1_rs2_edges_rs1val_0x2_rs2val_0x0, I_sub_cg_cr_rs1_rs2_edges_rs1val_0x2_rs2val_0x0_str)
    1980:	0004a203          	lw	x4,0(x9)
    1984:	01720863          	beq	x4,x23,1994 <I_sub_cg_cr_rs1_rs2_edges_rs1val_0x2_rs2val_0x0+0x18>
    1988:	355022ef          	jal	x5,44dc <failedtest_x5_x4>
    198c:	0000197c          	.word	0x0000197c
    1990:	0000abea          	.word	0x0000abea
    1994:	00448493          	addi	x9,x9,4

# Testcase cr_rs1_rs2_edges (Test source rs1 = 0x00000002 rs2 = 0x00000001)
  RVTEST_TESTDATA_LOAD_INT(x20, x8) # load rs1: x8 = 0x00000002
    1998:	000a2403          	lw	x8,0(x20)
    199c:	004a0a13          	addi	x20,x20,4
  RVTEST_TESTDATA_LOAD_INT(x20, x31) # load rs2: x31 = 0x00000001
    19a0:	000a2f83          	lw	x31,0(x20)
    19a4:	004a0a13          	addi	x20,x20,4

000019a8 <I_sub_cg_cr_rs1_rs2_edges_rs1val_0x2_rs2val_0x1>:
I_sub_cg_cr_rs1_rs2_edges_rs1val_0x2_rs2val_0x1:
  sub x23, x8, x31 # perform operation
    19a8:	41f40bb3          	sub	x23,x8,x31
  # Check if x23 contains the expected result. x9 is the signature ptr, x5 is the link ptr, x4 is a temp reg.
  RVTEST_SIGUPD(x9, x5, x4, x23, I_sub_cg_cr_rs1_rs2_edges_rs1val_0x2_rs2val_0x1, I_sub_cg_cr_rs1_rs2_edges_rs1val_0x2_rs2val_0x1_str)
    19ac:	0004a203          	lw	x4,0(x9)
    19b0:	01720863          	beq	x4,x23,19c0 <I_sub_cg_cr_rs1_rs2_edges_rs1val_0x2_rs2val_0x1+0x18>
    19b4:	329022ef          	jal	x5,44dc <failedtest_x5_x4>
    19b8:	000019a8          	.word	0x000019a8
    19bc:	0000ac37          	.word	0x0000ac37
    19c0:	00448493          	addi	x9,x9,4

# Testcase cr_rs1_rs2_edges (Test source rs1 = 0x00000002 rs2 = 0x00000002)
  RVTEST_TESTDATA_LOAD_INT(x20, x25) # load rs1: x25 = 0x00000002
    19c4:	000a2c83          	lw	x25,0(x20)
    19c8:	004a0a13          	addi	x20,x20,4
  RVTEST_TESTDATA_LOAD_INT(x20, x13) # load rs2: x13 = 0x00000002
    19cc:	000a2683          	lw	x13,0(x20)
    19d0:	004a0a13          	addi	x20,x20,4

000019d4 <I_sub_cg_cr_rs1_rs2_edges_rs1val_0x2_rs2val_0x2>:
I_sub_cg_cr_rs1_rs2_edges_rs1val_0x2_rs2val_0x2:
  sub x6, x25, x13 # perform operation
    19d4:	40dc8333          	sub	x6,x25,x13
  # Check if x6 contains the expected result. x9 is the signature ptr, x5 is the link ptr, x4 is a temp reg.
  RVTEST_SIGUPD(x9, x5, x4, x6, I_sub_cg_cr_rs1_rs2_edges_rs1val_0x2_rs2val_0x2, I_sub_cg_cr_rs1_rs2_edges_rs1val_0x2_rs2val_0x2_str)
    19d8:	0004a203          	lw	x4,0(x9)
    19dc:	00620863          	beq	x4,x6,19ec <I_sub_cg_cr_rs1_rs2_edges_rs1val_0x2_rs2val_0x2+0x18>
    19e0:	2fd022ef          	jal	x5,44dc <failedtest_x5_x4>
    19e4:	000019d4          	.word	0x000019d4
    19e8:	0000ac84          	.word	0x0000ac84
    19ec:	00448493          	addi	x9,x9,4

# Testcase cr_rs1_rs2_edges (Test source rs1 = 0x00000002 rs2 = 0x80000000)
  RVTEST_TESTDATA_LOAD_INT(x20, x24) # load rs1: x24 = 0x00000002
    19f0:	000a2c03          	lw	x24,0(x20)
    19f4:	004a0a13          	addi	x20,x20,4
  RVTEST_TESTDATA_LOAD_INT(x20, x2) # load rs2: x2 = 0x80000000
    19f8:	000a2103          	lw	x2,0(x20)
    19fc:	004a0a13          	addi	x20,x20,4

00001a00 <I_sub_cg_cr_rs1_rs2_edges_rs1val_0x2_rs2val_0x80000000>:
I_sub_cg_cr_rs1_rs2_edges_rs1val_0x2_rs2val_0x80000000:
  sub x17, x24, x2 # perform operation
    1a00:	402c08b3          	sub	x17,x24,x2
  # Check if x17 contains the expected result. x9 is the signature ptr, x5 is the link ptr, x4 is a temp reg.
  RVTEST_SIGUPD(x9, x5, x4, x17, I_sub_cg_cr_rs1_rs2_edges_rs1val_0x2_rs2val_0x80000000, I_sub_cg_cr_rs1_rs2_edges_rs1val_0x2_rs2val_0x80000000_str)
    1a04:	0004a203          	lw	x4,0(x9)
    1a08:	01120863          	beq	x4,x17,1a18 <I_sub_cg_cr_rs1_rs2_edges_rs1val_0x2_rs2val_0x80000000+0x18>
    1a0c:	2d1022ef          	jal	x5,44dc <failedtest_x5_x4>
    1a10:	00001a00          	.word	0x00001a00
    1a14:	0000acd1          	.word	0x0000acd1
    1a18:	00448493          	addi	x9,x9,4

# Testcase cr_rs1_rs2_edges (Test source rs1 = 0x00000002 rs2 = 0x80000001)
  RVTEST_TESTDATA_LOAD_INT(x20, x7) # load rs1: x7 = 0x00000002
    1a1c:	000a2383          	lw	x7,0(x20)
    1a20:	004a0a13          	addi	x20,x20,4
  RVTEST_TESTDATA_LOAD_INT(x20, x16) # load rs2: x16 = 0x80000001
    1a24:	000a2803          	lw	x16,0(x20)
    1a28:	004a0a13          	addi	x20,x20,4

00001a2c <I_sub_cg_cr_rs1_rs2_edges_rs1val_0x2_rs2val_0x80000001>:
I_sub_cg_cr_rs1_rs2_edges_rs1val_0x2_rs2val_0x80000001:
  sub x10, x7, x16 # perform operation
    1a2c:	41038533          	sub	x10,x7,x16
  # Check if x10 contains the expected result. x9 is the signature ptr, x5 is the link ptr, x4 is a temp reg.
  RVTEST_SIGUPD(x9, x5, x4, x10, I_sub_cg_cr_rs1_rs2_edges_rs1val_0x2_rs2val_0x80000001, I_sub_cg_cr_rs1_rs2_edges_rs1val_0x2_rs2val_0x80000001_str)
    1a30:	0004a203          	lw	x4,0(x9)
    1a34:	00a20863          	beq	x4,x10,1a44 <I_sub_cg_cr_rs1_rs2_edges_rs1val_0x2_rs2val_0x80000001+0x18>
    1a38:	2a5022ef          	jal	x5,44dc <failedtest_x5_x4>
    1a3c:	00001a2c          	.word	0x00001a2c
    1a40:	0000ad25          	.word	0x0000ad25
    1a44:	00448493          	addi	x9,x9,4

# Testcase cr_rs1_rs2_edges (Test source rs1 = 0x00000002 rs2 = 0x7fffffff)
  RVTEST_TESTDATA_LOAD_INT(x20, x17) # load rs1: x17 = 0x00000002
    1a48:	000a2883          	lw	x17,0(x20)
    1a4c:	004a0a13          	addi	x20,x20,4
  RVTEST_TESTDATA_LOAD_INT(x20, x23) # load rs2: x23 = 0x7fffffff
    1a50:	000a2b83          	lw	x23,0(x20)
    1a54:	004a0a13          	addi	x20,x20,4

00001a58 <I_sub_cg_cr_rs1_rs2_edges_rs1val_0x2_rs2val_0x7fffffff>:
I_sub_cg_cr_rs1_rs2_edges_rs1val_0x2_rs2val_0x7fffffff:
  sub x22, x17, x23 # perform operation
    1a58:	41788b33          	sub	x22,x17,x23
  # Check if x22 contains the expected result. x9 is the signature ptr, x5 is the link ptr, x4 is a temp reg.
  RVTEST_SIGUPD(x9, x5, x4, x22, I_sub_cg_cr_rs1_rs2_edges_rs1val_0x2_rs2val_0x7fffffff, I_sub_cg_cr_rs1_rs2_edges_rs1val_0x2_rs2val_0x7fffffff_str)
    1a5c:	0004a203          	lw	x4,0(x9)
    1a60:	01620863          	beq	x4,x22,1a70 <I_sub_cg_cr_rs1_rs2_edges_rs1val_0x2_rs2val_0x7fffffff+0x18>
    1a64:	279022ef          	jal	x5,44dc <failedtest_x5_x4>
    1a68:	00001a58          	.word	0x00001a58
    1a6c:	0000ad79          	.word	0x0000ad79
    1a70:	00448493          	addi	x9,x9,4

# Testcase cr_rs1_rs2_edges (Test source rs1 = 0x00000002 rs2 = 0x7ffffffe)
  RVTEST_TESTDATA_LOAD_INT(x20, x26) # load rs1: x26 = 0x00000002
    1a74:	000a2d03          	lw	x26,0(x20)
    1a78:	004a0a13          	addi	x20,x20,4
  RVTEST_TESTDATA_LOAD_INT(x20, x29) # load rs2: x29 = 0x7ffffffe
    1a7c:	000a2e83          	lw	x29,0(x20)
    1a80:	004a0a13          	addi	x20,x20,4

00001a84 <I_sub_cg_cr_rs1_rs2_edges_rs1val_0x2_rs2val_0x7ffffffe>:
I_sub_cg_cr_rs1_rs2_edges_rs1val_0x2_rs2val_0x7ffffffe:
  sub x14, x26, x29 # perform operation
    1a84:	41dd0733          	sub	x14,x26,x29
  # Check if x14 contains the expected result. x9 is the signature ptr, x5 is the link ptr, x4 is a temp reg.
  RVTEST_SIGUPD(x9, x5, x4, x14, I_sub_cg_cr_rs1_rs2_edges_rs1val_0x2_rs2val_0x7ffffffe, I_sub_cg_cr_rs1_rs2_edges_rs1val_0x2_rs2val_0x7ffffffe_str)
    1a88:	0004a203          	lw	x4,0(x9)
    1a8c:	00e20863          	beq	x4,x14,1a9c <I_sub_cg_cr_rs1_rs2_edges_rs1val_0x2_rs2val_0x7ffffffe+0x18>
    1a90:	24d022ef          	jal	x5,44dc <failedtest_x5_x4>
    1a94:	00001a84          	.word	0x00001a84
    1a98:	0000adcd          	.word	0x0000adcd
    1a9c:	00448493          	addi	x9,x9,4

# Testcase cr_rs1_rs2_edges (Test source rs1 = 0x00000002 rs2 = 0xffffffff)
  RVTEST_TESTDATA_LOAD_INT(x20, x17) # load rs1: x17 = 0x00000002
    1aa0:	000a2883          	lw	x17,0(x20)
    1aa4:	004a0a13          	addi	x20,x20,4
  RVTEST_TESTDATA_LOAD_INT(x20, x19) # load rs2: x19 = 0xffffffff
    1aa8:	000a2983          	lw	x19,0(x20)
    1aac:	004a0a13          	addi	x20,x20,4

00001ab0 <I_sub_cg_cr_rs1_rs2_edges_rs1val_0x2_rs2val_0xffffffff>:
I_sub_cg_cr_rs1_rs2_edges_rs1val_0x2_rs2val_0xffffffff:
  sub x25, x17, x19 # perform operation
    1ab0:	41388cb3          	sub	x25,x17,x19
  # Check if x25 contains the expected result. x9 is the signature ptr, x5 is the link ptr, x4 is a temp reg.
  RVTEST_SIGUPD(x9, x5, x4, x25, I_sub_cg_cr_rs1_rs2_edges_rs1val_0x2_rs2val_0xffffffff, I_sub_cg_cr_rs1_rs2_edges_rs1val_0x2_rs2val_0xffffffff_str)
    1ab4:	0004a203          	lw	x4,0(x9)
    1ab8:	01920863          	beq	x4,x25,1ac8 <I_sub_cg_cr_rs1_rs2_edges_rs1val_0x2_rs2val_0xffffffff+0x18>
    1abc:	221022ef          	jal	x5,44dc <failedtest_x5_x4>
    1ac0:	00001ab0          	.word	0x00001ab0
    1ac4:	0000ae21          	.word	0x0000ae21
    1ac8:	00448493          	addi	x9,x9,4

# Testcase cr_rs1_rs2_edges (Test source rs1 = 0x00000002 rs2 = 0xfffffffe)
  RVTEST_TESTDATA_LOAD_INT(x20, x7) # load rs1: x7 = 0x00000002
    1acc:	000a2383          	lw	x7,0(x20)
    1ad0:	004a0a13          	addi	x20,x20,4
  RVTEST_TESTDATA_LOAD_INT(x20, x12) # load rs2: x12 = 0xfffffffe
    1ad4:	000a2603          	lw	x12,0(x20)
    1ad8:	004a0a13          	addi	x20,x20,4

00001adc <I_sub_cg_cr_rs1_rs2_edges_rs1val_0x2_rs2val_0xfffffffe>:
I_sub_cg_cr_rs1_rs2_edges_rs1val_0x2_rs2val_0xfffffffe:
  sub x22, x7, x12 # perform operation
    1adc:	40c38b33          	sub	x22,x7,x12
  # Check if x22 contains the expected result. x9 is the signature ptr, x5 is the link ptr, x4 is a temp reg.
  RVTEST_SIGUPD(x9, x5, x4, x22, I_sub_cg_cr_rs1_rs2_edges_rs1val_0x2_rs2val_0xfffffffe, I_sub_cg_cr_rs1_rs2_edges_rs1val_0x2_rs2val_0xfffffffe_str)
    1ae0:	0004a203          	lw	x4,0(x9)
    1ae4:	01620863          	beq	x4,x22,1af4 <I_sub_cg_cr_rs1_rs2_edges_rs1val_0x2_rs2val_0xfffffffe+0x18>
    1ae8:	1f5022ef          	jal	x5,44dc <failedtest_x5_x4>
    1aec:	00001adc          	.word	0x00001adc
    1af0:	0000ae75          	.word	0x0000ae75
    1af4:	00448493          	addi	x9,x9,4

# Testcase cr_rs1_rs2_edges (Test source rs1 = 0x00000002 rs2 = 0x5bbc8872)
  RVTEST_TESTDATA_LOAD_INT(x20, x15) # load rs1: x15 = 0x00000002
    1af8:	000a2783          	lw	x15,0(x20)
    1afc:	004a0a13          	addi	x20,x20,4
  RVTEST_TESTDATA_LOAD_INT(x20, x21) # load rs2: x21 = 0x5bbc8872
    1b00:	000a2a83          	lw	x21,0(x20)
    1b04:	004a0a13          	addi	x20,x20,4

00001b08 <I_sub_cg_cr_rs1_rs2_edges_rs1val_0x2_rs2val_0x5bbc8872>:
I_sub_cg_cr_rs1_rs2_edges_rs1val_0x2_rs2val_0x5bbc8872:
  sub x8, x15, x21 # perform operation
    1b08:	41578433          	sub	x8,x15,x21
  # Check if x8 contains the expected result. x9 is the signature ptr, x5 is the link ptr, x4 is a temp reg.
  RVTEST_SIGUPD(x9, x5, x4, x8, I_sub_cg_cr_rs1_rs2_edges_rs1val_0x2_rs2val_0x5bbc8872, I_sub_cg_cr_rs1_rs2_edges_rs1val_0x2_rs2val_0x5bbc8872_str)
    1b0c:	0004a203          	lw	x4,0(x9)
    1b10:	00820863          	beq	x4,x8,1b20 <I_sub_cg_cr_rs1_rs2_edges_rs1val_0x2_rs2val_0x5bbc8872+0x18>
    1b14:	1c9022ef          	jal	x5,44dc <failedtest_x5_x4>
    1b18:	00001b08          	.word	0x00001b08
    1b1c:	0000aec9          	.word	0x0000aec9
    1b20:	00448493          	addi	x9,x9,4

# Testcase cr_rs1_rs2_edges (Test source rs1 = 0x00000002 rs2 = 0xaaaaaaaa)
  RVTEST_TESTDATA_LOAD_INT(x20, x18) # load rs1: x18 = 0x00000002
    1b24:	000a2903          	lw	x18,0(x20)
    1b28:	004a0a13          	addi	x20,x20,4
  RVTEST_TESTDATA_LOAD_INT(x20, x13) # load rs2: x13 = 0xaaaaaaaa
    1b2c:	000a2683          	lw	x13,0(x20)
    1b30:	004a0a13          	addi	x20,x20,4

00001b34 <I_sub_cg_cr_rs1_rs2_edges_rs1val_0x2_rs2val_0xaaaaaaaa>:
I_sub_cg_cr_rs1_rs2_edges_rs1val_0x2_rs2val_0xaaaaaaaa:
  sub x3, x18, x13 # perform operation
    1b34:	40d901b3          	sub	x3,x18,x13
  # Check if x3 contains the expected result. x9 is the signature ptr, x5 is the link ptr, x4 is a temp reg.
  RVTEST_SIGUPD(x9, x5, x4, x3, I_sub_cg_cr_rs1_rs2_edges_rs1val_0x2_rs2val_0xaaaaaaaa, I_sub_cg_cr_rs1_rs2_edges_rs1val_0x2_rs2val_0xaaaaaaaa_str)
    1b38:	0004a203          	lw	x4,0(x9)
    1b3c:	00320863          	beq	x4,x3,1b4c <I_sub_cg_cr_rs1_rs2_edges_rs1val_0x2_rs2val_0xaaaaaaaa+0x18>
    1b40:	19d022ef          	jal	x5,44dc <failedtest_x5_x4>
    1b44:	00001b34          	.word	0x00001b34
    1b48:	0000af1d          	.word	0x0000af1d
    1b4c:	00448493          	addi	x9,x9,4

# Testcase cr_rs1_rs2_edges (Test source rs1 = 0x00000002 rs2 = 0x55555555)
  RVTEST_TESTDATA_LOAD_INT(x20, x30) # load rs1: x30 = 0x00000002
    1b50:	000a2f03          	lw	x30,0(x20)
    1b54:	004a0a13          	addi	x20,x20,4
  RVTEST_TESTDATA_LOAD_INT(x20, x3) # load rs2: x3 = 0x55555555
    1b58:	000a2183          	lw	x3,0(x20)
    1b5c:	004a0a13          	addi	x20,x20,4

00001b60 <I_sub_cg_cr_rs1_rs2_edges_rs1val_0x2_rs2val_0x55555555>:
I_sub_cg_cr_rs1_rs2_edges_rs1val_0x2_rs2val_0x55555555:
  sub x19, x30, x3 # perform operation
    1b60:	403f09b3          	sub	x19,x30,x3
  # Check if x19 contains the expected result. x9 is the signature ptr, x5 is the link ptr, x4 is a temp reg.
  RVTEST_SIGUPD(x9, x5, x4, x19, I_sub_cg_cr_rs1_rs2_edges_rs1val_0x2_rs2val_0x55555555, I_sub_cg_cr_rs1_rs2_edges_rs1val_0x2_rs2val_0x55555555_str)
    1b64:	0004a203          	lw	x4,0(x9)
    1b68:	01320863          	beq	x4,x19,1b78 <I_sub_cg_cr_rs1_rs2_edges_rs1val_0x2_rs2val_0x55555555+0x18>
    1b6c:	171022ef          	jal	x5,44dc <failedtest_x5_x4>
    1b70:	00001b60          	.word	0x00001b60
    1b74:	0000af71          	.word	0x0000af71
    1b78:	00448493          	addi	x9,x9,4

# Testcase cr_rs1_rs2_edges (Test source rs1 = 0x80000000 rs2 = 0x00000000)
  RVTEST_TESTDATA_LOAD_INT(x20, x3) # load rs1: x3 = 0x80000000
    1b7c:	000a2183          	lw	x3,0(x20)
    1b80:	004a0a13          	addi	x20,x20,4
  RVTEST_TESTDATA_LOAD_INT(x20, x6) # load rs2: x6 = 0x00000000
    1b84:	000a2303          	lw	x6,0(x20)
    1b88:	004a0a13          	addi	x20,x20,4

00001b8c <I_sub_cg_cr_rs1_rs2_edges_rs1val_0x80000000_rs2val_0x0>:
I_sub_cg_cr_rs1_rs2_edges_rs1val_0x80000000_rs2val_0x0:
  sub x14, x3, x6 # perform operation
    1b8c:	40618733          	sub	x14,x3,x6
  # Check if x14 contains the expected result. x9 is the signature ptr, x5 is the link ptr, x4 is a temp reg.
  RVTEST_SIGUPD(x9, x5, x4, x14, I_sub_cg_cr_rs1_rs2_edges_rs1val_0x80000000_rs2val_0x0, I_sub_cg_cr_rs1_rs2_edges_rs1val_0x80000000_rs2val_0x0_str)
    1b90:	0004a203          	lw	x4,0(x9)
    1b94:	00e20863          	beq	x4,x14,1ba4 <I_sub_cg_cr_rs1_rs2_edges_rs1val_0x80000000_rs2val_0x0+0x18>
    1b98:	145022ef          	jal	x5,44dc <failedtest_x5_x4>
    1b9c:	00001b8c          	.word	0x00001b8c
    1ba0:	0000afc5          	.word	0x0000afc5
    1ba4:	00448493          	addi	x9,x9,4

# Testcase cr_rs1_rs2_edges (Test source rs1 = 0x80000000 rs2 = 0x00000001)
  RVTEST_TESTDATA_LOAD_INT(x20, x13) # load rs1: x13 = 0x80000000
    1ba8:	000a2683          	lw	x13,0(x20)
    1bac:	004a0a13          	addi	x20,x20,4
  RVTEST_TESTDATA_LOAD_INT(x20, x26) # load rs2: x26 = 0x00000001
    1bb0:	000a2d03          	lw	x26,0(x20)
    1bb4:	004a0a13          	addi	x20,x20,4

00001bb8 <I_sub_cg_cr_rs1_rs2_edges_rs1val_0x80000000_rs2val_0x1>:
I_sub_cg_cr_rs1_rs2_edges_rs1val_0x80000000_rs2val_0x1:
  sub x2, x13, x26 # perform operation
    1bb8:	41a68133          	sub	x2,x13,x26
  # Check if x2 contains the expected result. x9 is the signature ptr, x5 is the link ptr, x4 is a temp reg.
  RVTEST_SIGUPD(x9, x5, x4, x2, I_sub_cg_cr_rs1_rs2_edges_rs1val_0x80000000_rs2val_0x1, I_sub_cg_cr_rs1_rs2_edges_rs1val_0x80000000_rs2val_0x1_str)
    1bbc:	0004a203          	lw	x4,0(x9)
    1bc0:	00220863          	beq	x4,x2,1bd0 <I_sub_cg_cr_rs1_rs2_edges_rs1val_0x80000000_rs2val_0x1+0x18>
    1bc4:	119022ef          	jal	x5,44dc <failedtest_x5_x4>
    1bc8:	00001bb8          	.word	0x00001bb8
    1bcc:	0000b019          	.word	0x0000b019
    1bd0:	00448493          	addi	x9,x9,4

# Testcase cr_rs1_rs2_edges (Test source rs1 = 0x80000000 rs2 = 0x00000002)
  RVTEST_TESTDATA_LOAD_INT(x20, x19) # load rs1: x19 = 0x80000000
    1bd4:	000a2983          	lw	x19,0(x20)
    1bd8:	004a0a13          	addi	x20,x20,4
  RVTEST_TESTDATA_LOAD_INT(x20, x17) # load rs2: x17 = 0x00000002
    1bdc:	000a2883          	lw	x17,0(x20)
    1be0:	004a0a13          	addi	x20,x20,4

00001be4 <I_sub_cg_cr_rs1_rs2_edges_rs1val_0x80000000_rs2val_0x2>:
I_sub_cg_cr_rs1_rs2_edges_rs1val_0x80000000_rs2val_0x2:
  sub x11, x19, x17 # perform operation
    1be4:	411985b3          	sub	x11,x19,x17
  # Check if x11 contains the expected result. x9 is the signature ptr, x5 is the link ptr, x4 is a temp reg.
  RVTEST_SIGUPD(x9, x5, x4, x11, I_sub_cg_cr_rs1_rs2_edges_rs1val_0x80000000_rs2val_0x2, I_sub_cg_cr_rs1_rs2_edges_rs1val_0x80000000_rs2val_0x2_str)
    1be8:	0004a203          	lw	x4,0(x9)
    1bec:	00b20863          	beq	x4,x11,1bfc <I_sub_cg_cr_rs1_rs2_edges_rs1val_0x80000000_rs2val_0x2+0x18>
    1bf0:	0ed022ef          	jal	x5,44dc <failedtest_x5_x4>
    1bf4:	00001be4          	.word	0x00001be4
    1bf8:	0000b06d          	.word	0x0000b06d
    1bfc:	00448493          	addi	x9,x9,4

# Testcase cr_rs1_rs2_edges (Test source rs1 = 0x80000000 rs2 = 0x80000000)
  RVTEST_TESTDATA_LOAD_INT(x20, x13) # load rs1: x13 = 0x80000000
    1c00:	000a2683          	lw	x13,0(x20)
    1c04:	004a0a13          	addi	x20,x20,4
  RVTEST_TESTDATA_LOAD_INT(x20, x2) # load rs2: x2 = 0x80000000
    1c08:	000a2103          	lw	x2,0(x20)
    1c0c:	004a0a13          	addi	x20,x20,4

00001c10 <I_sub_cg_cr_rs1_rs2_edges_rs1val_0x80000000_rs2val_0x80000000>:
I_sub_cg_cr_rs1_rs2_edges_rs1val_0x80000000_rs2val_0x80000000:
  sub x21, x13, x2 # perform operation
    1c10:	40268ab3          	sub	x21,x13,x2
  # Check if x21 contains the expected result. x9 is the signature ptr, x5 is the link ptr, x4 is a temp reg.
  RVTEST_SIGUPD(x9, x5, x4, x21, I_sub_cg_cr_rs1_rs2_edges_rs1val_0x80000000_rs2val_0x80000000, I_sub_cg_cr_rs1_rs2_edges_rs1val_0x80000000_rs2val_0x80000000_str)
    1c14:	0004a203          	lw	x4,0(x9)
    1c18:	01520863          	beq	x4,x21,1c28 <I_sub_cg_cr_rs1_rs2_edges_rs1val_0x80000000_rs2val_0x80000000+0x18>
    1c1c:	0c1022ef          	jal	x5,44dc <failedtest_x5_x4>
    1c20:	00001c10          	.word	0x00001c10
    1c24:	0000b0c1          	.word	0x0000b0c1
    1c28:	00448493          	addi	x9,x9,4

# Testcase cr_rs1_rs2_edges (Test source rs1 = 0x80000000 rs2 = 0x80000001)
  RVTEST_TESTDATA_LOAD_INT(x20, x22) # load rs1: x22 = 0x80000000
    1c2c:	000a2b03          	lw	x22,0(x20)
    1c30:	004a0a13          	addi	x20,x20,4
  RVTEST_TESTDATA_LOAD_INT(x20, x28) # load rs2: x28 = 0x80000001
    1c34:	000a2e03          	lw	x28,0(x20)
    1c38:	004a0a13          	addi	x20,x20,4

00001c3c <I_sub_cg_cr_rs1_rs2_edges_rs1val_0x80000000_rs2val_0x80000001>:
I_sub_cg_cr_rs1_rs2_edges_rs1val_0x80000000_rs2val_0x80000001:
  sub x29, x22, x28 # perform operation
    1c3c:	41cb0eb3          	sub	x29,x22,x28
  # Check if x29 contains the expected result. x9 is the signature ptr, x5 is the link ptr, x4 is a temp reg.
  RVTEST_SIGUPD(x9, x5, x4, x29, I_sub_cg_cr_rs1_rs2_edges_rs1val_0x80000000_rs2val_0x80000001, I_sub_cg_cr_rs1_rs2_edges_rs1val_0x80000000_rs2val_0x80000001_str)
    1c40:	0004a203          	lw	x4,0(x9)
    1c44:	01d20863          	beq	x4,x29,1c54 <I_sub_cg_cr_rs1_rs2_edges_rs1val_0x80000000_rs2val_0x80000001+0x18>
    1c48:	095022ef          	jal	x5,44dc <failedtest_x5_x4>
    1c4c:	00001c3c          	.word	0x00001c3c
    1c50:	0000b11c          	.word	0x0000b11c
    1c54:	00448493          	addi	x9,x9,4

# Testcase cr_rs1_rs2_edges (Test source rs1 = 0x80000000 rs2 = 0x7fffffff)
  RVTEST_TESTDATA_LOAD_INT(x20, x28) # load rs1: x28 = 0x80000000
    1c58:	000a2e03          	lw	x28,0(x20)
    1c5c:	004a0a13          	addi	x20,x20,4
  RVTEST_TESTDATA_LOAD_INT(x20, x18) # load rs2: x18 = 0x7fffffff
    1c60:	000a2903          	lw	x18,0(x20)
    1c64:	004a0a13          	addi	x20,x20,4

00001c68 <I_sub_cg_cr_rs1_rs2_edges_rs1val_0x80000000_rs2val_0x7fffffff>:
I_sub_cg_cr_rs1_rs2_edges_rs1val_0x80000000_rs2val_0x7fffffff:
  sub x25, x28, x18 # perform operation
    1c68:	412e0cb3          	sub	x25,x28,x18
  # Check if x25 contains the expected result. x9 is the signature ptr, x5 is the link ptr, x4 is a temp reg.
  RVTEST_SIGUPD(x9, x5, x4, x25, I_sub_cg_cr_rs1_rs2_edges_rs1val_0x80000000_rs2val_0x7fffffff, I_sub_cg_cr_rs1_rs2_edges_rs1val_0x80000000_rs2val_0x7fffffff_str)
    1c6c:	0004a203          	lw	x4,0(x9)
    1c70:	01920863          	beq	x4,x25,1c80 <I_sub_cg_cr_rs1_rs2_edges_rs1val_0x80000000_rs2val_0x7fffffff+0x18>
    1c74:	069022ef          	jal	x5,44dc <failedtest_x5_x4>
    1c78:	00001c68          	.word	0x00001c68
    1c7c:	0000b177          	.word	0x0000b177
    1c80:	00448493          	addi	x9,x9,4

# Testcase cr_rs1_rs2_edges (Test source rs1 = 0x80000000 rs2 = 0x7ffffffe)
  RVTEST_TESTDATA_LOAD_INT(x20, x16) # load rs1: x16 = 0x80000000
    1c84:	000a2803          	lw	x16,0(x20)
    1c88:	004a0a13          	addi	x20,x20,4
  RVTEST_TESTDATA_LOAD_INT(x20, x29) # load rs2: x29 = 0x7ffffffe
    1c8c:	000a2e83          	lw	x29,0(x20)
    1c90:	004a0a13          	addi	x20,x20,4

00001c94 <I_sub_cg_cr_rs1_rs2_edges_rs1val_0x80000000_rs2val_0x7ffffffe>:
I_sub_cg_cr_rs1_rs2_edges_rs1val_0x80000000_rs2val_0x7ffffffe:
  sub x8, x16, x29 # perform operation
    1c94:	41d80433          	sub	x8,x16,x29
  # Check if x8 contains the expected result. x9 is the signature ptr, x5 is the link ptr, x4 is a temp reg.
  RVTEST_SIGUPD(x9, x5, x4, x8, I_sub_cg_cr_rs1_rs2_edges_rs1val_0x80000000_rs2val_0x7ffffffe, I_sub_cg_cr_rs1_rs2_edges_rs1val_0x80000000_rs2val_0x7ffffffe_str)
    1c98:	0004a203          	lw	x4,0(x9)
    1c9c:	00820863          	beq	x4,x8,1cac <I_sub_cg_cr_rs1_rs2_edges_rs1val_0x80000000_rs2val_0x7ffffffe+0x18>
    1ca0:	03d022ef          	jal	x5,44dc <failedtest_x5_x4>
    1ca4:	00001c94          	.word	0x00001c94
    1ca8:	0000b1d2          	.word	0x0000b1d2
    1cac:	00448493          	addi	x9,x9,4

# Testcase cr_rs1_rs2_edges (Test source rs1 = 0x80000000 rs2 = 0xffffffff)
  RVTEST_TESTDATA_LOAD_INT(x20, x24) # load rs1: x24 = 0x80000000
    1cb0:	000a2c03          	lw	x24,0(x20)
    1cb4:	004a0a13          	addi	x20,x20,4
  RVTEST_TESTDATA_LOAD_INT(x20, x23) # load rs2: x23 = 0xffffffff
    1cb8:	000a2b83          	lw	x23,0(x20)
    1cbc:	004a0a13          	addi	x20,x20,4

00001cc0 <I_sub_cg_cr_rs1_rs2_edges_rs1val_0x80000000_rs2val_0xffffffff>:
I_sub_cg_cr_rs1_rs2_edges_rs1val_0x80000000_rs2val_0xffffffff:
  sub x15, x24, x23 # perform operation
    1cc0:	417c07b3          	sub	x15,x24,x23
  # Check if x15 contains the expected result. x9 is the signature ptr, x5 is the link ptr, x4 is a temp reg.
  RVTEST_SIGUPD(x9, x5, x4, x15, I_sub_cg_cr_rs1_rs2_edges_rs1val_0x80000000_rs2val_0xffffffff, I_sub_cg_cr_rs1_rs2_edges_rs1val_0x80000000_rs2val_0xffffffff_str)
    1cc4:	0004a203          	lw	x4,0(x9)
    1cc8:	00f20863          	beq	x4,x15,1cd8 <I_sub_cg_cr_rs1_rs2_edges_rs1val_0x80000000_rs2val_0xffffffff+0x18>
    1ccc:	011022ef          	jal	x5,44dc <failedtest_x5_x4>
    1cd0:	00001cc0          	.word	0x00001cc0
    1cd4:	0000b22d          	.word	0x0000b22d
    1cd8:	00448493          	addi	x9,x9,4

# Testcase cr_rs1_rs2_edges (Test source rs1 = 0x80000000 rs2 = 0xfffffffe)
  RVTEST_TESTDATA_LOAD_INT(x20, x23) # load rs1: x23 = 0x80000000
    1cdc:	000a2b83          	lw	x23,0(x20)
    1ce0:	004a0a13          	addi	x20,x20,4
  RVTEST_TESTDATA_LOAD_INT(x20, x12) # load rs2: x12 = 0xfffffffe
    1ce4:	000a2603          	lw	x12,0(x20)
    1ce8:	004a0a13          	addi	x20,x20,4

00001cec <I_sub_cg_cr_rs1_rs2_edges_rs1val_0x80000000_rs2val_0xfffffffe>:
I_sub_cg_cr_rs1_rs2_edges_rs1val_0x80000000_rs2val_0xfffffffe:
  sub x28, x23, x12 # perform operation
    1cec:	40cb8e33          	sub	x28,x23,x12
  # Check if x28 contains the expected result. x9 is the signature ptr, x5 is the link ptr, x4 is a temp reg.
  RVTEST_SIGUPD(x9, x5, x4, x28, I_sub_cg_cr_rs1_rs2_edges_rs1val_0x80000000_rs2val_0xfffffffe, I_sub_cg_cr_rs1_rs2_edges_rs1val_0x80000000_rs2val_0xfffffffe_str)
    1cf0:	0004a203          	lw	x4,0(x9)
    1cf4:	01c20863          	beq	x4,x28,1d04 <I_sub_cg_cr_rs1_rs2_edges_rs1val_0x80000000_rs2val_0xfffffffe+0x18>
    1cf8:	7e4022ef          	jal	x5,44dc <failedtest_x5_x4>
    1cfc:	00001cec          	.word	0x00001cec
    1d00:	0000b288          	.word	0x0000b288
    1d04:	00448493          	addi	x9,x9,4

# Testcase cr_rs1_rs2_edges (Test source rs1 = 0x80000000 rs2 = 0x5bbc8872)
  RVTEST_TESTDATA_LOAD_INT(x20, x29) # load rs1: x29 = 0x80000000
    1d08:	000a2e83          	lw	x29,0(x20)
    1d0c:	004a0a13          	addi	x20,x20,4
  RVTEST_TESTDATA_LOAD_INT(x20, x22) # load rs2: x22 = 0x5bbc8872
    1d10:	000a2b03          	lw	x22,0(x20)
    1d14:	004a0a13          	addi	x20,x20,4

00001d18 <I_sub_cg_cr_rs1_rs2_edges_rs1val_0x80000000_rs2val_0x5bbc8872>:
I_sub_cg_cr_rs1_rs2_edges_rs1val_0x80000000_rs2val_0x5bbc8872:
  sub x25, x29, x22 # perform operation
    1d18:	416e8cb3          	sub	x25,x29,x22
  # Check if x25 contains the expected result. x9 is the signature ptr, x5 is the link ptr, x4 is a temp reg.
  RVTEST_SIGUPD(x9, x5, x4, x25, I_sub_cg_cr_rs1_rs2_edges_rs1val_0x80000000_rs2val_0x5bbc8872, I_sub_cg_cr_rs1_rs2_edges_rs1val_0x80000000_rs2val_0x5bbc8872_str)
    1d1c:	0004a203          	lw	x4,0(x9)
    1d20:	01920863          	beq	x4,x25,1d30 <I_sub_cg_cr_rs1_rs2_edges_rs1val_0x80000000_rs2val_0x5bbc8872+0x18>
    1d24:	7b8022ef          	jal	x5,44dc <failedtest_x5_x4>
    1d28:	00001d18          	.word	0x00001d18
    1d2c:	0000b2e3          	.word	0x0000b2e3
    1d30:	00448493          	addi	x9,x9,4

# Testcase cr_rs1_rs2_edges (Test source rs1 = 0x80000000 rs2 = 0xaaaaaaaa)
  RVTEST_TESTDATA_LOAD_INT(x20, x2) # load rs1: x2 = 0x80000000
    1d34:	000a2103          	lw	x2,0(x20)
    1d38:	004a0a13          	addi	x20,x20,4
  RVTEST_TESTDATA_LOAD_INT(x20, x29) # load rs2: x29 = 0xaaaaaaaa
    1d3c:	000a2e83          	lw	x29,0(x20)
    1d40:	004a0a13          	addi	x20,x20,4

00001d44 <I_sub_cg_cr_rs1_rs2_edges_rs1val_0x80000000_rs2val_0xaaaaaaaa>:
I_sub_cg_cr_rs1_rs2_edges_rs1val_0x80000000_rs2val_0xaaaaaaaa:
  sub x13, x2, x29 # perform operation
    1d44:	41d106b3          	sub	x13,x2,x29
  # Check if x13 contains the expected result. x9 is the signature ptr, x5 is the link ptr, x4 is a temp reg.
  RVTEST_SIGUPD(x9, x5, x4, x13, I_sub_cg_cr_rs1_rs2_edges_rs1val_0x80000000_rs2val_0xaaaaaaaa, I_sub_cg_cr_rs1_rs2_edges_rs1val_0x80000000_rs2val_0xaaaaaaaa_str)
    1d48:	0004a203          	lw	x4,0(x9)
    1d4c:	00d20863          	beq	x4,x13,1d5c <I_sub_cg_cr_rs1_rs2_edges_rs1val_0x80000000_rs2val_0xaaaaaaaa+0x18>
    1d50:	78c022ef          	jal	x5,44dc <failedtest_x5_x4>
    1d54:	00001d44          	.word	0x00001d44
    1d58:	0000b33e          	.word	0x0000b33e
    1d5c:	00448493          	addi	x9,x9,4

# Testcase cr_rs1_rs2_edges (Test source rs1 = 0x80000000 rs2 = 0x55555555)
  RVTEST_TESTDATA_LOAD_INT(x20, x19) # load rs1: x19 = 0x80000000
    1d60:	000a2983          	lw	x19,0(x20)
    1d64:	004a0a13          	addi	x20,x20,4
  RVTEST_TESTDATA_LOAD_INT(x20, x16) # load rs2: x16 = 0x55555555
    1d68:	000a2803          	lw	x16,0(x20)
    1d6c:	004a0a13          	addi	x20,x20,4

00001d70 <I_sub_cg_cr_rs1_rs2_edges_rs1val_0x80000000_rs2val_0x55555555>:
I_sub_cg_cr_rs1_rs2_edges_rs1val_0x80000000_rs2val_0x55555555:
  sub x15, x19, x16 # perform operation
    1d70:	410987b3          	sub	x15,x19,x16
  # Check if x15 contains the expected result. x9 is the signature ptr, x5 is the link ptr, x4 is a temp reg.
  RVTEST_SIGUPD(x9, x5, x4, x15, I_sub_cg_cr_rs1_rs2_edges_rs1val_0x80000000_rs2val_0x55555555, I_sub_cg_cr_rs1_rs2_edges_rs1val_0x80000000_rs2val_0x55555555_str)
    1d74:	0004a203          	lw	x4,0(x9)
    1d78:	00f20863          	beq	x4,x15,1d88 <I_sub_cg_cr_rs1_rs2_edges_rs1val_0x80000000_rs2val_0x55555555+0x18>
    1d7c:	760022ef          	jal	x5,44dc <failedtest_x5_x4>
    1d80:	00001d70          	.word	0x00001d70
    1d84:	0000b399          	.word	0x0000b399
    1d88:	00448493          	addi	x9,x9,4

# Testcase cr_rs1_rs2_edges (Test source rs1 = 0x80000001 rs2 = 0x00000000)
  RVTEST_TESTDATA_LOAD_INT(x20, x21) # load rs1: x21 = 0x80000001
    1d8c:	000a2a83          	lw	x21,0(x20)
    1d90:	004a0a13          	addi	x20,x20,4
  RVTEST_TESTDATA_LOAD_INT(x20, x18) # load rs2: x18 = 0x00000000
    1d94:	000a2903          	lw	x18,0(x20)
    1d98:	004a0a13          	addi	x20,x20,4

00001d9c <I_sub_cg_cr_rs1_rs2_edges_rs1val_0x80000001_rs2val_0x0>:
I_sub_cg_cr_rs1_rs2_edges_rs1val_0x80000001_rs2val_0x0:
  sub x12, x21, x18 # perform operation
    1d9c:	412a8633          	sub	x12,x21,x18
  # Check if x12 contains the expected result. x9 is the signature ptr, x5 is the link ptr, x4 is a temp reg.
  RVTEST_SIGUPD(x9, x5, x4, x12, I_sub_cg_cr_rs1_rs2_edges_rs1val_0x80000001_rs2val_0x0, I_sub_cg_cr_rs1_rs2_edges_rs1val_0x80000001_rs2val_0x0_str)
    1da0:	0004a203          	lw	x4,0(x9)
    1da4:	00c20863          	beq	x4,x12,1db4 <I_sub_cg_cr_rs1_rs2_edges_rs1val_0x80000001_rs2val_0x0+0x18>
    1da8:	734022ef          	jal	x5,44dc <failedtest_x5_x4>
    1dac:	00001d9c          	.word	0x00001d9c
    1db0:	0000b3f4          	.word	0x0000b3f4
    1db4:	00448493          	addi	x9,x9,4

# Testcase cr_rs1_rs2_edges (Test source rs1 = 0x80000001 rs2 = 0x00000001)
  RVTEST_TESTDATA_LOAD_INT(x20, x28) # load rs1: x28 = 0x80000001
    1db8:	000a2e03          	lw	x28,0(x20)
    1dbc:	004a0a13          	addi	x20,x20,4
  RVTEST_TESTDATA_LOAD_INT(x20, x24) # load rs2: x24 = 0x00000001
    1dc0:	000a2c03          	lw	x24,0(x20)
    1dc4:	004a0a13          	addi	x20,x20,4

00001dc8 <I_sub_cg_cr_rs1_rs2_edges_rs1val_0x80000001_rs2val_0x1>:
I_sub_cg_cr_rs1_rs2_edges_rs1val_0x80000001_rs2val_0x1:
  sub x22, x28, x24 # perform operation
    1dc8:	418e0b33          	sub	x22,x28,x24
  # Check if x22 contains the expected result. x9 is the signature ptr, x5 is the link ptr, x4 is a temp reg.
  RVTEST_SIGUPD(x9, x5, x4, x22, I_sub_cg_cr_rs1_rs2_edges_rs1val_0x80000001_rs2val_0x1, I_sub_cg_cr_rs1_rs2_edges_rs1val_0x80000001_rs2val_0x1_str)
    1dcc:	0004a203          	lw	x4,0(x9)
    1dd0:	01620863          	beq	x4,x22,1de0 <I_sub_cg_cr_rs1_rs2_edges_rs1val_0x80000001_rs2val_0x1+0x18>
    1dd4:	708022ef          	jal	x5,44dc <failedtest_x5_x4>
    1dd8:	00001dc8          	.word	0x00001dc8
    1ddc:	0000b448          	.word	0x0000b448
    1de0:	00448493          	addi	x9,x9,4

# Testcase cr_rs1_rs2_edges (Test source rs1 = 0x80000001 rs2 = 0x00000002)
  RVTEST_TESTDATA_LOAD_INT(x20, x1) # load rs1: x1 = 0x80000001
    1de4:	000a2083          	lw	x1,0(x20)
    1de8:	004a0a13          	addi	x20,x20,4
  RVTEST_TESTDATA_LOAD_INT(x20, x16) # load rs2: x16 = 0x00000002
    1dec:	000a2803          	lw	x16,0(x20)
    1df0:	004a0a13          	addi	x20,x20,4

00001df4 <I_sub_cg_cr_rs1_rs2_edges_rs1val_0x80000001_rs2val_0x2>:
I_sub_cg_cr_rs1_rs2_edges_rs1val_0x80000001_rs2val_0x2:
  sub x26, x1, x16 # perform operation
    1df4:	41008d33          	sub	x26,x1,x16
  # Check if x26 contains the expected result. x9 is the signature ptr, x5 is the link ptr, x4 is a temp reg.
  RVTEST_SIGUPD(x9, x5, x4, x26, I_sub_cg_cr_rs1_rs2_edges_rs1val_0x80000001_rs2val_0x2, I_sub_cg_cr_rs1_rs2_edges_rs1val_0x80000001_rs2val_0x2_str)
    1df8:	0004a203          	lw	x4,0(x9)
    1dfc:	01a20863          	beq	x4,x26,1e0c <I_sub_cg_cr_rs1_rs2_edges_rs1val_0x80000001_rs2val_0x2+0x18>
    1e00:	6dc022ef          	jal	x5,44dc <failedtest_x5_x4>
    1e04:	00001df4          	.word	0x00001df4
    1e08:	0000b49c          	.word	0x0000b49c
    1e0c:	00448493          	addi	x9,x9,4

# Testcase cr_rs1_rs2_edges (Test source rs1 = 0x80000001 rs2 = 0x80000000)
  RVTEST_TESTDATA_LOAD_INT(x20, x26) # load rs1: x26 = 0x80000001
    1e10:	000a2d03          	lw	x26,0(x20)
    1e14:	004a0a13          	addi	x20,x20,4
  RVTEST_TESTDATA_LOAD_INT(x20, x8) # load rs2: x8 = 0x80000000
    1e18:	000a2403          	lw	x8,0(x20)
    1e1c:	004a0a13          	addi	x20,x20,4

00001e20 <I_sub_cg_cr_rs1_rs2_edges_rs1val_0x80000001_rs2val_0x80000000>:
I_sub_cg_cr_rs1_rs2_edges_rs1val_0x80000001_rs2val_0x80000000:
  sub x31, x26, x8 # perform operation
    1e20:	408d0fb3          	sub	x31,x26,x8
  # Check if x31 contains the expected result. x9 is the signature ptr, x5 is the link ptr, x4 is a temp reg.
  RVTEST_SIGUPD(x9, x5, x4, x31, I_sub_cg_cr_rs1_rs2_edges_rs1val_0x80000001_rs2val_0x80000000, I_sub_cg_cr_rs1_rs2_edges_rs1val_0x80000001_rs2val_0x80000000_str)
    1e24:	0004a203          	lw	x4,0(x9)
    1e28:	01f20863          	beq	x4,x31,1e38 <I_sub_cg_cr_rs1_rs2_edges_rs1val_0x80000001_rs2val_0x80000000+0x18>
    1e2c:	6b0022ef          	jal	x5,44dc <failedtest_x5_x4>
    1e30:	00001e20          	.word	0x00001e20
    1e34:	0000b4f0          	.word	0x0000b4f0
    1e38:	00448493          	addi	x9,x9,4

# Testcase cr_rs1_rs2_edges (Test source rs1 = 0x80000001 rs2 = 0x80000001)
  RVTEST_TESTDATA_LOAD_INT(x20, x17) # load rs1: x17 = 0x80000001
    1e3c:	000a2883          	lw	x17,0(x20)
    1e40:	004a0a13          	addi	x20,x20,4
  RVTEST_TESTDATA_LOAD_INT(x20, x23) # load rs2: x23 = 0x80000001
    1e44:	000a2b83          	lw	x23,0(x20)
    1e48:	004a0a13          	addi	x20,x20,4

00001e4c <I_sub_cg_cr_rs1_rs2_edges_rs1val_0x80000001_rs2val_0x80000001>:
I_sub_cg_cr_rs1_rs2_edges_rs1val_0x80000001_rs2val_0x80000001:
  sub x21, x17, x23 # perform operation
    1e4c:	41788ab3          	sub	x21,x17,x23
  # Check if x21 contains the expected result. x9 is the signature ptr, x5 is the link ptr, x4 is a temp reg.
  RVTEST_SIGUPD(x9, x5, x4, x21, I_sub_cg_cr_rs1_rs2_edges_rs1val_0x80000001_rs2val_0x80000001, I_sub_cg_cr_rs1_rs2_edges_rs1val_0x80000001_rs2val_0x80000001_str)
    1e50:	0004a203          	lw	x4,0(x9)
    1e54:	01520863          	beq	x4,x21,1e64 <I_sub_cg_cr_rs1_rs2_edges_rs1val_0x80000001_rs2val_0x80000001+0x18>
    1e58:	684022ef          	jal	x5,44dc <failedtest_x5_x4>
    1e5c:	00001e4c          	.word	0x00001e4c
    1e60:	0000b54b          	.word	0x0000b54b
    1e64:	00448493          	addi	x9,x9,4

# Testcase cr_rs1_rs2_edges (Test source rs1 = 0x80000001 rs2 = 0x7fffffff)
  RVTEST_TESTDATA_LOAD_INT(x20, x2) # load rs1: x2 = 0x80000001
    1e68:	000a2103          	lw	x2,0(x20)
    1e6c:	004a0a13          	addi	x20,x20,4
  RVTEST_TESTDATA_LOAD_INT(x20, x3) # load rs2: x3 = 0x7fffffff
    1e70:	000a2183          	lw	x3,0(x20)
    1e74:	004a0a13          	addi	x20,x20,4

00001e78 <I_sub_cg_cr_rs1_rs2_edges_rs1val_0x80000001_rs2val_0x7fffffff>:
I_sub_cg_cr_rs1_rs2_edges_rs1val_0x80000001_rs2val_0x7fffffff:
  sub x16, x2, x3 # perform operation
    1e78:	40310833          	sub	x16,x2,x3
  # Check if x16 contains the expected result. x9 is the signature ptr, x5 is the link ptr, x4 is a temp reg.
  RVTEST_SIGUPD(x9, x5, x4, x16, I_sub_cg_cr_rs1_rs2_edges_rs1val_0x80000001_rs2val_0x7fffffff, I_sub_cg_cr_rs1_rs2_edges_rs1val_0x80000001_rs2val_0x7fffffff_str)
    1e7c:	0004a203          	lw	x4,0(x9)
    1e80:	01020863          	beq	x4,x16,1e90 <I_sub_cg_cr_rs1_rs2_edges_rs1val_0x80000001_rs2val_0x7fffffff+0x18>
    1e84:	658022ef          	jal	x5,44dc <failedtest_x5_x4>
    1e88:	00001e78          	.word	0x00001e78
    1e8c:	0000b5a6          	.word	0x0000b5a6
    1e90:	00448493          	addi	x9,x9,4

# Testcase cr_rs1_rs2_edges (Test source rs1 = 0x80000001 rs2 = 0x7ffffffe)
  RVTEST_TESTDATA_LOAD_INT(x20, x28) # load rs1: x28 = 0x80000001
    1e94:	000a2e03          	lw	x28,0(x20)
    1e98:	004a0a13          	addi	x20,x20,4
  RVTEST_TESTDATA_LOAD_INT(x20, x19) # load rs2: x19 = 0x7ffffffe
    1e9c:	000a2983          	lw	x19,0(x20)
    1ea0:	004a0a13          	addi	x20,x20,4

00001ea4 <I_sub_cg_cr_rs1_rs2_edges_rs1val_0x80000001_rs2val_0x7ffffffe>:
I_sub_cg_cr_rs1_rs2_edges_rs1val_0x80000001_rs2val_0x7ffffffe:
  sub x13, x28, x19 # perform operation
    1ea4:	413e06b3          	sub	x13,x28,x19
  # Check if x13 contains the expected result. x9 is the signature ptr, x5 is the link ptr, x4 is a temp reg.
  RVTEST_SIGUPD(x9, x5, x4, x13, I_sub_cg_cr_rs1_rs2_edges_rs1val_0x80000001_rs2val_0x7ffffffe, I_sub_cg_cr_rs1_rs2_edges_rs1val_0x80000001_rs2val_0x7ffffffe_str)
    1ea8:	0004a203          	lw	x4,0(x9)
    1eac:	00d20863          	beq	x4,x13,1ebc <I_sub_cg_cr_rs1_rs2_edges_rs1val_0x80000001_rs2val_0x7ffffffe+0x18>
    1eb0:	62c022ef          	jal	x5,44dc <failedtest_x5_x4>
    1eb4:	00001ea4          	.word	0x00001ea4
    1eb8:	0000b601          	.word	0x0000b601
    1ebc:	00448493          	addi	x9,x9,4

# Testcase cr_rs1_rs2_edges (Test source rs1 = 0x80000001 rs2 = 0xffffffff)
  RVTEST_TESTDATA_LOAD_INT(x20, x27) # load rs1: x27 = 0x80000001
    1ec0:	000a2d83          	lw	x27,0(x20)
    1ec4:	004a0a13          	addi	x20,x20,4
  RVTEST_TESTDATA_LOAD_INT(x20, x24) # load rs2: x24 = 0xffffffff
    1ec8:	000a2c03          	lw	x24,0(x20)
    1ecc:	004a0a13          	addi	x20,x20,4

00001ed0 <I_sub_cg_cr_rs1_rs2_edges_rs1val_0x80000001_rs2val_0xffffffff>:
I_sub_cg_cr_rs1_rs2_edges_rs1val_0x80000001_rs2val_0xffffffff:
  sub x14, x27, x24 # perform operation
    1ed0:	418d8733          	sub	x14,x27,x24
  # Check if x14 contains the expected result. x9 is the signature ptr, x5 is the link ptr, x4 is a temp reg.
  RVTEST_SIGUPD(x9, x5, x4, x14, I_sub_cg_cr_rs1_rs2_edges_rs1val_0x80000001_rs2val_0xffffffff, I_sub_cg_cr_rs1_rs2_edges_rs1val_0x80000001_rs2val_0xffffffff_str)
    1ed4:	0004a203          	lw	x4,0(x9)
    1ed8:	00e20863          	beq	x4,x14,1ee8 <I_sub_cg_cr_rs1_rs2_edges_rs1val_0x80000001_rs2val_0xffffffff+0x18>
    1edc:	600022ef          	jal	x5,44dc <failedtest_x5_x4>
    1ee0:	00001ed0          	.word	0x00001ed0
    1ee4:	0000b65c          	.word	0x0000b65c
    1ee8:	00448493          	addi	x9,x9,4

# Testcase cr_rs1_rs2_edges (Test source rs1 = 0x80000001 rs2 = 0xfffffffe)
  RVTEST_TESTDATA_LOAD_INT(x20, x13) # load rs1: x13 = 0x80000001
    1eec:	000a2683          	lw	x13,0(x20)
    1ef0:	004a0a13          	addi	x20,x20,4
  RVTEST_TESTDATA_LOAD_INT(x20, x23) # load rs2: x23 = 0xfffffffe
    1ef4:	000a2b83          	lw	x23,0(x20)
    1ef8:	004a0a13          	addi	x20,x20,4

00001efc <I_sub_cg_cr_rs1_rs2_edges_rs1val_0x80000001_rs2val_0xfffffffe>:
I_sub_cg_cr_rs1_rs2_edges_rs1val_0x80000001_rs2val_0xfffffffe:
  sub x29, x13, x23 # perform operation
    1efc:	41768eb3          	sub	x29,x13,x23
  # Check if x29 contains the expected result. x9 is the signature ptr, x5 is the link ptr, x4 is a temp reg.
  RVTEST_SIGUPD(x9, x5, x4, x29, I_sub_cg_cr_rs1_rs2_edges_rs1val_0x80000001_rs2val_0xfffffffe, I_sub_cg_cr_rs1_rs2_edges_rs1val_0x80000001_rs2val_0xfffffffe_str)
    1f00:	0004a203          	lw	x4,0(x9)
    1f04:	01d20863          	beq	x4,x29,1f14 <I_sub_cg_cr_rs1_rs2_edges_rs1val_0x80000001_rs2val_0xfffffffe+0x18>
    1f08:	5d4022ef          	jal	x5,44dc <failedtest_x5_x4>
    1f0c:	00001efc          	.word	0x00001efc
    1f10:	0000b6b7          	.word	0x0000b6b7
    1f14:	00448493          	addi	x9,x9,4

# Testcase cr_rs1_rs2_edges (Test source rs1 = 0x80000001 rs2 = 0x5bbc8872)
  RVTEST_TESTDATA_LOAD_INT(x20, x17) # load rs1: x17 = 0x80000001
    1f18:	000a2883          	lw	x17,0(x20)
    1f1c:	004a0a13          	addi	x20,x20,4
  RVTEST_TESTDATA_LOAD_INT(x20, x22) # load rs2: x22 = 0x5bbc8872
    1f20:	000a2b03          	lw	x22,0(x20)
    1f24:	004a0a13          	addi	x20,x20,4

00001f28 <I_sub_cg_cr_rs1_rs2_edges_rs1val_0x80000001_rs2val_0x5bbc8872>:
I_sub_cg_cr_rs1_rs2_edges_rs1val_0x80000001_rs2val_0x5bbc8872:
  sub x3, x17, x22 # perform operation
    1f28:	416881b3          	sub	x3,x17,x22
  # Check if x3 contains the expected result. x9 is the signature ptr, x5 is the link ptr, x4 is a temp reg.
  RVTEST_SIGUPD(x9, x5, x4, x3, I_sub_cg_cr_rs1_rs2_edges_rs1val_0x80000001_rs2val_0x5bbc8872, I_sub_cg_cr_rs1_rs2_edges_rs1val_0x80000001_rs2val_0x5bbc8872_str)
    1f2c:	0004a203          	lw	x4,0(x9)
    1f30:	00320863          	beq	x4,x3,1f40 <I_sub_cg_cr_rs1_rs2_edges_rs1val_0x80000001_rs2val_0x5bbc8872+0x18>
    1f34:	5a8022ef          	jal	x5,44dc <failedtest_x5_x4>
    1f38:	00001f28          	.word	0x00001f28
    1f3c:	0000b712          	.word	0x0000b712
    1f40:	00448493          	addi	x9,x9,4

# Testcase cr_rs1_rs2_edges (Test source rs1 = 0x80000001 rs2 = 0xaaaaaaaa)
  RVTEST_TESTDATA_LOAD_INT(x20, x10) # load rs1: x10 = 0x80000001
    1f44:	000a2503          	lw	x10,0(x20)
    1f48:	004a0a13          	addi	x20,x20,4
  RVTEST_TESTDATA_LOAD_INT(x20, x21) # load rs2: x21 = 0xaaaaaaaa
    1f4c:	000a2a83          	lw	x21,0(x20)
    1f50:	004a0a13          	addi	x20,x20,4

00001f54 <I_sub_cg_cr_rs1_rs2_edges_rs1val_0x80000001_rs2val_0xaaaaaaaa>:
I_sub_cg_cr_rs1_rs2_edges_rs1val_0x80000001_rs2val_0xaaaaaaaa:
  sub x31, x10, x21 # perform operation
    1f54:	41550fb3          	sub	x31,x10,x21
  # Check if x31 contains the expected result. x9 is the signature ptr, x5 is the link ptr, x4 is a temp reg.
  RVTEST_SIGUPD(x9, x5, x4, x31, I_sub_cg_cr_rs1_rs2_edges_rs1val_0x80000001_rs2val_0xaaaaaaaa, I_sub_cg_cr_rs1_rs2_edges_rs1val_0x80000001_rs2val_0xaaaaaaaa_str)
    1f58:	0004a203          	lw	x4,0(x9)
    1f5c:	01f20863          	beq	x4,x31,1f6c <I_sub_cg_cr_rs1_rs2_edges_rs1val_0x80000001_rs2val_0xaaaaaaaa+0x18>
    1f60:	57c022ef          	jal	x5,44dc <failedtest_x5_x4>
    1f64:	00001f54          	.word	0x00001f54
    1f68:	0000b76d          	.word	0x0000b76d
    1f6c:	00448493          	addi	x9,x9,4

# Testcase cr_rs1_rs2_edges (Test source rs1 = 0x80000001 rs2 = 0x55555555)
  RVTEST_TESTDATA_LOAD_INT(x20, x15) # load rs1: x15 = 0x80000001
    1f70:	000a2783          	lw	x15,0(x20)
    1f74:	004a0a13          	addi	x20,x20,4
  RVTEST_TESTDATA_LOAD_INT(x20, x22) # load rs2: x22 = 0x55555555
    1f78:	000a2b03          	lw	x22,0(x20)
    1f7c:	004a0a13          	addi	x20,x20,4

00001f80 <I_sub_cg_cr_rs1_rs2_edges_rs1val_0x80000001_rs2val_0x55555555>:
I_sub_cg_cr_rs1_rs2_edges_rs1val_0x80000001_rs2val_0x55555555:
  sub x18, x15, x22 # perform operation
    1f80:	41678933          	sub	x18,x15,x22
  # Check if x18 contains the expected result. x9 is the signature ptr, x5 is the link ptr, x4 is a temp reg.
  RVTEST_SIGUPD(x9, x5, x4, x18, I_sub_cg_cr_rs1_rs2_edges_rs1val_0x80000001_rs2val_0x55555555, I_sub_cg_cr_rs1_rs2_edges_rs1val_0x80000001_rs2val_0x55555555_str)
    1f84:	0004a203          	lw	x4,0(x9)
    1f88:	01220863          	beq	x4,x18,1f98 <I_sub_cg_cr_rs1_rs2_edges_rs1val_0x80000001_rs2val_0x55555555+0x18>
    1f8c:	550022ef          	jal	x5,44dc <failedtest_x5_x4>
    1f90:	00001f80          	.word	0x00001f80
    1f94:	0000b7c8          	.word	0x0000b7c8
    1f98:	00448493          	addi	x9,x9,4

# Testcase cr_rs1_rs2_edges (Test source rs1 = 0x7fffffff rs2 = 0x00000000)
  RVTEST_TESTDATA_LOAD_INT(x20, x24) # load rs1: x24 = 0x7fffffff
    1f9c:	000a2c03          	lw	x24,0(x20)
    1fa0:	004a0a13          	addi	x20,x20,4
  RVTEST_TESTDATA_LOAD_INT(x20, x2) # load rs2: x2 = 0x00000000
    1fa4:	000a2103          	lw	x2,0(x20)
    1fa8:	004a0a13          	addi	x20,x20,4

00001fac <I_sub_cg_cr_rs1_rs2_edges_rs1val_0x7fffffff_rs2val_0x0>:
I_sub_cg_cr_rs1_rs2_edges_rs1val_0x7fffffff_rs2val_0x0:
  sub x28, x24, x2 # perform operation
    1fac:	402c0e33          	sub	x28,x24,x2
  # Check if x28 contains the expected result. x9 is the signature ptr, x5 is the link ptr, x4 is a temp reg.
  RVTEST_SIGUPD(x9, x5, x4, x28, I_sub_cg_cr_rs1_rs2_edges_rs1val_0x7fffffff_rs2val_0x0, I_sub_cg_cr_rs1_rs2_edges_rs1val_0x7fffffff_rs2val_0x0_str)
    1fb0:	0004a203          	lw	x4,0(x9)
    1fb4:	01c20863          	beq	x4,x28,1fc4 <I_sub_cg_cr_rs1_rs2_edges_rs1val_0x7fffffff_rs2val_0x0+0x18>
    1fb8:	524022ef          	jal	x5,44dc <failedtest_x5_x4>
    1fbc:	00001fac          	.word	0x00001fac
    1fc0:	0000b823          	.word	0x0000b823
    1fc4:	00448493          	addi	x9,x9,4

# Testcase cr_rs1_rs2_edges (Test source rs1 = 0x7fffffff rs2 = 0x00000001)
  RVTEST_TESTDATA_LOAD_INT(x20, x2) # load rs1: x2 = 0x7fffffff
    1fc8:	000a2103          	lw	x2,0(x20)
    1fcc:	004a0a13          	addi	x20,x20,4
  RVTEST_TESTDATA_LOAD_INT(x20, x25) # load rs2: x25 = 0x00000001
    1fd0:	000a2c83          	lw	x25,0(x20)
    1fd4:	004a0a13          	addi	x20,x20,4

00001fd8 <I_sub_cg_cr_rs1_rs2_edges_rs1val_0x7fffffff_rs2val_0x1>:
I_sub_cg_cr_rs1_rs2_edges_rs1val_0x7fffffff_rs2val_0x1:
  sub x13, x2, x25 # perform operation
    1fd8:	419106b3          	sub	x13,x2,x25
  # Check if x13 contains the expected result. x9 is the signature ptr, x5 is the link ptr, x4 is a temp reg.
  RVTEST_SIGUPD(x9, x5, x4, x13, I_sub_cg_cr_rs1_rs2_edges_rs1val_0x7fffffff_rs2val_0x1, I_sub_cg_cr_rs1_rs2_edges_rs1val_0x7fffffff_rs2val_0x1_str)
    1fdc:	0004a203          	lw	x4,0(x9)
    1fe0:	00d20863          	beq	x4,x13,1ff0 <I_sub_cg_cr_rs1_rs2_edges_rs1val_0x7fffffff_rs2val_0x1+0x18>
    1fe4:	4f8022ef          	jal	x5,44dc <failedtest_x5_x4>
    1fe8:	00001fd8          	.word	0x00001fd8
    1fec:	0000b877          	.word	0x0000b877
    1ff0:	00448493          	addi	x9,x9,4

# Testcase cr_rs1_rs2_edges (Test source rs1 = 0x7fffffff rs2 = 0x00000002)
  RVTEST_TESTDATA_LOAD_INT(x20, x24) # load rs1: x24 = 0x7fffffff
    1ff4:	000a2c03          	lw	x24,0(x20)
    1ff8:	004a0a13          	addi	x20,x20,4
  RVTEST_TESTDATA_LOAD_INT(x20, x29) # load rs2: x29 = 0x00000002
    1ffc:	000a2e83          	lw	x29,0(x20)
    2000:	004a0a13          	addi	x20,x20,4

00002004 <I_sub_cg_cr_rs1_rs2_edges_rs1val_0x7fffffff_rs2val_0x2>:
I_sub_cg_cr_rs1_rs2_edges_rs1val_0x7fffffff_rs2val_0x2:
  sub x7, x24, x29 # perform operation
    2004:	41dc03b3          	sub	x7,x24,x29
  # Check if x7 contains the expected result. x9 is the signature ptr, x5 is the link ptr, x4 is a temp reg.
  RVTEST_SIGUPD(x9, x5, x4, x7, I_sub_cg_cr_rs1_rs2_edges_rs1val_0x7fffffff_rs2val_0x2, I_sub_cg_cr_rs1_rs2_edges_rs1val_0x7fffffff_rs2val_0x2_str)
    2008:	0004a203          	lw	x4,0(x9)
    200c:	00720863          	beq	x4,x7,201c <I_sub_cg_cr_rs1_rs2_edges_rs1val_0x7fffffff_rs2val_0x2+0x18>
    2010:	4cc022ef          	jal	x5,44dc <failedtest_x5_x4>
    2014:	00002004          	.word	0x00002004
    2018:	0000b8cb          	.word	0x0000b8cb
    201c:	00448493          	addi	x9,x9,4

# Testcase cr_rs1_rs2_edges (Test source rs1 = 0x7fffffff rs2 = 0x80000000)
  RVTEST_TESTDATA_LOAD_INT(x20, x29) # load rs1: x29 = 0x7fffffff
    2020:	000a2e83          	lw	x29,0(x20)
    2024:	004a0a13          	addi	x20,x20,4
  RVTEST_TESTDATA_LOAD_INT(x20, x23) # load rs2: x23 = 0x80000000
    2028:	000a2b83          	lw	x23,0(x20)
    202c:	004a0a13          	addi	x20,x20,4

00002030 <I_sub_cg_cr_rs1_rs2_edges_rs1val_0x7fffffff_rs2val_0x80000000>:
I_sub_cg_cr_rs1_rs2_edges_rs1val_0x7fffffff_rs2val_0x80000000:
  sub x8, x29, x23 # perform operation
    2030:	417e8433          	sub	x8,x29,x23
  # Check if x8 contains the expected result. x9 is the signature ptr, x5 is the link ptr, x4 is a temp reg.
  RVTEST_SIGUPD(x9, x5, x4, x8, I_sub_cg_cr_rs1_rs2_edges_rs1val_0x7fffffff_rs2val_0x80000000, I_sub_cg_cr_rs1_rs2_edges_rs1val_0x7fffffff_rs2val_0x80000000_str)
    2034:	0004a203          	lw	x4,0(x9)
    2038:	00820863          	beq	x4,x8,2048 <I_sub_cg_cr_rs1_rs2_edges_rs1val_0x7fffffff_rs2val_0x80000000+0x18>
    203c:	4a0022ef          	jal	x5,44dc <failedtest_x5_x4>
    2040:	00002030          	.word	0x00002030
    2044:	0000b91f          	.word	0x0000b91f
    2048:	00448493          	addi	x9,x9,4

# Testcase cr_rs1_rs2_edges (Test source rs1 = 0x7fffffff rs2 = 0x80000001)
  RVTEST_TESTDATA_LOAD_INT(x20, x14) # load rs1: x14 = 0x7fffffff
    204c:	000a2703          	lw	x14,0(x20)
    2050:	004a0a13          	addi	x20,x20,4
  RVTEST_TESTDATA_LOAD_INT(x20, x12) # load rs2: x12 = 0x80000001
    2054:	000a2603          	lw	x12,0(x20)
    2058:	004a0a13          	addi	x20,x20,4

0000205c <I_sub_cg_cr_rs1_rs2_edges_rs1val_0x7fffffff_rs2val_0x80000001>:
I_sub_cg_cr_rs1_rs2_edges_rs1val_0x7fffffff_rs2val_0x80000001:
  sub x27, x14, x12 # perform operation
    205c:	40c70db3          	sub	x27,x14,x12
  # Check if x27 contains the expected result. x9 is the signature ptr, x5 is the link ptr, x4 is a temp reg.
  RVTEST_SIGUPD(x9, x5, x4, x27, I_sub_cg_cr_rs1_rs2_edges_rs1val_0x7fffffff_rs2val_0x80000001, I_sub_cg_cr_rs1_rs2_edges_rs1val_0x7fffffff_rs2val_0x80000001_str)
    2060:	0004a203          	lw	x4,0(x9)
    2064:	01b20863          	beq	x4,x27,2074 <I_sub_cg_cr_rs1_rs2_edges_rs1val_0x7fffffff_rs2val_0x80000001+0x18>
    2068:	474022ef          	jal	x5,44dc <failedtest_x5_x4>
    206c:	0000205c          	.word	0x0000205c
    2070:	0000b97a          	.word	0x0000b97a
    2074:	00448493          	addi	x9,x9,4

# Testcase cr_rs1_rs2_edges (Test source rs1 = 0x7fffffff rs2 = 0x7fffffff)
  RVTEST_TESTDATA_LOAD_INT(x20, x3) # load rs1: x3 = 0x7fffffff
    2078:	000a2183          	lw	x3,0(x20)
    207c:	004a0a13          	addi	x20,x20,4
  RVTEST_TESTDATA_LOAD_INT(x20, x17) # load rs2: x17 = 0x7fffffff
    2080:	000a2883          	lw	x17,0(x20)
    2084:	004a0a13          	addi	x20,x20,4

00002088 <I_sub_cg_cr_rs1_rs2_edges_rs1val_0x7fffffff_rs2val_0x7fffffff>:
I_sub_cg_cr_rs1_rs2_edges_rs1val_0x7fffffff_rs2val_0x7fffffff:
  sub x18, x3, x17 # perform operation
    2088:	41118933          	sub	x18,x3,x17
  # Check if x18 contains the expected result. x9 is the signature ptr, x5 is the link ptr, x4 is a temp reg.
  RVTEST_SIGUPD(x9, x5, x4, x18, I_sub_cg_cr_rs1_rs2_edges_rs1val_0x7fffffff_rs2val_0x7fffffff, I_sub_cg_cr_rs1_rs2_edges_rs1val_0x7fffffff_rs2val_0x7fffffff_str)
    208c:	0004a203          	lw	x4,0(x9)
    2090:	01220863          	beq	x4,x18,20a0 <I_sub_cg_cr_rs1_rs2_edges_rs1val_0x7fffffff_rs2val_0x7fffffff+0x18>
    2094:	448022ef          	jal	x5,44dc <failedtest_x5_x4>
    2098:	00002088          	.word	0x00002088
    209c:	0000b9d5          	.word	0x0000b9d5
    20a0:	00448493          	addi	x9,x9,4

# Testcase cr_rs1_rs2_edges (Test source rs1 = 0x7fffffff rs2 = 0x7ffffffe)
  RVTEST_TESTDATA_LOAD_INT(x20, x18) # load rs1: x18 = 0x7fffffff
    20a4:	000a2903          	lw	x18,0(x20)
    20a8:	004a0a13          	addi	x20,x20,4
  RVTEST_TESTDATA_LOAD_INT(x20, x30) # load rs2: x30 = 0x7ffffffe
    20ac:	000a2f03          	lw	x30,0(x20)
    20b0:	004a0a13          	addi	x20,x20,4

000020b4 <I_sub_cg_cr_rs1_rs2_edges_rs1val_0x7fffffff_rs2val_0x7ffffffe>:
I_sub_cg_cr_rs1_rs2_edges_rs1val_0x7fffffff_rs2val_0x7ffffffe:
  sub x16, x18, x30 # perform operation
    20b4:	41e90833          	sub	x16,x18,x30
  # Check if x16 contains the expected result. x9 is the signature ptr, x5 is the link ptr, x4 is a temp reg.
  RVTEST_SIGUPD(x9, x5, x4, x16, I_sub_cg_cr_rs1_rs2_edges_rs1val_0x7fffffff_rs2val_0x7ffffffe, I_sub_cg_cr_rs1_rs2_edges_rs1val_0x7fffffff_rs2val_0x7ffffffe_str)
    20b8:	0004a203          	lw	x4,0(x9)
    20bc:	01020863          	beq	x4,x16,20cc <I_sub_cg_cr_rs1_rs2_edges_rs1val_0x7fffffff_rs2val_0x7ffffffe+0x18>
    20c0:	41c022ef          	jal	x5,44dc <failedtest_x5_x4>
    20c4:	000020b4          	.word	0x000020b4
    20c8:	0000ba30          	.word	0x0000ba30
    20cc:	00448493          	addi	x9,x9,4

# Testcase cr_rs1_rs2_edges (Test source rs1 = 0x7fffffff rs2 = 0xffffffff)
  RVTEST_TESTDATA_LOAD_INT(x20, x8) # load rs1: x8 = 0x7fffffff
    20d0:	000a2403          	lw	x8,0(x20)
    20d4:	004a0a13          	addi	x20,x20,4
  RVTEST_TESTDATA_LOAD_INT(x20, x12) # load rs2: x12 = 0xffffffff
    20d8:	000a2603          	lw	x12,0(x20)
    20dc:	004a0a13          	addi	x20,x20,4

000020e0 <I_sub_cg_cr_rs1_rs2_edges_rs1val_0x7fffffff_rs2val_0xffffffff>:
I_sub_cg_cr_rs1_rs2_edges_rs1val_0x7fffffff_rs2val_0xffffffff:
  sub x16, x8, x12 # perform operation
    20e0:	40c40833          	sub	x16,x8,x12
  # Check if x16 contains the expected result. x9 is the signature ptr, x5 is the link ptr, x4 is a temp reg.
  RVTEST_SIGUPD(x9, x5, x4, x16, I_sub_cg_cr_rs1_rs2_edges_rs1val_0x7fffffff_rs2val_0xffffffff, I_sub_cg_cr_rs1_rs2_edges_rs1val_0x7fffffff_rs2val_0xffffffff_str)
    20e4:	0004a203          	lw	x4,0(x9)
    20e8:	01020863          	beq	x4,x16,20f8 <I_sub_cg_cr_rs1_rs2_edges_rs1val_0x7fffffff_rs2val_0xffffffff+0x18>
    20ec:	3f0022ef          	jal	x5,44dc <failedtest_x5_x4>
    20f0:	000020e0          	.word	0x000020e0
    20f4:	0000ba8b          	.word	0x0000ba8b
    20f8:	00448493          	addi	x9,x9,4

# Testcase cr_rs1_rs2_edges (Test source rs1 = 0x7fffffff rs2 = 0xfffffffe)
  RVTEST_TESTDATA_LOAD_INT(x20, x11) # load rs1: x11 = 0x7fffffff
    20fc:	000a2583          	lw	x11,0(x20)
    2100:	004a0a13          	addi	x20,x20,4
  RVTEST_TESTDATA_LOAD_INT(x20, x16) # load rs2: x16 = 0xfffffffe
    2104:	000a2803          	lw	x16,0(x20)
    2108:	004a0a13          	addi	x20,x20,4

0000210c <I_sub_cg_cr_rs1_rs2_edges_rs1val_0x7fffffff_rs2val_0xfffffffe>:
I_sub_cg_cr_rs1_rs2_edges_rs1val_0x7fffffff_rs2val_0xfffffffe:
  sub x23, x11, x16 # perform operation
    210c:	41058bb3          	sub	x23,x11,x16
  # Check if x23 contains the expected result. x9 is the signature ptr, x5 is the link ptr, x4 is a temp reg.
  RVTEST_SIGUPD(x9, x5, x4, x23, I_sub_cg_cr_rs1_rs2_edges_rs1val_0x7fffffff_rs2val_0xfffffffe, I_sub_cg_cr_rs1_rs2_edges_rs1val_0x7fffffff_rs2val_0xfffffffe_str)
    2110:	0004a203          	lw	x4,0(x9)
    2114:	01720863          	beq	x4,x23,2124 <I_sub_cg_cr_rs1_rs2_edges_rs1val_0x7fffffff_rs2val_0xfffffffe+0x18>
    2118:	3c4022ef          	jal	x5,44dc <failedtest_x5_x4>
    211c:	0000210c          	.word	0x0000210c
    2120:	0000bae6          	.word	0x0000bae6
    2124:	00448493          	addi	x9,x9,4

# Testcase cr_rs1_rs2_edges (Test source rs1 = 0x7fffffff rs2 = 0x5bbc8872)
  RVTEST_TESTDATA_LOAD_INT(x20, x28) # load rs1: x28 = 0x7fffffff
    2128:	000a2e03          	lw	x28,0(x20)
    212c:	004a0a13          	addi	x20,x20,4
  RVTEST_TESTDATA_LOAD_INT(x20, x23) # load rs2: x23 = 0x5bbc8872
    2130:	000a2b83          	lw	x23,0(x20)
    2134:	004a0a13          	addi	x20,x20,4

00002138 <I_sub_cg_cr_rs1_rs2_edges_rs1val_0x7fffffff_rs2val_0x5bbc8872>:
I_sub_cg_cr_rs1_rs2_edges_rs1val_0x7fffffff_rs2val_0x5bbc8872:
  sub x12, x28, x23 # perform operation
    2138:	417e0633          	sub	x12,x28,x23
  # Check if x12 contains the expected result. x9 is the signature ptr, x5 is the link ptr, x4 is a temp reg.
  RVTEST_SIGUPD(x9, x5, x4, x12, I_sub_cg_cr_rs1_rs2_edges_rs1val_0x7fffffff_rs2val_0x5bbc8872, I_sub_cg_cr_rs1_rs2_edges_rs1val_0x7fffffff_rs2val_0x5bbc8872_str)
    213c:	0004a203          	lw	x4,0(x9)
    2140:	00c20863          	beq	x4,x12,2150 <I_sub_cg_cr_rs1_rs2_edges_rs1val_0x7fffffff_rs2val_0x5bbc8872+0x18>
    2144:	398022ef          	jal	x5,44dc <failedtest_x5_x4>
    2148:	00002138          	.word	0x00002138
    214c:	0000bb41          	.word	0x0000bb41
    2150:	00448493          	addi	x9,x9,4

# Testcase cr_rs1_rs2_edges (Test source rs1 = 0x7fffffff rs2 = 0xaaaaaaaa)
  RVTEST_TESTDATA_LOAD_INT(x20, x13) # load rs1: x13 = 0x7fffffff
    2154:	000a2683          	lw	x13,0(x20)
    2158:	004a0a13          	addi	x20,x20,4
  RVTEST_TESTDATA_LOAD_INT(x20, x29) # load rs2: x29 = 0xaaaaaaaa
    215c:	000a2e83          	lw	x29,0(x20)
    2160:	004a0a13          	addi	x20,x20,4

00002164 <I_sub_cg_cr_rs1_rs2_edges_rs1val_0x7fffffff_rs2val_0xaaaaaaaa>:
I_sub_cg_cr_rs1_rs2_edges_rs1val_0x7fffffff_rs2val_0xaaaaaaaa:
  sub x26, x13, x29 # perform operation
    2164:	41d68d33          	sub	x26,x13,x29
  # Check if x26 contains the expected result. x9 is the signature ptr, x5 is the link ptr, x4 is a temp reg.
  RVTEST_SIGUPD(x9, x5, x4, x26, I_sub_cg_cr_rs1_rs2_edges_rs1val_0x7fffffff_rs2val_0xaaaaaaaa, I_sub_cg_cr_rs1_rs2_edges_rs1val_0x7fffffff_rs2val_0xaaaaaaaa_str)
    2168:	0004a203          	lw	x4,0(x9)
    216c:	01a20863          	beq	x4,x26,217c <I_sub_cg_cr_rs1_rs2_edges_rs1val_0x7fffffff_rs2val_0xaaaaaaaa+0x18>
    2170:	36c022ef          	jal	x5,44dc <failedtest_x5_x4>
    2174:	00002164          	.word	0x00002164
    2178:	0000bb9c          	.word	0x0000bb9c
    217c:	00448493          	addi	x9,x9,4

# Testcase cr_rs1_rs2_edges (Test source rs1 = 0x7fffffff rs2 = 0x55555555)
  RVTEST_TESTDATA_LOAD_INT(x20, x18) # load rs1: x18 = 0x7fffffff
    2180:	000a2903          	lw	x18,0(x20)
    2184:	004a0a13          	addi	x20,x20,4
  RVTEST_TESTDATA_LOAD_INT(x20, x8) # load rs2: x8 = 0x55555555
    2188:	000a2403          	lw	x8,0(x20)
    218c:	004a0a13          	addi	x20,x20,4

00002190 <I_sub_cg_cr_rs1_rs2_edges_rs1val_0x7fffffff_rs2val_0x55555555>:
I_sub_cg_cr_rs1_rs2_edges_rs1val_0x7fffffff_rs2val_0x55555555:
  sub x13, x18, x8 # perform operation
    2190:	408906b3          	sub	x13,x18,x8
  # Check if x13 contains the expected result. x9 is the signature ptr, x5 is the link ptr, x4 is a temp reg.
  RVTEST_SIGUPD(x9, x5, x4, x13, I_sub_cg_cr_rs1_rs2_edges_rs1val_0x7fffffff_rs2val_0x55555555, I_sub_cg_cr_rs1_rs2_edges_rs1val_0x7fffffff_rs2val_0x55555555_str)
    2194:	0004a203          	lw	x4,0(x9)
    2198:	00d20863          	beq	x4,x13,21a8 <I_sub_cg_cr_rs1_rs2_edges_rs1val_0x7fffffff_rs2val_0x55555555+0x18>
    219c:	340022ef          	jal	x5,44dc <failedtest_x5_x4>
    21a0:	00002190          	.word	0x00002190
    21a4:	0000bbf7          	.word	0x0000bbf7
    21a8:	00448493          	addi	x9,x9,4

# Testcase cr_rs1_rs2_edges (Test source rs1 = 0x7ffffffe rs2 = 0x00000000)
  RVTEST_TESTDATA_LOAD_INT(x20, x7) # load rs1: x7 = 0x7ffffffe
    21ac:	000a2383          	lw	x7,0(x20)
    21b0:	004a0a13          	addi	x20,x20,4
  RVTEST_TESTDATA_LOAD_INT(x20, x15) # load rs2: x15 = 0x00000000
    21b4:	000a2783          	lw	x15,0(x20)
    21b8:	004a0a13          	addi	x20,x20,4

000021bc <I_sub_cg_cr_rs1_rs2_edges_rs1val_0x7ffffffe_rs2val_0x0>:
I_sub_cg_cr_rs1_rs2_edges_rs1val_0x7ffffffe_rs2val_0x0:
  sub x2, x7, x15 # perform operation
    21bc:	40f38133          	sub	x2,x7,x15
  # Check if x2 contains the expected result. x9 is the signature ptr, x5 is the link ptr, x4 is a temp reg.
  RVTEST_SIGUPD(x9, x5, x4, x2, I_sub_cg_cr_rs1_rs2_edges_rs1val_0x7ffffffe_rs2val_0x0, I_sub_cg_cr_rs1_rs2_edges_rs1val_0x7ffffffe_rs2val_0x0_str)
    21c0:	0004a203          	lw	x4,0(x9)
    21c4:	00220863          	beq	x4,x2,21d4 <I_sub_cg_cr_rs1_rs2_edges_rs1val_0x7ffffffe_rs2val_0x0+0x18>
    21c8:	314022ef          	jal	x5,44dc <failedtest_x5_x4>
    21cc:	000021bc          	.word	0x000021bc
    21d0:	0000bc52          	.word	0x0000bc52
    21d4:	00448493          	addi	x9,x9,4

# Testcase cr_rs1_rs2_edges (Test source rs1 = 0x7ffffffe rs2 = 0x00000001)
  RVTEST_TESTDATA_LOAD_INT(x20, x31) # load rs1: x31 = 0x7ffffffe
    21d8:	000a2f83          	lw	x31,0(x20)
    21dc:	004a0a13          	addi	x20,x20,4
  RVTEST_TESTDATA_LOAD_INT(x20, x3) # load rs2: x3 = 0x00000001
    21e0:	000a2183          	lw	x3,0(x20)
    21e4:	004a0a13          	addi	x20,x20,4

000021e8 <I_sub_cg_cr_rs1_rs2_edges_rs1val_0x7ffffffe_rs2val_0x1>:
I_sub_cg_cr_rs1_rs2_edges_rs1val_0x7ffffffe_rs2val_0x1:
  sub x17, x31, x3 # perform operation
    21e8:	403f88b3          	sub	x17,x31,x3
  # Check if x17 contains the expected result. x9 is the signature ptr, x5 is the link ptr, x4 is a temp reg.
  RVTEST_SIGUPD(x9, x5, x4, x17, I_sub_cg_cr_rs1_rs2_edges_rs1val_0x7ffffffe_rs2val_0x1, I_sub_cg_cr_rs1_rs2_edges_rs1val_0x7ffffffe_rs2val_0x1_str)
    21ec:	0004a203          	lw	x4,0(x9)
    21f0:	01120863          	beq	x4,x17,2200 <I_sub_cg_cr_rs1_rs2_edges_rs1val_0x7ffffffe_rs2val_0x1+0x18>
    21f4:	2e8022ef          	jal	x5,44dc <failedtest_x5_x4>
    21f8:	000021e8          	.word	0x000021e8
    21fc:	0000bca6          	.word	0x0000bca6
    2200:	00448493          	addi	x9,x9,4

# Testcase cr_rs1_rs2_edges (Test source rs1 = 0x7ffffffe rs2 = 0x00000002)
  RVTEST_TESTDATA_LOAD_INT(x20, x17) # load rs1: x17 = 0x7ffffffe
    2204:	000a2883          	lw	x17,0(x20)
    2208:	004a0a13          	addi	x20,x20,4
  RVTEST_TESTDATA_LOAD_INT(x20, x8) # load rs2: x8 = 0x00000002
    220c:	000a2403          	lw	x8,0(x20)
    2210:	004a0a13          	addi	x20,x20,4

00002214 <I_sub_cg_cr_rs1_rs2_edges_rs1val_0x7ffffffe_rs2val_0x2>:
I_sub_cg_cr_rs1_rs2_edges_rs1val_0x7ffffffe_rs2val_0x2:
  sub x2, x17, x8 # perform operation
    2214:	40888133          	sub	x2,x17,x8
  # Check if x2 contains the expected result. x9 is the signature ptr, x5 is the link ptr, x4 is a temp reg.
  RVTEST_SIGUPD(x9, x5, x4, x2, I_sub_cg_cr_rs1_rs2_edges_rs1val_0x7ffffffe_rs2val_0x2, I_sub_cg_cr_rs1_rs2_edges_rs1val_0x7ffffffe_rs2val_0x2_str)
    2218:	0004a203          	lw	x4,0(x9)
    221c:	00220863          	beq	x4,x2,222c <I_sub_cg_cr_rs1_rs2_edges_rs1val_0x7ffffffe_rs2val_0x2+0x18>
    2220:	2bc022ef          	jal	x5,44dc <failedtest_x5_x4>
    2224:	00002214          	.word	0x00002214
    2228:	0000bcfa          	.word	0x0000bcfa
    222c:	00448493          	addi	x9,x9,4

# Testcase cr_rs1_rs2_edges (Test source rs1 = 0x7ffffffe rs2 = 0x80000000)
  RVTEST_TESTDATA_LOAD_INT(x20, x24) # load rs1: x24 = 0x7ffffffe
    2230:	000a2c03          	lw	x24,0(x20)
    2234:	004a0a13          	addi	x20,x20,4
  RVTEST_TESTDATA_LOAD_INT(x20, x13) # load rs2: x13 = 0x80000000
    2238:	000a2683          	lw	x13,0(x20)
    223c:	004a0a13          	addi	x20,x20,4

00002240 <I_sub_cg_cr_rs1_rs2_edges_rs1val_0x7ffffffe_rs2val_0x80000000>:
I_sub_cg_cr_rs1_rs2_edges_rs1val_0x7ffffffe_rs2val_0x80000000:
  sub x1, x24, x13 # perform operation
    2240:	40dc00b3          	sub	x1,x24,x13
  # Check if x1 contains the expected result. x9 is the signature ptr, x5 is the link ptr, x4 is a temp reg.
  RVTEST_SIGUPD(x9, x5, x4, x1, I_sub_cg_cr_rs1_rs2_edges_rs1val_0x7ffffffe_rs2val_0x80000000, I_sub_cg_cr_rs1_rs2_edges_rs1val_0x7ffffffe_rs2val_0x80000000_str)
    2244:	0004a203          	lw	x4,0(x9)
    2248:	00120863          	beq	x4,x1,2258 <I_sub_cg_cr_rs1_rs2_edges_rs1val_0x7ffffffe_rs2val_0x80000000+0x18>
    224c:	290022ef          	jal	x5,44dc <failedtest_x5_x4>
    2250:	00002240          	.word	0x00002240
    2254:	0000bd4e          	.word	0x0000bd4e
    2258:	00448493          	addi	x9,x9,4

# Testcase cr_rs1_rs2_edges (Test source rs1 = 0x7ffffffe rs2 = 0x80000001)
  RVTEST_TESTDATA_LOAD_INT(x20, x15) # load rs1: x15 = 0x7ffffffe
    225c:	000a2783          	lw	x15,0(x20)
    2260:	004a0a13          	addi	x20,x20,4
  RVTEST_TESTDATA_LOAD_INT(x20, x26) # load rs2: x26 = 0x80000001
    2264:	000a2d03          	lw	x26,0(x20)
    2268:	004a0a13          	addi	x20,x20,4

0000226c <I_sub_cg_cr_rs1_rs2_edges_rs1val_0x7ffffffe_rs2val_0x80000001>:
I_sub_cg_cr_rs1_rs2_edges_rs1val_0x7ffffffe_rs2val_0x80000001:
  sub x3, x15, x26 # perform operation
    226c:	41a781b3          	sub	x3,x15,x26
  # Check if x3 contains the expected result. x9 is the signature ptr, x5 is the link ptr, x4 is a temp reg.
  RVTEST_SIGUPD(x9, x5, x4, x3, I_sub_cg_cr_rs1_rs2_edges_rs1val_0x7ffffffe_rs2val_0x80000001, I_sub_cg_cr_rs1_rs2_edges_rs1val_0x7ffffffe_rs2val_0x80000001_str)
    2270:	0004a203          	lw	x4,0(x9)
    2274:	00320863          	beq	x4,x3,2284 <I_sub_cg_cr_rs1_rs2_edges_rs1val_0x7ffffffe_rs2val_0x80000001+0x18>
    2278:	264022ef          	jal	x5,44dc <failedtest_x5_x4>
    227c:	0000226c          	.word	0x0000226c
    2280:	0000bda9          	.word	0x0000bda9
    2284:	00448493          	addi	x9,x9,4

# Testcase cr_rs1_rs2_edges (Test source rs1 = 0x7ffffffe rs2 = 0x7fffffff)
  RVTEST_TESTDATA_LOAD_INT(x20, x31) # load rs1: x31 = 0x7ffffffe
    2288:	000a2f83          	lw	x31,0(x20)
    228c:	004a0a13          	addi	x20,x20,4
  RVTEST_TESTDATA_LOAD_INT(x20, x23) # load rs2: x23 = 0x7fffffff
    2290:	000a2b83          	lw	x23,0(x20)
    2294:	004a0a13          	addi	x20,x20,4

00002298 <I_sub_cg_cr_rs1_rs2_edges_rs1val_0x7ffffffe_rs2val_0x7fffffff>:
I_sub_cg_cr_rs1_rs2_edges_rs1val_0x7ffffffe_rs2val_0x7fffffff:
  sub x6, x31, x23 # perform operation
    2298:	417f8333          	sub	x6,x31,x23
  # Check if x6 contains the expected result. x9 is the signature ptr, x5 is the link ptr, x4 is a temp reg.
  RVTEST_SIGUPD(x9, x5, x4, x6, I_sub_cg_cr_rs1_rs2_edges_rs1val_0x7ffffffe_rs2val_0x7fffffff, I_sub_cg_cr_rs1_rs2_edges_rs1val_0x7ffffffe_rs2val_0x7fffffff_str)
    229c:	0004a203          	lw	x4,0(x9)
    22a0:	00620863          	beq	x4,x6,22b0 <I_sub_cg_cr_rs1_rs2_edges_rs1val_0x7ffffffe_rs2val_0x7fffffff+0x18>
    22a4:	238022ef          	jal	x5,44dc <failedtest_x5_x4>
    22a8:	00002298          	.word	0x00002298
    22ac:	0000be04          	.word	0x0000be04
    22b0:	00448493          	addi	x9,x9,4

# Testcase cr_rs1_rs2_edges (Test source rs1 = 0x7ffffffe rs2 = 0x7ffffffe)
  RVTEST_TESTDATA_LOAD_INT(x20, x27) # load rs1: x27 = 0x7ffffffe
    22b4:	000a2d83          	lw	x27,0(x20)
    22b8:	004a0a13          	addi	x20,x20,4
  RVTEST_TESTDATA_LOAD_INT(x20, x30) # load rs2: x30 = 0x7ffffffe
    22bc:	000a2f03          	lw	x30,0(x20)
    22c0:	004a0a13          	addi	x20,x20,4

000022c4 <I_sub_cg_cr_rs1_rs2_edges_rs1val_0x7ffffffe_rs2val_0x7ffffffe>:
I_sub_cg_cr_rs1_rs2_edges_rs1val_0x7ffffffe_rs2val_0x7ffffffe:
  sub x2, x27, x30 # perform operation
    22c4:	41ed8133          	sub	x2,x27,x30
  # Check if x2 contains the expected result. x9 is the signature ptr, x5 is the link ptr, x4 is a temp reg.
  RVTEST_SIGUPD(x9, x5, x4, x2, I_sub_cg_cr_rs1_rs2_edges_rs1val_0x7ffffffe_rs2val_0x7ffffffe, I_sub_cg_cr_rs1_rs2_edges_rs1val_0x7ffffffe_rs2val_0x7ffffffe_str)
    22c8:	0004a203          	lw	x4,0(x9)
    22cc:	00220863          	beq	x4,x2,22dc <I_sub_cg_cr_rs1_rs2_edges_rs1val_0x7ffffffe_rs2val_0x7ffffffe+0x18>
    22d0:	20c022ef          	jal	x5,44dc <failedtest_x5_x4>
    22d4:	000022c4          	.word	0x000022c4
    22d8:	0000be5f          	.word	0x0000be5f
    22dc:	00448493          	addi	x9,x9,4

# Testcase cr_rs1_rs2_edges (Test source rs1 = 0x7ffffffe rs2 = 0xffffffff)
  RVTEST_TESTDATA_LOAD_INT(x20, x28) # load rs1: x28 = 0x7ffffffe
    22e0:	000a2e03          	lw	x28,0(x20)
    22e4:	004a0a13          	addi	x20,x20,4
  RVTEST_TESTDATA_LOAD_INT(x20, x3) # load rs2: x3 = 0xffffffff
    22e8:	000a2183          	lw	x3,0(x20)
    22ec:	004a0a13          	addi	x20,x20,4

000022f0 <I_sub_cg_cr_rs1_rs2_edges_rs1val_0x7ffffffe_rs2val_0xffffffff>:
I_sub_cg_cr_rs1_rs2_edges_rs1val_0x7ffffffe_rs2val_0xffffffff:
  sub x1, x28, x3 # perform operation
    22f0:	403e00b3          	sub	x1,x28,x3
  # Check if x1 contains the expected result. x9 is the signature ptr, x5 is the link ptr, x4 is a temp reg.
  RVTEST_SIGUPD(x9, x5, x4, x1, I_sub_cg_cr_rs1_rs2_edges_rs1val_0x7ffffffe_rs2val_0xffffffff, I_sub_cg_cr_rs1_rs2_edges_rs1val_0x7ffffffe_rs2val_0xffffffff_str)
    22f4:	0004a203          	lw	x4,0(x9)
    22f8:	00120863          	beq	x4,x1,2308 <I_sub_cg_cr_rs1_rs2_edges_rs1val_0x7ffffffe_rs2val_0xffffffff+0x18>
    22fc:	1e0022ef          	jal	x5,44dc <failedtest_x5_x4>
    2300:	000022f0          	.word	0x000022f0
    2304:	0000beba          	.word	0x0000beba
    2308:	00448493          	addi	x9,x9,4

# Testcase cr_rs1_rs2_edges (Test source rs1 = 0x7ffffffe rs2 = 0xfffffffe)
  RVTEST_TESTDATA_LOAD_INT(x20, x18) # load rs1: x18 = 0x7ffffffe
    230c:	000a2903          	lw	x18,0(x20)
    2310:	004a0a13          	addi	x20,x20,4
  RVTEST_TESTDATA_LOAD_INT(x20, x10) # load rs2: x10 = 0xfffffffe
    2314:	000a2503          	lw	x10,0(x20)
    2318:	004a0a13          	addi	x20,x20,4

0000231c <I_sub_cg_cr_rs1_rs2_edges_rs1val_0x7ffffffe_rs2val_0xfffffffe>:
I_sub_cg_cr_rs1_rs2_edges_rs1val_0x7ffffffe_rs2val_0xfffffffe:
  sub x23, x18, x10 # perform operation
    231c:	40a90bb3          	sub	x23,x18,x10
  # Check if x23 contains the expected result. x9 is the signature ptr, x5 is the link ptr, x4 is a temp reg.
  RVTEST_SIGUPD(x9, x5, x4, x23, I_sub_cg_cr_rs1_rs2_edges_rs1val_0x7ffffffe_rs2val_0xfffffffe, I_sub_cg_cr_rs1_rs2_edges_rs1val_0x7ffffffe_rs2val_0xfffffffe_str)
    2320:	0004a203          	lw	x4,0(x9)
    2324:	01720863          	beq	x4,x23,2334 <I_sub_cg_cr_rs1_rs2_edges_rs1val_0x7ffffffe_rs2val_0xfffffffe+0x18>
    2328:	1b4022ef          	jal	x5,44dc <failedtest_x5_x4>
    232c:	0000231c          	.word	0x0000231c
    2330:	0000bf15          	.word	0x0000bf15
    2334:	00448493          	addi	x9,x9,4

# Testcase cr_rs1_rs2_edges (Test source rs1 = 0x7ffffffe rs2 = 0x5bbc8872)
  RVTEST_TESTDATA_LOAD_INT(x20, x28) # load rs1: x28 = 0x7ffffffe
    2338:	000a2e03          	lw	x28,0(x20)
    233c:	004a0a13          	addi	x20,x20,4
  RVTEST_TESTDATA_LOAD_INT(x20, x24) # load rs2: x24 = 0x5bbc8872
    2340:	000a2c03          	lw	x24,0(x20)
    2344:	004a0a13          	addi	x20,x20,4

00002348 <I_sub_cg_cr_rs1_rs2_edges_rs1val_0x7ffffffe_rs2val_0x5bbc8872>:
I_sub_cg_cr_rs1_rs2_edges_rs1val_0x7ffffffe_rs2val_0x5bbc8872:
  sub x7, x28, x24 # perform operation
    2348:	418e03b3          	sub	x7,x28,x24
  # Check if x7 contains the expected result. x9 is the signature ptr, x5 is the link ptr, x4 is a temp reg.
  RVTEST_SIGUPD(x9, x5, x4, x7, I_sub_cg_cr_rs1_rs2_edges_rs1val_0x7ffffffe_rs2val_0x5bbc8872, I_sub_cg_cr_rs1_rs2_edges_rs1val_0x7ffffffe_rs2val_0x5bbc8872_str)
    234c:	0004a203          	lw	x4,0(x9)
    2350:	00720863          	beq	x4,x7,2360 <I_sub_cg_cr_rs1_rs2_edges_rs1val_0x7ffffffe_rs2val_0x5bbc8872+0x18>
    2354:	188022ef          	jal	x5,44dc <failedtest_x5_x4>
    2358:	00002348          	.word	0x00002348
    235c:	0000bf70          	.word	0x0000bf70
    2360:	00448493          	addi	x9,x9,4

# Testcase cr_rs1_rs2_edges (Test source rs1 = 0x7ffffffe rs2 = 0xaaaaaaaa)
  RVTEST_TESTDATA_LOAD_INT(x20, x25) # load rs1: x25 = 0x7ffffffe
    2364:	000a2c83          	lw	x25,0(x20)
    2368:	004a0a13          	addi	x20,x20,4
  RVTEST_TESTDATA_LOAD_INT(x20, x1) # load rs2: x1 = 0xaaaaaaaa
    236c:	000a2083          	lw	x1,0(x20)
    2370:	004a0a13          	addi	x20,x20,4

00002374 <I_sub_cg_cr_rs1_rs2_edges_rs1val_0x7ffffffe_rs2val_0xaaaaaaaa>:
I_sub_cg_cr_rs1_rs2_edges_rs1val_0x7ffffffe_rs2val_0xaaaaaaaa:
  sub x30, x25, x1 # perform operation
    2374:	401c8f33          	sub	x30,x25,x1
  # Check if x30 contains the expected result. x9 is the signature ptr, x5 is the link ptr, x4 is a temp reg.
  RVTEST_SIGUPD(x9, x5, x4, x30, I_sub_cg_cr_rs1_rs2_edges_rs1val_0x7ffffffe_rs2val_0xaaaaaaaa, I_sub_cg_cr_rs1_rs2_edges_rs1val_0x7ffffffe_rs2val_0xaaaaaaaa_str)
    2378:	0004a203          	lw	x4,0(x9)
    237c:	01e20863          	beq	x4,x30,238c <I_sub_cg_cr_rs1_rs2_edges_rs1val_0x7ffffffe_rs2val_0xaaaaaaaa+0x18>
    2380:	15c022ef          	jal	x5,44dc <failedtest_x5_x4>
    2384:	00002374          	.word	0x00002374
    2388:	0000bfcb          	.word	0x0000bfcb
    238c:	00448493          	addi	x9,x9,4

# Testcase cr_rs1_rs2_edges (Test source rs1 = 0x7ffffffe rs2 = 0x55555555)
  RVTEST_TESTDATA_LOAD_INT(x20, x10) # load rs1: x10 = 0x7ffffffe
    2390:	000a2503          	lw	x10,0(x20)
    2394:	004a0a13          	addi	x20,x20,4
  RVTEST_TESTDATA_LOAD_INT(x20, x24) # load rs2: x24 = 0x55555555
    2398:	000a2c03          	lw	x24,0(x20)
    239c:	004a0a13          	addi	x20,x20,4

000023a0 <I_sub_cg_cr_rs1_rs2_edges_rs1val_0x7ffffffe_rs2val_0x55555555>:
I_sub_cg_cr_rs1_rs2_edges_rs1val_0x7ffffffe_rs2val_0x55555555:
  sub x14, x10, x24 # perform operation
    23a0:	41850733          	sub	x14,x10,x24
  # Check if x14 contains the expected result. x9 is the signature ptr, x5 is the link ptr, x4 is a temp reg.
  RVTEST_SIGUPD(x9, x5, x4, x14, I_sub_cg_cr_rs1_rs2_edges_rs1val_0x7ffffffe_rs2val_0x55555555, I_sub_cg_cr_rs1_rs2_edges_rs1val_0x7ffffffe_rs2val_0x55555555_str)
    23a4:	0004a203          	lw	x4,0(x9)
    23a8:	00e20863          	beq	x4,x14,23b8 <I_sub_cg_cr_rs1_rs2_edges_rs1val_0x7ffffffe_rs2val_0x55555555+0x18>
    23ac:	130022ef          	jal	x5,44dc <failedtest_x5_x4>
    23b0:	000023a0          	.word	0x000023a0
    23b4:	0000c026          	.word	0x0000c026
    23b8:	00448493          	addi	x9,x9,4

# Testcase cr_rs1_rs2_edges (Test source rs1 = 0xffffffff rs2 = 0x00000000)
  RVTEST_TESTDATA_LOAD_INT(x20, x18) # load rs1: x18 = 0xffffffff
    23bc:	000a2903          	lw	x18,0(x20)
    23c0:	004a0a13          	addi	x20,x20,4
  RVTEST_TESTDATA_LOAD_INT(x20, x15) # load rs2: x15 = 0x00000000
    23c4:	000a2783          	lw	x15,0(x20)
    23c8:	004a0a13          	addi	x20,x20,4

000023cc <I_sub_cg_cr_rs1_rs2_edges_rs1val_0xffffffff_rs2val_0x0>:
I_sub_cg_cr_rs1_rs2_edges_rs1val_0xffffffff_rs2val_0x0:
  sub x29, x18, x15 # perform operation
    23cc:	40f90eb3          	sub	x29,x18,x15
  # Check if x29 contains the expected result. x9 is the signature ptr, x5 is the link ptr, x4 is a temp reg.
  RVTEST_SIGUPD(x9, x5, x4, x29, I_sub_cg_cr_rs1_rs2_edges_rs1val_0xffffffff_rs2val_0x0, I_sub_cg_cr_rs1_rs2_edges_rs1val_0xffffffff_rs2val_0x0_str)
    23d0:	0004a203          	lw	x4,0(x9)
    23d4:	01d20863          	beq	x4,x29,23e4 <I_sub_cg_cr_rs1_rs2_edges_rs1val_0xffffffff_rs2val_0x0+0x18>
    23d8:	104022ef          	jal	x5,44dc <failedtest_x5_x4>
    23dc:	000023cc          	.word	0x000023cc
    23e0:	0000c081          	.word	0x0000c081
    23e4:	00448493          	addi	x9,x9,4

# Testcase cr_rs1_rs2_edges (Test source rs1 = 0xffffffff rs2 = 0x00000001)
  RVTEST_TESTDATA_LOAD_INT(x20, x6) # load rs1: x6 = 0xffffffff
    23e8:	000a2303          	lw	x6,0(x20)
    23ec:	004a0a13          	addi	x20,x20,4
  RVTEST_TESTDATA_LOAD_INT(x20, x28) # load rs2: x28 = 0x00000001
    23f0:	000a2e03          	lw	x28,0(x20)
    23f4:	004a0a13          	addi	x20,x20,4

000023f8 <I_sub_cg_cr_rs1_rs2_edges_rs1val_0xffffffff_rs2val_0x1>:
I_sub_cg_cr_rs1_rs2_edges_rs1val_0xffffffff_rs2val_0x1:
  sub x24, x6, x28 # perform operation
    23f8:	41c30c33          	sub	x24,x6,x28
  # Check if x24 contains the expected result. x9 is the signature ptr, x5 is the link ptr, x4 is a temp reg.
  RVTEST_SIGUPD(x9, x5, x4, x24, I_sub_cg_cr_rs1_rs2_edges_rs1val_0xffffffff_rs2val_0x1, I_sub_cg_cr_rs1_rs2_edges_rs1val_0xffffffff_rs2val_0x1_str)
    23fc:	0004a203          	lw	x4,0(x9)
    2400:	01820863          	beq	x4,x24,2410 <I_sub_cg_cr_rs1_rs2_edges_rs1val_0xffffffff_rs2val_0x1+0x18>
    2404:	0d8022ef          	jal	x5,44dc <failedtest_x5_x4>
    2408:	000023f8          	.word	0x000023f8
    240c:	0000c0d5          	.word	0x0000c0d5
    2410:	00448493          	addi	x9,x9,4

# Testcase cr_rs1_rs2_edges (Test source rs1 = 0xffffffff rs2 = 0x00000002)
  RVTEST_TESTDATA_LOAD_INT(x20, x31) # load rs1: x31 = 0xffffffff
    2414:	000a2f83          	lw	x31,0(x20)
    2418:	004a0a13          	addi	x20,x20,4
  RVTEST_TESTDATA_LOAD_INT(x20, x26) # load rs2: x26 = 0x00000002
    241c:	000a2d03          	lw	x26,0(x20)
    2420:	004a0a13          	addi	x20,x20,4

00002424 <I_sub_cg_cr_rs1_rs2_edges_rs1val_0xffffffff_rs2val_0x2>:
I_sub_cg_cr_rs1_rs2_edges_rs1val_0xffffffff_rs2val_0x2:
  sub x11, x31, x26 # perform operation
    2424:	41af85b3          	sub	x11,x31,x26
  # Check if x11 contains the expected result. x9 is the signature ptr, x5 is the link ptr, x4 is a temp reg.
  RVTEST_SIGUPD(x9, x5, x4, x11, I_sub_cg_cr_rs1_rs2_edges_rs1val_0xffffffff_rs2val_0x2, I_sub_cg_cr_rs1_rs2_edges_rs1val_0xffffffff_rs2val_0x2_str)
    2428:	0004a203          	lw	x4,0(x9)
    242c:	00b20863          	beq	x4,x11,243c <I_sub_cg_cr_rs1_rs2_edges_rs1val_0xffffffff_rs2val_0x2+0x18>
    2430:	0ac022ef          	jal	x5,44dc <failedtest_x5_x4>
    2434:	00002424          	.word	0x00002424
    2438:	0000c129          	.word	0x0000c129
    243c:	00448493          	addi	x9,x9,4

# Testcase cr_rs1_rs2_edges (Test source rs1 = 0xffffffff rs2 = 0x80000000)
  RVTEST_TESTDATA_LOAD_INT(x20, x3) # load rs1: x3 = 0xffffffff
    2440:	000a2183          	lw	x3,0(x20)
    2444:	004a0a13          	addi	x20,x20,4
  RVTEST_TESTDATA_LOAD_INT(x20, x11) # load rs2: x11 = 0x80000000
    2448:	000a2583          	lw	x11,0(x20)
    244c:	004a0a13          	addi	x20,x20,4

00002450 <I_sub_cg_cr_rs1_rs2_edges_rs1val_0xffffffff_rs2val_0x80000000>:
I_sub_cg_cr_rs1_rs2_edges_rs1val_0xffffffff_rs2val_0x80000000:
  sub x2, x3, x11 # perform operation
    2450:	40b18133          	sub	x2,x3,x11
  # Check if x2 contains the expected result. x9 is the signature ptr, x5 is the link ptr, x4 is a temp reg.
  RVTEST_SIGUPD(x9, x5, x4, x2, I_sub_cg_cr_rs1_rs2_edges_rs1val_0xffffffff_rs2val_0x80000000, I_sub_cg_cr_rs1_rs2_edges_rs1val_0xffffffff_rs2val_0x80000000_str)
    2454:	0004a203          	lw	x4,0(x9)
    2458:	00220863          	beq	x4,x2,2468 <I_sub_cg_cr_rs1_rs2_edges_rs1val_0xffffffff_rs2val_0x80000000+0x18>
    245c:	080022ef          	jal	x5,44dc <failedtest_x5_x4>
    2460:	00002450          	.word	0x00002450
    2464:	0000c17d          	.word	0x0000c17d
    2468:	00448493          	addi	x9,x9,4

# Testcase cr_rs1_rs2_edges (Test source rs1 = 0xffffffff rs2 = 0x80000001)
  RVTEST_TESTDATA_LOAD_INT(x20, x28) # load rs1: x28 = 0xffffffff
    246c:	000a2e03          	lw	x28,0(x20)
    2470:	004a0a13          	addi	x20,x20,4
  RVTEST_TESTDATA_LOAD_INT(x20, x22) # load rs2: x22 = 0x80000001
    2474:	000a2b03          	lw	x22,0(x20)
    2478:	004a0a13          	addi	x20,x20,4

0000247c <I_sub_cg_cr_rs1_rs2_edges_rs1val_0xffffffff_rs2val_0x80000001>:
I_sub_cg_cr_rs1_rs2_edges_rs1val_0xffffffff_rs2val_0x80000001:
  sub x27, x28, x22 # perform operation
    247c:	416e0db3          	sub	x27,x28,x22
  # Check if x27 contains the expected result. x9 is the signature ptr, x5 is the link ptr, x4 is a temp reg.
  RVTEST_SIGUPD(x9, x5, x4, x27, I_sub_cg_cr_rs1_rs2_edges_rs1val_0xffffffff_rs2val_0x80000001, I_sub_cg_cr_rs1_rs2_edges_rs1val_0xffffffff_rs2val_0x80000001_str)
    2480:	0004a203          	lw	x4,0(x9)
    2484:	01b20863          	beq	x4,x27,2494 <I_sub_cg_cr_rs1_rs2_edges_rs1val_0xffffffff_rs2val_0x80000001+0x18>
    2488:	054022ef          	jal	x5,44dc <failedtest_x5_x4>
    248c:	0000247c          	.word	0x0000247c
    2490:	0000c1d8          	.word	0x0000c1d8
    2494:	00448493          	addi	x9,x9,4

# Testcase cr_rs1_rs2_edges (Test source rs1 = 0xffffffff rs2 = 0x7fffffff)
  RVTEST_TESTDATA_LOAD_INT(x20, x15) # load rs1: x15 = 0xffffffff
    2498:	000a2783          	lw	x15,0(x20)
    249c:	004a0a13          	addi	x20,x20,4
  RVTEST_TESTDATA_LOAD_INT(x20, x12) # load rs2: x12 = 0x7fffffff
    24a0:	000a2603          	lw	x12,0(x20)
    24a4:	004a0a13          	addi	x20,x20,4

000024a8 <I_sub_cg_cr_rs1_rs2_edges_rs1val_0xffffffff_rs2val_0x7fffffff>:
I_sub_cg_cr_rs1_rs2_edges_rs1val_0xffffffff_rs2val_0x7fffffff:
  sub x31, x15, x12 # perform operation
    24a8:	40c78fb3          	sub	x31,x15,x12
  # Check if x31 contains the expected result. x9 is the signature ptr, x5 is the link ptr, x4 is a temp reg.
  RVTEST_SIGUPD(x9, x5, x4, x31, I_sub_cg_cr_rs1_rs2_edges_rs1val_0xffffffff_rs2val_0x7fffffff, I_sub_cg_cr_rs1_rs2_edges_rs1val_0xffffffff_rs2val_0x7fffffff_str)
    24ac:	0004a203          	lw	x4,0(x9)
    24b0:	01f20863          	beq	x4,x31,24c0 <I_sub_cg_cr_rs1_rs2_edges_rs1val_0xffffffff_rs2val_0x7fffffff+0x18>
    24b4:	028022ef          	jal	x5,44dc <failedtest_x5_x4>
    24b8:	000024a8          	.word	0x000024a8
    24bc:	0000c233          	.word	0x0000c233
    24c0:	00448493          	addi	x9,x9,4

# Testcase cr_rs1_rs2_edges (Test source rs1 = 0xffffffff rs2 = 0x7ffffffe)
  RVTEST_TESTDATA_LOAD_INT(x20, x6) # load rs1: x6 = 0xffffffff
    24c4:	000a2303          	lw	x6,0(x20)
    24c8:	004a0a13          	addi	x20,x20,4
  RVTEST_TESTDATA_LOAD_INT(x20, x30) # load rs2: x30 = 0x7ffffffe
    24cc:	000a2f03          	lw	x30,0(x20)
    24d0:	004a0a13          	addi	x20,x20,4

000024d4 <I_sub_cg_cr_rs1_rs2_edges_rs1val_0xffffffff_rs2val_0x7ffffffe>:
I_sub_cg_cr_rs1_rs2_edges_rs1val_0xffffffff_rs2val_0x7ffffffe:
  sub x28, x6, x30 # perform operation
    24d4:	41e30e33          	sub	x28,x6,x30
  # Check if x28 contains the expected result. x9 is the signature ptr, x5 is the link ptr, x4 is a temp reg.
  RVTEST_SIGUPD(x9, x5, x4, x28, I_sub_cg_cr_rs1_rs2_edges_rs1val_0xffffffff_rs2val_0x7ffffffe, I_sub_cg_cr_rs1_rs2_edges_rs1val_0xffffffff_rs2val_0x7ffffffe_str)
    24d8:	0004a203          	lw	x4,0(x9)
    24dc:	01c20863          	beq	x4,x28,24ec <I_sub_cg_cr_rs1_rs2_edges_rs1val_0xffffffff_rs2val_0x7ffffffe+0x18>
    24e0:	7fd012ef          	jal	x5,44dc <failedtest_x5_x4>
    24e4:	000024d4          	.word	0x000024d4
    24e8:	0000c28e          	.word	0x0000c28e
    24ec:	00448493          	addi	x9,x9,4

# Testcase cr_rs1_rs2_edges (Test source rs1 = 0xffffffff rs2 = 0xffffffff)
  RVTEST_TESTDATA_LOAD_INT(x20, x23) # load rs1: x23 = 0xffffffff
    24f0:	000a2b83          	lw	x23,0(x20)
    24f4:	004a0a13          	addi	x20,x20,4
  RVTEST_TESTDATA_LOAD_INT(x20, x6) # load rs2: x6 = 0xffffffff
    24f8:	000a2303          	lw	x6,0(x20)
    24fc:	004a0a13          	addi	x20,x20,4

00002500 <I_sub_cg_cr_rs1_rs2_edges_rs1val_0xffffffff_rs2val_0xffffffff>:
I_sub_cg_cr_rs1_rs2_edges_rs1val_0xffffffff_rs2val_0xffffffff:
  sub x31, x23, x6 # perform operation
    2500:	406b8fb3          	sub	x31,x23,x6
  # Check if x31 contains the expected result. x9 is the signature ptr, x5 is the link ptr, x4 is a temp reg.
  RVTEST_SIGUPD(x9, x5, x4, x31, I_sub_cg_cr_rs1_rs2_edges_rs1val_0xffffffff_rs2val_0xffffffff, I_sub_cg_cr_rs1_rs2_edges_rs1val_0xffffffff_rs2val_0xffffffff_str)
    2504:	0004a203          	lw	x4,0(x9)
    2508:	01f20863          	beq	x4,x31,2518 <I_sub_cg_cr_rs1_rs2_edges_rs1val_0xffffffff_rs2val_0xffffffff+0x18>
    250c:	7d1012ef          	jal	x5,44dc <failedtest_x5_x4>
    2510:	00002500          	.word	0x00002500
    2514:	0000c2e9          	.word	0x0000c2e9
    2518:	00448493          	addi	x9,x9,4

# Testcase cr_rs1_rs2_edges (Test source rs1 = 0xffffffff rs2 = 0xfffffffe)
  RVTEST_TESTDATA_LOAD_INT(x20, x30) # load rs1: x30 = 0xffffffff
    251c:	000a2f03          	lw	x30,0(x20)
    2520:	004a0a13          	addi	x20,x20,4
  RVTEST_TESTDATA_LOAD_INT(x20, x10) # load rs2: x10 = 0xfffffffe
    2524:	000a2503          	lw	x10,0(x20)
    2528:	004a0a13          	addi	x20,x20,4

0000252c <I_sub_cg_cr_rs1_rs2_edges_rs1val_0xffffffff_rs2val_0xfffffffe>:
I_sub_cg_cr_rs1_rs2_edges_rs1val_0xffffffff_rs2val_0xfffffffe:
  sub x11, x30, x10 # perform operation
    252c:	40af05b3          	sub	x11,x30,x10
  # Check if x11 contains the expected result. x9 is the signature ptr, x5 is the link ptr, x4 is a temp reg.
  RVTEST_SIGUPD(x9, x5, x4, x11, I_sub_cg_cr_rs1_rs2_edges_rs1val_0xffffffff_rs2val_0xfffffffe, I_sub_cg_cr_rs1_rs2_edges_rs1val_0xffffffff_rs2val_0xfffffffe_str)
    2530:	0004a203          	lw	x4,0(x9)
    2534:	00b20863          	beq	x4,x11,2544 <I_sub_cg_cr_rs1_rs2_edges_rs1val_0xffffffff_rs2val_0xfffffffe+0x18>
    2538:	7a5012ef          	jal	x5,44dc <failedtest_x5_x4>
    253c:	0000252c          	.word	0x0000252c
    2540:	0000c344          	.word	0x0000c344
    2544:	00448493          	addi	x9,x9,4

# Testcase cr_rs1_rs2_edges (Test source rs1 = 0xffffffff rs2 = 0x5bbc8872)
  RVTEST_TESTDATA_LOAD_INT(x20, x25) # load rs1: x25 = 0xffffffff
    2548:	000a2c83          	lw	x25,0(x20)
    254c:	004a0a13          	addi	x20,x20,4
  RVTEST_TESTDATA_LOAD_INT(x20, x30) # load rs2: x30 = 0x5bbc8872
    2550:	000a2f03          	lw	x30,0(x20)
    2554:	004a0a13          	addi	x20,x20,4

00002558 <I_sub_cg_cr_rs1_rs2_edges_rs1val_0xffffffff_rs2val_0x5bbc8872>:
I_sub_cg_cr_rs1_rs2_edges_rs1val_0xffffffff_rs2val_0x5bbc8872:
  sub x18, x25, x30 # perform operation
    2558:	41ec8933          	sub	x18,x25,x30
  # Check if x18 contains the expected result. x9 is the signature ptr, x5 is the link ptr, x4 is a temp reg.
  RVTEST_SIGUPD(x9, x5, x4, x18, I_sub_cg_cr_rs1_rs2_edges_rs1val_0xffffffff_rs2val_0x5bbc8872, I_sub_cg_cr_rs1_rs2_edges_rs1val_0xffffffff_rs2val_0x5bbc8872_str)
    255c:	0004a203          	lw	x4,0(x9)
    2560:	01220863          	beq	x4,x18,2570 <I_sub_cg_cr_rs1_rs2_edges_rs1val_0xffffffff_rs2val_0x5bbc8872+0x18>
    2564:	779012ef          	jal	x5,44dc <failedtest_x5_x4>
    2568:	00002558          	.word	0x00002558
    256c:	0000c39f          	.word	0x0000c39f
    2570:	00448493          	addi	x9,x9,4

# Testcase cr_rs1_rs2_edges (Test source rs1 = 0xffffffff rs2 = 0xaaaaaaaa)
  RVTEST_TESTDATA_LOAD_INT(x20, x31) # load rs1: x31 = 0xffffffff
    2574:	000a2f83          	lw	x31,0(x20)
    2578:	004a0a13          	addi	x20,x20,4
  RVTEST_TESTDATA_LOAD_INT(x20, x16) # load rs2: x16 = 0xaaaaaaaa
    257c:	000a2803          	lw	x16,0(x20)
    2580:	004a0a13          	addi	x20,x20,4

00002584 <I_sub_cg_cr_rs1_rs2_edges_rs1val_0xffffffff_rs2val_0xaaaaaaaa>:
I_sub_cg_cr_rs1_rs2_edges_rs1val_0xffffffff_rs2val_0xaaaaaaaa:
  sub x7, x31, x16 # perform operation
    2584:	410f83b3          	sub	x7,x31,x16
  # Check if x7 contains the expected result. x9 is the signature ptr, x5 is the link ptr, x4 is a temp reg.
  RVTEST_SIGUPD(x9, x5, x4, x7, I_sub_cg_cr_rs1_rs2_edges_rs1val_0xffffffff_rs2val_0xaaaaaaaa, I_sub_cg_cr_rs1_rs2_edges_rs1val_0xffffffff_rs2val_0xaaaaaaaa_str)
    2588:	0004a203          	lw	x4,0(x9)
    258c:	00720863          	beq	x4,x7,259c <I_sub_cg_cr_rs1_rs2_edges_rs1val_0xffffffff_rs2val_0xaaaaaaaa+0x18>
    2590:	74d012ef          	jal	x5,44dc <failedtest_x5_x4>
    2594:	00002584          	.word	0x00002584
    2598:	0000c3fa          	.word	0x0000c3fa
    259c:	00448493          	addi	x9,x9,4

# Testcase cr_rs1_rs2_edges (Test source rs1 = 0xffffffff rs2 = 0x55555555)
  RVTEST_TESTDATA_LOAD_INT(x20, x27) # load rs1: x27 = 0xffffffff
    25a0:	000a2d83          	lw	x27,0(x20)
    25a4:	004a0a13          	addi	x20,x20,4
  RVTEST_TESTDATA_LOAD_INT(x20, x3) # load rs2: x3 = 0x55555555
    25a8:	000a2183          	lw	x3,0(x20)
    25ac:	004a0a13          	addi	x20,x20,4

000025b0 <I_sub_cg_cr_rs1_rs2_edges_rs1val_0xffffffff_rs2val_0x55555555>:
I_sub_cg_cr_rs1_rs2_edges_rs1val_0xffffffff_rs2val_0x55555555:
  sub x18, x27, x3 # perform operation
    25b0:	403d8933          	sub	x18,x27,x3
  # Check if x18 contains the expected result. x9 is the signature ptr, x5 is the link ptr, x4 is a temp reg.
  RVTEST_SIGUPD(x9, x5, x4, x18, I_sub_cg_cr_rs1_rs2_edges_rs1val_0xffffffff_rs2val_0x55555555, I_sub_cg_cr_rs1_rs2_edges_rs1val_0xffffffff_rs2val_0x55555555_str)
    25b4:	0004a203          	lw	x4,0(x9)
    25b8:	01220863          	beq	x4,x18,25c8 <I_sub_cg_cr_rs1_rs2_edges_rs1val_0xffffffff_rs2val_0x55555555+0x18>
    25bc:	721012ef          	jal	x5,44dc <failedtest_x5_x4>
    25c0:	000025b0          	.word	0x000025b0
    25c4:	0000c455          	.word	0x0000c455
    25c8:	00448493          	addi	x9,x9,4

# Testcase cr_rs1_rs2_edges (Test source rs1 = 0xfffffffe rs2 = 0x00000000)
  RVTEST_TESTDATA_LOAD_INT(x20, x15) # load rs1: x15 = 0xfffffffe
    25cc:	000a2783          	lw	x15,0(x20)
    25d0:	004a0a13          	addi	x20,x20,4
  RVTEST_TESTDATA_LOAD_INT(x20, x12) # load rs2: x12 = 0x00000000
    25d4:	000a2603          	lw	x12,0(x20)
    25d8:	004a0a13          	addi	x20,x20,4

000025dc <I_sub_cg_cr_rs1_rs2_edges_rs1val_0xfffffffe_rs2val_0x0>:
I_sub_cg_cr_rs1_rs2_edges_rs1val_0xfffffffe_rs2val_0x0:
  sub x6, x15, x12 # perform operation
    25dc:	40c78333          	sub	x6,x15,x12
  # Check if x6 contains the expected result. x9 is the signature ptr, x5 is the link ptr, x4 is a temp reg.
  RVTEST_SIGUPD(x9, x5, x4, x6, I_sub_cg_cr_rs1_rs2_edges_rs1val_0xfffffffe_rs2val_0x0, I_sub_cg_cr_rs1_rs2_edges_rs1val_0xfffffffe_rs2val_0x0_str)
    25e0:	0004a203          	lw	x4,0(x9)
    25e4:	00620863          	beq	x4,x6,25f4 <I_sub_cg_cr_rs1_rs2_edges_rs1val_0xfffffffe_rs2val_0x0+0x18>
    25e8:	6f5012ef          	jal	x5,44dc <failedtest_x5_x4>
    25ec:	000025dc          	.word	0x000025dc
    25f0:	0000c4b0          	.word	0x0000c4b0
    25f4:	00448493          	addi	x9,x9,4

# Testcase cr_rs1_rs2_edges (Test source rs1 = 0xfffffffe rs2 = 0x00000001)
  RVTEST_TESTDATA_LOAD_INT(x20, x29) # load rs1: x29 = 0xfffffffe
    25f8:	000a2e83          	lw	x29,0(x20)
    25fc:	004a0a13          	addi	x20,x20,4
  RVTEST_TESTDATA_LOAD_INT(x20, x25) # load rs2: x25 = 0x00000001
    2600:	000a2c83          	lw	x25,0(x20)
    2604:	004a0a13          	addi	x20,x20,4

00002608 <I_sub_cg_cr_rs1_rs2_edges_rs1val_0xfffffffe_rs2val_0x1>:
I_sub_cg_cr_rs1_rs2_edges_rs1val_0xfffffffe_rs2val_0x1:
  sub x1, x29, x25 # perform operation
    2608:	419e80b3          	sub	x1,x29,x25
  # Check if x1 contains the expected result. x9 is the signature ptr, x5 is the link ptr, x4 is a temp reg.
  RVTEST_SIGUPD(x9, x5, x4, x1, I_sub_cg_cr_rs1_rs2_edges_rs1val_0xfffffffe_rs2val_0x1, I_sub_cg_cr_rs1_rs2_edges_rs1val_0xfffffffe_rs2val_0x1_str)
    260c:	0004a203          	lw	x4,0(x9)
    2610:	00120863          	beq	x4,x1,2620 <I_sub_cg_cr_rs1_rs2_edges_rs1val_0xfffffffe_rs2val_0x1+0x18>
    2614:	6c9012ef          	jal	x5,44dc <failedtest_x5_x4>
    2618:	00002608          	.word	0x00002608
    261c:	0000c504          	.word	0x0000c504
    2620:	00448493          	addi	x9,x9,4

# Testcase cr_rs1_rs2_edges (Test source rs1 = 0xfffffffe rs2 = 0x00000002)
  RVTEST_TESTDATA_LOAD_INT(x20, x21) # load rs1: x21 = 0xfffffffe
    2624:	000a2a83          	lw	x21,0(x20)
    2628:	004a0a13          	addi	x20,x20,4
  RVTEST_TESTDATA_LOAD_INT(x20, x18) # load rs2: x18 = 0x00000002
    262c:	000a2903          	lw	x18,0(x20)
    2630:	004a0a13          	addi	x20,x20,4

00002634 <I_sub_cg_cr_rs1_rs2_edges_rs1val_0xfffffffe_rs2val_0x2>:
I_sub_cg_cr_rs1_rs2_edges_rs1val_0xfffffffe_rs2val_0x2:
  sub x24, x21, x18 # perform operation
    2634:	412a8c33          	sub	x24,x21,x18
  # Check if x24 contains the expected result. x9 is the signature ptr, x5 is the link ptr, x4 is a temp reg.
  RVTEST_SIGUPD(x9, x5, x4, x24, I_sub_cg_cr_rs1_rs2_edges_rs1val_0xfffffffe_rs2val_0x2, I_sub_cg_cr_rs1_rs2_edges_rs1val_0xfffffffe_rs2val_0x2_str)
    2638:	0004a203          	lw	x4,0(x9)
    263c:	01820863          	beq	x4,x24,264c <I_sub_cg_cr_rs1_rs2_edges_rs1val_0xfffffffe_rs2val_0x2+0x18>
    2640:	69d012ef          	jal	x5,44dc <failedtest_x5_x4>
    2644:	00002634          	.word	0x00002634
    2648:	0000c558          	.word	0x0000c558
    264c:	00448493          	addi	x9,x9,4

# Testcase cr_rs1_rs2_edges (Test source rs1 = 0xfffffffe rs2 = 0x80000000)
  RVTEST_TESTDATA_LOAD_INT(x20, x14) # load rs1: x14 = 0xfffffffe
    2650:	000a2703          	lw	x14,0(x20)
    2654:	004a0a13          	addi	x20,x20,4
  RVTEST_TESTDATA_LOAD_INT(x20, x6) # load rs2: x6 = 0x80000000
    2658:	000a2303          	lw	x6,0(x20)
    265c:	004a0a13          	addi	x20,x20,4

00002660 <I_sub_cg_cr_rs1_rs2_edges_rs1val_0xfffffffe_rs2val_0x80000000>:
I_sub_cg_cr_rs1_rs2_edges_rs1val_0xfffffffe_rs2val_0x80000000:
  sub x21, x14, x6 # perform operation
    2660:	40670ab3          	sub	x21,x14,x6
  # Check if x21 contains the expected result. x9 is the signature ptr, x5 is the link ptr, x4 is a temp reg.
  RVTEST_SIGUPD(x9, x5, x4, x21, I_sub_cg_cr_rs1_rs2_edges_rs1val_0xfffffffe_rs2val_0x80000000, I_sub_cg_cr_rs1_rs2_edges_rs1val_0xfffffffe_rs2val_0x80000000_str)
    2664:	0004a203          	lw	x4,0(x9)
    2668:	01520863          	beq	x4,x21,2678 <I_sub_cg_cr_rs1_rs2_edges_rs1val_0xfffffffe_rs2val_0x80000000+0x18>
    266c:	671012ef          	jal	x5,44dc <failedtest_x5_x4>
    2670:	00002660          	.word	0x00002660
    2674:	0000c5ac          	.word	0x0000c5ac
    2678:	00448493          	addi	x9,x9,4

# Testcase cr_rs1_rs2_edges (Test source rs1 = 0xfffffffe rs2 = 0x80000001)
  RVTEST_TESTDATA_LOAD_INT(x20, x30) # load rs1: x30 = 0xfffffffe
    267c:	000a2f03          	lw	x30,0(x20)
    2680:	004a0a13          	addi	x20,x20,4
  RVTEST_TESTDATA_LOAD_INT(x20, x10) # load rs2: x10 = 0x80000001
    2684:	000a2503          	lw	x10,0(x20)
    2688:	004a0a13          	addi	x20,x20,4

0000268c <I_sub_cg_cr_rs1_rs2_edges_rs1val_0xfffffffe_rs2val_0x80000001>:
I_sub_cg_cr_rs1_rs2_edges_rs1val_0xfffffffe_rs2val_0x80000001:
  sub x12, x30, x10 # perform operation
    268c:	40af0633          	sub	x12,x30,x10
  # Check if x12 contains the expected result. x9 is the signature ptr, x5 is the link ptr, x4 is a temp reg.
  RVTEST_SIGUPD(x9, x5, x4, x12, I_sub_cg_cr_rs1_rs2_edges_rs1val_0xfffffffe_rs2val_0x80000001, I_sub_cg_cr_rs1_rs2_edges_rs1val_0xfffffffe_rs2val_0x80000001_str)
    2690:	0004a203          	lw	x4,0(x9)
    2694:	00c20863          	beq	x4,x12,26a4 <I_sub_cg_cr_rs1_rs2_edges_rs1val_0xfffffffe_rs2val_0x80000001+0x18>
    2698:	645012ef          	jal	x5,44dc <failedtest_x5_x4>
    269c:	0000268c          	.word	0x0000268c
    26a0:	0000c607          	.word	0x0000c607
    26a4:	00448493          	addi	x9,x9,4

# Testcase cr_rs1_rs2_edges (Test source rs1 = 0xfffffffe rs2 = 0x7fffffff)
  RVTEST_TESTDATA_LOAD_INT(x20, x28) # load rs1: x28 = 0xfffffffe
    26a8:	000a2e03          	lw	x28,0(x20)
    26ac:	004a0a13          	addi	x20,x20,4
  RVTEST_TESTDATA_LOAD_INT(x20, x13) # load rs2: x13 = 0x7fffffff
    26b0:	000a2683          	lw	x13,0(x20)
    26b4:	004a0a13          	addi	x20,x20,4

000026b8 <I_sub_cg_cr_rs1_rs2_edges_rs1val_0xfffffffe_rs2val_0x7fffffff>:
I_sub_cg_cr_rs1_rs2_edges_rs1val_0xfffffffe_rs2val_0x7fffffff:
  sub x30, x28, x13 # perform operation
    26b8:	40de0f33          	sub	x30,x28,x13
  # Check if x30 contains the expected result. x9 is the signature ptr, x5 is the link ptr, x4 is a temp reg.
  RVTEST_SIGUPD(x9, x5, x4, x30, I_sub_cg_cr_rs1_rs2_edges_rs1val_0xfffffffe_rs2val_0x7fffffff, I_sub_cg_cr_rs1_rs2_edges_rs1val_0xfffffffe_rs2val_0x7fffffff_str)
    26bc:	0004a203          	lw	x4,0(x9)
    26c0:	01e20863          	beq	x4,x30,26d0 <I_sub_cg_cr_rs1_rs2_edges_rs1val_0xfffffffe_rs2val_0x7fffffff+0x18>
    26c4:	619012ef          	jal	x5,44dc <failedtest_x5_x4>
    26c8:	000026b8          	.word	0x000026b8
    26cc:	0000c662          	.word	0x0000c662
    26d0:	00448493          	addi	x9,x9,4

# Testcase cr_rs1_rs2_edges (Test source rs1 = 0xfffffffe rs2 = 0x7ffffffe)
  RVTEST_TESTDATA_LOAD_INT(x20, x22) # load rs1: x22 = 0xfffffffe
    26d4:	000a2b03          	lw	x22,0(x20)
    26d8:	004a0a13          	addi	x20,x20,4
  RVTEST_TESTDATA_LOAD_INT(x20, x24) # load rs2: x24 = 0x7ffffffe
    26dc:	000a2c03          	lw	x24,0(x20)
    26e0:	004a0a13          	addi	x20,x20,4

000026e4 <I_sub_cg_cr_rs1_rs2_edges_rs1val_0xfffffffe_rs2val_0x7ffffffe>:
I_sub_cg_cr_rs1_rs2_edges_rs1val_0xfffffffe_rs2val_0x7ffffffe:
  sub x6, x22, x24 # perform operation
    26e4:	418b0333          	sub	x6,x22,x24
  # Check if x6 contains the expected result. x9 is the signature ptr, x5 is the link ptr, x4 is a temp reg.
  RVTEST_SIGUPD(x9, x5, x4, x6, I_sub_cg_cr_rs1_rs2_edges_rs1val_0xfffffffe_rs2val_0x7ffffffe, I_sub_cg_cr_rs1_rs2_edges_rs1val_0xfffffffe_rs2val_0x7ffffffe_str)
    26e8:	0004a203          	lw	x4,0(x9)
    26ec:	00620863          	beq	x4,x6,26fc <I_sub_cg_cr_rs1_rs2_edges_rs1val_0xfffffffe_rs2val_0x7ffffffe+0x18>
    26f0:	5ed012ef          	jal	x5,44dc <failedtest_x5_x4>
    26f4:	000026e4          	.word	0x000026e4
    26f8:	0000c6bd          	.word	0x0000c6bd
    26fc:	00448493          	addi	x9,x9,4

# Testcase cr_rs1_rs2_edges (Test source rs1 = 0xfffffffe rs2 = 0xffffffff)
  RVTEST_TESTDATA_LOAD_INT(x20, x12) # load rs1: x12 = 0xfffffffe
    2700:	000a2603          	lw	x12,0(x20)
    2704:	004a0a13          	addi	x20,x20,4
  RVTEST_TESTDATA_LOAD_INT(x20, x21) # load rs2: x21 = 0xffffffff
    2708:	000a2a83          	lw	x21,0(x20)
    270c:	004a0a13          	addi	x20,x20,4

00002710 <I_sub_cg_cr_rs1_rs2_edges_rs1val_0xfffffffe_rs2val_0xffffffff>:
I_sub_cg_cr_rs1_rs2_edges_rs1val_0xfffffffe_rs2val_0xffffffff:
  sub x29, x12, x21 # perform operation
    2710:	41560eb3          	sub	x29,x12,x21
  # Check if x29 contains the expected result. x9 is the signature ptr, x5 is the link ptr, x4 is a temp reg.
  RVTEST_SIGUPD(x9, x5, x4, x29, I_sub_cg_cr_rs1_rs2_edges_rs1val_0xfffffffe_rs2val_0xffffffff, I_sub_cg_cr_rs1_rs2_edges_rs1val_0xfffffffe_rs2val_0xffffffff_str)
    2714:	0004a203          	lw	x4,0(x9)
    2718:	01d20863          	beq	x4,x29,2728 <I_sub_cg_cr_rs1_rs2_edges_rs1val_0xfffffffe_rs2val_0xffffffff+0x18>
    271c:	5c1012ef          	jal	x5,44dc <failedtest_x5_x4>
    2720:	00002710          	.word	0x00002710
    2724:	0000c718          	.word	0x0000c718
    2728:	00448493          	addi	x9,x9,4

# Testcase cr_rs1_rs2_edges (Test source rs1 = 0xfffffffe rs2 = 0xfffffffe)
  RVTEST_TESTDATA_LOAD_INT(x20, x27) # load rs1: x27 = 0xfffffffe
    272c:	000a2d83          	lw	x27,0(x20)
    2730:	004a0a13          	addi	x20,x20,4
  RVTEST_TESTDATA_LOAD_INT(x20, x7) # load rs2: x7 = 0xfffffffe
    2734:	000a2383          	lw	x7,0(x20)
    2738:	004a0a13          	addi	x20,x20,4

0000273c <I_sub_cg_cr_rs1_rs2_edges_rs1val_0xfffffffe_rs2val_0xfffffffe>:
I_sub_cg_cr_rs1_rs2_edges_rs1val_0xfffffffe_rs2val_0xfffffffe:
  sub x6, x27, x7 # perform operation
    273c:	407d8333          	sub	x6,x27,x7
  # Check if x6 contains the expected result. x9 is the signature ptr, x5 is the link ptr, x4 is a temp reg.
  RVTEST_SIGUPD(x9, x5, x4, x6, I_sub_cg_cr_rs1_rs2_edges_rs1val_0xfffffffe_rs2val_0xfffffffe, I_sub_cg_cr_rs1_rs2_edges_rs1val_0xfffffffe_rs2val_0xfffffffe_str)
    2740:	0004a203          	lw	x4,0(x9)
    2744:	00620863          	beq	x4,x6,2754 <I_sub_cg_cr_rs1_rs2_edges_rs1val_0xfffffffe_rs2val_0xfffffffe+0x18>
    2748:	595012ef          	jal	x5,44dc <failedtest_x5_x4>
    274c:	0000273c          	.word	0x0000273c
    2750:	0000c773          	.word	0x0000c773
    2754:	00448493          	addi	x9,x9,4

# Testcase cr_rs1_rs2_edges (Test source rs1 = 0xfffffffe rs2 = 0x5bbc8872)
  RVTEST_TESTDATA_LOAD_INT(x20, x14) # load rs1: x14 = 0xfffffffe
    2758:	000a2703          	lw	x14,0(x20)
    275c:	004a0a13          	addi	x20,x20,4
  RVTEST_TESTDATA_LOAD_INT(x20, x2) # load rs2: x2 = 0x5bbc8872
    2760:	000a2103          	lw	x2,0(x20)
    2764:	004a0a13          	addi	x20,x20,4

00002768 <I_sub_cg_cr_rs1_rs2_edges_rs1val_0xfffffffe_rs2val_0x5bbc8872>:
I_sub_cg_cr_rs1_rs2_edges_rs1val_0xfffffffe_rs2val_0x5bbc8872:
  sub x26, x14, x2 # perform operation
    2768:	40270d33          	sub	x26,x14,x2
  # Check if x26 contains the expected result. x9 is the signature ptr, x5 is the link ptr, x4 is a temp reg.
  RVTEST_SIGUPD(x9, x5, x4, x26, I_sub_cg_cr_rs1_rs2_edges_rs1val_0xfffffffe_rs2val_0x5bbc8872, I_sub_cg_cr_rs1_rs2_edges_rs1val_0xfffffffe_rs2val_0x5bbc8872_str)
    276c:	0004a203          	lw	x4,0(x9)
    2770:	01a20863          	beq	x4,x26,2780 <I_sub_cg_cr_rs1_rs2_edges_rs1val_0xfffffffe_rs2val_0x5bbc8872+0x18>
    2774:	569012ef          	jal	x5,44dc <failedtest_x5_x4>
    2778:	00002768          	.word	0x00002768
    277c:	0000c7ce          	.word	0x0000c7ce
    2780:	00448493          	addi	x9,x9,4

# Testcase cr_rs1_rs2_edges (Test source rs1 = 0xfffffffe rs2 = 0xaaaaaaaa)
  RVTEST_TESTDATA_LOAD_INT(x20, x27) # load rs1: x27 = 0xfffffffe
    2784:	000a2d83          	lw	x27,0(x20)
    2788:	004a0a13          	addi	x20,x20,4
  RVTEST_TESTDATA_LOAD_INT(x20, x13) # load rs2: x13 = 0xaaaaaaaa
    278c:	000a2683          	lw	x13,0(x20)
    2790:	004a0a13          	addi	x20,x20,4

00002794 <I_sub_cg_cr_rs1_rs2_edges_rs1val_0xfffffffe_rs2val_0xaaaaaaaa>:
I_sub_cg_cr_rs1_rs2_edges_rs1val_0xfffffffe_rs2val_0xaaaaaaaa:
  sub x26, x27, x13 # perform operation
    2794:	40dd8d33          	sub	x26,x27,x13
  # Check if x26 contains the expected result. x9 is the signature ptr, x5 is the link ptr, x4 is a temp reg.
  RVTEST_SIGUPD(x9, x5, x4, x26, I_sub_cg_cr_rs1_rs2_edges_rs1val_0xfffffffe_rs2val_0xaaaaaaaa, I_sub_cg_cr_rs1_rs2_edges_rs1val_0xfffffffe_rs2val_0xaaaaaaaa_str)
    2798:	0004a203          	lw	x4,0(x9)
    279c:	01a20863          	beq	x4,x26,27ac <I_sub_cg_cr_rs1_rs2_edges_rs1val_0xfffffffe_rs2val_0xaaaaaaaa+0x18>
    27a0:	53d012ef          	jal	x5,44dc <failedtest_x5_x4>
    27a4:	00002794          	.word	0x00002794
    27a8:	0000c829          	.word	0x0000c829
    27ac:	00448493          	addi	x9,x9,4

# Testcase cr_rs1_rs2_edges (Test source rs1 = 0xfffffffe rs2 = 0x55555555)
  RVTEST_TESTDATA_LOAD_INT(x20, x22) # load rs1: x22 = 0xfffffffe
    27b0:	000a2b03          	lw	x22,0(x20)
    27b4:	004a0a13          	addi	x20,x20,4
  RVTEST_TESTDATA_LOAD_INT(x20, x28) # load rs2: x28 = 0x55555555
    27b8:	000a2e03          	lw	x28,0(x20)
    27bc:	004a0a13          	addi	x20,x20,4

000027c0 <I_sub_cg_cr_rs1_rs2_edges_rs1val_0xfffffffe_rs2val_0x55555555>:
I_sub_cg_cr_rs1_rs2_edges_rs1val_0xfffffffe_rs2val_0x55555555:
  sub x15, x22, x28 # perform operation
    27c0:	41cb07b3          	sub	x15,x22,x28
  # Check if x15 contains the expected result. x9 is the signature ptr, x5 is the link ptr, x4 is a temp reg.
  RVTEST_SIGUPD(x9, x5, x4, x15, I_sub_cg_cr_rs1_rs2_edges_rs1val_0xfffffffe_rs2val_0x55555555, I_sub_cg_cr_rs1_rs2_edges_rs1val_0xfffffffe_rs2val_0x55555555_str)
    27c4:	0004a203          	lw	x4,0(x9)
    27c8:	00f20863          	beq	x4,x15,27d8 <I_sub_cg_cr_rs1_rs2_edges_rs1val_0xfffffffe_rs2val_0x55555555+0x18>
    27cc:	511012ef          	jal	x5,44dc <failedtest_x5_x4>
    27d0:	000027c0          	.word	0x000027c0
    27d4:	0000c884          	.word	0x0000c884
    27d8:	00448493          	addi	x9,x9,4

# Testcase cr_rs1_rs2_edges (Test source rs1 = 0x5bbc8872 rs2 = 0x00000000)
  RVTEST_TESTDATA_LOAD_INT(x20, x22) # load rs1: x22 = 0x5bbc8872
    27dc:	000a2b03          	lw	x22,0(x20)
    27e0:	004a0a13          	addi	x20,x20,4
  RVTEST_TESTDATA_LOAD_INT(x20, x16) # load rs2: x16 = 0x00000000
    27e4:	000a2803          	lw	x16,0(x20)
    27e8:	004a0a13          	addi	x20,x20,4

000027ec <I_sub_cg_cr_rs1_rs2_edges_rs1val_0x5bbc8872_rs2val_0x0>:
I_sub_cg_cr_rs1_rs2_edges_rs1val_0x5bbc8872_rs2val_0x0:
  sub x29, x22, x16 # perform operation
    27ec:	410b0eb3          	sub	x29,x22,x16
  # Check if x29 contains the expected result. x9 is the signature ptr, x5 is the link ptr, x4 is a temp reg.
  RVTEST_SIGUPD(x9, x5, x4, x29, I_sub_cg_cr_rs1_rs2_edges_rs1val_0x5bbc8872_rs2val_0x0, I_sub_cg_cr_rs1_rs2_edges_rs1val_0x5bbc8872_rs2val_0x0_str)
    27f0:	0004a203          	lw	x4,0(x9)
    27f4:	01d20863          	beq	x4,x29,2804 <I_sub_cg_cr_rs1_rs2_edges_rs1val_0x5bbc8872_rs2val_0x0+0x18>
    27f8:	4e5012ef          	jal	x5,44dc <failedtest_x5_x4>
    27fc:	000027ec          	.word	0x000027ec
    2800:	0000c8df          	.word	0x0000c8df
    2804:	00448493          	addi	x9,x9,4

# Testcase cr_rs1_rs2_edges (Test source rs1 = 0x5bbc8872 rs2 = 0x00000001)
  RVTEST_TESTDATA_LOAD_INT(x20, x26) # load rs1: x26 = 0x5bbc8872
    2808:	000a2d03          	lw	x26,0(x20)
    280c:	004a0a13          	addi	x20,x20,4
  RVTEST_TESTDATA_LOAD_INT(x20, x3) # load rs2: x3 = 0x00000001
    2810:	000a2183          	lw	x3,0(x20)
    2814:	004a0a13          	addi	x20,x20,4

00002818 <I_sub_cg_cr_rs1_rs2_edges_rs1val_0x5bbc8872_rs2val_0x1>:
I_sub_cg_cr_rs1_rs2_edges_rs1val_0x5bbc8872_rs2val_0x1:
  sub x10, x26, x3 # perform operation
    2818:	403d0533          	sub	x10,x26,x3
  # Check if x10 contains the expected result. x9 is the signature ptr, x5 is the link ptr, x4 is a temp reg.
  RVTEST_SIGUPD(x9, x5, x4, x10, I_sub_cg_cr_rs1_rs2_edges_rs1val_0x5bbc8872_rs2val_0x1, I_sub_cg_cr_rs1_rs2_edges_rs1val_0x5bbc8872_rs2val_0x1_str)
    281c:	0004a203          	lw	x4,0(x9)
    2820:	00a20863          	beq	x4,x10,2830 <I_sub_cg_cr_rs1_rs2_edges_rs1val_0x5bbc8872_rs2val_0x1+0x18>
    2824:	4b9012ef          	jal	x5,44dc <failedtest_x5_x4>
    2828:	00002818          	.word	0x00002818
    282c:	0000c933          	.word	0x0000c933
    2830:	00448493          	addi	x9,x9,4

# Testcase cr_rs1_rs2_edges (Test source rs1 = 0x5bbc8872 rs2 = 0x00000002)
  RVTEST_TESTDATA_LOAD_INT(x20, x21) # load rs1: x21 = 0x5bbc8872
    2834:	000a2a83          	lw	x21,0(x20)
    2838:	004a0a13          	addi	x20,x20,4
  RVTEST_TESTDATA_LOAD_INT(x20, x15) # load rs2: x15 = 0x00000002
    283c:	000a2783          	lw	x15,0(x20)
    2840:	004a0a13          	addi	x20,x20,4

00002844 <I_sub_cg_cr_rs1_rs2_edges_rs1val_0x5bbc8872_rs2val_0x2>:
I_sub_cg_cr_rs1_rs2_edges_rs1val_0x5bbc8872_rs2val_0x2:
  sub x14, x21, x15 # perform operation
    2844:	40fa8733          	sub	x14,x21,x15
  # Check if x14 contains the expected result. x9 is the signature ptr, x5 is the link ptr, x4 is a temp reg.
  RVTEST_SIGUPD(x9, x5, x4, x14, I_sub_cg_cr_rs1_rs2_edges_rs1val_0x5bbc8872_rs2val_0x2, I_sub_cg_cr_rs1_rs2_edges_rs1val_0x5bbc8872_rs2val_0x2_str)
    2848:	0004a203          	lw	x4,0(x9)
    284c:	00e20863          	beq	x4,x14,285c <I_sub_cg_cr_rs1_rs2_edges_rs1val_0x5bbc8872_rs2val_0x2+0x18>
    2850:	48d012ef          	jal	x5,44dc <failedtest_x5_x4>
    2854:	00002844          	.word	0x00002844
    2858:	0000c987          	.word	0x0000c987
    285c:	00448493          	addi	x9,x9,4

# Testcase cr_rs1_rs2_edges (Test source rs1 = 0x5bbc8872 rs2 = 0x80000000)
  RVTEST_TESTDATA_LOAD_INT(x20, x8) # load rs1: x8 = 0x5bbc8872
    2860:	000a2403          	lw	x8,0(x20)
    2864:	004a0a13          	addi	x20,x20,4
  RVTEST_TESTDATA_LOAD_INT(x20, x27) # load rs2: x27 = 0x80000000
    2868:	000a2d83          	lw	x27,0(x20)
    286c:	004a0a13          	addi	x20,x20,4

00002870 <I_sub_cg_cr_rs1_rs2_edges_rs1val_0x5bbc8872_rs2val_0x80000000>:
I_sub_cg_cr_rs1_rs2_edges_rs1val_0x5bbc8872_rs2val_0x80000000:
  sub x18, x8, x27 # perform operation
    2870:	41b40933          	sub	x18,x8,x27
  # Check if x18 contains the expected result. x9 is the signature ptr, x5 is the link ptr, x4 is a temp reg.
  RVTEST_SIGUPD(x9, x5, x4, x18, I_sub_cg_cr_rs1_rs2_edges_rs1val_0x5bbc8872_rs2val_0x80000000, I_sub_cg_cr_rs1_rs2_edges_rs1val_0x5bbc8872_rs2val_0x80000000_str)
    2874:	0004a203          	lw	x4,0(x9)
    2878:	01220863          	beq	x4,x18,2888 <I_sub_cg_cr_rs1_rs2_edges_rs1val_0x5bbc8872_rs2val_0x80000000+0x18>
    287c:	461012ef          	jal	x5,44dc <failedtest_x5_x4>
    2880:	00002870          	.word	0x00002870
    2884:	0000c9db          	.word	0x0000c9db
    2888:	00448493          	addi	x9,x9,4

# Testcase cr_rs1_rs2_edges (Test source rs1 = 0x5bbc8872 rs2 = 0x80000001)
  RVTEST_TESTDATA_LOAD_INT(x20, x13) # load rs1: x13 = 0x5bbc8872
    288c:	000a2683          	lw	x13,0(x20)
    2890:	004a0a13          	addi	x20,x20,4
  RVTEST_TESTDATA_LOAD_INT(x20, x12) # load rs2: x12 = 0x80000001
    2894:	000a2603          	lw	x12,0(x20)
    2898:	004a0a13          	addi	x20,x20,4

0000289c <I_sub_cg_cr_rs1_rs2_edges_rs1val_0x5bbc8872_rs2val_0x80000001>:
I_sub_cg_cr_rs1_rs2_edges_rs1val_0x5bbc8872_rs2val_0x80000001:
  sub x29, x13, x12 # perform operation
    289c:	40c68eb3          	sub	x29,x13,x12
  # Check if x29 contains the expected result. x9 is the signature ptr, x5 is the link ptr, x4 is a temp reg.
  RVTEST_SIGUPD(x9, x5, x4, x29, I_sub_cg_cr_rs1_rs2_edges_rs1val_0x5bbc8872_rs2val_0x80000001, I_sub_cg_cr_rs1_rs2_edges_rs1val_0x5bbc8872_rs2val_0x80000001_str)
    28a0:	0004a203          	lw	x4,0(x9)
    28a4:	01d20863          	beq	x4,x29,28b4 <I_sub_cg_cr_rs1_rs2_edges_rs1val_0x5bbc8872_rs2val_0x80000001+0x18>
    28a8:	435012ef          	jal	x5,44dc <failedtest_x5_x4>
    28ac:	0000289c          	.word	0x0000289c
    28b0:	0000ca36          	.word	0x0000ca36
    28b4:	00448493          	addi	x9,x9,4

# Testcase cr_rs1_rs2_edges (Test source rs1 = 0x5bbc8872 rs2 = 0x7fffffff)
  RVTEST_TESTDATA_LOAD_INT(x20, x16) # load rs1: x16 = 0x5bbc8872
    28b8:	000a2803          	lw	x16,0(x20)
    28bc:	004a0a13          	addi	x20,x20,4
  RVTEST_TESTDATA_LOAD_INT(x20, x27) # load rs2: x27 = 0x7fffffff
    28c0:	000a2d83          	lw	x27,0(x20)
    28c4:	004a0a13          	addi	x20,x20,4

000028c8 <I_sub_cg_cr_rs1_rs2_edges_rs1val_0x5bbc8872_rs2val_0x7fffffff>:
I_sub_cg_cr_rs1_rs2_edges_rs1val_0x5bbc8872_rs2val_0x7fffffff:
  sub x8, x16, x27 # perform operation
    28c8:	41b80433          	sub	x8,x16,x27
  # Check if x8 contains the expected result. x9 is the signature ptr, x5 is the link ptr, x4 is a temp reg.
  RVTEST_SIGUPD(x9, x5, x4, x8, I_sub_cg_cr_rs1_rs2_edges_rs1val_0x5bbc8872_rs2val_0x7fffffff, I_sub_cg_cr_rs1_rs2_edges_rs1val_0x5bbc8872_rs2val_0x7fffffff_str)
    28cc:	0004a203          	lw	x4,0(x9)
    28d0:	00820863          	beq	x4,x8,28e0 <I_sub_cg_cr_rs1_rs2_edges_rs1val_0x5bbc8872_rs2val_0x7fffffff+0x18>
    28d4:	409012ef          	jal	x5,44dc <failedtest_x5_x4>
    28d8:	000028c8          	.word	0x000028c8
    28dc:	0000ca91          	.word	0x0000ca91
    28e0:	00448493          	addi	x9,x9,4

# Testcase cr_rs1_rs2_edges (Test source rs1 = 0x5bbc8872 rs2 = 0x7ffffffe)
  RVTEST_TESTDATA_LOAD_INT(x20, x29) # load rs1: x29 = 0x5bbc8872
    28e4:	000a2e83          	lw	x29,0(x20)
    28e8:	004a0a13          	addi	x20,x20,4
  RVTEST_TESTDATA_LOAD_INT(x20, x8) # load rs2: x8 = 0x7ffffffe
    28ec:	000a2403          	lw	x8,0(x20)
    28f0:	004a0a13          	addi	x20,x20,4

000028f4 <I_sub_cg_cr_rs1_rs2_edges_rs1val_0x5bbc8872_rs2val_0x7ffffffe>:
I_sub_cg_cr_rs1_rs2_edges_rs1val_0x5bbc8872_rs2val_0x7ffffffe:
  sub x23, x29, x8 # perform operation
    28f4:	408e8bb3          	sub	x23,x29,x8
  # Check if x23 contains the expected result. x9 is the signature ptr, x5 is the link ptr, x4 is a temp reg.
  RVTEST_SIGUPD(x9, x5, x4, x23, I_sub_cg_cr_rs1_rs2_edges_rs1val_0x5bbc8872_rs2val_0x7ffffffe, I_sub_cg_cr_rs1_rs2_edges_rs1val_0x5bbc8872_rs2val_0x7ffffffe_str)
    28f8:	0004a203          	lw	x4,0(x9)
    28fc:	01720863          	beq	x4,x23,290c <I_sub_cg_cr_rs1_rs2_edges_rs1val_0x5bbc8872_rs2val_0x7ffffffe+0x18>
    2900:	3dd012ef          	jal	x5,44dc <failedtest_x5_x4>
    2904:	000028f4          	.word	0x000028f4
    2908:	0000caec          	.word	0x0000caec
    290c:	00448493          	addi	x9,x9,4

# Testcase cr_rs1_rs2_edges (Test source rs1 = 0x5bbc8872 rs2 = 0xffffffff)
  RVTEST_TESTDATA_LOAD_INT(x20, x26) # load rs1: x26 = 0x5bbc8872
    2910:	000a2d03          	lw	x26,0(x20)
    2914:	004a0a13          	addi	x20,x20,4
  RVTEST_TESTDATA_LOAD_INT(x20, x21) # load rs2: x21 = 0xffffffff
    2918:	000a2a83          	lw	x21,0(x20)
    291c:	004a0a13          	addi	x20,x20,4

00002920 <I_sub_cg_cr_rs1_rs2_edges_rs1val_0x5bbc8872_rs2val_0xffffffff>:
I_sub_cg_cr_rs1_rs2_edges_rs1val_0x5bbc8872_rs2val_0xffffffff:
  sub x1, x26, x21 # perform operation
    2920:	415d00b3          	sub	x1,x26,x21
  # Check if x1 contains the expected result. x9 is the signature ptr, x5 is the link ptr, x4 is a temp reg.
  RVTEST_SIGUPD(x9, x5, x4, x1, I_sub_cg_cr_rs1_rs2_edges_rs1val_0x5bbc8872_rs2val_0xffffffff, I_sub_cg_cr_rs1_rs2_edges_rs1val_0x5bbc8872_rs2val_0xffffffff_str)
    2924:	0004a203          	lw	x4,0(x9)
    2928:	00120863          	beq	x4,x1,2938 <I_sub_cg_cr_rs1_rs2_edges_rs1val_0x5bbc8872_rs2val_0xffffffff+0x18>
    292c:	3b1012ef          	jal	x5,44dc <failedtest_x5_x4>
    2930:	00002920          	.word	0x00002920
    2934:	0000cb47          	.word	0x0000cb47
    2938:	00448493          	addi	x9,x9,4

# Testcase cr_rs1_rs2_edges (Test source rs1 = 0x5bbc8872 rs2 = 0xfffffffe)
  RVTEST_TESTDATA_LOAD_INT(x20, x23) # load rs1: x23 = 0x5bbc8872
    293c:	000a2b83          	lw	x23,0(x20)
    2940:	004a0a13          	addi	x20,x20,4
  RVTEST_TESTDATA_LOAD_INT(x20, x26) # load rs2: x26 = 0xfffffffe
    2944:	000a2d03          	lw	x26,0(x20)
    2948:	004a0a13          	addi	x20,x20,4

0000294c <I_sub_cg_cr_rs1_rs2_edges_rs1val_0x5bbc8872_rs2val_0xfffffffe>:
I_sub_cg_cr_rs1_rs2_edges_rs1val_0x5bbc8872_rs2val_0xfffffffe:
  sub x31, x23, x26 # perform operation
    294c:	41ab8fb3          	sub	x31,x23,x26
  # Check if x31 contains the expected result. x9 is the signature ptr, x5 is the link ptr, x4 is a temp reg.
  RVTEST_SIGUPD(x9, x5, x4, x31, I_sub_cg_cr_rs1_rs2_edges_rs1val_0x5bbc8872_rs2val_0xfffffffe, I_sub_cg_cr_rs1_rs2_edges_rs1val_0x5bbc8872_rs2val_0xfffffffe_str)
    2950:	0004a203          	lw	x4,0(x9)
    2954:	01f20863          	beq	x4,x31,2964 <I_sub_cg_cr_rs1_rs2_edges_rs1val_0x5bbc8872_rs2val_0xfffffffe+0x18>
    2958:	385012ef          	jal	x5,44dc <failedtest_x5_x4>
    295c:	0000294c          	.word	0x0000294c
    2960:	0000cba2          	.word	0x0000cba2
    2964:	00448493          	addi	x9,x9,4

# Testcase cr_rs1_rs2_edges (Test source rs1 = 0x5bbc8872 rs2 = 0x5bbc8872)
  RVTEST_TESTDATA_LOAD_INT(x20, x19) # load rs1: x19 = 0x5bbc8872
    2968:	000a2983          	lw	x19,0(x20)
    296c:	004a0a13          	addi	x20,x20,4
  RVTEST_TESTDATA_LOAD_INT(x20, x2) # load rs2: x2 = 0x5bbc8872
    2970:	000a2103          	lw	x2,0(x20)
    2974:	004a0a13          	addi	x20,x20,4

00002978 <I_sub_cg_cr_rs1_rs2_edges_rs1val_0x5bbc8872_rs2val_0x5bbc8872>:
I_sub_cg_cr_rs1_rs2_edges_rs1val_0x5bbc8872_rs2val_0x5bbc8872:
  sub x17, x19, x2 # perform operation
    2978:	402988b3          	sub	x17,x19,x2
  # Check if x17 contains the expected result. x9 is the signature ptr, x5 is the link ptr, x4 is a temp reg.
  RVTEST_SIGUPD(x9, x5, x4, x17, I_sub_cg_cr_rs1_rs2_edges_rs1val_0x5bbc8872_rs2val_0x5bbc8872, I_sub_cg_cr_rs1_rs2_edges_rs1val_0x5bbc8872_rs2val_0x5bbc8872_str)
    297c:	0004a203          	lw	x4,0(x9)
    2980:	01120863          	beq	x4,x17,2990 <I_sub_cg_cr_rs1_rs2_edges_rs1val_0x5bbc8872_rs2val_0x5bbc8872+0x18>
    2984:	359012ef          	jal	x5,44dc <failedtest_x5_x4>
    2988:	00002978          	.word	0x00002978
    298c:	0000cbfd          	.word	0x0000cbfd
    2990:	00448493          	addi	x9,x9,4

# Testcase cr_rs1_rs2_edges (Test source rs1 = 0x5bbc8872 rs2 = 0xaaaaaaaa)
  RVTEST_TESTDATA_LOAD_INT(x20, x26) # load rs1: x26 = 0x5bbc8872
    2994:	000a2d03          	lw	x26,0(x20)
    2998:	004a0a13          	addi	x20,x20,4
  RVTEST_TESTDATA_LOAD_INT(x20, x27) # load rs2: x27 = 0xaaaaaaaa
    299c:	000a2d83          	lw	x27,0(x20)
    29a0:	004a0a13          	addi	x20,x20,4

000029a4 <I_sub_cg_cr_rs1_rs2_edges_rs1val_0x5bbc8872_rs2val_0xaaaaaaaa>:
I_sub_cg_cr_rs1_rs2_edges_rs1val_0x5bbc8872_rs2val_0xaaaaaaaa:
  sub x15, x26, x27 # perform operation
    29a4:	41bd07b3          	sub	x15,x26,x27
  # Check if x15 contains the expected result. x9 is the signature ptr, x5 is the link ptr, x4 is a temp reg.
  RVTEST_SIGUPD(x9, x5, x4, x15, I_sub_cg_cr_rs1_rs2_edges_rs1val_0x5bbc8872_rs2val_0xaaaaaaaa, I_sub_cg_cr_rs1_rs2_edges_rs1val_0x5bbc8872_rs2val_0xaaaaaaaa_str)
    29a8:	0004a203          	lw	x4,0(x9)
    29ac:	00f20863          	beq	x4,x15,29bc <I_sub_cg_cr_rs1_rs2_edges_rs1val_0x5bbc8872_rs2val_0xaaaaaaaa+0x18>
    29b0:	32d012ef          	jal	x5,44dc <failedtest_x5_x4>
    29b4:	000029a4          	.word	0x000029a4
    29b8:	0000cc58          	.word	0x0000cc58
    29bc:	00448493          	addi	x9,x9,4

# Testcase cr_rs1_rs2_edges (Test source rs1 = 0x5bbc8872 rs2 = 0x55555555)
  RVTEST_TESTDATA_LOAD_INT(x20, x2) # load rs1: x2 = 0x5bbc8872
    29c0:	000a2103          	lw	x2,0(x20)
    29c4:	004a0a13          	addi	x20,x20,4
  RVTEST_TESTDATA_LOAD_INT(x20, x11) # load rs2: x11 = 0x55555555
    29c8:	000a2583          	lw	x11,0(x20)
    29cc:	004a0a13          	addi	x20,x20,4

000029d0 <I_sub_cg_cr_rs1_rs2_edges_rs1val_0x5bbc8872_rs2val_0x55555555>:
I_sub_cg_cr_rs1_rs2_edges_rs1val_0x5bbc8872_rs2val_0x55555555:
  sub x25, x2, x11 # perform operation
    29d0:	40b10cb3          	sub	x25,x2,x11
  # Check if x25 contains the expected result. x9 is the signature ptr, x5 is the link ptr, x4 is a temp reg.
  RVTEST_SIGUPD(x9, x5, x4, x25, I_sub_cg_cr_rs1_rs2_edges_rs1val_0x5bbc8872_rs2val_0x55555555, I_sub_cg_cr_rs1_rs2_edges_rs1val_0x5bbc8872_rs2val_0x55555555_str)
    29d4:	0004a203          	lw	x4,0(x9)
    29d8:	01920863          	beq	x4,x25,29e8 <I_sub_cg_cr_rs1_rs2_edges_rs1val_0x5bbc8872_rs2val_0x55555555+0x18>
    29dc:	301012ef          	jal	x5,44dc <failedtest_x5_x4>
    29e0:	000029d0          	.word	0x000029d0
    29e4:	0000ccb3          	.word	0x0000ccb3
    29e8:	00448493          	addi	x9,x9,4

# Testcase cr_rs1_rs2_edges (Test source rs1 = 0xaaaaaaaa rs2 = 0x00000000)
  RVTEST_TESTDATA_LOAD_INT(x20, x29) # load rs1: x29 = 0xaaaaaaaa
    29ec:	000a2e83          	lw	x29,0(x20)
    29f0:	004a0a13          	addi	x20,x20,4
  RVTEST_TESTDATA_LOAD_INT(x20, x31) # load rs2: x31 = 0x00000000
    29f4:	000a2f83          	lw	x31,0(x20)
    29f8:	004a0a13          	addi	x20,x20,4

000029fc <I_sub_cg_cr_rs1_rs2_edges_rs1val_0xaaaaaaaa_rs2val_0x0>:
I_sub_cg_cr_rs1_rs2_edges_rs1val_0xaaaaaaaa_rs2val_0x0:
  sub x1, x29, x31 # perform operation
    29fc:	41fe80b3          	sub	x1,x29,x31
  # Check if x1 contains the expected result. x9 is the signature ptr, x5 is the link ptr, x4 is a temp reg.
  RVTEST_SIGUPD(x9, x5, x4, x1, I_sub_cg_cr_rs1_rs2_edges_rs1val_0xaaaaaaaa_rs2val_0x0, I_sub_cg_cr_rs1_rs2_edges_rs1val_0xaaaaaaaa_rs2val_0x0_str)
    2a00:	0004a203          	lw	x4,0(x9)
    2a04:	00120863          	beq	x4,x1,2a14 <I_sub_cg_cr_rs1_rs2_edges_rs1val_0xaaaaaaaa_rs2val_0x0+0x18>
    2a08:	2d5012ef          	jal	x5,44dc <failedtest_x5_x4>
    2a0c:	000029fc          	.word	0x000029fc
    2a10:	0000cd0e          	.word	0x0000cd0e
    2a14:	00448493          	addi	x9,x9,4

# Testcase cr_rs1_rs2_edges (Test source rs1 = 0xaaaaaaaa rs2 = 0x00000001)
  RVTEST_TESTDATA_LOAD_INT(x20, x21) # load rs1: x21 = 0xaaaaaaaa
    2a18:	000a2a83          	lw	x21,0(x20)
    2a1c:	004a0a13          	addi	x20,x20,4
  RVTEST_TESTDATA_LOAD_INT(x20, x8) # load rs2: x8 = 0x00000001
    2a20:	000a2403          	lw	x8,0(x20)
    2a24:	004a0a13          	addi	x20,x20,4

00002a28 <I_sub_cg_cr_rs1_rs2_edges_rs1val_0xaaaaaaaa_rs2val_0x1>:
I_sub_cg_cr_rs1_rs2_edges_rs1val_0xaaaaaaaa_rs2val_0x1:
  sub x7, x21, x8 # perform operation
    2a28:	408a83b3          	sub	x7,x21,x8
  # Check if x7 contains the expected result. x9 is the signature ptr, x5 is the link ptr, x4 is a temp reg.
  RVTEST_SIGUPD(x9, x5, x4, x7, I_sub_cg_cr_rs1_rs2_edges_rs1val_0xaaaaaaaa_rs2val_0x1, I_sub_cg_cr_rs1_rs2_edges_rs1val_0xaaaaaaaa_rs2val_0x1_str)
    2a2c:	0004a203          	lw	x4,0(x9)
    2a30:	00720863          	beq	x4,x7,2a40 <I_sub_cg_cr_rs1_rs2_edges_rs1val_0xaaaaaaaa_rs2val_0x1+0x18>
    2a34:	2a9012ef          	jal	x5,44dc <failedtest_x5_x4>
    2a38:	00002a28          	.word	0x00002a28
    2a3c:	0000cd62          	.word	0x0000cd62
    2a40:	00448493          	addi	x9,x9,4

# Testcase cr_rs1_rs2_edges (Test source rs1 = 0xaaaaaaaa rs2 = 0x00000002)
  RVTEST_TESTDATA_LOAD_INT(x20, x8) # load rs1: x8 = 0xaaaaaaaa
    2a44:	000a2403          	lw	x8,0(x20)
    2a48:	004a0a13          	addi	x20,x20,4
  RVTEST_TESTDATA_LOAD_INT(x20, x2) # load rs2: x2 = 0x00000002
    2a4c:	000a2103          	lw	x2,0(x20)
    2a50:	004a0a13          	addi	x20,x20,4

00002a54 <I_sub_cg_cr_rs1_rs2_edges_rs1val_0xaaaaaaaa_rs2val_0x2>:
I_sub_cg_cr_rs1_rs2_edges_rs1val_0xaaaaaaaa_rs2val_0x2:
  sub x6, x8, x2 # perform operation
    2a54:	40240333          	sub	x6,x8,x2
  # Check if x6 contains the expected result. x9 is the signature ptr, x5 is the link ptr, x4 is a temp reg.
  RVTEST_SIGUPD(x9, x5, x4, x6, I_sub_cg_cr_rs1_rs2_edges_rs1val_0xaaaaaaaa_rs2val_0x2, I_sub_cg_cr_rs1_rs2_edges_rs1val_0xaaaaaaaa_rs2val_0x2_str)
    2a58:	0004a203          	lw	x4,0(x9)
    2a5c:	00620863          	beq	x4,x6,2a6c <I_sub_cg_cr_rs1_rs2_edges_rs1val_0xaaaaaaaa_rs2val_0x2+0x18>
    2a60:	27d012ef          	jal	x5,44dc <failedtest_x5_x4>
    2a64:	00002a54          	.word	0x00002a54
    2a68:	0000cdb6          	.word	0x0000cdb6
    2a6c:	00448493          	addi	x9,x9,4

# Testcase cr_rs1_rs2_edges (Test source rs1 = 0xaaaaaaaa rs2 = 0x80000000)
  RVTEST_TESTDATA_LOAD_INT(x20, x22) # load rs1: x22 = 0xaaaaaaaa
    2a70:	000a2b03          	lw	x22,0(x20)
    2a74:	004a0a13          	addi	x20,x20,4
  RVTEST_TESTDATA_LOAD_INT(x20, x7) # load rs2: x7 = 0x80000000
    2a78:	000a2383          	lw	x7,0(x20)
    2a7c:	004a0a13          	addi	x20,x20,4

00002a80 <I_sub_cg_cr_rs1_rs2_edges_rs1val_0xaaaaaaaa_rs2val_0x80000000>:
I_sub_cg_cr_rs1_rs2_edges_rs1val_0xaaaaaaaa_rs2val_0x80000000:
  sub x27, x22, x7 # perform operation
    2a80:	407b0db3          	sub	x27,x22,x7
  # Check if x27 contains the expected result. x9 is the signature ptr, x5 is the link ptr, x4 is a temp reg.
  RVTEST_SIGUPD(x9, x5, x4, x27, I_sub_cg_cr_rs1_rs2_edges_rs1val_0xaaaaaaaa_rs2val_0x80000000, I_sub_cg_cr_rs1_rs2_edges_rs1val_0xaaaaaaaa_rs2val_0x80000000_str)
    2a84:	0004a203          	lw	x4,0(x9)
    2a88:	01b20863          	beq	x4,x27,2a98 <I_sub_cg_cr_rs1_rs2_edges_rs1val_0xaaaaaaaa_rs2val_0x80000000+0x18>
    2a8c:	251012ef          	jal	x5,44dc <failedtest_x5_x4>
    2a90:	00002a80          	.word	0x00002a80
    2a94:	0000ce0a          	.word	0x0000ce0a
    2a98:	00448493          	addi	x9,x9,4

# Testcase cr_rs1_rs2_edges (Test source rs1 = 0xaaaaaaaa rs2 = 0x80000001)
  RVTEST_TESTDATA_LOAD_INT(x20, x2) # load rs1: x2 = 0xaaaaaaaa
    2a9c:	000a2103          	lw	x2,0(x20)
    2aa0:	004a0a13          	addi	x20,x20,4
  RVTEST_TESTDATA_LOAD_INT(x20, x19) # load rs2: x19 = 0x80000001
    2aa4:	000a2983          	lw	x19,0(x20)
    2aa8:	004a0a13          	addi	x20,x20,4

00002aac <I_sub_cg_cr_rs1_rs2_edges_rs1val_0xaaaaaaaa_rs2val_0x80000001>:
I_sub_cg_cr_rs1_rs2_edges_rs1val_0xaaaaaaaa_rs2val_0x80000001:
  sub x1, x2, x19 # perform operation
    2aac:	413100b3          	sub	x1,x2,x19
  # Check if x1 contains the expected result. x9 is the signature ptr, x5 is the link ptr, x4 is a temp reg.
  RVTEST_SIGUPD(x9, x5, x4, x1, I_sub_cg_cr_rs1_rs2_edges_rs1val_0xaaaaaaaa_rs2val_0x80000001, I_sub_cg_cr_rs1_rs2_edges_rs1val_0xaaaaaaaa_rs2val_0x80000001_str)
    2ab0:	0004a203          	lw	x4,0(x9)
    2ab4:	00120863          	beq	x4,x1,2ac4 <I_sub_cg_cr_rs1_rs2_edges_rs1val_0xaaaaaaaa_rs2val_0x80000001+0x18>
    2ab8:	225012ef          	jal	x5,44dc <failedtest_x5_x4>
    2abc:	00002aac          	.word	0x00002aac
    2ac0:	0000ce65          	.word	0x0000ce65
    2ac4:	00448493          	addi	x9,x9,4

# Testcase cr_rs1_rs2_edges (Test source rs1 = 0xaaaaaaaa rs2 = 0x7fffffff)
  RVTEST_TESTDATA_LOAD_INT(x20, x11) # load rs1: x11 = 0xaaaaaaaa
    2ac8:	000a2583          	lw	x11,0(x20)
    2acc:	004a0a13          	addi	x20,x20,4
  RVTEST_TESTDATA_LOAD_INT(x20, x21) # load rs2: x21 = 0x7fffffff
    2ad0:	000a2a83          	lw	x21,0(x20)
    2ad4:	004a0a13          	addi	x20,x20,4

00002ad8 <I_sub_cg_cr_rs1_rs2_edges_rs1val_0xaaaaaaaa_rs2val_0x7fffffff>:
I_sub_cg_cr_rs1_rs2_edges_rs1val_0xaaaaaaaa_rs2val_0x7fffffff:
  sub x8, x11, x21 # perform operation
    2ad8:	41558433          	sub	x8,x11,x21
  # Check if x8 contains the expected result. x9 is the signature ptr, x5 is the link ptr, x4 is a temp reg.
  RVTEST_SIGUPD(x9, x5, x4, x8, I_sub_cg_cr_rs1_rs2_edges_rs1val_0xaaaaaaaa_rs2val_0x7fffffff, I_sub_cg_cr_rs1_rs2_edges_rs1val_0xaaaaaaaa_rs2val_0x7fffffff_str)
    2adc:	0004a203          	lw	x4,0(x9)
    2ae0:	00820863          	beq	x4,x8,2af0 <I_sub_cg_cr_rs1_rs2_edges_rs1val_0xaaaaaaaa_rs2val_0x7fffffff+0x18>
    2ae4:	1f9012ef          	jal	x5,44dc <failedtest_x5_x4>
    2ae8:	00002ad8          	.word	0x00002ad8
    2aec:	0000cec0          	.word	0x0000cec0
    2af0:	00448493          	addi	x9,x9,4

# Testcase cr_rs1_rs2_edges (Test source rs1 = 0xaaaaaaaa rs2 = 0x7ffffffe)
  RVTEST_TESTDATA_LOAD_INT(x20, x2) # load rs1: x2 = 0xaaaaaaaa
    2af4:	000a2103          	lw	x2,0(x20)
    2af8:	004a0a13          	addi	x20,x20,4
  RVTEST_TESTDATA_LOAD_INT(x20, x23) # load rs2: x23 = 0x7ffffffe
    2afc:	000a2b83          	lw	x23,0(x20)
    2b00:	004a0a13          	addi	x20,x20,4

00002b04 <I_sub_cg_cr_rs1_rs2_edges_rs1val_0xaaaaaaaa_rs2val_0x7ffffffe>:
I_sub_cg_cr_rs1_rs2_edges_rs1val_0xaaaaaaaa_rs2val_0x7ffffffe:
  sub x13, x2, x23 # perform operation
    2b04:	417106b3          	sub	x13,x2,x23
  # Check if x13 contains the expected result. x9 is the signature ptr, x5 is the link ptr, x4 is a temp reg.
  RVTEST_SIGUPD(x9, x5, x4, x13, I_sub_cg_cr_rs1_rs2_edges_rs1val_0xaaaaaaaa_rs2val_0x7ffffffe, I_sub_cg_cr_rs1_rs2_edges_rs1val_0xaaaaaaaa_rs2val_0x7ffffffe_str)
    2b08:	0004a203          	lw	x4,0(x9)
    2b0c:	00d20863          	beq	x4,x13,2b1c <I_sub_cg_cr_rs1_rs2_edges_rs1val_0xaaaaaaaa_rs2val_0x7ffffffe+0x18>
    2b10:	1cd012ef          	jal	x5,44dc <failedtest_x5_x4>
    2b14:	00002b04          	.word	0x00002b04
    2b18:	0000cf1b          	.word	0x0000cf1b
    2b1c:	00448493          	addi	x9,x9,4

# Testcase cr_rs1_rs2_edges (Test source rs1 = 0xaaaaaaaa rs2 = 0xffffffff)
  RVTEST_TESTDATA_LOAD_INT(x20, x16) # load rs1: x16 = 0xaaaaaaaa
    2b20:	000a2803          	lw	x16,0(x20)
    2b24:	004a0a13          	addi	x20,x20,4
  RVTEST_TESTDATA_LOAD_INT(x20, x17) # load rs2: x17 = 0xffffffff
    2b28:	000a2883          	lw	x17,0(x20)
    2b2c:	004a0a13          	addi	x20,x20,4

00002b30 <I_sub_cg_cr_rs1_rs2_edges_rs1val_0xaaaaaaaa_rs2val_0xffffffff>:
I_sub_cg_cr_rs1_rs2_edges_rs1val_0xaaaaaaaa_rs2val_0xffffffff:
  sub x6, x16, x17 # perform operation
    2b30:	41180333          	sub	x6,x16,x17
  # Check if x6 contains the expected result. x9 is the signature ptr, x5 is the link ptr, x4 is a temp reg.
  RVTEST_SIGUPD(x9, x5, x4, x6, I_sub_cg_cr_rs1_rs2_edges_rs1val_0xaaaaaaaa_rs2val_0xffffffff, I_sub_cg_cr_rs1_rs2_edges_rs1val_0xaaaaaaaa_rs2val_0xffffffff_str)
    2b34:	0004a203          	lw	x4,0(x9)
    2b38:	00620863          	beq	x4,x6,2b48 <I_sub_cg_cr_rs1_rs2_edges_rs1val_0xaaaaaaaa_rs2val_0xffffffff+0x18>
    2b3c:	1a1012ef          	jal	x5,44dc <failedtest_x5_x4>
    2b40:	00002b30          	.word	0x00002b30
    2b44:	0000cf76          	.word	0x0000cf76
    2b48:	00448493          	addi	x9,x9,4

# Testcase cr_rs1_rs2_edges (Test source rs1 = 0xaaaaaaaa rs2 = 0xfffffffe)
  RVTEST_TESTDATA_LOAD_INT(x20, x15) # load rs1: x15 = 0xaaaaaaaa
    2b4c:	000a2783          	lw	x15,0(x20)
    2b50:	004a0a13          	addi	x20,x20,4
  RVTEST_TESTDATA_LOAD_INT(x20, x12) # load rs2: x12 = 0xfffffffe
    2b54:	000a2603          	lw	x12,0(x20)
    2b58:	004a0a13          	addi	x20,x20,4

00002b5c <I_sub_cg_cr_rs1_rs2_edges_rs1val_0xaaaaaaaa_rs2val_0xfffffffe>:
I_sub_cg_cr_rs1_rs2_edges_rs1val_0xaaaaaaaa_rs2val_0xfffffffe:
  sub x26, x15, x12 # perform operation
    2b5c:	40c78d33          	sub	x26,x15,x12
  # Check if x26 contains the expected result. x9 is the signature ptr, x5 is the link ptr, x4 is a temp reg.
  RVTEST_SIGUPD(x9, x5, x4, x26, I_sub_cg_cr_rs1_rs2_edges_rs1val_0xaaaaaaaa_rs2val_0xfffffffe, I_sub_cg_cr_rs1_rs2_edges_rs1val_0xaaaaaaaa_rs2val_0xfffffffe_str)
    2b60:	0004a203          	lw	x4,0(x9)
    2b64:	01a20863          	beq	x4,x26,2b74 <I_sub_cg_cr_rs1_rs2_edges_rs1val_0xaaaaaaaa_rs2val_0xfffffffe+0x18>
    2b68:	175012ef          	jal	x5,44dc <failedtest_x5_x4>
    2b6c:	00002b5c          	.word	0x00002b5c
    2b70:	0000cfd1          	.word	0x0000cfd1
    2b74:	00448493          	addi	x9,x9,4

# Testcase cr_rs1_rs2_edges (Test source rs1 = 0xaaaaaaaa rs2 = 0x5bbc8872)
  RVTEST_TESTDATA_LOAD_INT(x20, x13) # load rs1: x13 = 0xaaaaaaaa
    2b78:	000a2683          	lw	x13,0(x20)
    2b7c:	004a0a13          	addi	x20,x20,4
  RVTEST_TESTDATA_LOAD_INT(x20, x26) # load rs2: x26 = 0x5bbc8872
    2b80:	000a2d03          	lw	x26,0(x20)
    2b84:	004a0a13          	addi	x20,x20,4

00002b88 <I_sub_cg_cr_rs1_rs2_edges_rs1val_0xaaaaaaaa_rs2val_0x5bbc8872>:
I_sub_cg_cr_rs1_rs2_edges_rs1val_0xaaaaaaaa_rs2val_0x5bbc8872:
  sub x7, x13, x26 # perform operation
    2b88:	41a683b3          	sub	x7,x13,x26
  # Check if x7 contains the expected result. x9 is the signature ptr, x5 is the link ptr, x4 is a temp reg.
  RVTEST_SIGUPD(x9, x5, x4, x7, I_sub_cg_cr_rs1_rs2_edges_rs1val_0xaaaaaaaa_rs2val_0x5bbc8872, I_sub_cg_cr_rs1_rs2_edges_rs1val_0xaaaaaaaa_rs2val_0x5bbc8872_str)
    2b8c:	0004a203          	lw	x4,0(x9)
    2b90:	00720863          	beq	x4,x7,2ba0 <I_sub_cg_cr_rs1_rs2_edges_rs1val_0xaaaaaaaa_rs2val_0x5bbc8872+0x18>
    2b94:	149012ef          	jal	x5,44dc <failedtest_x5_x4>
    2b98:	00002b88          	.word	0x00002b88
    2b9c:	0000d02c          	.word	0x0000d02c
    2ba0:	00448493          	addi	x9,x9,4

# Testcase cr_rs1_rs2_edges (Test source rs1 = 0xaaaaaaaa rs2 = 0xaaaaaaaa)
  RVTEST_TESTDATA_LOAD_INT(x20, x24) # load rs1: x24 = 0xaaaaaaaa
    2ba4:	000a2c03          	lw	x24,0(x20)
    2ba8:	004a0a13          	addi	x20,x20,4
  RVTEST_TESTDATA_LOAD_INT(x20, x7) # load rs2: x7 = 0xaaaaaaaa
    2bac:	000a2383          	lw	x7,0(x20)
    2bb0:	004a0a13          	addi	x20,x20,4

00002bb4 <I_sub_cg_cr_rs1_rs2_edges_rs1val_0xaaaaaaaa_rs2val_0xaaaaaaaa>:
I_sub_cg_cr_rs1_rs2_edges_rs1val_0xaaaaaaaa_rs2val_0xaaaaaaaa:
  sub x12, x24, x7 # perform operation
    2bb4:	407c0633          	sub	x12,x24,x7
  # Check if x12 contains the expected result. x9 is the signature ptr, x5 is the link ptr, x4 is a temp reg.
  RVTEST_SIGUPD(x9, x5, x4, x12, I_sub_cg_cr_rs1_rs2_edges_rs1val_0xaaaaaaaa_rs2val_0xaaaaaaaa, I_sub_cg_cr_rs1_rs2_edges_rs1val_0xaaaaaaaa_rs2val_0xaaaaaaaa_str)
    2bb8:	0004a203          	lw	x4,0(x9)
    2bbc:	00c20863          	beq	x4,x12,2bcc <I_sub_cg_cr_rs1_rs2_edges_rs1val_0xaaaaaaaa_rs2val_0xaaaaaaaa+0x18>
    2bc0:	11d012ef          	jal	x5,44dc <failedtest_x5_x4>
    2bc4:	00002bb4          	.word	0x00002bb4
    2bc8:	0000d087          	.word	0x0000d087
    2bcc:	00448493          	addi	x9,x9,4

# Testcase cr_rs1_rs2_edges (Test source rs1 = 0xaaaaaaaa rs2 = 0x55555555)
  RVTEST_TESTDATA_LOAD_INT(x20, x18) # load rs1: x18 = 0xaaaaaaaa
    2bd0:	000a2903          	lw	x18,0(x20)
    2bd4:	004a0a13          	addi	x20,x20,4
  RVTEST_TESTDATA_LOAD_INT(x20, x8) # load rs2: x8 = 0x55555555
    2bd8:	000a2403          	lw	x8,0(x20)
    2bdc:	004a0a13          	addi	x20,x20,4

00002be0 <I_sub_cg_cr_rs1_rs2_edges_rs1val_0xaaaaaaaa_rs2val_0x55555555>:
I_sub_cg_cr_rs1_rs2_edges_rs1val_0xaaaaaaaa_rs2val_0x55555555:
  sub x24, x18, x8 # perform operation
    2be0:	40890c33          	sub	x24,x18,x8
  # Check if x24 contains the expected result. x9 is the signature ptr, x5 is the link ptr, x4 is a temp reg.
  RVTEST_SIGUPD(x9, x5, x4, x24, I_sub_cg_cr_rs1_rs2_edges_rs1val_0xaaaaaaaa_rs2val_0x55555555, I_sub_cg_cr_rs1_rs2_edges_rs1val_0xaaaaaaaa_rs2val_0x55555555_str)
    2be4:	0004a203          	lw	x4,0(x9)
    2be8:	01820863          	beq	x4,x24,2bf8 <I_sub_cg_cr_rs1_rs2_edges_rs1val_0xaaaaaaaa_rs2val_0x55555555+0x18>
    2bec:	0f1012ef          	jal	x5,44dc <failedtest_x5_x4>
    2bf0:	00002be0          	.word	0x00002be0
    2bf4:	0000d0e2          	.word	0x0000d0e2
    2bf8:	00448493          	addi	x9,x9,4

# Testcase cr_rs1_rs2_edges (Test source rs1 = 0x55555555 rs2 = 0x00000000)
  RVTEST_TESTDATA_LOAD_INT(x20, x21) # load rs1: x21 = 0x55555555
    2bfc:	000a2a83          	lw	x21,0(x20)
    2c00:	004a0a13          	addi	x20,x20,4
  RVTEST_TESTDATA_LOAD_INT(x20, x15) # load rs2: x15 = 0x00000000
    2c04:	000a2783          	lw	x15,0(x20)
    2c08:	004a0a13          	addi	x20,x20,4

00002c0c <I_sub_cg_cr_rs1_rs2_edges_rs1val_0x55555555_rs2val_0x0>:
I_sub_cg_cr_rs1_rs2_edges_rs1val_0x55555555_rs2val_0x0:
  sub x13, x21, x15 # perform operation
    2c0c:	40fa86b3          	sub	x13,x21,x15
  # Check if x13 contains the expected result. x9 is the signature ptr, x5 is the link ptr, x4 is a temp reg.
  RVTEST_SIGUPD(x9, x5, x4, x13, I_sub_cg_cr_rs1_rs2_edges_rs1val_0x55555555_rs2val_0x0, I_sub_cg_cr_rs1_rs2_edges_rs1val_0x55555555_rs2val_0x0_str)
    2c10:	0004a203          	lw	x4,0(x9)
    2c14:	00d20863          	beq	x4,x13,2c24 <I_sub_cg_cr_rs1_rs2_edges_rs1val_0x55555555_rs2val_0x0+0x18>
    2c18:	0c5012ef          	jal	x5,44dc <failedtest_x5_x4>
    2c1c:	00002c0c          	.word	0x00002c0c
    2c20:	0000d13d          	.word	0x0000d13d
    2c24:	00448493          	addi	x9,x9,4

# Testcase cr_rs1_rs2_edges (Test source rs1 = 0x55555555 rs2 = 0x00000001)
  RVTEST_TESTDATA_LOAD_INT(x20, x2) # load rs1: x2 = 0x55555555
    2c28:	000a2103          	lw	x2,0(x20)
    2c2c:	004a0a13          	addi	x20,x20,4
  RVTEST_TESTDATA_LOAD_INT(x20, x26) # load rs2: x26 = 0x00000001
    2c30:	000a2d03          	lw	x26,0(x20)
    2c34:	004a0a13          	addi	x20,x20,4

00002c38 <I_sub_cg_cr_rs1_rs2_edges_rs1val_0x55555555_rs2val_0x1>:
I_sub_cg_cr_rs1_rs2_edges_rs1val_0x55555555_rs2val_0x1:
  sub x13, x2, x26 # perform operation
    2c38:	41a106b3          	sub	x13,x2,x26
  # Check if x13 contains the expected result. x9 is the signature ptr, x5 is the link ptr, x4 is a temp reg.
  RVTEST_SIGUPD(x9, x5, x4, x13, I_sub_cg_cr_rs1_rs2_edges_rs1val_0x55555555_rs2val_0x1, I_sub_cg_cr_rs1_rs2_edges_rs1val_0x55555555_rs2val_0x1_str)
    2c3c:	0004a203          	lw	x4,0(x9)
    2c40:	00d20863          	beq	x4,x13,2c50 <I_sub_cg_cr_rs1_rs2_edges_rs1val_0x55555555_rs2val_0x1+0x18>
    2c44:	099012ef          	jal	x5,44dc <failedtest_x5_x4>
    2c48:	00002c38          	.word	0x00002c38
    2c4c:	0000d191          	.word	0x0000d191
    2c50:	00448493          	addi	x9,x9,4

# Testcase cr_rs1_rs2_edges (Test source rs1 = 0x55555555 rs2 = 0x00000002)
  RVTEST_TESTDATA_LOAD_INT(x20, x10) # load rs1: x10 = 0x55555555
    2c54:	000a2503          	lw	x10,0(x20)
    2c58:	004a0a13          	addi	x20,x20,4
  RVTEST_TESTDATA_LOAD_INT(x20, x2) # load rs2: x2 = 0x00000002
    2c5c:	000a2103          	lw	x2,0(x20)
    2c60:	004a0a13          	addi	x20,x20,4

00002c64 <I_sub_cg_cr_rs1_rs2_edges_rs1val_0x55555555_rs2val_0x2>:
I_sub_cg_cr_rs1_rs2_edges_rs1val_0x55555555_rs2val_0x2:
  sub x17, x10, x2 # perform operation
    2c64:	402508b3          	sub	x17,x10,x2
  # Check if x17 contains the expected result. x9 is the signature ptr, x5 is the link ptr, x4 is a temp reg.
  RVTEST_SIGUPD(x9, x5, x4, x17, I_sub_cg_cr_rs1_rs2_edges_rs1val_0x55555555_rs2val_0x2, I_sub_cg_cr_rs1_rs2_edges_rs1val_0x55555555_rs2val_0x2_str)
    2c68:	0004a203          	lw	x4,0(x9)
    2c6c:	01120863          	beq	x4,x17,2c7c <I_sub_cg_cr_rs1_rs2_edges_rs1val_0x55555555_rs2val_0x2+0x18>
    2c70:	06d012ef          	jal	x5,44dc <failedtest_x5_x4>
    2c74:	00002c64          	.word	0x00002c64
    2c78:	0000d1e5          	.word	0x0000d1e5
    2c7c:	00448493          	addi	x9,x9,4

# Testcase cr_rs1_rs2_edges (Test source rs1 = 0x55555555 rs2 = 0x80000000)
  RVTEST_TESTDATA_LOAD_INT(x20, x28) # load rs1: x28 = 0x55555555
    2c80:	000a2e03          	lw	x28,0(x20)
    2c84:	004a0a13          	addi	x20,x20,4
  RVTEST_TESTDATA_LOAD_INT(x20, x18) # load rs2: x18 = 0x80000000
    2c88:	000a2903          	lw	x18,0(x20)
    2c8c:	004a0a13          	addi	x20,x20,4

00002c90 <I_sub_cg_cr_rs1_rs2_edges_rs1val_0x55555555_rs2val_0x80000000>:
I_sub_cg_cr_rs1_rs2_edges_rs1val_0x55555555_rs2val_0x80000000:
  sub x13, x28, x18 # perform operation
    2c90:	412e06b3          	sub	x13,x28,x18
  # Check if x13 contains the expected result. x9 is the signature ptr, x5 is the link ptr, x4 is a temp reg.
  RVTEST_SIGUPD(x9, x5, x4, x13, I_sub_cg_cr_rs1_rs2_edges_rs1val_0x55555555_rs2val_0x80000000, I_sub_cg_cr_rs1_rs2_edges_rs1val_0x55555555_rs2val_0x80000000_str)
    2c94:	0004a203          	lw	x4,0(x9)
    2c98:	00d20863          	beq	x4,x13,2ca8 <I_sub_cg_cr_rs1_rs2_edges_rs1val_0x55555555_rs2val_0x80000000+0x18>
    2c9c:	041012ef          	jal	x5,44dc <failedtest_x5_x4>
    2ca0:	00002c90          	.word	0x00002c90
    2ca4:	0000d239          	.word	0x0000d239
    2ca8:	00448493          	addi	x9,x9,4

# Testcase cr_rs1_rs2_edges (Test source rs1 = 0x55555555 rs2 = 0x80000001)
  RVTEST_TESTDATA_LOAD_INT(x20, x25) # load rs1: x25 = 0x55555555
    2cac:	000a2c83          	lw	x25,0(x20)
    2cb0:	004a0a13          	addi	x20,x20,4
  RVTEST_TESTDATA_LOAD_INT(x20, x29) # load rs2: x29 = 0x80000001
    2cb4:	000a2e83          	lw	x29,0(x20)
    2cb8:	004a0a13          	addi	x20,x20,4

00002cbc <I_sub_cg_cr_rs1_rs2_edges_rs1val_0x55555555_rs2val_0x80000001>:
I_sub_cg_cr_rs1_rs2_edges_rs1val_0x55555555_rs2val_0x80000001:
  sub x28, x25, x29 # perform operation
    2cbc:	41dc8e33          	sub	x28,x25,x29
  # Check if x28 contains the expected result. x9 is the signature ptr, x5 is the link ptr, x4 is a temp reg.
  RVTEST_SIGUPD(x9, x5, x4, x28, I_sub_cg_cr_rs1_rs2_edges_rs1val_0x55555555_rs2val_0x80000001, I_sub_cg_cr_rs1_rs2_edges_rs1val_0x55555555_rs2val_0x80000001_str)
    2cc0:	0004a203          	lw	x4,0(x9)
    2cc4:	01c20863          	beq	x4,x28,2cd4 <I_sub_cg_cr_rs1_rs2_edges_rs1val_0x55555555_rs2val_0x80000001+0x18>
    2cc8:	015012ef          	jal	x5,44dc <failedtest_x5_x4>
    2ccc:	00002cbc          	.word	0x00002cbc
    2cd0:	0000d294          	.word	0x0000d294
    2cd4:	00448493          	addi	x9,x9,4

# Testcase cr_rs1_rs2_edges (Test source rs1 = 0x55555555 rs2 = 0x7fffffff)
  RVTEST_TESTDATA_LOAD_INT(x20, x1) # load rs1: x1 = 0x55555555
    2cd8:	000a2083          	lw	x1,0(x20)
    2cdc:	004a0a13          	addi	x20,x20,4
  RVTEST_TESTDATA_LOAD_INT(x20, x30) # load rs2: x30 = 0x7fffffff
    2ce0:	000a2f03          	lw	x30,0(x20)
    2ce4:	004a0a13          	addi	x20,x20,4

00002ce8 <I_sub_cg_cr_rs1_rs2_edges_rs1val_0x55555555_rs2val_0x7fffffff>:
I_sub_cg_cr_rs1_rs2_edges_rs1val_0x55555555_rs2val_0x7fffffff:
  sub x15, x1, x30 # perform operation
    2ce8:	41e087b3          	sub	x15,x1,x30
  # Check if x15 contains the expected result. x9 is the signature ptr, x5 is the link ptr, x4 is a temp reg.
  RVTEST_SIGUPD(x9, x5, x4, x15, I_sub_cg_cr_rs1_rs2_edges_rs1val_0x55555555_rs2val_0x7fffffff, I_sub_cg_cr_rs1_rs2_edges_rs1val_0x55555555_rs2val_0x7fffffff_str)
    2cec:	0004a203          	lw	x4,0(x9)
    2cf0:	00f20863          	beq	x4,x15,2d00 <I_sub_cg_cr_rs1_rs2_edges_rs1val_0x55555555_rs2val_0x7fffffff+0x18>
    2cf4:	7e8012ef          	jal	x5,44dc <failedtest_x5_x4>
    2cf8:	00002ce8          	.word	0x00002ce8
    2cfc:	0000d2ef          	.word	0x0000d2ef
    2d00:	00448493          	addi	x9,x9,4

# Testcase cr_rs1_rs2_edges (Test source rs1 = 0x55555555 rs2 = 0x7ffffffe)
  RVTEST_TESTDATA_LOAD_INT(x20, x22) # load rs1: x22 = 0x55555555
    2d04:	000a2b03          	lw	x22,0(x20)
    2d08:	004a0a13          	addi	x20,x20,4
  RVTEST_TESTDATA_LOAD_INT(x20, x8) # load rs2: x8 = 0x7ffffffe
    2d0c:	000a2403          	lw	x8,0(x20)
    2d10:	004a0a13          	addi	x20,x20,4

00002d14 <I_sub_cg_cr_rs1_rs2_edges_rs1val_0x55555555_rs2val_0x7ffffffe>:
I_sub_cg_cr_rs1_rs2_edges_rs1val_0x55555555_rs2val_0x7ffffffe:
  sub x24, x22, x8 # perform operation
    2d14:	408b0c33          	sub	x24,x22,x8
  # Check if x24 contains the expected result. x9 is the signature ptr, x5 is the link ptr, x4 is a temp reg.
  RVTEST_SIGUPD(x9, x5, x4, x24, I_sub_cg_cr_rs1_rs2_edges_rs1val_0x55555555_rs2val_0x7ffffffe, I_sub_cg_cr_rs1_rs2_edges_rs1val_0x55555555_rs2val_0x7ffffffe_str)
    2d18:	0004a203          	lw	x4,0(x9)
    2d1c:	01820863          	beq	x4,x24,2d2c <I_sub_cg_cr_rs1_rs2_edges_rs1val_0x55555555_rs2val_0x7ffffffe+0x18>
    2d20:	7bc012ef          	jal	x5,44dc <failedtest_x5_x4>
    2d24:	00002d14          	.word	0x00002d14
    2d28:	0000d34a          	.word	0x0000d34a
    2d2c:	00448493          	addi	x9,x9,4

# Testcase cr_rs1_rs2_edges (Test source rs1 = 0x55555555 rs2 = 0xffffffff)
  RVTEST_TESTDATA_LOAD_INT(x20, x25) # load rs1: x25 = 0x55555555
    2d30:	000a2c83          	lw	x25,0(x20)
    2d34:	004a0a13          	addi	x20,x20,4
  RVTEST_TESTDATA_LOAD_INT(x20, x19) # load rs2: x19 = 0xffffffff
    2d38:	000a2983          	lw	x19,0(x20)
    2d3c:	004a0a13          	addi	x20,x20,4

00002d40 <I_sub_cg_cr_rs1_rs2_edges_rs1val_0x55555555_rs2val_0xffffffff>:
I_sub_cg_cr_rs1_rs2_edges_rs1val_0x55555555_rs2val_0xffffffff:
  sub x22, x25, x19 # perform operation
    2d40:	413c8b33          	sub	x22,x25,x19
  # Check if x22 contains the expected result. x9 is the signature ptr, x5 is the link ptr, x4 is a temp reg.
  RVTEST_SIGUPD(x9, x5, x4, x22, I_sub_cg_cr_rs1_rs2_edges_rs1val_0x55555555_rs2val_0xffffffff, I_sub_cg_cr_rs1_rs2_edges_rs1val_0x55555555_rs2val_0xffffffff_str)
    2d44:	0004a203          	lw	x4,0(x9)
    2d48:	01620863          	beq	x4,x22,2d58 <I_sub_cg_cr_rs1_rs2_edges_rs1val_0x55555555_rs2val_0xffffffff+0x18>
    2d4c:	790012ef          	jal	x5,44dc <failedtest_x5_x4>
    2d50:	00002d40          	.word	0x00002d40
    2d54:	0000d3a5          	.word	0x0000d3a5
    2d58:	00448493          	addi	x9,x9,4

# Testcase cr_rs1_rs2_edges (Test source rs1 = 0x55555555 rs2 = 0xfffffffe)
  RVTEST_TESTDATA_LOAD_INT(x20, x6) # load rs1: x6 = 0x55555555
    2d5c:	000a2303          	lw	x6,0(x20)
    2d60:	004a0a13          	addi	x20,x20,4
  RVTEST_TESTDATA_LOAD_INT(x20, x10) # load rs2: x10 = 0xfffffffe
    2d64:	000a2503          	lw	x10,0(x20)
    2d68:	004a0a13          	addi	x20,x20,4

00002d6c <I_sub_cg_cr_rs1_rs2_edges_rs1val_0x55555555_rs2val_0xfffffffe>:
I_sub_cg_cr_rs1_rs2_edges_rs1val_0x55555555_rs2val_0xfffffffe:
  sub x25, x6, x10 # perform operation
    2d6c:	40a30cb3          	sub	x25,x6,x10
  # Check if x25 contains the expected result. x9 is the signature ptr, x5 is the link ptr, x4 is a temp reg.
  RVTEST_SIGUPD(x9, x5, x4, x25, I_sub_cg_cr_rs1_rs2_edges_rs1val_0x55555555_rs2val_0xfffffffe, I_sub_cg_cr_rs1_rs2_edges_rs1val_0x55555555_rs2val_0xfffffffe_str)
    2d70:	0004a203          	lw	x4,0(x9)
    2d74:	01920863          	beq	x4,x25,2d84 <I_sub_cg_cr_rs1_rs2_edges_rs1val_0x55555555_rs2val_0xfffffffe+0x18>
    2d78:	764012ef          	jal	x5,44dc <failedtest_x5_x4>
    2d7c:	00002d6c          	.word	0x00002d6c
    2d80:	0000d400          	.word	0x0000d400
    2d84:	00448493          	addi	x9,x9,4

# Testcase cr_rs1_rs2_edges (Test source rs1 = 0x55555555 rs2 = 0x5bbc8872)
  RVTEST_TESTDATA_LOAD_INT(x20, x13) # load rs1: x13 = 0x55555555
    2d88:	000a2683          	lw	x13,0(x20)
    2d8c:	004a0a13          	addi	x20,x20,4
  RVTEST_TESTDATA_LOAD_INT(x20, x1) # load rs2: x1 = 0x5bbc8872
    2d90:	000a2083          	lw	x1,0(x20)
    2d94:	004a0a13          	addi	x20,x20,4

00002d98 <I_sub_cg_cr_rs1_rs2_edges_rs1val_0x55555555_rs2val_0x5bbc8872>:
I_sub_cg_cr_rs1_rs2_edges_rs1val_0x55555555_rs2val_0x5bbc8872:
  sub x25, x13, x1 # perform operation
    2d98:	40168cb3          	sub	x25,x13,x1
  # Check if x25 contains the expected result. x9 is the signature ptr, x5 is the link ptr, x4 is a temp reg.
  RVTEST_SIGUPD(x9, x5, x4, x25, I_sub_cg_cr_rs1_rs2_edges_rs1val_0x55555555_rs2val_0x5bbc8872, I_sub_cg_cr_rs1_rs2_edges_rs1val_0x55555555_rs2val_0x5bbc8872_str)
    2d9c:	0004a203          	lw	x4,0(x9)
    2da0:	01920863          	beq	x4,x25,2db0 <I_sub_cg_cr_rs1_rs2_edges_rs1val_0x55555555_rs2val_0x5bbc8872+0x18>
    2da4:	738012ef          	jal	x5,44dc <failedtest_x5_x4>
    2da8:	00002d98          	.word	0x00002d98
    2dac:	0000d45b          	.word	0x0000d45b
    2db0:	00448493          	addi	x9,x9,4

# Testcase cr_rs1_rs2_edges (Test source rs1 = 0x55555555 rs2 = 0xaaaaaaaa)
  RVTEST_TESTDATA_LOAD_INT(x20, x19) # load rs1: x19 = 0x55555555
    2db4:	000a2983          	lw	x19,0(x20)
    2db8:	004a0a13          	addi	x20,x20,4
  RVTEST_TESTDATA_LOAD_INT(x20, x27) # load rs2: x27 = 0xaaaaaaaa
    2dbc:	000a2d83          	lw	x27,0(x20)
    2dc0:	004a0a13          	addi	x20,x20,4

00002dc4 <I_sub_cg_cr_rs1_rs2_edges_rs1val_0x55555555_rs2val_0xaaaaaaaa>:
I_sub_cg_cr_rs1_rs2_edges_rs1val_0x55555555_rs2val_0xaaaaaaaa:
  sub x1, x19, x27 # perform operation
    2dc4:	41b980b3          	sub	x1,x19,x27
  # Check if x1 contains the expected result. x9 is the signature ptr, x5 is the link ptr, x4 is a temp reg.
  RVTEST_SIGUPD(x9, x5, x4, x1, I_sub_cg_cr_rs1_rs2_edges_rs1val_0x55555555_rs2val_0xaaaaaaaa, I_sub_cg_cr_rs1_rs2_edges_rs1val_0x55555555_rs2val_0xaaaaaaaa_str)
    2dc8:	0004a203          	lw	x4,0(x9)
    2dcc:	00120863          	beq	x4,x1,2ddc <I_sub_cg_cr_rs1_rs2_edges_rs1val_0x55555555_rs2val_0xaaaaaaaa+0x18>
    2dd0:	70c012ef          	jal	x5,44dc <failedtest_x5_x4>
    2dd4:	00002dc4          	.word	0x00002dc4
    2dd8:	0000d4b6          	.word	0x0000d4b6
    2ddc:	00448493          	addi	x9,x9,4

# Testcase cr_rs1_rs2_edges (Test source rs1 = 0x55555555 rs2 = 0x55555555)
  RVTEST_TESTDATA_LOAD_INT(x20, x25) # load rs1: x25 = 0x55555555
    2de0:	000a2c83          	lw	x25,0(x20)
    2de4:	004a0a13          	addi	x20,x20,4
  RVTEST_TESTDATA_LOAD_INT(x20, x22) # load rs2: x22 = 0x55555555
    2de8:	000a2b03          	lw	x22,0(x20)
    2dec:	004a0a13          	addi	x20,x20,4

00002df0 <I_sub_cg_cr_rs1_rs2_edges_rs1val_0x55555555_rs2val_0x55555555>:
I_sub_cg_cr_rs1_rs2_edges_rs1val_0x55555555_rs2val_0x55555555:
  sub x17, x25, x22 # perform operation
    2df0:	416c88b3          	sub	x17,x25,x22
  # Check if x17 contains the expected result. x9 is the signature ptr, x5 is the link ptr, x4 is a temp reg.
  RVTEST_SIGUPD(x9, x5, x4, x17, I_sub_cg_cr_rs1_rs2_edges_rs1val_0x55555555_rs2val_0x55555555, I_sub_cg_cr_rs1_rs2_edges_rs1val_0x55555555_rs2val_0x55555555_str)
    2df4:	0004a203          	lw	x4,0(x9)
    2df8:	01120863          	beq	x4,x17,2e08 <I_sub_cg_cr_rs1_rs2_edges_rs1val_0x55555555_rs2val_0x55555555+0x18>
    2dfc:	6e0012ef          	jal	x5,44dc <failedtest_x5_x4>
    2e00:	00002df0          	.word	0x00002df0
    2e04:	0000d511          	.word	0x0000d511
    2e08:	00448493          	addi	x9,x9,4
/////////////////////////////////
// cmp_rs1_rs2
/////////////////////////////////

# Testcase cmp_rs1_rs2 (Test rs1 = rs2 = x0)
  RVTEST_TESTDATA_LOAD_INT(x20, x0) # load rs1: x0 = 0x34280377
    2e0c:	000a2003          	lw	x0,0(x20)
    2e10:	004a0a13          	addi	x20,x20,4
  RVTEST_TESTDATA_LOAD_INT(x20, x0) # load rs2: x0 = 0xb95c1b44
    2e14:	000a2003          	lw	x0,0(x20)
    2e18:	004a0a13          	addi	x20,x20,4

00002e1c <I_sub_cg_cmp_rs1_rs2_b0>:
I_sub_cg_cmp_rs1_rs2_b0:
  sub x13, x0, x0 # perform operation
    2e1c:	400006b3          	sub	x13,x0,x0
  # Check if x13 contains the expected result. x9 is the signature ptr, x5 is the link ptr, x4 is a temp reg.
  RVTEST_SIGUPD(x9, x5, x4, x13, I_sub_cg_cmp_rs1_rs2_b0, I_sub_cg_cmp_rs1_rs2_b0_str)
    2e20:	0004a203          	lw	x4,0(x9)
    2e24:	00d20863          	beq	x4,x13,2e34 <I_sub_cg_cmp_rs1_rs2_b0+0x18>
    2e28:	6b4012ef          	jal	x5,44dc <failedtest_x5_x4>
    2e2c:	00002e1c          	.word	0x00002e1c
    2e30:	0000d56c          	.word	0x0000d56c
    2e34:	00448493          	addi	x9,x9,4

# Testcase cmp_rs1_rs2 (Test rs1 = rs2 = x1)
  RVTEST_TESTDATA_LOAD_INT(x20, x1) # load rs1: x1 = 0xc4f58fe7
    2e38:	000a2083          	lw	x1,0(x20)
    2e3c:	004a0a13          	addi	x20,x20,4
  RVTEST_TESTDATA_LOAD_INT(x20, x1) # load rs2: x1 = 0x63af92d9
    2e40:	000a2083          	lw	x1,0(x20)
    2e44:	004a0a13          	addi	x20,x20,4

00002e48 <I_sub_cg_cmp_rs1_rs2_b1>:
I_sub_cg_cmp_rs1_rs2_b1:
  sub x23, x1, x1 # perform operation
    2e48:	40108bb3          	sub	x23,x1,x1
  # Check if x23 contains the expected result. x9 is the signature ptr, x5 is the link ptr, x4 is a temp reg.
  RVTEST_SIGUPD(x9, x5, x4, x23, I_sub_cg_cmp_rs1_rs2_b1, I_sub_cg_cmp_rs1_rs2_b1_str)
    2e4c:	0004a203          	lw	x4,0(x9)
    2e50:	01720863          	beq	x4,x23,2e60 <I_sub_cg_cmp_rs1_rs2_b1+0x18>
    2e54:	688012ef          	jal	x5,44dc <failedtest_x5_x4>
    2e58:	00002e48          	.word	0x00002e48
    2e5c:	0000d5a0          	.word	0x0000d5a0
    2e60:	00448493          	addi	x9,x9,4

# Testcase cmp_rs1_rs2 (Test rs1 = rs2 = x2)
  RVTEST_TESTDATA_LOAD_INT(x20, x2) # load rs1: x2 = 0x2d03a8a4
    2e64:	000a2103          	lw	x2,0(x20)
    2e68:	004a0a13          	addi	x20,x20,4
  RVTEST_TESTDATA_LOAD_INT(x20, x2) # load rs2: x2 = 0x273e6ffa
    2e6c:	000a2103          	lw	x2,0(x20)
    2e70:	004a0a13          	addi	x20,x20,4

00002e74 <I_sub_cg_cmp_rs1_rs2_b2>:
I_sub_cg_cmp_rs1_rs2_b2:
  sub x8, x2, x2 # perform operation
    2e74:	40210433          	sub	x8,x2,x2
  # Check if x8 contains the expected result. x9 is the signature ptr, x5 is the link ptr, x4 is a temp reg.
  RVTEST_SIGUPD(x9, x5, x4, x8, I_sub_cg_cmp_rs1_rs2_b2, I_sub_cg_cmp_rs1_rs2_b2_str)
    2e78:	0004a203          	lw	x4,0(x9)
    2e7c:	00820863          	beq	x4,x8,2e8c <I_sub_cg_cmp_rs1_rs2_b2+0x18>
    2e80:	65c012ef          	jal	x5,44dc <failedtest_x5_x4>
    2e84:	00002e74          	.word	0x00002e74
    2e88:	0000d5d4          	.word	0x0000d5d4
    2e8c:	00448493          	addi	x9,x9,4

# Testcase cmp_rs1_rs2 (Test rs1 = rs2 = x3)
  RVTEST_TESTDATA_LOAD_INT(x20, x3) # load rs1: x3 = 0x6404335e
    2e90:	000a2183          	lw	x3,0(x20)
    2e94:	004a0a13          	addi	x20,x20,4
  RVTEST_TESTDATA_LOAD_INT(x20, x3) # load rs2: x3 = 0x07f7ee95
    2e98:	000a2183          	lw	x3,0(x20)
    2e9c:	004a0a13          	addi	x20,x20,4

00002ea0 <I_sub_cg_cmp_rs1_rs2_b3>:
I_sub_cg_cmp_rs1_rs2_b3:
  sub x23, x3, x3 # perform operation
    2ea0:	40318bb3          	sub	x23,x3,x3
  # Check if x23 contains the expected result. x9 is the signature ptr, x5 is the link ptr, x4 is a temp reg.
  RVTEST_SIGUPD(x9, x5, x4, x23, I_sub_cg_cmp_rs1_rs2_b3, I_sub_cg_cmp_rs1_rs2_b3_str)
    2ea4:	0004a203          	lw	x4,0(x9)
    2ea8:	01720863          	beq	x4,x23,2eb8 <I_sub_cg_cmp_rs1_rs2_b3+0x18>
    2eac:	630012ef          	jal	x5,44dc <failedtest_x5_x4>
    2eb0:	00002ea0          	.word	0x00002ea0
    2eb4:	0000d608          	.word	0x0000d608
    2eb8:	00448493          	addi	x9,x9,4

  mv x13, x4 # switch temp register to avoid conflict with test
    2ebc:	00020693          	addi	x13,x4,0 # 0 <rvtest_entry_point>
  mv x14, x5 # switch link pointer register to avoid conflict with test
    2ec0:	00028713          	addi	x14,x5,0
# Testcase cmp_rs1_rs2 (Test rs1 = rs2 = x4)
  RVTEST_TESTDATA_LOAD_INT(x20, x4) # load rs1: x4 = 0x55778a90
    2ec4:	000a2203          	lw	x4,0(x20)
    2ec8:	004a0a13          	addi	x20,x20,4
  RVTEST_TESTDATA_LOAD_INT(x20, x4) # load rs2: x4 = 0x2a75537b
    2ecc:	000a2203          	lw	x4,0(x20)
    2ed0:	004a0a13          	addi	x20,x20,4

00002ed4 <I_sub_cg_cmp_rs1_rs2_b4>:
I_sub_cg_cmp_rs1_rs2_b4:
  sub x7, x4, x4 # perform operation
    2ed4:	404203b3          	sub	x7,x4,x4
  # Check if x7 contains the expected result. x9 is the signature ptr, x14 is the link ptr, x13 is a temp reg.
  RVTEST_SIGUPD(x9, x14, x13, x7, I_sub_cg_cmp_rs1_rs2_b4, I_sub_cg_cmp_rs1_rs2_b4_str)
    2ed8:	0004a683          	lw	x13,0(x9)
    2edc:	00768863          	beq	x13,x7,2eec <I_sub_cg_cmp_rs1_rs2_b4+0x18>
    2ee0:	63c0176f          	jal	x14,451c <failedtest_x14_x13>
    2ee4:	00002ed4          	.word	0x00002ed4
    2ee8:	0000d63c          	.word	0x0000d63c
    2eec:	00448493          	addi	x9,x9,4

# Testcase cmp_rs1_rs2 (Test rs1 = rs2 = x5)
  RVTEST_TESTDATA_LOAD_INT(x20, x5) # load rs1: x5 = 0xce7b2162
    2ef0:	000a2283          	lw	x5,0(x20)
    2ef4:	004a0a13          	addi	x20,x20,4
  RVTEST_TESTDATA_LOAD_INT(x20, x5) # load rs2: x5 = 0x800e705e
    2ef8:	000a2283          	lw	x5,0(x20)
    2efc:	004a0a13          	addi	x20,x20,4

00002f00 <I_sub_cg_cmp_rs1_rs2_b5>:
I_sub_cg_cmp_rs1_rs2_b5:
  sub x2, x5, x5 # perform operation
    2f00:	40528133          	sub	x2,x5,x5
  # Check if x2 contains the expected result. x9 is the signature ptr, x14 is the link ptr, x13 is a temp reg.
  RVTEST_SIGUPD(x9, x14, x13, x2, I_sub_cg_cmp_rs1_rs2_b5, I_sub_cg_cmp_rs1_rs2_b5_str)
    2f04:	0004a683          	lw	x13,0(x9)
    2f08:	00268863          	beq	x13,x2,2f18 <I_sub_cg_cmp_rs1_rs2_b5+0x18>
    2f0c:	6100176f          	jal	x14,451c <failedtest_x14_x13>
    2f10:	00002f00          	.word	0x00002f00
    2f14:	0000d670          	.word	0x0000d670
    2f18:	00448493          	addi	x9,x9,4

# Testcase cmp_rs1_rs2 (Test rs1 = rs2 = x6)
  RVTEST_TESTDATA_LOAD_INT(x20, x6) # load rs1: x6 = 0x54fd88da
    2f1c:	000a2303          	lw	x6,0(x20)
    2f20:	004a0a13          	addi	x20,x20,4
  RVTEST_TESTDATA_LOAD_INT(x20, x6) # load rs2: x6 = 0x5befae3d
    2f24:	000a2303          	lw	x6,0(x20)
    2f28:	004a0a13          	addi	x20,x20,4

00002f2c <I_sub_cg_cmp_rs1_rs2_b6>:
I_sub_cg_cmp_rs1_rs2_b6:
  sub x7, x6, x6 # perform operation
    2f2c:	406303b3          	sub	x7,x6,x6
  # Check if x7 contains the expected result. x9 is the signature ptr, x14 is the link ptr, x13 is a temp reg.
  RVTEST_SIGUPD(x9, x14, x13, x7, I_sub_cg_cmp_rs1_rs2_b6, I_sub_cg_cmp_rs1_rs2_b6_str)
    2f30:	0004a683          	lw	x13,0(x9)
    2f34:	00768863          	beq	x13,x7,2f44 <I_sub_cg_cmp_rs1_rs2_b6+0x18>
    2f38:	5e40176f          	jal	x14,451c <failedtest_x14_x13>
    2f3c:	00002f2c          	.word	0x00002f2c
    2f40:	0000d6a4          	.word	0x0000d6a4
    2f44:	00448493          	addi	x9,x9,4

# Testcase cmp_rs1_rs2 (Test rs1 = rs2 = x7)
  RVTEST_TESTDATA_LOAD_INT(x20, x7) # load rs1: x7 = 0x26ddd305
    2f48:	000a2383          	lw	x7,0(x20)
    2f4c:	004a0a13          	addi	x20,x20,4
  RVTEST_TESTDATA_LOAD_INT(x20, x7) # load rs2: x7 = 0x0e228209
    2f50:	000a2383          	lw	x7,0(x20)
    2f54:	004a0a13          	addi	x20,x20,4

00002f58 <I_sub_cg_cmp_rs1_rs2_b7>:
I_sub_cg_cmp_rs1_rs2_b7:
  sub x10, x7, x7 # perform operation
    2f58:	40738533          	sub	x10,x7,x7
  # Check if x10 contains the expected result. x9 is the signature ptr, x14 is the link ptr, x13 is a temp reg.
  RVTEST_SIGUPD(x9, x14, x13, x10, I_sub_cg_cmp_rs1_rs2_b7, I_sub_cg_cmp_rs1_rs2_b7_str)
    2f5c:	0004a683          	lw	x13,0(x9)
    2f60:	00a68863          	beq	x13,x10,2f70 <I_sub_cg_cmp_rs1_rs2_b7+0x18>
    2f64:	5b80176f          	jal	x14,451c <failedtest_x14_x13>
    2f68:	00002f58          	.word	0x00002f58
    2f6c:	0000d6d8          	.word	0x0000d6d8
    2f70:	00448493          	addi	x9,x9,4

# Testcase cmp_rs1_rs2 (Test rs1 = rs2 = x8)
  RVTEST_TESTDATA_LOAD_INT(x20, x8) # load rs1: x8 = 0xa63d1367
    2f74:	000a2403          	lw	x8,0(x20)
    2f78:	004a0a13          	addi	x20,x20,4
  RVTEST_TESTDATA_LOAD_INT(x20, x8) # load rs2: x8 = 0x679396db
    2f7c:	000a2403          	lw	x8,0(x20)
    2f80:	004a0a13          	addi	x20,x20,4

00002f84 <I_sub_cg_cmp_rs1_rs2_b8>:
I_sub_cg_cmp_rs1_rs2_b8:
  sub x24, x8, x8 # perform operation
    2f84:	40840c33          	sub	x24,x8,x8
  # Check if x24 contains the expected result. x9 is the signature ptr, x14 is the link ptr, x13 is a temp reg.
  RVTEST_SIGUPD(x9, x14, x13, x24, I_sub_cg_cmp_rs1_rs2_b8, I_sub_cg_cmp_rs1_rs2_b8_str)
    2f88:	0004a683          	lw	x13,0(x9)
    2f8c:	01868863          	beq	x13,x24,2f9c <I_sub_cg_cmp_rs1_rs2_b8+0x18>
    2f90:	58c0176f          	jal	x14,451c <failedtest_x14_x13>
    2f94:	00002f84          	.word	0x00002f84
    2f98:	0000d70c          	.word	0x0000d70c
    2f9c:	00448493          	addi	x9,x9,4

  mv x2, x9 # switch signature pointer register to avoid conflict with test
    2fa0:	00048113          	addi	x2,x9,0
# Testcase cmp_rs1_rs2 (Test rs1 = rs2 = x9)
  RVTEST_TESTDATA_LOAD_INT(x20, x9) # load rs1: x9 = 0xb2ff5972
    2fa4:	000a2483          	lw	x9,0(x20)
    2fa8:	004a0a13          	addi	x20,x20,4
  RVTEST_TESTDATA_LOAD_INT(x20, x9) # load rs2: x9 = 0x554db4e1
    2fac:	000a2483          	lw	x9,0(x20)
    2fb0:	004a0a13          	addi	x20,x20,4

00002fb4 <I_sub_cg_cmp_rs1_rs2_b9>:
I_sub_cg_cmp_rs1_rs2_b9:
  sub x16, x9, x9 # perform operation
    2fb4:	40948833          	sub	x16,x9,x9
  # Check if x16 contains the expected result. x2 is the signature ptr, x14 is the link ptr, x13 is a temp reg.
  RVTEST_SIGUPD(x2, x14, x13, x16, I_sub_cg_cmp_rs1_rs2_b9, I_sub_cg_cmp_rs1_rs2_b9_str)
    2fb8:	00012683          	lw	x13,0(x2)
    2fbc:	01068863          	beq	x13,x16,2fcc <I_sub_cg_cmp_rs1_rs2_b9+0x18>
    2fc0:	55c0176f          	jal	x14,451c <failedtest_x14_x13>
    2fc4:	00002fb4          	.word	0x00002fb4
    2fc8:	0000d740          	.word	0x0000d740
    2fcc:	00410113          	addi	x2,x2,4

# Testcase cmp_rs1_rs2 (Test rs1 = rs2 = x10)
  RVTEST_TESTDATA_LOAD_INT(x20, x10) # load rs1: x10 = 0xb1faa4a8
    2fd0:	000a2503          	lw	x10,0(x20)
    2fd4:	004a0a13          	addi	x20,x20,4
  RVTEST_TESTDATA_LOAD_INT(x20, x10) # load rs2: x10 = 0x11f55d22
    2fd8:	000a2503          	lw	x10,0(x20)
    2fdc:	004a0a13          	addi	x20,x20,4

00002fe0 <I_sub_cg_cmp_rs1_rs2_b10>:
I_sub_cg_cmp_rs1_rs2_b10:
  sub x18, x10, x10 # perform operation
    2fe0:	40a50933          	sub	x18,x10,x10
  # Check if x18 contains the expected result. x2 is the signature ptr, x14 is the link ptr, x13 is a temp reg.
  RVTEST_SIGUPD(x2, x14, x13, x18, I_sub_cg_cmp_rs1_rs2_b10, I_sub_cg_cmp_rs1_rs2_b10_str)
    2fe4:	00012683          	lw	x13,0(x2)
    2fe8:	01268863          	beq	x13,x18,2ff8 <I_sub_cg_cmp_rs1_rs2_b10+0x18>
    2fec:	5300176f          	jal	x14,451c <failedtest_x14_x13>
    2ff0:	00002fe0          	.word	0x00002fe0
    2ff4:	0000d774          	.word	0x0000d774
    2ff8:	00410113          	addi	x2,x2,4

# Testcase cmp_rs1_rs2 (Test rs1 = rs2 = x11)
  RVTEST_TESTDATA_LOAD_INT(x20, x11) # load rs1: x11 = 0x9780a711
    2ffc:	000a2583          	lw	x11,0(x20)
    3000:	004a0a13          	addi	x20,x20,4
  RVTEST_TESTDATA_LOAD_INT(x20, x11) # load rs2: x11 = 0xbcd0f5c4
    3004:	000a2583          	lw	x11,0(x20)
    3008:	004a0a13          	addi	x20,x20,4

0000300c <I_sub_cg_cmp_rs1_rs2_b11>:
I_sub_cg_cmp_rs1_rs2_b11:
  sub x15, x11, x11 # perform operation
    300c:	40b587b3          	sub	x15,x11,x11
  # Check if x15 contains the expected result. x2 is the signature ptr, x14 is the link ptr, x13 is a temp reg.
  RVTEST_SIGUPD(x2, x14, x13, x15, I_sub_cg_cmp_rs1_rs2_b11, I_sub_cg_cmp_rs1_rs2_b11_str)
    3010:	00012683          	lw	x13,0(x2)
    3014:	00f68863          	beq	x13,x15,3024 <I_sub_cg_cmp_rs1_rs2_b11+0x18>
    3018:	5040176f          	jal	x14,451c <failedtest_x14_x13>
    301c:	0000300c          	.word	0x0000300c
    3020:	0000d7a9          	.word	0x0000d7a9
    3024:	00410113          	addi	x2,x2,4

# Testcase cmp_rs1_rs2 (Test rs1 = rs2 = x12)
  RVTEST_TESTDATA_LOAD_INT(x20, x12) # load rs1: x12 = 0x878237fe
    3028:	000a2603          	lw	x12,0(x20)
    302c:	004a0a13          	addi	x20,x20,4
  RVTEST_TESTDATA_LOAD_INT(x20, x12) # load rs2: x12 = 0x1853b471
    3030:	000a2603          	lw	x12,0(x20)
    3034:	004a0a13          	addi	x20,x20,4

00003038 <I_sub_cg_cmp_rs1_rs2_b12>:
I_sub_cg_cmp_rs1_rs2_b12:
  sub x1, x12, x12 # perform operation
    3038:	40c600b3          	sub	x1,x12,x12
  # Check if x1 contains the expected result. x2 is the signature ptr, x14 is the link ptr, x13 is a temp reg.
  RVTEST_SIGUPD(x2, x14, x13, x1, I_sub_cg_cmp_rs1_rs2_b12, I_sub_cg_cmp_rs1_rs2_b12_str)
    303c:	00012683          	lw	x13,0(x2)
    3040:	00168863          	beq	x13,x1,3050 <I_sub_cg_cmp_rs1_rs2_b12+0x18>
    3044:	4d80176f          	jal	x14,451c <failedtest_x14_x13>
    3048:	00003038          	.word	0x00003038
    304c:	0000d7de          	.word	0x0000d7de
    3050:	00410113          	addi	x2,x2,4

  mv x7, x13 # switch temp register to avoid conflict with test
    3054:	00068393          	addi	x7,x13,0
  mv x8, x14 # switch link pointer register to avoid conflict with test
    3058:	00070413          	addi	x8,x14,0
# Testcase cmp_rs1_rs2 (Test rs1 = rs2 = x13)
  RVTEST_TESTDATA_LOAD_INT(x20, x13) # load rs1: x13 = 0xcad0fbda
    305c:	000a2683          	lw	x13,0(x20)
    3060:	004a0a13          	addi	x20,x20,4
  RVTEST_TESTDATA_LOAD_INT(x20, x13) # load rs2: x13 = 0x7623200c
    3064:	000a2683          	lw	x13,0(x20)
    3068:	004a0a13          	addi	x20,x20,4

0000306c <I_sub_cg_cmp_rs1_rs2_b13>:
I_sub_cg_cmp_rs1_rs2_b13:
  sub x4, x13, x13 # perform operation
    306c:	40d68233          	sub	x4,x13,x13
  # Check if x4 contains the expected result. x2 is the signature ptr, x8 is the link ptr, x7 is a temp reg.
  RVTEST_SIGUPD(x2, x8, x7, x4, I_sub_cg_cmp_rs1_rs2_b13, I_sub_cg_cmp_rs1_rs2_b13_str)
    3070:	00012383          	lw	x7,0(x2)
    3074:	00438863          	beq	x7,x4,3084 <I_sub_cg_cmp_rs1_rs2_b13+0x18>
    3078:	47c0146f          	jal	x8,44f4 <failedtest_x8_x7>
    307c:	0000306c          	.word	0x0000306c
    3080:	0000d813          	.word	0x0000d813
    3084:	00410113          	addi	x2,x2,4

# Testcase cmp_rs1_rs2 (Test rs1 = rs2 = x14)
  RVTEST_TESTDATA_LOAD_INT(x20, x14) # load rs1: x14 = 0x100cccfe
    3088:	000a2703          	lw	x14,0(x20)
    308c:	004a0a13          	addi	x20,x20,4
  RVTEST_TESTDATA_LOAD_INT(x20, x14) # load rs2: x14 = 0x22cd1a44
    3090:	000a2703          	lw	x14,0(x20)
    3094:	004a0a13          	addi	x20,x20,4

00003098 <I_sub_cg_cmp_rs1_rs2_b14>:
I_sub_cg_cmp_rs1_rs2_b14:
  sub x28, x14, x14 # perform operation
    3098:	40e70e33          	sub	x28,x14,x14
  # Check if x28 contains the expected result. x2 is the signature ptr, x8 is the link ptr, x7 is a temp reg.
  RVTEST_SIGUPD(x2, x8, x7, x28, I_sub_cg_cmp_rs1_rs2_b14, I_sub_cg_cmp_rs1_rs2_b14_str)
    309c:	00012383          	lw	x7,0(x2)
    30a0:	01c38863          	beq	x7,x28,30b0 <I_sub_cg_cmp_rs1_rs2_b14+0x18>
    30a4:	4500146f          	jal	x8,44f4 <failedtest_x8_x7>
    30a8:	00003098          	.word	0x00003098
    30ac:	0000d848          	.word	0x0000d848
    30b0:	00410113          	addi	x2,x2,4

# Testcase cmp_rs1_rs2 (Test rs1 = rs2 = x15)
  RVTEST_TESTDATA_LOAD_INT(x20, x15) # load rs1: x15 = 0x7b11e2a9
    30b4:	000a2783          	lw	x15,0(x20)
    30b8:	004a0a13          	addi	x20,x20,4
  RVTEST_TESTDATA_LOAD_INT(x20, x15) # load rs2: x15 = 0x713fdc4b
    30bc:	000a2783          	lw	x15,0(x20)
    30c0:	004a0a13          	addi	x20,x20,4

000030c4 <I_sub_cg_cmp_rs1_rs2_b15>:
I_sub_cg_cmp_rs1_rs2_b15:
  sub x17, x15, x15 # perform operation
    30c4:	40f788b3          	sub	x17,x15,x15
  # Check if x17 contains the expected result. x2 is the signature ptr, x8 is the link ptr, x7 is a temp reg.
  RVTEST_SIGUPD(x2, x8, x7, x17, I_sub_cg_cmp_rs1_rs2_b15, I_sub_cg_cmp_rs1_rs2_b15_str)
    30c8:	00012383          	lw	x7,0(x2)
    30cc:	01138863          	beq	x7,x17,30dc <I_sub_cg_cmp_rs1_rs2_b15+0x18>
    30d0:	4240146f          	jal	x8,44f4 <failedtest_x8_x7>
    30d4:	000030c4          	.word	0x000030c4
    30d8:	0000d87d          	.word	0x0000d87d
    30dc:	00410113          	addi	x2,x2,4

# Testcase cmp_rs1_rs2 (Test rs1 = rs2 = x16)
  RVTEST_TESTDATA_LOAD_INT(x20, x16) # load rs1: x16 = 0xd8ec89b3
    30e0:	000a2803          	lw	x16,0(x20)
    30e4:	004a0a13          	addi	x20,x20,4
  RVTEST_TESTDATA_LOAD_INT(x20, x16) # load rs2: x16 = 0x47334d58
    30e8:	000a2803          	lw	x16,0(x20)
    30ec:	004a0a13          	addi	x20,x20,4

000030f0 <I_sub_cg_cmp_rs1_rs2_b16>:
I_sub_cg_cmp_rs1_rs2_b16:
  sub x22, x16, x16 # perform operation
    30f0:	41080b33          	sub	x22,x16,x16
  # Check if x22 contains the expected result. x2 is the signature ptr, x8 is the link ptr, x7 is a temp reg.
  RVTEST_SIGUPD(x2, x8, x7, x22, I_sub_cg_cmp_rs1_rs2_b16, I_sub_cg_cmp_rs1_rs2_b16_str)
    30f4:	00012383          	lw	x7,0(x2)
    30f8:	01638863          	beq	x7,x22,3108 <I_sub_cg_cmp_rs1_rs2_b16+0x18>
    30fc:	3f80146f          	jal	x8,44f4 <failedtest_x8_x7>
    3100:	000030f0          	.word	0x000030f0
    3104:	0000d8b2          	.word	0x0000d8b2
    3108:	00410113          	addi	x2,x2,4

# Testcase cmp_rs1_rs2 (Test rs1 = rs2 = x17)
  RVTEST_TESTDATA_LOAD_INT(x20, x17) # load rs1: x17 = 0x97a7e7b0
    310c:	000a2883          	lw	x17,0(x20)
    3110:	004a0a13          	addi	x20,x20,4
  RVTEST_TESTDATA_LOAD_INT(x20, x17) # load rs2: x17 = 0x5dd8f34f
    3114:	000a2883          	lw	x17,0(x20)
    3118:	004a0a13          	addi	x20,x20,4

0000311c <I_sub_cg_cmp_rs1_rs2_b17>:
I_sub_cg_cmp_rs1_rs2_b17:
  sub x6, x17, x17 # perform operation
    311c:	41188333          	sub	x6,x17,x17
  # Check if x6 contains the expected result. x2 is the signature ptr, x8 is the link ptr, x7 is a temp reg.
  RVTEST_SIGUPD(x2, x8, x7, x6, I_sub_cg_cmp_rs1_rs2_b17, I_sub_cg_cmp_rs1_rs2_b17_str)
    3120:	00012383          	lw	x7,0(x2)
    3124:	00638863          	beq	x7,x6,3134 <I_sub_cg_cmp_rs1_rs2_b17+0x18>
    3128:	3cc0146f          	jal	x8,44f4 <failedtest_x8_x7>
    312c:	0000311c          	.word	0x0000311c
    3130:	0000d8e7          	.word	0x0000d8e7
    3134:	00410113          	addi	x2,x2,4

# Testcase cmp_rs1_rs2 (Test rs1 = rs2 = x18)
  RVTEST_TESTDATA_LOAD_INT(x20, x18) # load rs1: x18 = 0x200ef457
    3138:	000a2903          	lw	x18,0(x20)
    313c:	004a0a13          	addi	x20,x20,4
  RVTEST_TESTDATA_LOAD_INT(x20, x18) # load rs2: x18 = 0x46171fa7
    3140:	000a2903          	lw	x18,0(x20)
    3144:	004a0a13          	addi	x20,x20,4

00003148 <I_sub_cg_cmp_rs1_rs2_b18>:
I_sub_cg_cmp_rs1_rs2_b18:
  sub x29, x18, x18 # perform operation
    3148:	41290eb3          	sub	x29,x18,x18
  # Check if x29 contains the expected result. x2 is the signature ptr, x8 is the link ptr, x7 is a temp reg.
  RVTEST_SIGUPD(x2, x8, x7, x29, I_sub_cg_cmp_rs1_rs2_b18, I_sub_cg_cmp_rs1_rs2_b18_str)
    314c:	00012383          	lw	x7,0(x2)
    3150:	01d38863          	beq	x7,x29,3160 <I_sub_cg_cmp_rs1_rs2_b18+0x18>
    3154:	3a00146f          	jal	x8,44f4 <failedtest_x8_x7>
    3158:	00003148          	.word	0x00003148
    315c:	0000d91c          	.word	0x0000d91c
    3160:	00410113          	addi	x2,x2,4

# Testcase cmp_rs1_rs2 (Test rs1 = rs2 = x19)
  RVTEST_TESTDATA_LOAD_INT(x20, x19) # load rs1: x19 = 0xe937b3cd
    3164:	000a2983          	lw	x19,0(x20)
    3168:	004a0a13          	addi	x20,x20,4
  RVTEST_TESTDATA_LOAD_INT(x20, x19) # load rs2: x19 = 0xa887bb51
    316c:	000a2983          	lw	x19,0(x20)
    3170:	004a0a13          	addi	x20,x20,4

00003174 <I_sub_cg_cmp_rs1_rs2_b19>:
I_sub_cg_cmp_rs1_rs2_b19:
  sub x24, x19, x19 # perform operation
    3174:	41398c33          	sub	x24,x19,x19
  # Check if x24 contains the expected result. x2 is the signature ptr, x8 is the link ptr, x7 is a temp reg.
  RVTEST_SIGUPD(x2, x8, x7, x24, I_sub_cg_cmp_rs1_rs2_b19, I_sub_cg_cmp_rs1_rs2_b19_str)
    3178:	00012383          	lw	x7,0(x2)
    317c:	01838863          	beq	x7,x24,318c <I_sub_cg_cmp_rs1_rs2_b19+0x18>
    3180:	3740146f          	jal	x8,44f4 <failedtest_x8_x7>
    3184:	00003174          	.word	0x00003174
    3188:	0000d951          	.word	0x0000d951
    318c:	00410113          	addi	x2,x2,4

  mv x3, x20 # switch data pointer register to avoid conflict with test
    3190:	000a0193          	addi	x3,x20,0
# Testcase cmp_rs1_rs2 (Test rs1 = rs2 = x20)
  RVTEST_TESTDATA_LOAD_INT(x3, x20) # load rs1: x20 = 0x6ab87f0a
    3194:	0001aa03          	lw	x20,0(x3)
    3198:	00418193          	addi	x3,x3,4
  RVTEST_TESTDATA_LOAD_INT(x3, x20) # load rs2: x20 = 0x25e476ea
    319c:	0001aa03          	lw	x20,0(x3)
    31a0:	00418193          	addi	x3,x3,4

000031a4 <I_sub_cg_cmp_rs1_rs2_b20>:
I_sub_cg_cmp_rs1_rs2_b20:
  sub x9, x20, x20 # perform operation
    31a4:	414a04b3          	sub	x9,x20,x20
  # Check if x9 contains the expected result. x2 is the signature ptr, x8 is the link ptr, x7 is a temp reg.
  RVTEST_SIGUPD(x2, x8, x7, x9, I_sub_cg_cmp_rs1_rs2_b20, I_sub_cg_cmp_rs1_rs2_b20_str)
    31a8:	00012383          	lw	x7,0(x2)
    31ac:	00938863          	beq	x7,x9,31bc <I_sub_cg_cmp_rs1_rs2_b20+0x18>
    31b0:	3440146f          	jal	x8,44f4 <failedtest_x8_x7>
    31b4:	000031a4          	.word	0x000031a4
    31b8:	0000d986          	.word	0x0000d986
    31bc:	00410113          	addi	x2,x2,4

# Testcase cmp_rs1_rs2 (Test rs1 = rs2 = x21)
  RVTEST_TESTDATA_LOAD_INT(x3, x21) # load rs1: x21 = 0x91d94d30
    31c0:	0001aa83          	lw	x21,0(x3)
    31c4:	00418193          	addi	x3,x3,4
  RVTEST_TESTDATA_LOAD_INT(x3, x21) # load rs2: x21 = 0xe8142d0c
    31c8:	0001aa83          	lw	x21,0(x3)
    31cc:	00418193          	addi	x3,x3,4

000031d0 <I_sub_cg_cmp_rs1_rs2_b21>:
I_sub_cg_cmp_rs1_rs2_b21:
  sub x24, x21, x21 # perform operation
    31d0:	415a8c33          	sub	x24,x21,x21
  # Check if x24 contains the expected result. x2 is the signature ptr, x8 is the link ptr, x7 is a temp reg.
  RVTEST_SIGUPD(x2, x8, x7, x24, I_sub_cg_cmp_rs1_rs2_b21, I_sub_cg_cmp_rs1_rs2_b21_str)
    31d4:	00012383          	lw	x7,0(x2)
    31d8:	01838863          	beq	x7,x24,31e8 <I_sub_cg_cmp_rs1_rs2_b21+0x18>
    31dc:	3180146f          	jal	x8,44f4 <failedtest_x8_x7>
    31e0:	000031d0          	.word	0x000031d0
    31e4:	0000d9bb          	.word	0x0000d9bb
    31e8:	00410113          	addi	x2,x2,4

# Testcase cmp_rs1_rs2 (Test rs1 = rs2 = x22)
  RVTEST_TESTDATA_LOAD_INT(x3, x22) # load rs1: x22 = 0x984d4807
    31ec:	0001ab03          	lw	x22,0(x3)
    31f0:	00418193          	addi	x3,x3,4
  RVTEST_TESTDATA_LOAD_INT(x3, x22) # load rs2: x22 = 0xff61bf08
    31f4:	0001ab03          	lw	x22,0(x3)
    31f8:	00418193          	addi	x3,x3,4

000031fc <I_sub_cg_cmp_rs1_rs2_b22>:
I_sub_cg_cmp_rs1_rs2_b22:
  sub x5, x22, x22 # perform operation
    31fc:	416b02b3          	sub	x5,x22,x22
  # Check if x5 contains the expected result. x2 is the signature ptr, x8 is the link ptr, x7 is a temp reg.
  RVTEST_SIGUPD(x2, x8, x7, x5, I_sub_cg_cmp_rs1_rs2_b22, I_sub_cg_cmp_rs1_rs2_b22_str)
    3200:	00012383          	lw	x7,0(x2)
    3204:	00538863          	beq	x7,x5,3214 <I_sub_cg_cmp_rs1_rs2_b22+0x18>
    3208:	2ec0146f          	jal	x8,44f4 <failedtest_x8_x7>
    320c:	000031fc          	.word	0x000031fc
    3210:	0000d9f0          	.word	0x0000d9f0
    3214:	00410113          	addi	x2,x2,4

# Testcase cmp_rs1_rs2 (Test rs1 = rs2 = x23)
  RVTEST_TESTDATA_LOAD_INT(x3, x23) # load rs1: x23 = 0xc47d3c45
    3218:	0001ab83          	lw	x23,0(x3)
    321c:	00418193          	addi	x3,x3,4
  RVTEST_TESTDATA_LOAD_INT(x3, x23) # load rs2: x23 = 0x7ff8b446
    3220:	0001ab83          	lw	x23,0(x3)
    3224:	00418193          	addi	x3,x3,4

00003228 <I_sub_cg_cmp_rs1_rs2_b23>:
I_sub_cg_cmp_rs1_rs2_b23:
  sub x14, x23, x23 # perform operation
    3228:	417b8733          	sub	x14,x23,x23
  # Check if x14 contains the expected result. x2 is the signature ptr, x8 is the link ptr, x7 is a temp reg.
  RVTEST_SIGUPD(x2, x8, x7, x14, I_sub_cg_cmp_rs1_rs2_b23, I_sub_cg_cmp_rs1_rs2_b23_str)
    322c:	00012383          	lw	x7,0(x2)
    3230:	00e38863          	beq	x7,x14,3240 <I_sub_cg_cmp_rs1_rs2_b23+0x18>
    3234:	2c00146f          	jal	x8,44f4 <failedtest_x8_x7>
    3238:	00003228          	.word	0x00003228
    323c:	0000da25          	.word	0x0000da25
    3240:	00410113          	addi	x2,x2,4

# Testcase cmp_rs1_rs2 (Test rs1 = rs2 = x24)
  RVTEST_TESTDATA_LOAD_INT(x3, x24) # load rs1: x24 = 0x3dd8d833
    3244:	0001ac03          	lw	x24,0(x3)
    3248:	00418193          	addi	x3,x3,4
  RVTEST_TESTDATA_LOAD_INT(x3, x24) # load rs2: x24 = 0xc4dc0d74
    324c:	0001ac03          	lw	x24,0(x3)
    3250:	00418193          	addi	x3,x3,4

00003254 <I_sub_cg_cmp_rs1_rs2_b24>:
I_sub_cg_cmp_rs1_rs2_b24:
  sub x5, x24, x24 # perform operation
    3254:	418c02b3          	sub	x5,x24,x24
  # Check if x5 contains the expected result. x2 is the signature ptr, x8 is the link ptr, x7 is a temp reg.
  RVTEST_SIGUPD(x2, x8, x7, x5, I_sub_cg_cmp_rs1_rs2_b24, I_sub_cg_cmp_rs1_rs2_b24_str)
    3258:	00012383          	lw	x7,0(x2)
    325c:	00538863          	beq	x7,x5,326c <I_sub_cg_cmp_rs1_rs2_b24+0x18>
    3260:	2940146f          	jal	x8,44f4 <failedtest_x8_x7>
    3264:	00003254          	.word	0x00003254
    3268:	0000da5a          	.word	0x0000da5a
    326c:	00410113          	addi	x2,x2,4

# Testcase cmp_rs1_rs2 (Test rs1 = rs2 = x25)
  RVTEST_TESTDATA_LOAD_INT(x3, x25) # load rs1: x25 = 0xdd69852e
    3270:	0001ac83          	lw	x25,0(x3)
    3274:	00418193          	addi	x3,x3,4
  RVTEST_TESTDATA_LOAD_INT(x3, x25) # load rs2: x25 = 0x459fd880
    3278:	0001ac83          	lw	x25,0(x3)
    327c:	00418193          	addi	x3,x3,4

00003280 <I_sub_cg_cmp_rs1_rs2_b25>:
I_sub_cg_cmp_rs1_rs2_b25:
  sub x18, x25, x25 # perform operation
    3280:	419c8933          	sub	x18,x25,x25
  # Check if x18 contains the expected result. x2 is the signature ptr, x8 is the link ptr, x7 is a temp reg.
  RVTEST_SIGUPD(x2, x8, x7, x18, I_sub_cg_cmp_rs1_rs2_b25, I_sub_cg_cmp_rs1_rs2_b25_str)
    3284:	00012383          	lw	x7,0(x2)
    3288:	01238863          	beq	x7,x18,3298 <I_sub_cg_cmp_rs1_rs2_b25+0x18>
    328c:	2680146f          	jal	x8,44f4 <failedtest_x8_x7>
    3290:	00003280          	.word	0x00003280
    3294:	0000da8f          	.word	0x0000da8f
    3298:	00410113          	addi	x2,x2,4

# Testcase cmp_rs1_rs2 (Test rs1 = rs2 = x26)
  RVTEST_TESTDATA_LOAD_INT(x3, x26) # load rs1: x26 = 0x7cda77c0
    329c:	0001ad03          	lw	x26,0(x3)
    32a0:	00418193          	addi	x3,x3,4
  RVTEST_TESTDATA_LOAD_INT(x3, x26) # load rs2: x26 = 0xc0b09601
    32a4:	0001ad03          	lw	x26,0(x3)
    32a8:	00418193          	addi	x3,x3,4

000032ac <I_sub_cg_cmp_rs1_rs2_b26>:
I_sub_cg_cmp_rs1_rs2_b26:
  sub x22, x26, x26 # perform operation
    32ac:	41ad0b33          	sub	x22,x26,x26
  # Check if x22 contains the expected result. x2 is the signature ptr, x8 is the link ptr, x7 is a temp reg.
  RVTEST_SIGUPD(x2, x8, x7, x22, I_sub_cg_cmp_rs1_rs2_b26, I_sub_cg_cmp_rs1_rs2_b26_str)
    32b0:	00012383          	lw	x7,0(x2)
    32b4:	01638863          	beq	x7,x22,32c4 <I_sub_cg_cmp_rs1_rs2_b26+0x18>
    32b8:	23c0146f          	jal	x8,44f4 <failedtest_x8_x7>
    32bc:	000032ac          	.word	0x000032ac
    32c0:	0000dac4          	.word	0x0000dac4
    32c4:	00410113          	addi	x2,x2,4

# Testcase cmp_rs1_rs2 (Test rs1 = rs2 = x27)
  RVTEST_TESTDATA_LOAD_INT(x3, x27) # load rs1: x27 = 0x5b3dafe6
    32c8:	0001ad83          	lw	x27,0(x3)
    32cc:	00418193          	addi	x3,x3,4
  RVTEST_TESTDATA_LOAD_INT(x3, x27) # load rs2: x27 = 0x837f4996
    32d0:	0001ad83          	lw	x27,0(x3)
    32d4:	00418193          	addi	x3,x3,4

000032d8 <I_sub_cg_cmp_rs1_rs2_b27>:
I_sub_cg_cmp_rs1_rs2_b27:
  sub x12, x27, x27 # perform operation
    32d8:	41bd8633          	sub	x12,x27,x27
  # Check if x12 contains the expected result. x2 is the signature ptr, x8 is the link ptr, x7 is a temp reg.
  RVTEST_SIGUPD(x2, x8, x7, x12, I_sub_cg_cmp_rs1_rs2_b27, I_sub_cg_cmp_rs1_rs2_b27_str)
    32dc:	00012383          	lw	x7,0(x2)
    32e0:	00c38863          	beq	x7,x12,32f0 <I_sub_cg_cmp_rs1_rs2_b27+0x18>
    32e4:	2100146f          	jal	x8,44f4 <failedtest_x8_x7>
    32e8:	000032d8          	.word	0x000032d8
    32ec:	0000daf9          	.word	0x0000daf9
    32f0:	00410113          	addi	x2,x2,4

# Testcase cmp_rs1_rs2 (Test rs1 = rs2 = x28)
  RVTEST_TESTDATA_LOAD_INT(x3, x28) # load rs1: x28 = 0x8a0ce8c5
    32f4:	0001ae03          	lw	x28,0(x3)
    32f8:	00418193          	addi	x3,x3,4
  RVTEST_TESTDATA_LOAD_INT(x3, x28) # load rs2: x28 = 0xee6b9e72
    32fc:	0001ae03          	lw	x28,0(x3)
    3300:	00418193          	addi	x3,x3,4

00003304 <I_sub_cg_cmp_rs1_rs2_b28>:
I_sub_cg_cmp_rs1_rs2_b28:
  sub x24, x28, x28 # perform operation
    3304:	41ce0c33          	sub	x24,x28,x28
  # Check if x24 contains the expected result. x2 is the signature ptr, x8 is the link ptr, x7 is a temp reg.
  RVTEST_SIGUPD(x2, x8, x7, x24, I_sub_cg_cmp_rs1_rs2_b28, I_sub_cg_cmp_rs1_rs2_b28_str)
    3308:	00012383          	lw	x7,0(x2)
    330c:	01838863          	beq	x7,x24,331c <I_sub_cg_cmp_rs1_rs2_b28+0x18>
    3310:	1e40146f          	jal	x8,44f4 <failedtest_x8_x7>
    3314:	00003304          	.word	0x00003304
    3318:	0000db2e          	.word	0x0000db2e
    331c:	00410113          	addi	x2,x2,4

# Testcase cmp_rs1_rs2 (Test rs1 = rs2 = x29)
  RVTEST_TESTDATA_LOAD_INT(x3, x29) # load rs1: x29 = 0x531a67a5
    3320:	0001ae83          	lw	x29,0(x3)
    3324:	00418193          	addi	x3,x3,4
  RVTEST_TESTDATA_LOAD_INT(x3, x29) # load rs2: x29 = 0x5752dfad
    3328:	0001ae83          	lw	x29,0(x3)
    332c:	00418193          	addi	x3,x3,4

00003330 <I_sub_cg_cmp_rs1_rs2_b29>:
I_sub_cg_cmp_rs1_rs2_b29:
  sub x6, x29, x29 # perform operation
    3330:	41de8333          	sub	x6,x29,x29
  # Check if x6 contains the expected result. x2 is the signature ptr, x8 is the link ptr, x7 is a temp reg.
  RVTEST_SIGUPD(x2, x8, x7, x6, I_sub_cg_cmp_rs1_rs2_b29, I_sub_cg_cmp_rs1_rs2_b29_str)
    3334:	00012383          	lw	x7,0(x2)
    3338:	00638863          	beq	x7,x6,3348 <I_sub_cg_cmp_rs1_rs2_b29+0x18>
    333c:	1b80146f          	jal	x8,44f4 <failedtest_x8_x7>
    3340:	00003330          	.word	0x00003330
    3344:	0000db63          	.word	0x0000db63
    3348:	00410113          	addi	x2,x2,4

# Testcase cmp_rs1_rs2 (Test rs1 = rs2 = x30)
  RVTEST_TESTDATA_LOAD_INT(x3, x30) # load rs1: x30 = 0x1a2e3894
    334c:	0001af03          	lw	x30,0(x3)
    3350:	00418193          	addi	x3,x3,4
  RVTEST_TESTDATA_LOAD_INT(x3, x30) # load rs2: x30 = 0x6aa096f5
    3354:	0001af03          	lw	x30,0(x3)
    3358:	00418193          	addi	x3,x3,4

0000335c <I_sub_cg_cmp_rs1_rs2_b30>:
I_sub_cg_cmp_rs1_rs2_b30:
  sub x25, x30, x30 # perform operation
    335c:	41ef0cb3          	sub	x25,x30,x30
  # Check if x25 contains the expected result. x2 is the signature ptr, x8 is the link ptr, x7 is a temp reg.
  RVTEST_SIGUPD(x2, x8, x7, x25, I_sub_cg_cmp_rs1_rs2_b30, I_sub_cg_cmp_rs1_rs2_b30_str)
    3360:	00012383          	lw	x7,0(x2)
    3364:	01938863          	beq	x7,x25,3374 <I_sub_cg_cmp_rs1_rs2_b30+0x18>
    3368:	18c0146f          	jal	x8,44f4 <failedtest_x8_x7>
    336c:	0000335c          	.word	0x0000335c
    3370:	0000db98          	.word	0x0000db98
    3374:	00410113          	addi	x2,x2,4

# Testcase cmp_rs1_rs2 (Test rs1 = rs2 = x31)
  RVTEST_TESTDATA_LOAD_INT(x3, x31) # load rs1: x31 = 0x8d9961de
    3378:	0001af83          	lw	x31,0(x3)
    337c:	00418193          	addi	x3,x3,4
  RVTEST_TESTDATA_LOAD_INT(x3, x31) # load rs2: x31 = 0x4595a881
    3380:	0001af83          	lw	x31,0(x3)
    3384:	00418193          	addi	x3,x3,4

00003388 <I_sub_cg_cmp_rs1_rs2_b31>:
I_sub_cg_cmp_rs1_rs2_b31:
  sub x18, x31, x31 # perform operation
    3388:	41ff8933          	sub	x18,x31,x31
  # Check if x18 contains the expected result. x2 is the signature ptr, x8 is the link ptr, x7 is a temp reg.
  RVTEST_SIGUPD(x2, x8, x7, x18, I_sub_cg_cmp_rs1_rs2_b31, I_sub_cg_cmp_rs1_rs2_b31_str)
    338c:	00012383          	lw	x7,0(x2)
    3390:	01238863          	beq	x7,x18,33a0 <I_sub_cg_cmp_rs1_rs2_b31+0x18>
    3394:	1600146f          	jal	x8,44f4 <failedtest_x8_x7>
    3398:	00003388          	.word	0x00003388
    339c:	0000dbcd          	.word	0x0000dbcd
    33a0:	00410113          	addi	x2,x2,4
/////////////////////////////////
// cmp_rd_rs1
/////////////////////////////////

# Testcase cmp_rd_rs1 (Test rd = rs1 = x0)
  RVTEST_TESTDATA_LOAD_INT(x3, x0) # load rs1: x0 = 0x744e95f2
    33a4:	0001a003          	lw	x0,0(x3)
    33a8:	00418193          	addi	x3,x3,4
  RVTEST_TESTDATA_LOAD_INT(x3, x22) # load rs2: x22 = 0x81181023
    33ac:	0001ab03          	lw	x22,0(x3)
    33b0:	00418193          	addi	x3,x3,4

000033b4 <I_sub_cg_cmp_rd_rs1_b0>:
I_sub_cg_cmp_rd_rs1_b0:
  sub x0, x0, x22 # perform operation
    33b4:	41600033          	sub	x0,x0,x22
  # Check if x0 contains the expected result. x2 is the signature ptr, x8 is the link ptr, x7 is a temp reg.
  RVTEST_SIGUPD(x2, x8, x7, x0, I_sub_cg_cmp_rd_rs1_b0, I_sub_cg_cmp_rd_rs1_b0_str)
    33b8:	00012383          	lw	x7,0(x2)
    33bc:	00038863          	beq	x7,x0,33cc <I_sub_cg_cmp_rd_rs1_b0+0x18>
    33c0:	1340146f          	jal	x8,44f4 <failedtest_x8_x7>
    33c4:	000033b4          	.word	0x000033b4
    33c8:	0000dc02          	.word	0x0000dc02
    33cc:	00410113          	addi	x2,x2,4

# Testcase cmp_rd_rs1 (Test rd = rs1 = x1)
  RVTEST_TESTDATA_LOAD_INT(x3, x1) # load rs1: x1 = 0x6ff036f4
    33d0:	0001a083          	lw	x1,0(x3)
    33d4:	00418193          	addi	x3,x3,4
  RVTEST_TESTDATA_LOAD_INT(x3, x28) # load rs2: x28 = 0xeb6a97e7
    33d8:	0001ae03          	lw	x28,0(x3)
    33dc:	00418193          	addi	x3,x3,4

000033e0 <I_sub_cg_cmp_rd_rs1_b1>:
I_sub_cg_cmp_rd_rs1_b1:
  sub x1, x1, x28 # perform operation
    33e0:	41c080b3          	sub	x1,x1,x28
  # Check if x1 contains the expected result. x2 is the signature ptr, x8 is the link ptr, x7 is a temp reg.
  RVTEST_SIGUPD(x2, x8, x7, x1, I_sub_cg_cmp_rd_rs1_b1, I_sub_cg_cmp_rd_rs1_b1_str)
    33e4:	00012383          	lw	x7,0(x2)
    33e8:	00138863          	beq	x7,x1,33f8 <I_sub_cg_cmp_rd_rs1_b1+0x18>
    33ec:	1080146f          	jal	x8,44f4 <failedtest_x8_x7>
    33f0:	000033e0          	.word	0x000033e0
    33f4:	0000dc35          	.word	0x0000dc35
    33f8:	00410113          	addi	x2,x2,4

  mv x24, x2 # switch signature pointer register to avoid conflict with test
    33fc:	00010c13          	addi	x24,x2,0
# Testcase cmp_rd_rs1 (Test rd = rs1 = x2)
  RVTEST_TESTDATA_LOAD_INT(x3, x2) # load rs1: x2 = 0xd33c0ce0
    3400:	0001a103          	lw	x2,0(x3)
    3404:	00418193          	addi	x3,x3,4
  RVTEST_TESTDATA_LOAD_INT(x3, x30) # load rs2: x30 = 0xe274e3f9
    3408:	0001af03          	lw	x30,0(x3)
    340c:	00418193          	addi	x3,x3,4

00003410 <I_sub_cg_cmp_rd_rs1_b2>:
I_sub_cg_cmp_rd_rs1_b2:
  sub x2, x2, x30 # perform operation
    3410:	41e10133          	sub	x2,x2,x30
  # Check if x2 contains the expected result. x24 is the signature ptr, x8 is the link ptr, x7 is a temp reg.
  RVTEST_SIGUPD(x24, x8, x7, x2, I_sub_cg_cmp_rd_rs1_b2, I_sub_cg_cmp_rd_rs1_b2_str)
    3414:	000c2383          	lw	x7,0(x24)
    3418:	00238863          	beq	x7,x2,3428 <I_sub_cg_cmp_rd_rs1_b2+0x18>
    341c:	0d80146f          	jal	x8,44f4 <failedtest_x8_x7>
    3420:	00003410          	.word	0x00003410
    3424:	0000dc68          	.word	0x0000dc68
    3428:	004c0c13          	addi	x24,x24,4

  mv x29, x3 # switch data pointer register to avoid conflict with test
    342c:	00018e93          	addi	x29,x3,0
# Testcase cmp_rd_rs1 (Test rd = rs1 = x3)
  RVTEST_TESTDATA_LOAD_INT(x29, x3) # load rs1: x3 = 0x24f0dfd8
    3430:	000ea183          	lw	x3,0(x29)
    3434:	004e8e93          	addi	x29,x29,4
  RVTEST_TESTDATA_LOAD_INT(x29, x4) # load rs2: x4 = 0x50ff46b2
    3438:	000ea203          	lw	x4,0(x29)
    343c:	004e8e93          	addi	x29,x29,4

00003440 <I_sub_cg_cmp_rd_rs1_b3>:
I_sub_cg_cmp_rd_rs1_b3:
  sub x3, x3, x4 # perform operation
    3440:	404181b3          	sub	x3,x3,x4
  # Check if x3 contains the expected result. x24 is the signature ptr, x8 is the link ptr, x7 is a temp reg.
  RVTEST_SIGUPD(x24, x8, x7, x3, I_sub_cg_cmp_rd_rs1_b3, I_sub_cg_cmp_rd_rs1_b3_str)
    3444:	000c2383          	lw	x7,0(x24)
    3448:	00338863          	beq	x7,x3,3458 <I_sub_cg_cmp_rd_rs1_b3+0x18>
    344c:	0a80146f          	jal	x8,44f4 <failedtest_x8_x7>
    3450:	00003440          	.word	0x00003440
    3454:	0000dc9b          	.word	0x0000dc9b
    3458:	004c0c13          	addi	x24,x24,4

# Testcase cmp_rd_rs1 (Test rd = rs1 = x4)
  RVTEST_TESTDATA_LOAD_INT(x29, x4) # load rs1: x4 = 0x3237893d
    345c:	000ea203          	lw	x4,0(x29)
    3460:	004e8e93          	addi	x29,x29,4
  RVTEST_TESTDATA_LOAD_INT(x29, x12) # load rs2: x12 = 0x43825085
    3464:	000ea603          	lw	x12,0(x29)
    3468:	004e8e93          	addi	x29,x29,4

0000346c <I_sub_cg_cmp_rd_rs1_b4>:
I_sub_cg_cmp_rd_rs1_b4:
  sub x4, x4, x12 # perform operation
    346c:	40c20233          	sub	x4,x4,x12
  # Check if x4 contains the expected result. x24 is the signature ptr, x8 is the link ptr, x7 is a temp reg.
  RVTEST_SIGUPD(x24, x8, x7, x4, I_sub_cg_cmp_rd_rs1_b4, I_sub_cg_cmp_rd_rs1_b4_str)
    3470:	000c2383          	lw	x7,0(x24)
    3474:	00438863          	beq	x7,x4,3484 <I_sub_cg_cmp_rd_rs1_b4+0x18>
    3478:	07c0146f          	jal	x8,44f4 <failedtest_x8_x7>
    347c:	0000346c          	.word	0x0000346c
    3480:	0000dcce          	.word	0x0000dcce
    3484:	004c0c13          	addi	x24,x24,4

# Testcase cmp_rd_rs1 (Test rd = rs1 = x5)
  RVTEST_TESTDATA_LOAD_INT(x29, x5) # load rs1: x5 = 0x87b7483f
    3488:	000ea283          	lw	x5,0(x29)
    348c:	004e8e93          	addi	x29,x29,4
  RVTEST_TESTDATA_LOAD_INT(x29, x21) # load rs2: x21 = 0x0a608aa6
    3490:	000eaa83          	lw	x21,0(x29)
    3494:	004e8e93          	addi	x29,x29,4

00003498 <I_sub_cg_cmp_rd_rs1_b5>:
I_sub_cg_cmp_rd_rs1_b5:
  sub x5, x5, x21 # perform operation
    3498:	415282b3          	sub	x5,x5,x21
  # Check if x5 contains the expected result. x24 is the signature ptr, x8 is the link ptr, x7 is a temp reg.
  RVTEST_SIGUPD(x24, x8, x7, x5, I_sub_cg_cmp_rd_rs1_b5, I_sub_cg_cmp_rd_rs1_b5_str)
    349c:	000c2383          	lw	x7,0(x24)
    34a0:	00538863          	beq	x7,x5,34b0 <I_sub_cg_cmp_rd_rs1_b5+0x18>
    34a4:	0500146f          	jal	x8,44f4 <failedtest_x8_x7>
    34a8:	00003498          	.word	0x00003498
    34ac:	0000dd01          	.word	0x0000dd01
    34b0:	004c0c13          	addi	x24,x24,4

# Testcase cmp_rd_rs1 (Test rd = rs1 = x6)
  RVTEST_TESTDATA_LOAD_INT(x29, x6) # load rs1: x6 = 0xdbba50ae
    34b4:	000ea303          	lw	x6,0(x29)
    34b8:	004e8e93          	addi	x29,x29,4
  RVTEST_TESTDATA_LOAD_INT(x29, x14) # load rs2: x14 = 0x0ce010dc
    34bc:	000ea703          	lw	x14,0(x29)
    34c0:	004e8e93          	addi	x29,x29,4

000034c4 <I_sub_cg_cmp_rd_rs1_b6>:
I_sub_cg_cmp_rd_rs1_b6:
  sub x6, x6, x14 # perform operation
    34c4:	40e30333          	sub	x6,x6,x14
  # Check if x6 contains the expected result. x24 is the signature ptr, x8 is the link ptr, x7 is a temp reg.
  RVTEST_SIGUPD(x24, x8, x7, x6, I_sub_cg_cmp_rd_rs1_b6, I_sub_cg_cmp_rd_rs1_b6_str)
    34c8:	000c2383          	lw	x7,0(x24)
    34cc:	00638863          	beq	x7,x6,34dc <I_sub_cg_cmp_rd_rs1_b6+0x18>
    34d0:	0240146f          	jal	x8,44f4 <failedtest_x8_x7>
    34d4:	000034c4          	.word	0x000034c4
    34d8:	0000dd34          	.word	0x0000dd34
    34dc:	004c0c13          	addi	x24,x24,4

  mv x4, x7 # switch temp register to avoid conflict with test
    34e0:	00038213          	addi	x4,x7,0
  mv x5, x8 # switch link pointer register to avoid conflict with test
    34e4:	00040293          	addi	x5,x8,0
# Testcase cmp_rd_rs1 (Test rd = rs1 = x7)
  RVTEST_TESTDATA_LOAD_INT(x29, x7) # load rs1: x7 = 0xd1954f1a
    34e8:	000ea383          	lw	x7,0(x29)
    34ec:	004e8e93          	addi	x29,x29,4
  RVTEST_TESTDATA_LOAD_INT(x29, x26) # load rs2: x26 = 0x6810c5b2
    34f0:	000ead03          	lw	x26,0(x29)
    34f4:	004e8e93          	addi	x29,x29,4

000034f8 <I_sub_cg_cmp_rd_rs1_b7>:
I_sub_cg_cmp_rd_rs1_b7:
  sub x7, x7, x26 # perform operation
    34f8:	41a383b3          	sub	x7,x7,x26
  # Check if x7 contains the expected result. x24 is the signature ptr, x5 is the link ptr, x4 is a temp reg.
  RVTEST_SIGUPD(x24, x5, x4, x7, I_sub_cg_cmp_rd_rs1_b7, I_sub_cg_cmp_rd_rs1_b7_str)
    34fc:	000c2203          	lw	x4,0(x24)
    3500:	00720863          	beq	x4,x7,3510 <I_sub_cg_cmp_rd_rs1_b7+0x18>
    3504:	7d9002ef          	jal	x5,44dc <failedtest_x5_x4>
    3508:	000034f8          	.word	0x000034f8
    350c:	0000dd67          	.word	0x0000dd67
    3510:	004c0c13          	addi	x24,x24,4

# Testcase cmp_rd_rs1 (Test rd = rs1 = x8)
  RVTEST_TESTDATA_LOAD_INT(x29, x8) # load rs1: x8 = 0x18da680e
    3514:	000ea403          	lw	x8,0(x29)
    3518:	004e8e93          	addi	x29,x29,4
  RVTEST_TESTDATA_LOAD_INT(x29, x1) # load rs2: x1 = 0x84115c33
    351c:	000ea083          	lw	x1,0(x29)
    3520:	004e8e93          	addi	x29,x29,4

00003524 <I_sub_cg_cmp_rd_rs1_b8>:
I_sub_cg_cmp_rd_rs1_b8:
  sub x8, x8, x1 # perform operation
    3524:	40140433          	sub	x8,x8,x1
  # Check if x8 contains the expected result. x24 is the signature ptr, x5 is the link ptr, x4 is a temp reg.
  RVTEST_SIGUPD(x24, x5, x4, x8, I_sub_cg_cmp_rd_rs1_b8, I_sub_cg_cmp_rd_rs1_b8_str)
    3528:	000c2203          	lw	x4,0(x24)
    352c:	00820863          	beq	x4,x8,353c <I_sub_cg_cmp_rd_rs1_b8+0x18>
    3530:	7ad002ef          	jal	x5,44dc <failedtest_x5_x4>
    3534:	00003524          	.word	0x00003524
    3538:	0000dd9a          	.word	0x0000dd9a
    353c:	004c0c13          	addi	x24,x24,4

# Testcase cmp_rd_rs1 (Test rd = rs1 = x9)
  RVTEST_TESTDATA_LOAD_INT(x29, x9) # load rs1: x9 = 0x7c3f01ca
    3540:	000ea483          	lw	x9,0(x29)
    3544:	004e8e93          	addi	x29,x29,4
  RVTEST_TESTDATA_LOAD_INT(x29, x16) # load rs2: x16 = 0xb435d095
    3548:	000ea803          	lw	x16,0(x29)
    354c:	004e8e93          	addi	x29,x29,4

00003550 <I_sub_cg_cmp_rd_rs1_b9>:
I_sub_cg_cmp_rd_rs1_b9:
  sub x9, x9, x16 # perform operation
    3550:	410484b3          	sub	x9,x9,x16
  # Check if x9 contains the expected result. x24 is the signature ptr, x5 is the link ptr, x4 is a temp reg.
  RVTEST_SIGUPD(x24, x5, x4, x9, I_sub_cg_cmp_rd_rs1_b9, I_sub_cg_cmp_rd_rs1_b9_str)
    3554:	000c2203          	lw	x4,0(x24)
    3558:	00920863          	beq	x4,x9,3568 <I_sub_cg_cmp_rd_rs1_b9+0x18>
    355c:	781002ef          	jal	x5,44dc <failedtest_x5_x4>
    3560:	00003550          	.word	0x00003550
    3564:	0000ddcd          	.word	0x0000ddcd
    3568:	004c0c13          	addi	x24,x24,4

# Testcase cmp_rd_rs1 (Test rd = rs1 = x10)
  RVTEST_TESTDATA_LOAD_INT(x29, x10) # load rs1: x10 = 0xb0ce0b1b
    356c:	000ea503          	lw	x10,0(x29)
    3570:	004e8e93          	addi	x29,x29,4
  RVTEST_TESTDATA_LOAD_INT(x29, x3) # load rs2: x3 = 0x1e65dc79
    3574:	000ea183          	lw	x3,0(x29)
    3578:	004e8e93          	addi	x29,x29,4

0000357c <I_sub_cg_cmp_rd_rs1_b10>:
I_sub_cg_cmp_rd_rs1_b10:
  sub x10, x10, x3 # perform operation
    357c:	40350533          	sub	x10,x10,x3
  # Check if x10 contains the expected result. x24 is the signature ptr, x5 is the link ptr, x4 is a temp reg.
  RVTEST_SIGUPD(x24, x5, x4, x10, I_sub_cg_cmp_rd_rs1_b10, I_sub_cg_cmp_rd_rs1_b10_str)
    3580:	000c2203          	lw	x4,0(x24)
    3584:	00a20863          	beq	x4,x10,3594 <I_sub_cg_cmp_rd_rs1_b10+0x18>
    3588:	755002ef          	jal	x5,44dc <failedtest_x5_x4>
    358c:	0000357c          	.word	0x0000357c
    3590:	0000de00          	.word	0x0000de00
    3594:	004c0c13          	addi	x24,x24,4

# Testcase cmp_rd_rs1 (Test rd = rs1 = x11)
  RVTEST_TESTDATA_LOAD_INT(x29, x11) # load rs1: x11 = 0x3be5551a
    3598:	000ea583          	lw	x11,0(x29)
    359c:	004e8e93          	addi	x29,x29,4
  RVTEST_TESTDATA_LOAD_INT(x29, x3) # load rs2: x3 = 0x7c987110
    35a0:	000ea183          	lw	x3,0(x29)
    35a4:	004e8e93          	addi	x29,x29,4

000035a8 <I_sub_cg_cmp_rd_rs1_b11>:
I_sub_cg_cmp_rd_rs1_b11:
  sub x11, x11, x3 # perform operation
    35a8:	403585b3          	sub	x11,x11,x3
  # Check if x11 contains the expected result. x24 is the signature ptr, x5 is the link ptr, x4 is a temp reg.
  RVTEST_SIGUPD(x24, x5, x4, x11, I_sub_cg_cmp_rd_rs1_b11, I_sub_cg_cmp_rd_rs1_b11_str)
    35ac:	000c2203          	lw	x4,0(x24)
    35b0:	00b20863          	beq	x4,x11,35c0 <I_sub_cg_cmp_rd_rs1_b11+0x18>
    35b4:	729002ef          	jal	x5,44dc <failedtest_x5_x4>
    35b8:	000035a8          	.word	0x000035a8
    35bc:	0000de34          	.word	0x0000de34
    35c0:	004c0c13          	addi	x24,x24,4

# Testcase cmp_rd_rs1 (Test rd = rs1 = x12)
  RVTEST_TESTDATA_LOAD_INT(x29, x12) # load rs1: x12 = 0x8495460a
    35c4:	000ea603          	lw	x12,0(x29)
    35c8:	004e8e93          	addi	x29,x29,4
  RVTEST_TESTDATA_LOAD_INT(x29, x0) # load rs2: x0 = 0xb8c316c3
    35cc:	000ea003          	lw	x0,0(x29)
    35d0:	004e8e93          	addi	x29,x29,4

000035d4 <I_sub_cg_cmp_rd_rs1_b12>:
I_sub_cg_cmp_rd_rs1_b12:
  sub x12, x12, x0 # perform operation
    35d4:	40060633          	sub	x12,x12,x0
  # Check if x12 contains the expected result. x24 is the signature ptr, x5 is the link ptr, x4 is a temp reg.
  RVTEST_SIGUPD(x24, x5, x4, x12, I_sub_cg_cmp_rd_rs1_b12, I_sub_cg_cmp_rd_rs1_b12_str)
    35d8:	000c2203          	lw	x4,0(x24)
    35dc:	00c20863          	beq	x4,x12,35ec <I_sub_cg_cmp_rd_rs1_b12+0x18>
    35e0:	6fd002ef          	jal	x5,44dc <failedtest_x5_x4>
    35e4:	000035d4          	.word	0x000035d4
    35e8:	0000de68          	.word	0x0000de68
    35ec:	004c0c13          	addi	x24,x24,4

# Testcase cmp_rd_rs1 (Test rd = rs1 = x13)
  RVTEST_TESTDATA_LOAD_INT(x29, x13) # load rs1: x13 = 0x4cb38011
    35f0:	000ea683          	lw	x13,0(x29)
    35f4:	004e8e93          	addi	x29,x29,4
  RVTEST_TESTDATA_LOAD_INT(x29, x21) # load rs2: x21 = 0x4bf68f44
    35f8:	000eaa83          	lw	x21,0(x29)
    35fc:	004e8e93          	addi	x29,x29,4

00003600 <I_sub_cg_cmp_rd_rs1_b13>:
I_sub_cg_cmp_rd_rs1_b13:
  sub x13, x13, x21 # perform operation
    3600:	415686b3          	sub	x13,x13,x21
  # Check if x13 contains the expected result. x24 is the signature ptr, x5 is the link ptr, x4 is a temp reg.
  RVTEST_SIGUPD(x24, x5, x4, x13, I_sub_cg_cmp_rd_rs1_b13, I_sub_cg_cmp_rd_rs1_b13_str)
    3604:	000c2203          	lw	x4,0(x24)
    3608:	00d20863          	beq	x4,x13,3618 <I_sub_cg_cmp_rd_rs1_b13+0x18>
    360c:	6d1002ef          	jal	x5,44dc <failedtest_x5_x4>
    3610:	00003600          	.word	0x00003600
    3614:	0000de9c          	.word	0x0000de9c
    3618:	004c0c13          	addi	x24,x24,4

# Testcase cmp_rd_rs1 (Test rd = rs1 = x14)
  RVTEST_TESTDATA_LOAD_INT(x29, x14) # load rs1: x14 = 0xe38c48c3
    361c:	000ea703          	lw	x14,0(x29)
    3620:	004e8e93          	addi	x29,x29,4
  RVTEST_TESTDATA_LOAD_INT(x29, x18) # load rs2: x18 = 0x21bfb348
    3624:	000ea903          	lw	x18,0(x29)
    3628:	004e8e93          	addi	x29,x29,4

0000362c <I_sub_cg_cmp_rd_rs1_b14>:
I_sub_cg_cmp_rd_rs1_b14:
  sub x14, x14, x18 # perform operation
    362c:	41270733          	sub	x14,x14,x18
  # Check if x14 contains the expected result. x24 is the signature ptr, x5 is the link ptr, x4 is a temp reg.
  RVTEST_SIGUPD(x24, x5, x4, x14, I_sub_cg_cmp_rd_rs1_b14, I_sub_cg_cmp_rd_rs1_b14_str)
    3630:	000c2203          	lw	x4,0(x24)
    3634:	00e20863          	beq	x4,x14,3644 <I_sub_cg_cmp_rd_rs1_b14+0x18>
    3638:	6a5002ef          	jal	x5,44dc <failedtest_x5_x4>
    363c:	0000362c          	.word	0x0000362c
    3640:	0000ded0          	.word	0x0000ded0
    3644:	004c0c13          	addi	x24,x24,4

# Testcase cmp_rd_rs1 (Test rd = rs1 = x15)
  RVTEST_TESTDATA_LOAD_INT(x29, x15) # load rs1: x15 = 0x074fa541
    3648:	000ea783          	lw	x15,0(x29)
    364c:	004e8e93          	addi	x29,x29,4
  RVTEST_TESTDATA_LOAD_INT(x29, x21) # load rs2: x21 = 0x8be9405b
    3650:	000eaa83          	lw	x21,0(x29)
    3654:	004e8e93          	addi	x29,x29,4

00003658 <I_sub_cg_cmp_rd_rs1_b15>:
I_sub_cg_cmp_rd_rs1_b15:
  sub x15, x15, x21 # perform operation
    3658:	415787b3          	sub	x15,x15,x21
  # Check if x15 contains the expected result. x24 is the signature ptr, x5 is the link ptr, x4 is a temp reg.
  RVTEST_SIGUPD(x24, x5, x4, x15, I_sub_cg_cmp_rd_rs1_b15, I_sub_cg_cmp_rd_rs1_b15_str)
    365c:	000c2203          	lw	x4,0(x24)
    3660:	00f20863          	beq	x4,x15,3670 <I_sub_cg_cmp_rd_rs1_b15+0x18>
    3664:	679002ef          	jal	x5,44dc <failedtest_x5_x4>
    3668:	00003658          	.word	0x00003658
    366c:	0000df04          	.word	0x0000df04
    3670:	004c0c13          	addi	x24,x24,4

# Testcase cmp_rd_rs1 (Test rd = rs1 = x16)
  RVTEST_TESTDATA_LOAD_INT(x29, x16) # load rs1: x16 = 0xb726f4f7
    3674:	000ea803          	lw	x16,0(x29)
    3678:	004e8e93          	addi	x29,x29,4
  RVTEST_TESTDATA_LOAD_INT(x29, x30) # load rs2: x30 = 0x4501b956
    367c:	000eaf03          	lw	x30,0(x29)
    3680:	004e8e93          	addi	x29,x29,4

00003684 <I_sub_cg_cmp_rd_rs1_b16>:
I_sub_cg_cmp_rd_rs1_b16:
  sub x16, x16, x30 # perform operation
    3684:	41e80833          	sub	x16,x16,x30
  # Check if x16 contains the expected result. x24 is the signature ptr, x5 is the link ptr, x4 is a temp reg.
  RVTEST_SIGUPD(x24, x5, x4, x16, I_sub_cg_cmp_rd_rs1_b16, I_sub_cg_cmp_rd_rs1_b16_str)
    3688:	000c2203          	lw	x4,0(x24)
    368c:	01020863          	beq	x4,x16,369c <I_sub_cg_cmp_rd_rs1_b16+0x18>
    3690:	64d002ef          	jal	x5,44dc <failedtest_x5_x4>
    3694:	00003684          	.word	0x00003684
    3698:	0000df38          	.word	0x0000df38
    369c:	004c0c13          	addi	x24,x24,4

# Testcase cmp_rd_rs1 (Test rd = rs1 = x17)
  RVTEST_TESTDATA_LOAD_INT(x29, x17) # load rs1: x17 = 0x03df3cbe
    36a0:	000ea883          	lw	x17,0(x29)
    36a4:	004e8e93          	addi	x29,x29,4
  RVTEST_TESTDATA_LOAD_INT(x29, x22) # load rs2: x22 = 0x16982195
    36a8:	000eab03          	lw	x22,0(x29)
    36ac:	004e8e93          	addi	x29,x29,4

000036b0 <I_sub_cg_cmp_rd_rs1_b17>:
I_sub_cg_cmp_rd_rs1_b17:
  sub x17, x17, x22 # perform operation
    36b0:	416888b3          	sub	x17,x17,x22
  # Check if x17 contains the expected result. x24 is the signature ptr, x5 is the link ptr, x4 is a temp reg.
  RVTEST_SIGUPD(x24, x5, x4, x17, I_sub_cg_cmp_rd_rs1_b17, I_sub_cg_cmp_rd_rs1_b17_str)
    36b4:	000c2203          	lw	x4,0(x24)
    36b8:	01120863          	beq	x4,x17,36c8 <I_sub_cg_cmp_rd_rs1_b17+0x18>
    36bc:	621002ef          	jal	x5,44dc <failedtest_x5_x4>
    36c0:	000036b0          	.word	0x000036b0
    36c4:	0000df6c          	.word	0x0000df6c
    36c8:	004c0c13          	addi	x24,x24,4

# Testcase cmp_rd_rs1 (Test rd = rs1 = x18)
  RVTEST_TESTDATA_LOAD_INT(x29, x18) # load rs1: x18 = 0x3e2c9ec2
    36cc:	000ea903          	lw	x18,0(x29)
    36d0:	004e8e93          	addi	x29,x29,4
  RVTEST_TESTDATA_LOAD_INT(x29, x22) # load rs2: x22 = 0x4d02e29f
    36d4:	000eab03          	lw	x22,0(x29)
    36d8:	004e8e93          	addi	x29,x29,4

000036dc <I_sub_cg_cmp_rd_rs1_b18>:
I_sub_cg_cmp_rd_rs1_b18:
  sub x18, x18, x22 # perform operation
    36dc:	41690933          	sub	x18,x18,x22
  # Check if x18 contains the expected result. x24 is the signature ptr, x5 is the link ptr, x4 is a temp reg.
  RVTEST_SIGUPD(x24, x5, x4, x18, I_sub_cg_cmp_rd_rs1_b18, I_sub_cg_cmp_rd_rs1_b18_str)
    36e0:	000c2203          	lw	x4,0(x24)
    36e4:	01220863          	beq	x4,x18,36f4 <I_sub_cg_cmp_rd_rs1_b18+0x18>
    36e8:	5f5002ef          	jal	x5,44dc <failedtest_x5_x4>
    36ec:	000036dc          	.word	0x000036dc
    36f0:	0000dfa0          	.word	0x0000dfa0
    36f4:	004c0c13          	addi	x24,x24,4

# Testcase cmp_rd_rs1 (Test rd = rs1 = x19)
  RVTEST_TESTDATA_LOAD_INT(x29, x19) # load rs1: x19 = 0xcf9991c3
    36f8:	000ea983          	lw	x19,0(x29)
    36fc:	004e8e93          	addi	x29,x29,4
  RVTEST_TESTDATA_LOAD_INT(x29, x8) # load rs2: x8 = 0x58f06eae
    3700:	000ea403          	lw	x8,0(x29)
    3704:	004e8e93          	addi	x29,x29,4

00003708 <I_sub_cg_cmp_rd_rs1_b19>:
I_sub_cg_cmp_rd_rs1_b19:
  sub x19, x19, x8 # perform operation
    3708:	408989b3          	sub	x19,x19,x8
  # Check if x19 contains the expected result. x24 is the signature ptr, x5 is the link ptr, x4 is a temp reg.
  RVTEST_SIGUPD(x24, x5, x4, x19, I_sub_cg_cmp_rd_rs1_b19, I_sub_cg_cmp_rd_rs1_b19_str)
    370c:	000c2203          	lw	x4,0(x24)
    3710:	01320863          	beq	x4,x19,3720 <I_sub_cg_cmp_rd_rs1_b19+0x18>
    3714:	5c9002ef          	jal	x5,44dc <failedtest_x5_x4>
    3718:	00003708          	.word	0x00003708
    371c:	0000dfd4          	.word	0x0000dfd4
    3720:	004c0c13          	addi	x24,x24,4

# Testcase cmp_rd_rs1 (Test rd = rs1 = x20)
  RVTEST_TESTDATA_LOAD_INT(x29, x20) # load rs1: x20 = 0x2bfe2d72
    3724:	000eaa03          	lw	x20,0(x29)
    3728:	004e8e93          	addi	x29,x29,4
  RVTEST_TESTDATA_LOAD_INT(x29, x2) # load rs2: x2 = 0x56aee3c1
    372c:	000ea103          	lw	x2,0(x29)
    3730:	004e8e93          	addi	x29,x29,4

00003734 <I_sub_cg_cmp_rd_rs1_b20>:
I_sub_cg_cmp_rd_rs1_b20:
  sub x20, x20, x2 # perform operation
    3734:	402a0a33          	sub	x20,x20,x2
  # Check if x20 contains the expected result. x24 is the signature ptr, x5 is the link ptr, x4 is a temp reg.
  RVTEST_SIGUPD(x24, x5, x4, x20, I_sub_cg_cmp_rd_rs1_b20, I_sub_cg_cmp_rd_rs1_b20_str)
    3738:	000c2203          	lw	x4,0(x24)
    373c:	01420863          	beq	x4,x20,374c <I_sub_cg_cmp_rd_rs1_b20+0x18>
    3740:	59d002ef          	jal	x5,44dc <failedtest_x5_x4>
    3744:	00003734          	.word	0x00003734
    3748:	0000e008          	.word	0x0000e008
    374c:	004c0c13          	addi	x24,x24,4

# Testcase cmp_rd_rs1 (Test rd = rs1 = x21)
  RVTEST_TESTDATA_LOAD_INT(x29, x21) # load rs1: x21 = 0xbf8bd47d
    3750:	000eaa83          	lw	x21,0(x29)
    3754:	004e8e93          	addi	x29,x29,4
  RVTEST_TESTDATA_LOAD_INT(x29, x14) # load rs2: x14 = 0xe4b1b72b
    3758:	000ea703          	lw	x14,0(x29)
    375c:	004e8e93          	addi	x29,x29,4

00003760 <I_sub_cg_cmp_rd_rs1_b21>:
I_sub_cg_cmp_rd_rs1_b21:
  sub x21, x21, x14 # perform operation
    3760:	40ea8ab3          	sub	x21,x21,x14
  # Check if x21 contains the expected result. x24 is the signature ptr, x5 is the link ptr, x4 is a temp reg.
  RVTEST_SIGUPD(x24, x5, x4, x21, I_sub_cg_cmp_rd_rs1_b21, I_sub_cg_cmp_rd_rs1_b21_str)
    3764:	000c2203          	lw	x4,0(x24)
    3768:	01520863          	beq	x4,x21,3778 <I_sub_cg_cmp_rd_rs1_b21+0x18>
    376c:	571002ef          	jal	x5,44dc <failedtest_x5_x4>
    3770:	00003760          	.word	0x00003760
    3774:	0000e03c          	.word	0x0000e03c
    3778:	004c0c13          	addi	x24,x24,4

# Testcase cmp_rd_rs1 (Test rd = rs1 = x22)
  RVTEST_TESTDATA_LOAD_INT(x29, x22) # load rs1: x22 = 0x44b510a3
    377c:	000eab03          	lw	x22,0(x29)
    3780:	004e8e93          	addi	x29,x29,4
  RVTEST_TESTDATA_LOAD_INT(x29, x19) # load rs2: x19 = 0x4ee53c70
    3784:	000ea983          	lw	x19,0(x29)
    3788:	004e8e93          	addi	x29,x29,4

0000378c <I_sub_cg_cmp_rd_rs1_b22>:
I_sub_cg_cmp_rd_rs1_b22:
  sub x22, x22, x19 # perform operation
    378c:	413b0b33          	sub	x22,x22,x19
  # Check if x22 contains the expected result. x24 is the signature ptr, x5 is the link ptr, x4 is a temp reg.
  RVTEST_SIGUPD(x24, x5, x4, x22, I_sub_cg_cmp_rd_rs1_b22, I_sub_cg_cmp_rd_rs1_b22_str)
    3790:	000c2203          	lw	x4,0(x24)
    3794:	01620863          	beq	x4,x22,37a4 <I_sub_cg_cmp_rd_rs1_b22+0x18>
    3798:	545002ef          	jal	x5,44dc <failedtest_x5_x4>
    379c:	0000378c          	.word	0x0000378c
    37a0:	0000e070          	.word	0x0000e070
    37a4:	004c0c13          	addi	x24,x24,4

# Testcase cmp_rd_rs1 (Test rd = rs1 = x23)
  RVTEST_TESTDATA_LOAD_INT(x29, x23) # load rs1: x23 = 0x51425bce
    37a8:	000eab83          	lw	x23,0(x29)
    37ac:	004e8e93          	addi	x29,x29,4
  RVTEST_TESTDATA_LOAD_INT(x29, x3) # load rs2: x3 = 0x6192e15d
    37b0:	000ea183          	lw	x3,0(x29)
    37b4:	004e8e93          	addi	x29,x29,4

000037b8 <I_sub_cg_cmp_rd_rs1_b23>:
I_sub_cg_cmp_rd_rs1_b23:
  sub x23, x23, x3 # perform operation
    37b8:	403b8bb3          	sub	x23,x23,x3
  # Check if x23 contains the expected result. x24 is the signature ptr, x5 is the link ptr, x4 is a temp reg.
  RVTEST_SIGUPD(x24, x5, x4, x23, I_sub_cg_cmp_rd_rs1_b23, I_sub_cg_cmp_rd_rs1_b23_str)
    37bc:	000c2203          	lw	x4,0(x24)
    37c0:	01720863          	beq	x4,x23,37d0 <I_sub_cg_cmp_rd_rs1_b23+0x18>
    37c4:	519002ef          	jal	x5,44dc <failedtest_x5_x4>
    37c8:	000037b8          	.word	0x000037b8
    37cc:	0000e0a4          	.word	0x0000e0a4
    37d0:	004c0c13          	addi	x24,x24,4

  mv x21, x24 # switch signature pointer register to avoid conflict with test
    37d4:	000c0a93          	addi	x21,x24,0
# Testcase cmp_rd_rs1 (Test rd = rs1 = x24)
  RVTEST_TESTDATA_LOAD_INT(x29, x24) # load rs1: x24 = 0x83cbb2e8
    37d8:	000eac03          	lw	x24,0(x29)
    37dc:	004e8e93          	addi	x29,x29,4
  RVTEST_TESTDATA_LOAD_INT(x29, x22) # load rs2: x22 = 0x0076962e
    37e0:	000eab03          	lw	x22,0(x29)
    37e4:	004e8e93          	addi	x29,x29,4

000037e8 <I_sub_cg_cmp_rd_rs1_b24>:
I_sub_cg_cmp_rd_rs1_b24:
  sub x24, x24, x22 # perform operation
    37e8:	416c0c33          	sub	x24,x24,x22
  # Check if x24 contains the expected result. x21 is the signature ptr, x5 is the link ptr, x4 is a temp reg.
  RVTEST_SIGUPD(x21, x5, x4, x24, I_sub_cg_cmp_rd_rs1_b24, I_sub_cg_cmp_rd_rs1_b24_str)
    37ec:	000aa203          	lw	x4,0(x21)
    37f0:	01820863          	beq	x4,x24,3800 <I_sub_cg_cmp_rd_rs1_b24+0x18>
    37f4:	4e9002ef          	jal	x5,44dc <failedtest_x5_x4>
    37f8:	000037e8          	.word	0x000037e8
    37fc:	0000e0d8          	.word	0x0000e0d8
    3800:	004a8a93          	addi	x21,x21,4

# Testcase cmp_rd_rs1 (Test rd = rs1 = x25)
  RVTEST_TESTDATA_LOAD_INT(x29, x25) # load rs1: x25 = 0xb411680f
    3804:	000eac83          	lw	x25,0(x29)
    3808:	004e8e93          	addi	x29,x29,4
  RVTEST_TESTDATA_LOAD_INT(x29, x12) # load rs2: x12 = 0xe16e10bf
    380c:	000ea603          	lw	x12,0(x29)
    3810:	004e8e93          	addi	x29,x29,4

00003814 <I_sub_cg_cmp_rd_rs1_b25>:
I_sub_cg_cmp_rd_rs1_b25:
  sub x25, x25, x12 # perform operation
    3814:	40cc8cb3          	sub	x25,x25,x12
  # Check if x25 contains the expected result. x21 is the signature ptr, x5 is the link ptr, x4 is a temp reg.
  RVTEST_SIGUPD(x21, x5, x4, x25, I_sub_cg_cmp_rd_rs1_b25, I_sub_cg_cmp_rd_rs1_b25_str)
    3818:	000aa203          	lw	x4,0(x21)
    381c:	01920863          	beq	x4,x25,382c <I_sub_cg_cmp_rd_rs1_b25+0x18>
    3820:	4bd002ef          	jal	x5,44dc <failedtest_x5_x4>
    3824:	00003814          	.word	0x00003814
    3828:	0000e10c          	.word	0x0000e10c
    382c:	004a8a93          	addi	x21,x21,4

# Testcase cmp_rd_rs1 (Test rd = rs1 = x26)
  RVTEST_TESTDATA_LOAD_INT(x29, x26) # load rs1: x26 = 0xcd577f1d
    3830:	000ead03          	lw	x26,0(x29)
    3834:	004e8e93          	addi	x29,x29,4
  RVTEST_TESTDATA_LOAD_INT(x29, x2) # load rs2: x2 = 0xa55d57f3
    3838:	000ea103          	lw	x2,0(x29)
    383c:	004e8e93          	addi	x29,x29,4

00003840 <I_sub_cg_cmp_rd_rs1_b26>:
I_sub_cg_cmp_rd_rs1_b26:
  sub x26, x26, x2 # perform operation
    3840:	402d0d33          	sub	x26,x26,x2
  # Check if x26 contains the expected result. x21 is the signature ptr, x5 is the link ptr, x4 is a temp reg.
  RVTEST_SIGUPD(x21, x5, x4, x26, I_sub_cg_cmp_rd_rs1_b26, I_sub_cg_cmp_rd_rs1_b26_str)
    3844:	000aa203          	lw	x4,0(x21)
    3848:	01a20863          	beq	x4,x26,3858 <I_sub_cg_cmp_rd_rs1_b26+0x18>
    384c:	491002ef          	jal	x5,44dc <failedtest_x5_x4>
    3850:	00003840          	.word	0x00003840
    3854:	0000e140          	.word	0x0000e140
    3858:	004a8a93          	addi	x21,x21,4

# Testcase cmp_rd_rs1 (Test rd = rs1 = x27)
  RVTEST_TESTDATA_LOAD_INT(x29, x27) # load rs1: x27 = 0xd7a090cb
    385c:	000ead83          	lw	x27,0(x29)
    3860:	004e8e93          	addi	x29,x29,4
  RVTEST_TESTDATA_LOAD_INT(x29, x17) # load rs2: x17 = 0xfd728d84
    3864:	000ea883          	lw	x17,0(x29)
    3868:	004e8e93          	addi	x29,x29,4

0000386c <I_sub_cg_cmp_rd_rs1_b27>:
I_sub_cg_cmp_rd_rs1_b27:
  sub x27, x27, x17 # perform operation
    386c:	411d8db3          	sub	x27,x27,x17
  # Check if x27 contains the expected result. x21 is the signature ptr, x5 is the link ptr, x4 is a temp reg.
  RVTEST_SIGUPD(x21, x5, x4, x27, I_sub_cg_cmp_rd_rs1_b27, I_sub_cg_cmp_rd_rs1_b27_str)
    3870:	000aa203          	lw	x4,0(x21)
    3874:	01b20863          	beq	x4,x27,3884 <I_sub_cg_cmp_rd_rs1_b27+0x18>
    3878:	465002ef          	jal	x5,44dc <failedtest_x5_x4>
    387c:	0000386c          	.word	0x0000386c
    3880:	0000e174          	.word	0x0000e174
    3884:	004a8a93          	addi	x21,x21,4

# Testcase cmp_rd_rs1 (Test rd = rs1 = x28)
  RVTEST_TESTDATA_LOAD_INT(x29, x28) # load rs1: x28 = 0x1af14f96
    3888:	000eae03          	lw	x28,0(x29)
    388c:	004e8e93          	addi	x29,x29,4
  RVTEST_TESTDATA_LOAD_INT(x29, x3) # load rs2: x3 = 0x3c60d5ff
    3890:	000ea183          	lw	x3,0(x29)
    3894:	004e8e93          	addi	x29,x29,4

00003898 <I_sub_cg_cmp_rd_rs1_b28>:
I_sub_cg_cmp_rd_rs1_b28:
  sub x28, x28, x3 # perform operation
    3898:	403e0e33          	sub	x28,x28,x3
  # Check if x28 contains the expected result. x21 is the signature ptr, x5 is the link ptr, x4 is a temp reg.
  RVTEST_SIGUPD(x21, x5, x4, x28, I_sub_cg_cmp_rd_rs1_b28, I_sub_cg_cmp_rd_rs1_b28_str)
    389c:	000aa203          	lw	x4,0(x21)
    38a0:	01c20863          	beq	x4,x28,38b0 <I_sub_cg_cmp_rd_rs1_b28+0x18>
    38a4:	439002ef          	jal	x5,44dc <failedtest_x5_x4>
    38a8:	00003898          	.word	0x00003898
    38ac:	0000e1a8          	.word	0x0000e1a8
    38b0:	004a8a93          	addi	x21,x21,4

  mv x6, x29 # switch data pointer register to avoid conflict with test
    38b4:	000e8313          	addi	x6,x29,0
# Testcase cmp_rd_rs1 (Test rd = rs1 = x29)
  RVTEST_TESTDATA_LOAD_INT(x6, x29) # load rs1: x29 = 0x08ec2020
    38b8:	00032e83          	lw	x29,0(x6)
    38bc:	00430313          	addi	x6,x6,4
  RVTEST_TESTDATA_LOAD_INT(x6, x25) # load rs2: x25 = 0x5eb32950
    38c0:	00032c83          	lw	x25,0(x6)
    38c4:	00430313          	addi	x6,x6,4

000038c8 <I_sub_cg_cmp_rd_rs1_b29>:
I_sub_cg_cmp_rd_rs1_b29:
  sub x29, x29, x25 # perform operation
    38c8:	419e8eb3          	sub	x29,x29,x25
  # Check if x29 contains the expected result. x21 is the signature ptr, x5 is the link ptr, x4 is a temp reg.
  RVTEST_SIGUPD(x21, x5, x4, x29, I_sub_cg_cmp_rd_rs1_b29, I_sub_cg_cmp_rd_rs1_b29_str)
    38cc:	000aa203          	lw	x4,0(x21)
    38d0:	01d20863          	beq	x4,x29,38e0 <I_sub_cg_cmp_rd_rs1_b29+0x18>
    38d4:	409002ef          	jal	x5,44dc <failedtest_x5_x4>
    38d8:	000038c8          	.word	0x000038c8
    38dc:	0000e1dc          	.word	0x0000e1dc
    38e0:	004a8a93          	addi	x21,x21,4

# Testcase cmp_rd_rs1 (Test rd = rs1 = x30)
  RVTEST_TESTDATA_LOAD_INT(x6, x30) # load rs1: x30 = 0xa6612c6c
    38e4:	00032f03          	lw	x30,0(x6)
    38e8:	00430313          	addi	x6,x6,4
  RVTEST_TESTDATA_LOAD_INT(x6, x7) # load rs2: x7 = 0xcf932f8a
    38ec:	00032383          	lw	x7,0(x6)
    38f0:	00430313          	addi	x6,x6,4

000038f4 <I_sub_cg_cmp_rd_rs1_b30>:
I_sub_cg_cmp_rd_rs1_b30:
  sub x30, x30, x7 # perform operation
    38f4:	407f0f33          	sub	x30,x30,x7
  # Check if x30 contains the expected result. x21 is the signature ptr, x5 is the link ptr, x4 is a temp reg.
  RVTEST_SIGUPD(x21, x5, x4, x30, I_sub_cg_cmp_rd_rs1_b30, I_sub_cg_cmp_rd_rs1_b30_str)
    38f8:	000aa203          	lw	x4,0(x21)
    38fc:	01e20863          	beq	x4,x30,390c <I_sub_cg_cmp_rd_rs1_b30+0x18>
    3900:	3dd002ef          	jal	x5,44dc <failedtest_x5_x4>
    3904:	000038f4          	.word	0x000038f4
    3908:	0000e210          	.word	0x0000e210
    390c:	004a8a93          	addi	x21,x21,4

# Testcase cmp_rd_rs1 (Test rd = rs1 = x31)
  RVTEST_TESTDATA_LOAD_INT(x6, x31) # load rs1: x31 = 0xe267ac98
    3910:	00032f83          	lw	x31,0(x6)
    3914:	00430313          	addi	x6,x6,4
  RVTEST_TESTDATA_LOAD_INT(x6, x14) # load rs2: x14 = 0x3a867260
    3918:	00032703          	lw	x14,0(x6)
    391c:	00430313          	addi	x6,x6,4

00003920 <I_sub_cg_cmp_rd_rs1_b31>:
I_sub_cg_cmp_rd_rs1_b31:
  sub x31, x31, x14 # perform operation
    3920:	40ef8fb3          	sub	x31,x31,x14
  # Check if x31 contains the expected result. x21 is the signature ptr, x5 is the link ptr, x4 is a temp reg.
  RVTEST_SIGUPD(x21, x5, x4, x31, I_sub_cg_cmp_rd_rs1_b31, I_sub_cg_cmp_rd_rs1_b31_str)
    3924:	000aa203          	lw	x4,0(x21)
    3928:	01f20863          	beq	x4,x31,3938 <I_sub_cg_cmp_rd_rs1_b31+0x18>
    392c:	3b1002ef          	jal	x5,44dc <failedtest_x5_x4>
    3930:	00003920          	.word	0x00003920
    3934:	0000e244          	.word	0x0000e244
    3938:	004a8a93          	addi	x21,x21,4
/////////////////////////////////
// cmp_rd_rs2
/////////////////////////////////

# Testcase cmp_rd_rs2 (Test rd = rs2 = x0)
  RVTEST_TESTDATA_LOAD_INT(x6, x29) # load rs1: x29 = 0xe9e19c47
    393c:	00032e83          	lw	x29,0(x6)
    3940:	00430313          	addi	x6,x6,4
  RVTEST_TESTDATA_LOAD_INT(x6, x0) # load rs2: x0 = 0xdf306af5
    3944:	00032003          	lw	x0,0(x6)
    3948:	00430313          	addi	x6,x6,4

0000394c <I_sub_cg_cmp_rd_rs2_b0>:
I_sub_cg_cmp_rd_rs2_b0:
  sub x0, x29, x0 # perform operation
    394c:	400e8033          	sub	x0,x29,x0
  # Check if x0 contains the expected result. x21 is the signature ptr, x5 is the link ptr, x4 is a temp reg.
  RVTEST_SIGUPD(x21, x5, x4, x0, I_sub_cg_cmp_rd_rs2_b0, I_sub_cg_cmp_rd_rs2_b0_str)
    3950:	000aa203          	lw	x4,0(x21)
    3954:	00020863          	beq	x4,x0,3964 <I_sub_cg_cmp_rd_rs2_b0+0x18>
    3958:	385002ef          	jal	x5,44dc <failedtest_x5_x4>
    395c:	0000394c          	.word	0x0000394c
    3960:	0000e278          	.word	0x0000e278
    3964:	004a8a93          	addi	x21,x21,4

# Testcase cmp_rd_rs2 (Test rd = rs2 = x1)
  RVTEST_TESTDATA_LOAD_INT(x6, x30) # load rs1: x30 = 0xbc0d168b
    3968:	00032f03          	lw	x30,0(x6)
    396c:	00430313          	addi	x6,x6,4
  RVTEST_TESTDATA_LOAD_INT(x6, x1) # load rs2: x1 = 0xaf57719d
    3970:	00032083          	lw	x1,0(x6)
    3974:	00430313          	addi	x6,x6,4

00003978 <I_sub_cg_cmp_rd_rs2_b1>:
I_sub_cg_cmp_rd_rs2_b1:
  sub x1, x30, x1 # perform operation
    3978:	401f00b3          	sub	x1,x30,x1
  # Check if x1 contains the expected result. x21 is the signature ptr, x5 is the link ptr, x4 is a temp reg.
  RVTEST_SIGUPD(x21, x5, x4, x1, I_sub_cg_cmp_rd_rs2_b1, I_sub_cg_cmp_rd_rs2_b1_str)
    397c:	000aa203          	lw	x4,0(x21)
    3980:	00120863          	beq	x4,x1,3990 <I_sub_cg_cmp_rd_rs2_b1+0x18>
    3984:	359002ef          	jal	x5,44dc <failedtest_x5_x4>
    3988:	00003978          	.word	0x00003978
    398c:	0000e2ab          	.word	0x0000e2ab
    3990:	004a8a93          	addi	x21,x21,4

# Testcase cmp_rd_rs2 (Test rd = rs2 = x2)
  RVTEST_TESTDATA_LOAD_INT(x6, x28) # load rs1: x28 = 0x63165d5a
    3994:	00032e03          	lw	x28,0(x6)
    3998:	00430313          	addi	x6,x6,4
  RVTEST_TESTDATA_LOAD_INT(x6, x2) # load rs2: x2 = 0x61ec5f82
    399c:	00032103          	lw	x2,0(x6)
    39a0:	00430313          	addi	x6,x6,4

000039a4 <I_sub_cg_cmp_rd_rs2_b2>:
I_sub_cg_cmp_rd_rs2_b2:
  sub x2, x28, x2 # perform operation
    39a4:	402e0133          	sub	x2,x28,x2
  # Check if x2 contains the expected result. x21 is the signature ptr, x5 is the link ptr, x4 is a temp reg.
  RVTEST_SIGUPD(x21, x5, x4, x2, I_sub_cg_cmp_rd_rs2_b2, I_sub_cg_cmp_rd_rs2_b2_str)
    39a8:	000aa203          	lw	x4,0(x21)
    39ac:	00220863          	beq	x4,x2,39bc <I_sub_cg_cmp_rd_rs2_b2+0x18>
    39b0:	32d002ef          	jal	x5,44dc <failedtest_x5_x4>
    39b4:	000039a4          	.word	0x000039a4
    39b8:	0000e2de          	.word	0x0000e2de
    39bc:	004a8a93          	addi	x21,x21,4

# Testcase cmp_rd_rs2 (Test rd = rs2 = x3)
  RVTEST_TESTDATA_LOAD_INT(x6, x27) # load rs1: x27 = 0x26afbbfa
    39c0:	00032d83          	lw	x27,0(x6)
    39c4:	00430313          	addi	x6,x6,4
  RVTEST_TESTDATA_LOAD_INT(x6, x3) # load rs2: x3 = 0x864b4ea1
    39c8:	00032183          	lw	x3,0(x6)
    39cc:	00430313          	addi	x6,x6,4

000039d0 <I_sub_cg_cmp_rd_rs2_b3>:
I_sub_cg_cmp_rd_rs2_b3:
  sub x3, x27, x3 # perform operation
    39d0:	403d81b3          	sub	x3,x27,x3
  # Check if x3 contains the expected result. x21 is the signature ptr, x5 is the link ptr, x4 is a temp reg.
  RVTEST_SIGUPD(x21, x5, x4, x3, I_sub_cg_cmp_rd_rs2_b3, I_sub_cg_cmp_rd_rs2_b3_str)
    39d4:	000aa203          	lw	x4,0(x21)
    39d8:	00320863          	beq	x4,x3,39e8 <I_sub_cg_cmp_rd_rs2_b3+0x18>
    39dc:	301002ef          	jal	x5,44dc <failedtest_x5_x4>
    39e0:	000039d0          	.word	0x000039d0
    39e4:	0000e311          	.word	0x0000e311
    39e8:	004a8a93          	addi	x21,x21,4

  mv x7, x4 # switch temp register to avoid conflict with test
    39ec:	00020393          	addi	x7,x4,0 # 0 <rvtest_entry_point>
  mv x8, x5 # switch link pointer register to avoid conflict with test
    39f0:	00028413          	addi	x8,x5,0
# Testcase cmp_rd_rs2 (Test rd = rs2 = x4)
  RVTEST_TESTDATA_LOAD_INT(x6, x3) # load rs1: x3 = 0xf44a4263
    39f4:	00032183          	lw	x3,0(x6)
    39f8:	00430313          	addi	x6,x6,4
  RVTEST_TESTDATA_LOAD_INT(x6, x4) # load rs2: x4 = 0x790b898f
    39fc:	00032203          	lw	x4,0(x6)
    3a00:	00430313          	addi	x6,x6,4

00003a04 <I_sub_cg_cmp_rd_rs2_b4>:
I_sub_cg_cmp_rd_rs2_b4:
  sub x4, x3, x4 # perform operation
    3a04:	40418233          	sub	x4,x3,x4
  # Check if x4 contains the expected result. x21 is the signature ptr, x8 is the link ptr, x7 is a temp reg.
  RVTEST_SIGUPD(x21, x8, x7, x4, I_sub_cg_cmp_rd_rs2_b4, I_sub_cg_cmp_rd_rs2_b4_str)
    3a08:	000aa383          	lw	x7,0(x21)
    3a0c:	00438863          	beq	x7,x4,3a1c <I_sub_cg_cmp_rd_rs2_b4+0x18>
    3a10:	2e50046f          	jal	x8,44f4 <failedtest_x8_x7>
    3a14:	00003a04          	.word	0x00003a04
    3a18:	0000e344          	.word	0x0000e344
    3a1c:	004a8a93          	addi	x21,x21,4

# Testcase cmp_rd_rs2 (Test rd = rs2 = x5)
  RVTEST_TESTDATA_LOAD_INT(x6, x10) # load rs1: x10 = 0x2120cf16
    3a20:	00032503          	lw	x10,0(x6)
    3a24:	00430313          	addi	x6,x6,4
  RVTEST_TESTDATA_LOAD_INT(x6, x5) # load rs2: x5 = 0xa73f0fcd
    3a28:	00032283          	lw	x5,0(x6)
    3a2c:	00430313          	addi	x6,x6,4

00003a30 <I_sub_cg_cmp_rd_rs2_b5>:
I_sub_cg_cmp_rd_rs2_b5:
  sub x5, x10, x5 # perform operation
    3a30:	405502b3          	sub	x5,x10,x5
  # Check if x5 contains the expected result. x21 is the signature ptr, x8 is the link ptr, x7 is a temp reg.
  RVTEST_SIGUPD(x21, x8, x7, x5, I_sub_cg_cmp_rd_rs2_b5, I_sub_cg_cmp_rd_rs2_b5_str)
    3a34:	000aa383          	lw	x7,0(x21)
    3a38:	00538863          	beq	x7,x5,3a48 <I_sub_cg_cmp_rd_rs2_b5+0x18>
    3a3c:	2b90046f          	jal	x8,44f4 <failedtest_x8_x7>
    3a40:	00003a30          	.word	0x00003a30
    3a44:	0000e377          	.word	0x0000e377
    3a48:	004a8a93          	addi	x21,x21,4

  mv x16, x6 # switch data pointer register to avoid conflict with test
    3a4c:	00030813          	addi	x16,x6,0
# Testcase cmp_rd_rs2 (Test rd = rs2 = x6)
  RVTEST_TESTDATA_LOAD_INT(x16, x23) # load rs1: x23 = 0x35ffac0a
    3a50:	00082b83          	lw	x23,0(x16)
    3a54:	00480813          	addi	x16,x16,4
  RVTEST_TESTDATA_LOAD_INT(x16, x6) # load rs2: x6 = 0xca3f8802
    3a58:	00082303          	lw	x6,0(x16)
    3a5c:	00480813          	addi	x16,x16,4

00003a60 <I_sub_cg_cmp_rd_rs2_b6>:
I_sub_cg_cmp_rd_rs2_b6:
  sub x6, x23, x6 # perform operation
    3a60:	406b8333          	sub	x6,x23,x6
  # Check if x6 contains the expected result. x21 is the signature ptr, x8 is the link ptr, x7 is a temp reg.
  RVTEST_SIGUPD(x21, x8, x7, x6, I_sub_cg_cmp_rd_rs2_b6, I_sub_cg_cmp_rd_rs2_b6_str)
    3a64:	000aa383          	lw	x7,0(x21)
    3a68:	00638863          	beq	x7,x6,3a78 <I_sub_cg_cmp_rd_rs2_b6+0x18>
    3a6c:	2890046f          	jal	x8,44f4 <failedtest_x8_x7>
    3a70:	00003a60          	.word	0x00003a60
    3a74:	0000e3aa          	.word	0x0000e3aa
    3a78:	004a8a93          	addi	x21,x21,4

  mv x13, x7 # switch temp register to avoid conflict with test
    3a7c:	00038693          	addi	x13,x7,0
  mv x14, x8 # switch link pointer register to avoid conflict with test
    3a80:	00040713          	addi	x14,x8,0
# Testcase cmp_rd_rs2 (Test rd = rs2 = x7)
  RVTEST_TESTDATA_LOAD_INT(x16, x1) # load rs1: x1 = 0x0b85fc63
    3a84:	00082083          	lw	x1,0(x16)
    3a88:	00480813          	addi	x16,x16,4
  RVTEST_TESTDATA_LOAD_INT(x16, x7) # load rs2: x7 = 0x65780366
    3a8c:	00082383          	lw	x7,0(x16)
    3a90:	00480813          	addi	x16,x16,4

00003a94 <I_sub_cg_cmp_rd_rs2_b7>:
I_sub_cg_cmp_rd_rs2_b7:
  sub x7, x1, x7 # perform operation
    3a94:	407083b3          	sub	x7,x1,x7
  # Check if x7 contains the expected result. x21 is the signature ptr, x14 is the link ptr, x13 is a temp reg.
  RVTEST_SIGUPD(x21, x14, x13, x7, I_sub_cg_cmp_rd_rs2_b7, I_sub_cg_cmp_rd_rs2_b7_str)
    3a98:	000aa683          	lw	x13,0(x21)
    3a9c:	00768863          	beq	x13,x7,3aac <I_sub_cg_cmp_rd_rs2_b7+0x18>
    3aa0:	27d0076f          	jal	x14,451c <failedtest_x14_x13>
    3aa4:	00003a94          	.word	0x00003a94
    3aa8:	0000e3dd          	.word	0x0000e3dd
    3aac:	004a8a93          	addi	x21,x21,4

# Testcase cmp_rd_rs2 (Test rd = rs2 = x8)
  RVTEST_TESTDATA_LOAD_INT(x16, x26) # load rs1: x26 = 0xf6c46210
    3ab0:	00082d03          	lw	x26,0(x16)
    3ab4:	00480813          	addi	x16,x16,4
  RVTEST_TESTDATA_LOAD_INT(x16, x8) # load rs2: x8 = 0x544a3dde
    3ab8:	00082403          	lw	x8,0(x16)
    3abc:	00480813          	addi	x16,x16,4

00003ac0 <I_sub_cg_cmp_rd_rs2_b8>:
I_sub_cg_cmp_rd_rs2_b8:
  sub x8, x26, x8 # perform operation
    3ac0:	408d0433          	sub	x8,x26,x8
  # Check if x8 contains the expected result. x21 is the signature ptr, x14 is the link ptr, x13 is a temp reg.
  RVTEST_SIGUPD(x21, x14, x13, x8, I_sub_cg_cmp_rd_rs2_b8, I_sub_cg_cmp_rd_rs2_b8_str)
    3ac4:	000aa683          	lw	x13,0(x21)
    3ac8:	00868863          	beq	x13,x8,3ad8 <I_sub_cg_cmp_rd_rs2_b8+0x18>
    3acc:	2510076f          	jal	x14,451c <failedtest_x14_x13>
    3ad0:	00003ac0          	.word	0x00003ac0
    3ad4:	0000e410          	.word	0x0000e410
    3ad8:	004a8a93          	addi	x21,x21,4

# Testcase cmp_rd_rs2 (Test rd = rs2 = x9)
  RVTEST_TESTDATA_LOAD_INT(x16, x5) # load rs1: x5 = 0xff567b15
    3adc:	00082283          	lw	x5,0(x16)
    3ae0:	00480813          	addi	x16,x16,4
  RVTEST_TESTDATA_LOAD_INT(x16, x9) # load rs2: x9 = 0x3abd5cbd
    3ae4:	00082483          	lw	x9,0(x16)
    3ae8:	00480813          	addi	x16,x16,4

00003aec <I_sub_cg_cmp_rd_rs2_b9>:
I_sub_cg_cmp_rd_rs2_b9:
  sub x9, x5, x9 # perform operation
    3aec:	409284b3          	sub	x9,x5,x9
  # Check if x9 contains the expected result. x21 is the signature ptr, x14 is the link ptr, x13 is a temp reg.
  RVTEST_SIGUPD(x21, x14, x13, x9, I_sub_cg_cmp_rd_rs2_b9, I_sub_cg_cmp_rd_rs2_b9_str)
    3af0:	000aa683          	lw	x13,0(x21)
    3af4:	00968863          	beq	x13,x9,3b04 <I_sub_cg_cmp_rd_rs2_b9+0x18>
    3af8:	2250076f          	jal	x14,451c <failedtest_x14_x13>
    3afc:	00003aec          	.word	0x00003aec
    3b00:	0000e443          	.word	0x0000e443
    3b04:	004a8a93          	addi	x21,x21,4

# Testcase cmp_rd_rs2 (Test rd = rs2 = x10)
  RVTEST_TESTDATA_LOAD_INT(x16, x15) # load rs1: x15 = 0x4fb8456c
    3b08:	00082783          	lw	x15,0(x16)
    3b0c:	00480813          	addi	x16,x16,4
  RVTEST_TESTDATA_LOAD_INT(x16, x10) # load rs2: x10 = 0x78b5f1c5
    3b10:	00082503          	lw	x10,0(x16)
    3b14:	00480813          	addi	x16,x16,4

00003b18 <I_sub_cg_cmp_rd_rs2_b10>:
I_sub_cg_cmp_rd_rs2_b10:
  sub x10, x15, x10 # perform operation
    3b18:	40a78533          	sub	x10,x15,x10
  # Check if x10 contains the expected result. x21 is the signature ptr, x14 is the link ptr, x13 is a temp reg.
  RVTEST_SIGUPD(x21, x14, x13, x10, I_sub_cg_cmp_rd_rs2_b10, I_sub_cg_cmp_rd_rs2_b10_str)
    3b1c:	000aa683          	lw	x13,0(x21)
    3b20:	00a68863          	beq	x13,x10,3b30 <I_sub_cg_cmp_rd_rs2_b10+0x18>
    3b24:	1f90076f          	jal	x14,451c <failedtest_x14_x13>
    3b28:	00003b18          	.word	0x00003b18
    3b2c:	0000e476          	.word	0x0000e476
    3b30:	004a8a93          	addi	x21,x21,4

# Testcase cmp_rd_rs2 (Test rd = rs2 = x11)
  RVTEST_TESTDATA_LOAD_INT(x16, x10) # load rs1: x10 = 0x9e86c537
    3b34:	00082503          	lw	x10,0(x16)
    3b38:	00480813          	addi	x16,x16,4
  RVTEST_TESTDATA_LOAD_INT(x16, x11) # load rs2: x11 = 0xaf405d63
    3b3c:	00082583          	lw	x11,0(x16)
    3b40:	00480813          	addi	x16,x16,4

00003b44 <I_sub_cg_cmp_rd_rs2_b11>:
I_sub_cg_cmp_rd_rs2_b11:
  sub x11, x10, x11 # perform operation
    3b44:	40b505b3          	sub	x11,x10,x11
  # Check if x11 contains the expected result. x21 is the signature ptr, x14 is the link ptr, x13 is a temp reg.
  RVTEST_SIGUPD(x21, x14, x13, x11, I_sub_cg_cmp_rd_rs2_b11, I_sub_cg_cmp_rd_rs2_b11_str)
    3b48:	000aa683          	lw	x13,0(x21)
    3b4c:	00b68863          	beq	x13,x11,3b5c <I_sub_cg_cmp_rd_rs2_b11+0x18>
    3b50:	1cd0076f          	jal	x14,451c <failedtest_x14_x13>
    3b54:	00003b44          	.word	0x00003b44
    3b58:	0000e4aa          	.word	0x0000e4aa
    3b5c:	004a8a93          	addi	x21,x21,4

# Testcase cmp_rd_rs2 (Test rd = rs2 = x12)
  RVTEST_TESTDATA_LOAD_INT(x16, x30) # load rs1: x30 = 0xbbe8729a
    3b60:	00082f03          	lw	x30,0(x16)
    3b64:	00480813          	addi	x16,x16,4
  RVTEST_TESTDATA_LOAD_INT(x16, x12) # load rs2: x12 = 0xbfc2b1b9
    3b68:	00082603          	lw	x12,0(x16)
    3b6c:	00480813          	addi	x16,x16,4

00003b70 <I_sub_cg_cmp_rd_rs2_b12>:
I_sub_cg_cmp_rd_rs2_b12:
  sub x12, x30, x12 # perform operation
    3b70:	40cf0633          	sub	x12,x30,x12
  # Check if x12 contains the expected result. x21 is the signature ptr, x14 is the link ptr, x13 is a temp reg.
  RVTEST_SIGUPD(x21, x14, x13, x12, I_sub_cg_cmp_rd_rs2_b12, I_sub_cg_cmp_rd_rs2_b12_str)
    3b74:	000aa683          	lw	x13,0(x21)
    3b78:	00c68863          	beq	x13,x12,3b88 <I_sub_cg_cmp_rd_rs2_b12+0x18>
    3b7c:	1a10076f          	jal	x14,451c <failedtest_x14_x13>
    3b80:	00003b70          	.word	0x00003b70
    3b84:	0000e4de          	.word	0x0000e4de
    3b88:	004a8a93          	addi	x21,x21,4

  mv x4, x13 # switch temp register to avoid conflict with test
    3b8c:	00068213          	addi	x4,x13,0
  mv x5, x14 # switch link pointer register to avoid conflict with test
    3b90:	00070293          	addi	x5,x14,0
# Testcase cmp_rd_rs2 (Test rd = rs2 = x13)
  RVTEST_TESTDATA_LOAD_INT(x16, x25) # load rs1: x25 = 0x0cda0a34
    3b94:	00082c83          	lw	x25,0(x16)
    3b98:	00480813          	addi	x16,x16,4
  RVTEST_TESTDATA_LOAD_INT(x16, x13) # load rs2: x13 = 0xee602d66
    3b9c:	00082683          	lw	x13,0(x16)
    3ba0:	00480813          	addi	x16,x16,4

00003ba4 <I_sub_cg_cmp_rd_rs2_b13>:
I_sub_cg_cmp_rd_rs2_b13:
  sub x13, x25, x13 # perform operation
    3ba4:	40dc86b3          	sub	x13,x25,x13
  # Check if x13 contains the expected result. x21 is the signature ptr, x5 is the link ptr, x4 is a temp reg.
  RVTEST_SIGUPD(x21, x5, x4, x13, I_sub_cg_cmp_rd_rs2_b13, I_sub_cg_cmp_rd_rs2_b13_str)
    3ba8:	000aa203          	lw	x4,0(x21)
    3bac:	00d20863          	beq	x4,x13,3bbc <I_sub_cg_cmp_rd_rs2_b13+0x18>
    3bb0:	12d002ef          	jal	x5,44dc <failedtest_x5_x4>
    3bb4:	00003ba4          	.word	0x00003ba4
    3bb8:	0000e512          	.word	0x0000e512
    3bbc:	004a8a93          	addi	x21,x21,4

# Testcase cmp_rd_rs2 (Test rd = rs2 = x14)
  RVTEST_TESTDATA_LOAD_INT(x16, x1) # load rs1: x1 = 0x6ebd367b
    3bc0:	00082083          	lw	x1,0(x16)
    3bc4:	00480813          	addi	x16,x16,4
  RVTEST_TESTDATA_LOAD_INT(x16, x14) # load rs2: x14 = 0x8ee1dabe
    3bc8:	00082703          	lw	x14,0(x16)
    3bcc:	00480813          	addi	x16,x16,4

00003bd0 <I_sub_cg_cmp_rd_rs2_b14>:
I_sub_cg_cmp_rd_rs2_b14:
  sub x14, x1, x14 # perform operation
    3bd0:	40e08733          	sub	x14,x1,x14
  # Check if x14 contains the expected result. x21 is the signature ptr, x5 is the link ptr, x4 is a temp reg.
  RVTEST_SIGUPD(x21, x5, x4, x14, I_sub_cg_cmp_rd_rs2_b14, I_sub_cg_cmp_rd_rs2_b14_str)
    3bd4:	000aa203          	lw	x4,0(x21)
    3bd8:	00e20863          	beq	x4,x14,3be8 <I_sub_cg_cmp_rd_rs2_b14+0x18>
    3bdc:	101002ef          	jal	x5,44dc <failedtest_x5_x4>
    3be0:	00003bd0          	.word	0x00003bd0
    3be4:	0000e546          	.word	0x0000e546
    3be8:	004a8a93          	addi	x21,x21,4

# Testcase cmp_rd_rs2 (Test rd = rs2 = x15)
  RVTEST_TESTDATA_LOAD_INT(x16, x29) # load rs1: x29 = 0x04784f51
    3bec:	00082e83          	lw	x29,0(x16)
    3bf0:	00480813          	addi	x16,x16,4
  RVTEST_TESTDATA_LOAD_INT(x16, x15) # load rs2: x15 = 0x2b6d9796
    3bf4:	00082783          	lw	x15,0(x16)
    3bf8:	00480813          	addi	x16,x16,4

00003bfc <I_sub_cg_cmp_rd_rs2_b15>:
I_sub_cg_cmp_rd_rs2_b15:
  sub x15, x29, x15 # perform operation
    3bfc:	40fe87b3          	sub	x15,x29,x15
  # Check if x15 contains the expected result. x21 is the signature ptr, x5 is the link ptr, x4 is a temp reg.
  RVTEST_SIGUPD(x21, x5, x4, x15, I_sub_cg_cmp_rd_rs2_b15, I_sub_cg_cmp_rd_rs2_b15_str)
    3c00:	000aa203          	lw	x4,0(x21)
    3c04:	00f20863          	beq	x4,x15,3c14 <I_sub_cg_cmp_rd_rs2_b15+0x18>
    3c08:	0d5002ef          	jal	x5,44dc <failedtest_x5_x4>
    3c0c:	00003bfc          	.word	0x00003bfc
    3c10:	0000e57a          	.word	0x0000e57a
    3c14:	004a8a93          	addi	x21,x21,4

  mv x27, x16 # switch data pointer register to avoid conflict with test
    3c18:	00080d93          	addi	x27,x16,0
# Testcase cmp_rd_rs2 (Test rd = rs2 = x16)
  RVTEST_TESTDATA_LOAD_INT(x27, x28) # load rs1: x28 = 0x6693d375
    3c1c:	000dae03          	lw	x28,0(x27)
    3c20:	004d8d93          	addi	x27,x27,4
  RVTEST_TESTDATA_LOAD_INT(x27, x16) # load rs2: x16 = 0x93ce5e1d
    3c24:	000da803          	lw	x16,0(x27)
    3c28:	004d8d93          	addi	x27,x27,4

00003c2c <I_sub_cg_cmp_rd_rs2_b16>:
I_sub_cg_cmp_rd_rs2_b16:
  sub x16, x28, x16 # perform operation
    3c2c:	410e0833          	sub	x16,x28,x16
  # Check if x16 contains the expected result. x21 is the signature ptr, x5 is the link ptr, x4 is a temp reg.
  RVTEST_SIGUPD(x21, x5, x4, x16, I_sub_cg_cmp_rd_rs2_b16, I_sub_cg_cmp_rd_rs2_b16_str)
    3c30:	000aa203          	lw	x4,0(x21)
    3c34:	01020863          	beq	x4,x16,3c44 <I_sub_cg_cmp_rd_rs2_b16+0x18>
    3c38:	0a5002ef          	jal	x5,44dc <failedtest_x5_x4>
    3c3c:	00003c2c          	.word	0x00003c2c
    3c40:	0000e5ae          	.word	0x0000e5ae
    3c44:	004a8a93          	addi	x21,x21,4

# Testcase cmp_rd_rs2 (Test rd = rs2 = x17)
  RVTEST_TESTDATA_LOAD_INT(x27, x30) # load rs1: x30 = 0xd1e08c55
    3c48:	000daf03          	lw	x30,0(x27)
    3c4c:	004d8d93          	addi	x27,x27,4
  RVTEST_TESTDATA_LOAD_INT(x27, x17) # load rs2: x17 = 0x00ed5333
    3c50:	000da883          	lw	x17,0(x27)
    3c54:	004d8d93          	addi	x27,x27,4

00003c58 <I_sub_cg_cmp_rd_rs2_b17>:
I_sub_cg_cmp_rd_rs2_b17:
  sub x17, x30, x17 # perform operation
    3c58:	411f08b3          	sub	x17,x30,x17
  # Check if x17 contains the expected result. x21 is the signature ptr, x5 is the link ptr, x4 is a temp reg.
  RVTEST_SIGUPD(x21, x5, x4, x17, I_sub_cg_cmp_rd_rs2_b17, I_sub_cg_cmp_rd_rs2_b17_str)
    3c5c:	000aa203          	lw	x4,0(x21)
    3c60:	01120863          	beq	x4,x17,3c70 <I_sub_cg_cmp_rd_rs2_b17+0x18>
    3c64:	079002ef          	jal	x5,44dc <failedtest_x5_x4>
    3c68:	00003c58          	.word	0x00003c58
    3c6c:	0000e5e2          	.word	0x0000e5e2
    3c70:	004a8a93          	addi	x21,x21,4

# Testcase cmp_rd_rs2 (Test rd = rs2 = x18)
  RVTEST_TESTDATA_LOAD_INT(x27, x6) # load rs1: x6 = 0xeaf34049
    3c74:	000da303          	lw	x6,0(x27)
    3c78:	004d8d93          	addi	x27,x27,4
  RVTEST_TESTDATA_LOAD_INT(x27, x18) # load rs2: x18 = 0xfdd327c4
    3c7c:	000da903          	lw	x18,0(x27)
    3c80:	004d8d93          	addi	x27,x27,4

00003c84 <I_sub_cg_cmp_rd_rs2_b18>:
I_sub_cg_cmp_rd_rs2_b18:
  sub x18, x6, x18 # perform operation
    3c84:	41230933          	sub	x18,x6,x18
  # Check if x18 contains the expected result. x21 is the signature ptr, x5 is the link ptr, x4 is a temp reg.
  RVTEST_SIGUPD(x21, x5, x4, x18, I_sub_cg_cmp_rd_rs2_b18, I_sub_cg_cmp_rd_rs2_b18_str)
    3c88:	000aa203          	lw	x4,0(x21)
    3c8c:	01220863          	beq	x4,x18,3c9c <I_sub_cg_cmp_rd_rs2_b18+0x18>
    3c90:	04d002ef          	jal	x5,44dc <failedtest_x5_x4>
    3c94:	00003c84          	.word	0x00003c84
    3c98:	0000e616          	.word	0x0000e616
    3c9c:	004a8a93          	addi	x21,x21,4

# Testcase cmp_rd_rs2 (Test rd = rs2 = x19)
  RVTEST_TESTDATA_LOAD_INT(x27, x10) # load rs1: x10 = 0x8051f65d
    3ca0:	000da503          	lw	x10,0(x27)
    3ca4:	004d8d93          	addi	x27,x27,4
  RVTEST_TESTDATA_LOAD_INT(x27, x19) # load rs2: x19 = 0xd7213940
    3ca8:	000da983          	lw	x19,0(x27)
    3cac:	004d8d93          	addi	x27,x27,4

00003cb0 <I_sub_cg_cmp_rd_rs2_b19>:
I_sub_cg_cmp_rd_rs2_b19:
  sub x19, x10, x19 # perform operation
    3cb0:	413509b3          	sub	x19,x10,x19
  # Check if x19 contains the expected result. x21 is the signature ptr, x5 is the link ptr, x4 is a temp reg.
  RVTEST_SIGUPD(x21, x5, x4, x19, I_sub_cg_cmp_rd_rs2_b19, I_sub_cg_cmp_rd_rs2_b19_str)
    3cb4:	000aa203          	lw	x4,0(x21)
    3cb8:	01320863          	beq	x4,x19,3cc8 <I_sub_cg_cmp_rd_rs2_b19+0x18>
    3cbc:	021002ef          	jal	x5,44dc <failedtest_x5_x4>
    3cc0:	00003cb0          	.word	0x00003cb0
    3cc4:	0000e64a          	.word	0x0000e64a
    3cc8:	004a8a93          	addi	x21,x21,4

# Testcase cmp_rd_rs2 (Test rd = rs2 = x20)
  RVTEST_TESTDATA_LOAD_INT(x27, x6) # load rs1: x6 = 0xa2dda70a
    3ccc:	000da303          	lw	x6,0(x27)
    3cd0:	004d8d93          	addi	x27,x27,4
  RVTEST_TESTDATA_LOAD_INT(x27, x20) # load rs2: x20 = 0x83f946a5
    3cd4:	000daa03          	lw	x20,0(x27)
    3cd8:	004d8d93          	addi	x27,x27,4

00003cdc <I_sub_cg_cmp_rd_rs2_b20>:
I_sub_cg_cmp_rd_rs2_b20:
  sub x20, x6, x20 # perform operation
    3cdc:	41430a33          	sub	x20,x6,x20
  # Check if x20 contains the expected result. x21 is the signature ptr, x5 is the link ptr, x4 is a temp reg.
  RVTEST_SIGUPD(x21, x5, x4, x20, I_sub_cg_cmp_rd_rs2_b20, I_sub_cg_cmp_rd_rs2_b20_str)
    3ce0:	000aa203          	lw	x4,0(x21)
    3ce4:	01420863          	beq	x4,x20,3cf4 <I_sub_cg_cmp_rd_rs2_b20+0x18>
    3ce8:	7f4002ef          	jal	x5,44dc <failedtest_x5_x4>
    3cec:	00003cdc          	.word	0x00003cdc
    3cf0:	0000e67e          	.word	0x0000e67e
    3cf4:	004a8a93          	addi	x21,x21,4

  mv x28, x21 # switch signature pointer register to avoid conflict with test
    3cf8:	000a8e13          	addi	x28,x21,0
# Testcase cmp_rd_rs2 (Test rd = rs2 = x21)
  RVTEST_TESTDATA_LOAD_INT(x27, x6) # load rs1: x6 = 0xefec3343
    3cfc:	000da303          	lw	x6,0(x27)
    3d00:	004d8d93          	addi	x27,x27,4
  RVTEST_TESTDATA_LOAD_INT(x27, x21) # load rs2: x21 = 0xa1a488ca
    3d04:	000daa83          	lw	x21,0(x27)
    3d08:	004d8d93          	addi	x27,x27,4

00003d0c <I_sub_cg_cmp_rd_rs2_b21>:
I_sub_cg_cmp_rd_rs2_b21:
  sub x21, x6, x21 # perform operation
    3d0c:	41530ab3          	sub	x21,x6,x21
  # Check if x21 contains the expected result. x28 is the signature ptr, x5 is the link ptr, x4 is a temp reg.
  RVTEST_SIGUPD(x28, x5, x4, x21, I_sub_cg_cmp_rd_rs2_b21, I_sub_cg_cmp_rd_rs2_b21_str)
    3d10:	000e2203          	lw	x4,0(x28)
    3d14:	01520863          	beq	x4,x21,3d24 <I_sub_cg_cmp_rd_rs2_b21+0x18>
    3d18:	7c4002ef          	jal	x5,44dc <failedtest_x5_x4>
    3d1c:	00003d0c          	.word	0x00003d0c
    3d20:	0000e6b2          	.word	0x0000e6b2
    3d24:	004e0e13          	addi	x28,x28,4

# Testcase cmp_rd_rs2 (Test rd = rs2 = x22)
  RVTEST_TESTDATA_LOAD_INT(x27, x29) # load rs1: x29 = 0xb5f3ce3f
    3d28:	000dae83          	lw	x29,0(x27)
    3d2c:	004d8d93          	addi	x27,x27,4
  RVTEST_TESTDATA_LOAD_INT(x27, x22) # load rs2: x22 = 0xa9562018
    3d30:	000dab03          	lw	x22,0(x27)
    3d34:	004d8d93          	addi	x27,x27,4

00003d38 <I_sub_cg_cmp_rd_rs2_b22>:
I_sub_cg_cmp_rd_rs2_b22:
  sub x22, x29, x22 # perform operation
    3d38:	416e8b33          	sub	x22,x29,x22
  # Check if x22 contains the expected result. x28 is the signature ptr, x5 is the link ptr, x4 is a temp reg.
  RVTEST_SIGUPD(x28, x5, x4, x22, I_sub_cg_cmp_rd_rs2_b22, I_sub_cg_cmp_rd_rs2_b22_str)
    3d3c:	000e2203          	lw	x4,0(x28)
    3d40:	01620863          	beq	x4,x22,3d50 <I_sub_cg_cmp_rd_rs2_b22+0x18>
    3d44:	798002ef          	jal	x5,44dc <failedtest_x5_x4>
    3d48:	00003d38          	.word	0x00003d38
    3d4c:	0000e6e6          	.word	0x0000e6e6
    3d50:	004e0e13          	addi	x28,x28,4

# Testcase cmp_rd_rs2 (Test rd = rs2 = x23)
  RVTEST_TESTDATA_LOAD_INT(x27, x22) # load rs1: x22 = 0xbc78e3da
    3d54:	000dab03          	lw	x22,0(x27)
    3d58:	004d8d93          	addi	x27,x27,4
  RVTEST_TESTDATA_LOAD_INT(x27, x23) # load rs2: x23 = 0x6c9c4945
    3d5c:	000dab83          	lw	x23,0(x27)
    3d60:	004d8d93          	addi	x27,x27,4

00003d64 <I_sub_cg_cmp_rd_rs2_b23>:
I_sub_cg_cmp_rd_rs2_b23:
  sub x23, x22, x23 # perform operation
    3d64:	417b0bb3          	sub	x23,x22,x23
  # Check if x23 contains the expected result. x28 is the signature ptr, x5 is the link ptr, x4 is a temp reg.
  RVTEST_SIGUPD(x28, x5, x4, x23, I_sub_cg_cmp_rd_rs2_b23, I_sub_cg_cmp_rd_rs2_b23_str)
    3d68:	000e2203          	lw	x4,0(x28)
    3d6c:	01720863          	beq	x4,x23,3d7c <I_sub_cg_cmp_rd_rs2_b23+0x18>
    3d70:	76c002ef          	jal	x5,44dc <failedtest_x5_x4>
    3d74:	00003d64          	.word	0x00003d64
    3d78:	0000e71a          	.word	0x0000e71a
    3d7c:	004e0e13          	addi	x28,x28,4

# Testcase cmp_rd_rs2 (Test rd = rs2 = x24)
  RVTEST_TESTDATA_LOAD_INT(x27, x30) # load rs1: x30 = 0xf4e2a601
    3d80:	000daf03          	lw	x30,0(x27)
    3d84:	004d8d93          	addi	x27,x27,4
  RVTEST_TESTDATA_LOAD_INT(x27, x24) # load rs2: x24 = 0x07f01d87
    3d88:	000dac03          	lw	x24,0(x27)
    3d8c:	004d8d93          	addi	x27,x27,4

00003d90 <I_sub_cg_cmp_rd_rs2_b24>:
I_sub_cg_cmp_rd_rs2_b24:
  sub x24, x30, x24 # perform operation
    3d90:	418f0c33          	sub	x24,x30,x24
  # Check if x24 contains the expected result. x28 is the signature ptr, x5 is the link ptr, x4 is a temp reg.
  RVTEST_SIGUPD(x28, x5, x4, x24, I_sub_cg_cmp_rd_rs2_b24, I_sub_cg_cmp_rd_rs2_b24_str)
    3d94:	000e2203          	lw	x4,0(x28)
    3d98:	01820863          	beq	x4,x24,3da8 <I_sub_cg_cmp_rd_rs2_b24+0x18>
    3d9c:	740002ef          	jal	x5,44dc <failedtest_x5_x4>
    3da0:	00003d90          	.word	0x00003d90
    3da4:	0000e74e          	.word	0x0000e74e
    3da8:	004e0e13          	addi	x28,x28,4

# Testcase cmp_rd_rs2 (Test rd = rs2 = x25)
  RVTEST_TESTDATA_LOAD_INT(x27, x3) # load rs1: x3 = 0x57ffce28
    3dac:	000da183          	lw	x3,0(x27)
    3db0:	004d8d93          	addi	x27,x27,4
  RVTEST_TESTDATA_LOAD_INT(x27, x25) # load rs2: x25 = 0x9e24fab0
    3db4:	000dac83          	lw	x25,0(x27)
    3db8:	004d8d93          	addi	x27,x27,4

00003dbc <I_sub_cg_cmp_rd_rs2_b25>:
I_sub_cg_cmp_rd_rs2_b25:
  sub x25, x3, x25 # perform operation
    3dbc:	41918cb3          	sub	x25,x3,x25
  # Check if x25 contains the expected result. x28 is the signature ptr, x5 is the link ptr, x4 is a temp reg.
  RVTEST_SIGUPD(x28, x5, x4, x25, I_sub_cg_cmp_rd_rs2_b25, I_sub_cg_cmp_rd_rs2_b25_str)
    3dc0:	000e2203          	lw	x4,0(x28)
    3dc4:	01920863          	beq	x4,x25,3dd4 <I_sub_cg_cmp_rd_rs2_b25+0x18>
    3dc8:	714002ef          	jal	x5,44dc <failedtest_x5_x4>
    3dcc:	00003dbc          	.word	0x00003dbc
    3dd0:	0000e782          	.word	0x0000e782
    3dd4:	004e0e13          	addi	x28,x28,4

# Testcase cmp_rd_rs2 (Test rd = rs2 = x26)
  RVTEST_TESTDATA_LOAD_INT(x27, x18) # load rs1: x18 = 0x87cedfc1
    3dd8:	000da903          	lw	x18,0(x27)
    3ddc:	004d8d93          	addi	x27,x27,4
  RVTEST_TESTDATA_LOAD_INT(x27, x26) # load rs2: x26 = 0x7e7c4f54
    3de0:	000dad03          	lw	x26,0(x27)
    3de4:	004d8d93          	addi	x27,x27,4

00003de8 <I_sub_cg_cmp_rd_rs2_b26>:
I_sub_cg_cmp_rd_rs2_b26:
  sub x26, x18, x26 # perform operation
    3de8:	41a90d33          	sub	x26,x18,x26
  # Check if x26 contains the expected result. x28 is the signature ptr, x5 is the link ptr, x4 is a temp reg.
  RVTEST_SIGUPD(x28, x5, x4, x26, I_sub_cg_cmp_rd_rs2_b26, I_sub_cg_cmp_rd_rs2_b26_str)
    3dec:	000e2203          	lw	x4,0(x28)
    3df0:	01a20863          	beq	x4,x26,3e00 <I_sub_cg_cmp_rd_rs2_b26+0x18>
    3df4:	6e8002ef          	jal	x5,44dc <failedtest_x5_x4>
    3df8:	00003de8          	.word	0x00003de8
    3dfc:	0000e7b6          	.word	0x0000e7b6
    3e00:	004e0e13          	addi	x28,x28,4

  mv x23, x27 # switch data pointer register to avoid conflict with test
    3e04:	000d8b93          	addi	x23,x27,0
# Testcase cmp_rd_rs2 (Test rd = rs2 = x27)
  RVTEST_TESTDATA_LOAD_INT(x23, x7) # load rs1: x7 = 0x9b006cb9
    3e08:	000ba383          	lw	x7,0(x23)
    3e0c:	004b8b93          	addi	x23,x23,4
  RVTEST_TESTDATA_LOAD_INT(x23, x27) # load rs2: x27 = 0xf03c5082
    3e10:	000bad83          	lw	x27,0(x23)
    3e14:	004b8b93          	addi	x23,x23,4

00003e18 <I_sub_cg_cmp_rd_rs2_b27>:
I_sub_cg_cmp_rd_rs2_b27:
  sub x27, x7, x27 # perform operation
    3e18:	41b38db3          	sub	x27,x7,x27
  # Check if x27 contains the expected result. x28 is the signature ptr, x5 is the link ptr, x4 is a temp reg.
  RVTEST_SIGUPD(x28, x5, x4, x27, I_sub_cg_cmp_rd_rs2_b27, I_sub_cg_cmp_rd_rs2_b27_str)
    3e1c:	000e2203          	lw	x4,0(x28)
    3e20:	01b20863          	beq	x4,x27,3e30 <I_sub_cg_cmp_rd_rs2_b27+0x18>
    3e24:	6b8002ef          	jal	x5,44dc <failedtest_x5_x4>
    3e28:	00003e18          	.word	0x00003e18
    3e2c:	0000e7ea          	.word	0x0000e7ea
    3e30:	004e0e13          	addi	x28,x28,4

  mv x26, x28 # switch signature pointer register to avoid conflict with test
    3e34:	000e0d13          	addi	x26,x28,0
# Testcase cmp_rd_rs2 (Test rd = rs2 = x28)
  RVTEST_TESTDATA_LOAD_INT(x23, x6) # load rs1: x6 = 0x5d3f7190
    3e38:	000ba303          	lw	x6,0(x23)
    3e3c:	004b8b93          	addi	x23,x23,4
  RVTEST_TESTDATA_LOAD_INT(x23, x28) # load rs2: x28 = 0x799307f1
    3e40:	000bae03          	lw	x28,0(x23)
    3e44:	004b8b93          	addi	x23,x23,4

00003e48 <I_sub_cg_cmp_rd_rs2_b28>:
I_sub_cg_cmp_rd_rs2_b28:
  sub x28, x6, x28 # perform operation
    3e48:	41c30e33          	sub	x28,x6,x28
  # Check if x28 contains the expected result. x26 is the signature ptr, x5 is the link ptr, x4 is a temp reg.
  RVTEST_SIGUPD(x26, x5, x4, x28, I_sub_cg_cmp_rd_rs2_b28, I_sub_cg_cmp_rd_rs2_b28_str)
    3e4c:	000d2203          	lw	x4,0(x26)
    3e50:	01c20863          	beq	x4,x28,3e60 <I_sub_cg_cmp_rd_rs2_b28+0x18>
    3e54:	688002ef          	jal	x5,44dc <failedtest_x5_x4>
    3e58:	00003e48          	.word	0x00003e48
    3e5c:	0000e81e          	.word	0x0000e81e
    3e60:	004d0d13          	addi	x26,x26,4

# Testcase cmp_rd_rs2 (Test rd = rs2 = x29)
  RVTEST_TESTDATA_LOAD_INT(x23, x7) # load rs1: x7 = 0xb9bf01fe
    3e64:	000ba383          	lw	x7,0(x23)
    3e68:	004b8b93          	addi	x23,x23,4
  RVTEST_TESTDATA_LOAD_INT(x23, x29) # load rs2: x29 = 0x97d87b58
    3e6c:	000bae83          	lw	x29,0(x23)
    3e70:	004b8b93          	addi	x23,x23,4

00003e74 <I_sub_cg_cmp_rd_rs2_b29>:
I_sub_cg_cmp_rd_rs2_b29:
  sub x29, x7, x29 # perform operation
    3e74:	41d38eb3          	sub	x29,x7,x29
  # Check if x29 contains the expected result. x26 is the signature ptr, x5 is the link ptr, x4 is a temp reg.
  RVTEST_SIGUPD(x26, x5, x4, x29, I_sub_cg_cmp_rd_rs2_b29, I_sub_cg_cmp_rd_rs2_b29_str)
    3e78:	000d2203          	lw	x4,0(x26)
    3e7c:	01d20863          	beq	x4,x29,3e8c <I_sub_cg_cmp_rd_rs2_b29+0x18>
    3e80:	65c002ef          	jal	x5,44dc <failedtest_x5_x4>
    3e84:	00003e74          	.word	0x00003e74
    3e88:	0000e852          	.word	0x0000e852
    3e8c:	004d0d13          	addi	x26,x26,4

# Testcase cmp_rd_rs2 (Test rd = rs2 = x30)
  RVTEST_TESTDATA_LOAD_INT(x23, x9) # load rs1: x9 = 0x9de4c513
    3e90:	000ba483          	lw	x9,0(x23)
    3e94:	004b8b93          	addi	x23,x23,4
  RVTEST_TESTDATA_LOAD_INT(x23, x30) # load rs2: x30 = 0x257b27d1
    3e98:	000baf03          	lw	x30,0(x23)
    3e9c:	004b8b93          	addi	x23,x23,4

00003ea0 <I_sub_cg_cmp_rd_rs2_b30>:
I_sub_cg_cmp_rd_rs2_b30:
  sub x30, x9, x30 # perform operation
    3ea0:	41e48f33          	sub	x30,x9,x30
  # Check if x30 contains the expected result. x26 is the signature ptr, x5 is the link ptr, x4 is a temp reg.
  RVTEST_SIGUPD(x26, x5, x4, x30, I_sub_cg_cmp_rd_rs2_b30, I_sub_cg_cmp_rd_rs2_b30_str)
    3ea4:	000d2203          	lw	x4,0(x26)
    3ea8:	01e20863          	beq	x4,x30,3eb8 <I_sub_cg_cmp_rd_rs2_b30+0x18>
    3eac:	630002ef          	jal	x5,44dc <failedtest_x5_x4>
    3eb0:	00003ea0          	.word	0x00003ea0
    3eb4:	0000e886          	.word	0x0000e886
    3eb8:	004d0d13          	addi	x26,x26,4

# Testcase cmp_rd_rs2 (Test rd = rs2 = x31)
  RVTEST_TESTDATA_LOAD_INT(x23, x19) # load rs1: x19 = 0x943b64c1
    3ebc:	000ba983          	lw	x19,0(x23)
    3ec0:	004b8b93          	addi	x23,x23,4
  RVTEST_TESTDATA_LOAD_INT(x23, x31) # load rs2: x31 = 0xf4aaf60c
    3ec4:	000baf83          	lw	x31,0(x23)
    3ec8:	004b8b93          	addi	x23,x23,4

00003ecc <I_sub_cg_cmp_rd_rs2_b31>:
I_sub_cg_cmp_rd_rs2_b31:
  sub x31, x19, x31 # perform operation
    3ecc:	41f98fb3          	sub	x31,x19,x31
  # Check if x31 contains the expected result. x26 is the signature ptr, x5 is the link ptr, x4 is a temp reg.
  RVTEST_SIGUPD(x26, x5, x4, x31, I_sub_cg_cmp_rd_rs2_b31, I_sub_cg_cmp_rd_rs2_b31_str)
    3ed0:	000d2203          	lw	x4,0(x26)
    3ed4:	01f20863          	beq	x4,x31,3ee4 <I_sub_cg_cmp_rd_rs2_b31+0x18>
    3ed8:	604002ef          	jal	x5,44dc <failedtest_x5_x4>
    3edc:	00003ecc          	.word	0x00003ecc
    3ee0:	0000e8ba          	.word	0x0000e8ba
    3ee4:	004d0d13          	addi	x26,x26,4
/////////////////////////////////
// cmp_rd_rs1_rs2
/////////////////////////////////

# Testcase cmp_rd_rs1_rs2 (Test rd = rs1 = rs2 = x0)
  RVTEST_TESTDATA_LOAD_INT(x23, x0) # load rs1: x0 = 0x95b0bc83
    3ee8:	000ba003          	lw	x0,0(x23)
    3eec:	004b8b93          	addi	x23,x23,4
  RVTEST_TESTDATA_LOAD_INT(x23, x0) # load rs2: x0 = 0xdcf72222
    3ef0:	000ba003          	lw	x0,0(x23)
    3ef4:	004b8b93          	addi	x23,x23,4

00003ef8 <I_sub_cg_cmp_rd_rs1_rs2_b0>:
I_sub_cg_cmp_rd_rs1_rs2_b0:
  sub x0, x0, x0 # perform operation
    3ef8:	40000033          	sub	x0,x0,x0
  # Check if x0 contains the expected result. x26 is the signature ptr, x5 is the link ptr, x4 is a temp reg.
  RVTEST_SIGUPD(x26, x5, x4, x0, I_sub_cg_cmp_rd_rs1_rs2_b0, I_sub_cg_cmp_rd_rs1_rs2_b0_str)
    3efc:	000d2203          	lw	x4,0(x26)
    3f00:	00020863          	beq	x4,x0,3f10 <I_sub_cg_cmp_rd_rs1_rs2_b0+0x18>
    3f04:	5d8002ef          	jal	x5,44dc <failedtest_x5_x4>
    3f08:	00003ef8          	.word	0x00003ef8
    3f0c:	0000e8ee          	.word	0x0000e8ee
    3f10:	004d0d13          	addi	x26,x26,4

# Testcase cmp_rd_rs1_rs2 (Test rd = rs1 = rs2 = x1)
  RVTEST_TESTDATA_LOAD_INT(x23, x1) # load rs1: x1 = 0xfcaa1ef9
    3f14:	000ba083          	lw	x1,0(x23)
    3f18:	004b8b93          	addi	x23,x23,4
  RVTEST_TESTDATA_LOAD_INT(x23, x1) # load rs2: x1 = 0x1ce905c7
    3f1c:	000ba083          	lw	x1,0(x23)
    3f20:	004b8b93          	addi	x23,x23,4

00003f24 <I_sub_cg_cmp_rd_rs1_rs2_b1>:
I_sub_cg_cmp_rd_rs1_rs2_b1:
  sub x1, x1, x1 # perform operation
    3f24:	401080b3          	sub	x1,x1,x1
  # Check if x1 contains the expected result. x26 is the signature ptr, x5 is the link ptr, x4 is a temp reg.
  RVTEST_SIGUPD(x26, x5, x4, x1, I_sub_cg_cmp_rd_rs1_rs2_b1, I_sub_cg_cmp_rd_rs1_rs2_b1_str)
    3f28:	000d2203          	lw	x4,0(x26)
    3f2c:	00120863          	beq	x4,x1,3f3c <I_sub_cg_cmp_rd_rs1_rs2_b1+0x18>
    3f30:	5ac002ef          	jal	x5,44dc <failedtest_x5_x4>
    3f34:	00003f24          	.word	0x00003f24
    3f38:	0000e925          	.word	0x0000e925
    3f3c:	004d0d13          	addi	x26,x26,4

# Testcase cmp_rd_rs1_rs2 (Test rd = rs1 = rs2 = x2)
  RVTEST_TESTDATA_LOAD_INT(x23, x2) # load rs1: x2 = 0x26eb99a2
    3f40:	000ba103          	lw	x2,0(x23)
    3f44:	004b8b93          	addi	x23,x23,4
  RVTEST_TESTDATA_LOAD_INT(x23, x2) # load rs2: x2 = 0x3a82a772
    3f48:	000ba103          	lw	x2,0(x23)
    3f4c:	004b8b93          	addi	x23,x23,4

00003f50 <I_sub_cg_cmp_rd_rs1_rs2_b2>:
I_sub_cg_cmp_rd_rs1_rs2_b2:
  sub x2, x2, x2 # perform operation
    3f50:	40210133          	sub	x2,x2,x2
  # Check if x2 contains the expected result. x26 is the signature ptr, x5 is the link ptr, x4 is a temp reg.
  RVTEST_SIGUPD(x26, x5, x4, x2, I_sub_cg_cmp_rd_rs1_rs2_b2, I_sub_cg_cmp_rd_rs1_rs2_b2_str)
    3f54:	000d2203          	lw	x4,0(x26)
    3f58:	00220863          	beq	x4,x2,3f68 <I_sub_cg_cmp_rd_rs1_rs2_b2+0x18>
    3f5c:	580002ef          	jal	x5,44dc <failedtest_x5_x4>
    3f60:	00003f50          	.word	0x00003f50
    3f64:	0000e95c          	.word	0x0000e95c
    3f68:	004d0d13          	addi	x26,x26,4

# Testcase cmp_rd_rs1_rs2 (Test rd = rs1 = rs2 = x3)
  RVTEST_TESTDATA_LOAD_INT(x23, x3) # load rs1: x3 = 0x93ae3ba2
    3f6c:	000ba183          	lw	x3,0(x23)
    3f70:	004b8b93          	addi	x23,x23,4
  RVTEST_TESTDATA_LOAD_INT(x23, x3) # load rs2: x3 = 0x7807a5cc
    3f74:	000ba183          	lw	x3,0(x23)
    3f78:	004b8b93          	addi	x23,x23,4

00003f7c <I_sub_cg_cmp_rd_rs1_rs2_b3>:
I_sub_cg_cmp_rd_rs1_rs2_b3:
  sub x3, x3, x3 # perform operation
    3f7c:	403181b3          	sub	x3,x3,x3
  # Check if x3 contains the expected result. x26 is the signature ptr, x5 is the link ptr, x4 is a temp reg.
  RVTEST_SIGUPD(x26, x5, x4, x3, I_sub_cg_cmp_rd_rs1_rs2_b3, I_sub_cg_cmp_rd_rs1_rs2_b3_str)
    3f80:	000d2203          	lw	x4,0(x26)
    3f84:	00320863          	beq	x4,x3,3f94 <I_sub_cg_cmp_rd_rs1_rs2_b3+0x18>
    3f88:	554002ef          	jal	x5,44dc <failedtest_x5_x4>
    3f8c:	00003f7c          	.word	0x00003f7c
    3f90:	0000e993          	.word	0x0000e993
    3f94:	004d0d13          	addi	x26,x26,4

  mv x13, x4 # switch temp register to avoid conflict with test
    3f98:	00020693          	addi	x13,x4,0 # 0 <rvtest_entry_point>
  mv x14, x5 # switch link pointer register to avoid conflict with test
    3f9c:	00028713          	addi	x14,x5,0
# Testcase cmp_rd_rs1_rs2 (Test rd = rs1 = rs2 = x4)
  RVTEST_TESTDATA_LOAD_INT(x23, x4) # load rs1: x4 = 0x41228442
    3fa0:	000ba203          	lw	x4,0(x23)
    3fa4:	004b8b93          	addi	x23,x23,4
  RVTEST_TESTDATA_LOAD_INT(x23, x4) # load rs2: x4 = 0x0e64d842
    3fa8:	000ba203          	lw	x4,0(x23)
    3fac:	004b8b93          	addi	x23,x23,4

00003fb0 <I_sub_cg_cmp_rd_rs1_rs2_b4>:
I_sub_cg_cmp_rd_rs1_rs2_b4:
  sub x4, x4, x4 # perform operation
    3fb0:	40420233          	sub	x4,x4,x4
  # Check if x4 contains the expected result. x26 is the signature ptr, x14 is the link ptr, x13 is a temp reg.
  RVTEST_SIGUPD(x26, x14, x13, x4, I_sub_cg_cmp_rd_rs1_rs2_b4, I_sub_cg_cmp_rd_rs1_rs2_b4_str)
    3fb4:	000d2683          	lw	x13,0(x26)
    3fb8:	00468863          	beq	x13,x4,3fc8 <I_sub_cg_cmp_rd_rs1_rs2_b4+0x18>
    3fbc:	5600076f          	jal	x14,451c <failedtest_x14_x13>
    3fc0:	00003fb0          	.word	0x00003fb0
    3fc4:	0000e9ca          	.word	0x0000e9ca
    3fc8:	004d0d13          	addi	x26,x26,4

# Testcase cmp_rd_rs1_rs2 (Test rd = rs1 = rs2 = x5)
  RVTEST_TESTDATA_LOAD_INT(x23, x5) # load rs1: x5 = 0xff921f3e
    3fcc:	000ba283          	lw	x5,0(x23)
    3fd0:	004b8b93          	addi	x23,x23,4
  RVTEST_TESTDATA_LOAD_INT(x23, x5) # load rs2: x5 = 0x882e0ee0
    3fd4:	000ba283          	lw	x5,0(x23)
    3fd8:	004b8b93          	addi	x23,x23,4

00003fdc <I_sub_cg_cmp_rd_rs1_rs2_b5>:
I_sub_cg_cmp_rd_rs1_rs2_b5:
  sub x5, x5, x5 # perform operation
    3fdc:	405282b3          	sub	x5,x5,x5
  # Check if x5 contains the expected result. x26 is the signature ptr, x14 is the link ptr, x13 is a temp reg.
  RVTEST_SIGUPD(x26, x14, x13, x5, I_sub_cg_cmp_rd_rs1_rs2_b5, I_sub_cg_cmp_rd_rs1_rs2_b5_str)
    3fe0:	000d2683          	lw	x13,0(x26)
    3fe4:	00568863          	beq	x13,x5,3ff4 <I_sub_cg_cmp_rd_rs1_rs2_b5+0x18>
    3fe8:	5340076f          	jal	x14,451c <failedtest_x14_x13>
    3fec:	00003fdc          	.word	0x00003fdc
    3ff0:	0000ea01          	.word	0x0000ea01
    3ff4:	004d0d13          	addi	x26,x26,4

# Testcase cmp_rd_rs1_rs2 (Test rd = rs1 = rs2 = x6)
  RVTEST_TESTDATA_LOAD_INT(x23, x6) # load rs1: x6 = 0x73d87415
    3ff8:	000ba303          	lw	x6,0(x23)
    3ffc:	004b8b93          	addi	x23,x23,4
  RVTEST_TESTDATA_LOAD_INT(x23, x6) # load rs2: x6 = 0x5b3d588a
    4000:	000ba303          	lw	x6,0(x23)
    4004:	004b8b93          	addi	x23,x23,4

00004008 <I_sub_cg_cmp_rd_rs1_rs2_b6>:
I_sub_cg_cmp_rd_rs1_rs2_b6:
  sub x6, x6, x6 # perform operation
    4008:	40630333          	sub	x6,x6,x6
  # Check if x6 contains the expected result. x26 is the signature ptr, x14 is the link ptr, x13 is a temp reg.
  RVTEST_SIGUPD(x26, x14, x13, x6, I_sub_cg_cmp_rd_rs1_rs2_b6, I_sub_cg_cmp_rd_rs1_rs2_b6_str)
    400c:	000d2683          	lw	x13,0(x26)
    4010:	00668863          	beq	x13,x6,4020 <I_sub_cg_cmp_rd_rs1_rs2_b6+0x18>
    4014:	5080076f          	jal	x14,451c <failedtest_x14_x13>
    4018:	00004008          	.word	0x00004008
    401c:	0000ea38          	.word	0x0000ea38
    4020:	004d0d13          	addi	x26,x26,4

# Testcase cmp_rd_rs1_rs2 (Test rd = rs1 = rs2 = x7)
  RVTEST_TESTDATA_LOAD_INT(x23, x7) # load rs1: x7 = 0xdf8eb6a7
    4024:	000ba383          	lw	x7,0(x23)
    4028:	004b8b93          	addi	x23,x23,4
  RVTEST_TESTDATA_LOAD_INT(x23, x7) # load rs2: x7 = 0x0924c413
    402c:	000ba383          	lw	x7,0(x23)
    4030:	004b8b93          	addi	x23,x23,4

00004034 <I_sub_cg_cmp_rd_rs1_rs2_b7>:
I_sub_cg_cmp_rd_rs1_rs2_b7:
  sub x7, x7, x7 # perform operation
    4034:	407383b3          	sub	x7,x7,x7
  # Check if x7 contains the expected result. x26 is the signature ptr, x14 is the link ptr, x13 is a temp reg.
  RVTEST_SIGUPD(x26, x14, x13, x7, I_sub_cg_cmp_rd_rs1_rs2_b7, I_sub_cg_cmp_rd_rs1_rs2_b7_str)
    4038:	000d2683          	lw	x13,0(x26)
    403c:	00768863          	beq	x13,x7,404c <I_sub_cg_cmp_rd_rs1_rs2_b7+0x18>
    4040:	4dc0076f          	jal	x14,451c <failedtest_x14_x13>
    4044:	00004034          	.word	0x00004034
    4048:	0000ea6f          	.word	0x0000ea6f
    404c:	004d0d13          	addi	x26,x26,4

# Testcase cmp_rd_rs1_rs2 (Test rd = rs1 = rs2 = x8)
  RVTEST_TESTDATA_LOAD_INT(x23, x8) # load rs1: x8 = 0x2e9f58d6
    4050:	000ba403          	lw	x8,0(x23)
    4054:	004b8b93          	addi	x23,x23,4
  RVTEST_TESTDATA_LOAD_INT(x23, x8) # load rs2: x8 = 0x293872d7
    4058:	000ba403          	lw	x8,0(x23)
    405c:	004b8b93          	addi	x23,x23,4

00004060 <I_sub_cg_cmp_rd_rs1_rs2_b8>:
I_sub_cg_cmp_rd_rs1_rs2_b8:
  sub x8, x8, x8 # perform operation
    4060:	40840433          	sub	x8,x8,x8
  # Check if x8 contains the expected result. x26 is the signature ptr, x14 is the link ptr, x13 is a temp reg.
  RVTEST_SIGUPD(x26, x14, x13, x8, I_sub_cg_cmp_rd_rs1_rs2_b8, I_sub_cg_cmp_rd_rs1_rs2_b8_str)
    4064:	000d2683          	lw	x13,0(x26)
    4068:	00868863          	beq	x13,x8,4078 <I_sub_cg_cmp_rd_rs1_rs2_b8+0x18>
    406c:	4b00076f          	jal	x14,451c <failedtest_x14_x13>
    4070:	00004060          	.word	0x00004060
    4074:	0000eaa6          	.word	0x0000eaa6
    4078:	004d0d13          	addi	x26,x26,4

# Testcase cmp_rd_rs1_rs2 (Test rd = rs1 = rs2 = x9)
  RVTEST_TESTDATA_LOAD_INT(x23, x9) # load rs1: x9 = 0xda5a437e
    407c:	000ba483          	lw	x9,0(x23)
    4080:	004b8b93          	addi	x23,x23,4
  RVTEST_TESTDATA_LOAD_INT(x23, x9) # load rs2: x9 = 0x78717847
    4084:	000ba483          	lw	x9,0(x23)
    4088:	004b8b93          	addi	x23,x23,4

0000408c <I_sub_cg_cmp_rd_rs1_rs2_b9>:
I_sub_cg_cmp_rd_rs1_rs2_b9:
  sub x9, x9, x9 # perform operation
    408c:	409484b3          	sub	x9,x9,x9
  # Check if x9 contains the expected result. x26 is the signature ptr, x14 is the link ptr, x13 is a temp reg.
  RVTEST_SIGUPD(x26, x14, x13, x9, I_sub_cg_cmp_rd_rs1_rs2_b9, I_sub_cg_cmp_rd_rs1_rs2_b9_str)
    4090:	000d2683          	lw	x13,0(x26)
    4094:	00968863          	beq	x13,x9,40a4 <I_sub_cg_cmp_rd_rs1_rs2_b9+0x18>
    4098:	4840076f          	jal	x14,451c <failedtest_x14_x13>
    409c:	0000408c          	.word	0x0000408c
    40a0:	0000eadd          	.word	0x0000eadd
    40a4:	004d0d13          	addi	x26,x26,4

# Testcase cmp_rd_rs1_rs2 (Test rd = rs1 = rs2 = x10)
  RVTEST_TESTDATA_LOAD_INT(x23, x10) # load rs1: x10 = 0x48069494
    40a8:	000ba503          	lw	x10,0(x23)
    40ac:	004b8b93          	addi	x23,x23,4
  RVTEST_TESTDATA_LOAD_INT(x23, x10) # load rs2: x10 = 0x4e03e61c
    40b0:	000ba503          	lw	x10,0(x23)
    40b4:	004b8b93          	addi	x23,x23,4

000040b8 <I_sub_cg_cmp_rd_rs1_rs2_b10>:
I_sub_cg_cmp_rd_rs1_rs2_b10:
  sub x10, x10, x10 # perform operation
    40b8:	40a50533          	sub	x10,x10,x10
  # Check if x10 contains the expected result. x26 is the signature ptr, x14 is the link ptr, x13 is a temp reg.
  RVTEST_SIGUPD(x26, x14, x13, x10, I_sub_cg_cmp_rd_rs1_rs2_b10, I_sub_cg_cmp_rd_rs1_rs2_b10_str)
    40bc:	000d2683          	lw	x13,0(x26)
    40c0:	00a68863          	beq	x13,x10,40d0 <I_sub_cg_cmp_rd_rs1_rs2_b10+0x18>
    40c4:	4580076f          	jal	x14,451c <failedtest_x14_x13>
    40c8:	000040b8          	.word	0x000040b8
    40cc:	0000eb14          	.word	0x0000eb14
    40d0:	004d0d13          	addi	x26,x26,4

# Testcase cmp_rd_rs1_rs2 (Test rd = rs1 = rs2 = x11)
  RVTEST_TESTDATA_LOAD_INT(x23, x11) # load rs1: x11 = 0xfaadbc8f
    40d4:	000ba583          	lw	x11,0(x23)
    40d8:	004b8b93          	addi	x23,x23,4
  RVTEST_TESTDATA_LOAD_INT(x23, x11) # load rs2: x11 = 0xb4522fb2
    40dc:	000ba583          	lw	x11,0(x23)
    40e0:	004b8b93          	addi	x23,x23,4

000040e4 <I_sub_cg_cmp_rd_rs1_rs2_b11>:
I_sub_cg_cmp_rd_rs1_rs2_b11:
  sub x11, x11, x11 # perform operation
    40e4:	40b585b3          	sub	x11,x11,x11
  # Check if x11 contains the expected result. x26 is the signature ptr, x14 is the link ptr, x13 is a temp reg.
  RVTEST_SIGUPD(x26, x14, x13, x11, I_sub_cg_cmp_rd_rs1_rs2_b11, I_sub_cg_cmp_rd_rs1_rs2_b11_str)
    40e8:	000d2683          	lw	x13,0(x26)
    40ec:	00b68863          	beq	x13,x11,40fc <I_sub_cg_cmp_rd_rs1_rs2_b11+0x18>
    40f0:	42c0076f          	jal	x14,451c <failedtest_x14_x13>
    40f4:	000040e4          	.word	0x000040e4
    40f8:	0000eb4c          	.word	0x0000eb4c
    40fc:	004d0d13          	addi	x26,x26,4

# Testcase cmp_rd_rs1_rs2 (Test rd = rs1 = rs2 = x12)
  RVTEST_TESTDATA_LOAD_INT(x23, x12) # load rs1: x12 = 0x56db9e07
    4100:	000ba603          	lw	x12,0(x23)
    4104:	004b8b93          	addi	x23,x23,4
  RVTEST_TESTDATA_LOAD_INT(x23, x12) # load rs2: x12 = 0x658cc140
    4108:	000ba603          	lw	x12,0(x23)
    410c:	004b8b93          	addi	x23,x23,4

00004110 <I_sub_cg_cmp_rd_rs1_rs2_b12>:
I_sub_cg_cmp_rd_rs1_rs2_b12:
  sub x12, x12, x12 # perform operation
    4110:	40c60633          	sub	x12,x12,x12
  # Check if x12 contains the expected result. x26 is the signature ptr, x14 is the link ptr, x13 is a temp reg.
  RVTEST_SIGUPD(x26, x14, x13, x12, I_sub_cg_cmp_rd_rs1_rs2_b12, I_sub_cg_cmp_rd_rs1_rs2_b12_str)
    4114:	000d2683          	lw	x13,0(x26)
    4118:	00c68863          	beq	x13,x12,4128 <I_sub_cg_cmp_rd_rs1_rs2_b12+0x18>
    411c:	4000076f          	jal	x14,451c <failedtest_x14_x13>
    4120:	00004110          	.word	0x00004110
    4124:	0000eb84          	.word	0x0000eb84
    4128:	004d0d13          	addi	x26,x26,4

  mv x4, x13 # switch temp register to avoid conflict with test
    412c:	00068213          	addi	x4,x13,0
  mv x5, x14 # switch link pointer register to avoid conflict with test
    4130:	00070293          	addi	x5,x14,0
# Testcase cmp_rd_rs1_rs2 (Test rd = rs1 = rs2 = x13)
  RVTEST_TESTDATA_LOAD_INT(x23, x13) # load rs1: x13 = 0x6348e154
    4134:	000ba683          	lw	x13,0(x23)
    4138:	004b8b93          	addi	x23,x23,4
  RVTEST_TESTDATA_LOAD_INT(x23, x13) # load rs2: x13 = 0x25d9fe0f
    413c:	000ba683          	lw	x13,0(x23)
    4140:	004b8b93          	addi	x23,x23,4

00004144 <I_sub_cg_cmp_rd_rs1_rs2_b13>:
I_sub_cg_cmp_rd_rs1_rs2_b13:
  sub x13, x13, x13 # perform operation
    4144:	40d686b3          	sub	x13,x13,x13
  # Check if x13 contains the expected result. x26 is the signature ptr, x5 is the link ptr, x4 is a temp reg.
  RVTEST_SIGUPD(x26, x5, x4, x13, I_sub_cg_cmp_rd_rs1_rs2_b13, I_sub_cg_cmp_rd_rs1_rs2_b13_str)
    4148:	000d2203          	lw	x4,0(x26)
    414c:	00d20863          	beq	x4,x13,415c <I_sub_cg_cmp_rd_rs1_rs2_b13+0x18>
    4150:	38c002ef          	jal	x5,44dc <failedtest_x5_x4>
    4154:	00004144          	.word	0x00004144
    4158:	0000ebbc          	.word	0x0000ebbc
    415c:	004d0d13          	addi	x26,x26,4

# Testcase cmp_rd_rs1_rs2 (Test rd = rs1 = rs2 = x14)
  RVTEST_TESTDATA_LOAD_INT(x23, x14) # load rs1: x14 = 0x8d757a26
    4160:	000ba703          	lw	x14,0(x23)
    4164:	004b8b93          	addi	x23,x23,4
  RVTEST_TESTDATA_LOAD_INT(x23, x14) # load rs2: x14 = 0x6808ccd0
    4168:	000ba703          	lw	x14,0(x23)
    416c:	004b8b93          	addi	x23,x23,4

00004170 <I_sub_cg_cmp_rd_rs1_rs2_b14>:
I_sub_cg_cmp_rd_rs1_rs2_b14:
  sub x14, x14, x14 # perform operation
    4170:	40e70733          	sub	x14,x14,x14
  # Check if x14 contains the expected result. x26 is the signature ptr, x5 is the link ptr, x4 is a temp reg.
  RVTEST_SIGUPD(x26, x5, x4, x14, I_sub_cg_cmp_rd_rs1_rs2_b14, I_sub_cg_cmp_rd_rs1_rs2_b14_str)
    4174:	000d2203          	lw	x4,0(x26)
    4178:	00e20863          	beq	x4,x14,4188 <I_sub_cg_cmp_rd_rs1_rs2_b14+0x18>
    417c:	360002ef          	jal	x5,44dc <failedtest_x5_x4>
    4180:	00004170          	.word	0x00004170
    4184:	0000ebf4          	.word	0x0000ebf4
    4188:	004d0d13          	addi	x26,x26,4

# Testcase cmp_rd_rs1_rs2 (Test rd = rs1 = rs2 = x15)
  RVTEST_TESTDATA_LOAD_INT(x23, x15) # load rs1: x15 = 0x598879d8
    418c:	000ba783          	lw	x15,0(x23)
    4190:	004b8b93          	addi	x23,x23,4
  RVTEST_TESTDATA_LOAD_INT(x23, x15) # load rs2: x15 = 0x7eb6e92c
    4194:	000ba783          	lw	x15,0(x23)
    4198:	004b8b93          	addi	x23,x23,4

0000419c <I_sub_cg_cmp_rd_rs1_rs2_b15>:
I_sub_cg_cmp_rd_rs1_rs2_b15:
  sub x15, x15, x15 # perform operation
    419c:	40f787b3          	sub	x15,x15,x15
  # Check if x15 contains the expected result. x26 is the signature ptr, x5 is the link ptr, x4 is a temp reg.
  RVTEST_SIGUPD(x26, x5, x4, x15, I_sub_cg_cmp_rd_rs1_rs2_b15, I_sub_cg_cmp_rd_rs1_rs2_b15_str)
    41a0:	000d2203          	lw	x4,0(x26)
    41a4:	00f20863          	beq	x4,x15,41b4 <I_sub_cg_cmp_rd_rs1_rs2_b15+0x18>
    41a8:	334002ef          	jal	x5,44dc <failedtest_x5_x4>
    41ac:	0000419c          	.word	0x0000419c
    41b0:	0000ec2c          	.word	0x0000ec2c
    41b4:	004d0d13          	addi	x26,x26,4

# Testcase cmp_rd_rs1_rs2 (Test rd = rs1 = rs2 = x16)
  RVTEST_TESTDATA_LOAD_INT(x23, x16) # load rs1: x16 = 0xa9c1e626
    41b8:	000ba803          	lw	x16,0(x23)
    41bc:	004b8b93          	addi	x23,x23,4
  RVTEST_TESTDATA_LOAD_INT(x23, x16) # load rs2: x16 = 0xf1ca9d6f
    41c0:	000ba803          	lw	x16,0(x23)
    41c4:	004b8b93          	addi	x23,x23,4

000041c8 <I_sub_cg_cmp_rd_rs1_rs2_b16>:
I_sub_cg_cmp_rd_rs1_rs2_b16:
  sub x16, x16, x16 # perform operation
    41c8:	41080833          	sub	x16,x16,x16
  # Check if x16 contains the expected result. x26 is the signature ptr, x5 is the link ptr, x4 is a temp reg.
  RVTEST_SIGUPD(x26, x5, x4, x16, I_sub_cg_cmp_rd_rs1_rs2_b16, I_sub_cg_cmp_rd_rs1_rs2_b16_str)
    41cc:	000d2203          	lw	x4,0(x26)
    41d0:	01020863          	beq	x4,x16,41e0 <I_sub_cg_cmp_rd_rs1_rs2_b16+0x18>
    41d4:	308002ef          	jal	x5,44dc <failedtest_x5_x4>
    41d8:	000041c8          	.word	0x000041c8
    41dc:	0000ec64          	.word	0x0000ec64
    41e0:	004d0d13          	addi	x26,x26,4

# Testcase cmp_rd_rs1_rs2 (Test rd = rs1 = rs2 = x17)
  RVTEST_TESTDATA_LOAD_INT(x23, x17) # load rs1: x17 = 0x290f489f
    41e4:	000ba883          	lw	x17,0(x23)
    41e8:	004b8b93          	addi	x23,x23,4
  RVTEST_TESTDATA_LOAD_INT(x23, x17) # load rs2: x17 = 0xc5d025aa
    41ec:	000ba883          	lw	x17,0(x23)
    41f0:	004b8b93          	addi	x23,x23,4

000041f4 <I_sub_cg_cmp_rd_rs1_rs2_b17>:
I_sub_cg_cmp_rd_rs1_rs2_b17:
  sub x17, x17, x17 # perform operation
    41f4:	411888b3          	sub	x17,x17,x17
  # Check if x17 contains the expected result. x26 is the signature ptr, x5 is the link ptr, x4 is a temp reg.
  RVTEST_SIGUPD(x26, x5, x4, x17, I_sub_cg_cmp_rd_rs1_rs2_b17, I_sub_cg_cmp_rd_rs1_rs2_b17_str)
    41f8:	000d2203          	lw	x4,0(x26)
    41fc:	01120863          	beq	x4,x17,420c <I_sub_cg_cmp_rd_rs1_rs2_b17+0x18>
    4200:	2dc002ef          	jal	x5,44dc <failedtest_x5_x4>
    4204:	000041f4          	.word	0x000041f4
    4208:	0000ec9c          	.word	0x0000ec9c
    420c:	004d0d13          	addi	x26,x26,4

# Testcase cmp_rd_rs1_rs2 (Test rd = rs1 = rs2 = x18)
  RVTEST_TESTDATA_LOAD_INT(x23, x18) # load rs1: x18 = 0xd5488f53
    4210:	000ba903          	lw	x18,0(x23)
    4214:	004b8b93          	addi	x23,x23,4
  RVTEST_TESTDATA_LOAD_INT(x23, x18) # load rs2: x18 = 0x8ab66918
    4218:	000ba903          	lw	x18,0(x23)
    421c:	004b8b93          	addi	x23,x23,4

00004220 <I_sub_cg_cmp_rd_rs1_rs2_b18>:
I_sub_cg_cmp_rd_rs1_rs2_b18:
  sub x18, x18, x18 # perform operation
    4220:	41290933          	sub	x18,x18,x18
  # Check if x18 contains the expected result. x26 is the signature ptr, x5 is the link ptr, x4 is a temp reg.
  RVTEST_SIGUPD(x26, x5, x4, x18, I_sub_cg_cmp_rd_rs1_rs2_b18, I_sub_cg_cmp_rd_rs1_rs2_b18_str)
    4224:	000d2203          	lw	x4,0(x26)
    4228:	01220863          	beq	x4,x18,4238 <I_sub_cg_cmp_rd_rs1_rs2_b18+0x18>
    422c:	2b0002ef          	jal	x5,44dc <failedtest_x5_x4>
    4230:	00004220          	.word	0x00004220
    4234:	0000ecd4          	.word	0x0000ecd4
    4238:	004d0d13          	addi	x26,x26,4

# Testcase cmp_rd_rs1_rs2 (Test rd = rs1 = rs2 = x19)
  RVTEST_TESTDATA_LOAD_INT(x23, x19) # load rs1: x19 = 0xe73f8586
    423c:	000ba983          	lw	x19,0(x23)
    4240:	004b8b93          	addi	x23,x23,4
  RVTEST_TESTDATA_LOAD_INT(x23, x19) # load rs2: x19 = 0xe15b47f8
    4244:	000ba983          	lw	x19,0(x23)
    4248:	004b8b93          	addi	x23,x23,4

0000424c <I_sub_cg_cmp_rd_rs1_rs2_b19>:
I_sub_cg_cmp_rd_rs1_rs2_b19:
  sub x19, x19, x19 # perform operation
    424c:	413989b3          	sub	x19,x19,x19
  # Check if x19 contains the expected result. x26 is the signature ptr, x5 is the link ptr, x4 is a temp reg.
  RVTEST_SIGUPD(x26, x5, x4, x19, I_sub_cg_cmp_rd_rs1_rs2_b19, I_sub_cg_cmp_rd_rs1_rs2_b19_str)
    4250:	000d2203          	lw	x4,0(x26)
    4254:	01320863          	beq	x4,x19,4264 <I_sub_cg_cmp_rd_rs1_rs2_b19+0x18>
    4258:	284002ef          	jal	x5,44dc <failedtest_x5_x4>
    425c:	0000424c          	.word	0x0000424c
    4260:	0000ed0c          	.word	0x0000ed0c
    4264:	004d0d13          	addi	x26,x26,4

# Testcase cmp_rd_rs1_rs2 (Test rd = rs1 = rs2 = x20)
  RVTEST_TESTDATA_LOAD_INT(x23, x20) # load rs1: x20 = 0x9a83c46f
    4268:	000baa03          	lw	x20,0(x23)
    426c:	004b8b93          	addi	x23,x23,4
  RVTEST_TESTDATA_LOAD_INT(x23, x20) # load rs2: x20 = 0x92faf6ff
    4270:	000baa03          	lw	x20,0(x23)
    4274:	004b8b93          	addi	x23,x23,4

00004278 <I_sub_cg_cmp_rd_rs1_rs2_b20>:
I_sub_cg_cmp_rd_rs1_rs2_b20:
  sub x20, x20, x20 # perform operation
    4278:	414a0a33          	sub	x20,x20,x20
  # Check if x20 contains the expected result. x26 is the signature ptr, x5 is the link ptr, x4 is a temp reg.
  RVTEST_SIGUPD(x26, x5, x4, x20, I_sub_cg_cmp_rd_rs1_rs2_b20, I_sub_cg_cmp_rd_rs1_rs2_b20_str)
    427c:	000d2203          	lw	x4,0(x26)
    4280:	01420863          	beq	x4,x20,4290 <I_sub_cg_cmp_rd_rs1_rs2_b20+0x18>
    4284:	258002ef          	jal	x5,44dc <failedtest_x5_x4>
    4288:	00004278          	.word	0x00004278
    428c:	0000ed44          	.word	0x0000ed44
    4290:	004d0d13          	addi	x26,x26,4

# Testcase cmp_rd_rs1_rs2 (Test rd = rs1 = rs2 = x21)
  RVTEST_TESTDATA_LOAD_INT(x23, x21) # load rs1: x21 = 0xdb8b4248
    4294:	000baa83          	lw	x21,0(x23)
    4298:	004b8b93          	addi	x23,x23,4
  RVTEST_TESTDATA_LOAD_INT(x23, x21) # load rs2: x21 = 0xc0cd0d38
    429c:	000baa83          	lw	x21,0(x23)
    42a0:	004b8b93          	addi	x23,x23,4

000042a4 <I_sub_cg_cmp_rd_rs1_rs2_b21>:
I_sub_cg_cmp_rd_rs1_rs2_b21:
  sub x21, x21, x21 # perform operation
    42a4:	415a8ab3          	sub	x21,x21,x21
  # Check if x21 contains the expected result. x26 is the signature ptr, x5 is the link ptr, x4 is a temp reg.
  RVTEST_SIGUPD(x26, x5, x4, x21, I_sub_cg_cmp_rd_rs1_rs2_b21, I_sub_cg_cmp_rd_rs1_rs2_b21_str)
    42a8:	000d2203          	lw	x4,0(x26)
    42ac:	01520863          	beq	x4,x21,42bc <I_sub_cg_cmp_rd_rs1_rs2_b21+0x18>
    42b0:	22c002ef          	jal	x5,44dc <failedtest_x5_x4>
    42b4:	000042a4          	.word	0x000042a4
    42b8:	0000ed7c          	.word	0x0000ed7c
    42bc:	004d0d13          	addi	x26,x26,4

# Testcase cmp_rd_rs1_rs2 (Test rd = rs1 = rs2 = x22)
  RVTEST_TESTDATA_LOAD_INT(x23, x22) # load rs1: x22 = 0x9163f1bf
    42c0:	000bab03          	lw	x22,0(x23)
    42c4:	004b8b93          	addi	x23,x23,4
  RVTEST_TESTDATA_LOAD_INT(x23, x22) # load rs2: x22 = 0x3d536420
    42c8:	000bab03          	lw	x22,0(x23)
    42cc:	004b8b93          	addi	x23,x23,4

000042d0 <I_sub_cg_cmp_rd_rs1_rs2_b22>:
I_sub_cg_cmp_rd_rs1_rs2_b22:
  sub x22, x22, x22 # perform operation
    42d0:	416b0b33          	sub	x22,x22,x22
  # Check if x22 contains the expected result. x26 is the signature ptr, x5 is the link ptr, x4 is a temp reg.
  RVTEST_SIGUPD(x26, x5, x4, x22, I_sub_cg_cmp_rd_rs1_rs2_b22, I_sub_cg_cmp_rd_rs1_rs2_b22_str)
    42d4:	000d2203          	lw	x4,0(x26)
    42d8:	01620863          	beq	x4,x22,42e8 <I_sub_cg_cmp_rd_rs1_rs2_b22+0x18>
    42dc:	200002ef          	jal	x5,44dc <failedtest_x5_x4>
    42e0:	000042d0          	.word	0x000042d0
    42e4:	0000edb4          	.word	0x0000edb4
    42e8:	004d0d13          	addi	x26,x26,4

  mv x22, x23 # switch data pointer register to avoid conflict with test
    42ec:	000b8b13          	addi	x22,x23,0
# Testcase cmp_rd_rs1_rs2 (Test rd = rs1 = rs2 = x23)
  RVTEST_TESTDATA_LOAD_INT(x22, x23) # load rs1: x23 = 0x16ce9353
    42f0:	000b2b83          	lw	x23,0(x22)
    42f4:	004b0b13          	addi	x22,x22,4
  RVTEST_TESTDATA_LOAD_INT(x22, x23) # load rs2: x23 = 0xc3390b64
    42f8:	000b2b83          	lw	x23,0(x22)
    42fc:	004b0b13          	addi	x22,x22,4

00004300 <I_sub_cg_cmp_rd_rs1_rs2_b23>:
I_sub_cg_cmp_rd_rs1_rs2_b23:
  sub x23, x23, x23 # perform operation
    4300:	417b8bb3          	sub	x23,x23,x23
  # Check if x23 contains the expected result. x26 is the signature ptr, x5 is the link ptr, x4 is a temp reg.
  RVTEST_SIGUPD(x26, x5, x4, x23, I_sub_cg_cmp_rd_rs1_rs2_b23, I_sub_cg_cmp_rd_rs1_rs2_b23_str)
    4304:	000d2203          	lw	x4,0(x26)
    4308:	01720863          	beq	x4,x23,4318 <I_sub_cg_cmp_rd_rs1_rs2_b23+0x18>
    430c:	1d0002ef          	jal	x5,44dc <failedtest_x5_x4>
    4310:	00004300          	.word	0x00004300
    4314:	0000edec          	.word	0x0000edec
    4318:	004d0d13          	addi	x26,x26,4

# Testcase cmp_rd_rs1_rs2 (Test rd = rs1 = rs2 = x24)
  RVTEST_TESTDATA_LOAD_INT(x22, x24) # load rs1: x24 = 0xf30de800
    431c:	000b2c03          	lw	x24,0(x22)
    4320:	004b0b13          	addi	x22,x22,4
  RVTEST_TESTDATA_LOAD_INT(x22, x24) # load rs2: x24 = 0xfc891fe3
    4324:	000b2c03          	lw	x24,0(x22)
    4328:	004b0b13          	addi	x22,x22,4

0000432c <I_sub_cg_cmp_rd_rs1_rs2_b24>:
I_sub_cg_cmp_rd_rs1_rs2_b24:
  sub x24, x24, x24 # perform operation
    432c:	418c0c33          	sub	x24,x24,x24
  # Check if x24 contains the expected result. x26 is the signature ptr, x5 is the link ptr, x4 is a temp reg.
  RVTEST_SIGUPD(x26, x5, x4, x24, I_sub_cg_cmp_rd_rs1_rs2_b24, I_sub_cg_cmp_rd_rs1_rs2_b24_str)
    4330:	000d2203          	lw	x4,0(x26)
    4334:	01820863          	beq	x4,x24,4344 <I_sub_cg_cmp_rd_rs1_rs2_b24+0x18>
    4338:	1a4002ef          	jal	x5,44dc <failedtest_x5_x4>
    433c:	0000432c          	.word	0x0000432c
    4340:	0000ee24          	.word	0x0000ee24
    4344:	004d0d13          	addi	x26,x26,4

# Testcase cmp_rd_rs1_rs2 (Test rd = rs1 = rs2 = x25)
  RVTEST_TESTDATA_LOAD_INT(x22, x25) # load rs1: x25 = 0x2756ed9d
    4348:	000b2c83          	lw	x25,0(x22)
    434c:	004b0b13          	addi	x22,x22,4
  RVTEST_TESTDATA_LOAD_INT(x22, x25) # load rs2: x25 = 0x6d7d87a0
    4350:	000b2c83          	lw	x25,0(x22)
    4354:	004b0b13          	addi	x22,x22,4

00004358 <I_sub_cg_cmp_rd_rs1_rs2_b25>:
I_sub_cg_cmp_rd_rs1_rs2_b25:
  sub x25, x25, x25 # perform operation
    4358:	419c8cb3          	sub	x25,x25,x25
  # Check if x25 contains the expected result. x26 is the signature ptr, x5 is the link ptr, x4 is a temp reg.
  RVTEST_SIGUPD(x26, x5, x4, x25, I_sub_cg_cmp_rd_rs1_rs2_b25, I_sub_cg_cmp_rd_rs1_rs2_b25_str)
    435c:	000d2203          	lw	x4,0(x26)
    4360:	01920863          	beq	x4,x25,4370 <I_sub_cg_cmp_rd_rs1_rs2_b25+0x18>
    4364:	178002ef          	jal	x5,44dc <failedtest_x5_x4>
    4368:	00004358          	.word	0x00004358
    436c:	0000ee5c          	.word	0x0000ee5c
    4370:	004d0d13          	addi	x26,x26,4

  mv x10, x26 # switch signature pointer register to avoid conflict with test
    4374:	000d0513          	addi	x10,x26,0
# Testcase cmp_rd_rs1_rs2 (Test rd = rs1 = rs2 = x26)
  RVTEST_TESTDATA_LOAD_INT(x22, x26) # load rs1: x26 = 0x19468a88
    4378:	000b2d03          	lw	x26,0(x22)
    437c:	004b0b13          	addi	x22,x22,4
  RVTEST_TESTDATA_LOAD_INT(x22, x26) # load rs2: x26 = 0xe933353e
    4380:	000b2d03          	lw	x26,0(x22)
    4384:	004b0b13          	addi	x22,x22,4

00004388 <I_sub_cg_cmp_rd_rs1_rs2_b26>:
I_sub_cg_cmp_rd_rs1_rs2_b26:
  sub x26, x26, x26 # perform operation
    4388:	41ad0d33          	sub	x26,x26,x26
  # Check if x26 contains the expected result. x10 is the signature ptr, x5 is the link ptr, x4 is a temp reg.
  RVTEST_SIGUPD(x10, x5, x4, x26, I_sub_cg_cmp_rd_rs1_rs2_b26, I_sub_cg_cmp_rd_rs1_rs2_b26_str)
    438c:	00052203          	lw	x4,0(x10)
    4390:	01a20863          	beq	x4,x26,43a0 <I_sub_cg_cmp_rd_rs1_rs2_b26+0x18>
    4394:	148002ef          	jal	x5,44dc <failedtest_x5_x4>
    4398:	00004388          	.word	0x00004388
    439c:	0000ee94          	.word	0x0000ee94
    43a0:	00450513          	addi	x10,x10,4

# Testcase cmp_rd_rs1_rs2 (Test rd = rs1 = rs2 = x27)
  RVTEST_TESTDATA_LOAD_INT(x22, x27) # load rs1: x27 = 0x208da670
    43a4:	000b2d83          	lw	x27,0(x22)
    43a8:	004b0b13          	addi	x22,x22,4
  RVTEST_TESTDATA_LOAD_INT(x22, x27) # load rs2: x27 = 0x30c46599
    43ac:	000b2d83          	lw	x27,0(x22)
    43b0:	004b0b13          	addi	x22,x22,4

000043b4 <I_sub_cg_cmp_rd_rs1_rs2_b27>:
I_sub_cg_cmp_rd_rs1_rs2_b27:
  sub x27, x27, x27 # perform operation
    43b4:	41bd8db3          	sub	x27,x27,x27
  # Check if x27 contains the expected result. x10 is the signature ptr, x5 is the link ptr, x4 is a temp reg.
  RVTEST_SIGUPD(x10, x5, x4, x27, I_sub_cg_cmp_rd_rs1_rs2_b27, I_sub_cg_cmp_rd_rs1_rs2_b27_str)
    43b8:	00052203          	lw	x4,0(x10)
    43bc:	01b20863          	beq	x4,x27,43cc <I_sub_cg_cmp_rd_rs1_rs2_b27+0x18>
    43c0:	11c002ef          	jal	x5,44dc <failedtest_x5_x4>
    43c4:	000043b4          	.word	0x000043b4
    43c8:	0000eecc          	.word	0x0000eecc
    43cc:	00450513          	addi	x10,x10,4

# Testcase cmp_rd_rs1_rs2 (Test rd = rs1 = rs2 = x28)
  RVTEST_TESTDATA_LOAD_INT(x22, x28) # load rs1: x28 = 0x4eeebd17
    43d0:	000b2e03          	lw	x28,0(x22)
    43d4:	004b0b13          	addi	x22,x22,4
  RVTEST_TESTDATA_LOAD_INT(x22, x28) # load rs2: x28 = 0x4519b24c
    43d8:	000b2e03          	lw	x28,0(x22)
    43dc:	004b0b13          	addi	x22,x22,4

000043e0 <I_sub_cg_cmp_rd_rs1_rs2_b28>:
I_sub_cg_cmp_rd_rs1_rs2_b28:
  sub x28, x28, x28 # perform operation
    43e0:	41ce0e33          	sub	x28,x28,x28
  # Check if x28 contains the expected result. x10 is the signature ptr, x5 is the link ptr, x4 is a temp reg.
  RVTEST_SIGUPD(x10, x5, x4, x28, I_sub_cg_cmp_rd_rs1_rs2_b28, I_sub_cg_cmp_rd_rs1_rs2_b28_str)
    43e4:	00052203          	lw	x4,0(x10)
    43e8:	01c20863          	beq	x4,x28,43f8 <I_sub_cg_cmp_rd_rs1_rs2_b28+0x18>
    43ec:	0f0002ef          	jal	x5,44dc <failedtest_x5_x4>
    43f0:	000043e0          	.word	0x000043e0
    43f4:	0000ef04          	.word	0x0000ef04
    43f8:	00450513          	addi	x10,x10,4

# Testcase cmp_rd_rs1_rs2 (Test rd = rs1 = rs2 = x29)
  RVTEST_TESTDATA_LOAD_INT(x22, x29) # load rs1: x29 = 0xb80c708c
    43fc:	000b2e83          	lw	x29,0(x22)
    4400:	004b0b13          	addi	x22,x22,4
  RVTEST_TESTDATA_LOAD_INT(x22, x29) # load rs2: x29 = 0x1ec3122f
    4404:	000b2e83          	lw	x29,0(x22)
    4408:	004b0b13          	addi	x22,x22,4

0000440c <I_sub_cg_cmp_rd_rs1_rs2_b29>:
I_sub_cg_cmp_rd_rs1_rs2_b29:
  sub x29, x29, x29 # perform operation
    440c:	41de8eb3          	sub	x29,x29,x29
  # Check if x29 contains the expected result. x10 is the signature ptr, x5 is the link ptr, x4 is a temp reg.
  RVTEST_SIGUPD(x10, x5, x4, x29, I_sub_cg_cmp_rd_rs1_rs2_b29, I_sub_cg_cmp_rd_rs1_rs2_b29_str)
    4410:	00052203          	lw	x4,0(x10)
    4414:	01d20863          	beq	x4,x29,4424 <I_sub_cg_cmp_rd_rs1_rs2_b29+0x18>
    4418:	0c4002ef          	jal	x5,44dc <failedtest_x5_x4>
    441c:	0000440c          	.word	0x0000440c
    4420:	0000ef3c          	.word	0x0000ef3c
    4424:	00450513          	addi	x10,x10,4

# Testcase cmp_rd_rs1_rs2 (Test rd = rs1 = rs2 = x30)
  RVTEST_TESTDATA_LOAD_INT(x22, x30) # load rs1: x30 = 0x28b870be
    4428:	000b2f03          	lw	x30,0(x22)
    442c:	004b0b13          	addi	x22,x22,4
  RVTEST_TESTDATA_LOAD_INT(x22, x30) # load rs2: x30 = 0xa84b6906
    4430:	000b2f03          	lw	x30,0(x22)
    4434:	004b0b13          	addi	x22,x22,4

00004438 <I_sub_cg_cmp_rd_rs1_rs2_b30>:
I_sub_cg_cmp_rd_rs1_rs2_b30:
  sub x30, x30, x30 # perform operation
    4438:	41ef0f33          	sub	x30,x30,x30
  # Check if x30 contains the expected result. x10 is the signature ptr, x5 is the link ptr, x4 is a temp reg.
  RVTEST_SIGUPD(x10, x5, x4, x30, I_sub_cg_cmp_rd_rs1_rs2_b30, I_sub_cg_cmp_rd_rs1_rs2_b30_str)
    443c:	00052203          	lw	x4,0(x10)
    4440:	01e20863          	beq	x4,x30,4450 <I_sub_cg_cmp_rd_rs1_rs2_b30+0x18>
    4444:	098002ef          	jal	x5,44dc <failedtest_x5_x4>
    4448:	00004438          	.word	0x00004438
    444c:	0000ef74          	.word	0x0000ef74
    4450:	00450513          	addi	x10,x10,4

# Testcase cmp_rd_rs1_rs2 (Test rd = rs1 = rs2 = x31)
  RVTEST_TESTDATA_LOAD_INT(x22, x31) # load rs1: x31 = 0x17d31893
    4454:	000b2f83          	lw	x31,0(x22)
    4458:	004b0b13          	addi	x22,x22,4
  RVTEST_TESTDATA_LOAD_INT(x22, x31) # load rs2: x31 = 0x0378d725
    445c:	000b2f83          	lw	x31,0(x22)
    4460:	004b0b13          	addi	x22,x22,4

00004464 <I_sub_cg_cmp_rd_rs1_rs2_b31>:
I_sub_cg_cmp_rd_rs1_rs2_b31:
  sub x31, x31, x31 # perform operation
    4464:	41ff8fb3          	sub	x31,x31,x31
  # Check if x31 contains the expected result. x10 is the signature ptr, x5 is the link ptr, x4 is a temp reg.
  RVTEST_SIGUPD(x10, x5, x4, x31, I_sub_cg_cmp_rd_rs1_rs2_b31, I_sub_cg_cmp_rd_rs1_rs2_b31_str)
    4468:	00052203          	lw	x4,0(x10)
    446c:	01f20863          	beq	x4,x31,447c <I_sub_cg_cmp_rd_rs1_rs2_b31+0x18>
    4470:	06c002ef          	jal	x5,44dc <failedtest_x5_x4>
    4474:	00004464          	.word	0x00004464
    4478:	0000efac          	.word	0x0000efac
    447c:	00450513          	addi	x10,x10,4

  mv x2, x10 # restore signature pointer to default register for teardown
    4480:	00050113          	addi	x2,x10,0

00004484 <cleanup_epilogs>:
    4484:	00000013          	addi	x0,x0,0
    4488:	00000013          	addi	x0,x0,0
    448c:	00000013          	addi	x0,x0,0
    4490:	00000013          	addi	x0,x0,0
    4494:	00000013          	addi	x0,x0,0
    4498:	00000013          	addi	x0,x0,0
    449c:	00000013          	addi	x0,x0,0

// Instantiate trap handlers and other epilog code, call RVMODEL_HALT at end of test
RVTEST_CODE_END
    44a0:	0000b517          	auipc	x10,0xb
    44a4:	1b450513          	addi	x10,x10,436 # f654 <successstr>
    44a8:	00000013          	addi	x0,x0,0
    44ac:	00000013          	addi	x0,x0,0
    44b0:	00000013          	addi	x0,x0,0
    44b4:	00000013          	addi	x0,x0,0
    44b8:	00000013          	addi	x0,x0,0
    44bc:	00000013          	addi	x0,x0,0
    44c0:	0001c097          	auipc	x1,0x1c
    44c4:	d44080e7          	jalr	x1,-700(x1) # 20204 <rvmodel_io_write_str>
    44c8:	0001c097          	auipc	x1,0x1c
    44cc:	d40080e7          	jalr	x1,-704(x1) # 20208 <rvmodel_halt_pass>

000044d0 <abort_test>:
    44d0:	bad0e737          	lui	x14,0xbad0e
    44d4:	ead70713          	addi	x14,x14,-339 # bad0dead <absimm+0x4b743ba4>
    44d8:	fadff06f          	jal	x0,4484 <cleanup_epilogs>

000044dc <failedtest_x5_x4>:
    44dc:	0000b217          	auipc	x4,0xb
    44e0:	b1420213          	addi	x4,x4,-1260 # eff0 <begin_failure_scratch>
    44e4:	02522423          	sw	x5,40(x4) # 28 <MMODE_SIG+0x25>
    44e8:	00122423          	sw	x1,8(x4) # 8 <MMODE_SIG+0x5>
    44ec:	00022023          	sw	x0,0(x4) # 0 <rvtest_entry_point>
    44f0:	0b00006f          	jal	x0,45a0 <failedtest_saveregs>

000044f4 <failedtest_x8_x7>:
    44f4:	0000b397          	auipc	x7,0xb
    44f8:	afc38393          	addi	x7,x7,-1284 # eff0 <begin_failure_scratch>
    44fc:	0483a023          	sw	x8,64(x7)
    4500:	0243a023          	sw	x4,32(x7)
    4504:	0253a423          	sw	x5,40(x7)
    4508:	0013a423          	sw	x1,8(x7)
    450c:	0003a023          	sw	x0,0(x7)
    4510:	00038213          	addi	x4,x7,0
    4514:	00040293          	addi	x5,x8,0
    4518:	0880006f          	jal	x0,45a0 <failedtest_saveregs>

0000451c <failedtest_x14_x13>:
    451c:	0000b697          	auipc	x13,0xb
    4520:	ad468693          	addi	x13,x13,-1324 # eff0 <begin_failure_scratch>
    4524:	06e6a823          	sw	x14,112(x13)
    4528:	0246a023          	sw	x4,32(x13)
    452c:	0256a423          	sw	x5,40(x13)
    4530:	0016a423          	sw	x1,8(x13)
    4534:	0006a023          	sw	x0,0(x13)
    4538:	00068213          	addi	x4,x13,0
    453c:	00070293          	addi	x5,x14,0
    4540:	0600006f          	jal	x0,45a0 <failedtest_saveregs>

00004544 <failedtest_trap_x7_x9>:
    4544:	0000b497          	auipc	x9,0xb
    4548:	aac48493          	addi	x9,x9,-1364 # eff0 <begin_failure_scratch>
    454c:	0674a423          	sw	x7,104(x9)
    4550:	0244a023          	sw	x4,32(x9)
    4554:	0254a423          	sw	x5,40(x9)
    4558:	0014a423          	sw	x1,8(x9)
    455c:	00300093          	addi	x1,x0,3
    4560:	0014a023          	sw	x1,0(x9)
    4564:	00048213          	addi	x4,x9,0
    4568:	00038293          	addi	x5,x7,0
    456c:	342020f3          	csrrs	x1,mcause,x0
    4570:	0000b497          	auipc	x9,0xb
    4574:	bf048493          	addi	x9,x9,-1040 # f160 <saved_mcause>
    4578:	0014a023          	sw	x1,0(x9)
    457c:	343020f3          	csrrs	x1,mtval,x0
    4580:	0000b497          	auipc	x9,0xb
    4584:	be848493          	addi	x9,x9,-1048 # f168 <saved_mtval>
    4588:	0014a023          	sw	x1,0(x9)
    458c:	300020f3          	csrrs	x1,mstatus,x0
    4590:	0000b497          	auipc	x9,0xb
    4594:	be048493          	addi	x9,x9,-1056 # f170 <saved_mstatus>
    4598:	0014a023          	sw	x1,0(x9)
    459c:	0040006f          	jal	x0,45a0 <failedtest_saveregs>

000045a0 <failedtest_saveregs>:
    45a0:	00222823          	sw	x2,16(x4) # 10 <MMODE_SIG+0xd>
    45a4:	00322c23          	sw	x3,24(x4) # 18 <MMODE_SIG+0x15>
    45a8:	02622823          	sw	x6,48(x4) # 30 <MMODE_SIG+0x2d>
    45ac:	02722c23          	sw	x7,56(x4) # 38 <MMODE_SIG+0x35>
    45b0:	04822023          	sw	x8,64(x4) # 40 <rvtest_code_begin>
    45b4:	04922423          	sw	x9,72(x4) # 48 <rvtest_code_begin+0x8>
    45b8:	04a22823          	sw	x10,80(x4) # 50 <I_sub_cg_cp_rs1_b0>
    45bc:	04b22c23          	sw	x11,88(x4) # 58 <I_sub_cg_cp_rs1_b0+0x8>
    45c0:	06c22023          	sw	x12,96(x4) # 60 <I_sub_cg_cp_rs1_b0+0x10>
    45c4:	06d22423          	sw	x13,104(x4) # 68 <I_sub_cg_cp_rs1_b0+0x18>
    45c8:	06e22823          	sw	x14,112(x4) # 70 <I_sub_cg_cp_rs1_b0+0x20>
    45cc:	06f22c23          	sw	x15,120(x4) # 78 <I_sub_cg_cp_rs1_b0+0x28>
    45d0:	09022023          	sw	x16,128(x4) # 80 <I_sub_cg_cp_rs1_b1+0x4>
    45d4:	09122423          	sw	x17,136(x4) # 88 <I_sub_cg_cp_rs1_b1+0xc>
    45d8:	09222823          	sw	x18,144(x4) # 90 <I_sub_cg_cp_rs1_b1+0x14>
    45dc:	09322c23          	sw	x19,152(x4) # 98 <I_sub_cg_cp_rs1_b1+0x1c>
    45e0:	0b422023          	sw	x20,160(x4) # a0 <I_sub_cg_cp_rs1_b1+0x24>
    45e4:	0b522423          	sw	x21,168(x4) # a8 <I_sub_cg_cp_rs1_b1+0x2c>
    45e8:	0b622823          	sw	x22,176(x4) # b0 <I_sub_cg_cp_rs1_b2+0x4>
    45ec:	0b722c23          	sw	x23,184(x4) # b8 <I_sub_cg_cp_rs1_b2+0xc>
    45f0:	0d822023          	sw	x24,192(x4) # c0 <I_sub_cg_cp_rs1_b2+0x14>
    45f4:	0d922423          	sw	x25,200(x4) # c8 <I_sub_cg_cp_rs1_b2+0x1c>
    45f8:	0da22823          	sw	x26,208(x4) # d0 <I_sub_cg_cp_rs1_b2+0x24>
    45fc:	0db22c23          	sw	x27,216(x4) # d8 <I_sub_cg_cp_rs1_b2+0x2c>
    4600:	0fc22023          	sw	x28,224(x4) # e0 <I_sub_cg_cp_rs1_b3+0x4>
    4604:	0fd22423          	sw	x29,232(x4) # e8 <I_sub_cg_cp_rs1_b3+0xc>
    4608:	0fe22823          	sw	x30,240(x4) # f0 <I_sub_cg_cp_rs1_b3+0x14>
    460c:	0ff22c23          	sw	x31,248(x4) # f8 <I_sub_cg_cp_rs1_b3+0x1c>

00004610 <failedtest_saveresults>:
    4610:	0000b497          	auipc	x9,0xb
    4614:	9e04a483          	lw	x9,-1568(x9) # eff0 <begin_failure_scratch>
    4618:	00300513          	addi	x10,x0,3
    461c:	06a48863          	beq	x9,x10,468c <failedtest_saveresults_trap>

00004620 <failedtest_saveresults_int>:
    4620:	ffa2d303          	lhu	x6,-6(x5)
    4624:	ff82d383          	lhu	x7,-8(x5)
    4628:	01031313          	slli	x6,x6,0x10
    462c:	00736333          	or	x6,x6,x7
    4630:	00f35393          	srli	x7,x6,0xf
    4634:	01f3f393          	andi	x7,x7,31
    4638:	01435413          	srli	x8,x6,0x14
    463c:	01f47413          	andi	x8,x8,31
    4640:	10822223          	sw	x8,260(x4) # 104 <I_sub_cg_cp_rs1_b3+0x28>
    4644:	00341313          	slli	x6,x8,0x3
    4648:	00620333          	add	x6,x4,x6
    464c:	00032303          	lw	x6,0(x6)
    4650:	10622823          	sw	x6,272(x4) # 110 <I_sub_cg_cp_rs1_b4>
    4654:	ff62d303          	lhu	x6,-10(x5)
    4658:	ff42d383          	lhu	x7,-12(x5)
    465c:	01031313          	slli	x6,x6,0x10
    4660:	00736333          	or	x6,x6,x7
    4664:	41435393          	srai	x7,x6,0x14
    4668:	00f35313          	srli	x6,x6,0xf
    466c:	01f37313          	andi	x6,x6,31
    4670:	00331313          	slli	x6,x6,0x3
    4674:	00620333          	add	x6,x4,x6
    4678:	00032303          	lw	x6,0(x6)
    467c:	00730333          	add	x6,x6,x7
    4680:	00032303          	lw	x6,0(x6)
    4684:	10622c23          	sw	x6,280(x4) # 118 <I_sub_cg_cp_rs1_b4+0x8>
    4688:	3d80006f          	jal	x0,4a60 <failedtest_saveresults_common>

0000468c <failedtest_saveresults_trap>:
    468c:	0042a303          	lw	x6,4(x5)
    4690:	0000b817          	auipc	x16,0xb
    4694:	ab880813          	addi	x16,x16,-1352 # f148 <trap_diag_fail_str_ptr>
    4698:	00682023          	sw	x6,0(x16)
    469c:	0002a303          	lw	x6,0(x5)
    46a0:	10622423          	sw	x6,264(x4) # 108 <I_sub_cg_cp_rs1_b3+0x2c>
    46a4:	0000b817          	auipc	x16,0xb
    46a8:	aa480813          	addi	x16,x16,-1372 # f148 <trap_diag_fail_str_ptr>
    46ac:	00082303          	lw	x6,0(x16)
    46b0:	0000b397          	auipc	x7,0xb
    46b4:	16a38393          	addi	x7,x7,362 # f81a <trap_sig_offset_mismatch>
    46b8:	28730463          	beq	x6,x7,4940 <trap_diag_offset_mismatch>
    46bc:	00000413          	addi	x8,x0,0
    46c0:	0000b817          	auipc	x16,0xb
    46c4:	a6080813          	addi	x16,x16,-1440 # f120 <trap_diag_subtype>
    46c8:	00882023          	sw	x8,0(x16)
    46cc:	0000b397          	auipc	x7,0xb
    46d0:	1b238393          	addi	x7,x7,434 # f87e <sv_Mvect_str>
    46d4:	00731863          	bne	x6,x7,46e4 <failedtest_saveresults_trap+0x58>
    46d8:	00100413          	addi	x8,x0,1
    46dc:	00000493          	addi	x9,x0,0
    46e0:	2e00006f          	jal	x0,49c0 <trap_diag_field_identified>
    46e4:	0000b397          	auipc	x7,0xb
    46e8:	29c38393          	addi	x7,x7,668 # f980 <sv_Mcause_str>
    46ec:	00731863          	bne	x6,x7,46fc <failedtest_saveresults_trap+0x70>
    46f0:	00200413          	addi	x8,x0,2
    46f4:	00000493          	addi	x9,x0,0
    46f8:	2c80006f          	jal	x0,49c0 <trap_diag_field_identified>
    46fc:	0000b397          	auipc	x7,0xb
    4700:	37f38393          	addi	x7,x7,895 # fa7b <sv_Mepc_str>
    4704:	00731863          	bne	x6,x7,4714 <failedtest_saveresults_trap+0x88>
    4708:	00300413          	addi	x8,x0,3
    470c:	00000493          	addi	x9,x0,0
    4710:	2b00006f          	jal	x0,49c0 <trap_diag_field_identified>
    4714:	0000b397          	auipc	x7,0xb
    4718:	45a38393          	addi	x7,x7,1114 # fb6e <sv_Mtval_str>
    471c:	00731863          	bne	x6,x7,472c <failedtest_saveresults_trap+0xa0>
    4720:	00400413          	addi	x8,x0,4
    4724:	00000493          	addi	x9,x0,0
    4728:	2980006f          	jal	x0,49c0 <trap_diag_field_identified>
    472c:	0000b397          	auipc	x7,0xb
    4730:	5b538393          	addi	x7,x7,1461 # fce1 <sv_Mip_str>
    4734:	00731863          	bne	x6,x7,4744 <failedtest_saveresults_trap+0xb8>
    4738:	00500413          	addi	x8,x0,5
    473c:	00000493          	addi	x9,x0,0
    4740:	2800006f          	jal	x0,49c0 <trap_diag_field_identified>
    4744:	0000b397          	auipc	x7,0xb
    4748:	52138393          	addi	x7,x7,1313 # fc65 <sv_Mtval2_str>
    474c:	00731863          	bne	x6,x7,475c <failedtest_saveresults_trap+0xd0>
    4750:	00600413          	addi	x8,x0,6
    4754:	00000493          	addi	x9,x0,0
    4758:	2680006f          	jal	x0,49c0 <trap_diag_field_identified>
    475c:	0000b397          	auipc	x7,0xb
    4760:	54738393          	addi	x7,x7,1351 # fca3 <sv_Mtinst_str>
    4764:	00731863          	bne	x6,x7,4774 <failedtest_saveresults_trap+0xe8>
    4768:	00700413          	addi	x8,x0,7
    476c:	00000493          	addi	x9,x0,0
    4770:	2500006f          	jal	x0,49c0 <trap_diag_field_identified>
    4774:	0000b397          	auipc	x7,0xb
    4778:	14a38393          	addi	x7,x7,330 # f8be <sv_Svect_str>
    477c:	00731863          	bne	x6,x7,478c <failedtest_saveresults_trap+0x100>
    4780:	00100413          	addi	x8,x0,1
    4784:	00100493          	addi	x9,x0,1
    4788:	2380006f          	jal	x0,49c0 <trap_diag_field_identified>
    478c:	0000b397          	auipc	x7,0xb
    4790:	23238393          	addi	x7,x7,562 # f9be <sv_Scause_str>
    4794:	00731863          	bne	x6,x7,47a4 <failedtest_saveresults_trap+0x118>
    4798:	00200413          	addi	x8,x0,2
    479c:	00100493          	addi	x9,x0,1
    47a0:	2200006f          	jal	x0,49c0 <trap_diag_field_identified>
    47a4:	0000b397          	auipc	x7,0xb
    47a8:	31338393          	addi	x7,x7,787 # fab7 <sv_Sepc_str>
    47ac:	00731863          	bne	x6,x7,47bc <failedtest_saveresults_trap+0x130>
    47b0:	00300413          	addi	x8,x0,3
    47b4:	00100493          	addi	x9,x0,1
    47b8:	2080006f          	jal	x0,49c0 <trap_diag_field_identified>
    47bc:	0000b397          	auipc	x7,0xb
    47c0:	3ef38393          	addi	x7,x7,1007 # fbab <sv_Stval_str>
    47c4:	00731863          	bne	x6,x7,47d4 <failedtest_saveresults_trap+0x148>
    47c8:	00400413          	addi	x8,x0,4
    47cc:	00100493          	addi	x9,x0,1
    47d0:	1f00006f          	jal	x0,49c0 <trap_diag_field_identified>
    47d4:	0000b397          	auipc	x7,0xb
    47d8:	54838393          	addi	x7,x7,1352 # fd1c <sv_Sip_str>
    47dc:	00731863          	bne	x6,x7,47ec <failedtest_saveresults_trap+0x160>
    47e0:	00500413          	addi	x8,x0,5
    47e4:	00100493          	addi	x9,x0,1
    47e8:	1d80006f          	jal	x0,49c0 <trap_diag_field_identified>
    47ec:	0000b397          	auipc	x7,0xb
    47f0:	11238393          	addi	x7,x7,274 # f8fe <sv_Hvect_str>
    47f4:	00731863          	bne	x6,x7,4804 <failedtest_saveresults_trap+0x178>
    47f8:	00100413          	addi	x8,x0,1
    47fc:	00200493          	addi	x9,x0,2
    4800:	1c00006f          	jal	x0,49c0 <trap_diag_field_identified>
    4804:	0000b397          	auipc	x7,0xb
    4808:	1f838393          	addi	x7,x7,504 # f9fc <sv_Hcause_str>
    480c:	00731863          	bne	x6,x7,481c <failedtest_saveresults_trap+0x190>
    4810:	00200413          	addi	x8,x0,2
    4814:	00200493          	addi	x9,x0,2
    4818:	1a80006f          	jal	x0,49c0 <trap_diag_field_identified>
    481c:	0000b397          	auipc	x7,0xb
    4820:	2d738393          	addi	x7,x7,727 # faf3 <sv_Hepc_str>
    4824:	00731863          	bne	x6,x7,4834 <failedtest_saveresults_trap+0x1a8>
    4828:	00300413          	addi	x8,x0,3
    482c:	00200493          	addi	x9,x0,2
    4830:	1900006f          	jal	x0,49c0 <trap_diag_field_identified>
    4834:	0000b397          	auipc	x7,0xb
    4838:	3b438393          	addi	x7,x7,948 # fbe8 <sv_Htval_str>
    483c:	00731863          	bne	x6,x7,484c <failedtest_saveresults_trap+0x1c0>
    4840:	00400413          	addi	x8,x0,4
    4844:	00200493          	addi	x9,x0,2
    4848:	1780006f          	jal	x0,49c0 <trap_diag_field_identified>
    484c:	0000b397          	auipc	x7,0xb
    4850:	50b38393          	addi	x7,x7,1291 # fd57 <sv_Hip_str>
    4854:	00731863          	bne	x6,x7,4864 <failedtest_saveresults_trap+0x1d8>
    4858:	00500413          	addi	x8,x0,5
    485c:	00200493          	addi	x9,x0,2
    4860:	1600006f          	jal	x0,49c0 <trap_diag_field_identified>
    4864:	0000b397          	auipc	x7,0xb
    4868:	0db38393          	addi	x7,x7,219 # f93f <sv_Vvect_str>
    486c:	00731863          	bne	x6,x7,487c <failedtest_saveresults_trap+0x1f0>
    4870:	00100413          	addi	x8,x0,1
    4874:	00300493          	addi	x9,x0,3
    4878:	1480006f          	jal	x0,49c0 <trap_diag_field_identified>
    487c:	0000b397          	auipc	x7,0xb
    4880:	1bf38393          	addi	x7,x7,447 # fa3b <sv_Vcause_str>
    4884:	00731863          	bne	x6,x7,4894 <failedtest_saveresults_trap+0x208>
    4888:	00200413          	addi	x8,x0,2
    488c:	00300493          	addi	x9,x0,3
    4890:	1300006f          	jal	x0,49c0 <trap_diag_field_identified>
    4894:	0000b397          	auipc	x7,0xb
    4898:	29c38393          	addi	x7,x7,668 # fb30 <sv_Vepc_str>
    489c:	00731863          	bne	x6,x7,48ac <failedtest_saveresults_trap+0x220>
    48a0:	00300413          	addi	x8,x0,3
    48a4:	00300493          	addi	x9,x0,3
    48a8:	1180006f          	jal	x0,49c0 <trap_diag_field_identified>
    48ac:	0000b397          	auipc	x7,0xb
    48b0:	37a38393          	addi	x7,x7,890 # fc26 <sv_Vtval_str>
    48b4:	00731863          	bne	x6,x7,48c4 <failedtest_saveresults_trap+0x238>
    48b8:	00400413          	addi	x8,x0,4
    48bc:	00300493          	addi	x9,x0,3
    48c0:	1000006f          	jal	x0,49c0 <trap_diag_field_identified>
    48c4:	0000b397          	auipc	x7,0xb
    48c8:	4cf38393          	addi	x7,x7,1231 # fd93 <sv_Vip_str>
    48cc:	00731863          	bne	x6,x7,48dc <failedtest_saveresults_trap+0x250>
    48d0:	00500413          	addi	x8,x0,5
    48d4:	00300493          	addi	x9,x0,3
    48d8:	0e80006f          	jal	x0,49c0 <trap_diag_field_identified>
    48dc:	0000b397          	auipc	x7,0xb
    48e0:	4f438393          	addi	x7,x7,1268 # fdd0 <Mclr_Mext_int_str>
    48e4:	00731863          	bne	x6,x7,48f4 <failedtest_saveresults_trap+0x268>
    48e8:	00800413          	addi	x8,x0,8
    48ec:	00000493          	addi	x9,x0,0
    48f0:	0d00006f          	jal	x0,49c0 <trap_diag_field_identified>
    48f4:	0000b397          	auipc	x7,0xb
    48f8:	52b38393          	addi	x7,x7,1323 # fe1f <Mclr_Sext_int_str>
    48fc:	00731863          	bne	x6,x7,490c <failedtest_saveresults_trap+0x280>
    4900:	00800413          	addi	x8,x0,8
    4904:	00000493          	addi	x9,x0,0
    4908:	0b80006f          	jal	x0,49c0 <trap_diag_field_identified>
    490c:	0000b397          	auipc	x7,0xb
    4910:	60e38393          	addi	x7,x7,1550 # ff1a <Sclr_Sext_int_str>
    4914:	00731863          	bne	x6,x7,4924 <failedtest_saveresults_trap+0x298>
    4918:	00800413          	addi	x8,x0,8
    491c:	00100493          	addi	x9,x0,1
    4920:	0a00006f          	jal	x0,49c0 <trap_diag_field_identified>
    4924:	0000b397          	auipc	x7,0xb
    4928:	6f238393          	addi	x7,x7,1778 # 10016 <Hclr_Sext_int_str>
    492c:	00731863          	bne	x6,x7,493c <failedtest_saveresults_trap+0x2b0>
    4930:	00800413          	addi	x8,x0,8
    4934:	00200493          	addi	x9,x0,2
    4938:	0880006f          	jal	x0,49c0 <trap_diag_field_identified>
    493c:	1140006f          	jal	x0,4a50 <trap_diag_generic_report>

00004940 <trap_diag_offset_mismatch>:
    4940:	00900413          	addi	x8,x0,9
    4944:	0000a817          	auipc	x16,0xa
    4948:	7dc80813          	addi	x16,x16,2012 # f120 <trap_diag_subtype>
    494c:	00882023          	sw	x8,0(x16)
    4950:	ffa2d303          	lhu	x6,-6(x5)
    4954:	ff82d383          	lhu	x7,-8(x5)
    4958:	01031313          	slli	x6,x6,0x10
    495c:	00736333          	or	x6,x6,x7
    4960:	01435413          	srli	x8,x6,0x14
    4964:	01f47413          	andi	x8,x8,31
    4968:	00341313          	slli	x6,x8,0x3
    496c:	00620333          	add	x6,x4,x6
    4970:	00032303          	lw	x6,0(x6)
    4974:	0000a817          	auipc	x16,0xa
    4978:	7c480813          	addi	x16,x16,1988 # f138 <trap_diag_actual_offset>
    497c:	00682023          	sw	x6,0(x16)
    4980:	ff62d303          	lhu	x6,-10(x5)
    4984:	ff42d383          	lhu	x7,-12(x5)
    4988:	01031313          	slli	x6,x6,0x10
    498c:	00736333          	or	x6,x6,x7
    4990:	41435393          	srai	x7,x6,0x14
    4994:	00f35313          	srli	x6,x6,0xf
    4998:	01f37313          	andi	x6,x6,31
    499c:	00331313          	slli	x6,x6,0x3
    49a0:	00620333          	add	x6,x4,x6
    49a4:	00032303          	lw	x6,0(x6)
    49a8:	00730333          	add	x6,x6,x7
    49ac:	00032303          	lw	x6,0(x6)
    49b0:	0000a817          	auipc	x16,0xa
    49b4:	79080813          	addi	x16,x16,1936 # f140 <trap_diag_expected_offset>
    49b8:	00682023          	sw	x6,0(x16)
    49bc:	0a40006f          	jal	x0,4a60 <failedtest_saveresults_common>

000049c0 <trap_diag_field_identified>:
    49c0:	0000a817          	auipc	x16,0xa
    49c4:	76080813          	addi	x16,x16,1888 # f120 <trap_diag_subtype>
    49c8:	00882023          	sw	x8,0(x16)
    49cc:	0000a817          	auipc	x16,0xa
    49d0:	75880813          	addi	x16,x16,1880 # f124 <trap_diag_mode>
    49d4:	00982023          	sw	x9,0(x16)
    49d8:	ffa2d303          	lhu	x6,-6(x5)
    49dc:	ff82d383          	lhu	x7,-8(x5)
    49e0:	01031313          	slli	x6,x6,0x10
    49e4:	00736333          	or	x6,x6,x7
    49e8:	01435713          	srli	x14,x6,0x14
    49ec:	01f77713          	andi	x14,x14,31
    49f0:	00371313          	slli	x6,x14,0x3
    49f4:	00620333          	add	x6,x4,x6
    49f8:	00032303          	lw	x6,0(x6)
    49fc:	10622823          	sw	x6,272(x4) # 110 <I_sub_cg_cp_rs1_b4>
    4a00:	0000a817          	auipc	x16,0xa
    4a04:	72880813          	addi	x16,x16,1832 # f128 <trap_diag_actual_value>
    4a08:	00682023          	sw	x6,0(x16)
    4a0c:	ff62d303          	lhu	x6,-10(x5)
    4a10:	ff42d383          	lhu	x7,-12(x5)
    4a14:	01031313          	slli	x6,x6,0x10
    4a18:	00736333          	or	x6,x6,x7
    4a1c:	41435393          	srai	x7,x6,0x14
    4a20:	00f35313          	srli	x6,x6,0xf
    4a24:	01f37313          	andi	x6,x6,31
    4a28:	00331313          	slli	x6,x6,0x3
    4a2c:	00620333          	add	x6,x4,x6
    4a30:	00032303          	lw	x6,0(x6)
    4a34:	00730333          	add	x6,x6,x7
    4a38:	00032303          	lw	x6,0(x6)
    4a3c:	10622c23          	sw	x6,280(x4) # 118 <I_sub_cg_cp_rs1_b4+0x8>
    4a40:	0000a817          	auipc	x16,0xa
    4a44:	6f080813          	addi	x16,x16,1776 # f130 <trap_diag_expected_value>
    4a48:	00682023          	sw	x6,0(x16)
    4a4c:	0140006f          	jal	x0,4a60 <failedtest_saveresults_common>

00004a50 <trap_diag_generic_report>:
    4a50:	0000a817          	auipc	x16,0xa
    4a54:	6d080813          	addi	x16,x16,1744 # f120 <trap_diag_subtype>
    4a58:	00082023          	sw	x0,0(x16)
    4a5c:	0040006f          	jal	x0,4a60 <failedtest_saveresults_common>

00004a60 <failedtest_saveresults_common>:
    4a60:	0002a303          	lw	x6,0(x5)
    4a64:	10622423          	sw	x6,264(x4) # 108 <I_sub_cg_cp_rs1_b3+0x2c>
    4a68:	00035383          	lhu	x7,0(x6)
    4a6c:	0033f413          	andi	x8,x7,3
    4a70:	00300493          	addi	x9,x0,3
    4a74:	00941863          	bne	x8,x9,4a84 <failedtest_saveresults_common+0x24>
    4a78:	00235403          	lhu	x8,2(x6)
    4a7c:	01041413          	slli	x8,x8,0x10
    4a80:	0083e3b3          	or	x7,x7,x8
    4a84:	10722023          	sw	x7,256(x4) # 100 <I_sub_cg_cp_rs1_b3+0x24>
    4a88:	0042a303          	lw	x6,4(x5)
    4a8c:	12622023          	sw	x6,288(x4) # 120 <I_sub_cg_cp_rs1_b4+0x10>

00004a90 <failedtest_report>:
    4a90:	00000013          	addi	x0,x0,0
    4a94:	00000013          	addi	x0,x0,0
    4a98:	00000013          	addi	x0,x0,0
    4a9c:	00000013          	addi	x0,x0,0
    4aa0:	0000b517          	auipc	x10,0xb
    4aa4:	bea50513          	addi	x10,x10,-1046 # f68a <failstr>
    4aa8:	00000013          	addi	x0,x0,0
    4aac:	00000013          	addi	x0,x0,0
    4ab0:	00000013          	addi	x0,x0,0
    4ab4:	00000013          	addi	x0,x0,0
    4ab8:	00000013          	addi	x0,x0,0
    4abc:	00000013          	addi	x0,x0,0
    4ac0:	0001b097          	auipc	x1,0x1b
    4ac4:	744080e7          	jalr	x1,1860(x1) # 20204 <rvmodel_io_write_str>

00004ac8 <print_testnamestr>:
    4ac8:	00000013          	addi	x0,x0,0
    4acc:	00000013          	addi	x0,x0,0
    4ad0:	00000013          	addi	x0,x0,0
    4ad4:	00000013          	addi	x0,x0,0
    4ad8:	00000013          	addi	x0,x0,0
    4adc:	00000013          	addi	x0,x0,0
    4ae0:	0000b517          	auipc	x10,0xb
    4ae4:	c3d50513          	addi	x10,x10,-963 # f71d <testnamestr>
    4ae8:	00000013          	addi	x0,x0,0
    4aec:	00000013          	addi	x0,x0,0
    4af0:	00000013          	addi	x0,x0,0
    4af4:	00000013          	addi	x0,x0,0
    4af8:	00000013          	addi	x0,x0,0
    4afc:	00000013          	addi	x0,x0,0
    4b00:	0001b097          	auipc	x1,0x1b
    4b04:	704080e7          	jalr	x1,1796(x1) # 20204 <rvmodel_io_write_str>

00004b08 <print_failure_test_name_str>:
    4b08:	0000a517          	auipc	x10,0xa
    4b0c:	60852503          	lw	x10,1544(x10) # f110 <failure_string_ptr>
    4b10:	0001b097          	auipc	x1,0x1b
    4b14:	6f4080e7          	jalr	x1,1780(x1) # 20204 <rvmodel_io_write_str>

00004b18 <print_newline_str>:
    4b18:	00000013          	addi	x0,x0,0
    4b1c:	00000013          	addi	x0,x0,0
    4b20:	0000b517          	auipc	x10,0xb
    4b24:	c0f50513          	addi	x10,x10,-1009 # f72f <newlinestr>
    4b28:	00000013          	addi	x0,x0,0
    4b2c:	00000013          	addi	x0,x0,0
    4b30:	00000013          	addi	x0,x0,0
    4b34:	00000013          	addi	x0,x0,0
    4b38:	00000013          	addi	x0,x0,0
    4b3c:	00000013          	addi	x0,x0,0
    4b40:	0001b097          	auipc	x1,0x1b
    4b44:	6c4080e7          	jalr	x1,1732(x1) # 20204 <rvmodel_io_write_str>
    4b48:	0000a517          	auipc	x10,0xa
    4b4c:	4a852503          	lw	x10,1192(x10) # eff0 <begin_failure_scratch>
    4b50:	00300593          	addi	x11,x0,3
    4b54:	3eb50c63          	beq	x10,x11,4f4c <failedtest_report_trap_detailed>
    4b58:	00000013          	addi	x0,x0,0
    4b5c:	00000013          	addi	x0,x0,0
    4b60:	0000b517          	auipc	x10,0xb
    4b64:	bd150513          	addi	x10,x10,-1071 # f731 <inststr>
    4b68:	00000013          	addi	x0,x0,0
    4b6c:	00000013          	addi	x0,x0,0
    4b70:	00000013          	addi	x0,x0,0
    4b74:	00000013          	addi	x0,x0,0
    4b78:	00000013          	addi	x0,x0,0
    4b7c:	00000013          	addi	x0,x0,0
    4b80:	0001b097          	auipc	x1,0x1b
    4b84:	684080e7          	jalr	x1,1668(x1) # 20204 <rvmodel_io_write_str>
    4b88:	0000a517          	auipc	x10,0xa
    4b8c:	56852503          	lw	x10,1384(x10) # f0f0 <failing_instruction>
    4b90:	02000593          	addi	x11,x0,32
    4b94:	00357613          	andi	x12,x10,3
    4b98:	00300693          	addi	x13,x0,3
    4b9c:	00d60463          	beq	x12,x13,4ba4 <print_newline_str+0x8c>
    4ba0:	01000593          	addi	x11,x0,16
    4ba4:	2f4010ef          	jal	x1,5e98 <failedtest_hex_to_str>
    4ba8:	00000013          	addi	x0,x0,0
    4bac:	00000013          	addi	x0,x0,0
    4bb0:	00000013          	addi	x0,x0,0
    4bb4:	00000013          	addi	x0,x0,0
    4bb8:	00000013          	addi	x0,x0,0
    4bbc:	00000013          	addi	x0,x0,0
    4bc0:	0000a517          	auipc	x10,0xa
    4bc4:	5b850513          	addi	x10,x10,1464 # f178 <ascii_buffer>
    4bc8:	00000013          	addi	x0,x0,0
    4bcc:	00000013          	addi	x0,x0,0
    4bd0:	00000013          	addi	x0,x0,0
    4bd4:	00000013          	addi	x0,x0,0
    4bd8:	00000013          	addi	x0,x0,0
    4bdc:	00000013          	addi	x0,x0,0
    4be0:	0001b097          	auipc	x1,0x1b
    4be4:	624080e7          	jalr	x1,1572(x1) # 20204 <rvmodel_io_write_str>
    4be8:	00000013          	addi	x0,x0,0
    4bec:	00000013          	addi	x0,x0,0
    4bf0:	00000013          	addi	x0,x0,0
    4bf4:	00000013          	addi	x0,x0,0
    4bf8:	00000013          	addi	x0,x0,0
    4bfc:	00000013          	addi	x0,x0,0
    4c00:	0000b517          	auipc	x10,0xb
    4c04:	b4550513          	addi	x10,x10,-1211 # f745 <addrstr>
    4c08:	00000013          	addi	x0,x0,0
    4c0c:	00000013          	addi	x0,x0,0
    4c10:	00000013          	addi	x0,x0,0
    4c14:	00000013          	addi	x0,x0,0
    4c18:	00000013          	addi	x0,x0,0
    4c1c:	00000013          	addi	x0,x0,0
    4c20:	0001b097          	auipc	x1,0x1b
    4c24:	5e4080e7          	jalr	x1,1508(x1) # 20204 <rvmodel_io_write_str>
    4c28:	0000a517          	auipc	x10,0xa
    4c2c:	4d052503          	lw	x10,1232(x10) # f0f8 <failing_addr>
    4c30:	02000593          	addi	x11,x0,32
    4c34:	264010ef          	jal	x1,5e98 <failedtest_hex_to_str>
    4c38:	00000013          	addi	x0,x0,0
    4c3c:	00000013          	addi	x0,x0,0
    4c40:	0000a517          	auipc	x10,0xa
    4c44:	53850513          	addi	x10,x10,1336 # f178 <ascii_buffer>
    4c48:	00000013          	addi	x0,x0,0
    4c4c:	00000013          	addi	x0,x0,0
    4c50:	00000013          	addi	x0,x0,0
    4c54:	00000013          	addi	x0,x0,0
    4c58:	00000013          	addi	x0,x0,0
    4c5c:	00000013          	addi	x0,x0,0
    4c60:	0001b097          	auipc	x1,0x1b
    4c64:	5a4080e7          	jalr	x1,1444(x1) # 20204 <rvmodel_io_write_str>
    4c68:	00000013          	addi	x0,x0,0
    4c6c:	00000013          	addi	x0,x0,0
    4c70:	00000013          	addi	x0,x0,0
    4c74:	00000013          	addi	x0,x0,0
    4c78:	00000013          	addi	x0,x0,0
    4c7c:	00000013          	addi	x0,x0,0
    4c80:	0000b517          	auipc	x10,0xb
    4c84:	54250513          	addi	x10,x10,1346 # 101c2 <regstr>
    4c88:	00000013          	addi	x0,x0,0
    4c8c:	00000013          	addi	x0,x0,0
    4c90:	00000013          	addi	x0,x0,0
    4c94:	00000013          	addi	x0,x0,0
    4c98:	00000013          	addi	x0,x0,0
    4c9c:	00000013          	addi	x0,x0,0
    4ca0:	0001b097          	auipc	x1,0x1b
    4ca4:	564080e7          	jalr	x1,1380(x1) # 20204 <rvmodel_io_write_str>
    4ca8:	0000a517          	auipc	x10,0xa
    4cac:	34852503          	lw	x10,840(x10) # eff0 <begin_failure_scratch>
    4cb0:	00050663          	beq	x10,x0,4cbc <print_newline_str+0x1a4>
    4cb4:	00300593          	addi	x11,x0,3
    4cb8:	04b51063          	bne	x10,x11,4cf8 <failedtest_report_not_intreg>
    4cbc:	07800593          	addi	x11,x0,120
    4cc0:	0000a617          	auipc	x12,0xa
    4cc4:	4b860613          	addi	x12,x12,1208 # f178 <ascii_buffer>
    4cc8:	00000013          	addi	x0,x0,0
    4ccc:	00000013          	addi	x0,x0,0
    4cd0:	00000013          	addi	x0,x0,0
    4cd4:	00000013          	addi	x0,x0,0
    4cd8:	00000013          	addi	x0,x0,0
    4cdc:	00000013          	addi	x0,x0,0
    4ce0:	00b60023          	sb	x11,0(x12)
    4ce4:	00160613          	addi	x12,x12,1
    4ce8:	0000a517          	auipc	x10,0xa
    4cec:	40c52503          	lw	x10,1036(x10) # f0f4 <failing_reg>
    4cf0:	224010ef          	jal	x1,5f14 <failedtest_dec_to_str>
    4cf4:	0e00006f          	jal	x0,4dd4 <failedtest_report_print_regstr>

00004cf8 <failedtest_report_not_intreg>:
    4cf8:	00100593          	addi	x11,x0,1
    4cfc:	04b50863          	beq	x10,x11,4d4c <failedtest_report_fpreg>
    4d00:	00400593          	addi	x11,x0,4
    4d04:	08b50a63          	beq	x10,x11,4d98 <failedtest_report_vecreg>
    4d08:	00000013          	addi	x0,x0,0
    4d0c:	00000013          	addi	x0,x0,0
    4d10:	00000013          	addi	x0,x0,0
    4d14:	00000013          	addi	x0,x0,0
    4d18:	00000013          	addi	x0,x0,0
    4d1c:	00000013          	addi	x0,x0,0
    4d20:	0000b517          	auipc	x10,0xb
    4d24:	50250513          	addi	x10,x10,1282 # 10222 <fflagsstr>
    4d28:	00000013          	addi	x0,x0,0
    4d2c:	00000013          	addi	x0,x0,0
    4d30:	00000013          	addi	x0,x0,0
    4d34:	00000013          	addi	x0,x0,0
    4d38:	00000013          	addi	x0,x0,0
    4d3c:	00000013          	addi	x0,x0,0
    4d40:	0001b097          	auipc	x1,0x1b
    4d44:	4c4080e7          	jalr	x1,1220(x1) # 20204 <rvmodel_io_write_str>
    4d48:	0c00006f          	jal	x0,4e08 <failedtest_report_after_reg>

00004d4c <failedtest_report_fpreg>:
    4d4c:	06600593          	addi	x11,x0,102
    4d50:	00000013          	addi	x0,x0,0
    4d54:	00000013          	addi	x0,x0,0
    4d58:	00000013          	addi	x0,x0,0
    4d5c:	00000013          	addi	x0,x0,0
    4d60:	0000a617          	auipc	x12,0xa
    4d64:	41860613          	addi	x12,x12,1048 # f178 <ascii_buffer>
    4d68:	00000013          	addi	x0,x0,0
    4d6c:	00000013          	addi	x0,x0,0
    4d70:	00000013          	addi	x0,x0,0
    4d74:	00000013          	addi	x0,x0,0
    4d78:	00000013          	addi	x0,x0,0
    4d7c:	00000013          	addi	x0,x0,0
    4d80:	00b60023          	sb	x11,0(x12)
    4d84:	00160613          	addi	x12,x12,1
    4d88:	0000a517          	auipc	x10,0xa
    4d8c:	36c52503          	lw	x10,876(x10) # f0f4 <failing_reg>
    4d90:	184010ef          	jal	x1,5f14 <failedtest_dec_to_str>
    4d94:	0400006f          	jal	x0,4dd4 <failedtest_report_print_regstr>

00004d98 <failedtest_report_vecreg>:
    4d98:	07600593          	addi	x11,x0,118
    4d9c:	00000013          	addi	x0,x0,0
    4da0:	0000a617          	auipc	x12,0xa
    4da4:	3d860613          	addi	x12,x12,984 # f178 <ascii_buffer>
    4da8:	00000013          	addi	x0,x0,0
    4dac:	00000013          	addi	x0,x0,0
    4db0:	00000013          	addi	x0,x0,0
    4db4:	00000013          	addi	x0,x0,0
    4db8:	00000013          	addi	x0,x0,0
    4dbc:	00000013          	addi	x0,x0,0
    4dc0:	00b60023          	sb	x11,0(x12)
    4dc4:	00160613          	addi	x12,x12,1
    4dc8:	0000a517          	auipc	x10,0xa
    4dcc:	32c52503          	lw	x10,812(x10) # f0f4 <failing_reg>
    4dd0:	144010ef          	jal	x1,5f14 <failedtest_dec_to_str>

00004dd4 <failedtest_report_print_regstr>:
    4dd4:	00000013          	addi	x0,x0,0
    4dd8:	00000013          	addi	x0,x0,0
    4ddc:	00000013          	addi	x0,x0,0
    4de0:	0000a517          	auipc	x10,0xa
    4de4:	39850513          	addi	x10,x10,920 # f178 <ascii_buffer>
    4de8:	00000013          	addi	x0,x0,0
    4dec:	00000013          	addi	x0,x0,0
    4df0:	00000013          	addi	x0,x0,0
    4df4:	00000013          	addi	x0,x0,0
    4df8:	00000013          	addi	x0,x0,0
    4dfc:	00000013          	addi	x0,x0,0
    4e00:	0001b097          	auipc	x1,0x1b
    4e04:	404080e7          	jalr	x1,1028(x1) # 20204 <rvmodel_io_write_str>

00004e08 <failedtest_report_after_reg>:
    4e08:	00000013          	addi	x0,x0,0
    4e0c:	00000013          	addi	x0,x0,0
    4e10:	00000013          	addi	x0,x0,0
    4e14:	00000013          	addi	x0,x0,0
    4e18:	00000013          	addi	x0,x0,0
    4e1c:	00000013          	addi	x0,x0,0
    4e20:	0000b517          	auipc	x10,0xb
    4e24:	3b350513          	addi	x10,x10,947 # 101d3 <badvalstr>
    4e28:	00000013          	addi	x0,x0,0
    4e2c:	00000013          	addi	x0,x0,0
    4e30:	00000013          	addi	x0,x0,0
    4e34:	00000013          	addi	x0,x0,0
    4e38:	00000013          	addi	x0,x0,0
    4e3c:	00000013          	addi	x0,x0,0
    4e40:	0001b097          	auipc	x1,0x1b
    4e44:	3c4080e7          	jalr	x1,964(x1) # 20204 <rvmodel_io_write_str>
    4e48:	0000a517          	auipc	x10,0xa
    4e4c:	1a852503          	lw	x10,424(x10) # eff0 <begin_failure_scratch>
    4e50:	00100593          	addi	x11,x0,1
    4e54:	00b51c63          	bne	x10,x11,4e6c <failedtest_report_badval_not_fp>
    4e58:	0000a517          	auipc	x10,0xa
    4e5c:	2a852503          	lw	x10,680(x10) # f100 <failing_value>
    4e60:	02000593          	addi	x11,x0,32
    4e64:	034010ef          	jal	x1,5e98 <failedtest_hex_to_str>
    4e68:	0140006f          	jal	x0,4e7c <failedtest_report_badval_done>

00004e6c <failedtest_report_badval_not_fp>:
    4e6c:	0000a517          	auipc	x10,0xa
    4e70:	29452503          	lw	x10,660(x10) # f100 <failing_value>
    4e74:	02000593          	addi	x11,x0,32
    4e78:	020010ef          	jal	x1,5e98 <failedtest_hex_to_str>

00004e7c <failedtest_report_badval_done>:
    4e7c:	00000013          	addi	x0,x0,0
    4e80:	0000a517          	auipc	x10,0xa
    4e84:	2f850513          	addi	x10,x10,760 # f178 <ascii_buffer>
    4e88:	00000013          	addi	x0,x0,0
    4e8c:	00000013          	addi	x0,x0,0
    4e90:	00000013          	addi	x0,x0,0
    4e94:	00000013          	addi	x0,x0,0
    4e98:	00000013          	addi	x0,x0,0
    4e9c:	00000013          	addi	x0,x0,0
    4ea0:	0001b097          	auipc	x1,0x1b
    4ea4:	364080e7          	jalr	x1,868(x1) # 20204 <rvmodel_io_write_str>
    4ea8:	00000013          	addi	x0,x0,0
    4eac:	00000013          	addi	x0,x0,0
    4eb0:	00000013          	addi	x0,x0,0
    4eb4:	00000013          	addi	x0,x0,0
    4eb8:	00000013          	addi	x0,x0,0
    4ebc:	00000013          	addi	x0,x0,0
    4ec0:	0000b517          	auipc	x10,0xb
    4ec4:	32a50513          	addi	x10,x10,810 # 101ea <expvalstr>
    4ec8:	00000013          	addi	x0,x0,0
    4ecc:	00000013          	addi	x0,x0,0
    4ed0:	00000013          	addi	x0,x0,0
    4ed4:	00000013          	addi	x0,x0,0
    4ed8:	00000013          	addi	x0,x0,0
    4edc:	00000013          	addi	x0,x0,0
    4ee0:	0001b097          	auipc	x1,0x1b
    4ee4:	324080e7          	jalr	x1,804(x1) # 20204 <rvmodel_io_write_str>
    4ee8:	0000a517          	auipc	x10,0xa
    4eec:	10852503          	lw	x10,264(x10) # eff0 <begin_failure_scratch>
    4ef0:	00100593          	addi	x11,x0,1
    4ef4:	00b51c63          	bne	x10,x11,4f0c <failedtest_report_expval_not_fp>
    4ef8:	0000a517          	auipc	x10,0xa
    4efc:	21052503          	lw	x10,528(x10) # f108 <expected_value>
    4f00:	02000593          	addi	x11,x0,32
    4f04:	795000ef          	jal	x1,5e98 <failedtest_hex_to_str>
    4f08:	0140006f          	jal	x0,4f1c <failedtest_report_expval_done>

00004f0c <failedtest_report_expval_not_fp>:
    4f0c:	0000a517          	auipc	x10,0xa
    4f10:	1fc52503          	lw	x10,508(x10) # f108 <expected_value>
    4f14:	02000593          	addi	x11,x0,32
    4f18:	781000ef          	jal	x1,5e98 <failedtest_hex_to_str>

00004f1c <failedtest_report_expval_done>:
    4f1c:	00000013          	addi	x0,x0,0
    4f20:	0000a517          	auipc	x10,0xa
    4f24:	25850513          	addi	x10,x10,600 # f178 <ascii_buffer>
    4f28:	00000013          	addi	x0,x0,0
    4f2c:	00000013          	addi	x0,x0,0
    4f30:	00000013          	addi	x0,x0,0
    4f34:	00000013          	addi	x0,x0,0
    4f38:	00000013          	addi	x0,x0,0
    4f3c:	00000013          	addi	x0,x0,0
    4f40:	0001b097          	auipc	x1,0x1b
    4f44:	2c4080e7          	jalr	x1,708(x1) # 20204 <rvmodel_io_write_str>
    4f48:	4fd0006f          	jal	x0,5c44 <failedtest_report_end>

00004f4c <failedtest_report_trap_detailed>:
    4f4c:	00000013          	addi	x0,x0,0
    4f50:	00000013          	addi	x0,x0,0
    4f54:	00000013          	addi	x0,x0,0
    4f58:	00000013          	addi	x0,x0,0
    4f5c:	00000013          	addi	x0,x0,0
    4f60:	0000b517          	auipc	x10,0xb
    4f64:	2ee50513          	addi	x10,x10,750 # 1024e <trap_diag_header_str>
    4f68:	00000013          	addi	x0,x0,0
    4f6c:	00000013          	addi	x0,x0,0
    4f70:	00000013          	addi	x0,x0,0
    4f74:	00000013          	addi	x0,x0,0
    4f78:	00000013          	addi	x0,x0,0
    4f7c:	00000013          	addi	x0,x0,0
    4f80:	0001b097          	auipc	x1,0x1b
    4f84:	284080e7          	jalr	x1,644(x1) # 20204 <rvmodel_io_write_str>
    4f88:	00000013          	addi	x0,x0,0
    4f8c:	00000013          	addi	x0,x0,0
    4f90:	00000013          	addi	x0,x0,0
    4f94:	00000013          	addi	x0,x0,0
    4f98:	00000013          	addi	x0,x0,0
    4f9c:	00000013          	addi	x0,x0,0
    4fa0:	0000b517          	auipc	x10,0xb
    4fa4:	2da50513          	addi	x10,x10,730 # 1027a <trap_diag_origstr_label>
    4fa8:	00000013          	addi	x0,x0,0
    4fac:	00000013          	addi	x0,x0,0
    4fb0:	00000013          	addi	x0,x0,0
    4fb4:	00000013          	addi	x0,x0,0
    4fb8:	00000013          	addi	x0,x0,0
    4fbc:	00000013          	addi	x0,x0,0
    4fc0:	0001b097          	auipc	x1,0x1b
    4fc4:	244080e7          	jalr	x1,580(x1) # 20204 <rvmodel_io_write_str>
    4fc8:	0000a817          	auipc	x16,0xa
    4fcc:	18080813          	addi	x16,x16,384 # f148 <trap_diag_fail_str_ptr>
    4fd0:	00082503          	lw	x10,0(x16)
    4fd4:	0001b097          	auipc	x1,0x1b
    4fd8:	230080e7          	jalr	x1,560(x1) # 20204 <rvmodel_io_write_str>
    4fdc:	00000013          	addi	x0,x0,0
    4fe0:	0000a517          	auipc	x10,0xa
    4fe4:	74f50513          	addi	x10,x10,1871 # f72f <newlinestr>
    4fe8:	00000013          	addi	x0,x0,0
    4fec:	00000013          	addi	x0,x0,0
    4ff0:	00000013          	addi	x0,x0,0
    4ff4:	00000013          	addi	x0,x0,0
    4ff8:	00000013          	addi	x0,x0,0
    4ffc:	00000013          	addi	x0,x0,0
    5000:	0001b097          	auipc	x1,0x1b
    5004:	204080e7          	jalr	x1,516(x1) # 20204 <rvmodel_io_write_str>
    5008:	0000a417          	auipc	x8,0xa
    500c:	11842403          	lw	x8,280(x8) # f120 <trap_diag_subtype>
    5010:	00900493          	addi	x9,x0,9
    5014:	00940663          	beq	x8,x9,5020 <trap_report_offset_mismatch>
    5018:	2a040ce3          	beq	x8,x0,5ad0 <trap_report_generic>
    501c:	3780006f          	jal	x0,5394 <trap_report_field_mismatch>

00005020 <trap_report_offset_mismatch>:
    5020:	0000b517          	auipc	x10,0xb
    5024:	26a50513          	addi	x10,x10,618 # 1028a <trap_diag_count_mismatch_str>
    5028:	00000013          	addi	x0,x0,0
    502c:	00000013          	addi	x0,x0,0
    5030:	00000013          	addi	x0,x0,0
    5034:	00000013          	addi	x0,x0,0
    5038:	00000013          	addi	x0,x0,0
    503c:	00000013          	addi	x0,x0,0
    5040:	0001b097          	auipc	x1,0x1b
    5044:	1c4080e7          	jalr	x1,452(x1) # 20204 <rvmodel_io_write_str>
    5048:	00000013          	addi	x0,x0,0
    504c:	00000013          	addi	x0,x0,0
    5050:	00000013          	addi	x0,x0,0
    5054:	00000013          	addi	x0,x0,0
    5058:	00000013          	addi	x0,x0,0
    505c:	00000013          	addi	x0,x0,0
    5060:	0000b517          	auipc	x10,0xb
    5064:	28b50513          	addi	x10,x10,651 # 102eb <trap_diag_expected_offset_str>
    5068:	00000013          	addi	x0,x0,0
    506c:	00000013          	addi	x0,x0,0
    5070:	00000013          	addi	x0,x0,0
    5074:	00000013          	addi	x0,x0,0
    5078:	00000013          	addi	x0,x0,0
    507c:	00000013          	addi	x0,x0,0
    5080:	0001b097          	auipc	x1,0x1b
    5084:	184080e7          	jalr	x1,388(x1) # 20204 <rvmodel_io_write_str>
    5088:	0000a517          	auipc	x10,0xa
    508c:	0b852503          	lw	x10,184(x10) # f140 <trap_diag_expected_offset>
    5090:	02000593          	addi	x11,x0,32
    5094:	605000ef          	jal	x1,5e98 <failedtest_hex_to_str>
    5098:	00000013          	addi	x0,x0,0
    509c:	00000013          	addi	x0,x0,0
    50a0:	0000a517          	auipc	x10,0xa
    50a4:	0d850513          	addi	x10,x10,216 # f178 <ascii_buffer>
    50a8:	00000013          	addi	x0,x0,0
    50ac:	00000013          	addi	x0,x0,0
    50b0:	00000013          	addi	x0,x0,0
    50b4:	00000013          	addi	x0,x0,0
    50b8:	00000013          	addi	x0,x0,0
    50bc:	00000013          	addi	x0,x0,0
    50c0:	0001b097          	auipc	x1,0x1b
    50c4:	144080e7          	jalr	x1,324(x1) # 20204 <rvmodel_io_write_str>
    50c8:	00000013          	addi	x0,x0,0
    50cc:	00000013          	addi	x0,x0,0
    50d0:	00000013          	addi	x0,x0,0
    50d4:	00000013          	addi	x0,x0,0
    50d8:	00000013          	addi	x0,x0,0
    50dc:	00000013          	addi	x0,x0,0
    50e0:	0000b517          	auipc	x10,0xb
    50e4:	23250513          	addi	x10,x10,562 # 10312 <trap_diag_actual_offset_str>
    50e8:	00000013          	addi	x0,x0,0
    50ec:	00000013          	addi	x0,x0,0
    50f0:	00000013          	addi	x0,x0,0
    50f4:	00000013          	addi	x0,x0,0
    50f8:	00000013          	addi	x0,x0,0
    50fc:	00000013          	addi	x0,x0,0
    5100:	0001b097          	auipc	x1,0x1b
    5104:	104080e7          	jalr	x1,260(x1) # 20204 <rvmodel_io_write_str>
    5108:	0000a517          	auipc	x10,0xa
    510c:	03052503          	lw	x10,48(x10) # f138 <trap_diag_actual_offset>
    5110:	02000593          	addi	x11,x0,32
    5114:	585000ef          	jal	x1,5e98 <failedtest_hex_to_str>
    5118:	00000013          	addi	x0,x0,0
    511c:	00000013          	addi	x0,x0,0
    5120:	0000a517          	auipc	x10,0xa
    5124:	05850513          	addi	x10,x10,88 # f178 <ascii_buffer>
    5128:	00000013          	addi	x0,x0,0
    512c:	00000013          	addi	x0,x0,0
    5130:	00000013          	addi	x0,x0,0
    5134:	00000013          	addi	x0,x0,0
    5138:	00000013          	addi	x0,x0,0
    513c:	00000013          	addi	x0,x0,0
    5140:	0001b097          	auipc	x1,0x1b
    5144:	0c4080e7          	jalr	x1,196(x1) # 20204 <rvmodel_io_write_str>
    5148:	0000a317          	auipc	x6,0xa
    514c:	ff032303          	lw	x6,-16(x6) # f138 <trap_diag_actual_offset>
    5150:	0000a397          	auipc	x7,0xa
    5154:	ff03a383          	lw	x7,-16(x7) # f140 <trap_diag_expected_offset>
    5158:	10734e63          	blt	x6,x7,5274 <trap_report_missing_traps>

0000515c <trap_report_extra_traps>:
    515c:	00000013          	addi	x0,x0,0
    5160:	0000b517          	auipc	x10,0xb
    5164:	1d950513          	addi	x10,x10,473 # 10339 <trap_diag_extra_traps_str>
    5168:	00000013          	addi	x0,x0,0
    516c:	00000013          	addi	x0,x0,0
    5170:	00000013          	addi	x0,x0,0
    5174:	00000013          	addi	x0,x0,0
    5178:	00000013          	addi	x0,x0,0
    517c:	00000013          	addi	x0,x0,0
    5180:	0001b097          	auipc	x1,0x1b
    5184:	084080e7          	jalr	x1,132(x1) # 20204 <rvmodel_io_write_str>
    5188:	0000a317          	auipc	x6,0xa
    518c:	fb032303          	lw	x6,-80(x6) # f138 <trap_diag_actual_offset>
    5190:	0000a397          	auipc	x7,0xa
    5194:	fb03a383          	lw	x7,-80(x7) # f140 <trap_diag_expected_offset>
    5198:	40730333          	sub	x6,x6,x7
    519c:	00235313          	srli	x6,x6,0x2
    51a0:	0000b517          	auipc	x10,0xb
    51a4:	21e50513          	addi	x10,x10,542 # 103be <trap_diag_extra_bytes_str>
    51a8:	00000013          	addi	x0,x0,0
    51ac:	00000013          	addi	x0,x0,0
    51b0:	00000013          	addi	x0,x0,0
    51b4:	00000013          	addi	x0,x0,0
    51b8:	00000013          	addi	x0,x0,0
    51bc:	00000013          	addi	x0,x0,0
    51c0:	0001b097          	auipc	x1,0x1b
    51c4:	044080e7          	jalr	x1,68(x1) # 20204 <rvmodel_io_write_str>
    51c8:	0000a317          	auipc	x6,0xa
    51cc:	f7032303          	lw	x6,-144(x6) # f138 <trap_diag_actual_offset>
    51d0:	0000a397          	auipc	x7,0xa
    51d4:	f703a383          	lw	x7,-144(x7) # f140 <trap_diag_expected_offset>
    51d8:	40730533          	sub	x10,x6,x7
    51dc:	02000593          	addi	x11,x0,32
    51e0:	4b9000ef          	jal	x1,5e98 <failedtest_hex_to_str>
    51e4:	00000013          	addi	x0,x0,0
    51e8:	00000013          	addi	x0,x0,0
    51ec:	00000013          	addi	x0,x0,0
    51f0:	00000013          	addi	x0,x0,0
    51f4:	00000013          	addi	x0,x0,0
    51f8:	00000013          	addi	x0,x0,0
    51fc:	00000013          	addi	x0,x0,0
    5200:	0000a517          	auipc	x10,0xa
    5204:	f7850513          	addi	x10,x10,-136 # f178 <ascii_buffer>
    5208:	00000013          	addi	x0,x0,0
    520c:	00000013          	addi	x0,x0,0
    5210:	00000013          	addi	x0,x0,0
    5214:	00000013          	addi	x0,x0,0
    5218:	00000013          	addi	x0,x0,0
    521c:	00000013          	addi	x0,x0,0
    5220:	0001b097          	auipc	x1,0x1b
    5224:	fe4080e7          	jalr	x1,-28(x1) # 20204 <rvmodel_io_write_str>
    5228:	00000013          	addi	x0,x0,0
    522c:	00000013          	addi	x0,x0,0
    5230:	00000013          	addi	x0,x0,0
    5234:	00000013          	addi	x0,x0,0
    5238:	00000013          	addi	x0,x0,0
    523c:	00000013          	addi	x0,x0,0
    5240:	0000b517          	auipc	x10,0xb
    5244:	1a950513          	addi	x10,x10,425 # 103e9 <trap_diag_extra_hint_str>
    5248:	00000013          	addi	x0,x0,0
    524c:	00000013          	addi	x0,x0,0
    5250:	00000013          	addi	x0,x0,0
    5254:	00000013          	addi	x0,x0,0
    5258:	00000013          	addi	x0,x0,0
    525c:	00000013          	addi	x0,x0,0
    5260:	0001b097          	auipc	x1,0x1b
    5264:	fa4080e7          	jalr	x1,-92(x1) # 20204 <rvmodel_io_write_str>
    5268:	00001097          	auipc	x1,0x1
    526c:	a28080e7          	jalr	x1,-1496(x1) # 5c90 <failedtest_print_csr_context>
    5270:	1d50006f          	jal	x0,5c44 <failedtest_report_end>

00005274 <trap_report_missing_traps>:
    5274:	00000013          	addi	x0,x0,0
    5278:	00000013          	addi	x0,x0,0
    527c:	00000013          	addi	x0,x0,0
    5280:	0000b517          	auipc	x10,0xb
    5284:	0f350513          	addi	x10,x10,243 # 10373 <trap_diag_missing_traps_str>
    5288:	00000013          	addi	x0,x0,0
    528c:	00000013          	addi	x0,x0,0
    5290:	00000013          	addi	x0,x0,0
    5294:	00000013          	addi	x0,x0,0
    5298:	00000013          	addi	x0,x0,0
    529c:	00000013          	addi	x0,x0,0
    52a0:	0001b097          	auipc	x1,0x1b
    52a4:	f64080e7          	jalr	x1,-156(x1) # 20204 <rvmodel_io_write_str>
    52a8:	00000013          	addi	x0,x0,0
    52ac:	00000013          	addi	x0,x0,0
    52b0:	00000013          	addi	x0,x0,0
    52b4:	00000013          	addi	x0,x0,0
    52b8:	00000013          	addi	x0,x0,0
    52bc:	00000013          	addi	x0,x0,0
    52c0:	0000b517          	auipc	x10,0xb
    52c4:	0fe50513          	addi	x10,x10,254 # 103be <trap_diag_extra_bytes_str>
    52c8:	00000013          	addi	x0,x0,0
    52cc:	00000013          	addi	x0,x0,0
    52d0:	00000013          	addi	x0,x0,0
    52d4:	00000013          	addi	x0,x0,0
    52d8:	00000013          	addi	x0,x0,0
    52dc:	00000013          	addi	x0,x0,0
    52e0:	0001b097          	auipc	x1,0x1b
    52e4:	f24080e7          	jalr	x1,-220(x1) # 20204 <rvmodel_io_write_str>
    52e8:	0000a317          	auipc	x6,0xa
    52ec:	e5832303          	lw	x6,-424(x6) # f140 <trap_diag_expected_offset>
    52f0:	0000a397          	auipc	x7,0xa
    52f4:	e483a383          	lw	x7,-440(x7) # f138 <trap_diag_actual_offset>
    52f8:	40730533          	sub	x10,x6,x7
    52fc:	02000593          	addi	x11,x0,32
    5300:	399000ef          	jal	x1,5e98 <failedtest_hex_to_str>
    5304:	00000013          	addi	x0,x0,0
    5308:	00000013          	addi	x0,x0,0
    530c:	00000013          	addi	x0,x0,0
    5310:	00000013          	addi	x0,x0,0
    5314:	00000013          	addi	x0,x0,0
    5318:	00000013          	addi	x0,x0,0
    531c:	00000013          	addi	x0,x0,0
    5320:	0000a517          	auipc	x10,0xa
    5324:	e5850513          	addi	x10,x10,-424 # f178 <ascii_buffer>
    5328:	00000013          	addi	x0,x0,0
    532c:	00000013          	addi	x0,x0,0
    5330:	00000013          	addi	x0,x0,0
    5334:	00000013          	addi	x0,x0,0
    5338:	00000013          	addi	x0,x0,0
    533c:	00000013          	addi	x0,x0,0
    5340:	0001b097          	auipc	x1,0x1b
    5344:	ec4080e7          	jalr	x1,-316(x1) # 20204 <rvmodel_io_write_str>
    5348:	00000013          	addi	x0,x0,0
    534c:	00000013          	addi	x0,x0,0
    5350:	00000013          	addi	x0,x0,0
    5354:	00000013          	addi	x0,x0,0
    5358:	00000013          	addi	x0,x0,0
    535c:	00000013          	addi	x0,x0,0
    5360:	0000b517          	auipc	x10,0xb
    5364:	17150513          	addi	x10,x10,369 # 104d1 <trap_diag_missing_hint_str>
    5368:	00000013          	addi	x0,x0,0
    536c:	00000013          	addi	x0,x0,0
    5370:	00000013          	addi	x0,x0,0
    5374:	00000013          	addi	x0,x0,0
    5378:	00000013          	addi	x0,x0,0
    537c:	00000013          	addi	x0,x0,0
    5380:	0001b097          	auipc	x1,0x1b
    5384:	e84080e7          	jalr	x1,-380(x1) # 20204 <rvmodel_io_write_str>
    5388:	00001097          	auipc	x1,0x1
    538c:	908080e7          	jalr	x1,-1784(x1) # 5c90 <failedtest_print_csr_context>
    5390:	0b50006f          	jal	x0,5c44 <failedtest_report_end>

00005394 <trap_report_field_mismatch>:
    5394:	00000013          	addi	x0,x0,0
    5398:	00000013          	addi	x0,x0,0
    539c:	00000013          	addi	x0,x0,0
    53a0:	0000b517          	auipc	x10,0xb
    53a4:	21850513          	addi	x10,x10,536 # 105b8 <trap_diag_handler_mode_str>
    53a8:	00000013          	addi	x0,x0,0
    53ac:	00000013          	addi	x0,x0,0
    53b0:	00000013          	addi	x0,x0,0
    53b4:	00000013          	addi	x0,x0,0
    53b8:	00000013          	addi	x0,x0,0
    53bc:	00000013          	addi	x0,x0,0
    53c0:	0001b097          	auipc	x1,0x1b
    53c4:	e44080e7          	jalr	x1,-444(x1) # 20204 <rvmodel_io_write_str>
    53c8:	0000a517          	auipc	x10,0xa
    53cc:	d5c52503          	lw	x10,-676(x10) # f124 <trap_diag_mode>
    53d0:	04050a63          	beq	x10,x0,5424 <trap_mode_m>
    53d4:	00100593          	addi	x11,x0,1
    53d8:	08b50663          	beq	x10,x11,5464 <trap_mode_s>
    53dc:	00200593          	addi	x11,x0,2
    53e0:	0cb50263          	beq	x10,x11,54a4 <trap_mode_h>
    53e4:	00300593          	addi	x11,x0,3
    53e8:	0eb50e63          	beq	x10,x11,54e4 <trap_mode_v>
    53ec:	00000013          	addi	x0,x0,0
    53f0:	00000013          	addi	x0,x0,0
    53f4:	00000013          	addi	x0,x0,0
    53f8:	00000013          	addi	x0,x0,0
    53fc:	00000013          	addi	x0,x0,0
    5400:	0000b517          	auipc	x10,0xb
    5404:	1f450513          	addi	x10,x10,500 # 105f4 <trap_diag_mode_unknown_str>
    5408:	00000013          	addi	x0,x0,0
    540c:	00000013          	addi	x0,x0,0
    5410:	00000013          	addi	x0,x0,0
    5414:	00000013          	addi	x0,x0,0
    5418:	00000013          	addi	x0,x0,0
    541c:	00000013          	addi	x0,x0,0
    5420:	1000006f          	jal	x0,5520 <trap_mode_print>

00005424 <trap_mode_m>:
    5424:	00000013          	addi	x0,x0,0
    5428:	00000013          	addi	x0,x0,0
    542c:	00000013          	addi	x0,x0,0
    5430:	00000013          	addi	x0,x0,0
    5434:	00000013          	addi	x0,x0,0
    5438:	00000013          	addi	x0,x0,0
    543c:	00000013          	addi	x0,x0,0
    5440:	0000b517          	auipc	x10,0xb
    5444:	19250513          	addi	x10,x10,402 # 105d2 <trap_diag_mode_m_str>
    5448:	00000013          	addi	x0,x0,0
    544c:	00000013          	addi	x0,x0,0
    5450:	00000013          	addi	x0,x0,0
    5454:	00000013          	addi	x0,x0,0
    5458:	00000013          	addi	x0,x0,0
    545c:	00000013          	addi	x0,x0,0
    5460:	0c00006f          	jal	x0,5520 <trap_mode_print>

00005464 <trap_mode_s>:
    5464:	00000013          	addi	x0,x0,0
    5468:	00000013          	addi	x0,x0,0
    546c:	00000013          	addi	x0,x0,0
    5470:	00000013          	addi	x0,x0,0
    5474:	00000013          	addi	x0,x0,0
    5478:	00000013          	addi	x0,x0,0
    547c:	00000013          	addi	x0,x0,0
    5480:	0000b517          	auipc	x10,0xb
    5484:	15a50513          	addi	x10,x10,346 # 105da <trap_diag_mode_s_str>
    5488:	00000013          	addi	x0,x0,0
    548c:	00000013          	addi	x0,x0,0
    5490:	00000013          	addi	x0,x0,0
    5494:	00000013          	addi	x0,x0,0
    5498:	00000013          	addi	x0,x0,0
    549c:	00000013          	addi	x0,x0,0
    54a0:	0800006f          	jal	x0,5520 <trap_mode_print>

000054a4 <trap_mode_h>:
    54a4:	00000013          	addi	x0,x0,0
    54a8:	00000013          	addi	x0,x0,0
    54ac:	00000013          	addi	x0,x0,0
    54b0:	00000013          	addi	x0,x0,0
    54b4:	00000013          	addi	x0,x0,0
    54b8:	00000013          	addi	x0,x0,0
    54bc:	00000013          	addi	x0,x0,0
    54c0:	0000b517          	auipc	x10,0xb
    54c4:	12250513          	addi	x10,x10,290 # 105e2 <trap_diag_mode_hs_str>
    54c8:	00000013          	addi	x0,x0,0
    54cc:	00000013          	addi	x0,x0,0
    54d0:	00000013          	addi	x0,x0,0
    54d4:	00000013          	addi	x0,x0,0
    54d8:	00000013          	addi	x0,x0,0
    54dc:	00000013          	addi	x0,x0,0
    54e0:	0400006f          	jal	x0,5520 <trap_mode_print>

000054e4 <trap_mode_v>:
    54e4:	00000013          	addi	x0,x0,0
    54e8:	00000013          	addi	x0,x0,0
    54ec:	00000013          	addi	x0,x0,0
    54f0:	00000013          	addi	x0,x0,0
    54f4:	00000013          	addi	x0,x0,0
    54f8:	00000013          	addi	x0,x0,0
    54fc:	00000013          	addi	x0,x0,0
    5500:	0000b517          	auipc	x10,0xb
    5504:	0eb50513          	addi	x10,x10,235 # 105eb <trap_diag_mode_vs_str>
    5508:	00000013          	addi	x0,x0,0
    550c:	00000013          	addi	x0,x0,0
    5510:	00000013          	addi	x0,x0,0
    5514:	00000013          	addi	x0,x0,0
    5518:	00000013          	addi	x0,x0,0
    551c:	00000013          	addi	x0,x0,0

00005520 <trap_mode_print>:
    5520:	0001b097          	auipc	x1,0x1b
    5524:	ce4080e7          	jalr	x1,-796(x1) # 20204 <rvmodel_io_write_str>
    5528:	00000013          	addi	x0,x0,0
    552c:	00000013          	addi	x0,x0,0
    5530:	00000013          	addi	x0,x0,0
    5534:	00000013          	addi	x0,x0,0
    5538:	00000013          	addi	x0,x0,0
    553c:	00000013          	addi	x0,x0,0
    5540:	0000b517          	auipc	x10,0xb
    5544:	0bd50513          	addi	x10,x10,189 # 105fd <trap_diag_field_str>
    5548:	00000013          	addi	x0,x0,0
    554c:	00000013          	addi	x0,x0,0
    5550:	00000013          	addi	x0,x0,0
    5554:	00000013          	addi	x0,x0,0
    5558:	00000013          	addi	x0,x0,0
    555c:	00000013          	addi	x0,x0,0
    5560:	0001b097          	auipc	x1,0x1b
    5564:	ca4080e7          	jalr	x1,-860(x1) # 20204 <rvmodel_io_write_str>
    5568:	0000a517          	auipc	x10,0xa
    556c:	bb852503          	lw	x10,-1096(x10) # f120 <trap_diag_subtype>
    5570:	00100593          	addi	x11,x0,1
    5574:	06b50863          	beq	x10,x11,55e4 <trap_field_vect>
    5578:	00200593          	addi	x11,x0,2
    557c:	0ab50463          	beq	x10,x11,5624 <trap_field_cause>
    5580:	00300593          	addi	x11,x0,3
    5584:	0eb50063          	beq	x10,x11,5664 <trap_field_epc>
    5588:	00400593          	addi	x11,x0,4
    558c:	10b50c63          	beq	x10,x11,56a4 <trap_field_tval>
    5590:	00500593          	addi	x11,x0,5
    5594:	14b50863          	beq	x10,x11,56e4 <trap_field_ip>
    5598:	00600593          	addi	x11,x0,6
    559c:	18b50463          	beq	x10,x11,5724 <trap_field_tval2>
    55a0:	00700593          	addi	x11,x0,7
    55a4:	1cb50063          	beq	x10,x11,5764 <trap_field_tinst>
    55a8:	00800593          	addi	x11,x0,8
    55ac:	1eb50c63          	beq	x10,x11,57a4 <trap_field_intid>
    55b0:	00000013          	addi	x0,x0,0
    55b4:	00000013          	addi	x0,x0,0
    55b8:	00000013          	addi	x0,x0,0
    55bc:	00000013          	addi	x0,x0,0
    55c0:	0000b517          	auipc	x10,0xb
    55c4:	19450513          	addi	x10,x10,404 # 10754 <trap_diag_field_unknown_str>
    55c8:	00000013          	addi	x0,x0,0
    55cc:	00000013          	addi	x0,x0,0
    55d0:	00000013          	addi	x0,x0,0
    55d4:	00000013          	addi	x0,x0,0
    55d8:	00000013          	addi	x0,x0,0
    55dc:	00000013          	addi	x0,x0,0
    55e0:	2000006f          	jal	x0,57e0 <trap_field_print>

000055e4 <trap_field_vect>:
    55e4:	00000013          	addi	x0,x0,0
    55e8:	00000013          	addi	x0,x0,0
    55ec:	00000013          	addi	x0,x0,0
    55f0:	00000013          	addi	x0,x0,0
    55f4:	00000013          	addi	x0,x0,0
    55f8:	00000013          	addi	x0,x0,0
    55fc:	00000013          	addi	x0,x0,0
    5600:	0000b517          	auipc	x10,0xb
    5604:	01750513          	addi	x10,x10,23 # 10617 <trap_diag_field_vect_str>
    5608:	00000013          	addi	x0,x0,0
    560c:	00000013          	addi	x0,x0,0
    5610:	00000013          	addi	x0,x0,0
    5614:	00000013          	addi	x0,x0,0
    5618:	00000013          	addi	x0,x0,0
    561c:	00000013          	addi	x0,x0,0
    5620:	1c00006f          	jal	x0,57e0 <trap_field_print>

00005624 <trap_field_cause>:
    5624:	00000013          	addi	x0,x0,0
    5628:	00000013          	addi	x0,x0,0
    562c:	00000013          	addi	x0,x0,0
    5630:	00000013          	addi	x0,x0,0
    5634:	00000013          	addi	x0,x0,0
    5638:	00000013          	addi	x0,x0,0
    563c:	00000013          	addi	x0,x0,0
    5640:	0000b517          	auipc	x10,0xb
    5644:	00850513          	addi	x10,x10,8 # 10648 <trap_diag_field_cause_str>
    5648:	00000013          	addi	x0,x0,0
    564c:	00000013          	addi	x0,x0,0
    5650:	00000013          	addi	x0,x0,0
    5654:	00000013          	addi	x0,x0,0
    5658:	00000013          	addi	x0,x0,0
    565c:	00000013          	addi	x0,x0,0
    5660:	1800006f          	jal	x0,57e0 <trap_field_print>

00005664 <trap_field_epc>:
    5664:	00000013          	addi	x0,x0,0
    5668:	00000013          	addi	x0,x0,0
    566c:	00000013          	addi	x0,x0,0
    5670:	00000013          	addi	x0,x0,0
    5674:	00000013          	addi	x0,x0,0
    5678:	00000013          	addi	x0,x0,0
    567c:	00000013          	addi	x0,x0,0
    5680:	0000b517          	auipc	x10,0xb
    5684:	fe850513          	addi	x10,x10,-24 # 10668 <trap_diag_field_epc_str>
    5688:	00000013          	addi	x0,x0,0
    568c:	00000013          	addi	x0,x0,0
    5690:	00000013          	addi	x0,x0,0
    5694:	00000013          	addi	x0,x0,0
    5698:	00000013          	addi	x0,x0,0
    569c:	00000013          	addi	x0,x0,0
    56a0:	1400006f          	jal	x0,57e0 <trap_field_print>

000056a4 <trap_field_tval>:
    56a4:	00000013          	addi	x0,x0,0
    56a8:	00000013          	addi	x0,x0,0
    56ac:	00000013          	addi	x0,x0,0
    56b0:	00000013          	addi	x0,x0,0
    56b4:	00000013          	addi	x0,x0,0
    56b8:	00000013          	addi	x0,x0,0
    56bc:	00000013          	addi	x0,x0,0
    56c0:	0000b517          	auipc	x10,0xb
    56c4:	fc650513          	addi	x10,x10,-58 # 10686 <trap_diag_field_tval_str>
    56c8:	00000013          	addi	x0,x0,0
    56cc:	00000013          	addi	x0,x0,0
    56d0:	00000013          	addi	x0,x0,0
    56d4:	00000013          	addi	x0,x0,0
    56d8:	00000013          	addi	x0,x0,0
    56dc:	00000013          	addi	x0,x0,0
    56e0:	1000006f          	jal	x0,57e0 <trap_field_print>

000056e4 <trap_field_ip>:
    56e4:	00000013          	addi	x0,x0,0
    56e8:	00000013          	addi	x0,x0,0
    56ec:	00000013          	addi	x0,x0,0
    56f0:	00000013          	addi	x0,x0,0
    56f4:	00000013          	addi	x0,x0,0
    56f8:	00000013          	addi	x0,x0,0
    56fc:	00000013          	addi	x0,x0,0
    5700:	0000b517          	auipc	x10,0xb
    5704:	fa550513          	addi	x10,x10,-91 # 106a5 <trap_diag_field_ip_str>
    5708:	00000013          	addi	x0,x0,0
    570c:	00000013          	addi	x0,x0,0
    5710:	00000013          	addi	x0,x0,0
    5714:	00000013          	addi	x0,x0,0
    5718:	00000013          	addi	x0,x0,0
    571c:	00000013          	addi	x0,x0,0
    5720:	0c00006f          	jal	x0,57e0 <trap_field_print>

00005724 <trap_field_tval2>:
    5724:	00000013          	addi	x0,x0,0
    5728:	00000013          	addi	x0,x0,0
    572c:	00000013          	addi	x0,x0,0
    5730:	00000013          	addi	x0,x0,0
    5734:	00000013          	addi	x0,x0,0
    5738:	00000013          	addi	x0,x0,0
    573c:	00000013          	addi	x0,x0,0
    5740:	0000b517          	auipc	x10,0xb
    5744:	f8d50513          	addi	x10,x10,-115 # 106cd <trap_diag_field_tval2_str>
    5748:	00000013          	addi	x0,x0,0
    574c:	00000013          	addi	x0,x0,0
    5750:	00000013          	addi	x0,x0,0
    5754:	00000013          	addi	x0,x0,0
    5758:	00000013          	addi	x0,x0,0
    575c:	00000013          	addi	x0,x0,0
    5760:	0800006f          	jal	x0,57e0 <trap_field_print>

00005764 <trap_field_tinst>:
    5764:	00000013          	addi	x0,x0,0
    5768:	00000013          	addi	x0,x0,0
    576c:	00000013          	addi	x0,x0,0
    5770:	00000013          	addi	x0,x0,0
    5774:	00000013          	addi	x0,x0,0
    5778:	00000013          	addi	x0,x0,0
    577c:	00000013          	addi	x0,x0,0
    5780:	0000b517          	auipc	x10,0xb
    5784:	f7950513          	addi	x10,x10,-135 # 106f9 <trap_diag_field_tinst_str>
    5788:	00000013          	addi	x0,x0,0
    578c:	00000013          	addi	x0,x0,0
    5790:	00000013          	addi	x0,x0,0
    5794:	00000013          	addi	x0,x0,0
    5798:	00000013          	addi	x0,x0,0
    579c:	00000013          	addi	x0,x0,0
    57a0:	0400006f          	jal	x0,57e0 <trap_field_print>

000057a4 <trap_field_intid>:
    57a4:	00000013          	addi	x0,x0,0
    57a8:	00000013          	addi	x0,x0,0
    57ac:	00000013          	addi	x0,x0,0
    57b0:	00000013          	addi	x0,x0,0
    57b4:	00000013          	addi	x0,x0,0
    57b8:	00000013          	addi	x0,x0,0
    57bc:	00000013          	addi	x0,x0,0
    57c0:	0000b517          	auipc	x10,0xb
    57c4:	f6550513          	addi	x10,x10,-155 # 10725 <trap_diag_field_intid_str>
    57c8:	00000013          	addi	x0,x0,0
    57cc:	00000013          	addi	x0,x0,0
    57d0:	00000013          	addi	x0,x0,0
    57d4:	00000013          	addi	x0,x0,0
    57d8:	00000013          	addi	x0,x0,0
    57dc:	00000013          	addi	x0,x0,0

000057e0 <trap_field_print>:
    57e0:	0001b097          	auipc	x1,0x1b
    57e4:	a24080e7          	jalr	x1,-1500(x1) # 20204 <rvmodel_io_write_str>
    57e8:	00000013          	addi	x0,x0,0
    57ec:	00000013          	addi	x0,x0,0
    57f0:	00000013          	addi	x0,x0,0
    57f4:	00000013          	addi	x0,x0,0
    57f8:	00000013          	addi	x0,x0,0
    57fc:	00000013          	addi	x0,x0,0
    5800:	0000b517          	auipc	x10,0xb
    5804:	f6350513          	addi	x10,x10,-157 # 10763 <trap_diag_expected_str>
    5808:	00000013          	addi	x0,x0,0
    580c:	00000013          	addi	x0,x0,0
    5810:	00000013          	addi	x0,x0,0
    5814:	00000013          	addi	x0,x0,0
    5818:	00000013          	addi	x0,x0,0
    581c:	00000013          	addi	x0,x0,0
    5820:	0001b097          	auipc	x1,0x1b
    5824:	9e4080e7          	jalr	x1,-1564(x1) # 20204 <rvmodel_io_write_str>
    5828:	0000a517          	auipc	x10,0xa
    582c:	90852503          	lw	x10,-1784(x10) # f130 <trap_diag_expected_value>
    5830:	02000593          	addi	x11,x0,32
    5834:	664000ef          	jal	x1,5e98 <failedtest_hex_to_str>
    5838:	00000013          	addi	x0,x0,0
    583c:	00000013          	addi	x0,x0,0
    5840:	0000a517          	auipc	x10,0xa
    5844:	93850513          	addi	x10,x10,-1736 # f178 <ascii_buffer>
    5848:	00000013          	addi	x0,x0,0
    584c:	00000013          	addi	x0,x0,0
    5850:	00000013          	addi	x0,x0,0
    5854:	00000013          	addi	x0,x0,0
    5858:	00000013          	addi	x0,x0,0
    585c:	00000013          	addi	x0,x0,0
    5860:	0001b097          	auipc	x1,0x1b
    5864:	9a4080e7          	jalr	x1,-1628(x1) # 20204 <rvmodel_io_write_str>
    5868:	00000013          	addi	x0,x0,0
    586c:	00000013          	addi	x0,x0,0
    5870:	00000013          	addi	x0,x0,0
    5874:	00000013          	addi	x0,x0,0
    5878:	00000013          	addi	x0,x0,0
    587c:	00000013          	addi	x0,x0,0
    5880:	0000b517          	auipc	x10,0xb
    5884:	efa50513          	addi	x10,x10,-262 # 1077a <trap_diag_actual_str>
    5888:	00000013          	addi	x0,x0,0
    588c:	00000013          	addi	x0,x0,0
    5890:	00000013          	addi	x0,x0,0
    5894:	00000013          	addi	x0,x0,0
    5898:	00000013          	addi	x0,x0,0
    589c:	00000013          	addi	x0,x0,0
    58a0:	0001b097          	auipc	x1,0x1b
    58a4:	964080e7          	jalr	x1,-1692(x1) # 20204 <rvmodel_io_write_str>
    58a8:	0000a517          	auipc	x10,0xa
    58ac:	88052503          	lw	x10,-1920(x10) # f128 <trap_diag_actual_value>
    58b0:	02000593          	addi	x11,x0,32
    58b4:	5e4000ef          	jal	x1,5e98 <failedtest_hex_to_str>
    58b8:	00000013          	addi	x0,x0,0
    58bc:	00000013          	addi	x0,x0,0
    58c0:	0000a517          	auipc	x10,0xa
    58c4:	8b850513          	addi	x10,x10,-1864 # f178 <ascii_buffer>
    58c8:	00000013          	addi	x0,x0,0
    58cc:	00000013          	addi	x0,x0,0
    58d0:	00000013          	addi	x0,x0,0
    58d4:	00000013          	addi	x0,x0,0
    58d8:	00000013          	addi	x0,x0,0
    58dc:	00000013          	addi	x0,x0,0
    58e0:	0001b097          	auipc	x1,0x1b
    58e4:	924080e7          	jalr	x1,-1756(x1) # 20204 <rvmodel_io_write_str>
    58e8:	0000a517          	auipc	x10,0xa
    58ec:	83852503          	lw	x10,-1992(x10) # f120 <trap_diag_subtype>
    58f0:	00200593          	addi	x11,x0,2
    58f4:	08b51463          	bne	x10,x11,597c <trap_field_not_cause>
    58f8:	00000013          	addi	x0,x0,0
    58fc:	00000013          	addi	x0,x0,0
    5900:	0000b517          	auipc	x10,0xb
    5904:	e9150513          	addi	x10,x10,-367 # 10791 <trap_diag_expected_cause_name_str>
    5908:	00000013          	addi	x0,x0,0
    590c:	00000013          	addi	x0,x0,0
    5910:	00000013          	addi	x0,x0,0
    5914:	00000013          	addi	x0,x0,0
    5918:	00000013          	addi	x0,x0,0
    591c:	00000013          	addi	x0,x0,0
    5920:	0001b097          	auipc	x1,0x1b
    5924:	8e4080e7          	jalr	x1,-1820(x1) # 20204 <rvmodel_io_write_str>
    5928:	0000a517          	auipc	x10,0xa
    592c:	80852503          	lw	x10,-2040(x10) # f130 <trap_diag_expected_value>
    5930:	284000ef          	jal	x1,5bb4 <trap_cause_to_str>
    5934:	0001b097          	auipc	x1,0x1b
    5938:	8d0080e7          	jalr	x1,-1840(x1) # 20204 <rvmodel_io_write_str>
    593c:	00000013          	addi	x0,x0,0
    5940:	0000b517          	auipc	x10,0xb
    5944:	e6850513          	addi	x10,x10,-408 # 107a8 <trap_diag_actual_cause_name_str>
    5948:	00000013          	addi	x0,x0,0
    594c:	00000013          	addi	x0,x0,0
    5950:	00000013          	addi	x0,x0,0
    5954:	00000013          	addi	x0,x0,0
    5958:	00000013          	addi	x0,x0,0
    595c:	00000013          	addi	x0,x0,0
    5960:	0001b097          	auipc	x1,0x1b
    5964:	8a4080e7          	jalr	x1,-1884(x1) # 20204 <rvmodel_io_write_str>
    5968:	00009517          	auipc	x10,0x9
    596c:	7c052503          	lw	x10,1984(x10) # f128 <trap_diag_actual_value>
    5970:	244000ef          	jal	x1,5bb4 <trap_cause_to_str>
    5974:	0001b097          	auipc	x1,0x1b
    5978:	890080e7          	jalr	x1,-1904(x1) # 20204 <rvmodel_io_write_str>

0000597c <trap_field_not_cause>:
    597c:	00000097          	auipc	x1,0x0
    5980:	314080e7          	jalr	x1,788(x1) # 5c90 <failedtest_print_csr_context>
    5984:	00009517          	auipc	x10,0x9
    5988:	79c52503          	lw	x10,1948(x10) # f120 <trap_diag_subtype>
    598c:	00100593          	addi	x11,x0,1
    5990:	02b51e63          	bne	x10,x11,59cc <trap_field_not_cause+0x50>
    5994:	00000013          	addi	x0,x0,0
    5998:	00000013          	addi	x0,x0,0
    599c:	00000013          	addi	x0,x0,0
    59a0:	0000b517          	auipc	x10,0xb
    59a4:	e7e50513          	addi	x10,x10,-386 # 1081e <trap_diag_hint_vect_str>
    59a8:	00000013          	addi	x0,x0,0
    59ac:	00000013          	addi	x0,x0,0
    59b0:	00000013          	addi	x0,x0,0
    59b4:	00000013          	addi	x0,x0,0
    59b8:	00000013          	addi	x0,x0,0
    59bc:	00000013          	addi	x0,x0,0
    59c0:	0001b097          	auipc	x1,0x1b
    59c4:	844080e7          	jalr	x1,-1980(x1) # 20204 <rvmodel_io_write_str>
    59c8:	27c0006f          	jal	x0,5c44 <failedtest_report_end>
    59cc:	00200593          	addi	x11,x0,2
    59d0:	02b51e63          	bne	x10,x11,5a0c <trap_field_not_cause+0x90>
    59d4:	00000013          	addi	x0,x0,0
    59d8:	00000013          	addi	x0,x0,0
    59dc:	00000013          	addi	x0,x0,0
    59e0:	0000b517          	auipc	x10,0xb
    59e4:	f1450513          	addi	x10,x10,-236 # 108f4 <trap_diag_hint_cause_str>
    59e8:	00000013          	addi	x0,x0,0
    59ec:	00000013          	addi	x0,x0,0
    59f0:	00000013          	addi	x0,x0,0
    59f4:	00000013          	addi	x0,x0,0
    59f8:	00000013          	addi	x0,x0,0
    59fc:	00000013          	addi	x0,x0,0
    5a00:	0001b097          	auipc	x1,0x1b
    5a04:	804080e7          	jalr	x1,-2044(x1) # 20204 <rvmodel_io_write_str>
    5a08:	23c0006f          	jal	x0,5c44 <failedtest_report_end>
    5a0c:	00300593          	addi	x11,x0,3
    5a10:	02b51e63          	bne	x10,x11,5a4c <trap_field_not_cause+0xd0>
    5a14:	00000013          	addi	x0,x0,0
    5a18:	00000013          	addi	x0,x0,0
    5a1c:	00000013          	addi	x0,x0,0
    5a20:	0000b517          	auipc	x10,0xb
    5a24:	fc750513          	addi	x10,x10,-57 # 109e7 <trap_diag_hint_epc_str>
    5a28:	00000013          	addi	x0,x0,0
    5a2c:	00000013          	addi	x0,x0,0
    5a30:	00000013          	addi	x0,x0,0
    5a34:	00000013          	addi	x0,x0,0
    5a38:	00000013          	addi	x0,x0,0
    5a3c:	00000013          	addi	x0,x0,0
    5a40:	0001a097          	auipc	x1,0x1a
    5a44:	7c4080e7          	jalr	x1,1988(x1) # 20204 <rvmodel_io_write_str>
    5a48:	1fc0006f          	jal	x0,5c44 <failedtest_report_end>
    5a4c:	00400593          	addi	x11,x0,4
    5a50:	02b51e63          	bne	x10,x11,5a8c <trap_field_not_cause+0x110>
    5a54:	00000013          	addi	x0,x0,0
    5a58:	00000013          	addi	x0,x0,0
    5a5c:	00000013          	addi	x0,x0,0
    5a60:	0000b517          	auipc	x10,0xb
    5a64:	08250513          	addi	x10,x10,130 # 10ae2 <trap_diag_hint_tval_str>
    5a68:	00000013          	addi	x0,x0,0
    5a6c:	00000013          	addi	x0,x0,0
    5a70:	00000013          	addi	x0,x0,0
    5a74:	00000013          	addi	x0,x0,0
    5a78:	00000013          	addi	x0,x0,0
    5a7c:	00000013          	addi	x0,x0,0
    5a80:	0001a097          	auipc	x1,0x1a
    5a84:	784080e7          	jalr	x1,1924(x1) # 20204 <rvmodel_io_write_str>
    5a88:	1bc0006f          	jal	x0,5c44 <failedtest_report_end>
    5a8c:	00500593          	addi	x11,x0,5
    5a90:	02b51e63          	bne	x10,x11,5acc <trap_field_not_cause+0x150>
    5a94:	00000013          	addi	x0,x0,0
    5a98:	00000013          	addi	x0,x0,0
    5a9c:	00000013          	addi	x0,x0,0
    5aa0:	0000b517          	auipc	x10,0xb
    5aa4:	12950513          	addi	x10,x10,297 # 10bc9 <trap_diag_hint_ip_str>
    5aa8:	00000013          	addi	x0,x0,0
    5aac:	00000013          	addi	x0,x0,0
    5ab0:	00000013          	addi	x0,x0,0
    5ab4:	00000013          	addi	x0,x0,0
    5ab8:	00000013          	addi	x0,x0,0
    5abc:	00000013          	addi	x0,x0,0
    5ac0:	0001a097          	auipc	x1,0x1a
    5ac4:	744080e7          	jalr	x1,1860(x1) # 20204 <rvmodel_io_write_str>
    5ac8:	17c0006f          	jal	x0,5c44 <failedtest_report_end>
    5acc:	1780006f          	jal	x0,5c44 <failedtest_report_end>

00005ad0 <trap_report_generic>:
    5ad0:	00000013          	addi	x0,x0,0
    5ad4:	00000013          	addi	x0,x0,0
    5ad8:	00000013          	addi	x0,x0,0
    5adc:	00000013          	addi	x0,x0,0
    5ae0:	0000b517          	auipc	x10,0xb
    5ae4:	cf650513          	addi	x10,x10,-778 # 107d6 <trap_diag_generic_str>
    5ae8:	00000013          	addi	x0,x0,0
    5aec:	00000013          	addi	x0,x0,0
    5af0:	00000013          	addi	x0,x0,0
    5af4:	00000013          	addi	x0,x0,0
    5af8:	00000013          	addi	x0,x0,0
    5afc:	00000013          	addi	x0,x0,0
    5b00:	0001a097          	auipc	x1,0x1a
    5b04:	704080e7          	jalr	x1,1796(x1) # 20204 <rvmodel_io_write_str>
    5b08:	00009617          	auipc	x12,0x9
    5b0c:	65062603          	lw	x12,1616(x12) # f158 <saved_mepc>
    5b10:	00000013          	addi	x0,x0,0
    5b14:	00000013          	addi	x0,x0,0
    5b18:	00000013          	addi	x0,x0,0
    5b1c:	00000013          	addi	x0,x0,0
    5b20:	0000a517          	auipc	x10,0xa
    5b24:	c9950513          	addi	x10,x10,-871 # f7b9 <xepcinstrstr>
    5b28:	00000013          	addi	x0,x0,0
    5b2c:	00000013          	addi	x0,x0,0
    5b30:	00000013          	addi	x0,x0,0
    5b34:	00000013          	addi	x0,x0,0
    5b38:	00000013          	addi	x0,x0,0
    5b3c:	00000013          	addi	x0,x0,0
    5b40:	0001a097          	auipc	x1,0x1a
    5b44:	6c4080e7          	jalr	x1,1732(x1) # 20204 <rvmodel_io_write_str>
    5b48:	00065503          	lhu	x10,0(x12)
    5b4c:	01000593          	addi	x11,x0,16
    5b50:	00357413          	andi	x8,x10,3
    5b54:	00300493          	addi	x9,x0,3
    5b58:	00941a63          	bne	x8,x9,5b6c <trap_report_generic+0x9c>
    5b5c:	00265403          	lhu	x8,2(x12)
    5b60:	01041413          	slli	x8,x8,0x10
    5b64:	00856533          	or	x10,x10,x8
    5b68:	02000593          	addi	x11,x0,32
    5b6c:	32c000ef          	jal	x1,5e98 <failedtest_hex_to_str>
    5b70:	00000013          	addi	x0,x0,0
    5b74:	00000013          	addi	x0,x0,0
    5b78:	00000013          	addi	x0,x0,0
    5b7c:	00000013          	addi	x0,x0,0
    5b80:	00009517          	auipc	x10,0x9
    5b84:	5f850513          	addi	x10,x10,1528 # f178 <ascii_buffer>
    5b88:	00000013          	addi	x0,x0,0
    5b8c:	00000013          	addi	x0,x0,0
    5b90:	00000013          	addi	x0,x0,0
    5b94:	00000013          	addi	x0,x0,0
    5b98:	00000013          	addi	x0,x0,0
    5b9c:	00000013          	addi	x0,x0,0
    5ba0:	0001a097          	auipc	x1,0x1a
    5ba4:	664080e7          	jalr	x1,1636(x1) # 20204 <rvmodel_io_write_str>
    5ba8:	00000097          	auipc	x1,0x0
    5bac:	0e8080e7          	jalr	x1,232(x1) # 5c90 <failedtest_print_csr_context>
    5bb0:	0940006f          	jal	x0,5c44 <failedtest_report_end>

00005bb4 <trap_cause_to_str>:
    5bb4:	02054263          	blt	x10,x0,5bd8 <trap_cause_interrupt>

00005bb8 <trap_cause_exception>:
    5bb8:	01800593          	addi	x11,x0,24
    5bbc:	04b55463          	bge	x10,x11,5c04 <trap_cause_unknown>
    5bc0:	00009597          	auipc	x11,0x9
    5bc4:	5e058593          	addi	x11,x11,1504 # f1a0 <end_failure_scratch>
    5bc8:	00251613          	slli	x12,x10,0x2
    5bcc:	00c585b3          	add	x11,x11,x12
    5bd0:	0005a503          	lw	x10,0(x11)
    5bd4:	00008067          	jalr	x0,0(x1)

00005bd8 <trap_cause_interrupt>:
    5bd8:	00100593          	addi	x11,x0,1
    5bdc:	01f59593          	slli	x11,x11,0x1f
    5be0:	00b54533          	xor	x10,x10,x11
    5be4:	01000593          	addi	x11,x0,16
    5be8:	00b55e63          	bge	x10,x11,5c04 <trap_cause_unknown>
    5bec:	00009597          	auipc	x11,0x9
    5bf0:	61458593          	addi	x11,x11,1556 # f200 <trap_int_name_tbl>
    5bf4:	00251613          	slli	x12,x10,0x2
    5bf8:	00c585b3          	add	x11,x11,x12
    5bfc:	0005a503          	lw	x10,0(x11)
    5c00:	00008067          	jalr	x0,0(x1)

00005c04 <trap_cause_unknown>:
    5c04:	00000013          	addi	x0,x0,0
    5c08:	00000013          	addi	x0,x0,0
    5c0c:	00000013          	addi	x0,x0,0
    5c10:	00000013          	addi	x0,x0,0
    5c14:	00000013          	addi	x0,x0,0
    5c18:	00000013          	addi	x0,x0,0
    5c1c:	00000013          	addi	x0,x0,0
    5c20:	0000a517          	auipc	x10,0xa
    5c24:	a1e50513          	addi	x10,x10,-1506 # f63e <trap_cause_unknown_str>
    5c28:	00000013          	addi	x0,x0,0
    5c2c:	00000013          	addi	x0,x0,0
    5c30:	00000013          	addi	x0,x0,0
    5c34:	00000013          	addi	x0,x0,0
    5c38:	00000013          	addi	x0,x0,0
    5c3c:	00000013          	addi	x0,x0,0
    5c40:	00008067          	jalr	x0,0(x1)

00005c44 <failedtest_report_end>:
    5c44:	00000013          	addi	x0,x0,0
    5c48:	00000013          	addi	x0,x0,0
    5c4c:	00000013          	addi	x0,x0,0
    5c50:	00000013          	addi	x0,x0,0
    5c54:	00000013          	addi	x0,x0,0
    5c58:	00000013          	addi	x0,x0,0
    5c5c:	00000013          	addi	x0,x0,0
    5c60:	0000a517          	auipc	x10,0xa
    5c64:	5a150513          	addi	x10,x10,1441 # 10201 <endstr>
    5c68:	00000013          	addi	x0,x0,0
    5c6c:	00000013          	addi	x0,x0,0
    5c70:	00000013          	addi	x0,x0,0
    5c74:	00000013          	addi	x0,x0,0
    5c78:	00000013          	addi	x0,x0,0
    5c7c:	00000013          	addi	x0,x0,0
    5c80:	0001a097          	auipc	x1,0x1a
    5c84:	584080e7          	jalr	x1,1412(x1) # 20204 <rvmodel_io_write_str>

00005c88 <failedtest_terminate>:
    5c88:	0001a097          	auipc	x1,0x1a
    5c8c:	58c080e7          	jalr	x1,1420(x1) # 20214 <rvmodel_halt_fail>

00005c90 <failedtest_print_csr_context>:
    5c90:	00009617          	auipc	x12,0x9
    5c94:	4c060613          	addi	x12,x12,1216 # f150 <csr_context_ret_addr>
    5c98:	00162023          	sw	x1,0(x12)
    5c9c:	00000013          	addi	x0,x0,0
    5ca0:	0000a517          	auipc	x10,0xa
    5ca4:	b3a50513          	addi	x10,x10,-1222 # f7da <mepcstr>
    5ca8:	00000013          	addi	x0,x0,0
    5cac:	00000013          	addi	x0,x0,0
    5cb0:	00000013          	addi	x0,x0,0
    5cb4:	00000013          	addi	x0,x0,0
    5cb8:	00000013          	addi	x0,x0,0
    5cbc:	00000013          	addi	x0,x0,0
    5cc0:	0001a097          	auipc	x1,0x1a
    5cc4:	544080e7          	jalr	x1,1348(x1) # 20204 <rvmodel_io_write_str>
    5cc8:	00009517          	auipc	x10,0x9
    5ccc:	49052503          	lw	x10,1168(x10) # f158 <saved_mepc>
    5cd0:	02000593          	addi	x11,x0,32
    5cd4:	1c4000ef          	jal	x1,5e98 <failedtest_hex_to_str>
    5cd8:	00000013          	addi	x0,x0,0
    5cdc:	00000013          	addi	x0,x0,0
    5ce0:	00009517          	auipc	x10,0x9
    5ce4:	49850513          	addi	x10,x10,1176 # f178 <ascii_buffer>
    5ce8:	00000013          	addi	x0,x0,0
    5cec:	00000013          	addi	x0,x0,0
    5cf0:	00000013          	addi	x0,x0,0
    5cf4:	00000013          	addi	x0,x0,0
    5cf8:	00000013          	addi	x0,x0,0
    5cfc:	00000013          	addi	x0,x0,0
    5d00:	0001a097          	auipc	x1,0x1a
    5d04:	504080e7          	jalr	x1,1284(x1) # 20204 <rvmodel_io_write_str>
    5d08:	00000013          	addi	x0,x0,0
    5d0c:	00000013          	addi	x0,x0,0
    5d10:	00000013          	addi	x0,x0,0
    5d14:	00000013          	addi	x0,x0,0
    5d18:	00000013          	addi	x0,x0,0
    5d1c:	00000013          	addi	x0,x0,0
    5d20:	0000a517          	auipc	x10,0xa
    5d24:	aca50513          	addi	x10,x10,-1334 # f7ea <mcausestr>
    5d28:	00000013          	addi	x0,x0,0
    5d2c:	00000013          	addi	x0,x0,0
    5d30:	00000013          	addi	x0,x0,0
    5d34:	00000013          	addi	x0,x0,0
    5d38:	00000013          	addi	x0,x0,0
    5d3c:	00000013          	addi	x0,x0,0
    5d40:	0001a097          	auipc	x1,0x1a
    5d44:	4c4080e7          	jalr	x1,1220(x1) # 20204 <rvmodel_io_write_str>
    5d48:	00009517          	auipc	x10,0x9
    5d4c:	41852503          	lw	x10,1048(x10) # f160 <saved_mcause>
    5d50:	02000593          	addi	x11,x0,32
    5d54:	144000ef          	jal	x1,5e98 <failedtest_hex_to_str>
    5d58:	00000013          	addi	x0,x0,0
    5d5c:	00000013          	addi	x0,x0,0
    5d60:	00009517          	auipc	x10,0x9
    5d64:	41850513          	addi	x10,x10,1048 # f178 <ascii_buffer>
    5d68:	00000013          	addi	x0,x0,0
    5d6c:	00000013          	addi	x0,x0,0
    5d70:	00000013          	addi	x0,x0,0
    5d74:	00000013          	addi	x0,x0,0
    5d78:	00000013          	addi	x0,x0,0
    5d7c:	00000013          	addi	x0,x0,0
    5d80:	0001a097          	auipc	x1,0x1a
    5d84:	484080e7          	jalr	x1,1156(x1) # 20204 <rvmodel_io_write_str>
    5d88:	00000013          	addi	x0,x0,0
    5d8c:	00000013          	addi	x0,x0,0
    5d90:	00000013          	addi	x0,x0,0
    5d94:	00000013          	addi	x0,x0,0
    5d98:	00000013          	addi	x0,x0,0
    5d9c:	00000013          	addi	x0,x0,0
    5da0:	0000a517          	auipc	x10,0xa
    5da4:	a5a50513          	addi	x10,x10,-1446 # f7fa <mtvalstr>
    5da8:	00000013          	addi	x0,x0,0
    5dac:	00000013          	addi	x0,x0,0
    5db0:	00000013          	addi	x0,x0,0
    5db4:	00000013          	addi	x0,x0,0
    5db8:	00000013          	addi	x0,x0,0
    5dbc:	00000013          	addi	x0,x0,0
    5dc0:	0001a097          	auipc	x1,0x1a
    5dc4:	444080e7          	jalr	x1,1092(x1) # 20204 <rvmodel_io_write_str>
    5dc8:	00009517          	auipc	x10,0x9
    5dcc:	3a052503          	lw	x10,928(x10) # f168 <saved_mtval>
    5dd0:	02000593          	addi	x11,x0,32
    5dd4:	0c4000ef          	jal	x1,5e98 <failedtest_hex_to_str>
    5dd8:	00000013          	addi	x0,x0,0
    5ddc:	00000013          	addi	x0,x0,0
    5de0:	00009517          	auipc	x10,0x9
    5de4:	39850513          	addi	x10,x10,920 # f178 <ascii_buffer>
    5de8:	00000013          	addi	x0,x0,0
    5dec:	00000013          	addi	x0,x0,0
    5df0:	00000013          	addi	x0,x0,0
    5df4:	00000013          	addi	x0,x0,0
    5df8:	00000013          	addi	x0,x0,0
    5dfc:	00000013          	addi	x0,x0,0
    5e00:	0001a097          	auipc	x1,0x1a
    5e04:	404080e7          	jalr	x1,1028(x1) # 20204 <rvmodel_io_write_str>
    5e08:	00000013          	addi	x0,x0,0
    5e0c:	00000013          	addi	x0,x0,0
    5e10:	00000013          	addi	x0,x0,0
    5e14:	00000013          	addi	x0,x0,0
    5e18:	00000013          	addi	x0,x0,0
    5e1c:	00000013          	addi	x0,x0,0
    5e20:	0000a517          	auipc	x10,0xa
    5e24:	9ea50513          	addi	x10,x10,-1558 # f80a <mstatusstr>
    5e28:	00000013          	addi	x0,x0,0
    5e2c:	00000013          	addi	x0,x0,0
    5e30:	00000013          	addi	x0,x0,0
    5e34:	00000013          	addi	x0,x0,0
    5e38:	00000013          	addi	x0,x0,0
    5e3c:	00000013          	addi	x0,x0,0
    5e40:	0001a097          	auipc	x1,0x1a
    5e44:	3c4080e7          	jalr	x1,964(x1) # 20204 <rvmodel_io_write_str>
    5e48:	00009517          	auipc	x10,0x9
    5e4c:	32852503          	lw	x10,808(x10) # f170 <saved_mstatus>
    5e50:	02000593          	addi	x11,x0,32
    5e54:	044000ef          	jal	x1,5e98 <failedtest_hex_to_str>
    5e58:	00000013          	addi	x0,x0,0
    5e5c:	00000013          	addi	x0,x0,0
    5e60:	00009517          	auipc	x10,0x9
    5e64:	31850513          	addi	x10,x10,792 # f178 <ascii_buffer>
    5e68:	00000013          	addi	x0,x0,0
    5e6c:	00000013          	addi	x0,x0,0
    5e70:	00000013          	addi	x0,x0,0
    5e74:	00000013          	addi	x0,x0,0
    5e78:	00000013          	addi	x0,x0,0
    5e7c:	00000013          	addi	x0,x0,0
    5e80:	0001a097          	auipc	x1,0x1a
    5e84:	384080e7          	jalr	x1,900(x1) # 20204 <rvmodel_io_write_str>
    5e88:	00009617          	auipc	x12,0x9
    5e8c:	2c860613          	addi	x12,x12,712 # f150 <csr_context_ret_addr>
    5e90:	00062083          	lw	x1,0(x12)
    5e94:	00008067          	jalr	x0,0(x1)

00005e98 <failedtest_hex_to_str>:
    5e98:	00000013          	addi	x0,x0,0
    5e9c:	00000013          	addi	x0,x0,0
    5ea0:	00009617          	auipc	x12,0x9
    5ea4:	2d860613          	addi	x12,x12,728 # f178 <ascii_buffer>
    5ea8:	00000013          	addi	x0,x0,0
    5eac:	00000013          	addi	x0,x0,0
    5eb0:	00000013          	addi	x0,x0,0
    5eb4:	00000013          	addi	x0,x0,0
    5eb8:	00000013          	addi	x0,x0,0
    5ebc:	00000013          	addi	x0,x0,0
    5ec0:	03000693          	addi	x13,x0,48
    5ec4:	00d60023          	sb	x13,0(x12)
    5ec8:	07800693          	addi	x13,x0,120
    5ecc:	00d600a3          	sb	x13,1(x12)
    5ed0:	00260613          	addi	x12,x12,2
    5ed4:	00058693          	addi	x13,x11,0

00005ed8 <failedtest_hex_to_str_loop>:
    5ed8:	ffc68693          	addi	x13,x13,-4
    5edc:	00d55733          	srl	x14,x10,x13
    5ee0:	00f77713          	andi	x14,x14,15
    5ee4:	00a00793          	addi	x15,x0,10
    5ee8:	00f74663          	blt	x14,x15,5ef4 <failedtest_hex_to_str_digit>
    5eec:	05770713          	addi	x14,x14,87
    5ef0:	0080006f          	jal	x0,5ef8 <failedtest_hex_to_str_write>

00005ef4 <failedtest_hex_to_str_digit>:
    5ef4:	03070713          	addi	x14,x14,48

00005ef8 <failedtest_hex_to_str_write>:
    5ef8:	00e60023          	sb	x14,0(x12)
    5efc:	00160613          	addi	x12,x12,1
    5f00:	fc069ce3          	bne	x13,x0,5ed8 <failedtest_hex_to_str_loop>
    5f04:	00a00693          	addi	x13,x0,10
    5f08:	00d60023          	sb	x13,0(x12)
    5f0c:	000600a3          	sb	x0,1(x12)
    5f10:	00008067          	jalr	x0,0(x1)

00005f14 <failedtest_dec_to_str>:
    5f14:	00a00693          	addi	x13,x0,10
    5f18:	02d54663          	blt	x10,x13,5f44 <failedtest_dec_to_str+0x30>
    5f1c:	ff650513          	addi	x10,x10,-10
    5f20:	03100713          	addi	x14,x0,49
    5f24:	00d54c63          	blt	x10,x13,5f3c <failedtest_dec_to_str+0x28>
    5f28:	ff650513          	addi	x10,x10,-10
    5f2c:	03200713          	addi	x14,x0,50
    5f30:	00d54663          	blt	x10,x13,5f3c <failedtest_dec_to_str+0x28>
    5f34:	ff650513          	addi	x10,x10,-10
    5f38:	03300713          	addi	x14,x0,51
    5f3c:	00e60023          	sb	x14,0(x12)
    5f40:	00160613          	addi	x12,x12,1
    5f44:	03050513          	addi	x10,x10,48
    5f48:	00a60023          	sb	x10,0(x12)
    5f4c:	00a00693          	addi	x13,x0,10
    5f50:	00d600a3          	sb	x13,1(x12)
    5f54:	00060123          	sb	x0,2(x12)
    5f58:	00008067          	jalr	x0,0(x1)
    5f5c:	00000013          	addi	x0,x0,0

Disassembly of section .text.rvmodel:

00020000 <rvmodel_boot>:
   20000:	feedc0b7          	lui	x1,0xfeedc
   20004:	ead08093          	addi	x1,x1,-339 # feedbead <absimm+0x8f911ba4>
   20008:	01909793          	slli	x15,x1,0x19
   2000c:	0070d113          	srli	x2,x1,0x7
   20010:	00f16133          	or	x2,x2,x15
   20014:	01911793          	slli	x15,x2,0x19
   20018:	00715193          	srli	x3,x2,0x7
   2001c:	00f1e1b3          	or	x3,x3,x15
   20020:	01919793          	slli	x15,x3,0x19
   20024:	0071d213          	srli	x4,x3,0x7
   20028:	00f26233          	or	x4,x4,x15
   2002c:	01921793          	slli	x15,x4,0x19
   20030:	00725293          	srli	x5,x4,0x7
   20034:	00f2e2b3          	or	x5,x5,x15
   20038:	01929793          	slli	x15,x5,0x19
   2003c:	0072d313          	srli	x6,x5,0x7
   20040:	00f36333          	or	x6,x6,x15
   20044:	01931793          	slli	x15,x6,0x19
   20048:	00735393          	srli	x7,x6,0x7
   2004c:	00f3e3b3          	or	x7,x7,x15
   20050:	01939793          	slli	x15,x7,0x19
   20054:	0073d413          	srli	x8,x7,0x7
   20058:	00f46433          	or	x8,x8,x15
   2005c:	01941793          	slli	x15,x8,0x19
   20060:	00745493          	srli	x9,x8,0x7
   20064:	00f4e4b3          	or	x9,x9,x15
   20068:	01949793          	slli	x15,x9,0x19
   2006c:	0074d513          	srli	x10,x9,0x7
   20070:	00f56533          	or	x10,x10,x15
   20074:	01951793          	slli	x15,x10,0x19
   20078:	00755593          	srli	x11,x10,0x7
   2007c:	00f5e5b3          	or	x11,x11,x15
   20080:	01959793          	slli	x15,x11,0x19
   20084:	0075d613          	srli	x12,x11,0x7
   20088:	00f66633          	or	x12,x12,x15
   2008c:	01961793          	slli	x15,x12,0x19
   20090:	00765693          	srli	x13,x12,0x7
   20094:	00f6e6b3          	or	x13,x13,x15
   20098:	01969793          	slli	x15,x13,0x19
   2009c:	0076d713          	srli	x14,x13,0x7
   200a0:	00f76733          	or	x14,x14,x15
   200a4:	fab807b7          	lui	x15,0xfab80
   200a8:	bb678793          	addi	x15,x15,-1098 # fab7fbb6 <absimm+0x8b5b58ad>
   200ac:	7d5c0837          	lui	x16,0x7d5c0
   200b0:	ddb80813          	addi	x16,x16,-549 # 7d5bfddb <absimm+0xdff5ad2>
   200b4:	01981793          	slli	x15,x16,0x19
   200b8:	00785893          	srli	x17,x16,0x7
   200bc:	00f8e8b3          	or	x17,x17,x15
   200c0:	01989793          	slli	x15,x17,0x19
   200c4:	0078d913          	srli	x18,x17,0x7
   200c8:	00f96933          	or	x18,x18,x15
   200cc:	01991793          	slli	x15,x18,0x19
   200d0:	00795993          	srli	x19,x18,0x7
   200d4:	00f9e9b3          	or	x19,x19,x15
   200d8:	01999793          	slli	x15,x19,0x19
   200dc:	0079da13          	srli	x20,x19,0x7
   200e0:	00fa6a33          	or	x20,x20,x15
   200e4:	019a1793          	slli	x15,x20,0x19
   200e8:	007a5a93          	srli	x21,x20,0x7
   200ec:	00faeab3          	or	x21,x21,x15
   200f0:	019a9793          	slli	x15,x21,0x19
   200f4:	007adb13          	srli	x22,x21,0x7
   200f8:	00fb6b33          	or	x22,x22,x15
   200fc:	019b1793          	slli	x15,x22,0x19
   20100:	007b5b93          	srli	x23,x22,0x7
   20104:	00fbebb3          	or	x23,x23,x15
   20108:	019b9793          	slli	x15,x23,0x19
   2010c:	007bdc13          	srli	x24,x23,0x7
   20110:	00fc6c33          	or	x24,x24,x15
   20114:	019c1793          	slli	x15,x24,0x19
   20118:	007c5c93          	srli	x25,x24,0x7
   2011c:	00fcecb3          	or	x25,x25,x15
   20120:	019c9793          	slli	x15,x25,0x19
   20124:	007cdd13          	srli	x26,x25,0x7
   20128:	00fd6d33          	or	x26,x26,x15
   2012c:	019d1793          	slli	x15,x26,0x19
   20130:	007d5d93          	srli	x27,x26,0x7
   20134:	00fdedb3          	or	x27,x27,x15
   20138:	019d9793          	slli	x15,x27,0x19
   2013c:	007dde13          	srli	x28,x27,0x7
   20140:	00fe6e33          	or	x28,x28,x15
   20144:	019e1793          	slli	x15,x28,0x19
   20148:	007e5e93          	srli	x29,x28,0x7
   2014c:	00feeeb3          	or	x29,x29,x15
   20150:	019e9793          	slli	x15,x29,0x19
   20154:	007edf13          	srli	x30,x29,0x7
   20158:	00ff6f33          	or	x30,x30,x15
   2015c:	019f1793          	slli	x15,x30,0x19
   20160:	007f5f93          	srli	x31,x30,0x7
   20164:	00ffefb3          	or	x31,x31,x15
   20168:	00000013          	addi	x0,x0,0
   2016c:	00000013          	addi	x0,x0,0
   20170:	00000013          	addi	x0,x0,0
   20174:	00000013          	addi	x0,x0,0
   20178:	00000013          	addi	x0,x0,0
   2017c:	00000013          	addi	x0,x0,0
   20180:	ffff1117          	auipc	x2,0xffff1
   20184:	b3010113          	addi	x2,x2,-1232 # 10cb0 <begin_signature>
   20188:	00000013          	addi	x0,x0,0
   2018c:	00000013          	addi	x0,x0,0
   20190:	00000013          	addi	x0,x0,0
   20194:	00000013          	addi	x0,x0,0
   20198:	00000013          	addi	x0,x0,0
   2019c:	00000013          	addi	x0,x0,0

000201a0 <canary_check>:
   201a0:	6f5ca337          	lui	x6,0x6f5ca
   201a4:	30930313          	addi	x6,x6,777 # 6f5ca309 <absimm>
   201a8:	00012203          	lw	x4,0(x2)
   201ac:	00620863          	beq	x4,x6,201bc <canary_check+0x1c>
   201b0:	b2ce42ef          	jal	x5,44dc <failedtest_x5_x4>
   201b4:	000201a0          	.word	0x000201a0
   201b8:	0001022a          	.word	0x0001022a
   201bc:	00410113          	addi	x2,x2,4
   201c0:	fffe8197          	auipc	x3,0xfffe8
   201c4:	f5018193          	addi	x3,x3,-176 # 8110 <rvtest_data_begin>
   201c8:	00000013          	addi	x0,x0,0
   201cc:	00000013          	addi	x0,x0,0
   201d0:	00000013          	addi	x0,x0,0
   201d4:	00000013          	addi	x0,x0,0
   201d8:	00000013          	addi	x0,x0,0
   201dc:	00000013          	addi	x0,x0,0
   201e0:	fffe0317          	auipc	x6,0xfffe0
   201e4:	e6030313          	addi	x6,x6,-416 # 40 <rvtest_code_begin>
   201e8:	00000013          	addi	x0,x0,0
   201ec:	00000013          	addi	x0,x0,0
   201f0:	00000013          	addi	x0,x0,0
   201f4:	00000013          	addi	x0,x0,0
   201f8:	00000013          	addi	x0,x0,0
   201fc:	00000013          	addi	x0,x0,0
   20200:	00030067          	jalr	x0,0(x6)

00020204 <rvmodel_io_write_str>:
   20204:	00008067          	jalr	x0,0(x1)

00020208 <rvmodel_halt_pass>:
   20208:	00000513          	addi	x10,x0,0
   2020c:	00000073          	ecall
   20210:	0000006f          	jal	x0,20210 <rvmodel_halt_pass+0x8>

00020214 <rvmodel_halt_fail>:
   20214:	00100513          	addi	x10,x0,1
   20218:	00000073          	ecall
   2021c:	0000006f          	jal	x0,2021c <rvmodel_halt_fail+0x8>
   20220:	00000013          	addi	x0,x0,0
   20224:	00000013          	addi	x0,x0,0
   20228:	00000013          	addi	x0,x0,0
   2022c:	00000013          	addi	x0,x0,0
   20230:	00000013          	addi	x0,x0,0
   20234:	00000013          	addi	x0,x0,0
   20238:	00000013          	addi	x0,x0,0
   2023c:	00000013          	addi	x0,x0,0
