
/home/dev/github/clones/riscv-arch-test/work/rv32i-core/elfs/rv32i/I/I-sub-00.elf:     file format elf32-littleriscv
/home/dev/github/clones/riscv-arch-test/work/rv32i-core/elfs/rv32i/I/I-sub-00.elf
architecture: riscv:rv32, flags 0x00000112:
EXEC_P, HAS_SYMS, D_PAGED
start address 0x00000000

Program Header:
0x70000003 off    0x0001f240 vaddr 0x00000000 paddr 0x00000000 align 2**0
         filesz 0x00000033 memsz 0x00000000 flags r--
    LOAD off    0x00001000 vaddr 0x00000000 paddr 0x00000000 align 2**12
         filesz 0x00005f60 memsz 0x00005f60 flags r-x
    LOAD off    0x00007000 vaddr 0x00008000 paddr 0x00008000 align 2**12
         filesz 0x00018240 memsz 0x00018240 flags rwx

Sections:
Idx Name          Size      VMA       LMA       File off  Algn
  0 .text.init    00000040  00000000  00000000  00001000  2**5
                  CONTENTS, ALLOC, LOAD, READONLY, CODE
  1 .text.rvtest  00005f20  00000040  00000040  00001040  2**5
                  CONTENTS, ALLOC, LOAD, READONLY, CODE
  2 .data         00017d70  00008000  00008000  00007000  2**8
                  CONTENTS, ALLOC, LOAD, DATA
  3 .text.rvmodel 00000240  00020000  00020000  0001f000  2**5
                  CONTENTS, ALLOC, LOAD, READONLY, CODE
  4 .riscv.attributes 00000033  00000000  00000000  0001f240  2**0
                  CONTENTS, READONLY
  5 .debug_line   00002670  00000000  00000000  0001f273  2**0
                  CONTENTS, READONLY, DEBUGGING, OCTETS
  6 .debug_line_str 00000069  00000000  00000000  000218e3  2**0
                  CONTENTS, READONLY, DEBUGGING, OCTETS
  7 .debug_info   00000023  00000000  00000000  0002194c  2**0
                  CONTENTS, READONLY, DEBUGGING, OCTETS
  8 .debug_abbrev 00000012  00000000  00000000  0002196f  2**0
                  CONTENTS, READONLY, DEBUGGING, OCTETS
  9 .debug_aranges 00000028  00000000  00000000  00021988  2**3
                  CONTENTS, READONLY, DEBUGGING, OCTETS
 10 .debug_str    00000075  00000000  00000000  000219b0  2**0
                  CONTENTS, READONLY, DEBUGGING, OCTETS
 11 .debug_rnglists 0000001b  00000000  00000000  00021a25  2**0
                  CONTENTS, READONLY, DEBUGGING, OCTETS
SYMBOL TABLE:
00000000 l    d  .text.init	00000000 .text.init
00000040 l    d  .text.rvtest	00000000 .text.rvtest
00008000 l    d  .data	00000000 .data
00020000 l    d  .text.rvmodel	00000000 .text.rvmodel
00000000 l    d  .riscv.attributes	00000000 .riscv.attributes
00000000 l    d  .debug_line	00000000 .debug_line
00000000 l    d  .debug_line_str	00000000 .debug_line_str
00000000 l    d  .debug_info	00000000 .debug_info
00000000 l    d  .debug_abbrev	00000000 .debug_abbrev
00000000 l    d  .debug_aranges	00000000 .debug_aranges
00000000 l    d  .debug_str	00000000 .debug_str
00000000 l    d  .debug_rnglists	00000000 .debug_rnglists
00000000 l    df *ABS*	00000000 cc677uig.o
00000003 l       *ABS*	00000000 MMODE_SIG
00000001 l       *ABS*	00000000 SMODE_SIG
00000001 l       *ABS*	00000000 HMODE_SIG
00000002 l       *ABS*	00000000 VMODE_SIG
00020000 l       .text.rvmodel	00000000 rvmodel_boot
00000050 l       .text.rvtest	00000000 I_sub_cg_cp_rs1_b0
000044dc l       .text.rvtest	00000000 failedtest_x5_x4
00008d50 l       .data	00000000 I_sub_cg_cp_rs1_b0_str
0000007c l       .text.rvtest	00000000 I_sub_cg_cp_rs1_b1
00008d7d l       .data	00000000 I_sub_cg_cp_rs1_b1_str
000000ac l       .text.rvtest	00000000 I_sub_cg_cp_rs1_b2
00008daa l       .data	00000000 I_sub_cg_cp_rs1_b2_str
000000dc l       .text.rvtest	00000000 I_sub_cg_cp_rs1_b3
00008dd7 l       .data	00000000 I_sub_cg_cp_rs1_b3_str
00000110 l       .text.rvtest	00000000 I_sub_cg_cp_rs1_b4
0000451c l       .text.rvtest	00000000 failedtest_x14_x13
00008e04 l       .data	00000000 I_sub_cg_cp_rs1_b4_str
0000013c l       .text.rvtest	00000000 I_sub_cg_cp_rs1_b5
00008e31 l       .data	00000000 I_sub_cg_cp_rs1_b5_str
00000168 l       .text.rvtest	00000000 I_sub_cg_cp_rs1_b6
00008e5e l       .data	00000000 I_sub_cg_cp_rs1_b6_str
00000194 l       .text.rvtest	00000000 I_sub_cg_cp_rs1_b7
00008e8b l       .data	00000000 I_sub_cg_cp_rs1_b7_str
000001c0 l       .text.rvtest	00000000 I_sub_cg_cp_rs1_b8
00008eb8 l       .data	00000000 I_sub_cg_cp_rs1_b8_str
000001ec l       .text.rvtest	00000000 I_sub_cg_cp_rs1_b9
00008ee5 l       .data	00000000 I_sub_cg_cp_rs1_b9_str
00000218 l       .text.rvtest	00000000 I_sub_cg_cp_rs1_b10
00008f13 l       .data	00000000 I_sub_cg_cp_rs1_b10_str
00000244 l       .text.rvtest	00000000 I_sub_cg_cp_rs1_b11
00008f42 l       .data	00000000 I_sub_cg_cp_rs1_b11_str
00000270 l       .text.rvtest	00000000 I_sub_cg_cp_rs1_b12
00008f71 l       .data	00000000 I_sub_cg_cp_rs1_b12_str
000002a4 l       .text.rvtest	00000000 I_sub_cg_cp_rs1_b13
00008fa0 l       .data	00000000 I_sub_cg_cp_rs1_b13_str
000002d0 l       .text.rvtest	00000000 I_sub_cg_cp_rs1_b14
00008fcf l       .data	00000000 I_sub_cg_cp_rs1_b14_str
000002fc l       .text.rvtest	00000000 I_sub_cg_cp_rs1_b15
00008ffe l       .data	00000000 I_sub_cg_cp_rs1_b15_str
00000328 l       .text.rvtest	00000000 I_sub_cg_cp_rs1_b16
0000902d l       .data	00000000 I_sub_cg_cp_rs1_b16_str
00000354 l       .text.rvtest	00000000 I_sub_cg_cp_rs1_b17
0000905c l       .data	00000000 I_sub_cg_cp_rs1_b17_str
00000380 l       .text.rvtest	00000000 I_sub_cg_cp_rs1_b18
0000908b l       .data	00000000 I_sub_cg_cp_rs1_b18_str
000003ac l       .text.rvtest	00000000 I_sub_cg_cp_rs1_b19
000090ba l       .data	00000000 I_sub_cg_cp_rs1_b19_str
000003d8 l       .text.rvtest	00000000 I_sub_cg_cp_rs1_b20
000090e9 l       .data	00000000 I_sub_cg_cp_rs1_b20_str
00000404 l       .text.rvtest	00000000 I_sub_cg_cp_rs1_b21
00009118 l       .data	00000000 I_sub_cg_cp_rs1_b21_str
00000430 l       .text.rvtest	00000000 I_sub_cg_cp_rs1_b22
00009147 l       .data	00000000 I_sub_cg_cp_rs1_b22_str
0000045c l       .text.rvtest	00000000 I_sub_cg_cp_rs1_b23
00009176 l       .data	00000000 I_sub_cg_cp_rs1_b23_str
0000048c l       .text.rvtest	00000000 I_sub_cg_cp_rs1_b24
000091a5 l       .data	00000000 I_sub_cg_cp_rs1_b24_str
000004b8 l       .text.rvtest	00000000 I_sub_cg_cp_rs1_b25
000091d4 l       .data	00000000 I_sub_cg_cp_rs1_b25_str
000004e8 l       .text.rvtest	00000000 I_sub_cg_cp_rs1_b26
00009203 l       .data	00000000 I_sub_cg_cp_rs1_b26_str
00000518 l       .text.rvtest	00000000 I_sub_cg_cp_rs1_b27
00009232 l       .data	00000000 I_sub_cg_cp_rs1_b27_str
00000544 l       .text.rvtest	00000000 I_sub_cg_cp_rs1_b28
00009261 l       .data	00000000 I_sub_cg_cp_rs1_b28_str
00000574 l       .text.rvtest	00000000 I_sub_cg_cp_rs1_b29
00009290 l       .data	00000000 I_sub_cg_cp_rs1_b29_str
000005a0 l       .text.rvtest	00000000 I_sub_cg_cp_rs1_b30
000092bf l       .data	00000000 I_sub_cg_cp_rs1_b30_str
000005d0 l       .text.rvtest	00000000 I_sub_cg_cp_rs1_b31
000092ee l       .data	00000000 I_sub_cg_cp_rs1_b31_str
000005fc l       .text.rvtest	00000000 I_sub_cg_cp_rs2_b0
0000931d l       .data	00000000 I_sub_cg_cp_rs2_b0_str
00000628 l       .text.rvtest	00000000 I_sub_cg_cp_rs2_b1
0000934b l       .data	00000000 I_sub_cg_cp_rs2_b1_str
00000658 l       .text.rvtest	00000000 I_sub_cg_cp_rs2_b2
00009379 l       .data	00000000 I_sub_cg_cp_rs2_b2_str
00000684 l       .text.rvtest	00000000 I_sub_cg_cp_rs2_b3
000093a7 l       .data	00000000 I_sub_cg_cp_rs2_b3_str
000006b8 l       .text.rvtest	00000000 I_sub_cg_cp_rs2_b4
000044f4 l       .text.rvtest	00000000 failedtest_x8_x7
000093d5 l       .data	00000000 I_sub_cg_cp_rs2_b4_str
000006e4 l       .text.rvtest	00000000 I_sub_cg_cp_rs2_b5
00009403 l       .data	00000000 I_sub_cg_cp_rs2_b5_str
00000710 l       .text.rvtest	00000000 I_sub_cg_cp_rs2_b6
00009431 l       .data	00000000 I_sub_cg_cp_rs2_b6_str
00000744 l       .text.rvtest	00000000 I_sub_cg_cp_rs2_b7
0000945f l       .data	00000000 I_sub_cg_cp_rs2_b7_str
00000770 l       .text.rvtest	00000000 I_sub_cg_cp_rs2_b8
0000948d l       .data	00000000 I_sub_cg_cp_rs2_b8_str
0000079c l       .text.rvtest	00000000 I_sub_cg_cp_rs2_b9
000094bb l       .data	00000000 I_sub_cg_cp_rs2_b9_str
000007cc l       .text.rvtest	00000000 I_sub_cg_cp_rs2_b10
000094e9 l       .data	00000000 I_sub_cg_cp_rs2_b10_str
000007f8 l       .text.rvtest	00000000 I_sub_cg_cp_rs2_b11
00009518 l       .data	00000000 I_sub_cg_cp_rs2_b11_str
00000824 l       .text.rvtest	00000000 I_sub_cg_cp_rs2_b12
00009547 l       .data	00000000 I_sub_cg_cp_rs2_b12_str
00000858 l       .text.rvtest	00000000 I_sub_cg_cp_rs2_b13
00009576 l       .data	00000000 I_sub_cg_cp_rs2_b13_str
00000884 l       .text.rvtest	00000000 I_sub_cg_cp_rs2_b14
000095a5 l       .data	00000000 I_sub_cg_cp_rs2_b14_str
000008b0 l       .text.rvtest	00000000 I_sub_cg_cp_rs2_b15
000095d4 l       .data	00000000 I_sub_cg_cp_rs2_b15_str
000008dc l       .text.rvtest	00000000 I_sub_cg_cp_rs2_b16
00009603 l       .data	00000000 I_sub_cg_cp_rs2_b16_str
0000090c l       .text.rvtest	00000000 I_sub_cg_cp_rs2_b17
00009632 l       .data	00000000 I_sub_cg_cp_rs2_b17_str
00000938 l       .text.rvtest	00000000 I_sub_cg_cp_rs2_b18
00009661 l       .data	00000000 I_sub_cg_cp_rs2_b18_str
00000964 l       .text.rvtest	00000000 I_sub_cg_cp_rs2_b19
00009690 l       .data	00000000 I_sub_cg_cp_rs2_b19_str
00000990 l       .text.rvtest	00000000 I_sub_cg_cp_rs2_b20
000096bf l       .data	00000000 I_sub_cg_cp_rs2_b20_str
000009bc l       .text.rvtest	00000000 I_sub_cg_cp_rs2_b21
000096ee l       .data	00000000 I_sub_cg_cp_rs2_b21_str
000009ec l       .text.rvtest	00000000 I_sub_cg_cp_rs2_b22
0000971d l       .data	00000000 I_sub_cg_cp_rs2_b22_str
00000a18 l       .text.rvtest	00000000 I_sub_cg_cp_rs2_b23
0000974c l       .data	00000000 I_sub_cg_cp_rs2_b23_str
00000a44 l       .text.rvtest	00000000 I_sub_cg_cp_rs2_b24
0000977b l       .data	00000000 I_sub_cg_cp_rs2_b24_str
00000a74 l       .text.rvtest	00000000 I_sub_cg_cp_rs2_b25
000097aa l       .data	00000000 I_sub_cg_cp_rs2_b25_str
00000aa0 l       .text.rvtest	00000000 I_sub_cg_cp_rs2_b26
000097d9 l       .data	00000000 I_sub_cg_cp_rs2_b26_str
00000acc l       .text.rvtest	00000000 I_sub_cg_cp_rs2_b27
00009808 l       .data	00000000 I_sub_cg_cp_rs2_b27_str
00000af8 l       .text.rvtest	00000000 I_sub_cg_cp_rs2_b28
00009837 l       .data	00000000 I_sub_cg_cp_rs2_b28_str
00000b24 l       .text.rvtest	00000000 I_sub_cg_cp_rs2_b29
00009866 l       .data	00000000 I_sub_cg_cp_rs2_b29_str
00000b50 l       .text.rvtest	00000000 I_sub_cg_cp_rs2_b30
00009895 l       .data	00000000 I_sub_cg_cp_rs2_b30_str
00000b7c l       .text.rvtest	00000000 I_sub_cg_cp_rs2_b31
000098c4 l       .data	00000000 I_sub_cg_cp_rs2_b31_str
00000ba8 l       .text.rvtest	00000000 I_sub_cg_cp_rd_b0
000098f3 l       .data	00000000 I_sub_cg_cp_rd_b0_str
00000bd4 l       .text.rvtest	00000000 I_sub_cg_cp_rd_b1
00009920 l       .data	00000000 I_sub_cg_cp_rd_b1_str
00000c00 l       .text.rvtest	00000000 I_sub_cg_cp_rd_b2
0000994d l       .data	00000000 I_sub_cg_cp_rd_b2_str
00000c2c l       .text.rvtest	00000000 I_sub_cg_cp_rd_b3
0000997a l       .data	00000000 I_sub_cg_cp_rd_b3_str
00000c58 l       .text.rvtest	00000000 I_sub_cg_cp_rd_b4
000099a7 l       .data	00000000 I_sub_cg_cp_rd_b4_str
00000c84 l       .text.rvtest	00000000 I_sub_cg_cp_rd_b5
000099d4 l       .data	00000000 I_sub_cg_cp_rd_b5_str
00000cb0 l       .text.rvtest	00000000 I_sub_cg_cp_rd_b6
00009a01 l       .data	00000000 I_sub_cg_cp_rd_b6_str
00000ce4 l       .text.rvtest	00000000 I_sub_cg_cp_rd_b7
00009a2e l       .data	00000000 I_sub_cg_cp_rd_b7_str
00000d10 l       .text.rvtest	00000000 I_sub_cg_cp_rd_b8
00009a5b l       .data	00000000 I_sub_cg_cp_rd_b8_str
00000d3c l       .text.rvtest	00000000 I_sub_cg_cp_rd_b9
00009a88 l       .data	00000000 I_sub_cg_cp_rd_b9_str
00000d68 l       .text.rvtest	00000000 I_sub_cg_cp_rd_b10
00009ab5 l       .data	00000000 I_sub_cg_cp_rd_b10_str
00000d98 l       .text.rvtest	00000000 I_sub_cg_cp_rd_b11
00009ae3 l       .data	00000000 I_sub_cg_cp_rd_b11_str
00000dc4 l       .text.rvtest	00000000 I_sub_cg_cp_rd_b12
00009b11 l       .data	00000000 I_sub_cg_cp_rd_b12_str
00000df0 l       .text.rvtest	00000000 I_sub_cg_cp_rd_b13
00009b3f l       .data	00000000 I_sub_cg_cp_rd_b13_str
00000e1c l       .text.rvtest	00000000 I_sub_cg_cp_rd_b14
00009b6d l       .data	00000000 I_sub_cg_cp_rd_b14_str
00000e48 l       .text.rvtest	00000000 I_sub_cg_cp_rd_b15
00009b9b l       .data	00000000 I_sub_cg_cp_rd_b15_str
00000e74 l       .text.rvtest	00000000 I_sub_cg_cp_rd_b16
00009bc9 l       .data	00000000 I_sub_cg_cp_rd_b16_str
00000ea0 l       .text.rvtest	00000000 I_sub_cg_cp_rd_b17
00009bf7 l       .data	00000000 I_sub_cg_cp_rd_b17_str
00000ecc l       .text.rvtest	00000000 I_sub_cg_cp_rd_b18
00009c25 l       .data	00000000 I_sub_cg_cp_rd_b18_str
00000ef8 l       .text.rvtest	00000000 I_sub_cg_cp_rd_b19
00009c53 l       .data	00000000 I_sub_cg_cp_rd_b19_str
00000f24 l       .text.rvtest	00000000 I_sub_cg_cp_rd_b20
00009c81 l       .data	00000000 I_sub_cg_cp_rd_b20_str
00000f54 l       .text.rvtest	00000000 I_sub_cg_cp_rd_b21
00009caf l       .data	00000000 I_sub_cg_cp_rd_b21_str
00000f80 l       .text.rvtest	00000000 I_sub_cg_cp_rd_b22
00009cdd l       .data	00000000 I_sub_cg_cp_rd_b22_str
00000fb0 l       .text.rvtest	00000000 I_sub_cg_cp_rd_b23
00009d0b l       .data	00000000 I_sub_cg_cp_rd_b23_str
00000fdc l       .text.rvtest	00000000 I_sub_cg_cp_rd_b24
00009d39 l       .data	00000000 I_sub_cg_cp_rd_b24_str
00001008 l       .text.rvtest	00000000 I_sub_cg_cp_rd_b25
00009d67 l       .data	00000000 I_sub_cg_cp_rd_b25_str
00001034 l       .text.rvtest	00000000 I_sub_cg_cp_rd_b26
00009d95 l       .data	00000000 I_sub_cg_cp_rd_b26_str
00001060 l       .text.rvtest	00000000 I_sub_cg_cp_rd_b27
00009dc3 l       .data	00000000 I_sub_cg_cp_rd_b27_str
0000108c l       .text.rvtest	00000000 I_sub_cg_cp_rd_b28
00009df1 l       .data	00000000 I_sub_cg_cp_rd_b28_str
000010b8 l       .text.rvtest	00000000 I_sub_cg_cp_rd_b29
00009e1f l       .data	00000000 I_sub_cg_cp_rd_b29_str
000010e4 l       .text.rvtest	00000000 I_sub_cg_cp_rd_b30
00009e4d l       .data	00000000 I_sub_cg_cp_rd_b30_str
00001110 l       .text.rvtest	00000000 I_sub_cg_cp_rd_b31
00009e7b l       .data	00000000 I_sub_cg_cp_rd_b31_str
0000113c l       .text.rvtest	00000000 I_sub_cg_cp_rs1_edges_0x0
00009ea9 l       .data	00000000 I_sub_cg_cp_rs1_edges_0x0_str
00001168 l       .text.rvtest	00000000 I_sub_cg_cp_rs1_edges_0x1
00009ede l       .data	00000000 I_sub_cg_cp_rs1_edges_0x1_str
00001194 l       .text.rvtest	00000000 I_sub_cg_cp_rs1_edges_0x2
00009f13 l       .data	00000000 I_sub_cg_cp_rs1_edges_0x2_str
000011c0 l       .text.rvtest	00000000 I_sub_cg_cp_rs1_edges_0x80000000
00009f48 l       .data	00000000 I_sub_cg_cp_rs1_edges_0x80000000_str
000011ec l       .text.rvtest	00000000 I_sub_cg_cp_rs1_edges_0x80000001
00009f85 l       .data	00000000 I_sub_cg_cp_rs1_edges_0x80000001_str
00001218 l       .text.rvtest	00000000 I_sub_cg_cp_rs1_edges_0x7fffffff
00009fc2 l       .data	00000000 I_sub_cg_cp_rs1_edges_0x7fffffff_str
00001244 l       .text.rvtest	00000000 I_sub_cg_cp_rs1_edges_0x7ffffffe
00009fff l       .data	00000000 I_sub_cg_cp_rs1_edges_0x7ffffffe_str
00001270 l       .text.rvtest	00000000 I_sub_cg_cp_rs1_edges_0xffffffff
0000a03c l       .data	00000000 I_sub_cg_cp_rs1_edges_0xffffffff_str
0000129c l       .text.rvtest	00000000 I_sub_cg_cp_rs1_edges_0xfffffffe
0000a079 l       .data	00000000 I_sub_cg_cp_rs1_edges_0xfffffffe_str
000012c8 l       .text.rvtest	00000000 I_sub_cg_cp_rs1_edges_0x5bbc8872
0000a0b6 l       .data	00000000 I_sub_cg_cp_rs1_edges_0x5bbc8872_str
000012f4 l       .text.rvtest	00000000 I_sub_cg_cp_rs1_edges_0xaaaaaaaa
0000a0f3 l       .data	00000000 I_sub_cg_cp_rs1_edges_0xaaaaaaaa_str
00001320 l       .text.rvtest	00000000 I_sub_cg_cp_rs1_edges_0x55555555
0000a130 l       .data	00000000 I_sub_cg_cp_rs1_edges_0x55555555_str
0000134c l       .text.rvtest	00000000 I_sub_cg_cp_rs2_edges_0x0
0000a16d l       .data	00000000 I_sub_cg_cp_rs2_edges_0x0_str
00001378 l       .text.rvtest	00000000 I_sub_cg_cp_rs2_edges_0x1
0000a1a3 l       .data	00000000 I_sub_cg_cp_rs2_edges_0x1_str
000013a4 l       .text.rvtest	00000000 I_sub_cg_cp_rs2_edges_0x2
0000a1d9 l       .data	00000000 I_sub_cg_cp_rs2_edges_0x2_str
000013d0 l       .text.rvtest	00000000 I_sub_cg_cp_rs2_edges_0x80000000
0000a20f l       .data	00000000 I_sub_cg_cp_rs2_edges_0x80000000_str
000013fc l       .text.rvtest	00000000 I_sub_cg_cp_rs2_edges_0x80000001
0000a24c l       .data	00000000 I_sub_cg_cp_rs2_edges_0x80000001_str
00001428 l       .text.rvtest	00000000 I_sub_cg_cp_rs2_edges_0x7fffffff
0000a289 l       .data	00000000 I_sub_cg_cp_rs2_edges_0x7fffffff_str
00001454 l       .text.rvtest	00000000 I_sub_cg_cp_rs2_edges_0x7ffffffe
0000a2c6 l       .data	00000000 I_sub_cg_cp_rs2_edges_0x7ffffffe_str
00001480 l       .text.rvtest	00000000 I_sub_cg_cp_rs2_edges_0xffffffff
0000a303 l       .data	00000000 I_sub_cg_cp_rs2_edges_0xffffffff_str
000014ac l       .text.rvtest	00000000 I_sub_cg_cp_rs2_edges_0xfffffffe
0000a340 l       .data	00000000 I_sub_cg_cp_rs2_edges_0xfffffffe_str
000014d8 l       .text.rvtest	00000000 I_sub_cg_cp_rs2_edges_0x5bbc8872
0000a37d l       .data	00000000 I_sub_cg_cp_rs2_edges_0x5bbc8872_str
00001504 l       .text.rvtest	00000000 I_sub_cg_cp_rs2_edges_0xaaaaaaaa
0000a3ba l       .data	00000000 I_sub_cg_cp_rs2_edges_0xaaaaaaaa_str
00001530 l       .text.rvtest	00000000 I_sub_cg_cp_rs2_edges_0x55555555
0000a3f7 l       .data	00000000 I_sub_cg_cp_rs2_edges_0x55555555_str
0000155c l       .text.rvtest	00000000 I_sub_cg_cr_rs1_rs2_edges_rs1val_0x0_rs2val_0x0
0000a434 l       .data	00000000 I_sub_cg_cr_rs1_rs2_edges_rs1val_0x0_rs2val_0x0_str
00001588 l       .text.rvtest	00000000 I_sub_cg_cr_rs1_rs2_edges_rs1val_0x0_rs2val_0x1
0000a481 l       .data	00000000 I_sub_cg_cr_rs1_rs2_edges_rs1val_0x0_rs2val_0x1_str
000015b4 l       .text.rvtest	00000000 I_sub_cg_cr_rs1_rs2_edges_rs1val_0x0_rs2val_0x2
0000a4ce l       .data	00000000 I_sub_cg_cr_rs1_rs2_edges_rs1val_0x0_rs2val_0x2_str
000015e0 l       .text.rvtest	00000000 I_sub_cg_cr_rs1_rs2_edges_rs1val_0x0_rs2val_0x80000000
0000a51b l       .data	00000000 I_sub_cg_cr_rs1_rs2_edges_rs1val_0x0_rs2val_0x80000000_str
0000160c l       .text.rvtest	00000000 I_sub_cg_cr_rs1_rs2_edges_rs1val_0x0_rs2val_0x80000001
0000a56f l       .data	00000000 I_sub_cg_cr_rs1_rs2_edges_rs1val_0x0_rs2val_0x80000001_str
00001638 l       .text.rvtest	00000000 I_sub_cg_cr_rs1_rs2_edges_rs1val_0x0_rs2val_0x7fffffff
0000a5c3 l       .data	00000000 I_sub_cg_cr_rs1_rs2_edges_rs1val_0x0_rs2val_0x7fffffff_str
00001664 l       .text.rvtest	00000000 I_sub_cg_cr_rs1_rs2_edges_rs1val_0x0_rs2val_0x7ffffffe
0000a617 l       .data	00000000 I_sub_cg_cr_rs1_rs2_edges_rs1val_0x0_rs2val_0x7ffffffe_str
00001690 l       .text.rvtest	00000000 I_sub_cg_cr_rs1_rs2_edges_rs1val_0x0_rs2val_0xffffffff
0000a66b l       .data	00000000 I_sub_cg_cr_rs1_rs2_edges_rs1val_0x0_rs2val_0xffffffff_str
000016bc l       .text.rvtest	00000000 I_sub_cg_cr_rs1_rs2_edges_rs1val_0x0_rs2val_0xfffffffe
0000a6bf l       .data	00000000 I_sub_cg_cr_rs1_rs2_edges_rs1val_0x0_rs2val_0xfffffffe_str
000016e8 l       .text.rvtest	00000000 I_sub_cg_cr_rs1_rs2_edges_rs1val_0x0_rs2val_0x5bbc8872
0000a713 l       .data	00000000 I_sub_cg_cr_rs1_rs2_edges_rs1val_0x0_rs2val_0x5bbc8872_str
00001714 l       .text.rvtest	00000000 I_sub_cg_cr_rs1_rs2_edges_rs1val_0x0_rs2val_0xaaaaaaaa
0000a767 l       .data	00000000 I_sub_cg_cr_rs1_rs2_edges_rs1val_0x0_rs2val_0xaaaaaaaa_str
00001740 l       .text.rvtest	00000000 I_sub_cg_cr_rs1_rs2_edges_rs1val_0x0_rs2val_0x55555555
0000a7bb l       .data	00000000 I_sub_cg_cr_rs1_rs2_edges_rs1val_0x0_rs2val_0x55555555_str
0000176c l       .text.rvtest	00000000 I_sub_cg_cr_rs1_rs2_edges_rs1val_0x1_rs2val_0x0
0000a80f l       .data	00000000 I_sub_cg_cr_rs1_rs2_edges_rs1val_0x1_rs2val_0x0_str
00001798 l       .text.rvtest	00000000 I_sub_cg_cr_rs1_rs2_edges_rs1val_0x1_rs2val_0x1
0000a85c l       .data	00000000 I_sub_cg_cr_rs1_rs2_edges_rs1val_0x1_rs2val_0x1_str
000017c4 l       .text.rvtest	00000000 I_sub_cg_cr_rs1_rs2_edges_rs1val_0x1_rs2val_0x2
0000a8a9 l       .data	00000000 I_sub_cg_cr_rs1_rs2_edges_rs1val_0x1_rs2val_0x2_str
000017f0 l       .text.rvtest	00000000 I_sub_cg_cr_rs1_rs2_edges_rs1val_0x1_rs2val_0x80000000
0000a8f6 l       .data	00000000 I_sub_cg_cr_rs1_rs2_edges_rs1val_0x1_rs2val_0x80000000_str
0000181c l       .text.rvtest	00000000 I_sub_cg_cr_rs1_rs2_edges_rs1val_0x1_rs2val_0x80000001
0000a94a l       .data	00000000 I_sub_cg_cr_rs1_rs2_edges_rs1val_0x1_rs2val_0x80000001_str
00001848 l       .text.rvtest	00000000 I_sub_cg_cr_rs1_rs2_edges_rs1val_0x1_rs2val_0x7fffffff
0000a99e l       .data	00000000 I_sub_cg_cr_rs1_rs2_edges_rs1val_0x1_rs2val_0x7fffffff_str
00001874 l       .text.rvtest	00000000 I_sub_cg_cr_rs1_rs2_edges_rs1val_0x1_rs2val_0x7ffffffe
0000a9f2 l       .data	00000000 I_sub_cg_cr_rs1_rs2_edges_rs1val_0x1_rs2val_0x7ffffffe_str
000018a0 l       .text.rvtest	00000000 I_sub_cg_cr_rs1_rs2_edges_rs1val_0x1_rs2val_0xffffffff
0000aa46 l       .data	00000000 I_sub_cg_cr_rs1_rs2_edges_rs1val_0x1_rs2val_0xffffffff_str
000018cc l       .text.rvtest	00000000 I_sub_cg_cr_rs1_rs2_edges_rs1val_0x1_rs2val_0xfffffffe
0000aa9a l       .data	00000000 I_sub_cg_cr_rs1_rs2_edges_rs1val_0x1_rs2val_0xfffffffe_str
000018f8 l       .text.rvtest	00000000 I_sub_cg_cr_rs1_rs2_edges_rs1val_0x1_rs2val_0x5bbc8872
0000aaee l       .data	00000000 I_sub_cg_cr_rs1_rs2_edges_rs1val_0x1_rs2val_0x5bbc8872_str
00001924 l       .text.rvtest	00000000 I_sub_cg_cr_rs1_rs2_edges_rs1val_0x1_rs2val_0xaaaaaaaa
0000ab42 l       .data	00000000 I_sub_cg_cr_rs1_rs2_edges_rs1val_0x1_rs2val_0xaaaaaaaa_str
00001950 l       .text.rvtest	00000000 I_sub_cg_cr_rs1_rs2_edges_rs1val_0x1_rs2val_0x55555555
0000ab96 l       .data	00000000 I_sub_cg_cr_rs1_rs2_edges_rs1val_0x1_rs2val_0x55555555_str
0000197c l       .text.rvtest	00000000 I_sub_cg_cr_rs1_rs2_edges_rs1val_0x2_rs2val_0x0
0000abea l       .data	00000000 I_sub_cg_cr_rs1_rs2_edges_rs1val_0x2_rs2val_0x0_str
000019a8 l       .text.rvtest	00000000 I_sub_cg_cr_rs1_rs2_edges_rs1val_0x2_rs2val_0x1
0000ac37 l       .data	00000000 I_sub_cg_cr_rs1_rs2_edges_rs1val_0x2_rs2val_0x1_str
000019d4 l       .text.rvtest	00000000 I_sub_cg_cr_rs1_rs2_edges_rs1val_0x2_rs2val_0x2
0000ac84 l       .data	00000000 I_sub_cg_cr_rs1_rs2_edges_rs1val_0x2_rs2val_0x2_str
00001a00 l       .text.rvtest	00000000 I_sub_cg_cr_rs1_rs2_edges_rs1val_0x2_rs2val_0x80000000
0000acd1 l       .data	00000000 I_sub_cg_cr_rs1_rs2_edges_rs1val_0x2_rs2val_0x80000000_str
00001a2c l       .text.rvtest	00000000 I_sub_cg_cr_rs1_rs2_edges_rs1val_0x2_rs2val_0x80000001
0000ad25 l       .data	00000000 I_sub_cg_cr_rs1_rs2_edges_rs1val_0x2_rs2val_0x80000001_str
00001a58 l       .text.rvtest	00000000 I_sub_cg_cr_rs1_rs2_edges_rs1val_0x2_rs2val_0x7fffffff
0000ad79 l       .data	00000000 I_sub_cg_cr_rs1_rs2_edges_rs1val_0x2_rs2val_0x7fffffff_str
00001a84 l       .text.rvtest	00000000 I_sub_cg_cr_rs1_rs2_edges_rs1val_0x2_rs2val_0x7ffffffe
0000adcd l       .data	00000000 I_sub_cg_cr_rs1_rs2_edges_rs1val_0x2_rs2val_0x7ffffffe_str
00001ab0 l       .text.rvtest	00000000 I_sub_cg_cr_rs1_rs2_edges_rs1val_0x2_rs2val_0xffffffff
0000ae21 l       .data	00000000 I_sub_cg_cr_rs1_rs2_edges_rs1val_0x2_rs2val_0xffffffff_str
00001adc l       .text.rvtest	00000000 I_sub_cg_cr_rs1_rs2_edges_rs1val_0x2_rs2val_0xfffffffe
0000ae75 l       .data	00000000 I_sub_cg_cr_rs1_rs2_edges_rs1val_0x2_rs2val_0xfffffffe_str
00001b08 l       .text.rvtest	00000000 I_sub_cg_cr_rs1_rs2_edges_rs1val_0x2_rs2val_0x5bbc8872
0000aec9 l       .data	00000000 I_sub_cg_cr_rs1_rs2_edges_rs1val_0x2_rs2val_0x5bbc8872_str
00001b34 l       .text.rvtest	00000000 I_sub_cg_cr_rs1_rs2_edges_rs1val_0x2_rs2val_0xaaaaaaaa
0000af1d l       .data	00000000 I_sub_cg_cr_rs1_rs2_edges_rs1val_0x2_rs2val_0xaaaaaaaa_str
00001b60 l       .text.rvtest	00000000 I_sub_cg_cr_rs1_rs2_edges_rs1val_0x2_rs2val_0x55555555
0000af71 l       .data	00000000 I_sub_cg_cr_rs1_rs2_edges_rs1val_0x2_rs2val_0x55555555_str
00001b8c l       .text.rvtest	00000000 I_sub_cg_cr_rs1_rs2_edges_rs1val_0x80000000_rs2val_0x0
0000afc5 l       .data	00000000 I_sub_cg_cr_rs1_rs2_edges_rs1val_0x80000000_rs2val_0x0_str
00001bb8 l       .text.rvtest	00000000 I_sub_cg_cr_rs1_rs2_edges_rs1val_0x80000000_rs2val_0x1
0000b019 l       .data	00000000 I_sub_cg_cr_rs1_rs2_edges_rs1val_0x80000000_rs2val_0x1_str
00001be4 l       .text.rvtest	00000000 I_sub_cg_cr_rs1_rs2_edges_rs1val_0x80000000_rs2val_0x2
0000b06d l       .data	00000000 I_sub_cg_cr_rs1_rs2_edges_rs1val_0x80000000_rs2val_0x2_str
00001c10 l       .text.rvtest	00000000 I_sub_cg_cr_rs1_rs2_edges_rs1val_0x80000000_rs2val_0x80000000
0000b0c1 l       .data	00000000 I_sub_cg_cr_rs1_rs2_edges_rs1val_0x80000000_rs2val_0x80000000_str
00001c3c l       .text.rvtest	00000000 I_sub_cg_cr_rs1_rs2_edges_rs1val_0x80000000_rs2val_0x80000001
0000b11c l       .data	00000000 I_sub_cg_cr_rs1_rs2_edges_rs1val_0x80000000_rs2val_0x80000001_str
00001c68 l       .text.rvtest	00000000 I_sub_cg_cr_rs1_rs2_edges_rs1val_0x80000000_rs2val_0x7fffffff
0000b177 l       .data	00000000 I_sub_cg_cr_rs1_rs2_edges_rs1val_0x80000000_rs2val_0x7fffffff_str
00001c94 l       .text.rvtest	00000000 I_sub_cg_cr_rs1_rs2_edges_rs1val_0x80000000_rs2val_0x7ffffffe
0000b1d2 l       .data	00000000 I_sub_cg_cr_rs1_rs2_edges_rs1val_0x80000000_rs2val_0x7ffffffe_str
00001cc0 l       .text.rvtest	00000000 I_sub_cg_cr_rs1_rs2_edges_rs1val_0x80000000_rs2val_0xffffffff
0000b22d l       .data	00000000 I_sub_cg_cr_rs1_rs2_edges_rs1val_0x80000000_rs2val_0xffffffff_str
00001cec l       .text.rvtest	00000000 I_sub_cg_cr_rs1_rs2_edges_rs1val_0x80000000_rs2val_0xfffffffe
0000b288 l       .data	00000000 I_sub_cg_cr_rs1_rs2_edges_rs1val_0x80000000_rs2val_0xfffffffe_str
00001d18 l       .text.rvtest	00000000 I_sub_cg_cr_rs1_rs2_edges_rs1val_0x80000000_rs2val_0x5bbc8872
0000b2e3 l       .data	00000000 I_sub_cg_cr_rs1_rs2_edges_rs1val_0x80000000_rs2val_0x5bbc8872_str
00001d44 l       .text.rvtest	00000000 I_sub_cg_cr_rs1_rs2_edges_rs1val_0x80000000_rs2val_0xaaaaaaaa
0000b33e l       .data	00000000 I_sub_cg_cr_rs1_rs2_edges_rs1val_0x80000000_rs2val_0xaaaaaaaa_str
00001d70 l       .text.rvtest	00000000 I_sub_cg_cr_rs1_rs2_edges_rs1val_0x80000000_rs2val_0x55555555
0000b399 l       .data	00000000 I_sub_cg_cr_rs1_rs2_edges_rs1val_0x80000000_rs2val_0x55555555_str
00001d9c l       .text.rvtest	00000000 I_sub_cg_cr_rs1_rs2_edges_rs1val_0x80000001_rs2val_0x0
0000b3f4 l       .data	00000000 I_sub_cg_cr_rs1_rs2_edges_rs1val_0x80000001_rs2val_0x0_str
00001dc8 l       .text.rvtest	00000000 I_sub_cg_cr_rs1_rs2_edges_rs1val_0x80000001_rs2val_0x1
0000b448 l       .data	00000000 I_sub_cg_cr_rs1_rs2_edges_rs1val_0x80000001_rs2val_0x1_str
00001df4 l       .text.rvtest	00000000 I_sub_cg_cr_rs1_rs2_edges_rs1val_0x80000001_rs2val_0x2
0000b49c l       .data	00000000 I_sub_cg_cr_rs1_rs2_edges_rs1val_0x80000001_rs2val_0x2_str
00001e20 l       .text.rvtest	00000000 I_sub_cg_cr_rs1_rs2_edges_rs1val_0x80000001_rs2val_0x80000000
0000b4f0 l       .data	00000000 I_sub_cg_cr_rs1_rs2_edges_rs1val_0x80000001_rs2val_0x80000000_str
00001e4c l       .text.rvtest	00000000 I_sub_cg_cr_rs1_rs2_edges_rs1val_0x80000001_rs2val_0x80000001
0000b54b l       .data	00000000 I_sub_cg_cr_rs1_rs2_edges_rs1val_0x80000001_rs2val_0x80000001_str
00001e78 l       .text.rvtest	00000000 I_sub_cg_cr_rs1_rs2_edges_rs1val_0x80000001_rs2val_0x7fffffff
0000b5a6 l       .data	00000000 I_sub_cg_cr_rs1_rs2_edges_rs1val_0x80000001_rs2val_0x7fffffff_str
00001ea4 l       .text.rvtest	00000000 I_sub_cg_cr_rs1_rs2_edges_rs1val_0x80000001_rs2val_0x7ffffffe
0000b601 l       .data	00000000 I_sub_cg_cr_rs1_rs2_edges_rs1val_0x80000001_rs2val_0x7ffffffe_str
00001ed0 l       .text.rvtest	00000000 I_sub_cg_cr_rs1_rs2_edges_rs1val_0x80000001_rs2val_0xffffffff
0000b65c l       .data	00000000 I_sub_cg_cr_rs1_rs2_edges_rs1val_0x80000001_rs2val_0xffffffff_str
00001efc l       .text.rvtest	00000000 I_sub_cg_cr_rs1_rs2_edges_rs1val_0x80000001_rs2val_0xfffffffe
0000b6b7 l       .data	00000000 I_sub_cg_cr_rs1_rs2_edges_rs1val_0x80000001_rs2val_0xfffffffe_str
00001f28 l       .text.rvtest	00000000 I_sub_cg_cr_rs1_rs2_edges_rs1val_0x80000001_rs2val_0x5bbc8872
0000b712 l       .data	00000000 I_sub_cg_cr_rs1_rs2_edges_rs1val_0x80000001_rs2val_0x5bbc8872_str
00001f54 l       .text.rvtest	00000000 I_sub_cg_cr_rs1_rs2_edges_rs1val_0x80000001_rs2val_0xaaaaaaaa
0000b76d l       .data	00000000 I_sub_cg_cr_rs1_rs2_edges_rs1val_0x80000001_rs2val_0xaaaaaaaa_str
00001f80 l       .text.rvtest	00000000 I_sub_cg_cr_rs1_rs2_edges_rs1val_0x80000001_rs2val_0x55555555
0000b7c8 l       .data	00000000 I_sub_cg_cr_rs1_rs2_edges_rs1val_0x80000001_rs2val_0x55555555_str
00001fac l       .text.rvtest	00000000 I_sub_cg_cr_rs1_rs2_edges_rs1val_0x7fffffff_rs2val_0x0
0000b823 l       .data	00000000 I_sub_cg_cr_rs1_rs2_edges_rs1val_0x7fffffff_rs2val_0x0_str
00001fd8 l       .text.rvtest	00000000 I_sub_cg_cr_rs1_rs2_edges_rs1val_0x7fffffff_rs2val_0x1
0000b877 l       .data	00000000 I_sub_cg_cr_rs1_rs2_edges_rs1val_0x7fffffff_rs2val_0x1_str
00002004 l       .text.rvtest	00000000 I_sub_cg_cr_rs1_rs2_edges_rs1val_0x7fffffff_rs2val_0x2
0000b8cb l       .data	00000000 I_sub_cg_cr_rs1_rs2_edges_rs1val_0x7fffffff_rs2val_0x2_str
00002030 l       .text.rvtest	00000000 I_sub_cg_cr_rs1_rs2_edges_rs1val_0x7fffffff_rs2val_0x80000000
0000b91f l       .data	00000000 I_sub_cg_cr_rs1_rs2_edges_rs1val_0x7fffffff_rs2val_0x80000000_str
0000205c l       .text.rvtest	00000000 I_sub_cg_cr_rs1_rs2_edges_rs1val_0x7fffffff_rs2val_0x80000001
0000b97a l       .data	00000000 I_sub_cg_cr_rs1_rs2_edges_rs1val_0x7fffffff_rs2val_0x80000001_str
00002088 l       .text.rvtest	00000000 I_sub_cg_cr_rs1_rs2_edges_rs1val_0x7fffffff_rs2val_0x7fffffff
0000b9d5 l       .data	00000000 I_sub_cg_cr_rs1_rs2_edges_rs1val_0x7fffffff_rs2val_0x7fffffff_str
000020b4 l       .text.rvtest	00000000 I_sub_cg_cr_rs1_rs2_edges_rs1val_0x7fffffff_rs2val_0x7ffffffe
0000ba30 l       .data	00000000 I_sub_cg_cr_rs1_rs2_edges_rs1val_0x7fffffff_rs2val_0x7ffffffe_str
000020e0 l       .text.rvtest	00000000 I_sub_cg_cr_rs1_rs2_edges_rs1val_0x7fffffff_rs2val_0xffffffff
0000ba8b l       .data	00000000 I_sub_cg_cr_rs1_rs2_edges_rs1val_0x7fffffff_rs2val_0xffffffff_str
0000210c l       .text.rvtest	00000000 I_sub_cg_cr_rs1_rs2_edges_rs1val_0x7fffffff_rs2val_0xfffffffe
0000bae6 l       .data	00000000 I_sub_cg_cr_rs1_rs2_edges_rs1val_0x7fffffff_rs2val_0xfffffffe_str
00002138 l       .text.rvtest	00000000 I_sub_cg_cr_rs1_rs2_edges_rs1val_0x7fffffff_rs2val_0x5bbc8872
0000bb41 l       .data	00000000 I_sub_cg_cr_rs1_rs2_edges_rs1val_0x7fffffff_rs2val_0x5bbc8872_str
00002164 l       .text.rvtest	00000000 I_sub_cg_cr_rs1_rs2_edges_rs1val_0x7fffffff_rs2val_0xaaaaaaaa
0000bb9c l       .data	00000000 I_sub_cg_cr_rs1_rs2_edges_rs1val_0x7fffffff_rs2val_0xaaaaaaaa_str
00002190 l       .text.rvtest	00000000 I_sub_cg_cr_rs1_rs2_edges_rs1val_0x7fffffff_rs2val_0x55555555
0000bbf7 l       .data	00000000 I_sub_cg_cr_rs1_rs2_edges_rs1val_0x7fffffff_rs2val_0x55555555_str
000021bc l       .text.rvtest	00000000 I_sub_cg_cr_rs1_rs2_edges_rs1val_0x7ffffffe_rs2val_0x0
0000bc52 l       .data	00000000 I_sub_cg_cr_rs1_rs2_edges_rs1val_0x7ffffffe_rs2val_0x0_str
000021e8 l       .text.rvtest	00000000 I_sub_cg_cr_rs1_rs2_edges_rs1val_0x7ffffffe_rs2val_0x1
0000bca6 l       .data	00000000 I_sub_cg_cr_rs1_rs2_edges_rs1val_0x7ffffffe_rs2val_0x1_str
00002214 l       .text.rvtest	00000000 I_sub_cg_cr_rs1_rs2_edges_rs1val_0x7ffffffe_rs2val_0x2
0000bcfa l       .data	00000000 I_sub_cg_cr_rs1_rs2_edges_rs1val_0x7ffffffe_rs2val_0x2_str
00002240 l       .text.rvtest	00000000 I_sub_cg_cr_rs1_rs2_edges_rs1val_0x7ffffffe_rs2val_0x80000000
0000bd4e l       .data	00000000 I_sub_cg_cr_rs1_rs2_edges_rs1val_0x7ffffffe_rs2val_0x80000000_str
0000226c l       .text.rvtest	00000000 I_sub_cg_cr_rs1_rs2_edges_rs1val_0x7ffffffe_rs2val_0x80000001
0000bda9 l       .data	00000000 I_sub_cg_cr_rs1_rs2_edges_rs1val_0x7ffffffe_rs2val_0x80000001_str
00002298 l       .text.rvtest	00000000 I_sub_cg_cr_rs1_rs2_edges_rs1val_0x7ffffffe_rs2val_0x7fffffff
0000be04 l       .data	00000000 I_sub_cg_cr_rs1_rs2_edges_rs1val_0x7ffffffe_rs2val_0x7fffffff_str
000022c4 l       .text.rvtest	00000000 I_sub_cg_cr_rs1_rs2_edges_rs1val_0x7ffffffe_rs2val_0x7ffffffe
0000be5f l       .data	00000000 I_sub_cg_cr_rs1_rs2_edges_rs1val_0x7ffffffe_rs2val_0x7ffffffe_str
000022f0 l       .text.rvtest	00000000 I_sub_cg_cr_rs1_rs2_edges_rs1val_0x7ffffffe_rs2val_0xffffffff
0000beba l       .data	00000000 I_sub_cg_cr_rs1_rs2_edges_rs1val_0x7ffffffe_rs2val_0xffffffff_str
0000231c l       .text.rvtest	00000000 I_sub_cg_cr_rs1_rs2_edges_rs1val_0x7ffffffe_rs2val_0xfffffffe
0000bf15 l       .data	00000000 I_sub_cg_cr_rs1_rs2_edges_rs1val_0x7ffffffe_rs2val_0xfffffffe_str
00002348 l       .text.rvtest	00000000 I_sub_cg_cr_rs1_rs2_edges_rs1val_0x7ffffffe_rs2val_0x5bbc8872
0000bf70 l       .data	00000000 I_sub_cg_cr_rs1_rs2_edges_rs1val_0x7ffffffe_rs2val_0x5bbc8872_str
00002374 l       .text.rvtest	00000000 I_sub_cg_cr_rs1_rs2_edges_rs1val_0x7ffffffe_rs2val_0xaaaaaaaa
0000bfcb l       .data	00000000 I_sub_cg_cr_rs1_rs2_edges_rs1val_0x7ffffffe_rs2val_0xaaaaaaaa_str
000023a0 l       .text.rvtest	00000000 I_sub_cg_cr_rs1_rs2_edges_rs1val_0x7ffffffe_rs2val_0x55555555
0000c026 l       .data	00000000 I_sub_cg_cr_rs1_rs2_edges_rs1val_0x7ffffffe_rs2val_0x55555555_str
000023cc l       .text.rvtest	00000000 I_sub_cg_cr_rs1_rs2_edges_rs1val_0xffffffff_rs2val_0x0
0000c081 l       .data	00000000 I_sub_cg_cr_rs1_rs2_edges_rs1val_0xffffffff_rs2val_0x0_str
000023f8 l       .text.rvtest	00000000 I_sub_cg_cr_rs1_rs2_edges_rs1val_0xffffffff_rs2val_0x1
0000c0d5 l       .data	00000000 I_sub_cg_cr_rs1_rs2_edges_rs1val_0xffffffff_rs2val_0x1_str
00002424 l       .text.rvtest	00000000 I_sub_cg_cr_rs1_rs2_edges_rs1val_0xffffffff_rs2val_0x2
0000c129 l       .data	00000000 I_sub_cg_cr_rs1_rs2_edges_rs1val_0xffffffff_rs2val_0x2_str
00002450 l       .text.rvtest	00000000 I_sub_cg_cr_rs1_rs2_edges_rs1val_0xffffffff_rs2val_0x80000000
0000c17d l       .data	00000000 I_sub_cg_cr_rs1_rs2_edges_rs1val_0xffffffff_rs2val_0x80000000_str
0000247c l       .text.rvtest	00000000 I_sub_cg_cr_rs1_rs2_edges_rs1val_0xffffffff_rs2val_0x80000001
0000c1d8 l       .data	00000000 I_sub_cg_cr_rs1_rs2_edges_rs1val_0xffffffff_rs2val_0x80000001_str
000024a8 l       .text.rvtest	00000000 I_sub_cg_cr_rs1_rs2_edges_rs1val_0xffffffff_rs2val_0x7fffffff
0000c233 l       .data	00000000 I_sub_cg_cr_rs1_rs2_edges_rs1val_0xffffffff_rs2val_0x7fffffff_str
000024d4 l       .text.rvtest	00000000 I_sub_cg_cr_rs1_rs2_edges_rs1val_0xffffffff_rs2val_0x7ffffffe
0000c28e l       .data	00000000 I_sub_cg_cr_rs1_rs2_edges_rs1val_0xffffffff_rs2val_0x7ffffffe_str
00002500 l       .text.rvtest	00000000 I_sub_cg_cr_rs1_rs2_edges_rs1val_0xffffffff_rs2val_0xffffffff
0000c2e9 l       .data	00000000 I_sub_cg_cr_rs1_rs2_edges_rs1val_0xffffffff_rs2val_0xffffffff_str
0000252c l       .text.rvtest	00000000 I_sub_cg_cr_rs1_rs2_edges_rs1val_0xffffffff_rs2val_0xfffffffe
0000c344 l       .data	00000000 I_sub_cg_cr_rs1_rs2_edges_rs1val_0xffffffff_rs2val_0xfffffffe_str
00002558 l       .text.rvtest	00000000 I_sub_cg_cr_rs1_rs2_edges_rs1val_0xffffffff_rs2val_0x5bbc8872
0000c39f l       .data	00000000 I_sub_cg_cr_rs1_rs2_edges_rs1val_0xffffffff_rs2val_0x5bbc8872_str
00002584 l       .text.rvtest	00000000 I_sub_cg_cr_rs1_rs2_edges_rs1val_0xffffffff_rs2val_0xaaaaaaaa
0000c3fa l       .data	00000000 I_sub_cg_cr_rs1_rs2_edges_rs1val_0xffffffff_rs2val_0xaaaaaaaa_str
000025b0 l       .text.rvtest	00000000 I_sub_cg_cr_rs1_rs2_edges_rs1val_0xffffffff_rs2val_0x55555555
0000c455 l       .data	00000000 I_sub_cg_cr_rs1_rs2_edges_rs1val_0xffffffff_rs2val_0x55555555_str
000025dc l       .text.rvtest	00000000 I_sub_cg_cr_rs1_rs2_edges_rs1val_0xfffffffe_rs2val_0x0
0000c4b0 l       .data	00000000 I_sub_cg_cr_rs1_rs2_edges_rs1val_0xfffffffe_rs2val_0x0_str
00002608 l       .text.rvtest	00000000 I_sub_cg_cr_rs1_rs2_edges_rs1val_0xfffffffe_rs2val_0x1
0000c504 l       .data	00000000 I_sub_cg_cr_rs1_rs2_edges_rs1val_0xfffffffe_rs2val_0x1_str
00002634 l       .text.rvtest	00000000 I_sub_cg_cr_rs1_rs2_edges_rs1val_0xfffffffe_rs2val_0x2
0000c558 l       .data	00000000 I_sub_cg_cr_rs1_rs2_edges_rs1val_0xfffffffe_rs2val_0x2_str
00002660 l       .text.rvtest	00000000 I_sub_cg_cr_rs1_rs2_edges_rs1val_0xfffffffe_rs2val_0x80000000
0000c5ac l       .data	00000000 I_sub_cg_cr_rs1_rs2_edges_rs1val_0xfffffffe_rs2val_0x80000000_str
0000268c l       .text.rvtest	00000000 I_sub_cg_cr_rs1_rs2_edges_rs1val_0xfffffffe_rs2val_0x80000001
0000c607 l       .data	00000000 I_sub_cg_cr_rs1_rs2_edges_rs1val_0xfffffffe_rs2val_0x80000001_str
000026b8 l       .text.rvtest	00000000 I_sub_cg_cr_rs1_rs2_edges_rs1val_0xfffffffe_rs2val_0x7fffffff
0000c662 l       .data	00000000 I_sub_cg_cr_rs1_rs2_edges_rs1val_0xfffffffe_rs2val_0x7fffffff_str
000026e4 l       .text.rvtest	00000000 I_sub_cg_cr_rs1_rs2_edges_rs1val_0xfffffffe_rs2val_0x7ffffffe
0000c6bd l       .data	00000000 I_sub_cg_cr_rs1_rs2_edges_rs1val_0xfffffffe_rs2val_0x7ffffffe_str
00002710 l       .text.rvtest	00000000 I_sub_cg_cr_rs1_rs2_edges_rs1val_0xfffffffe_rs2val_0xffffffff
0000c718 l       .data	00000000 I_sub_cg_cr_rs1_rs2_edges_rs1val_0xfffffffe_rs2val_0xffffffff_str
0000273c l       .text.rvtest	00000000 I_sub_cg_cr_rs1_rs2_edges_rs1val_0xfffffffe_rs2val_0xfffffffe
0000c773 l       .data	00000000 I_sub_cg_cr_rs1_rs2_edges_rs1val_0xfffffffe_rs2val_0xfffffffe_str
00002768 l       .text.rvtest	00000000 I_sub_cg_cr_rs1_rs2_edges_rs1val_0xfffffffe_rs2val_0x5bbc8872
0000c7ce l       .data	00000000 I_sub_cg_cr_rs1_rs2_edges_rs1val_0xfffffffe_rs2val_0x5bbc8872_str
00002794 l       .text.rvtest	00000000 I_sub_cg_cr_rs1_rs2_edges_rs1val_0xfffffffe_rs2val_0xaaaaaaaa
0000c829 l       .data	00000000 I_sub_cg_cr_rs1_rs2_edges_rs1val_0xfffffffe_rs2val_0xaaaaaaaa_str
000027c0 l       .text.rvtest	00000000 I_sub_cg_cr_rs1_rs2_edges_rs1val_0xfffffffe_rs2val_0x55555555
0000c884 l       .data	00000000 I_sub_cg_cr_rs1_rs2_edges_rs1val_0xfffffffe_rs2val_0x55555555_str
000027ec l       .text.rvtest	00000000 I_sub_cg_cr_rs1_rs2_edges_rs1val_0x5bbc8872_rs2val_0x0
0000c8df l       .data	00000000 I_sub_cg_cr_rs1_rs2_edges_rs1val_0x5bbc8872_rs2val_0x0_str
00002818 l       .text.rvtest	00000000 I_sub_cg_cr_rs1_rs2_edges_rs1val_0x5bbc8872_rs2val_0x1
0000c933 l       .data	00000000 I_sub_cg_cr_rs1_rs2_edges_rs1val_0x5bbc8872_rs2val_0x1_str
00002844 l       .text.rvtest	00000000 I_sub_cg_cr_rs1_rs2_edges_rs1val_0x5bbc8872_rs2val_0x2
0000c987 l       .data	00000000 I_sub_cg_cr_rs1_rs2_edges_rs1val_0x5bbc8872_rs2val_0x2_str
00002870 l       .text.rvtest	00000000 I_sub_cg_cr_rs1_rs2_edges_rs1val_0x5bbc8872_rs2val_0x80000000
0000c9db l       .data	00000000 I_sub_cg_cr_rs1_rs2_edges_rs1val_0x5bbc8872_rs2val_0x80000000_str
0000289c l       .text.rvtest	00000000 I_sub_cg_cr_rs1_rs2_edges_rs1val_0x5bbc8872_rs2val_0x80000001
0000ca36 l       .data	00000000 I_sub_cg_cr_rs1_rs2_edges_rs1val_0x5bbc8872_rs2val_0x80000001_str
000028c8 l       .text.rvtest	00000000 I_sub_cg_cr_rs1_rs2_edges_rs1val_0x5bbc8872_rs2val_0x7fffffff
0000ca91 l       .data	00000000 I_sub_cg_cr_rs1_rs2_edges_rs1val_0x5bbc8872_rs2val_0x7fffffff_str
000028f4 l       .text.rvtest	00000000 I_sub_cg_cr_rs1_rs2_edges_rs1val_0x5bbc8872_rs2val_0x7ffffffe
0000caec l       .data	00000000 I_sub_cg_cr_rs1_rs2_edges_rs1val_0x5bbc8872_rs2val_0x7ffffffe_str
00002920 l       .text.rvtest	00000000 I_sub_cg_cr_rs1_rs2_edges_rs1val_0x5bbc8872_rs2val_0xffffffff
0000cb47 l       .data	00000000 I_sub_cg_cr_rs1_rs2_edges_rs1val_0x5bbc8872_rs2val_0xffffffff_str
0000294c l       .text.rvtest	00000000 I_sub_cg_cr_rs1_rs2_edges_rs1val_0x5bbc8872_rs2val_0xfffffffe
0000cba2 l       .data	00000000 I_sub_cg_cr_rs1_rs2_edges_rs1val_0x5bbc8872_rs2val_0xfffffffe_str
00002978 l       .text.rvtest	00000000 I_sub_cg_cr_rs1_rs2_edges_rs1val_0x5bbc8872_rs2val_0x5bbc8872
0000cbfd l       .data	00000000 I_sub_cg_cr_rs1_rs2_edges_rs1val_0x5bbc8872_rs2val_0x5bbc8872_str
000029a4 l       .text.rvtest	00000000 I_sub_cg_cr_rs1_rs2_edges_rs1val_0x5bbc8872_rs2val_0xaaaaaaaa
0000cc58 l       .data	00000000 I_sub_cg_cr_rs1_rs2_edges_rs1val_0x5bbc8872_rs2val_0xaaaaaaaa_str
000029d0 l       .text.rvtest	00000000 I_sub_cg_cr_rs1_rs2_edges_rs1val_0x5bbc8872_rs2val_0x55555555
0000ccb3 l       .data	00000000 I_sub_cg_cr_rs1_rs2_edges_rs1val_0x5bbc8872_rs2val_0x55555555_str
000029fc l       .text.rvtest	00000000 I_sub_cg_cr_rs1_rs2_edges_rs1val_0xaaaaaaaa_rs2val_0x0
0000cd0e l       .data	00000000 I_sub_cg_cr_rs1_rs2_edges_rs1val_0xaaaaaaaa_rs2val_0x0_str
00002a28 l       .text.rvtest	00000000 I_sub_cg_cr_rs1_rs2_edges_rs1val_0xaaaaaaaa_rs2val_0x1
0000cd62 l       .data	00000000 I_sub_cg_cr_rs1_rs2_edges_rs1val_0xaaaaaaaa_rs2val_0x1_str
00002a54 l       .text.rvtest	00000000 I_sub_cg_cr_rs1_rs2_edges_rs1val_0xaaaaaaaa_rs2val_0x2
0000cdb6 l       .data	00000000 I_sub_cg_cr_rs1_rs2_edges_rs1val_0xaaaaaaaa_rs2val_0x2_str
00002a80 l       .text.rvtest	00000000 I_sub_cg_cr_rs1_rs2_edges_rs1val_0xaaaaaaaa_rs2val_0x80000000
0000ce0a l       .data	00000000 I_sub_cg_cr_rs1_rs2_edges_rs1val_0xaaaaaaaa_rs2val_0x80000000_str
00002aac l       .text.rvtest	00000000 I_sub_cg_cr_rs1_rs2_edges_rs1val_0xaaaaaaaa_rs2val_0x80000001
0000ce65 l       .data	00000000 I_sub_cg_cr_rs1_rs2_edges_rs1val_0xaaaaaaaa_rs2val_0x80000001_str
00002ad8 l       .text.rvtest	00000000 I_sub_cg_cr_rs1_rs2_edges_rs1val_0xaaaaaaaa_rs2val_0x7fffffff
0000cec0 l       .data	00000000 I_sub_cg_cr_rs1_rs2_edges_rs1val_0xaaaaaaaa_rs2val_0x7fffffff_str
00002b04 l       .text.rvtest	00000000 I_sub_cg_cr_rs1_rs2_edges_rs1val_0xaaaaaaaa_rs2val_0x7ffffffe
0000cf1b l       .data	00000000 I_sub_cg_cr_rs1_rs2_edges_rs1val_0xaaaaaaaa_rs2val_0x7ffffffe_str
00002b30 l       .text.rvtest	00000000 I_sub_cg_cr_rs1_rs2_edges_rs1val_0xaaaaaaaa_rs2val_0xffffffff
0000cf76 l       .data	00000000 I_sub_cg_cr_rs1_rs2_edges_rs1val_0xaaaaaaaa_rs2val_0xffffffff_str
00002b5c l       .text.rvtest	00000000 I_sub_cg_cr_rs1_rs2_edges_rs1val_0xaaaaaaaa_rs2val_0xfffffffe
0000cfd1 l       .data	00000000 I_sub_cg_cr_rs1_rs2_edges_rs1val_0xaaaaaaaa_rs2val_0xfffffffe_str
00002b88 l       .text.rvtest	00000000 I_sub_cg_cr_rs1_rs2_edges_rs1val_0xaaaaaaaa_rs2val_0x5bbc8872
0000d02c l       .data	00000000 I_sub_cg_cr_rs1_rs2_edges_rs1val_0xaaaaaaaa_rs2val_0x5bbc8872_str
00002bb4 l       .text.rvtest	00000000 I_sub_cg_cr_rs1_rs2_edges_rs1val_0xaaaaaaaa_rs2val_0xaaaaaaaa
0000d087 l       .data	00000000 I_sub_cg_cr_rs1_rs2_edges_rs1val_0xaaaaaaaa_rs2val_0xaaaaaaaa_str
00002be0 l       .text.rvtest	00000000 I_sub_cg_cr_rs1_rs2_edges_rs1val_0xaaaaaaaa_rs2val_0x55555555
0000d0e2 l       .data	00000000 I_sub_cg_cr_rs1_rs2_edges_rs1val_0xaaaaaaaa_rs2val_0x55555555_str
00002c0c l       .text.rvtest	00000000 I_sub_cg_cr_rs1_rs2_edges_rs1val_0x55555555_rs2val_0x0
0000d13d l       .data	00000000 I_sub_cg_cr_rs1_rs2_edges_rs1val_0x55555555_rs2val_0x0_str
00002c38 l       .text.rvtest	00000000 I_sub_cg_cr_rs1_rs2_edges_rs1val_0x55555555_rs2val_0x1
0000d191 l       .data	00000000 I_sub_cg_cr_rs1_rs2_edges_rs1val_0x55555555_rs2val_0x1_str
00002c64 l       .text.rvtest	00000000 I_sub_cg_cr_rs1_rs2_edges_rs1val_0x55555555_rs2val_0x2
0000d1e5 l       .data	00000000 I_sub_cg_cr_rs1_rs2_edges_rs1val_0x55555555_rs2val_0x2_str
00002c90 l       .text.rvtest	00000000 I_sub_cg_cr_rs1_rs2_edges_rs1val_0x55555555_rs2val_0x80000000
0000d239 l       .data	00000000 I_sub_cg_cr_rs1_rs2_edges_rs1val_0x55555555_rs2val_0x80000000_str
00002cbc l       .text.rvtest	00000000 I_sub_cg_cr_rs1_rs2_edges_rs1val_0x55555555_rs2val_0x80000001
0000d294 l       .data	00000000 I_sub_cg_cr_rs1_rs2_edges_rs1val_0x55555555_rs2val_0x80000001_str
00002ce8 l       .text.rvtest	00000000 I_sub_cg_cr_rs1_rs2_edges_rs1val_0x55555555_rs2val_0x7fffffff
0000d2ef l       .data	00000000 I_sub_cg_cr_rs1_rs2_edges_rs1val_0x55555555_rs2val_0x7fffffff_str
00002d14 l       .text.rvtest	00000000 I_sub_cg_cr_rs1_rs2_edges_rs1val_0x55555555_rs2val_0x7ffffffe
0000d34a l       .data	00000000 I_sub_cg_cr_rs1_rs2_edges_rs1val_0x55555555_rs2val_0x7ffffffe_str
00002d40 l       .text.rvtest	00000000 I_sub_cg_cr_rs1_rs2_edges_rs1val_0x55555555_rs2val_0xffffffff
0000d3a5 l       .data	00000000 I_sub_cg_cr_rs1_rs2_edges_rs1val_0x55555555_rs2val_0xffffffff_str
00002d6c l       .text.rvtest	00000000 I_sub_cg_cr_rs1_rs2_edges_rs1val_0x55555555_rs2val_0xfffffffe
0000d400 l       .data	00000000 I_sub_cg_cr_rs1_rs2_edges_rs1val_0x55555555_rs2val_0xfffffffe_str
00002d98 l       .text.rvtest	00000000 I_sub_cg_cr_rs1_rs2_edges_rs1val_0x55555555_rs2val_0x5bbc8872
0000d45b l       .data	00000000 I_sub_cg_cr_rs1_rs2_edges_rs1val_0x55555555_rs2val_0x5bbc8872_str
00002dc4 l       .text.rvtest	00000000 I_sub_cg_cr_rs1_rs2_edges_rs1val_0x55555555_rs2val_0xaaaaaaaa
0000d4b6 l       .data	00000000 I_sub_cg_cr_rs1_rs2_edges_rs1val_0x55555555_rs2val_0xaaaaaaaa_str
00002df0 l       .text.rvtest	00000000 I_sub_cg_cr_rs1_rs2_edges_rs1val_0x55555555_rs2val_0x55555555
0000d511 l       .data	00000000 I_sub_cg_cr_rs1_rs2_edges_rs1val_0x55555555_rs2val_0x55555555_str
00002e1c l       .text.rvtest	00000000 I_sub_cg_cmp_rs1_rs2_b0
0000d56c l       .data	00000000 I_sub_cg_cmp_rs1_rs2_b0_str
00002e48 l       .text.rvtest	00000000 I_sub_cg_cmp_rs1_rs2_b1
0000d5a0 l       .data	00000000 I_sub_cg_cmp_rs1_rs2_b1_str
00002e74 l       .text.rvtest	00000000 I_sub_cg_cmp_rs1_rs2_b2
0000d5d4 l       .data	00000000 I_sub_cg_cmp_rs1_rs2_b2_str
00002ea0 l       .text.rvtest	00000000 I_sub_cg_cmp_rs1_rs2_b3
0000d608 l       .data	00000000 I_sub_cg_cmp_rs1_rs2_b3_str
00002ed4 l       .text.rvtest	00000000 I_sub_cg_cmp_rs1_rs2_b4
0000d63c l       .data	00000000 I_sub_cg_cmp_rs1_rs2_b4_str
00002f00 l       .text.rvtest	00000000 I_sub_cg_cmp_rs1_rs2_b5
0000d670 l       .data	00000000 I_sub_cg_cmp_rs1_rs2_b5_str
00002f2c l       .text.rvtest	00000000 I_sub_cg_cmp_rs1_rs2_b6
0000d6a4 l       .data	00000000 I_sub_cg_cmp_rs1_rs2_b6_str
00002f58 l       .text.rvtest	00000000 I_sub_cg_cmp_rs1_rs2_b7
0000d6d8 l       .data	00000000 I_sub_cg_cmp_rs1_rs2_b7_str
00002f84 l       .text.rvtest	00000000 I_sub_cg_cmp_rs1_rs2_b8
0000d70c l       .data	00000000 I_sub_cg_cmp_rs1_rs2_b8_str
00002fb4 l       .text.rvtest	00000000 I_sub_cg_cmp_rs1_rs2_b9
0000d740 l       .data	00000000 I_sub_cg_cmp_rs1_rs2_b9_str
00002fe0 l       .text.rvtest	00000000 I_sub_cg_cmp_rs1_rs2_b10
0000d774 l       .data	00000000 I_sub_cg_cmp_rs1_rs2_b10_str
0000300c l       .text.rvtest	00000000 I_sub_cg_cmp_rs1_rs2_b11
0000d7a9 l       .data	00000000 I_sub_cg_cmp_rs1_rs2_b11_str
00003038 l       .text.rvtest	00000000 I_sub_cg_cmp_rs1_rs2_b12
0000d7de l       .data	00000000 I_sub_cg_cmp_rs1_rs2_b12_str
0000306c l       .text.rvtest	00000000 I_sub_cg_cmp_rs1_rs2_b13
0000d813 l       .data	00000000 I_sub_cg_cmp_rs1_rs2_b13_str
00003098 l       .text.rvtest	00000000 I_sub_cg_cmp_rs1_rs2_b14
0000d848 l       .data	00000000 I_sub_cg_cmp_rs1_rs2_b14_str
000030c4 l       .text.rvtest	00000000 I_sub_cg_cmp_rs1_rs2_b15
0000d87d l       .data	00000000 I_sub_cg_cmp_rs1_rs2_b15_str
000030f0 l       .text.rvtest	00000000 I_sub_cg_cmp_rs1_rs2_b16
0000d8b2 l       .data	00000000 I_sub_cg_cmp_rs1_rs2_b16_str
0000311c l       .text.rvtest	00000000 I_sub_cg_cmp_rs1_rs2_b17
0000d8e7 l       .data	00000000 I_sub_cg_cmp_rs1_rs2_b17_str
00003148 l       .text.rvtest	00000000 I_sub_cg_cmp_rs1_rs2_b18
0000d91c l       .data	00000000 I_sub_cg_cmp_rs1_rs2_b18_str
00003174 l       .text.rvtest	00000000 I_sub_cg_cmp_rs1_rs2_b19
0000d951 l       .data	00000000 I_sub_cg_cmp_rs1_rs2_b19_str
000031a4 l       .text.rvtest	00000000 I_sub_cg_cmp_rs1_rs2_b20
0000d986 l       .data	00000000 I_sub_cg_cmp_rs1_rs2_b20_str
000031d0 l       .text.rvtest	00000000 I_sub_cg_cmp_rs1_rs2_b21
0000d9bb l       .data	00000000 I_sub_cg_cmp_rs1_rs2_b21_str
000031fc l       .text.rvtest	00000000 I_sub_cg_cmp_rs1_rs2_b22
0000d9f0 l       .data	00000000 I_sub_cg_cmp_rs1_rs2_b22_str
00003228 l       .text.rvtest	00000000 I_sub_cg_cmp_rs1_rs2_b23
0000da25 l       .data	00000000 I_sub_cg_cmp_rs1_rs2_b23_str
00003254 l       .text.rvtest	00000000 I_sub_cg_cmp_rs1_rs2_b24
0000da5a l       .data	00000000 I_sub_cg_cmp_rs1_rs2_b24_str
00003280 l       .text.rvtest	00000000 I_sub_cg_cmp_rs1_rs2_b25
0000da8f l       .data	00000000 I_sub_cg_cmp_rs1_rs2_b25_str
000032ac l       .text.rvtest	00000000 I_sub_cg_cmp_rs1_rs2_b26
0000dac4 l       .data	00000000 I_sub_cg_cmp_rs1_rs2_b26_str
000032d8 l       .text.rvtest	00000000 I_sub_cg_cmp_rs1_rs2_b27
0000daf9 l       .data	00000000 I_sub_cg_cmp_rs1_rs2_b27_str
00003304 l       .text.rvtest	00000000 I_sub_cg_cmp_rs1_rs2_b28
0000db2e l       .data	00000000 I_sub_cg_cmp_rs1_rs2_b28_str
00003330 l       .text.rvtest	00000000 I_sub_cg_cmp_rs1_rs2_b29
0000db63 l       .data	00000000 I_sub_cg_cmp_rs1_rs2_b29_str
0000335c l       .text.rvtest	00000000 I_sub_cg_cmp_rs1_rs2_b30
0000db98 l       .data	00000000 I_sub_cg_cmp_rs1_rs2_b30_str
00003388 l       .text.rvtest	00000000 I_sub_cg_cmp_rs1_rs2_b31
0000dbcd l       .data	00000000 I_sub_cg_cmp_rs1_rs2_b31_str
000033b4 l       .text.rvtest	00000000 I_sub_cg_cmp_rd_rs1_b0
0000dc02 l       .data	00000000 I_sub_cg_cmp_rd_rs1_b0_str
000033e0 l       .text.rvtest	00000000 I_sub_cg_cmp_rd_rs1_b1
0000dc35 l       .data	00000000 I_sub_cg_cmp_rd_rs1_b1_str
00003410 l       .text.rvtest	00000000 I_sub_cg_cmp_rd_rs1_b2
0000dc68 l       .data	00000000 I_sub_cg_cmp_rd_rs1_b2_str
00003440 l       .text.rvtest	00000000 I_sub_cg_cmp_rd_rs1_b3
0000dc9b l       .data	00000000 I_sub_cg_cmp_rd_rs1_b3_str
0000346c l       .text.rvtest	00000000 I_sub_cg_cmp_rd_rs1_b4
0000dcce l       .data	00000000 I_sub_cg_cmp_rd_rs1_b4_str
00003498 l       .text.rvtest	00000000 I_sub_cg_cmp_rd_rs1_b5
0000dd01 l       .data	00000000 I_sub_cg_cmp_rd_rs1_b5_str
000034c4 l       .text.rvtest	00000000 I_sub_cg_cmp_rd_rs1_b6
0000dd34 l       .data	00000000 I_sub_cg_cmp_rd_rs1_b6_str
000034f8 l       .text.rvtest	00000000 I_sub_cg_cmp_rd_rs1_b7
0000dd67 l       .data	00000000 I_sub_cg_cmp_rd_rs1_b7_str
00003524 l       .text.rvtest	00000000 I_sub_cg_cmp_rd_rs1_b8
0000dd9a l       .data	00000000 I_sub_cg_cmp_rd_rs1_b8_str
00003550 l       .text.rvtest	00000000 I_sub_cg_cmp_rd_rs1_b9
0000ddcd l       .data	00000000 I_sub_cg_cmp_rd_rs1_b9_str
0000357c l       .text.rvtest	00000000 I_sub_cg_cmp_rd_rs1_b10
0000de00 l       .data	00000000 I_sub_cg_cmp_rd_rs1_b10_str
000035a8 l       .text.rvtest	00000000 I_sub_cg_cmp_rd_rs1_b11
0000de34 l       .data	00000000 I_sub_cg_cmp_rd_rs1_b11_str
000035d4 l       .text.rvtest	00000000 I_sub_cg_cmp_rd_rs1_b12
0000de68 l       .data	00000000 I_sub_cg_cmp_rd_rs1_b12_str
00003600 l       .text.rvtest	00000000 I_sub_cg_cmp_rd_rs1_b13
0000de9c l       .data	00000000 I_sub_cg_cmp_rd_rs1_b13_str
0000362c l       .text.rvtest	00000000 I_sub_cg_cmp_rd_rs1_b14
0000ded0 l       .data	00000000 I_sub_cg_cmp_rd_rs1_b14_str
00003658 l       .text.rvtest	00000000 I_sub_cg_cmp_rd_rs1_b15
0000df04 l       .data	00000000 I_sub_cg_cmp_rd_rs1_b15_str
00003684 l       .text.rvtest	00000000 I_sub_cg_cmp_rd_rs1_b16
0000df38 l       .data	00000000 I_sub_cg_cmp_rd_rs1_b16_str
000036b0 l       .text.rvtest	00000000 I_sub_cg_cmp_rd_rs1_b17
0000df6c l       .data	00000000 I_sub_cg_cmp_rd_rs1_b17_str
000036dc l       .text.rvtest	00000000 I_sub_cg_cmp_rd_rs1_b18
0000dfa0 l       .data	00000000 I_sub_cg_cmp_rd_rs1_b18_str
00003708 l       .text.rvtest	00000000 I_sub_cg_cmp_rd_rs1_b19
0000dfd4 l       .data	00000000 I_sub_cg_cmp_rd_rs1_b19_str
00003734 l       .text.rvtest	00000000 I_sub_cg_cmp_rd_rs1_b20
0000e008 l       .data	00000000 I_sub_cg_cmp_rd_rs1_b20_str
00003760 l       .text.rvtest	00000000 I_sub_cg_cmp_rd_rs1_b21
0000e03c l       .data	00000000 I_sub_cg_cmp_rd_rs1_b21_str
0000378c l       .text.rvtest	00000000 I_sub_cg_cmp_rd_rs1_b22
0000e070 l       .data	00000000 I_sub_cg_cmp_rd_rs1_b22_str
000037b8 l       .text.rvtest	00000000 I_sub_cg_cmp_rd_rs1_b23
0000e0a4 l       .data	00000000 I_sub_cg_cmp_rd_rs1_b23_str
000037e8 l       .text.rvtest	00000000 I_sub_cg_cmp_rd_rs1_b24
0000e0d8 l       .data	00000000 I_sub_cg_cmp_rd_rs1_b24_str
00003814 l       .text.rvtest	00000000 I_sub_cg_cmp_rd_rs1_b25
0000e10c l       .data	00000000 I_sub_cg_cmp_rd_rs1_b25_str
00003840 l       .text.rvtest	00000000 I_sub_cg_cmp_rd_rs1_b26
0000e140 l       .data	00000000 I_sub_cg_cmp_rd_rs1_b26_str
0000386c l       .text.rvtest	00000000 I_sub_cg_cmp_rd_rs1_b27
0000e174 l       .data	00000000 I_sub_cg_cmp_rd_rs1_b27_str
00003898 l       .text.rvtest	00000000 I_sub_cg_cmp_rd_rs1_b28
0000e1a8 l       .data	00000000 I_sub_cg_cmp_rd_rs1_b28_str
000038c8 l       .text.rvtest	00000000 I_sub_cg_cmp_rd_rs1_b29
0000e1dc l       .data	00000000 I_sub_cg_cmp_rd_rs1_b29_str
000038f4 l       .text.rvtest	00000000 I_sub_cg_cmp_rd_rs1_b30
0000e210 l       .data	00000000 I_sub_cg_cmp_rd_rs1_b30_str
00003920 l       .text.rvtest	00000000 I_sub_cg_cmp_rd_rs1_b31
0000e244 l       .data	00000000 I_sub_cg_cmp_rd_rs1_b31_str
0000394c l       .text.rvtest	00000000 I_sub_cg_cmp_rd_rs2_b0
0000e278 l       .data	00000000 I_sub_cg_cmp_rd_rs2_b0_str
00003978 l       .text.rvtest	00000000 I_sub_cg_cmp_rd_rs2_b1
0000e2ab l       .data	00000000 I_sub_cg_cmp_rd_rs2_b1_str
000039a4 l       .text.rvtest	00000000 I_sub_cg_cmp_rd_rs2_b2
0000e2de l       .data	00000000 I_sub_cg_cmp_rd_rs2_b2_str
000039d0 l       .text.rvtest	00000000 I_sub_cg_cmp_rd_rs2_b3
0000e311 l       .data	00000000 I_sub_cg_cmp_rd_rs2_b3_str
00003a04 l       .text.rvtest	00000000 I_sub_cg_cmp_rd_rs2_b4
0000e344 l       .data	00000000 I_sub_cg_cmp_rd_rs2_b4_str
00003a30 l       .text.rvtest	00000000 I_sub_cg_cmp_rd_rs2_b5
0000e377 l       .data	00000000 I_sub_cg_cmp_rd_rs2_b5_str
00003a60 l       .text.rvtest	00000000 I_sub_cg_cmp_rd_rs2_b6
0000e3aa l       .data	00000000 I_sub_cg_cmp_rd_rs2_b6_str
00003a94 l       .text.rvtest	00000000 I_sub_cg_cmp_rd_rs2_b7
0000e3dd l       .data	00000000 I_sub_cg_cmp_rd_rs2_b7_str
00003ac0 l       .text.rvtest	00000000 I_sub_cg_cmp_rd_rs2_b8
0000e410 l       .data	00000000 I_sub_cg_cmp_rd_rs2_b8_str
00003aec l       .text.rvtest	00000000 I_sub_cg_cmp_rd_rs2_b9
0000e443 l       .data	00000000 I_sub_cg_cmp_rd_rs2_b9_str
00003b18 l       .text.rvtest	00000000 I_sub_cg_cmp_rd_rs2_b10
0000e476 l       .data	00000000 I_sub_cg_cmp_rd_rs2_b10_str
00003b44 l       .text.rvtest	00000000 I_sub_cg_cmp_rd_rs2_b11
0000e4aa l       .data	00000000 I_sub_cg_cmp_rd_rs2_b11_str
00003b70 l       .text.rvtest	00000000 I_sub_cg_cmp_rd_rs2_b12
0000e4de l       .data	00000000 I_sub_cg_cmp_rd_rs2_b12_str
00003ba4 l       .text.rvtest	00000000 I_sub_cg_cmp_rd_rs2_b13
0000e512 l       .data	00000000 I_sub_cg_cmp_rd_rs2_b13_str
00003bd0 l       .text.rvtest	00000000 I_sub_cg_cmp_rd_rs2_b14
0000e546 l       .data	00000000 I_sub_cg_cmp_rd_rs2_b14_str
00003bfc l       .text.rvtest	00000000 I_sub_cg_cmp_rd_rs2_b15
0000e57a l       .data	00000000 I_sub_cg_cmp_rd_rs2_b15_str
00003c2c l       .text.rvtest	00000000 I_sub_cg_cmp_rd_rs2_b16
0000e5ae l       .data	00000000 I_sub_cg_cmp_rd_rs2_b16_str
00003c58 l       .text.rvtest	00000000 I_sub_cg_cmp_rd_rs2_b17
0000e5e2 l       .data	00000000 I_sub_cg_cmp_rd_rs2_b17_str
00003c84 l       .text.rvtest	00000000 I_sub_cg_cmp_rd_rs2_b18
0000e616 l       .data	00000000 I_sub_cg_cmp_rd_rs2_b18_str
00003cb0 l       .text.rvtest	00000000 I_sub_cg_cmp_rd_rs2_b19
0000e64a l       .data	00000000 I_sub_cg_cmp_rd_rs2_b19_str
00003cdc l       .text.rvtest	00000000 I_sub_cg_cmp_rd_rs2_b20
0000e67e l       .data	00000000 I_sub_cg_cmp_rd_rs2_b20_str
00003d0c l       .text.rvtest	00000000 I_sub_cg_cmp_rd_rs2_b21
0000e6b2 l       .data	00000000 I_sub_cg_cmp_rd_rs2_b21_str
00003d38 l       .text.rvtest	00000000 I_sub_cg_cmp_rd_rs2_b22
0000e6e6 l       .data	00000000 I_sub_cg_cmp_rd_rs2_b22_str
00003d64 l       .text.rvtest	00000000 I_sub_cg_cmp_rd_rs2_b23
0000e71a l       .data	00000000 I_sub_cg_cmp_rd_rs2_b23_str
00003d90 l       .text.rvtest	00000000 I_sub_cg_cmp_rd_rs2_b24
0000e74e l       .data	00000000 I_sub_cg_cmp_rd_rs2_b24_str
00003dbc l       .text.rvtest	00000000 I_sub_cg_cmp_rd_rs2_b25
0000e782 l       .data	00000000 I_sub_cg_cmp_rd_rs2_b25_str
00003de8 l       .text.rvtest	00000000 I_sub_cg_cmp_rd_rs2_b26
0000e7b6 l       .data	00000000 I_sub_cg_cmp_rd_rs2_b26_str
00003e18 l       .text.rvtest	00000000 I_sub_cg_cmp_rd_rs2_b27
0000e7ea l       .data	00000000 I_sub_cg_cmp_rd_rs2_b27_str
00003e48 l       .text.rvtest	00000000 I_sub_cg_cmp_rd_rs2_b28
0000e81e l       .data	00000000 I_sub_cg_cmp_rd_rs2_b28_str
00003e74 l       .text.rvtest	00000000 I_sub_cg_cmp_rd_rs2_b29
0000e852 l       .data	00000000 I_sub_cg_cmp_rd_rs2_b29_str
00003ea0 l       .text.rvtest	00000000 I_sub_cg_cmp_rd_rs2_b30
0000e886 l       .data	00000000 I_sub_cg_cmp_rd_rs2_b30_str
00003ecc l       .text.rvtest	00000000 I_sub_cg_cmp_rd_rs2_b31
0000e8ba l       .data	00000000 I_sub_cg_cmp_rd_rs2_b31_str
00003ef8 l       .text.rvtest	00000000 I_sub_cg_cmp_rd_rs1_rs2_b0
0000e8ee l       .data	00000000 I_sub_cg_cmp_rd_rs1_rs2_b0_str
00003f24 l       .text.rvtest	00000000 I_sub_cg_cmp_rd_rs1_rs2_b1
0000e925 l       .data	00000000 I_sub_cg_cmp_rd_rs1_rs2_b1_str
00003f50 l       .text.rvtest	00000000 I_sub_cg_cmp_rd_rs1_rs2_b2
0000e95c l       .data	00000000 I_sub_cg_cmp_rd_rs1_rs2_b2_str
00003f7c l       .text.rvtest	00000000 I_sub_cg_cmp_rd_rs1_rs2_b3
0000e993 l       .data	00000000 I_sub_cg_cmp_rd_rs1_rs2_b3_str
00003fb0 l       .text.rvtest	00000000 I_sub_cg_cmp_rd_rs1_rs2_b4
0000e9ca l       .data	00000000 I_sub_cg_cmp_rd_rs1_rs2_b4_str
00003fdc l       .text.rvtest	00000000 I_sub_cg_cmp_rd_rs1_rs2_b5
0000ea01 l       .data	00000000 I_sub_cg_cmp_rd_rs1_rs2_b5_str
00004008 l       .text.rvtest	00000000 I_sub_cg_cmp_rd_rs1_rs2_b6
0000ea38 l       .data	00000000 I_sub_cg_cmp_rd_rs1_rs2_b6_str
00004034 l       .text.rvtest	00000000 I_sub_cg_cmp_rd_rs1_rs2_b7
0000ea6f l       .data	00000000 I_sub_cg_cmp_rd_rs1_rs2_b7_str
00004060 l       .text.rvtest	00000000 I_sub_cg_cmp_rd_rs1_rs2_b8
0000eaa6 l       .data	00000000 I_sub_cg_cmp_rd_rs1_rs2_b8_str
0000408c l       .text.rvtest	00000000 I_sub_cg_cmp_rd_rs1_rs2_b9
0000eadd l       .data	00000000 I_sub_cg_cmp_rd_rs1_rs2_b9_str
000040b8 l       .text.rvtest	00000000 I_sub_cg_cmp_rd_rs1_rs2_b10
0000eb14 l       .data	00000000 I_sub_cg_cmp_rd_rs1_rs2_b10_str
000040e4 l       .text.rvtest	00000000 I_sub_cg_cmp_rd_rs1_rs2_b11
0000eb4c l       .data	00000000 I_sub_cg_cmp_rd_rs1_rs2_b11_str
00004110 l       .text.rvtest	00000000 I_sub_cg_cmp_rd_rs1_rs2_b12
0000eb84 l       .data	00000000 I_sub_cg_cmp_rd_rs1_rs2_b12_str
00004144 l       .text.rvtest	00000000 I_sub_cg_cmp_rd_rs1_rs2_b13
0000ebbc l       .data	00000000 I_sub_cg_cmp_rd_rs1_rs2_b13_str
00004170 l       .text.rvtest	00000000 I_sub_cg_cmp_rd_rs1_rs2_b14
0000ebf4 l       .data	00000000 I_sub_cg_cmp_rd_rs1_rs2_b14_str
0000419c l       .text.rvtest	00000000 I_sub_cg_cmp_rd_rs1_rs2_b15
0000ec2c l       .data	00000000 I_sub_cg_cmp_rd_rs1_rs2_b15_str
000041c8 l       .text.rvtest	00000000 I_sub_cg_cmp_rd_rs1_rs2_b16
0000ec64 l       .data	00000000 I_sub_cg_cmp_rd_rs1_rs2_b16_str
000041f4 l       .text.rvtest	00000000 I_sub_cg_cmp_rd_rs1_rs2_b17
0000ec9c l       .data	00000000 I_sub_cg_cmp_rd_rs1_rs2_b17_str
00004220 l       .text.rvtest	00000000 I_sub_cg_cmp_rd_rs1_rs2_b18
0000ecd4 l       .data	00000000 I_sub_cg_cmp_rd_rs1_rs2_b18_str
0000424c l       .text.rvtest	00000000 I_sub_cg_cmp_rd_rs1_rs2_b19
0000ed0c l       .data	00000000 I_sub_cg_cmp_rd_rs1_rs2_b19_str
00004278 l       .text.rvtest	00000000 I_sub_cg_cmp_rd_rs1_rs2_b20
0000ed44 l       .data	00000000 I_sub_cg_cmp_rd_rs1_rs2_b20_str
000042a4 l       .text.rvtest	00000000 I_sub_cg_cmp_rd_rs1_rs2_b21
0000ed7c l       .data	00000000 I_sub_cg_cmp_rd_rs1_rs2_b21_str
000042d0 l       .text.rvtest	00000000 I_sub_cg_cmp_rd_rs1_rs2_b22
0000edb4 l       .data	00000000 I_sub_cg_cmp_rd_rs1_rs2_b22_str
00004300 l       .text.rvtest	00000000 I_sub_cg_cmp_rd_rs1_rs2_b23
0000edec l       .data	00000000 I_sub_cg_cmp_rd_rs1_rs2_b23_str
0000432c l       .text.rvtest	00000000 I_sub_cg_cmp_rd_rs1_rs2_b24
0000ee24 l       .data	00000000 I_sub_cg_cmp_rd_rs1_rs2_b24_str
00004358 l       .text.rvtest	00000000 I_sub_cg_cmp_rd_rs1_rs2_b25
0000ee5c l       .data	00000000 I_sub_cg_cmp_rd_rs1_rs2_b25_str
00004388 l       .text.rvtest	00000000 I_sub_cg_cmp_rd_rs1_rs2_b26
0000ee94 l       .data	00000000 I_sub_cg_cmp_rd_rs1_rs2_b26_str
000043b4 l       .text.rvtest	00000000 I_sub_cg_cmp_rd_rs1_rs2_b27
0000eecc l       .data	00000000 I_sub_cg_cmp_rd_rs1_rs2_b27_str
000043e0 l       .text.rvtest	00000000 I_sub_cg_cmp_rd_rs1_rs2_b28
0000ef04 l       .data	00000000 I_sub_cg_cmp_rd_rs1_rs2_b28_str
0000440c l       .text.rvtest	00000000 I_sub_cg_cmp_rd_rs1_rs2_b29
0000ef3c l       .data	00000000 I_sub_cg_cmp_rd_rs1_rs2_b29_str
00004438 l       .text.rvtest	00000000 I_sub_cg_cmp_rd_rs1_rs2_b30
0000ef74 l       .data	00000000 I_sub_cg_cmp_rd_rs1_rs2_b30_str
00004464 l       .text.rvtest	00000000 I_sub_cg_cmp_rd_rs1_rs2_b31
0000efac l       .data	00000000 I_sub_cg_cmp_rd_rs1_rs2_b31_str
00004484 l       .text.rvtest	00000000 exit_cleanup
0000f654 l       .data	00000000 successstr
00020204 l       .text.rvmodel	00000000 rvmodel_io_write_str
00020208 l       .text.rvmodel	00000000 rvmodel_halt_pass
000044d0 l       .text.rvtest	00000000 abort_test
6f5ca309 l       *ABS*	00000000 immx
6f5ca309 l       *ABS*	00000000 absimm
00000000 l       *ABS*	00000000 cry
00000309 l       *ABS*	00000000 imm12
0000eff0 l       .data	00000000 begin_failure_scratch
000045a0 l       .text.rvtest	00000000 failedtest_saveregs
00004544 l       .text.rvtest	00000000 failedtest_trap_x7_x9
0000f160 l       .data	00000000 saved_mcause
0000f168 l       .data	00000000 saved_mtval
0000f170 l       .data	00000000 saved_mstatus
00004610 l       .text.rvtest	00000000 failedtest_saveresults
0000eff0 l       .data	00000000 failure_type
0000468c l       .text.rvtest	00000000 failedtest_saveresults_trap
00004620 l       .text.rvtest	00000000 failedtest_saveresults_int
00004a60 l       .text.rvtest	00000000 failedtest_saveresults_common
0000f148 l       .data	00000000 trap_diag_fail_str_ptr
0000f81a l       .data	00000000 trap_sig_offset_mismatch
00004940 l       .text.rvtest	00000000 trap_diag_offset_mismatch
0000f120 l       .data	00000000 trap_diag_subtype
0000f87e l       .data	00000000 sv_Mvect_str
000049c0 l       .text.rvtest	00000000 trap_diag_field_identified
0000f980 l       .data	00000000 sv_Mcause_str
0000fa7b l       .data	00000000 sv_Mepc_str
0000fb6e l       .data	00000000 sv_Mtval_str
0000fce1 l       .data	00000000 sv_Mip_str
0000fc65 l       .data	00000000 sv_Mtval2_str
0000fca3 l       .data	00000000 sv_Mtinst_str
0000f8be l       .data	00000000 sv_Svect_str
0000f9be l       .data	00000000 sv_Scause_str
0000fab7 l       .data	00000000 sv_Sepc_str
0000fbab l       .data	00000000 sv_Stval_str
0000fd1c l       .data	00000000 sv_Sip_str
0000f8fe l       .data	00000000 sv_Hvect_str
0000f9fc l       .data	00000000 sv_Hcause_str
0000faf3 l       .data	00000000 sv_Hepc_str
0000fbe8 l       .data	00000000 sv_Htval_str
0000fd57 l       .data	00000000 sv_Hip_str
0000f93f l       .data	00000000 sv_Vvect_str
0000fa3b l       .data	00000000 sv_Vcause_str
0000fb30 l       .data	00000000 sv_Vepc_str
0000fc26 l       .data	00000000 sv_Vtval_str
0000fd93 l       .data	00000000 sv_Vip_str
0000fdd0 l       .data	00000000 Mclr_Mext_int_str
0000fe1f l       .data	00000000 Mclr_Sext_int_str
0000ff1a l       .data	00000000 Sclr_Sext_int_str
00010016 l       .data	00000000 Hclr_Sext_int_str
00004a50 l       .text.rvtest	00000000 trap_diag_generic_report
0000f138 l       .data	00000000 trap_diag_actual_offset
0000f140 l       .data	00000000 trap_diag_expected_offset
0000f124 l       .data	00000000 trap_diag_mode
0000f128 l       .data	00000000 trap_diag_actual_value
0000f130 l       .data	00000000 trap_diag_expected_value
00004a90 l       .text.rvtest	00000000 failedtest_report
00004a90 l       .text.rvtest	00000000 print_failstr
0000f68a l       .data	00000000 failstr
00004ac8 l       .text.rvtest	00000000 print_testnamestr
0000f71d l       .data	00000000 testnamestr
00004b08 l       .text.rvtest	00000000 print_failure_test_name_str
0000f110 l       .data	00000000 failure_string_ptr
00004b18 l       .text.rvtest	00000000 print_newline_str
0000f72f l       .data	00000000 newlinestr
00004f4c l       .text.rvtest	00000000 failedtest_report_trap_detailed
0000f731 l       .data	00000000 inststr
0000f0f0 l       .data	00000000 failing_instruction
00005e98 l       .text.rvtest	00000000 failedtest_hex_to_str
0000f178 l       .data	00000000 ascii_buffer
0000f745 l       .data	00000000 addrstr
0000f0f8 l       .data	00000000 failing_addr
000101c2 l       .data	00000000 regstr
00004cf8 l       .text.rvtest	00000000 failedtest_report_not_intreg
0000f0f4 l       .data	00000000 failing_reg
00005f14 l       .text.rvtest	00000000 failedtest_dec_to_str
00004dd4 l       .text.rvtest	00000000 failedtest_report_print_regstr
00004d4c l       .text.rvtest	00000000 failedtest_report_fpreg
00004d98 l       .text.rvtest	00000000 failedtest_report_vecreg
00010222 l       .data	00000000 fflagsstr
00004e08 l       .text.rvtest	00000000 failedtest_report_after_reg
000101d3 l       .data	00000000 badvalstr
00004e6c l       .text.rvtest	00000000 failedtest_report_badval_not_fp
0000f100 l       .data	00000000 failing_value
00004e7c l       .text.rvtest	00000000 failedtest_report_badval_done
000101ea l       .data	00000000 expvalstr
00004f0c l       .text.rvtest	00000000 failedtest_report_expval_not_fp
0000f108 l       .data	00000000 expected_value
00004f1c l       .text.rvtest	00000000 failedtest_report_expval_done
00005c44 l       .text.rvtest	00000000 failedtest_report_end
0001024e l       .data	00000000 trap_diag_header_str
0001027a l       .data	00000000 trap_diag_origstr_label
00005020 l       .text.rvtest	00000000 trap_report_offset_mismatch
00005ad0 l       .text.rvtest	00000000 trap_report_generic
00005394 l       .text.rvtest	00000000 trap_report_field_mismatch
0001028a l       .data	00000000 trap_diag_count_mismatch_str
000102eb l       .data	00000000 trap_diag_expected_offset_str
00010312 l       .data	00000000 trap_diag_actual_offset_str
00005274 l       .text.rvtest	00000000 trap_report_missing_traps
0000515c l       .text.rvtest	00000000 trap_report_extra_traps
00010339 l       .data	00000000 trap_diag_extra_traps_str
000103be l       .data	00000000 trap_diag_extra_bytes_str
000103e9 l       .data	00000000 trap_diag_extra_hint_str
00005c90 l       .text.rvtest	00000000 failedtest_print_csr_context
00010373 l       .data	00000000 trap_diag_missing_traps_str
000104d1 l       .data	00000000 trap_diag_missing_hint_str
000105b8 l       .data	00000000 trap_diag_handler_mode_str
00005424 l       .text.rvtest	00000000 trap_mode_m
00005464 l       .text.rvtest	00000000 trap_mode_s
000054a4 l       .text.rvtest	00000000 trap_mode_h
000054e4 l       .text.rvtest	00000000 trap_mode_v
000105f4 l       .data	00000000 trap_diag_mode_unknown_str
00005520 l       .text.rvtest	00000000 trap_mode_print
000105d2 l       .data	00000000 trap_diag_mode_m_str
000105da l       .data	00000000 trap_diag_mode_s_str
000105e2 l       .data	00000000 trap_diag_mode_hs_str
000105eb l       .data	00000000 trap_diag_mode_vs_str
000105fd l       .data	00000000 trap_diag_field_str
000055e4 l       .text.rvtest	00000000 trap_field_vect
00005624 l       .text.rvtest	00000000 trap_field_cause
00005664 l       .text.rvtest	00000000 trap_field_epc
000056a4 l       .text.rvtest	00000000 trap_field_tval
000056e4 l       .text.rvtest	00000000 trap_field_ip
00005724 l       .text.rvtest	00000000 trap_field_tval2
00005764 l       .text.rvtest	00000000 trap_field_tinst
000057a4 l       .text.rvtest	00000000 trap_field_intid
00010754 l       .data	00000000 trap_diag_field_unknown_str
000057e0 l       .text.rvtest	00000000 trap_field_print
00010617 l       .data	00000000 trap_diag_field_vect_str
00010648 l       .data	00000000 trap_diag_field_cause_str
00010668 l       .data	00000000 trap_diag_field_epc_str
00010686 l       .data	00000000 trap_diag_field_tval_str
000106a5 l       .data	00000000 trap_diag_field_ip_str
000106cd l       .data	00000000 trap_diag_field_tval2_str
000106f9 l       .data	00000000 trap_diag_field_tinst_str
00010725 l       .data	00000000 trap_diag_field_intid_str
00010763 l       .data	00000000 trap_diag_expected_str
0001077a l       .data	00000000 trap_diag_actual_str
0000597c l       .text.rvtest	00000000 trap_field_not_cause
00010791 l       .data	00000000 trap_diag_expected_cause_name_str
00005bb4 l       .text.rvtest	00000000 trap_cause_to_str
000107a8 l       .data	00000000 trap_diag_actual_cause_name_str
0000597c l       .text.rvtest	00000000 trap_field_not_epc
0001081e l       .data	00000000 trap_diag_hint_vect_str
000108f4 l       .data	00000000 trap_diag_hint_cause_str
000109e7 l       .data	00000000 trap_diag_hint_epc_str
00010ae2 l       .data	00000000 trap_diag_hint_tval_str
00010bc9 l       .data	00000000 trap_diag_hint_ip_str
000107d6 l       .data	00000000 trap_diag_generic_str
0000f158 l       .data	00000000 saved_mepc
0000f7b9 l       .data	00000000 xepcinstrstr
00005bd8 l       .text.rvtest	00000000 trap_cause_interrupt
00005bb8 l       .text.rvtest	00000000 trap_cause_exception
00005c04 l       .text.rvtest	00000000 trap_cause_unknown
0000f1a0 l       .data	00000000 trap_excpt_name_tbl
0000f200 l       .data	00000000 trap_int_name_tbl
0000f63e l       .data	00000000 trap_cause_unknown_str
00010201 l       .data	00000000 endstr
00005c88 l       .text.rvtest	00000000 failedtest_terminate
00020214 l       .text.rvmodel	00000000 rvmodel_halt_fail
0000f150 l       .data	00000000 csr_context_ret_addr
0000f7da l       .data	00000000 mepcstr
0000f7ea l       .data	00000000 mcausestr
0000f7fa l       .data	00000000 mtvalstr
0000f80a l       .data	00000000 mstatusstr
00005ed8 l       .text.rvtest	00000000 failedtest_hex_to_str_loop
00005ef4 l       .text.rvtest	00000000 failedtest_hex_to_str_digit
00005ef8 l       .text.rvtest	00000000 failedtest_hex_to_str_write
00020000 l       .text.rvmodel	00000000 rvtest_boot_to_mmode
00020000 l       .text.rvmodel	00000000 rvtest_init_regs
00010cb0 l       .data	00000000 signature_base
000201a0 l       .text.rvmodel	00000000 canary_check
0001022a l       .data	00000000 canary_mismatch
00008000 l       .data	00000000 scratch
0000f1a0 l       .data	00000000 end_failure_scratch
0000f240 l       .data	00000000 trap_excpt_name_0
0000f260 l       .data	00000000 trap_excpt_name_1
0000f27a l       .data	00000000 trap_excpt_name_2
0000f28f l       .data	00000000 trap_excpt_name_3
0000f29b l       .data	00000000 trap_excpt_name_4
0000f2b4 l       .data	00000000 trap_excpt_name_5
0000f2c7 l       .data	00000000 trap_excpt_name_6
0000f2e5 l       .data	00000000 trap_excpt_name_7
0000f2fd l       .data	00000000 trap_excpt_name_8
0000f31b l       .data	00000000 trap_excpt_name_9
0000f339 l       .data	00000000 trap_excpt_name_10
0000f358 l       .data	00000000 trap_excpt_name_11
0000f376 l       .data	00000000 trap_excpt_name_12
0000f38e l       .data	00000000 trap_excpt_name_13
0000f39f l       .data	00000000 trap_excpt_name_14
0000f3ae l       .data	00000000 trap_excpt_name_15
0000f3c4 l       .data	00000000 trap_excpt_name_16
0000f3d1 l       .data	00000000 trap_excpt_name_17
0000f3e0 l       .data	00000000 trap_excpt_name_18
0000f3f0 l       .data	00000000 trap_excpt_name_19
0000f400 l       .data	00000000 trap_excpt_name_20
0000f41e l       .data	00000000 trap_excpt_name_21
0000f435 l       .data	00000000 trap_excpt_name_22
0000f44a l       .data	00000000 trap_excpt_name_23
0000f466 l       .data	00000000 trap_int_name_0
0000f47e l       .data	00000000 trap_int_name_1
0000f49d l       .data	00000000 trap_int_name_2
0000f4c4 l       .data	00000000 trap_int_name_3
0000f4e0 l       .data	00000000 trap_int_name_4
0000f4f8 l       .data	00000000 trap_int_name_5
0000f514 l       .data	00000000 trap_int_name_6
0000f538 l       .data	00000000 trap_int_name_7
0000f551 l       .data	00000000 trap_int_name_8
0000f569 l       .data	00000000 trap_int_name_9
0000f588 l       .data	00000000 trap_int_name_10
0000f5af l       .data	00000000 trap_int_name_11
0000f5cb l       .data	00000000 trap_int_name_12
0000f5f0 l       .data	00000000 trap_int_name_13
0000f60c l       .data	00000000 trap_int_name_14
0000f625 l       .data	00000000 trap_int_name_15
0000f6df l       .data	00000000 abortstr
0000f786 l       .data	00000000 xepcstr
0000fe71 l       .data	00000000 Mclr_Vext_int_str
0000fecb l       .data	00000000 Sclr_Mext_int_str
0000ff6c l       .data	00000000 Sclr_Vext_int_str
0000ffc6 l       .data	00000000 Hclr_Mext_int_str
00010069 l       .data	00000000 Hclr_Vext_int_str
000100c4 l       .data	00000000 Vclr_Mext_int_str
00010114 l       .data	00000000 Vclr_Sext_int_str
00010167 l       .data	00000000 Vclr_Vext_int_str
000107bf l       .data	00000000 trap_diag_curr_xepc_str
00011300 l       .data	00000000 trap_sigptr
0001fd70 g       .data	00000000 end_signature
0001fd70 g       .data	00000000 rvtest_sig_end
00000000 g       .text.init	00000000 rvtest_entry_point
00010cb0 g       .data	00000000 begin_signature
00004484 g       .text.rvtest	00000000 rvtest_code_end
00000040 g       .text.rvtest	00000000 rvtest_code_begin
00010cb0 g       .data	00000000 rvtest_sig_begin
00008110 g       .data	00000000 rvtest_data_begin
00010cae g       .data	00000000 rvtest_data_end
00004484 g       .text.rvtest	00000000 cleanup_epilogs
00021000 g       .text.rvmodel	00000000 _end



Disassembly of section .text.init:

00000000 <rvtest_entry_point>:

// Include framework macros
#include "riscv_arch_test.h"

// Set up test environment and declare main entry point
RVTEST_BEGIN
   0:	00020097          	auipc	x1,0x20
   4:	00008093          	addi	x1,x1,0 # 20000 <rvmodel_boot>
   8:	00000013          	addi	x0,x0,0
   c:	00000013          	addi	x0,x0,0
  10:	00000013          	addi	x0,x0,0
  14:	00000013          	addi	x0,x0,0
  18:	00000013          	addi	x0,x0,0
  1c:	00000013          	addi	x0,x0,0
  20:	000080e7          	jalr	x1,0(x1)
  24:	00000013          	addi	x0,x0,0
  28:	00000013          	addi	x0,x0,0
  2c:	00000013          	addi	x0,x0,0
  30:	00000013          	addi	x0,x0,0
  34:	00000013          	addi	x0,x0,0
  38:	00000013          	addi	x0,x0,0
  3c:	00000013          	addi	x0,x0,0

Disassembly of section .text.rvtest:

00000040 <rvtest_code_begin>:
/////////////////////////////////
// cp_rs1
/////////////////////////////////

# Testcase cp_rs1 (Test source rs1 = x0)
  RVTEST_TESTDATA_LOAD_INT(x3, x0) # load rs1: x0 = 0x625abdfa
      40:	0001a003          	lw	x0,0(x3)
      44:	00418193          	addi	x3,x3,4
  RVTEST_TESTDATA_LOAD_INT(x3, x28) # load rs2: x28 = 0xad56583f
      48:	0001ae03          	lw	x28,0(x3)
      4c:	00418193          	addi	x3,x3,4

00000050 <I_sub_cg_cp_rs1_b0>:
I_sub_cg_cp_rs1_b0:
  sub x31, x0, x28 # perform operation
      50:	41c00fb3          	sub	x31,x0,x28
  # Check if x31 contains the expected result. x2 is the signature ptr, x5 is the link ptr, x4 is a temp reg.
  RVTEST_SIGUPD(x2, x5, x4, x31, I_sub_cg_cp_rs1_b0, I_sub_cg_cp_rs1_b0_str)
      54:	00012203          	lw	x4,0(x2)
      58:	01f20863          	beq	x4,x31,68 <I_sub_cg_cp_rs1_b0+0x18>
      5c:	480042ef          	jal	x5,44dc <failedtest_x5_x4>
      60:	00000050          	.word	0x00000050
      64:	00008d50          	.word	0x00008d50
      68:	00410113          	addi	x2,x2,4

# Testcase cp_rs1 (Test source rs1 = x1)
  RVTEST_TESTDATA_LOAD_INT(x3, x1) # load rs1: x1 = 0xa3261797
      6c:	0001a083          	lw	x1,0(x3)
      70:	00418193          	addi	x3,x3,4
  RVTEST_TESTDATA_LOAD_INT(x3, x16) # load rs2: x16 = 0x1329fd5e
      74:	0001a803          	lw	x16,0(x3)
      78:	00418193          	addi	x3,x3,4

0000007c <I_sub_cg_cp_rs1_b1>:
I_sub_cg_cp_rs1_b1:
  sub x21, x1, x16 # perform operation
      7c:	41008ab3          	sub	x21,x1,x16
  # Check if x21 contains the expected result. x2 is the signature ptr, x5 is the link ptr, x4 is a temp reg.
  RVTEST_SIGUPD(x2, x5, x4, x21, I_sub_cg_cp_rs1_b1, I_sub_cg_cp_rs1_b1_str)
      80:	00012203          	lw	x4,0(x2)
      84:	01520863          	beq	x4,x21,94 <I_sub_cg_cp_rs1_b1+0x18>
      88:	454042ef          	jal	x5,44dc <failedtest_x5_x4>
      8c:	0000007c          	.word	0x0000007c
      90:	00008d7d          	.word	0x00008d7d
      94:	00410113          	addi	x2,x2,4

  mv x24, x2 # switch signature pointer register to avoid conflict with test
      98:	00010c13          	addi	x24,x2,0
# Testcase cp_rs1 (Test source rs1 = x2)
  RVTEST_TESTDATA_LOAD_INT(x3, x2) # load rs1: x2 = 0x64050eb9
      9c:	0001a103          	lw	x2,0(x3)
      a0:	00418193          	addi	x3,x3,4
  RVTEST_TESTDATA_LOAD_INT(x3, x12) # load rs2: x12 = 0xdc5dfa24
      a4:	0001a603          	lw	x12,0(x3)
      a8:	00418193          	addi	x3,x3,4

000000ac <I_sub_cg_cp_rs1_b2>:
I_sub_cg_cp_rs1_b2:
  sub x27, x2, x12 # perform operation
      ac:	40c10db3          	sub	x27,x2,x12
  # Check if x27 contains the expected result. x24 is the signature ptr, x5 is the link ptr, x4 is a temp reg.
  RVTEST_SIGUPD(x24, x5, x4, x27, I_sub_cg_cp_rs1_b2, I_sub_cg_cp_rs1_b2_str)
      b0:	000c2203          	lw	x4,0(x24)
      b4:	01b20863          	beq	x4,x27,c4 <I_sub_cg_cp_rs1_b2+0x18>
      b8:	424042ef          	jal	x5,44dc <failedtest_x5_x4>
      bc:	000000ac          	.word	0x000000ac
      c0:	00008daa          	.word	0x00008daa
      c4:	004c0c13          	addi	x24,x24,4

  mv x27, x3 # switch data pointer register to avoid conflict with test
      c8:	00018d93          	addi	x27,x3,0
# Testcase cp_rs1 (Test source rs1 = x3)
  RVTEST_TESTDATA_LOAD_INT(x27, x3) # load rs1: x3 = 0x501dd831
      cc:	000da183          	lw	x3,0(x27)
      d0:	004d8d93          	addi	x27,x27,4
  RVTEST_TESTDATA_LOAD_INT(x27, x9) # load rs2: x9 = 0xb612a486
      d4:	000da483          	lw	x9,0(x27)
      d8:	004d8d93          	addi	x27,x27,4

000000dc <I_sub_cg_cp_rs1_b3>:
I_sub_cg_cp_rs1_b3:
  sub x30, x3, x9 # perform operation
      dc:	40918f33          	sub	x30,x3,x9
  # Check if x30 contains the expected result. x24 is the signature ptr, x5 is the link ptr, x4 is a temp reg.
  RVTEST_SIGUPD(x24, x5, x4, x30, I_sub_cg_cp_rs1_b3, I_sub_cg_cp_rs1_b3_str)
      e0:	000c2203          	lw	x4,0(x24)
      e4:	01e20863          	beq	x4,x30,f4 <I_sub_cg_cp_rs1_b3+0x18>
      e8:	3f4042ef          	jal	x5,44dc <failedtest_x5_x4>
      ec:	000000dc          	.word	0x000000dc
      f0:	00008dd7          	.word	0x00008dd7
      f4:	004c0c13          	addi	x24,x24,4

  mv x13, x4 # switch temp register to avoid conflict with test
      f8:	00020693          	addi	x13,x4,0 # 0 <rvtest_entry_point>
  mv x14, x5 # switch link pointer register to avoid conflict with test
      fc:	00028713          	addi	x14,x5,0
# Testcase cp_rs1 (Test source rs1 = x4)
  RVTEST_TESTDATA_LOAD_INT(x27, x4) # load rs1: x4 = 0x9bfd6095
     100:	000da203          	lw	x4,0(x27)
     104:	004d8d93          	addi	x27,x27,4
  RVTEST_TESTDATA_LOAD_INT(x27, x10) # load rs2: x10 = 0x8e05331b
     108:	000da503          	lw	x10,0(x27)
     10c:	004d8d93          	addi	x27,x27,4

00000110 <I_sub_cg_cp_rs1_b4>:
I_sub_cg_cp_rs1_b4:
  sub x5, x4, x10 # perform operation
     110:	40a202b3          	sub	x5,x4,x10
  # Check if x5 contains the expected result. x24 is the signature ptr, x14 is the link ptr, x13 is a temp reg.
  RVTEST_SIGUPD(x24, x14, x13, x5, I_sub_cg_cp_rs1_b4, I_sub_cg_cp_rs1_b4_str)
     114:	000c2683          	lw	x13,0(x24)
     118:	00568863          	beq	x13,x5,128 <I_sub_cg_cp_rs1_b4+0x18>
     11c:	4000476f          	jal	x14,451c <failedtest_x14_x13>
     120:	00000110          	.word	0x00000110
     124:	00008e04          	.word	0x00008e04
     128:	004c0c13          	addi	x24,x24,4

# Testcase cp_rs1 (Test source rs1 = x5)
  RVTEST_TESTDATA_LOAD_INT(x27, x5) # load rs1: x5 = 0x3fb0fa12
     12c:	000da283          	lw	x5,0(x27)
     130:	004d8d93          	addi	x27,x27,4
  RVTEST_TESTDATA_LOAD_INT(x27, x21) # load rs2: x21 = 0x7c5408f2
     134:	000daa83          	lw	x21,0(x27)
     138:	004d8d93          	addi	x27,x27,4

0000013c <I_sub_cg_cp_rs1_b5>:
I_sub_cg_cp_rs1_b5:
  sub x9, x5, x21 # perform operation
     13c:	415284b3          	sub	x9,x5,x21
  # Check if x9 contains the expected result. x24 is the signature ptr, x14 is the link ptr, x13 is a temp reg.
  RVTEST_SIGUPD(x24, x14, x13, x9, I_sub_cg_cp_rs1_b5, I_sub_cg_cp_rs1_b5_str)
     140:	000c2683          	lw	x13,0(x24)
     144:	00968863          	beq	x13,x9,154 <I_sub_cg_cp_rs1_b5+0x18>
     148:	3d40476f          	jal	x14,451c <failedtest_x14_x13>
     14c:	0000013c          	.word	0x0000013c
     150:	00008e31          	.word	0x00008e31
     154:	004c0c13          	addi	x24,x24,4

# Testcase cp_rs1 (Test source rs1 = x6)
  RVTEST_TESTDATA_LOAD_INT(x27, x6) # load rs1: x6 = 0x7e8fcd03
     158:	000da303          	lw	x6,0(x27)
     15c:	004d8d93          	addi	x27,x27,4
  RVTEST_TESTDATA_LOAD_INT(x27, x2) # load rs2: x2 = 0x0602aba2
     160:	000da103          	lw	x2,0(x27)
     164:	004d8d93          	addi	x27,x27,4

00000168 <I_sub_cg_cp_rs1_b6>:
I_sub_cg_cp_rs1_b6:
  sub x5, x6, x2 # perform operation
     168:	402302b3          	sub	x5,x6,x2
  # Check if x5 contains the expected result. x24 is the signature ptr, x14 is the link ptr, x13 is a temp reg.
  RVTEST_SIGUPD(x24, x14, x13, x5, I_sub_cg_cp_rs1_b6, I_sub_cg_cp_rs1_b6_str)
     16c:	000c2683          	lw	x13,0(x24)
     170:	00568863          	beq	x13,x5,180 <I_sub_cg_cp_rs1_b6+0x18>
     174:	3a80476f          	jal	x14,451c <failedtest_x14_x13>
     178:	00000168          	.word	0x00000168
     17c:	00008e5e          	.word	0x00008e5e
     180:	004c0c13          	addi	x24,x24,4

# Testcase cp_rs1 (Test source rs1 = x7)
  RVTEST_TESTDATA_LOAD_INT(x27, x7) # load rs1: x7 = 0x93695800
     184:	000da383          	lw	x7,0(x27)
     188:	004d8d93          	addi	x27,x27,4
  RVTEST_TESTDATA_LOAD_INT(x27, x16) # load rs2: x16 = 0x99f018a4
     18c:	000da803          	lw	x16,0(x27)
     190:	004d8d93          	addi	x27,x27,4

00000194 <I_sub_cg_cp_rs1_b7>:
I_sub_cg_cp_rs1_b7:
  sub x23, x7, x16 # perform operation
     194:	41038bb3          	sub	x23,x7,x16
  # Check if x23 contains the expected result. x24 is the signature ptr, x14 is the link ptr, x13 is a temp reg.
  RVTEST_SIGUPD(x24, x14, x13, x23, I_sub_cg_cp_rs1_b7, I_sub_cg_cp_rs1_b7_str)
     198:	000c2683          	lw	x13,0(x24)
     19c:	01768863          	beq	x13,x23,1ac <I_sub_cg_cp_rs1_b7+0x18>
     1a0:	37c0476f          	jal	x14,451c <failedtest_x14_x13>
     1a4:	00000194          	.word	0x00000194
     1a8:	00008e8b          	.word	0x00008e8b
     1ac:	004c0c13          	addi	x24,x24,4

# Testcase cp_rs1 (Test source rs1 = x8)
  RVTEST_TESTDATA_LOAD_INT(x27, x8) # load rs1: x8 = 0x6a6e0bad
     1b0:	000da403          	lw	x8,0(x27)
     1b4:	004d8d93          	addi	x27,x27,4
  RVTEST_TESTDATA_LOAD_INT(x27, x31) # load rs2: x31 = 0xbf178292
     1b8:	000daf83          	lw	x31,0(x27)
     1bc:	004d8d93          	addi	x27,x27,4

000001c0 <I_sub_cg_cp_rs1_b8>:
I_sub_cg_cp_rs1_b8:
  sub x7, x8, x31 # perform operation
     1c0:	41f403b3          	sub	x7,x8,x31
  # Check if x7 contains the expected result. x24 is the signature ptr, x14 is the link ptr, x13 is a temp reg.
  RVTEST_SIGUPD(x24, x14, x13, x7, I_sub_cg_cp_rs1_b8, I_sub_cg_cp_rs1_b8_str)
     1c4:	000c2683          	lw	x13,0(x24)
     1c8:	00768863          	beq	x13,x7,1d8 <I_sub_cg_cp_rs1_b8+0x18>
     1cc:	3500476f          	jal	x14,451c <failedtest_x14_x13>
     1d0:	000001c0          	.word	0x000001c0
     1d4:	00008eb8          	.word	0x00008eb8
     1d8:	004c0c13          	addi	x24,x24,4

# Testcase cp_rs1 (Test source rs1 = x9)
  RVTEST_TESTDATA_LOAD_INT(x27, x9) # load rs1: x9 = 0xbd1f62e1
     1dc:	000da483          	lw	x9,0(x27)
     1e0:	004d8d93          	addi	x27,x27,4
  RVTEST_TESTDATA_LOAD_INT(x27, x1) # load rs2: x1 = 0xbc074215
     1e4:	000da083          	lw	x1,0(x27)
     1e8:	004d8d93          	addi	x27,x27,4

000001ec <I_sub_cg_cp_rs1_b9>:
I_sub_cg_cp_rs1_b9:
  sub x18, x9, x1 # perform operation
     1ec:	40148933          	sub	x18,x9,x1
  # Check if x18 contains the expected result. x24 is the signature ptr, x14 is the link ptr, x13 is a temp reg.
  RVTEST_SIGUPD(x24, x14, x13, x18, I_sub_cg_cp_rs1_b9, I_sub_cg_cp_rs1_b9_str)
     1f0:	000c2683          	lw	x13,0(x24)
     1f4:	01268863          	beq	x13,x18,204 <I_sub_cg_cp_rs1_b9+0x18>
     1f8:	3240476f          	jal	x14,451c <failedtest_x14_x13>
     1fc:	000001ec          	.word	0x000001ec
     200:	00008ee5          	.word	0x00008ee5
     204:	004c0c13          	addi	x24,x24,4

# Testcase cp_rs1 (Test source rs1 = x10)
  RVTEST_TESTDATA_LOAD_INT(x27, x10) # load rs1: x10 = 0xd5bc42b2
     208:	000da503          	lw	x10,0(x27)
     20c:	004d8d93          	addi	x27,x27,4
  RVTEST_TESTDATA_LOAD_INT(x27, x20) # load rs2: x20 = 0x6257bc19
     210:	000daa03          	lw	x20,0(x27)
     214:	004d8d93          	addi	x27,x27,4

00000218 <I_sub_cg_cp_rs1_b10>:
I_sub_cg_cp_rs1_b10:
  sub x18, x10, x20 # perform operation
     218:	41450933          	sub	x18,x10,x20
  # Check if x18 contains the expected result. x24 is the signature ptr, x14 is the link ptr, x13 is a temp reg.
  RVTEST_SIGUPD(x24, x14, x13, x18, I_sub_cg_cp_rs1_b10, I_sub_cg_cp_rs1_b10_str)
     21c:	000c2683          	lw	x13,0(x24)
     220:	01268863          	beq	x13,x18,230 <I_sub_cg_cp_rs1_b10+0x18>
     224:	2f80476f          	jal	x14,451c <failedtest_x14_x13>
     228:	00000218          	.word	0x00000218
     22c:	00008f13          	.word	0x00008f13
     230:	004c0c13          	addi	x24,x24,4

# Testcase cp_rs1 (Test source rs1 = x11)
  RVTEST_TESTDATA_LOAD_INT(x27, x11) # load rs1: x11 = 0x28035f58
     234:	000da583          	lw	x11,0(x27)
     238:	004d8d93          	addi	x27,x27,4
  RVTEST_TESTDATA_LOAD_INT(x27, x22) # load rs2: x22 = 0x02858110
     23c:	000dab03          	lw	x22,0(x27)
     240:	004d8d93          	addi	x27,x27,4

00000244 <I_sub_cg_cp_rs1_b11>:
I_sub_cg_cp_rs1_b11:
  sub x19, x11, x22 # perform operation
     244:	416589b3          	sub	x19,x11,x22
  # Check if x19 contains the expected result. x24 is the signature ptr, x14 is the link ptr, x13 is a temp reg.
  RVTEST_SIGUPD(x24, x14, x13, x19, I_sub_cg_cp_rs1_b11, I_sub_cg_cp_rs1_b11_str)
     248:	000c2683          	lw	x13,0(x24)
     24c:	01368863          	beq	x13,x19,25c <I_sub_cg_cp_rs1_b11+0x18>
     250:	2cc0476f          	jal	x14,451c <failedtest_x14_x13>
     254:	00000244          	.word	0x00000244
     258:	00008f42          	.word	0x00008f42
     25c:	004c0c13          	addi	x24,x24,4

# Testcase cp_rs1 (Test source rs1 = x12)
  RVTEST_TESTDATA_LOAD_INT(x27, x12) # load rs1: x12 = 0xbdbf3fbc
     260:	000da603          	lw	x12,0(x27)
     264:	004d8d93          	addi	x27,x27,4
  RVTEST_TESTDATA_LOAD_INT(x27, x20) # load rs2: x20 = 0xb79f277a
     268:	000daa03          	lw	x20,0(x27)
     26c:	004d8d93          	addi	x27,x27,4

00000270 <I_sub_cg_cp_rs1_b12>:
I_sub_cg_cp_rs1_b12:
  sub x30, x12, x20 # perform operation
     270:	41460f33          	sub	x30,x12,x20
  # Check if x30 contains the expected result. x24 is the signature ptr, x14 is the link ptr, x13 is a temp reg.
  RVTEST_SIGUPD(x24, x14, x13, x30, I_sub_cg_cp_rs1_b12, I_sub_cg_cp_rs1_b12_str)
     274:	000c2683          	lw	x13,0(x24)
     278:	01e68863          	beq	x13,x30,288 <I_sub_cg_cp_rs1_b12+0x18>
     27c:	2a00476f          	jal	x14,451c <failedtest_x14_x13>
     280:	00000270          	.word	0x00000270
     284:	00008f71          	.word	0x00008f71
     288:	004c0c13          	addi	x24,x24,4

  mv x4, x13 # switch temp register to avoid conflict with test
     28c:	00068213          	addi	x4,x13,0
  mv x5, x14 # switch link pointer register to avoid conflict with test
     290:	00070293          	addi	x5,x14,0
# Testcase cp_rs1 (Test source rs1 = x13)
  RVTEST_TESTDATA_LOAD_INT(x27, x13) # load rs1: x13 = 0xc9a716de
     294:	000da683          	lw	x13,0(x27)
     298:	004d8d93          	addi	x27,x27,4
  RVTEST_TESTDATA_LOAD_INT(x27, x7) # load rs2: x7 = 0x1b7a4cba
     29c:	000da383          	lw	x7,0(x27)
     2a0:	004d8d93          	addi	x27,x27,4

000002a4 <I_sub_cg_cp_rs1_b13>:
I_sub_cg_cp_rs1_b13:
  sub x23, x13, x7 # perform operation
     2a4:	40768bb3          	sub	x23,x13,x7
  # Check if x23 contains the expected result. x24 is the signature ptr, x5 is the link ptr, x4 is a temp reg.
  RVTEST_SIGUPD(x24, x5, x4, x23, I_sub_cg_cp_rs1_b13, I_sub_cg_cp_rs1_b13_str)
     2a8:	000c2203          	lw	x4,0(x24)
     2ac:	01720863          	beq	x4,x23,2bc <I_sub_cg_cp_rs1_b13+0x18>
     2b0:	22c042ef          	jal	x5,44dc <failedtest_x5_x4>
     2b4:	000002a4          	.word	0x000002a4
     2b8:	00008fa0          	.word	0x00008fa0
     2bc:	004c0c13          	addi	x24,x24,4

# Testcase cp_rs1 (Test source rs1 = x14)
  RVTEST_TESTDATA_LOAD_INT(x27, x14) # load rs1: x14 = 0xceb4e163
     2c0:	000da703          	lw	x14,0(x27)
     2c4:	004d8d93          	addi	x27,x27,4
  RVTEST_TESTDATA_LOAD_INT(x27, x29) # load rs2: x29 = 0x6b043c3d
     2c8:	000dae83          	lw	x29,0(x27)
     2cc:	004d8d93          	addi	x27,x27,4

000002d0 <I_sub_cg_cp_rs1_b14>:
I_sub_cg_cp_rs1_b14:
  sub x0, x14, x29 # perform operation
     2d0:	41d70033          	sub	x0,x14,x29
  # Check if x0 contains the expected result. x24 is the signature ptr, x5 is the link ptr, x4 is a temp reg.
  RVTEST_SIGUPD(x24, x5, x4, x0, I_sub_cg_cp_rs1_b14, I_sub_cg_cp_rs1_b14_str)
     2d4:	000c2203          	lw	x4,0(x24)
     2d8:	00020863          	beq	x4,x0,2e8 <I_sub_cg_cp_rs1_b14+0x18>
     2dc:	200042ef          	jal	x5,44dc <failedtest_x5_x4>
     2e0:	000002d0          	.word	0x000002d0
     2e4:	00008fcf          	.word	0x00008fcf
     2e8:	004c0c13          	addi	x24,x24,4

# Testcase cp_rs1 (Test source rs1 = x15)
  RVTEST_TESTDATA_LOAD_INT(x27, x15) # load rs1: x15 = 0xffb00acc
     2ec:	000da783          	lw	x15,0(x27)
     2f0:	004d8d93          	addi	x27,x27,4
  RVTEST_TESTDATA_LOAD_INT(x27, x28) # load rs2: x28 = 0x036cb930
     2f4:	000dae03          	lw	x28,0(x27)
     2f8:	004d8d93          	addi	x27,x27,4

000002fc <I_sub_cg_cp_rs1_b15>:
I_sub_cg_cp_rs1_b15:
  sub x2, x15, x28 # perform operation
     2fc:	41c78133          	sub	x2,x15,x28
  # Check if x2 contains the expected result. x24 is the signature ptr, x5 is the link ptr, x4 is a temp reg.
  RVTEST_SIGUPD(x24, x5, x4, x2, I_sub_cg_cp_rs1_b15, I_sub_cg_cp_rs1_b15_str)
     300:	000c2203          	lw	x4,0(x24)
     304:	00220863          	beq	x4,x2,314 <imm12+0xb>
     308:	1d4042ef          	jal	x5,44dc <failedtest_x5_x4>
     30c:	000002fc          	.word	0x000002fc
     310:	00008ffe          	.word	0x00008ffe
     314:	004c0c13          	addi	x24,x24,4

# Testcase cp_rs1 (Test source rs1 = x16)
  RVTEST_TESTDATA_LOAD_INT(x27, x16) # load rs1: x16 = 0xcbf35c7d
     318:	000da803          	lw	x16,0(x27)
     31c:	004d8d93          	addi	x27,x27,4
  RVTEST_TESTDATA_LOAD_INT(x27, x22) # load rs2: x22 = 0x5a67b7a4
     320:	000dab03          	lw	x22,0(x27)
     324:	004d8d93          	addi	x27,x27,4

00000328 <I_sub_cg_cp_rs1_b16>:
I_sub_cg_cp_rs1_b16:
  sub x29, x16, x22 # perform operation
     328:	41680eb3          	sub	x29,x16,x22
  # Check if x29 contains the expected result. x24 is the signature ptr, x5 is the link ptr, x4 is a temp reg.
  RVTEST_SIGUPD(x24, x5, x4, x29, I_sub_cg_cp_rs1_b16, I_sub_cg_cp_rs1_b16_str)
     32c:	000c2203          	lw	x4,0(x24)
     330:	01d20863          	beq	x4,x29,340 <I_sub_cg_cp_rs1_b16+0x18>
     334:	1a8042ef          	jal	x5,44dc <failedtest_x5_x4>
     338:	00000328          	.word	0x00000328
     33c:	0000902d          	.word	0x0000902d
     340:	004c0c13          	addi	x24,x24,4

# Testcase cp_rs1 (Test source rs1 = x17)
  RVTEST_TESTDATA_LOAD_INT(x27, x17) # load rs1: x17 = 0xe0a6c42a
     344:	000da883          	lw	x17,0(x27)
     348:	004d8d93          	addi	x27,x27,4
  RVTEST_TESTDATA_LOAD_INT(x27, x12) # load rs2: x12 = 0x84fc638a
     34c:	000da603          	lw	x12,0(x27)
     350:	004d8d93          	addi	x27,x27,4

00000354 <I_sub_cg_cp_rs1_b17>:
I_sub_cg_cp_rs1_b17:
  sub x20, x17, x12 # perform operation
     354:	40c88a33          	sub	x20,x17,x12
  # Check if x20 contains the expected result. x24 is the signature ptr, x5 is the link ptr, x4 is a temp reg.
  RVTEST_SIGUPD(x24, x5, x4, x20, I_sub_cg_cp_rs1_b17, I_sub_cg_cp_rs1_b17_str)
     358:	000c2203          	lw	x4,0(x24)
     35c:	01420863          	beq	x4,x20,36c <I_sub_cg_cp_rs1_b17+0x18>
     360:	17c042ef          	jal	x5,44dc <failedtest_x5_x4>
     364:	00000354          	.word	0x00000354
     368:	0000905c          	.word	0x0000905c
     36c:	004c0c13          	addi	x24,x24,4

# Testcase cp_rs1 (Test source rs1 = x18)
  RVTEST_TESTDATA_LOAD_INT(x27, x18) # load rs1: x18 = 0x7657bfaf
     370:	000da903          	lw	x18,0(x27)
     374:	004d8d93          	addi	x27,x27,4
  RVTEST_TESTDATA_LOAD_INT(x27, x3) # load rs2: x3 = 0xc0b3cd70
     378:	000da183          	lw	x3,0(x27)
     37c:	004d8d93          	addi	x27,x27,4

00000380 <I_sub_cg_cp_rs1_b18>:
I_sub_cg_cp_rs1_b18:
  sub x8, x18, x3 # perform operation
     380:	40390433          	sub	x8,x18,x3
  # Check if x8 contains the expected result. x24 is the signature ptr, x5 is the link ptr, x4 is a temp reg.
  RVTEST_SIGUPD(x24, x5, x4, x8, I_sub_cg_cp_rs1_b18, I_sub_cg_cp_rs1_b18_str)
     384:	000c2203          	lw	x4,0(x24)
     388:	00820863          	beq	x4,x8,398 <I_sub_cg_cp_rs1_b18+0x18>
     38c:	150042ef          	jal	x5,44dc <failedtest_x5_x4>
     390:	00000380          	.word	0x00000380
     394:	0000908b          	.word	0x0000908b
     398:	004c0c13          	addi	x24,x24,4

# Testcase cp_rs1 (Test source rs1 = x19)
  RVTEST_TESTDATA_LOAD_INT(x27, x19) # load rs1: x19 = 0xce0fb16f
     39c:	000da983          	lw	x19,0(x27)
     3a0:	004d8d93          	addi	x27,x27,4
  RVTEST_TESTDATA_LOAD_INT(x27, x9) # load rs2: x9 = 0x1c27ca40
     3a4:	000da483          	lw	x9,0(x27)
     3a8:	004d8d93          	addi	x27,x27,4

000003ac <I_sub_cg_cp_rs1_b19>:
I_sub_cg_cp_rs1_b19:
  sub x8, x19, x9 # perform operation
     3ac:	40998433          	sub	x8,x19,x9
  # Check if x8 contains the expected result. x24 is the signature ptr, x5 is the link ptr, x4 is a temp reg.
  RVTEST_SIGUPD(x24, x5, x4, x8, I_sub_cg_cp_rs1_b19, I_sub_cg_cp_rs1_b19_str)
     3b0:	000c2203          	lw	x4,0(x24)
     3b4:	00820863          	beq	x4,x8,3c4 <I_sub_cg_cp_rs1_b19+0x18>
     3b8:	124042ef          	jal	x5,44dc <failedtest_x5_x4>
     3bc:	000003ac          	.word	0x000003ac
     3c0:	000090ba          	.word	0x000090ba
     3c4:	004c0c13          	addi	x24,x24,4

# Testcase cp_rs1 (Test source rs1 = x20)
  RVTEST_TESTDATA_LOAD_INT(x27, x20) # load rs1: x20 = 0x8cbb85a2
     3c8:	000daa03          	lw	x20,0(x27)
     3cc:	004d8d93          	addi	x27,x27,4
  RVTEST_TESTDATA_LOAD_INT(x27, x13) # load rs2: x13 = 0xdb8e18c6
     3d0:	000da683          	lw	x13,0(x27)
     3d4:	004d8d93          	addi	x27,x27,4

000003d8 <I_sub_cg_cp_rs1_b20>:
I_sub_cg_cp_rs1_b20:
  sub x19, x20, x13 # perform operation
     3d8:	40da09b3          	sub	x19,x20,x13
  # Check if x19 contains the expected result. x24 is the signature ptr, x5 is the link ptr, x4 is a temp reg.
  RVTEST_SIGUPD(x24, x5, x4, x19, I_sub_cg_cp_rs1_b20, I_sub_cg_cp_rs1_b20_str)
     3dc:	000c2203          	lw	x4,0(x24)
     3e0:	01320863          	beq	x4,x19,3f0 <I_sub_cg_cp_rs1_b20+0x18>
     3e4:	0f8042ef          	jal	x5,44dc <failedtest_x5_x4>
     3e8:	000003d8          	.word	0x000003d8
     3ec:	000090e9          	.word	0x000090e9
     3f0:	004c0c13          	addi	x24,x24,4

# Testcase cp_rs1 (Test source rs1 = x21)
  RVTEST_TESTDATA_LOAD_INT(x27, x21) # load rs1: x21 = 0x7bfbe2d6
     3f4:	000daa83          	lw	x21,0(x27)
     3f8:	004d8d93          	addi	x27,x27,4
  RVTEST_TESTDATA_LOAD_INT(x27, x17) # load rs2: x17 = 0xe0e44daf
     3fc:	000da883          	lw	x17,0(x27)
     400:	004d8d93          	addi	x27,x27,4

00000404 <I_sub_cg_cp_rs1_b21>:
I_sub_cg_cp_rs1_b21:
  sub x22, x21, x17 # perform operation
     404:	411a8b33          	sub	x22,x21,x17
  # Check if x22 contains the expected result. x24 is the signature ptr, x5 is the link ptr, x4 is a temp reg.
  RVTEST_SIGUPD(x24, x5, x4, x22, I_sub_cg_cp_rs1_b21, I_sub_cg_cp_rs1_b21_str)
     408:	000c2203          	lw	x4,0(x24)
     40c:	01620863          	beq	x4,x22,41c <I_sub_cg_cp_rs1_b21+0x18>
     410:	0cc042ef          	jal	x5,44dc <failedtest_x5_x4>
     414:	00000404          	.word	0x00000404
     418:	00009118          	.word	0x00009118
     41c:	004c0c13          	addi	x24,x24,4

# Testcase cp_rs1 (Test source rs1 = x22)
  RVTEST_TESTDATA_LOAD_INT(x27, x22) # load rs1: x22 = 0x29ac8d41
     420:	000dab03          	lw	x22,0(x27)
     424:	004d8d93          	addi	x27,x27,4
  RVTEST_TESTDATA_LOAD_INT(x27, x20) # load rs2: x20 = 0x92a96c7a
     428:	000daa03          	lw	x20,0(x27)
     42c:	004d8d93          	addi	x27,x27,4

00000430 <I_sub_cg_cp_rs1_b22>:
I_sub_cg_cp_rs1_b22:
  sub x7, x22, x20 # perform operation
     430:	414b03b3          	sub	x7,x22,x20
  # Check if x7 contains the expected result. x24 is the signature ptr, x5 is the link ptr, x4 is a temp reg.
  RVTEST_SIGUPD(x24, x5, x4, x7, I_sub_cg_cp_rs1_b22, I_sub_cg_cp_rs1_b22_str)
     434:	000c2203          	lw	x4,0(x24)
     438:	00720863          	beq	x4,x7,448 <I_sub_cg_cp_rs1_b22+0x18>
     43c:	0a0042ef          	jal	x5,44dc <failedtest_x5_x4>
     440:	00000430          	.word	0x00000430
     444:	00009147          	.word	0x00009147
     448:	004c0c13          	addi	x24,x24,4

# Testcase cp_rs1 (Test source rs1 = x23)
  RVTEST_TESTDATA_LOAD_INT(x27, x23) # load rs1: x23 = 0xbaf4d8f3
     44c:	000dab83          	lw	x23,0(x27)
     450:	004d8d93          	addi	x27,x27,4
  RVTEST_TESTDATA_LOAD_INT(x27, x25) # load rs2: x25 = 0x0a502610
     454:	000dac83          	lw	x25,0(x27)
     458:	004d8d93          	addi	x27,x27,4

0000045c <I_sub_cg_cp_rs1_b23>:
I_sub_cg_cp_rs1_b23:
  sub x20, x23, x25 # perform operation
     45c:	419b8a33          	sub	x20,x23,x25
  # Check if x20 contains the expected result. x24 is the signature ptr, x5 is the link ptr, x4 is a temp reg.
  RVTEST_SIGUPD(x24, x5, x4, x20, I_sub_cg_cp_rs1_b23, I_sub_cg_cp_rs1_b23_str)
     460:	000c2203          	lw	x4,0(x24)
     464:	01420863          	beq	x4,x20,474 <I_sub_cg_cp_rs1_b23+0x18>
     468:	074042ef          	jal	x5,44dc <failedtest_x5_x4>
     46c:	0000045c          	.word	0x0000045c
     470:	00009176          	.word	0x00009176
     474:	004c0c13          	addi	x24,x24,4

  mv x26, x24 # switch signature pointer register to avoid conflict with test
     478:	000c0d13          	addi	x26,x24,0
# Testcase cp_rs1 (Test source rs1 = x24)
  RVTEST_TESTDATA_LOAD_INT(x27, x24) # load rs1: x24 = 0x7f822540
     47c:	000dac03          	lw	x24,0(x27)
     480:	004d8d93          	addi	x27,x27,4
  RVTEST_TESTDATA_LOAD_INT(x27, x23) # load rs2: x23 = 0x08002c32
     484:	000dab83          	lw	x23,0(x27)
     488:	004d8d93          	addi	x27,x27,4

0000048c <I_sub_cg_cp_rs1_b24>:
I_sub_cg_cp_rs1_b24:
  sub x3, x24, x23 # perform operation
     48c:	417c01b3          	sub	x3,x24,x23
  # Check if x3 contains the expected result. x26 is the signature ptr, x5 is the link ptr, x4 is a temp reg.
  RVTEST_SIGUPD(x26, x5, x4, x3, I_sub_cg_cp_rs1_b24, I_sub_cg_cp_rs1_b24_str)
     490:	000d2203          	lw	x4,0(x26)
     494:	00320863          	beq	x4,x3,4a4 <I_sub_cg_cp_rs1_b24+0x18>
     498:	044042ef          	jal	x5,44dc <failedtest_x5_x4>
     49c:	0000048c          	.word	0x0000048c
     4a0:	000091a5          	.word	0x000091a5
     4a4:	004d0d13          	addi	x26,x26,4

# Testcase cp_rs1 (Test source rs1 = x25)
  RVTEST_TESTDATA_LOAD_INT(x27, x25) # load rs1: x25 = 0x7170fbd5
     4a8:	000dac83          	lw	x25,0(x27)
     4ac:	004d8d93          	addi	x27,x27,4
  RVTEST_TESTDATA_LOAD_INT(x27, x13) # load rs2: x13 = 0xadfd16d5
     4b0:	000da683          	lw	x13,0(x27)
     4b4:	004d8d93          	addi	x27,x27,4

000004b8 <I_sub_cg_cp_rs1_b25>:
I_sub_cg_cp_rs1_b25:
  sub x3, x25, x13 # perform operation
     4b8:	40dc81b3          	sub	x3,x25,x13
  # Check if x3 contains the expected result. x26 is the signature ptr, x5 is the link ptr, x4 is a temp reg.
  RVTEST_SIGUPD(x26, x5, x4, x3, I_sub_cg_cp_rs1_b25, I_sub_cg_cp_rs1_b25_str)
     4bc:	000d2203          	lw	x4,0(x26)
     4c0:	00320863          	beq	x4,x3,4d0 <I_sub_cg_cp_rs1_b25+0x18>
     4c4:	018042ef          	jal	x5,44dc <failedtest_x5_x4>
     4c8:	000004b8          	.word	0x000004b8
     4cc:	000091d4          	.word	0x000091d4
     4d0:	004d0d13          	addi	x26,x26,4

  mv x29, x26 # switch signature pointer register to avoid conflict with test
     4d4:	000d0e93          	addi	x29,x26,0
# Testcase cp_rs1 (Test source rs1 = x26)
  RVTEST_TESTDATA_LOAD_INT(x27, x26) # load rs1: x26 = 0x85103366
     4d8:	000dad03          	lw	x26,0(x27)
     4dc:	004d8d93          	addi	x27,x27,4
  RVTEST_TESTDATA_LOAD_INT(x27, x15) # load rs2: x15 = 0x90a38481
     4e0:	000da783          	lw	x15,0(x27)
     4e4:	004d8d93          	addi	x27,x27,4

000004e8 <I_sub_cg_cp_rs1_b26>:
I_sub_cg_cp_rs1_b26:
  sub x30, x26, x15 # perform operation
     4e8:	40fd0f33          	sub	x30,x26,x15
  # Check if x30 contains the expected result. x29 is the signature ptr, x5 is the link ptr, x4 is a temp reg.
  RVTEST_SIGUPD(x29, x5, x4, x30, I_sub_cg_cp_rs1_b26, I_sub_cg_cp_rs1_b26_str)
     4ec:	000ea203          	lw	x4,0(x29)
     4f0:	01e20863          	beq	x4,x30,500 <I_sub_cg_cp_rs1_b26+0x18>
     4f4:	7e9032ef          	jal	x5,44dc <failedtest_x5_x4>
     4f8:	000004e8          	.word	0x000004e8
     4fc:	00009203          	.word	0x00009203
     500:	004e8e93          	addi	x29,x29,4

  mv x31, x27 # switch data pointer register to avoid conflict with test
     504:	000d8f93          	addi	x31,x27,0
# Testcase cp_rs1 (Test source rs1 = x27)
  RVTEST_TESTDATA_LOAD_INT(x31, x27) # load rs1: x27 = 0x220f4b30
     508:	000fad83          	lw	x27,0(x31)
     50c:	004f8f93          	addi	x31,x31,4
  RVTEST_TESTDATA_LOAD_INT(x31, x25) # load rs2: x25 = 0xd400feab
     510:	000fac83          	lw	x25,0(x31)
     514:	004f8f93          	addi	x31,x31,4

00000518 <I_sub_cg_cp_rs1_b27>:
I_sub_cg_cp_rs1_b27:
  sub x30, x27, x25 # perform operation
     518:	419d8f33          	sub	x30,x27,x25
  # Check if x30 contains the expected result. x29 is the signature ptr, x5 is the link ptr, x4 is a temp reg.
  RVTEST_SIGUPD(x29, x5, x4, x30, I_sub_cg_cp_rs1_b27, I_sub_cg_cp_rs1_b27_str)
     51c:	000ea203          	lw	x4,0(x29)
     520:	01e20863          	beq	x4,x30,530 <I_sub_cg_cp_rs1_b27+0x18>
     524:	7b9032ef          	jal	x5,44dc <failedtest_x5_x4>
     528:	00000518          	.word	0x00000518
     52c:	00009232          	.word	0x00009232
     530:	004e8e93          	addi	x29,x29,4

# Testcase cp_rs1 (Test source rs1 = x28)
  RVTEST_TESTDATA_LOAD_INT(x31, x28) # load rs1: x28 = 0x788de41b
     534:	000fae03          	lw	x28,0(x31)
     538:	004f8f93          	addi	x31,x31,4
  RVTEST_TESTDATA_LOAD_INT(x31, x2) # load rs2: x2 = 0x472e7336
     53c:	000fa103          	lw	x2,0(x31)
     540:	004f8f93          	addi	x31,x31,4

00000544 <I_sub_cg_cp_rs1_b28>:
I_sub_cg_cp_rs1_b28:
  sub x10, x28, x2 # perform operation
     544:	402e0533          	sub	x10,x28,x2
  # Check if x10 contains the expected result. x29 is the signature ptr, x5 is the link ptr, x4 is a temp reg.
  RVTEST_SIGUPD(x29, x5, x4, x10, I_sub_cg_cp_rs1_b28, I_sub_cg_cp_rs1_b28_str)
     548:	000ea203          	lw	x4,0(x29)
     54c:	00a20863          	beq	x4,x10,55c <I_sub_cg_cp_rs1_b28+0x18>
     550:	78d032ef          	jal	x5,44dc <failedtest_x5_x4>
     554:	00000544          	.word	0x00000544
     558:	00009261          	.word	0x00009261
     55c:	004e8e93          	addi	x29,x29,4

  mv x2, x29 # switch signature pointer register to avoid conflict with test
     560:	000e8113          	addi	x2,x29,0
# Testcase cp_rs1 (Test source rs1 = x29)
  RVTEST_TESTDATA_LOAD_INT(x31, x29) # load rs1: x29 = 0xe4c7b8b6
     564:	000fae83          	lw	x29,0(x31)
     568:	004f8f93          	addi	x31,x31,4
  RVTEST_TESTDATA_LOAD_INT(x31, x20) # load rs2: x20 = 0x674a5f51
     56c:	000faa03          	lw	x20,0(x31)
     570:	004f8f93          	addi	x31,x31,4

00000574 <I_sub_cg_cp_rs1_b29>:
I_sub_cg_cp_rs1_b29:
  sub x21, x29, x20 # perform operation
     574:	414e8ab3          	sub	x21,x29,x20
  # Check if x21 contains the expected result. x2 is the signature ptr, x5 is the link ptr, x4 is a temp reg.
  RVTEST_SIGUPD(x2, x5, x4, x21, I_sub_cg_cp_rs1_b29, I_sub_cg_cp_rs1_b29_str)
     578:	00012203          	lw	x4,0(x2)
     57c:	01520863          	beq	x4,x21,58c <I_sub_cg_cp_rs1_b29+0x18>
     580:	75d032ef          	jal	x5,44dc <failedtest_x5_x4>
     584:	00000574          	.word	0x00000574
     588:	00009290          	.word	0x00009290
     58c:	00410113          	addi	x2,x2,4

# Testcase cp_rs1 (Test source rs1 = x30)
  RVTEST_TESTDATA_LOAD_INT(x31, x30) # load rs1: x30 = 0xda12e803
     590:	000faf03          	lw	x30,0(x31)
     594:	004f8f93          	addi	x31,x31,4
  RVTEST_TESTDATA_LOAD_INT(x31, x1) # load rs2: x1 = 0xfa321aa2
     598:	000fa083          	lw	x1,0(x31)
     59c:	004f8f93          	addi	x31,x31,4

000005a0 <I_sub_cg_cp_rs1_b30>:
I_sub_cg_cp_rs1_b30:
  sub x14, x30, x1 # perform operation
     5a0:	401f0733          	sub	x14,x30,x1
  # Check if x14 contains the expected result. x2 is the signature ptr, x5 is the link ptr, x4 is a temp reg.
  RVTEST_SIGUPD(x2, x5, x4, x14, I_sub_cg_cp_rs1_b30, I_sub_cg_cp_rs1_b30_str)
     5a4:	00012203          	lw	x4,0(x2)
     5a8:	00e20863          	beq	x4,x14,5b8 <I_sub_cg_cp_rs1_b30+0x18>
     5ac:	731032ef          	jal	x5,44dc <failedtest_x5_x4>
     5b0:	000005a0          	.word	0x000005a0
     5b4:	000092bf          	.word	0x000092bf
     5b8:	00410113          	addi	x2,x2,4

  mv x10, x31 # switch data pointer register to avoid conflict with test
     5bc:	000f8513          	addi	x10,x31,0
# Testcase cp_rs1 (Test source rs1 = x31)
  RVTEST_TESTDATA_LOAD_INT(x10, x31) # load rs1: x31 = 0xe7259c22
     5c0:	00052f83          	lw	x31,0(x10)
     5c4:	00450513          	addi	x10,x10,4
  RVTEST_TESTDATA_LOAD_INT(x10, x9) # load rs2: x9 = 0x072958d5
     5c8:	00052483          	lw	x9,0(x10)
     5cc:	00450513          	addi	x10,x10,4

000005d0 <I_sub_cg_cp_rs1_b31>:
I_sub_cg_cp_rs1_b31:
  sub x25, x31, x9 # perform operation
     5d0:	409f8cb3          	sub	x25,x31,x9
  # Check if x25 contains the expected result. x2 is the signature ptr, x5 is the link ptr, x4 is a temp reg.
  RVTEST_SIGUPD(x2, x5, x4, x25, I_sub_cg_cp_rs1_b31, I_sub_cg_cp_rs1_b31_str)
     5d4:	00012203          	lw	x4,0(x2)
     5d8:	01920863          	beq	x4,x25,5e8 <I_sub_cg_cp_rs1_b31+0x18>
     5dc:	701032ef          	jal	x5,44dc <failedtest_x5_x4>
     5e0:	000005d0          	.word	0x000005d0
     5e4:	000092ee          	.word	0x000092ee
     5e8:	00410113          	addi	x2,x2,4
/////////////////////////////////
// cp_rs2
/////////////////////////////////

# Testcase cp_rs2 (Test source rs2 = x0)
  RVTEST_TESTDATA_LOAD_INT(x10, x30) # load rs1: x30 = 0xa9569575
     5ec:	00052f03          	lw	x30,0(x10)
     5f0:	00450513          	addi	x10,x10,4
  RVTEST_TESTDATA_LOAD_INT(x10, x0) # load rs2: x0 = 0x4e6d8f31
     5f4:	00052003          	lw	x0,0(x10)
     5f8:	00450513          	addi	x10,x10,4

000005fc <I_sub_cg_cp_rs2_b0>:
I_sub_cg_cp_rs2_b0:
  sub x9, x30, x0 # perform operation
     5fc:	400f04b3          	sub	x9,x30,x0
  # Check if x9 contains the expected result. x2 is the signature ptr, x5 is the link ptr, x4 is a temp reg.
  RVTEST_SIGUPD(x2, x5, x4, x9, I_sub_cg_cp_rs2_b0, I_sub_cg_cp_rs2_b0_str)
     600:	00012203          	lw	x4,0(x2)
     604:	00920863          	beq	x4,x9,614 <I_sub_cg_cp_rs2_b0+0x18>
     608:	6d5032ef          	jal	x5,44dc <failedtest_x5_x4>
     60c:	000005fc          	.word	0x000005fc
     610:	0000931d          	.word	0x0000931d
     614:	00410113          	addi	x2,x2,4

# Testcase cp_rs2 (Test source rs2 = x1)
  RVTEST_TESTDATA_LOAD_INT(x10, x22) # load rs1: x22 = 0xae64aeb9
     618:	00052b03          	lw	x22,0(x10)
     61c:	00450513          	addi	x10,x10,4
  RVTEST_TESTDATA_LOAD_INT(x10, x1) # load rs2: x1 = 0x6141cc44
     620:	00052083          	lw	x1,0(x10)
     624:	00450513          	addi	x10,x10,4

00000628 <I_sub_cg_cp_rs2_b1>:
I_sub_cg_cp_rs2_b1:
  sub x6, x22, x1 # perform operation
     628:	401b0333          	sub	x6,x22,x1
  # Check if x6 contains the expected result. x2 is the signature ptr, x5 is the link ptr, x4 is a temp reg.
  RVTEST_SIGUPD(x2, x5, x4, x6, I_sub_cg_cp_rs2_b1, I_sub_cg_cp_rs2_b1_str)
     62c:	00012203          	lw	x4,0(x2)
     630:	00620863          	beq	x4,x6,640 <I_sub_cg_cp_rs2_b1+0x18>
     634:	6a9032ef          	jal	x5,44dc <failedtest_x5_x4>
     638:	00000628          	.word	0x00000628
     63c:	0000934b          	.word	0x0000934b
     640:	00410113          	addi	x2,x2,4

  mv x25, x2 # switch signature pointer register to avoid conflict with test
     644:	00010c93          	addi	x25,x2,0
# Testcase cp_rs2 (Test source rs2 = x2)
  RVTEST_TESTDATA_LOAD_INT(x10, x18) # load rs1: x18 = 0x283b7884
     648:	00052903          	lw	x18,0(x10)
     64c:	00450513          	addi	x10,x10,4
  RVTEST_TESTDATA_LOAD_INT(x10, x2) # load rs2: x2 = 0x1b75291e
     650:	00052103          	lw	x2,0(x10)
     654:	00450513          	addi	x10,x10,4

00000658 <I_sub_cg_cp_rs2_b2>:
I_sub_cg_cp_rs2_b2:
  sub x16, x18, x2 # perform operation
     658:	40290833          	sub	x16,x18,x2
  # Check if x16 contains the expected result. x25 is the signature ptr, x5 is the link ptr, x4 is a temp reg.
  RVTEST_SIGUPD(x25, x5, x4, x16, I_sub_cg_cp_rs2_b2, I_sub_cg_cp_rs2_b2_str)
     65c:	000ca203          	lw	x4,0(x25)
     660:	01020863          	beq	x4,x16,670 <I_sub_cg_cp_rs2_b2+0x18>
     664:	679032ef          	jal	x5,44dc <failedtest_x5_x4>
     668:	00000658          	.word	0x00000658
     66c:	00009379          	.word	0x00009379
     670:	004c8c93          	addi	x25,x25,4

# Testcase cp_rs2 (Test source rs2 = x3)
  RVTEST_TESTDATA_LOAD_INT(x10, x29) # load rs1: x29 = 0xdcffee62
     674:	00052e83          	lw	x29,0(x10)
     678:	00450513          	addi	x10,x10,4
  RVTEST_TESTDATA_LOAD_INT(x10, x3) # load rs2: x3 = 0xc3073af5
     67c:	00052183          	lw	x3,0(x10)
     680:	00450513          	addi	x10,x10,4

00000684 <I_sub_cg_cp_rs2_b3>:
I_sub_cg_cp_rs2_b3:
  sub x16, x29, x3 # perform operation
     684:	403e8833          	sub	x16,x29,x3
  # Check if x16 contains the expected result. x25 is the signature ptr, x5 is the link ptr, x4 is a temp reg.
  RVTEST_SIGUPD(x25, x5, x4, x16, I_sub_cg_cp_rs2_b3, I_sub_cg_cp_rs2_b3_str)
     688:	000ca203          	lw	x4,0(x25)
     68c:	01020863          	beq	x4,x16,69c <I_sub_cg_cp_rs2_b3+0x18>
     690:	64d032ef          	jal	x5,44dc <failedtest_x5_x4>
     694:	00000684          	.word	0x00000684
     698:	000093a7          	.word	0x000093a7
     69c:	004c8c93          	addi	x25,x25,4

  mv x7, x4 # switch temp register to avoid conflict with test
     6a0:	00020393          	addi	x7,x4,0 # 0 <rvtest_entry_point>
  mv x8, x5 # switch link pointer register to avoid conflict with test
     6a4:	00028413          	addi	x8,x5,0
# Testcase cp_rs2 (Test source rs2 = x4)
  RVTEST_TESTDATA_LOAD_INT(x10, x1) # load rs1: x1 = 0x3796f060
     6a8:	00052083          	lw	x1,0(x10)
     6ac:	00450513          	addi	x10,x10,4
  RVTEST_TESTDATA_LOAD_INT(x10, x4) # load rs2: x4 = 0x21cfaae1
     6b0:	00052203          	lw	x4,0(x10)
     6b4:	00450513          	addi	x10,x10,4

000006b8 <I_sub_cg_cp_rs2_b4>:
I_sub_cg_cp_rs2_b4:
  sub x22, x1, x4 # perform operation
     6b8:	40408b33          	sub	x22,x1,x4
  # Check if x22 contains the expected result. x25 is the signature ptr, x8 is the link ptr, x7 is a temp reg.
  RVTEST_SIGUPD(x25, x8, x7, x22, I_sub_cg_cp_rs2_b4, I_sub_cg_cp_rs2_b4_str)
     6bc:	000ca383          	lw	x7,0(x25)
     6c0:	01638863          	beq	x7,x22,6d0 <I_sub_cg_cp_rs2_b4+0x18>
     6c4:	6310346f          	jal	x8,44f4 <failedtest_x8_x7>
     6c8:	000006b8          	.word	0x000006b8
     6cc:	000093d5          	.word	0x000093d5
     6d0:	004c8c93          	addi	x25,x25,4

# Testcase cp_rs2 (Test source rs2 = x5)
  RVTEST_TESTDATA_LOAD_INT(x10, x29) # load rs1: x29 = 0x5a678d6f
     6d4:	00052e83          	lw	x29,0(x10)
     6d8:	00450513          	addi	x10,x10,4
  RVTEST_TESTDATA_LOAD_INT(x10, x5) # load rs2: x5 = 0xf43444a4
     6dc:	00052283          	lw	x5,0(x10)
     6e0:	00450513          	addi	x10,x10,4

000006e4 <I_sub_cg_cp_rs2_b5>:
I_sub_cg_cp_rs2_b5:
  sub x24, x29, x5 # perform operation
     6e4:	405e8c33          	sub	x24,x29,x5
  # Check if x24 contains the expected result. x25 is the signature ptr, x8 is the link ptr, x7 is a temp reg.
  RVTEST_SIGUPD(x25, x8, x7, x24, I_sub_cg_cp_rs2_b5, I_sub_cg_cp_rs2_b5_str)
     6e8:	000ca383          	lw	x7,0(x25)
     6ec:	01838863          	beq	x7,x24,6fc <I_sub_cg_cp_rs2_b5+0x18>
     6f0:	6050346f          	jal	x8,44f4 <failedtest_x8_x7>
     6f4:	000006e4          	.word	0x000006e4
     6f8:	00009403          	.word	0x00009403
     6fc:	004c8c93          	addi	x25,x25,4

# Testcase cp_rs2 (Test source rs2 = x6)
  RVTEST_TESTDATA_LOAD_INT(x10, x12) # load rs1: x12 = 0x9ee9a912
     700:	00052603          	lw	x12,0(x10)
     704:	00450513          	addi	x10,x10,4
  RVTEST_TESTDATA_LOAD_INT(x10, x6) # load rs2: x6 = 0xfc345f09
     708:	00052303          	lw	x6,0(x10)
     70c:	00450513          	addi	x10,x10,4

00000710 <I_sub_cg_cp_rs2_b6>:
I_sub_cg_cp_rs2_b6:
  sub x21, x12, x6 # perform operation
     710:	40660ab3          	sub	x21,x12,x6
  # Check if x21 contains the expected result. x25 is the signature ptr, x8 is the link ptr, x7 is a temp reg.
  RVTEST_SIGUPD(x25, x8, x7, x21, I_sub_cg_cp_rs2_b6, I_sub_cg_cp_rs2_b6_str)
     714:	000ca383          	lw	x7,0(x25)
     718:	01538863          	beq	x7,x21,728 <I_sub_cg_cp_rs2_b6+0x18>
     71c:	5d90346f          	jal	x8,44f4 <failedtest_x8_x7>
     720:	00000710          	.word	0x00000710
     724:	00009431          	.word	0x00009431
     728:	004c8c93          	addi	x25,x25,4

  mv x13, x7 # switch temp register to avoid conflict with test
     72c:	00038693          	addi	x13,x7,0
  mv x14, x8 # switch link pointer register to avoid conflict with test
     730:	00040713          	addi	x14,x8,0
# Testcase cp_rs2 (Test source rs2 = x7)
  RVTEST_TESTDATA_LOAD_INT(x10, x11) # load rs1: x11 = 0x54e09973
     734:	00052583          	lw	x11,0(x10)
     738:	00450513          	addi	x10,x10,4
  RVTEST_TESTDATA_LOAD_INT(x10, x7) # load rs2: x7 = 0x7607c343
     73c:	00052383          	lw	x7,0(x10)
     740:	00450513          	addi	x10,x10,4

00000744 <I_sub_cg_cp_rs2_b7>:
I_sub_cg_cp_rs2_b7:
  sub x6, x11, x7 # perform operation
     744:	40758333          	sub	x6,x11,x7
  # Check if x6 contains the expected result. x25 is the signature ptr, x14 is the link ptr, x13 is a temp reg.
  RVTEST_SIGUPD(x25, x14, x13, x6, I_sub_cg_cp_rs2_b7, I_sub_cg_cp_rs2_b7_str)
     748:	000ca683          	lw	x13,0(x25)
     74c:	00668863          	beq	x13,x6,75c <I_sub_cg_cp_rs2_b7+0x18>
     750:	5cd0376f          	jal	x14,451c <failedtest_x14_x13>
     754:	00000744          	.word	0x00000744
     758:	0000945f          	.word	0x0000945f
     75c:	004c8c93          	addi	x25,x25,4

# Testcase cp_rs2 (Test source rs2 = x8)
  RVTEST_TESTDATA_LOAD_INT(x10, x26) # load rs1: x26 = 0xad2e3c7f
     760:	00052d03          	lw	x26,0(x10)
     764:	00450513          	addi	x10,x10,4
  RVTEST_TESTDATA_LOAD_INT(x10, x8) # load rs2: x8 = 0xe682ff28
     768:	00052403          	lw	x8,0(x10)
     76c:	00450513          	addi	x10,x10,4

00000770 <I_sub_cg_cp_rs2_b8>:
I_sub_cg_cp_rs2_b8:
  sub x3, x26, x8 # perform operation
     770:	408d01b3          	sub	x3,x26,x8
  # Check if x3 contains the expected result. x25 is the signature ptr, x14 is the link ptr, x13 is a temp reg.
  RVTEST_SIGUPD(x25, x14, x13, x3, I_sub_cg_cp_rs2_b8, I_sub_cg_cp_rs2_b8_str)
     774:	000ca683          	lw	x13,0(x25)
     778:	00368863          	beq	x13,x3,788 <I_sub_cg_cp_rs2_b8+0x18>
     77c:	5a10376f          	jal	x14,451c <failedtest_x14_x13>
     780:	00000770          	.word	0x00000770
     784:	0000948d          	.word	0x0000948d
     788:	004c8c93          	addi	x25,x25,4

# Testcase cp_rs2 (Test source rs2 = x9)
  RVTEST_TESTDATA_LOAD_INT(x10, x29) # load rs1: x29 = 0x1972de75
     78c:	00052e83          	lw	x29,0(x10)
     790:	00450513          	addi	x10,x10,4
  RVTEST_TESTDATA_LOAD_INT(x10, x9) # load rs2: x9 = 0xf01c80e8
     794:	00052483          	lw	x9,0(x10)
     798:	00450513          	addi	x10,x10,4

0000079c <I_sub_cg_cp_rs2_b9>:
I_sub_cg_cp_rs2_b9:
  sub x7, x29, x9 # perform operation
     79c:	409e83b3          	sub	x7,x29,x9
  # Check if x7 contains the expected result. x25 is the signature ptr, x14 is the link ptr, x13 is a temp reg.
  RVTEST_SIGUPD(x25, x14, x13, x7, I_sub_cg_cp_rs2_b9, I_sub_cg_cp_rs2_b9_str)
     7a0:	000ca683          	lw	x13,0(x25)
     7a4:	00768863          	beq	x13,x7,7b4 <I_sub_cg_cp_rs2_b9+0x18>
     7a8:	5750376f          	jal	x14,451c <failedtest_x14_x13>
     7ac:	0000079c          	.word	0x0000079c
     7b0:	000094bb          	.word	0x000094bb
     7b4:	004c8c93          	addi	x25,x25,4

  mv x17, x10 # switch data pointer register to avoid conflict with test
     7b8:	00050893          	addi	x17,x10,0
# Testcase cp_rs2 (Test source rs2 = x10)
  RVTEST_TESTDATA_LOAD_INT(x17, x20) # load rs1: x20 = 0x28113e0b
     7bc:	0008aa03          	lw	x20,0(x17)
     7c0:	00488893          	addi	x17,x17,4
  RVTEST_TESTDATA_LOAD_INT(x17, x10) # load rs2: x10 = 0xf13fd8ae
     7c4:	0008a503          	lw	x10,0(x17)
     7c8:	00488893          	addi	x17,x17,4

000007cc <I_sub_cg_cp_rs2_b10>:
I_sub_cg_cp_rs2_b10:
  sub x21, x20, x10 # perform operation
     7cc:	40aa0ab3          	sub	x21,x20,x10
  # Check if x21 contains the expected result. x25 is the signature ptr, x14 is the link ptr, x13 is a temp reg.
  RVTEST_SIGUPD(x25, x14, x13, x21, I_sub_cg_cp_rs2_b10, I_sub_cg_cp_rs2_b10_str)
     7d0:	000ca683          	lw	x13,0(x25)
     7d4:	01568863          	beq	x13,x21,7e4 <I_sub_cg_cp_rs2_b10+0x18>
     7d8:	5450376f          	jal	x14,451c <failedtest_x14_x13>
     7dc:	000007cc          	.word	0x000007cc
     7e0:	000094e9          	.word	0x000094e9
     7e4:	004c8c93          	addi	x25,x25,4

# Testcase cp_rs2 (Test source rs2 = x11)
  RVTEST_TESTDATA_LOAD_INT(x17, x19) # load rs1: x19 = 0xebcce8db
     7e8:	0008a983          	lw	x19,0(x17)
     7ec:	00488893          	addi	x17,x17,4
  RVTEST_TESTDATA_LOAD_INT(x17, x11) # load rs2: x11 = 0xb69c4173
     7f0:	0008a583          	lw	x11,0(x17)
     7f4:	00488893          	addi	x17,x17,4

000007f8 <I_sub_cg_cp_rs2_b11>:
I_sub_cg_cp_rs2_b11:
  sub x1, x19, x11 # perform operation
     7f8:	40b980b3          	sub	x1,x19,x11
  # Check if x1 contains the expected result. x25 is the signature ptr, x14 is the link ptr, x13 is a temp reg.
  RVTEST_SIGUPD(x25, x14, x13, x1, I_sub_cg_cp_rs2_b11, I_sub_cg_cp_rs2_b11_str)
     7fc:	000ca683          	lw	x13,0(x25)
     800:	00168863          	beq	x13,x1,810 <I_sub_cg_cp_rs2_b11+0x18>
     804:	5190376f          	jal	x14,451c <failedtest_x14_x13>
     808:	000007f8          	.word	0x000007f8
     80c:	00009518          	.word	0x00009518
     810:	004c8c93          	addi	x25,x25,4

# Testcase cp_rs2 (Test source rs2 = x12)
  RVTEST_TESTDATA_LOAD_INT(x17, x11) # load rs1: x11 = 0xeaf38412
     814:	0008a583          	lw	x11,0(x17)
     818:	00488893          	addi	x17,x17,4
  RVTEST_TESTDATA_LOAD_INT(x17, x12) # load rs2: x12 = 0x648dd2a7
     81c:	0008a603          	lw	x12,0(x17)
     820:	00488893          	addi	x17,x17,4

00000824 <I_sub_cg_cp_rs2_b12>:
I_sub_cg_cp_rs2_b12:
  sub x15, x11, x12 # perform operation
     824:	40c587b3          	sub	x15,x11,x12
  # Check if x15 contains the expected result. x25 is the signature ptr, x14 is the link ptr, x13 is a temp reg.
  RVTEST_SIGUPD(x25, x14, x13, x15, I_sub_cg_cp_rs2_b12, I_sub_cg_cp_rs2_b12_str)
     828:	000ca683          	lw	x13,0(x25)
     82c:	00f68863          	beq	x13,x15,83c <I_sub_cg_cp_rs2_b12+0x18>
     830:	4ed0376f          	jal	x14,451c <failedtest_x14_x13>
     834:	00000824          	.word	0x00000824
     838:	00009547          	.word	0x00009547
     83c:	004c8c93          	addi	x25,x25,4

  mv x7, x13 # switch temp register to avoid conflict with test
     840:	00068393          	addi	x7,x13,0
  mv x8, x14 # switch link pointer register to avoid conflict with test
     844:	00070413          	addi	x8,x14,0
# Testcase cp_rs2 (Test source rs2 = x13)
  RVTEST_TESTDATA_LOAD_INT(x17, x12) # load rs1: x12 = 0x7d96fd9a
     848:	0008a603          	lw	x12,0(x17)
     84c:	00488893          	addi	x17,x17,4
  RVTEST_TESTDATA_LOAD_INT(x17, x13) # load rs2: x13 = 0x09abbc91
     850:	0008a683          	lw	x13,0(x17)
     854:	00488893          	addi	x17,x17,4

00000858 <I_sub_cg_cp_rs2_b13>:
I_sub_cg_cp_rs2_b13:
  sub x5, x12, x13 # perform operation
     858:	40d602b3          	sub	x5,x12,x13
  # Check if x5 contains the expected result. x25 is the signature ptr, x8 is the link ptr, x7 is a temp reg.
  RVTEST_SIGUPD(x25, x8, x7, x5, I_sub_cg_cp_rs2_b13, I_sub_cg_cp_rs2_b13_str)
     85c:	000ca383          	lw	x7,0(x25)
     860:	00538863          	beq	x7,x5,870 <I_sub_cg_cp_rs2_b13+0x18>
     864:	4910346f          	jal	x8,44f4 <failedtest_x8_x7>
     868:	00000858          	.word	0x00000858
     86c:	00009576          	.word	0x00009576
     870:	004c8c93          	addi	x25,x25,4

# Testcase cp_rs2 (Test source rs2 = x14)
  RVTEST_TESTDATA_LOAD_INT(x17, x1) # load rs1: x1 = 0xed9a309a
     874:	0008a083          	lw	x1,0(x17)
     878:	00488893          	addi	x17,x17,4
  RVTEST_TESTDATA_LOAD_INT(x17, x14) # load rs2: x14 = 0xcc002fd9
     87c:	0008a703          	lw	x14,0(x17)
     880:	00488893          	addi	x17,x17,4

00000884 <I_sub_cg_cp_rs2_b14>:
I_sub_cg_cp_rs2_b14:
  sub x19, x1, x14 # perform operation
     884:	40e089b3          	sub	x19,x1,x14
  # Check if x19 contains the expected result. x25 is the signature ptr, x8 is the link ptr, x7 is a temp reg.
  RVTEST_SIGUPD(x25, x8, x7, x19, I_sub_cg_cp_rs2_b14, I_sub_cg_cp_rs2_b14_str)
     888:	000ca383          	lw	x7,0(x25)
     88c:	01338863          	beq	x7,x19,89c <I_sub_cg_cp_rs2_b14+0x18>
     890:	4650346f          	jal	x8,44f4 <failedtest_x8_x7>
     894:	00000884          	.word	0x00000884
     898:	000095a5          	.word	0x000095a5
     89c:	004c8c93          	addi	x25,x25,4

# Testcase cp_rs2 (Test source rs2 = x15)
  RVTEST_TESTDATA_LOAD_INT(x17, x0) # load rs1: x0 = 0x11a2f5d5
     8a0:	0008a003          	lw	x0,0(x17)
     8a4:	00488893          	addi	x17,x17,4
  RVTEST_TESTDATA_LOAD_INT(x17, x15) # load rs2: x15 = 0x0d81d696
     8a8:	0008a783          	lw	x15,0(x17)
     8ac:	00488893          	addi	x17,x17,4

000008b0 <I_sub_cg_cp_rs2_b15>:
I_sub_cg_cp_rs2_b15:
  sub x4, x0, x15 # perform operation
     8b0:	40f00233          	sub	x4,x0,x15
  # Check if x4 contains the expected result. x25 is the signature ptr, x8 is the link ptr, x7 is a temp reg.
  RVTEST_SIGUPD(x25, x8, x7, x4, I_sub_cg_cp_rs2_b15, I_sub_cg_cp_rs2_b15_str)
     8b4:	000ca383          	lw	x7,0(x25)
     8b8:	00438863          	beq	x7,x4,8c8 <I_sub_cg_cp_rs2_b15+0x18>
     8bc:	4390346f          	jal	x8,44f4 <failedtest_x8_x7>
     8c0:	000008b0          	.word	0x000008b0
     8c4:	000095d4          	.word	0x000095d4
     8c8:	004c8c93          	addi	x25,x25,4

# Testcase cp_rs2 (Test source rs2 = x16)
  RVTEST_TESTDATA_LOAD_INT(x17, x3) # load rs1: x3 = 0x0dacdda9
     8cc:	0008a183          	lw	x3,0(x17)
     8d0:	00488893          	addi	x17,x17,4
  RVTEST_TESTDATA_LOAD_INT(x17, x16) # load rs2: x16 = 0x15c63d5f
     8d4:	0008a803          	lw	x16,0(x17)
     8d8:	00488893          	addi	x17,x17,4

000008dc <I_sub_cg_cp_rs2_b16>:
I_sub_cg_cp_rs2_b16:
  sub x9, x3, x16 # perform operation
     8dc:	410184b3          	sub	x9,x3,x16
  # Check if x9 contains the expected result. x25 is the signature ptr, x8 is the link ptr, x7 is a temp reg.
  RVTEST_SIGUPD(x25, x8, x7, x9, I_sub_cg_cp_rs2_b16, I_sub_cg_cp_rs2_b16_str)
     8e0:	000ca383          	lw	x7,0(x25)
     8e4:	00938863          	beq	x7,x9,8f4 <I_sub_cg_cp_rs2_b16+0x18>
     8e8:	40d0346f          	jal	x8,44f4 <failedtest_x8_x7>
     8ec:	000008dc          	.word	0x000008dc
     8f0:	00009603          	.word	0x00009603
     8f4:	004c8c93          	addi	x25,x25,4

  mv x22, x17 # switch data pointer register to avoid conflict with test
     8f8:	00088b13          	addi	x22,x17,0
# Testcase cp_rs2 (Test source rs2 = x17)
  RVTEST_TESTDATA_LOAD_INT(x22, x23) # load rs1: x23 = 0x2d1cfe40
     8fc:	000b2b83          	lw	x23,0(x22)
     900:	004b0b13          	addi	x22,x22,4
  RVTEST_TESTDATA_LOAD_INT(x22, x17) # load rs2: x17 = 0xa7f04b49
     904:	000b2883          	lw	x17,0(x22)
     908:	004b0b13          	addi	x22,x22,4

0000090c <I_sub_cg_cp_rs2_b17>:
I_sub_cg_cp_rs2_b17:
  sub x21, x23, x17 # perform operation
     90c:	411b8ab3          	sub	x21,x23,x17
  # Check if x21 contains the expected result. x25 is the signature ptr, x8 is the link ptr, x7 is a temp reg.
  RVTEST_SIGUPD(x25, x8, x7, x21, I_sub_cg_cp_rs2_b17, I_sub_cg_cp_rs2_b17_str)
     910:	000ca383          	lw	x7,0(x25)
     914:	01538863          	beq	x7,x21,924 <I_sub_cg_cp_rs2_b17+0x18>
     918:	3dd0346f          	jal	x8,44f4 <failedtest_x8_x7>
     91c:	0000090c          	.word	0x0000090c
     920:	00009632          	.word	0x00009632
     924:	004c8c93          	addi	x25,x25,4

# Testcase cp_rs2 (Test source rs2 = x18)
  RVTEST_TESTDATA_LOAD_INT(x22, x17) # load rs1: x17 = 0x47c4924c
     928:	000b2883          	lw	x17,0(x22)
     92c:	004b0b13          	addi	x22,x22,4
  RVTEST_TESTDATA_LOAD_INT(x22, x18) # load rs2: x18 = 0x3bd40675
     930:	000b2903          	lw	x18,0(x22)
     934:	004b0b13          	addi	x22,x22,4

00000938 <I_sub_cg_cp_rs2_b18>:
I_sub_cg_cp_rs2_b18:
  sub x2, x17, x18 # perform operation
     938:	41288133          	sub	x2,x17,x18
  # Check if x2 contains the expected result. x25 is the signature ptr, x8 is the link ptr, x7 is a temp reg.
  RVTEST_SIGUPD(x25, x8, x7, x2, I_sub_cg_cp_rs2_b18, I_sub_cg_cp_rs2_b18_str)
     93c:	000ca383          	lw	x7,0(x25)
     940:	00238863          	beq	x7,x2,950 <I_sub_cg_cp_rs2_b18+0x18>
     944:	3b10346f          	jal	x8,44f4 <failedtest_x8_x7>
     948:	00000938          	.word	0x00000938
     94c:	00009661          	.word	0x00009661
     950:	004c8c93          	addi	x25,x25,4

# Testcase cp_rs2 (Test source rs2 = x19)
  RVTEST_TESTDATA_LOAD_INT(x22, x13) # load rs1: x13 = 0xef2ae8f2
     954:	000b2683          	lw	x13,0(x22)
     958:	004b0b13          	addi	x22,x22,4
  RVTEST_TESTDATA_LOAD_INT(x22, x19) # load rs2: x19 = 0xb9e13b17
     95c:	000b2983          	lw	x19,0(x22)
     960:	004b0b13          	addi	x22,x22,4

00000964 <I_sub_cg_cp_rs2_b19>:
I_sub_cg_cp_rs2_b19:
  sub x27, x13, x19 # perform operation
     964:	41368db3          	sub	x27,x13,x19
  # Check if x27 contains the expected result. x25 is the signature ptr, x8 is the link ptr, x7 is a temp reg.
  RVTEST_SIGUPD(x25, x8, x7, x27, I_sub_cg_cp_rs2_b19, I_sub_cg_cp_rs2_b19_str)
     968:	000ca383          	lw	x7,0(x25)
     96c:	01b38863          	beq	x7,x27,97c <I_sub_cg_cp_rs2_b19+0x18>
     970:	3850346f          	jal	x8,44f4 <failedtest_x8_x7>
     974:	00000964          	.word	0x00000964
     978:	00009690          	.word	0x00009690
     97c:	004c8c93          	addi	x25,x25,4

# Testcase cp_rs2 (Test source rs2 = x20)
  RVTEST_TESTDATA_LOAD_INT(x22, x30) # load rs1: x30 = 0xba64ec34
     980:	000b2f03          	lw	x30,0(x22)
     984:	004b0b13          	addi	x22,x22,4
  RVTEST_TESTDATA_LOAD_INT(x22, x20) # load rs2: x20 = 0x4168b527
     988:	000b2a03          	lw	x20,0(x22)
     98c:	004b0b13          	addi	x22,x22,4

00000990 <I_sub_cg_cp_rs2_b20>:
I_sub_cg_cp_rs2_b20:
  sub x9, x30, x20 # perform operation
     990:	414f04b3          	sub	x9,x30,x20
  # Check if x9 contains the expected result. x25 is the signature ptr, x8 is the link ptr, x7 is a temp reg.
  RVTEST_SIGUPD(x25, x8, x7, x9, I_sub_cg_cp_rs2_b20, I_sub_cg_cp_rs2_b20_str)
     994:	000ca383          	lw	x7,0(x25)
     998:	00938863          	beq	x7,x9,9a8 <I_sub_cg_cp_rs2_b20+0x18>
     99c:	3590346f          	jal	x8,44f4 <failedtest_x8_x7>
     9a0:	00000990          	.word	0x00000990
     9a4:	000096bf          	.word	0x000096bf
     9a8:	004c8c93          	addi	x25,x25,4

# Testcase cp_rs2 (Test source rs2 = x21)
  RVTEST_TESTDATA_LOAD_INT(x22, x23) # load rs1: x23 = 0x31c2e228
     9ac:	000b2b83          	lw	x23,0(x22)
     9b0:	004b0b13          	addi	x22,x22,4
  RVTEST_TESTDATA_LOAD_INT(x22, x21) # load rs2: x21 = 0xab9c93fb
     9b4:	000b2a83          	lw	x21,0(x22)
     9b8:	004b0b13          	addi	x22,x22,4

000009bc <I_sub_cg_cp_rs2_b21>:
I_sub_cg_cp_rs2_b21:
  sub x4, x23, x21 # perform operation
     9bc:	415b8233          	sub	x4,x23,x21
  # Check if x4 contains the expected result. x25 is the signature ptr, x8 is the link ptr, x7 is a temp reg.
  RVTEST_SIGUPD(x25, x8, x7, x4, I_sub_cg_cp_rs2_b21, I_sub_cg_cp_rs2_b21_str)
     9c0:	000ca383          	lw	x7,0(x25)
     9c4:	00438863          	beq	x7,x4,9d4 <I_sub_cg_cp_rs2_b21+0x18>
     9c8:	32d0346f          	jal	x8,44f4 <failedtest_x8_x7>
     9cc:	000009bc          	.word	0x000009bc
     9d0:	000096ee          	.word	0x000096ee
     9d4:	004c8c93          	addi	x25,x25,4

  mv x21, x22 # switch data pointer register to avoid conflict with test
     9d8:	000b0a93          	addi	x21,x22,0
# Testcase cp_rs2 (Test source rs2 = x22)
  RVTEST_TESTDATA_LOAD_INT(x21, x27) # load rs1: x27 = 0xaa54be3c
     9dc:	000aad83          	lw	x27,0(x21)
     9e0:	004a8a93          	addi	x21,x21,4
  RVTEST_TESTDATA_LOAD_INT(x21, x22) # load rs2: x22 = 0xb07ceb3b
     9e4:	000aab03          	lw	x22,0(x21)
     9e8:	004a8a93          	addi	x21,x21,4

000009ec <I_sub_cg_cp_rs2_b22>:
I_sub_cg_cp_rs2_b22:
  sub x15, x27, x22 # perform operation
     9ec:	416d87b3          	sub	x15,x27,x22
  # Check if x15 contains the expected result. x25 is the signature ptr, x8 is the link ptr, x7 is a temp reg.
  RVTEST_SIGUPD(x25, x8, x7, x15, I_sub_cg_cp_rs2_b22, I_sub_cg_cp_rs2_b22_str)
     9f0:	000ca383          	lw	x7,0(x25)
     9f4:	00f38863          	beq	x7,x15,a04 <I_sub_cg_cp_rs2_b22+0x18>
     9f8:	2fd0346f          	jal	x8,44f4 <failedtest_x8_x7>
     9fc:	000009ec          	.word	0x000009ec
     a00:	0000971d          	.word	0x0000971d
     a04:	004c8c93          	addi	x25,x25,4

# Testcase cp_rs2 (Test source rs2 = x23)
  RVTEST_TESTDATA_LOAD_INT(x21, x22) # load rs1: x22 = 0x47d15a52
     a08:	000aab03          	lw	x22,0(x21)
     a0c:	004a8a93          	addi	x21,x21,4
  RVTEST_TESTDATA_LOAD_INT(x21, x23) # load rs2: x23 = 0x9e894882
     a10:	000aab83          	lw	x23,0(x21)
     a14:	004a8a93          	addi	x21,x21,4

00000a18 <I_sub_cg_cp_rs2_b23>:
I_sub_cg_cp_rs2_b23:
  sub x16, x22, x23 # perform operation
     a18:	417b0833          	sub	x16,x22,x23
  # Check if x16 contains the expected result. x25 is the signature ptr, x8 is the link ptr, x7 is a temp reg.
  RVTEST_SIGUPD(x25, x8, x7, x16, I_sub_cg_cp_rs2_b23, I_sub_cg_cp_rs2_b23_str)
     a1c:	000ca383          	lw	x7,0(x25)
     a20:	01038863          	beq	x7,x16,a30 <I_sub_cg_cp_rs2_b23+0x18>
     a24:	2d10346f          	jal	x8,44f4 <failedtest_x8_x7>
     a28:	00000a18          	.word	0x00000a18
     a2c:	0000974c          	.word	0x0000974c
     a30:	004c8c93          	addi	x25,x25,4

# Testcase cp_rs2 (Test source rs2 = x24)
  RVTEST_TESTDATA_LOAD_INT(x21, x15) # load rs1: x15 = 0xab6c7fdc
     a34:	000aa783          	lw	x15,0(x21)
     a38:	004a8a93          	addi	x21,x21,4
  RVTEST_TESTDATA_LOAD_INT(x21, x24) # load rs2: x24 = 0xb604e87a
     a3c:	000aac03          	lw	x24,0(x21)
     a40:	004a8a93          	addi	x21,x21,4

00000a44 <I_sub_cg_cp_rs2_b24>:
I_sub_cg_cp_rs2_b24:
  sub x16, x15, x24 # perform operation
     a44:	41878833          	sub	x16,x15,x24
  # Check if x16 contains the expected result. x25 is the signature ptr, x8 is the link ptr, x7 is a temp reg.
  RVTEST_SIGUPD(x25, x8, x7, x16, I_sub_cg_cp_rs2_b24, I_sub_cg_cp_rs2_b24_str)
     a48:	000ca383          	lw	x7,0(x25)
     a4c:	01038863          	beq	x7,x16,a5c <I_sub_cg_cp_rs2_b24+0x18>
     a50:	2a50346f          	jal	x8,44f4 <failedtest_x8_x7>
     a54:	00000a44          	.word	0x00000a44
     a58:	0000977b          	.word	0x0000977b
     a5c:	004c8c93          	addi	x25,x25,4

  mv x11, x25 # switch signature pointer register to avoid conflict with test
     a60:	000c8593          	addi	x11,x25,0
# Testcase cp_rs2 (Test source rs2 = x25)
  RVTEST_TESTDATA_LOAD_INT(x21, x12) # load rs1: x12 = 0x7b4e9cdd
     a64:	000aa603          	lw	x12,0(x21)
     a68:	004a8a93          	addi	x21,x21,4
  RVTEST_TESTDATA_LOAD_INT(x21, x25) # load rs2: x25 = 0xe10b54e5
     a6c:	000aac83          	lw	x25,0(x21)
     a70:	004a8a93          	addi	x21,x21,4

00000a74 <I_sub_cg_cp_rs2_b25>:
I_sub_cg_cp_rs2_b25:
  sub x23, x12, x25 # perform operation
     a74:	41960bb3          	sub	x23,x12,x25
  # Check if x23 contains the expected result. x11 is the signature ptr, x8 is the link ptr, x7 is a temp reg.
  RVTEST_SIGUPD(x11, x8, x7, x23, I_sub_cg_cp_rs2_b25, I_sub_cg_cp_rs2_b25_str)
     a78:	0005a383          	lw	x7,0(x11)
     a7c:	01738863          	beq	x7,x23,a8c <I_sub_cg_cp_rs2_b25+0x18>
     a80:	2750346f          	jal	x8,44f4 <failedtest_x8_x7>
     a84:	00000a74          	.word	0x00000a74
     a88:	000097aa          	.word	0x000097aa
     a8c:	00458593          	addi	x11,x11,4

# Testcase cp_rs2 (Test source rs2 = x26)
  RVTEST_TESTDATA_LOAD_INT(x21, x19) # load rs1: x19 = 0xf1590ad7
     a90:	000aa983          	lw	x19,0(x21)
     a94:	004a8a93          	addi	x21,x21,4
  RVTEST_TESTDATA_LOAD_INT(x21, x26) # load rs2: x26 = 0xda472920
     a98:	000aad03          	lw	x26,0(x21)
     a9c:	004a8a93          	addi	x21,x21,4

00000aa0 <I_sub_cg_cp_rs2_b26>:
I_sub_cg_cp_rs2_b26:
  sub x3, x19, x26 # perform operation
     aa0:	41a981b3          	sub	x3,x19,x26
  # Check if x3 contains the expected result. x11 is the signature ptr, x8 is the link ptr, x7 is a temp reg.
  RVTEST_SIGUPD(x11, x8, x7, x3, I_sub_cg_cp_rs2_b26, I_sub_cg_cp_rs2_b26_str)
     aa4:	0005a383          	lw	x7,0(x11)
     aa8:	00338863          	beq	x7,x3,ab8 <I_sub_cg_cp_rs2_b26+0x18>
     aac:	2490346f          	jal	x8,44f4 <failedtest_x8_x7>
     ab0:	00000aa0          	.word	0x00000aa0
     ab4:	000097d9          	.word	0x000097d9
     ab8:	00458593          	addi	x11,x11,4

# Testcase cp_rs2 (Test source rs2 = x27)
  RVTEST_TESTDATA_LOAD_INT(x21, x22) # load rs1: x22 = 0xe03b7aa2
     abc:	000aab03          	lw	x22,0(x21)
     ac0:	004a8a93          	addi	x21,x21,4
  RVTEST_TESTDATA_LOAD_INT(x21, x27) # load rs2: x27 = 0xf1d5f3b5
     ac4:	000aad83          	lw	x27,0(x21)
     ac8:	004a8a93          	addi	x21,x21,4

00000acc <I_sub_cg_cp_rs2_b27>:
I_sub_cg_cp_rs2_b27:
  sub x26, x22, x27 # perform operation
     acc:	41bb0d33          	sub	x26,x22,x27
  # Check if x26 contains the expected result. x11 is the signature ptr, x8 is the link ptr, x7 is a temp reg.
  RVTEST_SIGUPD(x11, x8, x7, x26, I_sub_cg_cp_rs2_b27, I_sub_cg_cp_rs2_b27_str)
     ad0:	0005a383          	lw	x7,0(x11)
     ad4:	01a38863          	beq	x7,x26,ae4 <I_sub_cg_cp_rs2_b27+0x18>
     ad8:	21d0346f          	jal	x8,44f4 <failedtest_x8_x7>
     adc:	00000acc          	.word	0x00000acc
     ae0:	00009808          	.word	0x00009808
     ae4:	00458593          	addi	x11,x11,4

# Testcase cp_rs2 (Test source rs2 = x28)
  RVTEST_TESTDATA_LOAD_INT(x21, x10) # load rs1: x10 = 0x20182e90
     ae8:	000aa503          	lw	x10,0(x21)
     aec:	004a8a93          	addi	x21,x21,4
  RVTEST_TESTDATA_LOAD_INT(x21, x28) # load rs2: x28 = 0xe644b79b
     af0:	000aae03          	lw	x28,0(x21)
     af4:	004a8a93          	addi	x21,x21,4

00000af8 <I_sub_cg_cp_rs2_b28>:
I_sub_cg_cp_rs2_b28:
  sub x5, x10, x28 # perform operation
     af8:	41c502b3          	sub	x5,x10,x28
  # Check if x5 contains the expected result. x11 is the signature ptr, x8 is the link ptr, x7 is a temp reg.
  RVTEST_SIGUPD(x11, x8, x7, x5, I_sub_cg_cp_rs2_b28, I_sub_cg_cp_rs2_b28_str)
     afc:	0005a383          	lw	x7,0(x11)
     b00:	00538863          	beq	x7,x5,b10 <I_sub_cg_cp_rs2_b28+0x18>
     b04:	1f10346f          	jal	x8,44f4 <failedtest_x8_x7>
     b08:	00000af8          	.word	0x00000af8
     b0c:	00009837          	.word	0x00009837
     b10:	00458593          	addi	x11,x11,4

# Testcase cp_rs2 (Test source rs2 = x29)
  RVTEST_TESTDATA_LOAD_INT(x21, x19) # load rs1: x19 = 0x2a28e521
     b14:	000aa983          	lw	x19,0(x21)
     b18:	004a8a93          	addi	x21,x21,4
  RVTEST_TESTDATA_LOAD_INT(x21, x29) # load rs2: x29 = 0x61130ce7
     b1c:	000aae83          	lw	x29,0(x21)
     b20:	004a8a93          	addi	x21,x21,4

00000b24 <I_sub_cg_cp_rs2_b29>:
I_sub_cg_cp_rs2_b29:
  sub x9, x19, x29 # perform operation
     b24:	41d984b3          	sub	x9,x19,x29
  # Check if x9 contains the expected result. x11 is the signature ptr, x8 is the link ptr, x7 is a temp reg.
  RVTEST_SIGUPD(x11, x8, x7, x9, I_sub_cg_cp_rs2_b29, I_sub_cg_cp_rs2_b29_str)
     b28:	0005a383          	lw	x7,0(x11)
     b2c:	00938863          	beq	x7,x9,b3c <I_sub_cg_cp_rs2_b29+0x18>
     b30:	1c50346f          	jal	x8,44f4 <failedtest_x8_x7>
     b34:	00000b24          	.word	0x00000b24
     b38:	00009866          	.word	0x00009866
     b3c:	00458593          	addi	x11,x11,4

# Testcase cp_rs2 (Test source rs2 = x30)
  RVTEST_TESTDATA_LOAD_INT(x21, x29) # load rs1: x29 = 0x6c03d12d
     b40:	000aae83          	lw	x29,0(x21)
     b44:	004a8a93          	addi	x21,x21,4
  RVTEST_TESTDATA_LOAD_INT(x21, x30) # load rs2: x30 = 0x77f947b1
     b48:	000aaf03          	lw	x30,0(x21)
     b4c:	004a8a93          	addi	x21,x21,4

00000b50 <I_sub_cg_cp_rs2_b30>:
I_sub_cg_cp_rs2_b30:
  sub x16, x29, x30 # perform operation
     b50:	41ee8833          	sub	x16,x29,x30
  # Check if x16 contains the expected result. x11 is the signature ptr, x8 is the link ptr, x7 is a temp reg.
  RVTEST_SIGUPD(x11, x8, x7, x16, I_sub_cg_cp_rs2_b30, I_sub_cg_cp_rs2_b30_str)
     b54:	0005a383          	lw	x7,0(x11)
     b58:	01038863          	beq	x7,x16,b68 <I_sub_cg_cp_rs2_b30+0x18>
     b5c:	1990346f          	jal	x8,44f4 <failedtest_x8_x7>
     b60:	00000b50          	.word	0x00000b50
     b64:	00009895          	.word	0x00009895
     b68:	00458593          	addi	x11,x11,4

# Testcase cp_rs2 (Test source rs2 = x31)
  RVTEST_TESTDATA_LOAD_INT(x21, x2) # load rs1: x2 = 0xadd05eab
     b6c:	000aa103          	lw	x2,0(x21)
     b70:	004a8a93          	addi	x21,x21,4
  RVTEST_TESTDATA_LOAD_INT(x21, x31) # load rs2: x31 = 0xecbd32e7
     b74:	000aaf83          	lw	x31,0(x21)
     b78:	004a8a93          	addi	x21,x21,4

00000b7c <I_sub_cg_cp_rs2_b31>:
I_sub_cg_cp_rs2_b31:
  sub x29, x2, x31 # perform operation
     b7c:	41f10eb3          	sub	x29,x2,x31
  # Check if x29 contains the expected result. x11 is the signature ptr, x8 is the link ptr, x7 is a temp reg.
  RVTEST_SIGUPD(x11, x8, x7, x29, I_sub_cg_cp_rs2_b31, I_sub_cg_cp_rs2_b31_str)
     b80:	0005a383          	lw	x7,0(x11)
     b84:	01d38863          	beq	x7,x29,b94 <I_sub_cg_cp_rs2_b31+0x18>
     b88:	16d0346f          	jal	x8,44f4 <failedtest_x8_x7>
     b8c:	00000b7c          	.word	0x00000b7c
     b90:	000098c4          	.word	0x000098c4
     b94:	00458593          	addi	x11,x11,4
/////////////////////////////////
// cp_rd
/////////////////////////////////

# Testcase cp_rd (Test destination rd = x0)
  RVTEST_TESTDATA_LOAD_INT(x21, x13) # load rs1: x13 = 0x70d8dc58
     b98:	000aa683          	lw	x13,0(x21)
     b9c:	004a8a93          	addi	x21,x21,4
  RVTEST_TESTDATA_LOAD_INT(x21, x14) # load rs2: x14 = 0x130efbee
     ba0:	000aa703          	lw	x14,0(x21)
     ba4:	004a8a93          	addi	x21,x21,4

00000ba8 <I_sub_cg_cp_rd_b0>:
I_sub_cg_cp_rd_b0:
  sub x0, x13, x14 # perform operation
     ba8:	40e68033          	sub	x0,x13,x14
  # Check if x0 contains the expected result. x11 is the signature ptr, x8 is the link ptr, x7 is a temp reg.
  RVTEST_SIGUPD(x11, x8, x7, x0, I_sub_cg_cp_rd_b0, I_sub_cg_cp_rd_b0_str)
     bac:	0005a383          	lw	x7,0(x11)
     bb0:	00038863          	beq	x7,x0,bc0 <I_sub_cg_cp_rd_b0+0x18>
     bb4:	1410346f          	jal	x8,44f4 <failedtest_x8_x7>
     bb8:	00000ba8          	.word	0x00000ba8
     bbc:	000098f3          	.word	0x000098f3
     bc0:	00458593          	addi	x11,x11,4

# Testcase cp_rd (Test destination rd = x1)
  RVTEST_TESTDATA_LOAD_INT(x21, x14) # load rs1: x14 = 0xccb92270
     bc4:	000aa703          	lw	x14,0(x21)
     bc8:	004a8a93          	addi	x21,x21,4
  RVTEST_TESTDATA_LOAD_INT(x21, x2) # load rs2: x2 = 0xfc955067
     bcc:	000aa103          	lw	x2,0(x21)
     bd0:	004a8a93          	addi	x21,x21,4

00000bd4 <I_sub_cg_cp_rd_b1>:
I_sub_cg_cp_rd_b1:
  sub x1, x14, x2 # perform operation
     bd4:	402700b3          	sub	x1,x14,x2
  # Check if x1 contains the expected result. x11 is the signature ptr, x8 is the link ptr, x7 is a temp reg.
  RVTEST_SIGUPD(x11, x8, x7, x1, I_sub_cg_cp_rd_b1, I_sub_cg_cp_rd_b1_str)
     bd8:	0005a383          	lw	x7,0(x11)
     bdc:	00138863          	beq	x7,x1,bec <I_sub_cg_cp_rd_b1+0x18>
     be0:	1150346f          	jal	x8,44f4 <failedtest_x8_x7>
     be4:	00000bd4          	.word	0x00000bd4
     be8:	00009920          	.word	0x00009920
     bec:	00458593          	addi	x11,x11,4

# Testcase cp_rd (Test destination rd = x2)
  RVTEST_TESTDATA_LOAD_INT(x21, x9) # load rs1: x9 = 0x93a437f7
     bf0:	000aa483          	lw	x9,0(x21)
     bf4:	004a8a93          	addi	x21,x21,4
  RVTEST_TESTDATA_LOAD_INT(x21, x30) # load rs2: x30 = 0x3fd32c09
     bf8:	000aaf03          	lw	x30,0(x21)
     bfc:	004a8a93          	addi	x21,x21,4

00000c00 <I_sub_cg_cp_rd_b2>:
I_sub_cg_cp_rd_b2:
  sub x2, x9, x30 # perform operation
     c00:	41e48133          	sub	x2,x9,x30
  # Check if x2 contains the expected result. x11 is the signature ptr, x8 is the link ptr, x7 is a temp reg.
  RVTEST_SIGUPD(x11, x8, x7, x2, I_sub_cg_cp_rd_b2, I_sub_cg_cp_rd_b2_str)
     c04:	0005a383          	lw	x7,0(x11)
     c08:	00238863          	beq	x7,x2,c18 <I_sub_cg_cp_rd_b2+0x18>
     c0c:	0e90346f          	jal	x8,44f4 <failedtest_x8_x7>
     c10:	00000c00          	.word	0x00000c00
     c14:	0000994d          	.word	0x0000994d
     c18:	00458593          	addi	x11,x11,4

# Testcase cp_rd (Test destination rd = x3)
  RVTEST_TESTDATA_LOAD_INT(x21, x15) # load rs1: x15 = 0x8bc992ce
     c1c:	000aa783          	lw	x15,0(x21)
     c20:	004a8a93          	addi	x21,x21,4
  RVTEST_TESTDATA_LOAD_INT(x21, x13) # load rs2: x13 = 0x2d2bd9d0
     c24:	000aa683          	lw	x13,0(x21)
     c28:	004a8a93          	addi	x21,x21,4

00000c2c <I_sub_cg_cp_rd_b3>:
I_sub_cg_cp_rd_b3:
  sub x3, x15, x13 # perform operation
     c2c:	40d781b3          	sub	x3,x15,x13
  # Check if x3 contains the expected result. x11 is the signature ptr, x8 is the link ptr, x7 is a temp reg.
  RVTEST_SIGUPD(x11, x8, x7, x3, I_sub_cg_cp_rd_b3, I_sub_cg_cp_rd_b3_str)
     c30:	0005a383          	lw	x7,0(x11)
     c34:	00338863          	beq	x7,x3,c44 <I_sub_cg_cp_rd_b3+0x18>
     c38:	0bd0346f          	jal	x8,44f4 <failedtest_x8_x7>
     c3c:	00000c2c          	.word	0x00000c2c
     c40:	0000997a          	.word	0x0000997a
     c44:	00458593          	addi	x11,x11,4

# Testcase cp_rd (Test destination rd = x4)
  RVTEST_TESTDATA_LOAD_INT(x21, x25) # load rs1: x25 = 0xa56e868d
     c48:	000aac83          	lw	x25,0(x21)
     c4c:	004a8a93          	addi	x21,x21,4
  RVTEST_TESTDATA_LOAD_INT(x21, x28) # load rs2: x28 = 0x498be09b
     c50:	000aae03          	lw	x28,0(x21)
     c54:	004a8a93          	addi	x21,x21,4

00000c58 <I_sub_cg_cp_rd_b4>:
I_sub_cg_cp_rd_b4:
  sub x4, x25, x28 # perform operation
     c58:	41cc8233          	sub	x4,x25,x28
  # Check if x4 contains the expected result. x11 is the signature ptr, x8 is the link ptr, x7 is a temp reg.
  RVTEST_SIGUPD(x11, x8, x7, x4, I_sub_cg_cp_rd_b4, I_sub_cg_cp_rd_b4_str)
     c5c:	0005a383          	lw	x7,0(x11)
     c60:	00438863          	beq	x7,x4,c70 <I_sub_cg_cp_rd_b4+0x18>
     c64:	0910346f          	jal	x8,44f4 <failedtest_x8_x7>
     c68:	00000c58          	.word	0x00000c58
     c6c:	000099a7          	.word	0x000099a7
     c70:	00458593          	addi	x11,x11,4

# Testcase cp_rd (Test destination rd = x5)
  RVTEST_TESTDATA_LOAD_INT(x21, x18) # load rs1: x18 = 0xb9523266
     c74:	000aa903          	lw	x18,0(x21)
     c78:	004a8a93          	addi	x21,x21,4
  RVTEST_TESTDATA_LOAD_INT(x21, x4) # load rs2: x4 = 0xd66fe676
     c7c:	000aa203          	lw	x4,0(x21)
     c80:	004a8a93          	addi	x21,x21,4

00000c84 <I_sub_cg_cp_rd_b5>:
I_sub_cg_cp_rd_b5:
  sub x5, x18, x4 # perform operation
     c84:	404902b3          	sub	x5,x18,x4
  # Check if x5 contains the expected result. x11 is the signature ptr, x8 is the link ptr, x7 is a temp reg.
  RVTEST_SIGUPD(x11, x8, x7, x5, I_sub_cg_cp_rd_b5, I_sub_cg_cp_rd_b5_str)
     c88:	0005a383          	lw	x7,0(x11)
     c8c:	00538863          	beq	x7,x5,c9c <I_sub_cg_cp_rd_b5+0x18>
     c90:	0650346f          	jal	x8,44f4 <failedtest_x8_x7>
     c94:	00000c84          	.word	0x00000c84
     c98:	000099d4          	.word	0x000099d4
     c9c:	00458593          	addi	x11,x11,4

# Testcase cp_rd (Test destination rd = x6)
  RVTEST_TESTDATA_LOAD_INT(x21, x18) # load rs1: x18 = 0x073a74fe
     ca0:	000aa903          	lw	x18,0(x21)
     ca4:	004a8a93          	addi	x21,x21,4
  RVTEST_TESTDATA_LOAD_INT(x21, x12) # load rs2: x12 = 0xa14d5a68
     ca8:	000aa603          	lw	x12,0(x21)
     cac:	004a8a93          	addi	x21,x21,4

00000cb0 <I_sub_cg_cp_rd_b6>:
I_sub_cg_cp_rd_b6:
  sub x6, x18, x12 # perform operation
     cb0:	40c90333          	sub	x6,x18,x12
  # Check if x6 contains the expected result. x11 is the signature ptr, x8 is the link ptr, x7 is a temp reg.
  RVTEST_SIGUPD(x11, x8, x7, x6, I_sub_cg_cp_rd_b6, I_sub_cg_cp_rd_b6_str)
     cb4:	0005a383          	lw	x7,0(x11)
     cb8:	00638863          	beq	x7,x6,cc8 <I_sub_cg_cp_rd_b6+0x18>
     cbc:	0390346f          	jal	x8,44f4 <failedtest_x8_x7>
     cc0:	00000cb0          	.word	0x00000cb0
     cc4:	00009a01          	.word	0x00009a01
     cc8:	00458593          	addi	x11,x11,4

  mv x4, x7 # switch temp register to avoid conflict with test
     ccc:	00038213          	addi	x4,x7,0
  mv x5, x8 # switch link pointer register to avoid conflict with test
     cd0:	00040293          	addi	x5,x8,0
# Testcase cp_rd (Test destination rd = x7)
  RVTEST_TESTDATA_LOAD_INT(x21, x30) # load rs1: x30 = 0x70a39e51
     cd4:	000aaf03          	lw	x30,0(x21)
     cd8:	004a8a93          	addi	x21,x21,4
  RVTEST_TESTDATA_LOAD_INT(x21, x22) # load rs2: x22 = 0x1ccf10c8
     cdc:	000aab03          	lw	x22,0(x21)
     ce0:	004a8a93          	addi	x21,x21,4

00000ce4 <I_sub_cg_cp_rd_b7>:
I_sub_cg_cp_rd_b7:
  sub x7, x30, x22 # perform operation
     ce4:	416f03b3          	sub	x7,x30,x22
  # Check if x7 contains the expected result. x11 is the signature ptr, x5 is the link ptr, x4 is a temp reg.
  RVTEST_SIGUPD(x11, x5, x4, x7, I_sub_cg_cp_rd_b7, I_sub_cg_cp_rd_b7_str)
     ce8:	0005a203          	lw	x4,0(x11)
     cec:	00720863          	beq	x4,x7,cfc <I_sub_cg_cp_rd_b7+0x18>
     cf0:	7ec032ef          	jal	x5,44dc <failedtest_x5_x4>
     cf4:	00000ce4          	.word	0x00000ce4
     cf8:	00009a2e          	.word	0x00009a2e
     cfc:	00458593          	addi	x11,x11,4

# Testcase cp_rd (Test destination rd = x8)
  RVTEST_TESTDATA_LOAD_INT(x21, x28) # load rs1: x28 = 0xab185be9
     d00:	000aae03          	lw	x28,0(x21)
     d04:	004a8a93          	addi	x21,x21,4
  RVTEST_TESTDATA_LOAD_INT(x21, x23) # load rs2: x23 = 0xb8db53f9
     d08:	000aab83          	lw	x23,0(x21)
     d0c:	004a8a93          	addi	x21,x21,4

00000d10 <I_sub_cg_cp_rd_b8>:
I_sub_cg_cp_rd_b8:
  sub x8, x28, x23 # perform operation
     d10:	417e0433          	sub	x8,x28,x23
  # Check if x8 contains the expected result. x11 is the signature ptr, x5 is the link ptr, x4 is a temp reg.
  RVTEST_SIGUPD(x11, x5, x4, x8, I_sub_cg_cp_rd_b8, I_sub_cg_cp_rd_b8_str)
     d14:	0005a203          	lw	x4,0(x11)
     d18:	00820863          	beq	x4,x8,d28 <I_sub_cg_cp_rd_b8+0x18>
     d1c:	7c0032ef          	jal	x5,44dc <failedtest_x5_x4>
     d20:	00000d10          	.word	0x00000d10
     d24:	00009a5b          	.word	0x00009a5b
     d28:	00458593          	addi	x11,x11,4

# Testcase cp_rd (Test destination rd = x9)
  RVTEST_TESTDATA_LOAD_INT(x21, x27) # load rs1: x27 = 0x3133ca97
     d2c:	000aad83          	lw	x27,0(x21)
     d30:	004a8a93          	addi	x21,x21,4
  RVTEST_TESTDATA_LOAD_INT(x21, x18) # load rs2: x18 = 0x985baea7
     d34:	000aa903          	lw	x18,0(x21)
     d38:	004a8a93          	addi	x21,x21,4

00000d3c <I_sub_cg_cp_rd_b9>:
I_sub_cg_cp_rd_b9:
  sub x9, x27, x18 # perform operation
     d3c:	412d84b3          	sub	x9,x27,x18
  # Check if x9 contains the expected result. x11 is the signature ptr, x5 is the link ptr, x4 is a temp reg.
  RVTEST_SIGUPD(x11, x5, x4, x9, I_sub_cg_cp_rd_b9, I_sub_cg_cp_rd_b9_str)
     d40:	0005a203          	lw	x4,0(x11)
     d44:	00920863          	beq	x4,x9,d54 <I_sub_cg_cp_rd_b9+0x18>
     d48:	794032ef          	jal	x5,44dc <failedtest_x5_x4>
     d4c:	00000d3c          	.word	0x00000d3c
     d50:	00009a88          	.word	0x00009a88
     d54:	00458593          	addi	x11,x11,4

# Testcase cp_rd (Test destination rd = x10)
  RVTEST_TESTDATA_LOAD_INT(x21, x17) # load rs1: x17 = 0xcb22f03b
     d58:	000aa883          	lw	x17,0(x21)
     d5c:	004a8a93          	addi	x21,x21,4
  RVTEST_TESTDATA_LOAD_INT(x21, x19) # load rs2: x19 = 0xc08c84bf
     d60:	000aa983          	lw	x19,0(x21)
     d64:	004a8a93          	addi	x21,x21,4

00000d68 <I_sub_cg_cp_rd_b10>:
I_sub_cg_cp_rd_b10:
  sub x10, x17, x19 # perform operation
     d68:	41388533          	sub	x10,x17,x19
  # Check if x10 contains the expected result. x11 is the signature ptr, x5 is the link ptr, x4 is a temp reg.
  RVTEST_SIGUPD(x11, x5, x4, x10, I_sub_cg_cp_rd_b10, I_sub_cg_cp_rd_b10_str)
     d6c:	0005a203          	lw	x4,0(x11)
     d70:	00a20863          	beq	x4,x10,d80 <I_sub_cg_cp_rd_b10+0x18>
     d74:	768032ef          	jal	x5,44dc <failedtest_x5_x4>
     d78:	00000d68          	.word	0x00000d68
     d7c:	00009ab5          	.word	0x00009ab5
     d80:	00458593          	addi	x11,x11,4

  mv x23, x11 # switch signature pointer register to avoid conflict with test
     d84:	00058b93          	addi	x23,x11,0
# Testcase cp_rd (Test destination rd = x11)
  RVTEST_TESTDATA_LOAD_INT(x21, x19) # load rs1: x19 = 0xcc9283da
     d88:	000aa983          	lw	x19,0(x21)
     d8c:	004a8a93          	addi	x21,x21,4
  RVTEST_TESTDATA_LOAD_INT(x21, x7) # load rs2: x7 = 0xe3bd083e
     d90:	000aa383          	lw	x7,0(x21)
     d94:	004a8a93          	addi	x21,x21,4

00000d98 <I_sub_cg_cp_rd_b11>:
I_sub_cg_cp_rd_b11:
  sub x11, x19, x7 # perform operation
     d98:	407985b3          	sub	x11,x19,x7
  # Check if x11 contains the expected result. x23 is the signature ptr, x5 is the link ptr, x4 is a temp reg.
  RVTEST_SIGUPD(x23, x5, x4, x11, I_sub_cg_cp_rd_b11, I_sub_cg_cp_rd_b11_str)
     d9c:	000ba203          	lw	x4,0(x23)
     da0:	00b20863          	beq	x4,x11,db0 <I_sub_cg_cp_rd_b11+0x18>
     da4:	738032ef          	jal	x5,44dc <failedtest_x5_x4>
     da8:	00000d98          	.word	0x00000d98
     dac:	00009ae3          	.word	0x00009ae3
     db0:	004b8b93          	addi	x23,x23,4

# Testcase cp_rd (Test destination rd = x12)
  RVTEST_TESTDATA_LOAD_INT(x21, x13) # load rs1: x13 = 0x8602db6d
     db4:	000aa683          	lw	x13,0(x21)
     db8:	004a8a93          	addi	x21,x21,4
  RVTEST_TESTDATA_LOAD_INT(x21, x0) # load rs2: x0 = 0xb308df38
     dbc:	000aa003          	lw	x0,0(x21)
     dc0:	004a8a93          	addi	x21,x21,4

00000dc4 <I_sub_cg_cp_rd_b12>:
I_sub_cg_cp_rd_b12:
  sub x12, x13, x0 # perform operation
     dc4:	40068633          	sub	x12,x13,x0
  # Check if x12 contains the expected result. x23 is the signature ptr, x5 is the link ptr, x4 is a temp reg.
  RVTEST_SIGUPD(x23, x5, x4, x12, I_sub_cg_cp_rd_b12, I_sub_cg_cp_rd_b12_str)
     dc8:	000ba203          	lw	x4,0(x23)
     dcc:	00c20863          	beq	x4,x12,ddc <I_sub_cg_cp_rd_b12+0x18>
     dd0:	70c032ef          	jal	x5,44dc <failedtest_x5_x4>
     dd4:	00000dc4          	.word	0x00000dc4
     dd8:	00009b11          	.word	0x00009b11
     ddc:	004b8b93          	addi	x23,x23,4

# Testcase cp_rd (Test destination rd = x13)
  RVTEST_TESTDATA_LOAD_INT(x21, x8) # load rs1: x8 = 0xdecda46d
     de0:	000aa403          	lw	x8,0(x21)
     de4:	004a8a93          	addi	x21,x21,4
  RVTEST_TESTDATA_LOAD_INT(x21, x22) # load rs2: x22 = 0xe364952b
     de8:	000aab03          	lw	x22,0(x21)
     dec:	004a8a93          	addi	x21,x21,4

00000df0 <I_sub_cg_cp_rd_b13>:
I_sub_cg_cp_rd_b13:
  sub x13, x8, x22 # perform operation
     df0:	416406b3          	sub	x13,x8,x22
  # Check if x13 contains the expected result. x23 is the signature ptr, x5 is the link ptr, x4 is a temp reg.
  RVTEST_SIGUPD(x23, x5, x4, x13, I_sub_cg_cp_rd_b13, I_sub_cg_cp_rd_b13_str)
     df4:	000ba203          	lw	x4,0(x23)
     df8:	00d20863          	beq	x4,x13,e08 <I_sub_cg_cp_rd_b13+0x18>
     dfc:	6e0032ef          	jal	x5,44dc <failedtest_x5_x4>
     e00:	00000df0          	.word	0x00000df0
     e04:	00009b3f          	.word	0x00009b3f
     e08:	004b8b93          	addi	x23,x23,4

# Testcase cp_rd (Test destination rd = x14)
  RVTEST_TESTDATA_LOAD_INT(x21, x19) # load rs1: x19 = 0xe740bdc2
     e0c:	000aa983          	lw	x19,0(x21)
     e10:	004a8a93          	addi	x21,x21,4
  RVTEST_TESTDATA_LOAD_INT(x21, x6) # load rs2: x6 = 0x8ff5ce57
     e14:	000aa303          	lw	x6,0(x21)
     e18:	004a8a93          	addi	x21,x21,4

00000e1c <I_sub_cg_cp_rd_b14>:
I_sub_cg_cp_rd_b14:
  sub x14, x19, x6 # perform operation
     e1c:	40698733          	sub	x14,x19,x6
  # Check if x14 contains the expected result. x23 is the signature ptr, x5 is the link ptr, x4 is a temp reg.
  RVTEST_SIGUPD(x23, x5, x4, x14, I_sub_cg_cp_rd_b14, I_sub_cg_cp_rd_b14_str)
     e20:	000ba203          	lw	x4,0(x23)
     e24:	00e20863          	beq	x4,x14,e34 <I_sub_cg_cp_rd_b14+0x18>
     e28:	6b4032ef          	jal	x5,44dc <failedtest_x5_x4>
     e2c:	00000e1c          	.word	0x00000e1c
     e30:	00009b6d          	.word	0x00009b6d
     e34:	004b8b93          	addi	x23,x23,4

# Testcase cp_rd (Test destination rd = x15)
  RVTEST_TESTDATA_LOAD_INT(x21, x11) # load rs1: x11 = 0xeb82e645
     e38:	000aa583          	lw	x11,0(x21)
     e3c:	004a8a93          	addi	x21,x21,4
  RVTEST_TESTDATA_LOAD_INT(x21, x12) # load rs2: x12 = 0x47879239
     e40:	000aa603          	lw	x12,0(x21)
     e44:	004a8a93          	addi	x21,x21,4

00000e48 <I_sub_cg_cp_rd_b15>:
I_sub_cg_cp_rd_b15:
  sub x15, x11, x12 # perform operation
     e48:	40c587b3          	sub	x15,x11,x12
  # Check if x15 contains the expected result. x23 is the signature ptr, x5 is the link ptr, x4 is a temp reg.
  RVTEST_SIGUPD(x23, x5, x4, x15, I_sub_cg_cp_rd_b15, I_sub_cg_cp_rd_b15_str)
     e4c:	000ba203          	lw	x4,0(x23)
     e50:	00f20863          	beq	x4,x15,e60 <I_sub_cg_cp_rd_b15+0x18>
     e54:	688032ef          	jal	x5,44dc <failedtest_x5_x4>
     e58:	00000e48          	.word	0x00000e48
     e5c:	00009b9b          	.word	0x00009b9b
     e60:	004b8b93          	addi	x23,x23,4

# Testcase cp_rd (Test destination rd = x16)
  RVTEST_TESTDATA_LOAD_INT(x21, x6) # load rs1: x6 = 0xa6c51350
     e64:	000aa303          	lw	x6,0(x21)
     e68:	004a8a93          	addi	x21,x21,4
  RVTEST_TESTDATA_LOAD_INT(x21, x25) # load rs2: x25 = 0xb65dc882
     e6c:	000aac83          	lw	x25,0(x21)
     e70:	004a8a93          	addi	x21,x21,4

00000e74 <I_sub_cg_cp_rd_b16>:
I_sub_cg_cp_rd_b16:
  sub x16, x6, x25 # perform operation
     e74:	41930833          	sub	x16,x6,x25
  # Check if x16 contains the expected result. x23 is the signature ptr, x5 is the link ptr, x4 is a temp reg.
  RVTEST_SIGUPD(x23, x5, x4, x16, I_sub_cg_cp_rd_b16, I_sub_cg_cp_rd_b16_str)
     e78:	000ba203          	lw	x4,0(x23)
     e7c:	01020863          	beq	x4,x16,e8c <I_sub_cg_cp_rd_b16+0x18>
     e80:	65c032ef          	jal	x5,44dc <failedtest_x5_x4>
     e84:	00000e74          	.word	0x00000e74
     e88:	00009bc9          	.word	0x00009bc9
     e8c:	004b8b93          	addi	x23,x23,4

# Testcase cp_rd (Test destination rd = x17)
  RVTEST_TESTDATA_LOAD_INT(x21, x16) # load rs1: x16 = 0x1355545d
     e90:	000aa803          	lw	x16,0(x21)
     e94:	004a8a93          	addi	x21,x21,4
  RVTEST_TESTDATA_LOAD_INT(x21, x10) # load rs2: x10 = 0x196466e5
     e98:	000aa503          	lw	x10,0(x21)
     e9c:	004a8a93          	addi	x21,x21,4

00000ea0 <I_sub_cg_cp_rd_b17>:
I_sub_cg_cp_rd_b17:
  sub x17, x16, x10 # perform operation
     ea0:	40a808b3          	sub	x17,x16,x10
  # Check if x17 contains the expected result. x23 is the signature ptr, x5 is the link ptr, x4 is a temp reg.
  RVTEST_SIGUPD(x23, x5, x4, x17, I_sub_cg_cp_rd_b17, I_sub_cg_cp_rd_b17_str)
     ea4:	000ba203          	lw	x4,0(x23)
     ea8:	01120863          	beq	x4,x17,eb8 <I_sub_cg_cp_rd_b17+0x18>
     eac:	630032ef          	jal	x5,44dc <failedtest_x5_x4>
     eb0:	00000ea0          	.word	0x00000ea0
     eb4:	00009bf7          	.word	0x00009bf7
     eb8:	004b8b93          	addi	x23,x23,4

# Testcase cp_rd (Test destination rd = x18)
  RVTEST_TESTDATA_LOAD_INT(x21, x31) # load rs1: x31 = 0xa15c150d
     ebc:	000aaf83          	lw	x31,0(x21)
     ec0:	004a8a93          	addi	x21,x21,4
  RVTEST_TESTDATA_LOAD_INT(x21, x19) # load rs2: x19 = 0x48e8d093
     ec4:	000aa983          	lw	x19,0(x21)
     ec8:	004a8a93          	addi	x21,x21,4

00000ecc <I_sub_cg_cp_rd_b18>:
I_sub_cg_cp_rd_b18:
  sub x18, x31, x19 # perform operation
     ecc:	413f8933          	sub	x18,x31,x19
  # Check if x18 contains the expected result. x23 is the signature ptr, x5 is the link ptr, x4 is a temp reg.
  RVTEST_SIGUPD(x23, x5, x4, x18, I_sub_cg_cp_rd_b18, I_sub_cg_cp_rd_b18_str)
     ed0:	000ba203          	lw	x4,0(x23)
     ed4:	01220863          	beq	x4,x18,ee4 <I_sub_cg_cp_rd_b18+0x18>
     ed8:	604032ef          	jal	x5,44dc <failedtest_x5_x4>
     edc:	00000ecc          	.word	0x00000ecc
     ee0:	00009c25          	.word	0x00009c25
     ee4:	004b8b93          	addi	x23,x23,4

# Testcase cp_rd (Test destination rd = x19)
  RVTEST_TESTDATA_LOAD_INT(x21, x3) # load rs1: x3 = 0x76b08c0f
     ee8:	000aa183          	lw	x3,0(x21)
     eec:	004a8a93          	addi	x21,x21,4
  RVTEST_TESTDATA_LOAD_INT(x21, x30) # load rs2: x30 = 0x3621cc62
     ef0:	000aaf03          	lw	x30,0(x21)
     ef4:	004a8a93          	addi	x21,x21,4

00000ef8 <I_sub_cg_cp_rd_b19>:
I_sub_cg_cp_rd_b19:
  sub x19, x3, x30 # perform operation
     ef8:	41e189b3          	sub	x19,x3,x30
  # Check if x19 contains the expected result. x23 is the signature ptr, x5 is the link ptr, x4 is a temp reg.
  RVTEST_SIGUPD(x23, x5, x4, x19, I_sub_cg_cp_rd_b19, I_sub_cg_cp_rd_b19_str)
     efc:	000ba203          	lw	x4,0(x23)
     f00:	01320863          	beq	x4,x19,f10 <I_sub_cg_cp_rd_b19+0x18>
     f04:	5d8032ef          	jal	x5,44dc <failedtest_x5_x4>
     f08:	00000ef8          	.word	0x00000ef8
     f0c:	00009c53          	.word	0x00009c53
     f10:	004b8b93          	addi	x23,x23,4

# Testcase cp_rd (Test destination rd = x20)
  RVTEST_TESTDATA_LOAD_INT(x21, x22) # load rs1: x22 = 0x345be6b0
     f14:	000aab03          	lw	x22,0(x21)
     f18:	004a8a93          	addi	x21,x21,4
  RVTEST_TESTDATA_LOAD_INT(x21, x15) # load rs2: x15 = 0x067f55e9
     f1c:	000aa783          	lw	x15,0(x21)
     f20:	004a8a93          	addi	x21,x21,4

00000f24 <I_sub_cg_cp_rd_b20>:
I_sub_cg_cp_rd_b20:
  sub x20, x22, x15 # perform operation
     f24:	40fb0a33          	sub	x20,x22,x15
  # Check if x20 contains the expected result. x23 is the signature ptr, x5 is the link ptr, x4 is a temp reg.
  RVTEST_SIGUPD(x23, x5, x4, x20, I_sub_cg_cp_rd_b20, I_sub_cg_cp_rd_b20_str)
     f28:	000ba203          	lw	x4,0(x23)
     f2c:	01420863          	beq	x4,x20,f3c <I_sub_cg_cp_rd_b20+0x18>
     f30:	5ac032ef          	jal	x5,44dc <failedtest_x5_x4>
     f34:	00000f24          	.word	0x00000f24
     f38:	00009c81          	.word	0x00009c81
     f3c:	004b8b93          	addi	x23,x23,4

  mv x20, x21 # switch data pointer register to avoid conflict with test
     f40:	000a8a13          	addi	x20,x21,0
# Testcase cp_rd (Test destination rd = x21)
  RVTEST_TESTDATA_LOAD_INT(x20, x6) # load rs1: x6 = 0x2ae75375
     f44:	000a2303          	lw	x6,0(x20)
     f48:	004a0a13          	addi	x20,x20,4
  RVTEST_TESTDATA_LOAD_INT(x20, x30) # load rs2: x30 = 0x835393c2
     f4c:	000a2f03          	lw	x30,0(x20)
     f50:	004a0a13          	addi	x20,x20,4

00000f54 <I_sub_cg_cp_rd_b21>:
I_sub_cg_cp_rd_b21:
  sub x21, x6, x30 # perform operation
     f54:	41e30ab3          	sub	x21,x6,x30
  # Check if x21 contains the expected result. x23 is the signature ptr, x5 is the link ptr, x4 is a temp reg.
  RVTEST_SIGUPD(x23, x5, x4, x21, I_sub_cg_cp_rd_b21, I_sub_cg_cp_rd_b21_str)
     f58:	000ba203          	lw	x4,0(x23)
     f5c:	01520863          	beq	x4,x21,f6c <I_sub_cg_cp_rd_b21+0x18>
     f60:	57c032ef          	jal	x5,44dc <failedtest_x5_x4>
     f64:	00000f54          	.word	0x00000f54
     f68:	00009caf          	.word	0x00009caf
     f6c:	004b8b93          	addi	x23,x23,4

# Testcase cp_rd (Test destination rd = x22)
  RVTEST_TESTDATA_LOAD_INT(x20, x10) # load rs1: x10 = 0xf36cb020
     f70:	000a2503          	lw	x10,0(x20)
     f74:	004a0a13          	addi	x20,x20,4
  RVTEST_TESTDATA_LOAD_INT(x20, x18) # load rs2: x18 = 0x521c63ae
     f78:	000a2903          	lw	x18,0(x20)
     f7c:	004a0a13          	addi	x20,x20,4

00000f80 <I_sub_cg_cp_rd_b22>:
I_sub_cg_cp_rd_b22:
  sub x22, x10, x18 # perform operation
     f80:	41250b33          	sub	x22,x10,x18
  # Check if x22 contains the expected result. x23 is the signature ptr, x5 is the link ptr, x4 is a temp reg.
  RVTEST_SIGUPD(x23, x5, x4, x22, I_sub_cg_cp_rd_b22, I_sub_cg_cp_rd_b22_str)
     f84:	000ba203          	lw	x4,0(x23)
     f88:	01620863          	beq	x4,x22,f98 <I_sub_cg_cp_rd_b22+0x18>
     f8c:	550032ef          	jal	x5,44dc <failedtest_x5_x4>
     f90:	00000f80          	.word	0x00000f80
     f94:	00009cdd          	.word	0x00009cdd
     f98:	004b8b93          	addi	x23,x23,4

  mv x9, x23 # switch signature pointer register to avoid conflict with test
     f9c:	000b8493          	addi	x9,x23,0
# Testcase cp_rd (Test destination rd = x23)
  RVTEST_TESTDATA_LOAD_INT(x20, x7) # load rs1: x7 = 0x34b2aefe
     fa0:	000a2383          	lw	x7,0(x20)
     fa4:	004a0a13          	addi	x20,x20,4
  RVTEST_TESTDATA_LOAD_INT(x20, x11) # load rs2: x11 = 0x57d5118c
     fa8:	000a2583          	lw	x11,0(x20)
     fac:	004a0a13          	addi	x20,x20,4

00000fb0 <I_sub_cg_cp_rd_b23>:
I_sub_cg_cp_rd_b23:
  sub x23, x7, x11 # perform operation
     fb0:	40b38bb3          	sub	x23,x7,x11
  # Check if x23 contains the expected result. x9 is the signature ptr, x5 is the link ptr, x4 is a temp reg.
  RVTEST_SIGUPD(x9, x5, x4, x23, I_sub_cg_cp_rd_b23, I_sub_cg_cp_rd_b23_str)
     fb4:	0004a203          	lw	x4,0(x9)
     fb8:	01720863          	beq	x4,x23,fc8 <I_sub_cg_cp_rd_b23+0x18>
     fbc:	520032ef          	jal	x5,44dc <failedtest_x5_x4>
     fc0:	00000fb0          	.word	0x00000fb0
     fc4:	00009d0b          	.word	0x00009d0b
     fc8:	00448493          	addi	x9,x9,4

# Testcase cp_rd (Test destination rd = x24)
  RVTEST_TESTDATA_LOAD_INT(x20, x27) # load rs1: x27 = 0xc2fe8e80
     fcc:	000a2d83          	lw	x27,0(x20)
     fd0:	004a0a13          	addi	x20,x20,4
  RVTEST_TESTDATA_LOAD_INT(x20, x23) # load rs2: x23 = 0x2a099c2b
     fd4:	000a2b83          	lw	x23,0(x20)
     fd8:	004a0a13          	addi	x20,x20,4

00000fdc <I_sub_cg_cp_rd_b24>:
I_sub_cg_cp_rd_b24:
  sub x24, x27, x23 # perform operation
     fdc:	417d8c33          	sub	x24,x27,x23
  # Check if x24 contains the expected result. x9 is the signature ptr, x5 is the link ptr, x4 is a temp reg.
  RVTEST_SIGUPD(x9, x5, x4, x24, I_sub_cg_cp_rd_b24, I_sub_cg_cp_rd_b24_str)
     fe0:	0004a203          	lw	x4,0(x9)
     fe4:	01820863          	beq	x4,x24,ff4 <I_sub_cg_cp_rd_b24+0x18>
     fe8:	4f4032ef          	jal	x5,44dc <failedtest_x5_x4>
     fec:	00000fdc          	.word	0x00000fdc
     ff0:	00009d39          	.word	0x00009d39
     ff4:	00448493          	addi	x9,x9,4

# Testcase cp_rd (Test destination rd = x25)
  RVTEST_TESTDATA_LOAD_INT(x20, x19) # load rs1: x19 = 0x1e06d399
     ff8:	000a2983          	lw	x19,0(x20)
     ffc:	004a0a13          	addi	x20,x20,4
  RVTEST_TESTDATA_LOAD_INT(x20, x6) # load rs2: x6 = 0xe27ce966
    1000:	000a2303          	lw	x6,0(x20)
    1004:	004a0a13          	addi	x20,x20,4

00001008 <I_sub_cg_cp_rd_b25>:
I_sub_cg_cp_rd_b25:
  sub x25, x19, x6 # perform operation
    1008:	40698cb3          	sub	x25,x19,x6
  # Check if x25 contains the expected result. x9 is the signature ptr, x5 is the link ptr, x4 is a temp reg.
  RVTEST_SIGUPD(x9, x5, x4, x25, I_sub_cg_cp_rd_b25, I_sub_cg_cp_rd_b25_str)
    100c:	0004a203          	lw	x4,0(x9)
    1010:	01920863          	beq	x4,x25,1020 <I_sub_cg_cp_rd_b25+0x18>
    1014:	4c8032ef          	jal	x5,44dc <failedtest_x5_x4>
    1018:	00001008          	.word	0x00001008
    101c:	00009d67          	.word	0x00009d67
    1020:	00448493          	addi	x9,x9,4

# Testcase cp_rd (Test destination rd = x26)
  RVTEST_TESTDATA_LOAD_INT(x20, x23) # load rs1: x23 = 0x297438a5
    1024:	000a2b83          	lw	x23,0(x20)
    1028:	004a0a13          	addi	x20,x20,4
  RVTEST_TESTDATA_LOAD_INT(x20, x27) # load rs2: x27 = 0x0ae34eee
    102c:	000a2d83          	lw	x27,0(x20)
    1030:	004a0a13          	addi	x20,x20,4

00001034 <I_sub_cg_cp_rd_b26>:
I_sub_cg_cp_rd_b26:
  sub x26, x23, x27 # perform operation
    1034:	41bb8d33          	sub	x26,x23,x27
  # Check if x26 contains the expected result. x9 is the signature ptr, x5 is the link ptr, x4 is a temp reg.
  RVTEST_SIGUPD(x9, x5, x4, x26, I_sub_cg_cp_rd_b26, I_sub_cg_cp_rd_b26_str)
    1038:	0004a203          	lw	x4,0(x9)
    103c:	01a20863          	beq	x4,x26,104c <I_sub_cg_cp_rd_b26+0x18>
    1040:	49c032ef          	jal	x5,44dc <failedtest_x5_x4>
    1044:	00001034          	.word	0x00001034
    1048:	00009d95          	.word	0x00009d95
    104c:	00448493          	addi	x9,x9,4

# Testcase cp_rd (Test destination rd = x27)
  RVTEST_TESTDATA_LOAD_INT(x20, x21) # load rs1: x21 = 0x553f0451
    1050:	000a2a83          	lw	x21,0(x20)
    1054:	004a0a13          	addi	x20,x20,4
  RVTEST_TESTDATA_LOAD_INT(x20, x23) # load rs2: x23 = 0x43aa9df3
    1058:	000a2b83          	lw	x23,0(x20)
    105c:	004a0a13          	addi	x20,x20,4

00001060 <I_sub_cg_cp_rd_b27>:
I_sub_cg_cp_rd_b27:
  sub x27, x21, x23 # perform operation
    1060:	417a8db3          	sub	x27,x21,x23
  # Check if x27 contains the expected result. x9 is the signature ptr, x5 is the link ptr, x4 is a temp reg.
  RVTEST_SIGUPD(x9, x5, x4, x27, I_sub_cg_cp_rd_b27, I_sub_cg_cp_rd_b27_str)
    1064:	0004a203          	lw	x4,0(x9)
    1068:	01b20863          	beq	x4,x27,1078 <I_sub_cg_cp_rd_b27+0x18>
    106c:	470032ef          	jal	x5,44dc <failedtest_x5_x4>
    1070:	00001060          	.word	0x00001060
    1074:	00009dc3          	.word	0x00009dc3
    1078:	00448493          	addi	x9,x9,4

# Testcase cp_rd (Test destination rd = x28)
  RVTEST_TESTDATA_LOAD_INT(x20, x22) # load rs1: x22 = 0xfe67bd74
    107c:	000a2b03          	lw	x22,0(x20)
    1080:	004a0a13          	addi	x20,x20,4
  RVTEST_TESTDATA_LOAD_INT(x20, x0) # load rs2: x0 = 0xd5c3c9d8
    1084:	000a2003          	lw	x0,0(x20)
    1088:	004a0a13          	addi	x20,x20,4

0000108c <I_sub_cg_cp_rd_b28>:
I_sub_cg_cp_rd_b28:
  sub x28, x22, x0 # perform operation
    108c:	400b0e33          	sub	x28,x22,x0
  # Check if x28 contains the expected result. x9 is the signature ptr, x5 is the link ptr, x4 is a temp reg.
  RVTEST_SIGUPD(x9, x5, x4, x28, I_sub_cg_cp_rd_b28, I_sub_cg_cp_rd_b28_str)
    1090:	0004a203          	lw	x4,0(x9)
    1094:	01c20863          	beq	x4,x28,10a4 <I_sub_cg_cp_rd_b28+0x18>
    1098:	444032ef          	jal	x5,44dc <failedtest_x5_x4>
    109c:	0000108c          	.word	0x0000108c
    10a0:	00009df1          	.word	0x00009df1
    10a4:	00448493          	addi	x9,x9,4

# Testcase cp_rd (Test destination rd = x29)
  RVTEST_TESTDATA_LOAD_INT(x20, x30) # load rs1: x30 = 0x92a6560c
    10a8:	000a2f03          	lw	x30,0(x20)
    10ac:	004a0a13          	addi	x20,x20,4
  RVTEST_TESTDATA_LOAD_INT(x20, x10) # load rs2: x10 = 0xb457819e
    10b0:	000a2503          	lw	x10,0(x20)
    10b4:	004a0a13          	addi	x20,x20,4

000010b8 <I_sub_cg_cp_rd_b29>:
I_sub_cg_cp_rd_b29:
  sub x29, x30, x10 # perform operation
    10b8:	40af0eb3          	sub	x29,x30,x10
  # Check if x29 contains the expected result. x9 is the signature ptr, x5 is the link ptr, x4 is a temp reg.
  RVTEST_SIGUPD(x9, x5, x4, x29, I_sub_cg_cp_rd_b29, I_sub_cg_cp_rd_b29_str)
    10bc:	0004a203          	lw	x4,0(x9)
    10c0:	01d20863          	beq	x4,x29,10d0 <I_sub_cg_cp_rd_b29+0x18>
    10c4:	418032ef          	jal	x5,44dc <failedtest_x5_x4>
    10c8:	000010b8          	.word	0x000010b8
    10cc:	00009e1f          	.word	0x00009e1f
    10d0:	00448493          	addi	x9,x9,4

# Testcase cp_rd (Test destination rd = x30)
  RVTEST_TESTDATA_LOAD_INT(x20, x31) # load rs1: x31 = 0xe4a0a315
    10d4:	000a2f83          	lw	x31,0(x20)
    10d8:	004a0a13          	addi	x20,x20,4
  RVTEST_TESTDATA_LOAD_INT(x20, x13) # load rs2: x13 = 0x114dd452
    10dc:	000a2683          	lw	x13,0(x20)
    10e0:	004a0a13          	addi	x20,x20,4

000010e4 <I_sub_cg_cp_rd_b30>:
I_sub_cg_cp_rd_b30:
  sub x30, x31, x13 # perform operation
    10e4:	40df8f33          	sub	x30,x31,x13
  # Check if x30 contains the expected result. x9 is the signature ptr, x5 is the link ptr, x4 is a temp reg.
  RVTEST_SIGUPD(x9, x5, x4, x30, I_sub_cg_cp_rd_b30, I_sub_cg_cp_rd_b30_str)
    10e8:	0004a203          	lw	x4,0(x9)
    10ec:	01e20863          	beq	x4,x30,10fc <I_sub_cg_cp_rd_b30+0x18>
    10f0:	3ec032ef          	jal	x5,44dc <failedtest_x5_x4>
    10f4:	000010e4          	.word	0x000010e4
    10f8:	00009e4d          	.word	0x00009e4d
    10fc:	00448493          	addi	x9,x9,4

# Testcase cp_rd (Test destination rd = x31)
  RVTEST_TESTDATA_LOAD_INT(x20, x6) # load rs1: x6 = 0xe8110a08
    1100:	000a2303          	lw	x6,0(x20)
    1104:	004a0a13          	addi	x20,x20,4
  RVTEST_TESTDATA_LOAD_INT(x20, x27) # load rs2: x27 = 0xb6c79d2a
    1108:	000a2d83          	lw	x27,0(x20)
    110c:	004a0a13          	addi	x20,x20,4

00001110 <I_sub_cg_cp_rd_b31>:
I_sub_cg_cp_rd_b31:
  sub x31, x6, x27 # perform operation
    1110:	41b30fb3          	sub	x31,x6,x27
  # Check if x31 contains the expected result. x9 is the signature ptr, x5 is the link ptr, x4 is a temp reg.
  RVTEST_SIGUPD(x9, x5, x4, x31, I_sub_cg_cp_rd_b31, I_sub_cg_cp_rd_b31_str)
    1114:	0004a203          	lw	x4,0(x9)
    1118:	01f20863          	beq	x4,x31,1128 <I_sub_cg_cp_rd_b31+0x18>
    111c:	3c0032ef          	jal	x5,44dc <failedtest_x5_x4>
    1120:	00001110          	.word	0x00001110
    1124:	00009e7b          	.word	0x00009e7b
    1128:	00448493          	addi	x9,x9,4
/////////////////////////////////
// cp_rs1_edges
/////////////////////////////////

# Testcase cp_rs1_edges (Test source rs1 value = 0x00000000)
  RVTEST_TESTDATA_LOAD_INT(x20, x15) # load rs1: x15 = 0x00000000
    112c:	000a2783          	lw	x15,0(x20)
    1130:	004a0a13          	addi	x20,x20,4
  RVTEST_TESTDATA_LOAD_INT(x20, x25) # load rs2: x25 = 0x11c5e7da
    1134:	000a2c83          	lw	x25,0(x20)
    1138:	004a0a13          	addi	x20,x20,4

0000113c <I_sub_cg_cp_rs1_edges_0x0>:
I_sub_cg_cp_rs1_edges_0x0:
  sub x30, x15, x25 # perform operation
    113c:	41978f33          	sub	x30,x15,x25
  # Check if x30 contains the expected result. x9 is the signature ptr, x5 is the link ptr, x4 is a temp reg.
  RVTEST_SIGUPD(x9, x5, x4, x30, I_sub_cg_cp_rs1_edges_0x0, I_sub_cg_cp_rs1_edges_0x0_str)
    1140:	0004a203          	lw	x4,0(x9)
    1144:	01e20863          	beq	x4,x30,1154 <I_sub_cg_cp_rs1_edges_0x0+0x18>
    1148:	394032ef          	jal	x5,44dc <failedtest_x5_x4>
    114c:	0000113c          	.word	0x0000113c
    1150:	00009ea9          	.word	0x00009ea9
    1154:	00448493          	addi	x9,x9,4

# Testcase cp_rs1_edges (Test source rs1 value = 0x00000001)
  RVTEST_TESTDATA_LOAD_INT(x20, x24) # load rs1: x24 = 0x00000001
    1158:	000a2c03          	lw	x24,0(x20)
    115c:	004a0a13          	addi	x20,x20,4
  RVTEST_TESTDATA_LOAD_INT(x20, x22) # load rs2: x22 = 0x39f88d11
    1160:	000a2b03          	lw	x22,0(x20)
    1164:	004a0a13          	addi	x20,x20,4

00001168 <I_sub_cg_cp_rs1_edges_0x1>:
I_sub_cg_cp_rs1_edges_0x1:
  sub x14, x24, x22 # perform operation
    1168:	416c0733          	sub	x14,x24,x22
  # Check if x14 contains the expected result. x9 is the signature ptr, x5 is the link ptr, x4 is a temp reg.
  RVTEST_SIGUPD(x9, x5, x4, x14, I_sub_cg_cp_rs1_edges_0x1, I_sub_cg_cp_rs1_edges_0x1_str)
    116c:	0004a203          	lw	x4,0(x9)
    1170:	00e20863          	beq	x4,x14,1180 <I_sub_cg_cp_rs1_edges_0x1+0x18>
    1174:	368032ef          	jal	x5,44dc <failedtest_x5_x4>
    1178:	00001168          	.word	0x00001168
    117c:	00009ede          	.word	0x00009ede
    1180:	00448493          	addi	x9,x9,4

# Testcase cp_rs1_edges (Test source rs1 value = 0x00000002)
  RVTEST_TESTDATA_LOAD_INT(x20, x27) # load rs1: x27 = 0x00000002
    1184:	000a2d83          	lw	x27,0(x20)
    1188:	004a0a13          	addi	x20,x20,4
  RVTEST_TESTDATA_LOAD_INT(x20, x3) # load rs2: x3 = 0xe603a805
    118c:	000a2183          	lw	x3,0(x20)
    1190:	004a0a13          	addi	x20,x20,4

00001194 <I_sub_cg_cp_rs1_edges_0x2>:
I_sub_cg_cp_rs1_edges_0x2:
  sub x8, x27, x3 # perform operation
    1194:	403d8433          	sub	x8,x27,x3
  # Check if x8 contains the expected result. x9 is the signature ptr, x5 is the link ptr, x4 is a temp reg.
  RVTEST_SIGUPD(x9, x5, x4, x8, I_sub_cg_cp_rs1_edges_0x2, I_sub_cg_cp_rs1_edges_0x2_str)
    1198:	0004a203          	lw	x4,0(x9)
    119c:	00820863          	beq	x4,x8,11ac <I_sub_cg_cp_rs1_edges_0x2+0x18>
    11a0:	33c032ef          	jal	x5,44dc <failedtest_x5_x4>
    11a4:	00001194          	.word	0x00001194
    11a8:	00009f13          	.word	0x00009f13
    11ac:	00448493          	addi	x9,x9,4

# Testcase cp_rs1_edges (Test source rs1 value = 0x80000000)
  RVTEST_TESTDATA_LOAD_INT(x20, x15) # load rs1: x15 = 0x80000000
    11b0:	000a2783          	lw	x15,0(x20)
    11b4:	004a0a13          	addi	x20,x20,4
  RVTEST_TESTDATA_LOAD_INT(x20, x25) # load rs2: x25 = 0xfd9bda49
    11b8:	000a2c83          	lw	x25,0(x20)
    11bc:	004a0a13          	addi	x20,x20,4

000011c0 <I_sub_cg_cp_rs1_edges_0x80000000>:
I_sub_cg_cp_rs1_edges_0x80000000:
  sub x24, x15, x25 # perform operation
    11c0:	41978c33          	sub	x24,x15,x25
  # Check if x24 contains the expected result. x9 is the signature ptr, x5 is the link ptr, x4 is a temp reg.
  RVTEST_SIGUPD(x9, x5, x4, x24, I_sub_cg_cp_rs1_edges_0x80000000, I_sub_cg_cp_rs1_edges_0x80000000_str)
    11c4:	0004a203          	lw	x4,0(x9)
    11c8:	01820863          	beq	x4,x24,11d8 <I_sub_cg_cp_rs1_edges_0x80000000+0x18>
    11cc:	310032ef          	jal	x5,44dc <failedtest_x5_x4>
    11d0:	000011c0          	.word	0x000011c0
    11d4:	00009f48          	.word	0x00009f48
    11d8:	00448493          	addi	x9,x9,4

# Testcase cp_rs1_edges (Test source rs1 value = 0x80000001)
  RVTEST_TESTDATA_LOAD_INT(x20, x23) # load rs1: x23 = 0x80000001
    11dc:	000a2b83          	lw	x23,0(x20)
    11e0:	004a0a13          	addi	x20,x20,4
  RVTEST_TESTDATA_LOAD_INT(x20, x16) # load rs2: x16 = 0xbcb492a1
    11e4:	000a2803          	lw	x16,0(x20)
    11e8:	004a0a13          	addi	x20,x20,4

000011ec <I_sub_cg_cp_rs1_edges_0x80000001>:
I_sub_cg_cp_rs1_edges_0x80000001:
  sub x22, x23, x16 # perform operation
    11ec:	410b8b33          	sub	x22,x23,x16
  # Check if x22 contains the expected result. x9 is the signature ptr, x5 is the link ptr, x4 is a temp reg.
  RVTEST_SIGUPD(x9, x5, x4, x22, I_sub_cg_cp_rs1_edges_0x80000001, I_sub_cg_cp_rs1_edges_0x80000001_str)
    11f0:	0004a203          	lw	x4,0(x9)
    11f4:	01620863          	beq	x4,x22,1204 <I_sub_cg_cp_rs1_edges_0x80000001+0x18>
    11f8:	2e4032ef          	jal	x5,44dc <failedtest_x5_x4>
    11fc:	000011ec          	.word	0x000011ec
    1200:	00009f85          	.word	0x00009f85
    1204:	00448493          	addi	x9,x9,4

# Testcase cp_rs1_edges (Test source rs1 value = 0x7fffffff)
  RVTEST_TESTDATA_LOAD_INT(x20, x6) # load rs1: x6 = 0x7fffffff
    1208:	000a2303          	lw	x6,0(x20)
    120c:	004a0a13          	addi	x20,x20,4
  RVTEST_TESTDATA_LOAD_INT(x20, x28) # load rs2: x28 = 0x02da84f7
    1210:	000a2e03          	lw	x28,0(x20)
    1214:	004a0a13          	addi	x20,x20,4

00001218 <I_sub_cg_cp_rs1_edges_0x7fffffff>:
I_sub_cg_cp_rs1_edges_0x7fffffff:
  sub x18, x6, x28 # perform operation
    1218:	41c30933          	sub	x18,x6,x28
  # Check if x18 contains the expected result. x9 is the signature ptr, x5 is the link ptr, x4 is a temp reg.
  RVTEST_SIGUPD(x9, x5, x4, x18, I_sub_cg_cp_rs1_edges_0x7fffffff, I_sub_cg_cp_rs1_edges_0x7fffffff_str)
    121c:	0004a203          	lw	x4,0(x9)
    1220:	01220863          	beq	x4,x18,1230 <I_sub_cg_cp_rs1_edges_0x7fffffff+0x18>
    1224:	2b8032ef          	jal	x5,44dc <failedtest_x5_x4>
    1228:	00001218          	.word	0x00001218
    122c:	00009fc2          	.word	0x00009fc2
    1230:	00448493          	addi	x9,x9,4

# Testcase cp_rs1_edges (Test source rs1 value = 0x7ffffffe)
  RVTEST_TESTDATA_LOAD_INT(x20, x14) # load rs1: x14 = 0x7ffffffe
    1234:	000a2703          	lw	x14,0(x20)
    1238:	004a0a13          	addi	x20,x20,4
  RVTEST_TESTDATA_LOAD_INT(x20, x18) # load rs2: x18 = 0x839601ff
    123c:	000a2903          	lw	x18,0(x20)
    1240:	004a0a13          	addi	x20,x20,4

00001244 <I_sub_cg_cp_rs1_edges_0x7ffffffe>:
I_sub_cg_cp_rs1_edges_0x7ffffffe:
  sub x23, x14, x18 # perform operation
    1244:	41270bb3          	sub	x23,x14,x18
  # Check if x23 contains the expected result. x9 is the signature ptr, x5 is the link ptr, x4 is a temp reg.
  RVTEST_SIGUPD(x9, x5, x4, x23, I_sub_cg_cp_rs1_edges_0x7ffffffe, I_sub_cg_cp_rs1_edges_0x7ffffffe_str)
    1248:	0004a203          	lw	x4,0(x9)
    124c:	01720863          	beq	x4,x23,125c <I_sub_cg_cp_rs1_edges_0x7ffffffe+0x18>
    1250:	28c032ef          	jal	x5,44dc <failedtest_x5_x4>
    1254:	00001244          	.word	0x00001244
    1258:	00009fff          	.word	0x00009fff
    125c:	00448493          	addi	x9,x9,4

# Testcase cp_rs1_edges (Test source rs1 value = 0xffffffff)
  RVTEST_TESTDATA_LOAD_INT(x20, x3) # load rs1: x3 = 0xffffffff
    1260:	000a2183          	lw	x3,0(x20)
    1264:	004a0a13          	addi	x20,x20,4
  RVTEST_TESTDATA_LOAD_INT(x20, x11) # load rs2: x11 = 0x0d6262de
    1268:	000a2583          	lw	x11,0(x20)
    126c:	004a0a13          	addi	x20,x20,4

00001270 <I_sub_cg_cp_rs1_edges_0xffffffff>:
I_sub_cg_cp_rs1_edges_0xffffffff:
  sub x17, x3, x11 # perform operation
    1270:	40b188b3          	sub	x17,x3,x11
  # Check if x17 contains the expected result. x9 is the signature ptr, x5 is the link ptr, x4 is a temp reg.
  RVTEST_SIGUPD(x9, x5, x4, x17, I_sub_cg_cp_rs1_edges_0xffffffff, I_sub_cg_cp_rs1_edges_0xffffffff_str)
    1274:	0004a203          	lw	x4,0(x9)
    1278:	01120863          	beq	x4,x17,1288 <I_sub_cg_cp_rs1_edges_0xffffffff+0x18>
    127c:	260032ef          	jal	x5,44dc <failedtest_x5_x4>
    1280:	00001270          	.word	0x00001270
    1284:	0000a03c          	.word	0x0000a03c
    1288:	00448493          	addi	x9,x9,4

# Testcase cp_rs1_edges (Test source rs1 value = 0xfffffffe)
  RVTEST_TESTDATA_LOAD_INT(x20, x7) # load rs1: x7 = 0xfffffffe
    128c:	000a2383          	lw	x7,0(x20)
    1290:	004a0a13          	addi	x20,x20,4
  RVTEST_TESTDATA_LOAD_INT(x20, x22) # load rs2: x22 = 0xd60f5038
    1294:	000a2b03          	lw	x22,0(x20)
    1298:	004a0a13          	addi	x20,x20,4

0000129c <I_sub_cg_cp_rs1_edges_0xfffffffe>:
I_sub_cg_cp_rs1_edges_0xfffffffe:
  sub x1, x7, x22 # perform operation
    129c:	416380b3          	sub	x1,x7,x22
  # Check if x1 contains the expected result. x9 is the signature ptr, x5 is the link ptr, x4 is a temp reg.
  RVTEST_SIGUPD(x9, x5, x4, x1, I_sub_cg_cp_rs1_edges_0xfffffffe, I_sub_cg_cp_rs1_edges_0xfffffffe_str)
    12a0:	0004a203          	lw	x4,0(x9)
    12a4:	00120863          	beq	x4,x1,12b4 <I_sub_cg_cp_rs1_edges_0xfffffffe+0x18>
    12a8:	234032ef          	jal	x5,44dc <failedtest_x5_x4>
    12ac:	0000129c          	.word	0x0000129c
    12b0:	0000a079          	.word	0x0000a079
    12b4:	00448493          	addi	x9,x9,4

# Testcase cp_rs1_edges (Test source rs1 value = 0x5bbc8872)
  RVTEST_TESTDATA_LOAD_INT(x20, x22) # load rs1: x22 = 0x5bbc8872
    12b8:	000a2b03          	lw	x22,0(x20)
    12bc:	004a0a13          	addi	x20,x20,4
  RVTEST_TESTDATA_LOAD_INT(x20, x7) # load rs2: x7 = 0xaa236c77
    12c0:	000a2383          	lw	x7,0(x20)
    12c4:	004a0a13          	addi	x20,x20,4

000012c8 <I_sub_cg_cp_rs1_edges_0x5bbc8872>:
I_sub_cg_cp_rs1_edges_0x5bbc8872:
  sub x6, x22, x7 # perform operation
    12c8:	407b0333          	sub	x6,x22,x7
  # Check if x6 contains the expected result. x9 is the signature ptr, x5 is the link ptr, x4 is a temp reg.
  RVTEST_SIGUPD(x9, x5, x4, x6, I_sub_cg_cp_rs1_edges_0x5bbc8872, I_sub_cg_cp_rs1_edges_0x5bbc8872_str)
    12cc:	0004a203          	lw	x4,0(x9)
    12d0:	00620863          	beq	x4,x6,12e0 <I_sub_cg_cp_rs1_edges_0x5bbc8872+0x18>
    12d4:	208032ef          	jal	x5,44dc <failedtest_x5_x4>
    12d8:	000012c8          	.word	0x000012c8
    12dc:	0000a0b6          	.word	0x0000a0b6
    12e0:	00448493          	addi	x9,x9,4

# Testcase cp_rs1_edges (Test source rs1 value = 0xaaaaaaaa)
  RVTEST_TESTDATA_LOAD_INT(x20, x15) # load rs1: x15 = 0xaaaaaaaa
    12e4:	000a2783          	lw	x15,0(x20)
    12e8:	004a0a13          	addi	x20,x20,4
  RVTEST_TESTDATA_LOAD_INT(x20, x13) # load rs2: x13 = 0x4b04b33c
    12ec:	000a2683          	lw	x13,0(x20)
    12f0:	004a0a13          	addi	x20,x20,4

000012f4 <I_sub_cg_cp_rs1_edges_0xaaaaaaaa>:
I_sub_cg_cp_rs1_edges_0xaaaaaaaa:
  sub x8, x15, x13 # perform operation
    12f4:	40d78433          	sub	x8,x15,x13
  # Check if x8 contains the expected result. x9 is the signature ptr, x5 is the link ptr, x4 is a temp reg.
  RVTEST_SIGUPD(x9, x5, x4, x8, I_sub_cg_cp_rs1_edges_0xaaaaaaaa, I_sub_cg_cp_rs1_edges_0xaaaaaaaa_str)
    12f8:	0004a203          	lw	x4,0(x9)
    12fc:	00820863          	beq	x4,x8,130c <I_sub_cg_cp_rs1_edges_0xaaaaaaaa+0x18>
    1300:	1dc032ef          	jal	x5,44dc <failedtest_x5_x4>
    1304:	000012f4          	.word	0x000012f4
    1308:	0000a0f3          	.word	0x0000a0f3
    130c:	00448493          	addi	x9,x9,4

# Testcase cp_rs1_edges (Test source rs1 value = 0x55555555)
  RVTEST_TESTDATA_LOAD_INT(x20, x16) # load rs1: x16 = 0x55555555
    1310:	000a2803          	lw	x16,0(x20)
    1314:	004a0a13          	addi	x20,x20,4
  RVTEST_TESTDATA_LOAD_INT(x20, x19) # load rs2: x19 = 0x850de42c
    1318:	000a2983          	lw	x19,0(x20)
    131c:	004a0a13          	addi	x20,x20,4

00001320 <I_sub_cg_cp_rs1_edges_0x55555555>:
I_sub_cg_cp_rs1_edges_0x55555555:
  sub x10, x16, x19 # perform operation
    1320:	41380533          	sub	x10,x16,x19
  # Check if x10 contains the expected result. x9 is the signature ptr, x5 is the link ptr, x4 is a temp reg.
  RVTEST_SIGUPD(x9, x5, x4, x10, I_sub_cg_cp_rs1_edges_0x55555555, I_sub_cg_cp_rs1_edges_0x55555555_str)
    1324:	0004a203          	lw	x4,0(x9)
    1328:	00a20863          	beq	x4,x10,1338 <I_sub_cg_cp_rs1_edges_0x55555555+0x18>
    132c:	1b0032ef          	jal	x5,44dc <failedtest_x5_x4>
    1330:	00001320          	.word	0x00001320
    1334:	0000a130          	.word	0x0000a130
    1338:	00448493          	addi	x9,x9,4
/////////////////////////////////
// cp_rs2_edges
/////////////////////////////////

# Testcase cp_rs2_edges (Test source rs2 value = 0x00000000)
  RVTEST_TESTDATA_LOAD_INT(x20, x7) # load rs1: x7 = 0x1425dd70
    133c:	000a2383          	lw	x7,0(x20)
    1340:	004a0a13          	addi	x20,x20,4
  RVTEST_TESTDATA_LOAD_INT(x20, x26) # load rs2: x26 = 0x00000000
    1344:	000a2d03          	lw	x26,0(x20)
    1348:	004a0a13          	addi	x20,x20,4

0000134c <I_sub_cg_cp_rs2_edges_0x0>:
I_sub_cg_cp_rs2_edges_0x0:
  sub x12, x7, x26 # perform operation
    134c:	41a38633          	sub	x12,x7,x26
  # Check if x12 contains the expected result. x9 is the signature ptr, x5 is the link ptr, x4 is a temp reg.
  RVTEST_SIGUPD(x9, x5, x4, x12, I_sub_cg_cp_rs2_edges_0x0, I_sub_cg_cp_rs2_edges_0x0_str)
    1350:	0004a203          	lw	x4,0(x9)
    1354:	00c20863          	beq	x4,x12,1364 <I_sub_cg_cp_rs2_edges_0x0+0x18>
    1358:	184032ef          	jal	x5,44dc <failedtest_x5_x4>
    135c:	0000134c          	.word	0x0000134c
    1360:	0000a16d          	.word	0x0000a16d
    1364:	00448493          	addi	x9,x9,4

# Testcase cp_rs2_edges (Test source rs2 value = 0x00000001)
  RVTEST_TESTDATA_LOAD_INT(x20, x10) # load rs1: x10 = 0x599f146c
    1368:	000a2503          	lw	x10,0(x20)
    136c:	004a0a13          	addi	x20,x20,4
  RVTEST_TESTDATA_LOAD_INT(x20, x29) # load rs2: x29 = 0x00000001
    1370:	000a2e83          	lw	x29,0(x20)
    1374:	004a0a13          	addi	x20,x20,4

00001378 <I_sub_cg_cp_rs2_edges_0x1>:
I_sub_cg_cp_rs2_edges_0x1:
  sub x18, x10, x29 # perform operation
    1378:	41d50933          	sub	x18,x10,x29
  # Check if x18 contains the expected result. x9 is the signature ptr, x5 is the link ptr, x4 is a temp reg.
  RVTEST_SIGUPD(x9, x5, x4, x18, I_sub_cg_cp_rs2_edges_0x1, I_sub_cg_cp_rs2_edges_0x1_str)
    137c:	0004a203          	lw	x4,0(x9)
    1380:	01220863          	beq	x4,x18,1390 <I_sub_cg_cp_rs2_edges_0x1+0x18>
    1384:	158032ef          	jal	x5,44dc <failedtest_x5_x4>
    1388:	00001378          	.word	0x00001378
    138c:	0000a1a3          	.word	0x0000a1a3
    1390:	00448493          	addi	x9,x9,4

# Testcase cp_rs2_edges (Test source rs2 value = 0x00000002)
  RVTEST_TESTDATA_LOAD_INT(x20, x18) # load rs1: x18 = 0x4c552306
    1394:	000a2903          	lw	x18,0(x20)
    1398:	004a0a13          	addi	x20,x20,4
  RVTEST_TESTDATA_LOAD_INT(x20, x13) # load rs2: x13 = 0x00000002
    139c:	000a2683          	lw	x13,0(x20)
    13a0:	004a0a13          	addi	x20,x20,4

000013a4 <I_sub_cg_cp_rs2_edges_0x2>:
I_sub_cg_cp_rs2_edges_0x2:
  sub x23, x18, x13 # perform operation
    13a4:	40d90bb3          	sub	x23,x18,x13
  # Check if x23 contains the expected result. x9 is the signature ptr, x5 is the link ptr, x4 is a temp reg.
  RVTEST_SIGUPD(x9, x5, x4, x23, I_sub_cg_cp_rs2_edges_0x2, I_sub_cg_cp_rs2_edges_0x2_str)
    13a8:	0004a203          	lw	x4,0(x9)
    13ac:	01720863          	beq	x4,x23,13bc <I_sub_cg_cp_rs2_edges_0x2+0x18>
    13b0:	12c032ef          	jal	x5,44dc <failedtest_x5_x4>
    13b4:	000013a4          	.word	0x000013a4
    13b8:	0000a1d9          	.word	0x0000a1d9
    13bc:	00448493          	addi	x9,x9,4

# Testcase cp_rs2_edges (Test source rs2 value = 0x80000000)
  RVTEST_TESTDATA_LOAD_INT(x20, x7) # load rs1: x7 = 0x296347c6
    13c0:	000a2383          	lw	x7,0(x20)
    13c4:	004a0a13          	addi	x20,x20,4
  RVTEST_TESTDATA_LOAD_INT(x20, x25) # load rs2: x25 = 0x80000000
    13c8:	000a2c83          	lw	x25,0(x20)
    13cc:	004a0a13          	addi	x20,x20,4

000013d0 <I_sub_cg_cp_rs2_edges_0x80000000>:
I_sub_cg_cp_rs2_edges_0x80000000:
  sub x2, x7, x25 # perform operation
    13d0:	41938133          	sub	x2,x7,x25
  # Check if x2 contains the expected result. x9 is the signature ptr, x5 is the link ptr, x4 is a temp reg.
  RVTEST_SIGUPD(x9, x5, x4, x2, I_sub_cg_cp_rs2_edges_0x80000000, I_sub_cg_cp_rs2_edges_0x80000000_str)
    13d4:	0004a203          	lw	x4,0(x9)
    13d8:	00220863          	beq	x4,x2,13e8 <I_sub_cg_cp_rs2_edges_0x80000000+0x18>
    13dc:	100032ef          	jal	x5,44dc <failedtest_x5_x4>
    13e0:	000013d0          	.word	0x000013d0
    13e4:	0000a20f          	.word	0x0000a20f
    13e8:	00448493          	addi	x9,x9,4

# Testcase cp_rs2_edges (Test source rs2 value = 0x80000001)
  RVTEST_TESTDATA_LOAD_INT(x20, x25) # load rs1: x25 = 0x1b8ba12d
    13ec:	000a2c83          	lw	x25,0(x20)
    13f0:	004a0a13          	addi	x20,x20,4
  RVTEST_TESTDATA_LOAD_INT(x20, x19) # load rs2: x19 = 0x80000001
    13f4:	000a2983          	lw	x19,0(x20)
    13f8:	004a0a13          	addi	x20,x20,4

000013fc <I_sub_cg_cp_rs2_edges_0x80000001>:
I_sub_cg_cp_rs2_edges_0x80000001:
  sub x30, x25, x19 # perform operation
    13fc:	413c8f33          	sub	x30,x25,x19
  # Check if x30 contains the expected result. x9 is the signature ptr, x5 is the link ptr, x4 is a temp reg.
  RVTEST_SIGUPD(x9, x5, x4, x30, I_sub_cg_cp_rs2_edges_0x80000001, I_sub_cg_cp_rs2_edges_0x80000001_str)
    1400:	0004a203          	lw	x4,0(x9)
    1404:	01e20863          	beq	x4,x30,1414 <I_sub_cg_cp_rs2_edges_0x80000001+0x18>
    1408:	0d4032ef          	jal	x5,44dc <failedtest_x5_x4>
    140c:	000013fc          	.word	0x000013fc
    1410:	0000a24c          	.word	0x0000a24c
    1414:	00448493          	addi	x9,x9,4

# Testcase cp_rs2_edges (Test source rs2 value = 0x7fffffff)
  RVTEST_TESTDATA_LOAD_INT(x20, x6) # load rs1: x6 = 0xbc96ffe0
    1418:	000a2303          	lw	x6,0(x20)
    141c:	004a0a13          	addi	x20,x20,4
  RVTEST_TESTDATA_LOAD_INT(x20, x23) # load rs2: x23 = 0x7fffffff
    1420:	000a2b83          	lw	x23,0(x20)
    1424:	004a0a13          	addi	x20,x20,4

00001428 <I_sub_cg_cp_rs2_edges_0x7fffffff>:
I_sub_cg_cp_rs2_edges_0x7fffffff:
  sub x3, x6, x23 # perform operation
    1428:	417301b3          	sub	x3,x6,x23
  # Check if x3 contains the expected result. x9 is the signature ptr, x5 is the link ptr, x4 is a temp reg.
  RVTEST_SIGUPD(x9, x5, x4, x3, I_sub_cg_cp_rs2_edges_0x7fffffff, I_sub_cg_cp_rs2_edges_0x7fffffff_str)
    142c:	0004a203          	lw	x4,0(x9)
    1430:	00320863          	beq	x4,x3,1440 <I_sub_cg_cp_rs2_edges_0x7fffffff+0x18>
    1434:	0a8032ef          	jal	x5,44dc <failedtest_x5_x4>
    1438:	00001428          	.word	0x00001428
    143c:	0000a289          	.word	0x0000a289
    1440:	00448493          	addi	x9,x9,4

# Testcase cp_rs2_edges (Test source rs2 value = 0x7ffffffe)
  RVTEST_TESTDATA_LOAD_INT(x20, x15) # load rs1: x15 = 0x489c4e61
    1444:	000a2783          	lw	x15,0(x20)
    1448:	004a0a13          	addi	x20,x20,4
  RVTEST_TESTDATA_LOAD_INT(x20, x29) # load rs2: x29 = 0x7ffffffe
    144c:	000a2e83          	lw	x29,0(x20)
    1450:	004a0a13          	addi	x20,x20,4

00001454 <I_sub_cg_cp_rs2_edges_0x7ffffffe>:
I_sub_cg_cp_rs2_edges_0x7ffffffe:
  sub x8, x15, x29 # perform operation
    1454:	41d78433          	sub	x8,x15,x29
  # Check if x8 contains the expected result. x9 is the signature ptr, x5 is the link ptr, x4 is a temp reg.
  RVTEST_SIGUPD(x9, x5, x4, x8, I_sub_cg_cp_rs2_edges_0x7ffffffe, I_sub_cg_cp_rs2_edges_0x7ffffffe_str)
    1458:	0004a203          	lw	x4,0(x9)
    145c:	00820863          	beq	x4,x8,146c <I_sub_cg_cp_rs2_edges_0x7ffffffe+0x18>
    1460:	07c032ef          	jal	x5,44dc <failedtest_x5_x4>
    1464:	00001454          	.word	0x00001454
    1468:	0000a2c6          	.word	0x0000a2c6
    146c:	00448493          	addi	x9,x9,4

# Testcase cp_rs2_edges (Test source rs2 value = 0xffffffff)
  RVTEST_TESTDATA_LOAD_INT(x20, x26) # load rs1: x26 = 0x9b2b065b
    1470:	000a2d03          	lw	x26,0(x20)
    1474:	004a0a13          	addi	x20,x20,4
  RVTEST_TESTDATA_LOAD_INT(x20, x27) # load rs2: x27 = 0xffffffff
    1478:	000a2d83          	lw	x27,0(x20)
    147c:	004a0a13          	addi	x20,x20,4

00001480 <I_sub_cg_cp_rs2_edges_0xffffffff>:
I_sub_cg_cp_rs2_edges_0xffffffff:
  sub x31, x26, x27 # perform operation
    1480:	41bd0fb3          	sub	x31,x26,x27
  # Check if x31 contains the expected result. x9 is the signature ptr, x5 is the link ptr, x4 is a temp reg.
  RVTEST_SIGUPD(x9, x5, x4, x31, I_sub_cg_cp_rs2_edges_0xffffffff, I_sub_cg_cp_rs2_edges_0xffffffff_str)
    1484:	0004a203          	lw	x4,0(x9)
    1488:	01f20863          	beq	x4,x31,1498 <I_sub_cg_cp_rs2_edges_0xffffffff+0x18>
    148c:	050032ef          	jal	x5,44dc <failedtest_x5_x4>
    1490:	00001480          	.word	0x00001480
    1494:	0000a303          	.word	0x0000a303
    1498:	00448493          	addi	x9,x9,4

# Testcase cp_rs2_edges (Test source rs2 value = 0xfffffffe)
  RVTEST_TESTDATA_LOAD_INT(x20, x16) # load rs1: x16 = 0x94aa27c8
    149c:	000a2803          	lw	x16,0(x20)
    14a0:	004a0a13          	addi	x20,x20,4
  RVTEST_TESTDATA_LOAD_INT(x20, x28) # load rs2: x28 = 0xfffffffe
    14a4:	000a2e03          	lw	x28,0(x20)
    14a8:	004a0a13          	addi	x20,x20,4

000014ac <I_sub_cg_cp_rs2_edges_0xfffffffe>:
I_sub_cg_cp_rs2_edges_0xfffffffe:
  sub x22, x16, x28 # perform operation
    14ac:	41c80b33          	sub	x22,x16,x28
  # Check if x22 contains the expected result. x9 is the signature ptr, x5 is the link ptr, x4 is a temp reg.
  RVTEST_SIGUPD(x9, x5, x4, x22, I_sub_cg_cp_rs2_edges_0xfffffffe, I_sub_cg_cp_rs2_edges_0xfffffffe_str)
    14b0:	0004a203          	lw	x4,0(x9)
    14b4:	01620863          	beq	x4,x22,14c4 <I_sub_cg_cp_rs2_edges_0xfffffffe+0x18>
    14b8:	024032ef          	jal	x5,44dc <failedtest_x5_x4>
    14bc:	000014ac          	.word	0x000014ac
    14c0:	0000a340          	.word	0x0000a340
    14c4:	00448493          	addi	x9,x9,4

# Testcase cp_rs2_edges (Test source rs2 value = 0x5bbc8872)
  RVTEST_TESTDATA_LOAD_INT(x20, x30) # load rs1: x30 = 0x5f6a4924
    14c8:	000a2f03          	lw	x30,0(x20)
    14cc:	004a0a13          	addi	x20,x20,4
  RVTEST_TESTDATA_LOAD_INT(x20, x15) # load rs2: x15 = 0x5bbc8872
    14d0:	000a2783          	lw	x15,0(x20)
    14d4:	004a0a13          	addi	x20,x20,4

000014d8 <I_sub_cg_cp_rs2_edges_0x5bbc8872>:
I_sub_cg_cp_rs2_edges_0x5bbc8872:
  sub x18, x30, x15 # perform operation
    14d8:	40ff0933          	sub	x18,x30,x15
  # Check if x18 contains the expected result. x9 is the signature ptr, x5 is the link ptr, x4 is a temp reg.
  RVTEST_SIGUPD(x9, x5, x4, x18, I_sub_cg_cp_rs2_edges_0x5bbc8872, I_sub_cg_cp_rs2_edges_0x5bbc8872_str)
    14dc:	0004a203          	lw	x4,0(x9)
    14e0:	01220863          	beq	x4,x18,14f0 <I_sub_cg_cp_rs2_edges_0x5bbc8872+0x18>
    14e4:	7f9022ef          	jal	x5,44dc <failedtest_x5_x4>
    14e8:	000014d8          	.word	0x000014d8
    14ec:	0000a37d          	.word	0x0000a37d
    14f0:	00448493          	addi	x9,x9,4

# Testcase cp_rs2_edges (Test source rs2 value = 0xaaaaaaaa)
  RVTEST_TESTDATA_LOAD_INT(x20, x19) # load rs1: x19 = 0x5f5ce76b
    14f4:	000a2983          	lw	x19,0(x20)
    14f8:	004a0a13          	addi	x20,x20,4
  RVTEST_TESTDATA_LOAD_INT(x20, x16) # load rs2: x16 = 0xaaaaaaaa
    14fc:	000a2803          	lw	x16,0(x20)
    1500:	004a0a13          	addi	x20,x20,4

00001504 <I_sub_cg_cp_rs2_edges_0xaaaaaaaa>:
I_sub_cg_cp_rs2_edges_0xaaaaaaaa:
  sub x6, x19, x16 # perform operation
    1504:	41098333          	sub	x6,x19,x16
  # Check if x6 contains the expected result. x9 is the signature ptr, x5 is the link ptr, x4 is a temp reg.
  RVTEST_SIGUPD(x9, x5, x4, x6, I_sub_cg_cp_rs2_edges_0xaaaaaaaa, I_sub_cg_cp_rs2_edges_0xaaaaaaaa_str)
    1508:	0004a203          	lw	x4,0(x9)
    150c:	00620863          	beq	x4,x6,151c <I_sub_cg_cp_rs2_edges_0xaaaaaaaa+0x18>
    1510:	7cd022ef          	jal	x5,44dc <failedtest_x5_x4>
    1514:	00001504          	.word	0x00001504
    1518:	0000a3ba          	.word	0x0000a3ba
    151c:	00448493          	addi	x9,x9,4

# Testcase cp_rs2_edges (Test source rs2 value = 0x55555555)
  RVTEST_TESTDATA_LOAD_INT(x20, x28) # load rs1: x28 = 0xf2739c2b
    1520:	000a2e03          	lw	x28,0(x20)
    1524:	004a0a13          	addi	x20,x20,4
  RVTEST_TESTDATA_LOAD_INT(x20, x23) # load rs2: x23 = 0x55555555
    1528:	000a2b83          	lw	x23,0(x20)
    152c:	004a0a13          	addi	x20,x20,4

00001530 <I_sub_cg_cp_rs2_edges_0x55555555>:
I_sub_cg_cp_rs2_edges_0x55555555:
  sub x1, x28, x23 # perform operation
    1530:	417e00b3          	sub	x1,x28,x23
  # Check if x1 contains the expected result. x9 is the signature ptr, x5 is the link ptr, x4 is a temp reg.
  RVTEST_SIGUPD(x9, x5, x4, x1, I_sub_cg_cp_rs2_edges_0x55555555, I_sub_cg_cp_rs2_edges_0x55555555_str)
    1534:	0004a203          	lw	x4,0(x9)
    1538:	00120863          	beq	x4,x1,1548 <I_sub_cg_cp_rs2_edges_0x55555555+0x18>
    153c:	7a1022ef          	jal	x5,44dc <failedtest_x5_x4>
    1540:	00001530          	.word	0x00001530
    1544:	0000a3f7          	.word	0x0000a3f7
    1548:	00448493          	addi	x9,x9,4
/////////////////////////////////
// cr_rs1_rs2_edges
/////////////////////////////////

# Testcase cr_rs1_rs2_edges (Test source rs1 = 0x00000000 rs2 = 0x00000000)
  RVTEST_TESTDATA_LOAD_INT(x20, x21) # load rs1: x21 = 0x00000000
    154c:	000a2a83          	lw	x21,0(x20)
    1550:	004a0a13          	addi	x20,x20,4
  RVTEST_TESTDATA_LOAD_INT(x20, x18) # load rs2: x18 = 0x00000000
    1554:	000a2903          	lw	x18,0(x20)
    1558:	004a0a13          	addi	x20,x20,4

0000155c <I_sub_cg_cr_rs1_rs2_edges_rs1val_0x0_rs2val_0x0>:
I_sub_cg_cr_rs1_rs2_edges_rs1val_0x0_rs2val_0x0:
  sub x30, x21, x18 # perform operation
    155c:	412a8f33          	sub	x30,x21,x18
  # Check if x30 contains the expected result. x9 is the signature ptr, x5 is the link ptr, x4 is a temp reg.
  RVTEST_SIGUPD(x9, x5, x4, x30, I_sub_cg_cr_rs1_rs2_edges_rs1val_0x0_rs2val_0x0, I_sub_cg_cr_rs1_rs2_edges_rs1val_0x0_rs2val_0x0_str)
    1560:	0004a203          	lw	x4,0(x9)
    1564:	01e20863          	beq	x4,x30,1574 <I_sub_cg_cr_rs1_rs2_edges_rs1val_0x0_rs2val_0x0+0x18>
    1568:	775022ef          	jal	x5,44dc <failedtest_x5_x4>
    156c:	0000155c          	.word	0x0000155c
    1570:	0000a434          	.word	0x0000a434
    1574:	00448493          	addi	x9,x9,4

# Testcase cr_rs1_rs2_edges (Test source rs1 = 0x00000000 rs2 = 0x00000001)
  RVTEST_TESTDATA_LOAD_INT(x20, x17) # load rs1: x17 = 0x00000000
    1578:	000a2883          	lw	x17,0(x20)
    157c:	004a0a13          	addi	x20,x20,4
  RVTEST_TESTDATA_LOAD_INT(x20, x15) # load rs2: x15 = 0x00000001
    1580:	000a2783          	lw	x15,0(x20)
    1584:	004a0a13          	addi	x20,x20,4

00001588 <I_sub_cg_cr_rs1_rs2_edges_rs1val_0x0_rs2val_0x1>:
I_sub_cg_cr_rs1_rs2_edges_rs1val_0x0_rs2val_0x1:
  sub x26, x17, x15 # perform operation
    1588:	40f88d33          	sub	x26,x17,x15
  # Check if x26 contains the expected result. x9 is the signature ptr, x5 is the link ptr, x4 is a temp reg.
  RVTEST_SIGUPD(x9, x5, x4, x26, I_sub_cg_cr_rs1_rs2_edges_rs1val_0x0_rs2val_0x1, I_sub_cg_cr_rs1_rs2_edges_rs1val_0x0_rs2val_0x1_str)
    158c:	0004a203          	lw	x4,0(x9)
    1590:	01a20863          	beq	x4,x26,15a0 <I_sub_cg_cr_rs1_rs2_edges_rs1val_0x0_rs2val_0x1+0x18>
    1594:	749022ef          	jal	x5,44dc <failedtest_x5_x4>
    1598:	00001588          	.word	0x00001588
    159c:	0000a481          	.word	0x0000a481
    15a0:	00448493          	addi	x9,x9,4

# Testcase cr_rs1_rs2_edges (Test source rs1 = 0x00000000 rs2 = 0x00000002)
  RVTEST_TESTDATA_LOAD_INT(x20, x29) # load rs1: x29 = 0x00000000
    15a4:	000a2e83          	lw	x29,0(x20)
    15a8:	004a0a13          	addi	x20,x20,4
  RVTEST_TESTDATA_LOAD_INT(x20, x28) # load rs2: x28 = 0x00000002
    15ac:	000a2e03          	lw	x28,0(x20)
    15b0:	004a0a13          	addi	x20,x20,4

000015b4 <I_sub_cg_cr_rs1_rs2_edges_rs1val_0x0_rs2val_0x2>:
I_sub_cg_cr_rs1_rs2_edges_rs1val_0x0_rs2val_0x2:
  sub x10, x29, x28 # perform operation
    15b4:	41ce8533          	sub	x10,x29,x28
  # Check if x10 contains the expected result. x9 is the signature ptr, x5 is the link ptr, x4 is a temp reg.
  RVTEST_SIGUPD(x9, x5, x4, x10, I_sub_cg_cr_rs1_rs2_edges_rs1val_0x0_rs2val_0x2, I_sub_cg_cr_rs1_rs2_edges_rs1val_0x0_rs2val_0x2_str)
    15b8:	0004a203          	lw	x4,0(x9)
    15bc:	00a20863          	beq	x4,x10,15cc <I_sub_cg_cr_rs1_rs2_edges_rs1val_0x0_rs2val_0x2+0x18>
    15c0:	71d022ef          	jal	x5,44dc <failedtest_x5_x4>
    15c4:	000015b4          	.word	0x000015b4
    15c8:	0000a4ce          	.word	0x0000a4ce
    15cc:	00448493          	addi	x9,x9,4

# Testcase cr_rs1_rs2_edges (Test source rs1 = 0x00000000 rs2 = 0x80000000)
  RVTEST_TESTDATA_LOAD_INT(x20, x7) # load rs1: x7 = 0x00000000
    15d0:	000a2383          	lw	x7,0(x20)
    15d4:	004a0a13          	addi	x20,x20,4
  RVTEST_TESTDATA_LOAD_INT(x20, x22) # load rs2: x22 = 0x80000000
    15d8:	000a2b03          	lw	x22,0(x20)
    15dc:	004a0a13          	addi	x20,x20,4

000015e0 <I_sub_cg_cr_rs1_rs2_edges_rs1val_0x0_rs2val_0x80000000>:
I_sub_cg_cr_rs1_rs2_edges_rs1val_0x0_rs2val_0x80000000:
  sub x15, x7, x22 # perform operation
    15e0:	416387b3          	sub	x15,x7,x22
  # Check if x15 contains the expected result. x9 is the signature ptr, x5 is the link ptr, x4 is a temp reg.
  RVTEST_SIGUPD(x9, x5, x4, x15, I_sub_cg_cr_rs1_rs2_edges_rs1val_0x0_rs2val_0x80000000, I_sub_cg_cr_rs1_rs2_edges_rs1val_0x0_rs2val_0x80000000_str)
    15e4:	0004a203          	lw	x4,0(x9)
    15e8:	00f20863          	beq	x4,x15,15f8 <I_sub_cg_cr_rs1_rs2_edges_rs1val_0x0_rs2val_0x80000000+0x18>
    15ec:	6f1022ef          	jal	x5,44dc <failedtest_x5_x4>
    15f0:	000015e0          	.word	0x000015e0
    15f4:	0000a51b          	.word	0x0000a51b
    15f8:	00448493          	addi	x9,x9,4

# Testcase cr_rs1_rs2_edges (Test source rs1 = 0x00000000 rs2 = 0x80000001)
  RVTEST_TESTDATA_LOAD_INT(x20, x12) # load rs1: x12 = 0x00000000
    15fc:	000a2603          	lw	x12,0(x20)
    1600:	004a0a13          	addi	x20,x20,4
  RVTEST_TESTDATA_LOAD_INT(x20, x3) # load rs2: x3 = 0x80000001
    1604:	000a2183          	lw	x3,0(x20)
    1608:	004a0a13          	addi	x20,x20,4

0000160c <I_sub_cg_cr_rs1_rs2_edges_rs1val_0x0_rs2val_0x80000001>:
I_sub_cg_cr_rs1_rs2_edges_rs1val_0x0_rs2val_0x80000001:
  sub x21, x12, x3 # perform operation
    160c:	40360ab3          	sub	x21,x12,x3
  # Check if x21 contains the expected result. x9 is the signature ptr, x5 is the link ptr, x4 is a temp reg.
  RVTEST_SIGUPD(x9, x5, x4, x21, I_sub_cg_cr_rs1_rs2_edges_rs1val_0x0_rs2val_0x80000001, I_sub_cg_cr_rs1_rs2_edges_rs1val_0x0_rs2val_0x80000001_str)
    1610:	0004a203          	lw	x4,0(x9)
    1614:	01520863          	beq	x4,x21,1624 <I_sub_cg_cr_rs1_rs2_edges_rs1val_0x0_rs2val_0x80000001+0x18>
    1618:	6c5022ef          	jal	x5,44dc <failedtest_x5_x4>
    161c:	0000160c          	.word	0x0000160c
    1620:	0000a56f          	.word	0x0000a56f
    1624:	00448493          	addi	x9,x9,4

# Testcase cr_rs1_rs2_edges (Test source rs1 = 0x00000000 rs2 = 0x7fffffff)
  RVTEST_TESTDATA_LOAD_INT(x20, x11) # load rs1: x11 = 0x00000000
    1628:	000a2583          	lw	x11,0(x20)
    162c:	004a0a13          	addi	x20,x20,4
  RVTEST_TESTDATA_LOAD_INT(x20, x30) # load rs2: x30 = 0x7fffffff
    1630:	000a2f03          	lw	x30,0(x20)
    1634:	004a0a13          	addi	x20,x20,4

00001638 <I_sub_cg_cr_rs1_rs2_edges_rs1val_0x0_rs2val_0x7fffffff>:
I_sub_cg_cr_rs1_rs2_edges_rs1val_0x0_rs2val_0x7fffffff:
  sub x10, x11, x30 # perform operation
    1638:	41e58533          	sub	x10,x11,x30
  # Check if x10 contains the expected result. x9 is the signature ptr, x5 is the link ptr, x4 is a temp reg.
  RVTEST_SIGUPD(x9, x5, x4, x10, I_sub_cg_cr_rs1_rs2_edges_rs1val_0x0_rs2val_0x7fffffff, I_sub_cg_cr_rs1_rs2_edges_rs1val_0x0_rs2val_0x7fffffff_str)
    163c:	0004a203          	lw	x4,0(x9)
    1640:	00a20863          	beq	x4,x10,1650 <I_sub_cg_cr_rs1_rs2_edges_rs1val_0x0_rs2val_0x7fffffff+0x18>
    1644:	699022ef          	jal	x5,44dc <failedtest_x5_x4>
    1648:	00001638          	.word	0x00001638
    164c:	0000a5c3          	.word	0x0000a5c3
    1650:	00448493          	addi	x9,x9,4

# Testcase cr_rs1_rs2_edges (Test source rs1 = 0x00000000 rs2 = 0x7ffffffe)
  RVTEST_TESTDATA_LOAD_INT(x20, x11) # load rs1: x11 = 0x00000000
    1654:	000a2583          	lw	x11,0(x20)
    1658:	004a0a13          	addi	x20,x20,4
  RVTEST_TESTDATA_LOAD_INT(x20, x21) # load rs2: x21 = 0x7ffffffe
    165c:	000a2a83          	lw	x21,0(x20)
    1660:	004a0a13          	addi	x20,x20,4

00001664 <I_sub_cg_cr_rs1_rs2_edges_rs1val_0x0_rs2val_0x7ffffffe>:
I_sub_cg_cr_rs1_rs2_edges_rs1val_0x0_rs2val_0x7ffffffe:
  sub x13, x11, x21 # perform operation
    1664:	415586b3          	sub	x13,x11,x21
  # Check if x13 contains the expected result. x9 is the signature ptr, x5 is the link ptr, x4 is a temp reg.
  RVTEST_SIGUPD(x9, x5, x4, x13, I_sub_cg_cr_rs1_rs2_edges_rs1val_0x0_rs2val_0x7ffffffe, I_sub_cg_cr_rs1_rs2_edges_rs1val_0x0_rs2val_0x7ffffffe_str)
    1668:	0004a203          	lw	x4,0(x9)
    166c:	00d20863          	beq	x4,x13,167c <I_sub_cg_cr_rs1_rs2_edges_rs1val_0x0_rs2val_0x7ffffffe+0x18>
    1670:	66d022ef          	jal	x5,44dc <failedtest_x5_x4>
    1674:	00001664          	.word	0x00001664
    1678:	0000a617          	.word	0x0000a617
    167c:	00448493          	addi	x9,x9,4

# Testcase cr_rs1_rs2_edges (Test source rs1 = 0x00000000 rs2 = 0xffffffff)
  RVTEST_TESTDATA_LOAD_INT(x20, x18) # load rs1: x18 = 0x00000000
    1680:	000a2903          	lw	x18,0(x20)
    1684:	004a0a13          	addi	x20,x20,4
  RVTEST_TESTDATA_LOAD_INT(x20, x28) # load rs2: x28 = 0xffffffff
    1688:	000a2e03          	lw	x28,0(x20)
    168c:	004a0a13          	addi	x20,x20,4

00001690 <I_sub_cg_cr_rs1_rs2_edges_rs1val_0x0_rs2val_0xffffffff>:
I_sub_cg_cr_rs1_rs2_edges_rs1val_0x0_rs2val_0xffffffff:
  sub x17, x18, x28 # perform operation
    1690:	41c908b3          	sub	x17,x18,x28
  # Check if x17 contains the expected result. x9 is the signature ptr, x5 is the link ptr, x4 is a temp reg.
  RVTEST_SIGUPD(x9, x5, x4, x17, I_sub_cg_cr_rs1_rs2_edges_rs1val_0x0_rs2val_0xffffffff, I_sub_cg_cr_rs1_rs2_edges_rs1val_0x0_rs2val_0xffffffff_str)
    1694:	0004a203          	lw	x4,0(x9)
    1698:	01120863          	beq	x4,x17,16a8 <I_sub_cg_cr_rs1_rs2_edges_rs1val_0x0_rs2val_0xffffffff+0x18>
    169c:	641022ef          	jal	x5,44dc <failedtest_x5_x4>
    16a0:	00001690          	.word	0x00001690
    16a4:	0000a66b          	.word	0x0000a66b
    16a8:	00448493          	addi	x9,x9,4

# Testcase cr_rs1_rs2_edges (Test source rs1 = 0x00000000 rs2 = 0xfffffffe)
  RVTEST_TESTDATA_LOAD_INT(x20, x26) # load rs1: x26 = 0x00000000
    16ac:	000a2d03          	lw	x26,0(x20)
    16b0:	004a0a13          	addi	x20,x20,4
  RVTEST_TESTDATA_LOAD_INT(x20, x21) # load rs2: x21 = 0xfffffffe
    16b4:	000a2a83          	lw	x21,0(x20)
    16b8:	004a0a13          	addi	x20,x20,4

000016bc <I_sub_cg_cr_rs1_rs2_edges_rs1val_0x0_rs2val_0xfffffffe>:
I_sub_cg_cr_rs1_rs2_edges_rs1val_0x0_rs2val_0xfffffffe:
  sub x6, x26, x21 # perform operation
    16bc:	415d0333          	sub	x6,x26,x21
  # Check if x6 contains the expected result. x9 is the signature ptr, x5 is the link ptr, x4 is a temp reg.
  RVTEST_SIGUPD(x9, x5, x4, x6, I_sub_cg_cr_rs1_rs2_edges_rs1val_0x0_rs2val_0xfffffffe, I_sub_cg_cr_rs1_rs2_edges_rs1val_0x0_rs2val_0xfffffffe_str)
    16c0:	0004a203          	lw	x4,0(x9)
    16c4:	00620863          	beq	x4,x6,16d4 <I_sub_cg_cr_rs1_rs2_edges_rs1val_0x0_rs2val_0xfffffffe+0x18>
    16c8:	615022ef          	jal	x5,44dc <failedtest_x5_x4>
    16cc:	000016bc          	.word	0x000016bc
    16d0:	0000a6bf          	.word	0x0000a6bf
    16d4:	00448493          	addi	x9,x9,4

# Testcase cr_rs1_rs2_edges (Test source rs1 = 0x00000000 rs2 = 0x5bbc8872)
  RVTEST_TESTDATA_LOAD_INT(x20, x3) # load rs1: x3 = 0x00000000
    16d8:	000a2183          	lw	x3,0(x20)
    16dc:	004a0a13          	addi	x20,x20,4
  RVTEST_TESTDATA_LOAD_INT(x20, x30) # load rs2: x30 = 0x5bbc8872
    16e0:	000a2f03          	lw	x30,0(x20)
    16e4:	004a0a13          	addi	x20,x20,4

000016e8 <I_sub_cg_cr_rs1_rs2_edges_rs1val_0x0_rs2val_0x5bbc8872>:
I_sub_cg_cr_rs1_rs2_edges_rs1val_0x0_rs2val_0x5bbc8872:
  sub x23, x3, x30 # perform operation
    16e8:	41e18bb3          	sub	x23,x3,x30
  # Check if x23 contains the expected result. x9 is the signature ptr, x5 is the link ptr, x4 is a temp reg.
  RVTEST_SIGUPD(x9, x5, x4, x23, I_sub_cg_cr_rs1_rs2_edges_rs1val_0x0_rs2val_0x5bbc8872, I_sub_cg_cr_rs1_rs2_edges_rs1val_0x0_rs2val_0x5bbc8872_str)
    16ec:	0004a203          	lw	x4,0(x9)
    16f0:	01720863          	beq	x4,x23,1700 <I_sub_cg_cr_rs1_rs2_edges_rs1val_0x0_rs2val_0x5bbc8872+0x18>
    16f4:	5e9022ef          	jal	x5,44dc <failedtest_x5_x4>
    16f8:	000016e8          	.word	0x000016e8
    16fc:	0000a713          	.word	0x0000a713
    1700:	00448493          	addi	x9,x9,4

# Testcase cr_rs1_rs2_edges (Test source rs1 = 0x00000000 rs2 = 0xaaaaaaaa)
  RVTEST_TESTDATA_LOAD_INT(x20, x15) # load rs1: x15 = 0x00000000
    1704:	000a2783          	lw	x15,0(x20)
    1708:	004a0a13          	addi	x20,x20,4
  RVTEST_TESTDATA_LOAD_INT(x20, x22) # load rs2: x22 = 0xaaaaaaaa
    170c:	000a2b03          	lw	x22,0(x20)
    1710:	004a0a13          	addi	x20,x20,4

00001714 <I_sub_cg_cr_rs1_rs2_edges_rs1val_0x0_rs2val_0xaaaaaaaa>:
I_sub_cg_cr_rs1_rs2_edges_rs1val_0x0_rs2val_0xaaaaaaaa:
  sub x18, x15, x22 # perform operation
    1714:	41678933          	sub	x18,x15,x22
  # Check if x18 contains the expected result. x9 is the signature ptr, x5 is the link ptr, x4 is a temp reg.
  RVTEST_SIGUPD(x9, x5, x4, x18, I_sub_cg_cr_rs1_rs2_edges_rs1val_0x0_rs2val_0xaaaaaaaa, I_sub_cg_cr_rs1_rs2_edges_rs1val_0x0_rs2val_0xaaaaaaaa_str)
    1718:	0004a203          	lw	x4,0(x9)
    171c:	01220863          	beq	x4,x18,172c <I_sub_cg_cr_rs1_rs2_edges_rs1val_0x0_rs2val_0xaaaaaaaa+0x18>
    1720:	5bd022ef          	jal	x5,44dc <failedtest_x5_x4>
    1724:	00001714          	.word	0x00001714
    1728:	0000a767          	.word	0x0000a767
    172c:	00448493          	addi	x9,x9,4

# Testcase cr_rs1_rs2_edges (Test source rs1 = 0x00000000 rs2 = 0x55555555)
  RVTEST_TESTDATA_LOAD_INT(x20, x12) # load rs1: x12 = 0x00000000
    1730:	000a2603          	lw	x12,0(x20)
    1734:	004a0a13          	addi	x20,x20,4
  RVTEST_TESTDATA_LOAD_INT(x20, x23) # load rs2: x23 = 0x55555555
    1738:	000a2b83          	lw	x23,0(x20)
    173c:	004a0a13          	addi	x20,x20,4

00001740 <I_sub_cg_cr_rs1_rs2_edges_rs1val_0x0_rs2val_0x55555555>:
I_sub_cg_cr_rs1_rs2_edges_rs1val_0x0_rs2val_0x55555555:
  sub x3, x12, x23 # perform operation
    1740:	417601b3          	sub	x3,x12,x23
  # Check if x3 contains the expected result. x9 is the signature ptr, x5 is the link ptr, x4 is a temp reg.
  RVTEST_SIGUPD(x9, x5, x4, x3, I_sub_cg_cr_rs1_rs2_edges_rs1val_0x0_rs2val_0x55555555, I_sub_cg_cr_rs1_rs2_edges_rs1val_0x0_rs2val_0x55555555_str)
    1744:	0004a203          	lw	x4,0(x9)
    1748:	00320863          	beq	x4,x3,1758 <I_sub_cg_cr_rs1_rs2_edges_rs1val_0x0_rs2val_0x55555555+0x18>
    174c:	591022ef          	jal	x5,44dc <failedtest_x5_x4>
    1750:	00001740          	.word	0x00001740
    1754:	0000a7bb          	.word	0x0000a7bb
    1758:	00448493          	addi	x9,x9,4

# Testcase cr_rs1_rs2_edges (Test source rs1 = 0x00000001 rs2 = 0x00000000)
  RVTEST_TESTDATA_LOAD_INT(x20, x13) # load rs1: x13 = 0x00000001
    175c:	000a2683          	lw	x13,0(x20)
    1760:	004a0a13          	addi	x20,x20,4
  RVTEST_TESTDATA_LOAD_INT(x20, x21) # load rs2: x21 = 0x00000000
    1764:	000a2a83          	lw	x21,0(x20)
    1768:	004a0a13          	addi	x20,x20,4

0000176c <I_sub_cg_cr_rs1_rs2_edges_rs1val_0x1_rs2val_0x0>:
I_sub_cg_cr_rs1_rs2_edges_rs1val_0x1_rs2val_0x0:
  sub x11, x13, x21 # perform operation
    176c:	415685b3          	sub	x11,x13,x21
  # Check if x11 contains the expected result. x9 is the signature ptr, x5 is the link ptr, x4 is a temp reg.
  RVTEST_SIGUPD(x9, x5, x4, x11, I_sub_cg_cr_rs1_rs2_edges_rs1val_0x1_rs2val_0x0, I_sub_cg_cr_rs1_rs2_edges_rs1val_0x1_rs2val_0x0_str)
    1770:	0004a203          	lw	x4,0(x9)
    1774:	00b20863          	beq	x4,x11,1784 <I_sub_cg_cr_rs1_rs2_edges_rs1val_0x1_rs2val_0x0+0x18>
    1778:	565022ef          	jal	x5,44dc <failedtest_x5_x4>
    177c:	0000176c          	.word	0x0000176c
    1780:	0000a80f          	.word	0x0000a80f
    1784:	00448493          	addi	x9,x9,4

# Testcase cr_rs1_rs2_edges (Test source rs1 = 0x00000001 rs2 = 0x00000001)
  RVTEST_TESTDATA_LOAD_INT(x20, x17) # load rs1: x17 = 0x00000001
    1788:	000a2883          	lw	x17,0(x20)
    178c:	004a0a13          	addi	x20,x20,4
  RVTEST_TESTDATA_LOAD_INT(x20, x11) # load rs2: x11 = 0x00000001
    1790:	000a2583          	lw	x11,0(x20)
    1794:	004a0a13          	addi	x20,x20,4

00001798 <I_sub_cg_cr_rs1_rs2_edges_rs1val_0x1_rs2val_0x1>:
I_sub_cg_cr_rs1_rs2_edges_rs1val_0x1_rs2val_0x1:
  sub x27, x17, x11 # perform operation
    1798:	40b88db3          	sub	x27,x17,x11
  # Check if x27 contains the expected result. x9 is the signature ptr, x5 is the link ptr, x4 is a temp reg.
  RVTEST_SIGUPD(x9, x5, x4, x27, I_sub_cg_cr_rs1_rs2_edges_rs1val_0x1_rs2val_0x1, I_sub_cg_cr_rs1_rs2_edges_rs1val_0x1_rs2val_0x1_str)
    179c:	0004a203          	lw	x4,0(x9)
    17a0:	01b20863          	beq	x4,x27,17b0 <I_sub_cg_cr_rs1_rs2_edges_rs1val_0x1_rs2val_0x1+0x18>
    17a4:	539022ef          	jal	x5,44dc <failedtest_x5_x4>
    17a8:	00001798          	.word	0x00001798
    17ac:	0000a85c          	.word	0x0000a85c
    17b0:	00448493          	addi	x9,x9,4

# Testcase cr_rs1_rs2_edges (Test source rs1 = 0x00000001 rs2 = 0x00000002)
  RVTEST_TESTDATA_LOAD_INT(x20, x18) # load rs1: x18 = 0x00000001
    17b4:	000a2903          	lw	x18,0(x20)
    17b8:	004a0a13          	addi	x20,x20,4
  RVTEST_TESTDATA_LOAD_INT(x20, x11) # load rs2: x11 = 0x00000002
    17bc:	000a2583          	lw	x11,0(x20)
    17c0:	004a0a13          	addi	x20,x20,4

000017c4 <I_sub_cg_cr_rs1_rs2_edges_rs1val_0x1_rs2val_0x2>:
I_sub_cg_cr_rs1_rs2_edges_rs1val_0x1_rs2val_0x2:
  sub x8, x18, x11 # perform operation
    17c4:	40b90433          	sub	x8,x18,x11
  # Check if x8 contains the expected result. x9 is the signature ptr, x5 is the link ptr, x4 is a temp reg.
  RVTEST_SIGUPD(x9, x5, x4, x8, I_sub_cg_cr_rs1_rs2_edges_rs1val_0x1_rs2val_0x2, I_sub_cg_cr_rs1_rs2_edges_rs1val_0x1_rs2val_0x2_str)
    17c8:	0004a203          	lw	x4,0(x9)
    17cc:	00820863          	beq	x4,x8,17dc <I_sub_cg_cr_rs1_rs2_edges_rs1val_0x1_rs2val_0x2+0x18>
    17d0:	50d022ef          	jal	x5,44dc <failedtest_x5_x4>
    17d4:	000017c4          	.word	0x000017c4
    17d8:	0000a8a9          	.word	0x0000a8a9
    17dc:	00448493          	addi	x9,x9,4

# Testcase cr_rs1_rs2_edges (Test source rs1 = 0x00000001 rs2 = 0x80000000)
  RVTEST_TESTDATA_LOAD_INT(x20, x11) # load rs1: x11 = 0x00000001
    17e0:	000a2583          	lw	x11,0(x20)
    17e4:	004a0a13          	addi	x20,x20,4
  RVTEST_TESTDATA_LOAD_INT(x20, x22) # load rs2: x22 = 0x80000000
    17e8:	000a2b03          	lw	x22,0(x20)
    17ec:	004a0a13          	addi	x20,x20,4

000017f0 <I_sub_cg_cr_rs1_rs2_edges_rs1val_0x1_rs2val_0x80000000>:
I_sub_cg_cr_rs1_rs2_edges_rs1val_0x1_rs2val_0x80000000:
  sub x29, x11, x22 # perform operation
    17f0:	41658eb3          	sub	x29,x11,x22
  # Check if x29 contains the expected result. x9 is the signature ptr, x5 is the link ptr, x4 is a temp reg.
  RVTEST_SIGUPD(x9, x5, x4, x29, I_sub_cg_cr_rs1_rs2_edges_rs1val_0x1_rs2val_0x80000000, I_sub_cg_cr_rs1_rs2_edges_rs1val_0x1_rs2val_0x80000000_str)
    17f4:	0004a203          	lw	x4,0(x9)
    17f8:	01d20863          	beq	x4,x29,1808 <I_sub_cg_cr_rs1_rs2_edges_rs1val_0x1_rs2val_0x80000000+0x18>
    17fc:	4e1022ef          	jal	x5,44dc <failedtest_x5_x4>
    1800:	000017f0          	.word	0x000017f0
    1804:	0000a8f6          	.word	0x0000a8f6
    1808:	00448493          	addi	x9,x9,4

# Testcase cr_rs1_rs2_edges (Test source rs1 = 0x00000001 rs2 = 0x80000001)
  RVTEST_TESTDATA_LOAD_INT(x20, x18) # load rs1: x18 = 0x00000001
    180c:	000a2903          	lw	x18,0(x20)
    1810:	004a0a13          	addi	x20,x20,4
  RVTEST_TESTDATA_LOAD_INT(x20, x17) # load rs2: x17 = 0x80000001
    1814:	000a2883          	lw	x17,0(x20)
    1818:	004a0a13          	addi	x20,x20,4

0000181c <I_sub_cg_cr_rs1_rs2_edges_rs1val_0x1_rs2val_0x80000001>:
I_sub_cg_cr_rs1_rs2_edges_rs1val_0x1_rs2val_0x80000001:
  sub x6, x18, x17 # perform operation
    181c:	41190333          	sub	x6,x18,x17
  # Check if x6 contains the expected result. x9 is the signature ptr, x5 is the link ptr, x4 is a temp reg.
  RVTEST_SIGUPD(x9, x5, x4, x6, I_sub_cg_cr_rs1_rs2_edges_rs1val_0x1_rs2val_0x80000001, I_sub_cg_cr_rs1_rs2_edges_rs1val_0x1_rs2val_0x80000001_str)
    1820:	0004a203          	lw	x4,0(x9)
    1824:	00620863          	beq	x4,x6,1834 <I_sub_cg_cr_rs1_rs2_edges_rs1val_0x1_rs2val_0x80000001+0x18>
    1828:	4b5022ef          	jal	x5,44dc <failedtest_x5_x4>
    182c:	0000181c          	.word	0x0000181c
    1830:	0000a94a          	.word	0x0000a94a
    1834:	00448493          	addi	x9,x9,4

# Testcase cr_rs1_rs2_edges (Test source rs1 = 0x00000001 rs2 = 0x7fffffff)
  RVTEST_TESTDATA_LOAD_INT(x20, x12) # load rs1: x12 = 0x00000001
    1838:	000a2603          	lw	x12,0(x20)
    183c:	004a0a13          	addi	x20,x20,4
  RVTEST_TESTDATA_LOAD_INT(x20, x31) # load rs2: x31 = 0x7fffffff
    1840:	000a2f83          	lw	x31,0(x20)
    1844:	004a0a13          	addi	x20,x20,4

00001848 <I_sub_cg_cr_rs1_rs2_edges_rs1val_0x1_rs2val_0x7fffffff>:
I_sub_cg_cr_rs1_rs2_edges_rs1val_0x1_rs2val_0x7fffffff:
  sub x21, x12, x31 # perform operation
    1848:	41f60ab3          	sub	x21,x12,x31
  # Check if x21 contains the expected result. x9 is the signature ptr, x5 is the link ptr, x4 is a temp reg.
  RVTEST_SIGUPD(x9, x5, x4, x21, I_sub_cg_cr_rs1_rs2_edges_rs1val_0x1_rs2val_0x7fffffff, I_sub_cg_cr_rs1_rs2_edges_rs1val_0x1_rs2val_0x7fffffff_str)
    184c:	0004a203          	lw	x4,0(x9)
    1850:	01520863          	beq	x4,x21,1860 <I_sub_cg_cr_rs1_rs2_edges_rs1val_0x1_rs2val_0x7fffffff+0x18>
    1854:	489022ef          	jal	x5,44dc <failedtest_x5_x4>
    1858:	00001848          	.word	0x00001848
    185c:	0000a99e          	.word	0x0000a99e
    1860:	00448493          	addi	x9,x9,4

# Testcase cr_rs1_rs2_edges (Test source rs1 = 0x00000001 rs2 = 0x7ffffffe)
  RVTEST_TESTDATA_LOAD_INT(x20, x8) # load rs1: x8 = 0x00000001
    1864:	000a2403          	lw	x8,0(x20)
    1868:	004a0a13          	addi	x20,x20,4
  RVTEST_TESTDATA_LOAD_INT(x20, x18) # load rs2: x18 = 0x7ffffffe
    186c:	000a2903          	lw	x18,0(x20)
    1870:	004a0a13          	addi	x20,x20,4

00001874 <I_sub_cg_cr_rs1_rs2_edges_rs1val_0x1_rs2val_0x7ffffffe>:
I_sub_cg_cr_rs1_rs2_edges_rs1val_0x1_rs2val_0x7ffffffe:
  sub x27, x8, x18 # perform operation
    1874:	41240db3          	sub	x27,x8,x18
  # Check if x27 contains the expected result. x9 is the signature ptr, x5 is the link ptr, x4 is a temp reg.
  RVTEST_SIGUPD(x9, x5, x4, x27, I_sub_cg_cr_rs1_rs2_edges_rs1val_0x1_rs2val_0x7ffffffe, I_sub_cg_cr_rs1_rs2_edges_rs1val_0x1_rs2val_0x7ffffffe_str)
    1878:	0004a203          	lw	x4,0(x9)
    187c:	01b20863          	beq	x4,x27,188c <I_sub_cg_cr_rs1_rs2_edges_rs1val_0x1_rs2val_0x7ffffffe+0x18>
    1880:	45d022ef          	jal	x5,44dc <failedtest_x5_x4>
    1884:	00001874          	.word	0x00001874
    1888:	0000a9f2          	.word	0x0000a9f2
    188c:	00448493          	addi	x9,x9,4

# Testcase cr_rs1_rs2_edges (Test source rs1 = 0x00000001 rs2 = 0xffffffff)
  RVTEST_TESTDATA_LOAD_INT(x20, x31) # load rs1: x31 = 0x00000001
    1890:	000a2f83          	lw	x31,0(x20)
    1894:	004a0a13          	addi	x20,x20,4
  RVTEST_TESTDATA_LOAD_INT(x20, x29) # load rs2: x29 = 0xffffffff
    1898:	000a2e83          	lw	x29,0(x20)
    189c:	004a0a13          	addi	x20,x20,4

000018a0 <I_sub_cg_cr_rs1_rs2_edges_rs1val_0x1_rs2val_0xffffffff>:
I_sub_cg_cr_rs1_rs2_edges_rs1val_0x1_rs2val_0xffffffff:
  sub x19, x31, x29 # perform operation
    18a0:	41df89b3          	sub	x19,x31,x29
  # Check if x19 contains the expected result. x9 is the signature ptr, x5 is the link ptr, x4 is a temp reg.
  RVTEST_SIGUPD(x9, x5, x4, x19, I_sub_cg_cr_rs1_rs2_edges_rs1val_0x1_rs2val_0xffffffff, I_sub_cg_cr_rs1_rs2_edges_rs1val_0x1_rs2val_0xffffffff_str)
    18a4:	0004a203          	lw	x4,0(x9)
    18a8:	01320863          	beq	x4,x19,18b8 <I_sub_cg_cr_rs1_rs2_edges_rs1val_0x1_rs2val_0xffffffff+0x18>
    18ac:	431022ef          	jal	x5,44dc <failedtest_x5_x4>
    18b0:	000018a0          	.word	0x000018a0
    18b4:	0000aa46          	.word	0x0000aa46
    18b8:	00448493          	addi	x9,x9,4

# Testcase cr_rs1_rs2_edges (Test source rs1 = 0x00000001 rs2 = 0xfffffffe)
  RVTEST_TESTDATA_LOAD_INT(x20, x21) # load rs1: x21 = 0x00000001
    18bc:	000a2a83          	lw	x21,0(x20)
    18c0:	004a0a13          	addi	x20,x20,4
  RVTEST_TESTDATA_LOAD_INT(x20, x16) # load rs2: x16 = 0xfffffffe
    18c4:	000a2803          	lw	x16,0(x20)
    18c8:	004a0a13          	addi	x20,x20,4

000018cc <I_sub_cg_cr_rs1_rs2_edges_rs1val_0x1_rs2val_0xfffffffe>:
I_sub_cg_cr_rs1_rs2_edges_rs1val_0x1_rs2val_0xfffffffe:
  sub x26, x21, x16 # perform operation
    18cc:	410a8d33          	sub	x26,x21,x16
  # Check if x26 contains the expected result. x9 is the signature ptr, x5 is the link ptr, x4 is a temp reg.
  RVTEST_SIGUPD(x9, x5, x4, x26, I_sub_cg_cr_rs1_rs2_edges_rs1val_0x1_rs2val_0xfffffffe, I_sub_cg_cr_rs1_rs2_edges_rs1val_0x1_rs2val_0xfffffffe_str)
    18d0:	0004a203          	lw	x4,0(x9)
    18d4:	01a20863          	beq	x4,x26,18e4 <I_sub_cg_cr_rs1_rs2_edges_rs1val_0x1_rs2val_0xfffffffe+0x18>
    18d8:	405022ef          	jal	x5,44dc <failedtest_x5_x4>
    18dc:	000018cc          	.word	0x000018cc
    18e0:	0000aa9a          	.word	0x0000aa9a
    18e4:	00448493          	addi	x9,x9,4

# Testcase cr_rs1_rs2_edges (Test source rs1 = 0x00000001 rs2 = 0x5bbc8872)
  RVTEST_TESTDATA_LOAD_INT(x20, x1) # load rs1: x1 = 0x00000001
    18e8:	000a2083          	lw	x1,0(x20)
    18ec:	004a0a13          	addi	x20,x20,4
  RVTEST_TESTDATA_LOAD_INT(x20, x21) # load rs2: x21 = 0x5bbc8872
    18f0:	000a2a83          	lw	x21,0(x20)
    18f4:	004a0a13          	addi	x20,x20,4

000018f8 <I_sub_cg_cr_rs1_rs2_edges_rs1val_0x1_rs2val_0x5bbc8872>:
I_sub_cg_cr_rs1_rs2_edges_rs1val_0x1_rs2val_0x5bbc8872:
  sub x22, x1, x21 # perform operation
    18f8:	41508b33          	sub	x22,x1,x21
  # Check if x22 contains the expected result. x9 is the signature ptr, x5 is the link ptr, x4 is a temp reg.
  RVTEST_SIGUPD(x9, x5, x4, x22, I_sub_cg_cr_rs1_rs2_edges_rs1val_0x1_rs2val_0x5bbc8872, I_sub_cg_cr_rs1_rs2_edges_rs1val_0x1_rs2val_0x5bbc8872_str)
    18fc:	0004a203          	lw	x4,0(x9)
    1900:	01620863          	beq	x4,x22,1910 <I_sub_cg_cr_rs1_rs2_edges_rs1val_0x1_rs2val_0x5bbc8872+0x18>
    1904:	3d9022ef          	jal	x5,44dc <failedtest_x5_x4>
    1908:	000018f8          	.word	0x000018f8
    190c:	0000aaee          	.word	0x0000aaee
    1910:	00448493          	addi	x9,x9,4

# Testcase cr_rs1_rs2_edges (Test source rs1 = 0x00000001 rs2 = 0xaaaaaaaa)
  RVTEST_TESTDATA_LOAD_INT(x20, x27) # load rs1: x27 = 0x00000001
    1914:	000a2d83          	lw	x27,0(x20)
    1918:	004a0a13          	addi	x20,x20,4
  RVTEST_TESTDATA_LOAD_INT(x20, x25) # load rs2: x25 = 0xaaaaaaaa
    191c:	000a2c83          	lw	x25,0(x20)
    1920:	004a0a13          	addi	x20,x20,4

00001924 <I_sub_cg_cr_rs1_rs2_edges_rs1val_0x1_rs2val_0xaaaaaaaa>:
I_sub_cg_cr_rs1_rs2_edges_rs1val_0x1_rs2val_0xaaaaaaaa:
  sub x17, x27, x25 # perform operation
    1924:	419d88b3          	sub	x17,x27,x25
  # Check if x17 contains the expected result. x9 is the signature ptr, x5 is the link ptr, x4 is a temp reg.
  RVTEST_SIGUPD(x9, x5, x4, x17, I_sub_cg_cr_rs1_rs2_edges_rs1val_0x1_rs2val_0xaaaaaaaa, I_sub_cg_cr_rs1_rs2_edges_rs1val_0x1_rs2val_0xaaaaaaaa_str)
    1928:	0004a203          	lw	x4,0(x9)
    192c:	01120863          	beq	x4,x17,193c <I_sub_cg_cr_rs1_rs2_edges_rs1val_0x1_rs2val_0xaaaaaaaa+0x18>
    1930:	3ad022ef          	jal	x5,44dc <failedtest_x5_x4>
    1934:	00001924          	.word	0x00001924
    1938:	0000ab42          	.word	0x0000ab42
    193c:	00448493          	addi	x9,x9,4

# Testcase cr_rs1_rs2_edges (Test source rs1 = 0x00000001 rs2 = 0x55555555)
  RVTEST_TESTDATA_LOAD_INT(x20, x1) # load rs1: x1 = 0x00000001
    1940:	000a2083          	lw	x1,0(x20)
    1944:	004a0a13          	addi	x20,x20,4
  RVTEST_TESTDATA_LOAD_INT(x20, x7) # load rs2: x7 = 0x55555555
    1948:	000a2383          	lw	x7,0(x20)
    194c:	004a0a13          	addi	x20,x20,4

00001950 <I_sub_cg_cr_rs1_rs2_edges_rs1val_0x1_rs2val_0x55555555>:
I_sub_cg_cr_rs1_rs2_edges_rs1val_0x1_rs2val_0x55555555:
  sub x10, x1, x7 # perform operation
    1950:	40708533          	sub	x10,x1,x7
  # Check if x10 contains the expected result. x9 is the signature ptr, x5 is the link ptr, x4 is a temp reg.
  RVTEST_SIGUPD(x9, x5, x4, x10, I_sub_cg_cr_rs1_rs2_edges_rs1val_0x1_rs2val_0x55555555, I_sub_cg_cr_rs1_rs2_edges_rs1val_0x1_rs2val_0x55555555_str)
    1954:	0004a203          	lw	x4,0(x9)
    1958:	00a20863          	beq	x4,x10,1968 <I_sub_cg_cr_rs1_rs2_edges_rs1val_0x1_rs2val_0x55555555+0x18>
    195c:	381022ef          	jal	x5,44dc <failedtest_x5_x4>
    1960:	00001950          	.word	0x00001950
    1964:	0000ab96          	.word	0x0000ab96
    1968:	00448493          	addi	x9,x9,4

# Testcase cr_rs1_rs2_edges (Test source rs1 = 0x00000002 rs2 = 0x00000000)
  RVTEST_TESTDATA_LOAD_INT(x20, x11) # load rs1: x11 = 0x00000002
    196c:	000a2583          	lw	x11,0(x20)
    1970:	004a0a13          	addi	x20,x20,4
  RVTEST_TESTDATA_LOAD_INT(x20, x12) # load rs2: x12 = 0x00000000
    1974:	000a2603          	lw	x12,0(x20)
    1978:	004a0a13          	addi	x20,x20,4

0000197c <I_sub_cg_cr_rs1_rs2_edges_rs1val_0x2_rs2val_0x0>:
I_sub_cg_cr_rs1_rs2_edges_rs1val_0x2_rs2val_0x0:
  sub x23, x11, x12 # perform operation
    197c:	40c58bb3          	sub	x23,x11,x12
  # Check if x23 contains the expected result. x9 is the signature ptr, x5 is the link ptr, x4 is a temp reg.
  RVTEST_SIGUPD(x9, x5, x4, x23, I_sub_cg_cr_rs1_rs2_edges_rs1val_0x2_rs2val_0x0, I_sub_cg_cr_rs1_rs2_edges_rs1val_0x2_rs2val_0x0_str)
    1980:	0004a203          	lw	x4,0(x9)
    1984:	01720863          	beq	x4,x23,1994 <I_sub_cg_cr_rs1_rs2_edges_rs1val_0x2_rs2val_0x0+0x18>
    1988:	355022ef          	jal	x5,44dc <failedtest_x5_x4>
    198c:	0000197c          	.word	0x0000197c
    1990:	0000abea          	.word	0x0000abea
    1994:	00448493          	addi	x9,x9,4

# Testcase cr_rs1_rs2_edges (Test source rs1 = 0x00000002 rs2 = 0x00000001)
  RVTEST_TESTDATA_LOAD_INT(x20, x8) # load rs1: x8 = 0x00000002
    1998:	000a2403          	lw	x8,0(x20)
    199c:	004a0a13          	addi	x20,x20,4
  RVTEST_TESTDATA_LOAD_INT(x20, x31) # load rs2: x31 = 0x00000001
    19a0:	000a2f83          	lw	x31,0(x20)
    19a4:	004a0a13          	addi	x20,x20,4

000019a8 <I_sub_cg_cr_rs1_rs2_edges_rs1val_0x2_rs2val_0x1>:
I_sub_cg_cr_rs1_rs2_edges_rs1val_0x2_rs2val_0x1:
  sub x23, x8, x31 # perform operation
    19a8:	41f40bb3          	sub	x23,x8,x31
  # Check if x23 contains the expected result. x9 is the signature ptr, x5 is the link ptr, x4 is a temp reg.
  RVTEST_SIGUPD(x9, x5, x4, x23, I_sub_cg_cr_rs1_rs2_edges_rs1val_0x2_rs2val_0x1, I_sub_cg_cr_rs1_rs2_edges_rs1val_0x2_rs2val_0x1_str)
    19ac:	0004a203          	lw	x4,0(x9)
    19b0:	01720863          	beq	x4,x23,19c0 <I_sub_cg_cr_rs1_rs2_edges_rs1val_0x2_rs2val_0x1+0x18>
    19b4:	329022ef          	jal	x5,44dc <failedtest_x5_x4>
    19b8:	000019a8          	.word	0x000019a8
    19bc:	0000ac37          	.word	0x0000ac37
    19c0:	00448493          	addi	x9,x9,4

# Testcase cr_rs1_rs2_edges (Test source rs1 = 0x00000002 rs2 = 0x00000002)
  RVTEST_TESTDATA_LOAD_INT(x20, x25) # load rs1: x25 = 0x00000002
    19c4:	000a2c83          	lw	x25,0(x20)
    19c8:	004a0a13          	addi	x20,x20,4
  RVTEST_TESTDATA_LOAD_INT(x20, x13) # load rs2: x13 = 0x00000002
    19cc:	000a2683          	lw	x13,0(x20)
    19d0:	004a0a13          	addi	x20,x20,4

000019d4 <I_sub_cg_cr_rs1_rs2_edges_rs1val_0x2_rs2val_0x2>:
I_sub_cg_cr_rs1_rs2_edges_rs1val_0x2_rs2val_0x2:
  sub x6, x25, x13 # perform operation
    19d4:	40dc8333          	sub	x6,x25,x13
  # Check if x6 contains the expected result. x9 is the signature ptr, x5 is the link ptr, x4 is a temp reg.
  RVTEST_SIGUPD(x9, x5, x4, x6, I_sub_cg_cr_rs1_rs2_edges_rs1val_0x2_rs2val_0x2, I_sub_cg_cr_rs1_rs2_edges_rs1val_0x2_rs2val_0x2_str)
    19d8:	0004a203          	lw	x4,0(x9)
    19dc:	00620863          	beq	x4,x6,19ec <I_sub_cg_cr_rs1_rs2_edges_rs1val_0x2_rs2val_0x2+0x18>
    19e0:	2fd022ef          	jal	x5,44dc <failedtest_x5_x4>
    19e4:	000019d4          	.word	0x000019d4
    19e8:	0000ac84          	.word	0x0000ac84
    19ec:	00448493          	addi	x9,x9,4

# Testcase cr_rs1_rs2_edges (Test source rs1 = 0x00000002 rs2 = 0x80000000)
  RVTEST_TESTDATA_LOAD_INT(x20, x24) # load rs1: x24 = 0x00000002
    19f0:	000a2c03          	lw	x24,0(x20)
    19f4:	004a0a13          	addi	x20,x20,4
  RVTEST_TESTDATA_LOAD_INT(x20, x2) # load rs2: x2 = 0x80000000
    19f8:	000a2103          	lw	x2,0(x20)
    19fc:	004a0a13          	addi	x20,x20,4

00001a00 <I_sub_cg_cr_rs1_rs2_edges_rs1val_0x2_rs2val_0x80000000>:
I_sub_cg_cr_rs1_rs2_edges_rs1val_0x2_rs2val_0x80000000:
  sub x17, x24, x2 # perform operation
    1a00:	402c08b3          	sub	x17,x24,x2
  # Check if x17 contains the expected result. x9 is the signature ptr, x5 is the link ptr, x4 is a temp reg.
  RVTEST_SIGUPD(x9, x5, x4, x17, I_sub_cg_cr_rs1_rs2_edges_rs1val_0x2_rs2val_0x80000000, I_sub_cg_cr_rs1_rs2_edges_rs1val_0x2_rs2val_0x80000000_str)
    1a04:	0004a203          	lw	x4,0(x9)
    1a08:	01120863          	beq	x4,x17,1a18 <I_sub_cg_cr_rs1_rs2_edges_rs1val_0x2_rs2val_0x80000000+0x18>
    1a0c:	2d1022ef          	jal	x5,44dc <failedtest_x5_x4>
    1a10:	00001a00          	.word	0x00001a00
    1a14:	0000acd1          	.word	0x0000acd1
    1a18:	00448493          	addi	x9,x9,4

# Testcase cr_rs1_rs2_edges (Test source rs1 = 0x00000002 rs2 = 0x80000001)
  RVTEST_TESTDATA_LOAD_INT(x20, x7) # load rs1: x7 = 0x00000002
    1a1c:	000a2383          	lw	x7,0(x20)
    1a20:	004a0a13          	addi	x20,x20,4
  RVTEST_TESTDATA_LOAD_INT(x20, x16) # load rs2: x16 = 0x80000001
    1a24:	000a2803          	lw	x16,0(x20)
    1a28:	004a0a13          	addi	x20,x20,4

00001a2c <I_sub_cg_cr_rs1_rs2_edges_rs1val_0x2_rs2val_0x80000001>:
I_sub_cg_cr_rs1_rs2_edges_rs1val_0x2_rs2val_0x80000001:
  sub x10, x7, x16 # perform operation
    1a2c:	41038533          	sub	x10,x7,x16
  # Check if x10 contains the expected result. x9 is the signature ptr, x5 is the link ptr, x4 is a temp reg.
  RVTEST_SIGUPD(x9, x5, x4, x10, I_sub_cg_cr_rs1_rs2_edges_rs1val_0x2_rs2val_0x80000001, I_sub_cg_cr_rs1_rs2_edges_rs1val_0x2_rs2val_0x80000001_str)
    1a30:	0004a203          	lw	x4,0(x9)
    1a34:	00a20863          	beq	x4,x10,1a44 <I_sub_cg_cr_rs1_rs2_edges_rs1val_0x2_rs2val_0x80000001+0x18>
    1a38:	2a5022ef          	jal	x5,44dc <failedtest_x5_x4>
    1a3c:	00001a2c          	.word	0x00001a2c
    1a40:	0000ad25          	.word	0x0000ad25
    1a44:	00448493          	addi	x9,x9,4

# Testcase cr_rs1_rs2_edges (Test source rs1 = 0x00000002 rs2 = 0x7fffffff)
  RVTEST_TESTDATA_LOAD_INT(x20, x17) # load rs1: x17 = 0x00000002
    1a48:	000a2883          	lw	x17,0(x20)
    1a4c:	004a0a13          	addi	x20,x20,4
  RVTEST_TESTDATA_LOAD_INT(x20, x23) # load rs2: x23 = 0x7fffffff
    1a50:	000a2b83          	lw	x23,0(x20)
    1a54:	004a0a13          	addi	x20,x20,4

00001a58 <I_sub_cg_cr_rs1_rs2_edges_rs1val_0x2_rs2val_0x7fffffff>:
I_sub_cg_cr_rs1_rs2_edges_rs1val_0x2_rs2val_0x7fffffff:
  sub x22, x17, x23 # perform operation
    1a58:	41788b33          	sub	x22,x17,x23
  # Check if x22 contains the expected result. x9 is the signature ptr, x5 is the link ptr, x4 is a temp reg.
  RVTEST_SIGUPD(x9, x5, x4, x22, I_sub_cg_cr_rs1_rs2_edges_rs1val_0x2_rs2val_0x7fffffff, I_sub_cg_cr_rs1_rs2_edges_rs1val_0x2_rs2val_0x7fffffff_str)
    1a5c:	0004a203          	lw	x4,0(x9)
    1a60:	01620863          	beq	x4,x22,1a70 <I_sub_cg_cr_rs1_rs2_edges_rs1val_0x2_rs2val_0x7fffffff+0x18>
    1a64:	279022ef          	jal	x5,44dc <failedtest_x5_x4>
    1a68:	00001a58          	.word	0x00001a58
    1a6c:	0000ad79          	.word	0x0000ad79
    1a70:	00448493          	addi	x9,x9,4

# Testcase cr_rs1_rs2_edges (Test source rs1 = 0x00000002 rs2 = 0x7ffffffe)
  RVTEST_TESTDATA_LOAD_INT(x20, x26) # load rs1: x26 = 0x00000002
    1a74:	000a2d03          	lw	x26,0(x20)
    1a78:	004a0a13          	addi	x20,x20,4
  RVTEST_TESTDATA_LOAD_INT(x20, x29) # load rs2: x29 = 0x7ffffffe
    1a7c:	000a2e83          	lw	x29,0(x20)
    1a80:	004a0a13          	addi	x20,x20,4

00001a84 <I_sub_cg_cr_rs1_rs2_edges_rs1val_0x2_rs2val_0x7ffffffe>:
I_sub_cg_cr_rs1_rs2_edges_rs1val_0x2_rs2val_0x7ffffffe:
  sub x14, x26, x29 # perform operation
    1a84:	41dd0733          	sub	x14,x26,x29
  # Check if x14 contains the expected result. x9 is the signature ptr, x5 is the link ptr, x4 is a temp reg.
  RVTEST_SIGUPD(x9, x5, x4, x14, I_sub_cg_cr_rs1_rs2_edges_rs1val_0x2_rs2val_0x7ffffffe, I_sub_cg_cr_rs1_rs2_edges_rs1val_0x2_rs2val_0x7ffffffe_str)
    1a88:	0004a203          	lw	x4,0(x9)
    1a8c:	00e20863          	beq	x4,x14,1a9c <I_sub_cg_cr_rs1_rs2_edges_rs1val_0x2_rs2val_0x7ffffffe+0x18>
    1a90:	24d022ef          	jal	x5,44dc <failedtest_x5_x4>
    1a94:	00001a84          	.word	0x00001a84
    1a98:	0000adcd          	.word	0x0000adcd
    1a9c:	00448493          	addi	x9,x9,4

# Testcase cr_rs1_rs2_edges (Test source rs1 = 0x00000002 rs2 = 0xffffffff)
  RVTEST_TESTDATA_LOAD_INT(x20, x17) # load rs1: x17 = 0x00000002
    1aa0:	000a2883          	lw	x17,0(x20)
    1aa4:	004a0a13          	addi	x20,x20,4
  RVTEST_TESTDATA_LOAD_INT(x20, x19) # load rs2: x19 = 0xffffffff
    1aa8:	000a2983          	lw	x19,0(x20)
    1aac:	004a0a13          	addi	x20,x20,4

00001ab0 <I_sub_cg_cr_rs1_rs2_edges_rs1val_0x2_rs2val_0xffffffff>:
I_sub_cg_cr_rs1_rs2_edges_rs1val_0x2_rs2val_0xffffffff:
  sub x25, x17, x19 # perform operation
    1ab0:	41388cb3          	sub	x25,x17,x19
  # Check if x25 contains the expected result. x9 is the signature ptr, x5 is the link ptr, x4 is a temp reg.
  RVTEST_SIGUPD(x9, x5, x4, x25, I_sub_cg_cr_rs1_rs2_edges_rs1val_0x2_rs2val_0xffffffff, I_sub_cg_cr_rs1_rs2_edges_rs1val_0x2_rs2val_0xffffffff_str)
    1ab4:	0004a203          	lw	x4,0(x9)
    1ab8:	01920863          	beq	x4,x25,1ac8 <I_sub_cg_cr_rs1_rs2_edges_rs1val_0x2_rs2val_0xffffffff+0x18>
    1abc:	221022ef          	jal	x5,44dc <failedtest_x5_x4>
    1ac0:	00001ab0          	.word	0x00001ab0
    1ac4:	0000ae21          	.word	0x0000ae21
    1ac8:	00448493          	addi	x9,x9,4

# Testcase cr_rs1_rs2_edges (Test source rs1 = 0x00000002 rs2 = 0xfffffffe)
  RVTEST_TESTDATA_LOAD_INT(x20, x7) # load rs1: x7 = 0x00000002
    1acc:	000a2383          	lw	x7,0(x20)
    1ad0:	004a0a13          	addi	x20,x20,4
  RVTEST_TESTDATA_LOAD_INT(x20, x12) # load rs2: x12 = 0xfffffffe
    1ad4:	000a2603          	lw	x12,0(x20)
    1ad8:	004a0a13          	addi	x20,x20,4

00001adc <I_sub_cg_cr_rs1_rs2_edges_rs1val_0x2_rs2val_0xfffffffe>:
I_sub_cg_cr_rs1_rs2_edges_rs1val_0x2_rs2val_0xfffffffe:
  sub x22, x7, x12 # perform operation
    1adc:	40c38b33          	sub	x22,x7,x12
  # Check if x22 contains the expected result. x9 is the signature ptr, x5 is the link ptr, x4 is a temp reg.
  RVTEST_SIGUPD(x9, x5, x4, x22, I_sub_cg_cr_rs1_rs2_edges_rs1val_0x2_rs2val_0xfffffffe, I_sub_cg_cr_rs1_rs2_edges_rs1val_0x2_rs2val_0xfffffffe_str)
    1ae0:	0004a203          	lw	x4,0(x9)
    1ae4:	01620863          	beq	x4,x22,1af4 <I_sub_cg_cr_rs1_rs2_edges_rs1val_0x2_rs2val_0xfffffffe+0x18>
    1ae8:	1f5022ef          	jal	x5,44dc <failedtest_x5_x4>
    1aec:	00001adc          	.word	0x00001adc
    1af0:	0000ae75          	.word	0x0000ae75
    1af4:	00448493          	addi	x9,x9,4

# Testcase cr_rs1_rs2_edges (Test source rs1 = 0x00000002 rs2 = 0x5bbc8872)
  RVTEST_TESTDATA_LOAD_INT(x20, x15) # load rs1: x15 = 0x00000002
    1af8:	000a2783          	lw	x15,0(x20)
    1afc:	004a0a13          	addi	x20,x20,4
  RVTEST_TESTDATA_LOAD_INT(x20, x21) # load rs2: x21 = 0x5bbc8872
    1b00:	000a2a83          	lw	x21,0(x20)
    1b04:	004a0a13          	addi	x20,x20,4

00001b08 <I_sub_cg_cr_rs1_rs2_edges_rs1val_0x2_rs2val_0x5bbc8872>:
I_sub_cg_cr_rs1_rs2_edges_rs1val_0x2_rs2val_0x5bbc8872:
  sub x8, x15, x21 # perform operation
    1b08:	41578433          	sub	x8,x15,x21
  # Check if x8 contains the expected result. x9 is the signature ptr, x5 is the link ptr, x4 is a temp reg.
  RVTEST_SIGUPD(x9, x5, x4, x8, I_sub_cg_cr_rs1_rs2_edges_rs1val_0x2_rs2val_0x5bbc8872, I_sub_cg_cr_rs1_rs2_edges_rs1val_0x2_rs2val_0x5bbc8872_str)
    1b0c:	0004a203          	lw	x4,0(x9)
    1b10:	00820863          	beq	x4,x8,1b20 <I_sub_cg_cr_rs1_rs2_edges_rs1val_0x2_rs2val_0x5bbc8872+0x18>
    1b14:	1c9022ef          	jal	x5,44dc <failedtest_x5_x4>
    1b18:	00001b08          	.word	0x00001b08
    1b1c:	0000aec9          	.word	0x0000aec9
    1b20:	00448493          	addi	x9,x9,4

# Testcase cr_rs1_rs2_edges (Test source rs1 = 0x00000002 rs2 = 0xaaaaaaaa)
  RVTEST_TESTDATA_LOAD_INT(x20, x18) # load rs1: x18 = 0x00000002
    1b24:	000a2903          	lw	x18,0(x20)
    1b28:	004a0a13          	addi	x20,x20,4
  RVTEST_TESTDATA_LOAD_INT(x20, x13) # load rs2: x13 = 0xaaaaaaaa
    1b2c:	000a2683          	lw	x13,0(x20)
    1b30:	004a0a13          	addi	x20,x20,4

00001b34 <I_sub_cg_cr_rs1_rs2_edges_rs1val_0x2_rs2val_0xaaaaaaaa>:
I_sub_cg_cr_rs1_rs2_edges_rs1val_0x2_rs2val_0xaaaaaaaa:
  sub x3, x18, x13 # perform operation
    1b34:	40d901b3          	sub	x3,x18,x13
  # Check if x3 contains the expected result. x9 is the signature ptr, x5 is the link ptr, x4 is a temp reg.
  RVTEST_SIGUPD(x9, x5, x4, x3, I_sub_cg_cr_rs1_rs2_edges_rs1val_0x2_rs2val_0xaaaaaaaa, I_sub_cg_cr_rs1_rs2_edges_rs1val_0x2_rs2val_0xaaaaaaaa_str)
    1b38:	0004a203          	lw	x4,0(x9)
    1b3c:	00320863          	beq	x4,x3,1b4c <I_sub_cg_cr_rs1_rs2_edges_rs1val_0x2_rs2val_0xaaaaaaaa+0x18>
    1b40:	19d022ef          	jal	x5,44dc <failedtest_x5_x4>
    1b44:	00001b34          	.word	0x00001b34
    1b48:	0000af1d          	.word	0x0000af1d
    1b4c:	00448493          	addi	x9,x9,4

# Testcase cr_rs1_rs2_edges (Test source rs1 = 0x00000002 rs2 = 0x55555555)
  RVTEST_TESTDATA_LOAD_INT(x20, x30) # load rs1: x30 = 0x00000002
    1b50:	000a2f03          	lw	x30,0(x20)
    1b54:	004a0a13          	addi	x20,x20,4
  RVTEST_TESTDATA_LOAD_INT(x20, x3) # load rs2: x3 = 0x55555555
    1b58:	000a2183          	lw	x3,0(x20)
    1b5c:	004a0a13          	addi	x20,x20,4

00001b60 <I_sub_cg_cr_rs1_rs2_edges_rs1val_0x2_rs2val_0x55555555>:
I_sub_cg_cr_rs1_rs2_edges_rs1val_0x2_rs2val_0x55555555:
  sub x19, x30, x3 # perform operation
    1b60:	403f09b3          	sub	x19,x30,x3
  # Check if x19 contains the expected result. x9 is the signature ptr, x5 is the link ptr, x4 is a temp reg.
  RVTEST_SIGUPD(x9, x5, x4, x19, I_sub_cg_cr_rs1_rs2_edges_rs1val_0x2_rs2val_0x55555555, I_sub_cg_cr_rs1_rs2_edges_rs1val_0x2_rs2val_0x55555555_str)
    1b64:	0004a203          	lw	x4,0(x9)
    1b68:	01320863          	beq	x4,x19,1b78 <I_sub_cg_cr_rs1_rs2_edges_rs1val_0x2_rs2val_0x55555555+0x18>
    1b6c:	171022ef          	jal	x5,44dc <failedtest_x5_x4>
    1b70:	00001b60          	.word	0x00001b60
    1b74:	0000af71          	.word	0x0000af71
    1b78:	00448493          	addi	x9,x9,4

# Testcase cr_rs1_rs2_edges (Test source rs1 = 0x80000000 rs2 = 0x00000000)
  RVTEST_TESTDATA_LOAD_INT(x20, x3) # load rs1: x3 = 0x80000000
    1b7c:	000a2183          	lw	x3,0(x20)
    1b80:	004a0a13          	addi	x20,x20,4
  RVTEST_TESTDATA_LOAD_INT(x20, x6) # load rs2: x6 = 0x00000000
    1b84:	000a2303          	lw	x6,0(x20)
    1b88:	004a0a13          	addi	x20,x20,4

00001b8c <I_sub_cg_cr_rs1_rs2_edges_rs1val_0x80000000_rs2val_0x0>:
I_sub_cg_cr_rs1_rs2_edges_rs1val_0x80000000_rs2val_0x0:
  sub x14, x3, x6 # perform operation
    1b8c:	40618733          	sub	x14,x3,x6
  # Check if x14 contains the expected result. x9 is the signature ptr, x5 is the link ptr, x4 is a temp reg.
  RVTEST_SIGUPD(x9, x5, x4, x14, I_sub_cg_cr_rs1_rs2_edges_rs1val_0x80000000_rs2val_0x0, I_sub_cg_cr_rs1_rs2_edges_rs1val_0x80000000_rs2val_0x0_str)
    1b90:	0004a203          	lw	x4,0(x9)
    1b94:	00e20863          	beq	x4,x14,1ba4 <I_sub_cg_cr_rs1_rs2_edges_rs1val_0x80000000_rs2val_0x0+0x18>
    1b98:	145022ef          	jal	x5,44dc <failedtest_x5_x4>
    1b9c:	00001b8c          	.word	0x00001b8c
    1ba0:	0000afc5          	.word	0x0000afc5
    1ba4:	00448493          	addi	x9,x9,4

# Testcase cr_rs1_rs2_edges (Test source rs1 = 0x80000000 rs2 = 0x00000001)
  RVTEST_TESTDATA_LOAD_INT(x20, x13) # load rs1: x13 = 0x80000000
    1ba8:	000a2683          	lw	x13,0(x20)
    1bac:	004a0a13          	addi	x20,x20,4
  RVTEST_TESTDATA_LOAD_INT(x20, x26) # load rs2: x26 = 0x00000001
    1bb0:	000a2d03          	lw	x26,0(x20)
    1bb4:	004a0a13          	addi	x20,x20,4

00001bb8 <I_sub_cg_cr_rs1_rs2_edges_rs1val_0x80000000_rs2val_0x1>:
I_sub_cg_cr_rs1_rs2_edges_rs1val_0x80000000_rs2val_0x1:
  sub x2, x13, x26 # perform operation
    1bb8:	41a68133          	sub	x2,x13,x26
  # Check if x2 contains the expected result. x9 is the signature ptr, x5 is the link ptr, x4 is a temp reg.
  RVTEST_SIGUPD(x9, x5, x4, x2, I_sub_cg_cr_rs1_rs2_edges_rs1val_0x80000000_rs2val_0x1, I_sub_cg_cr_rs1_rs2_edges_rs1val_0x80000000_rs2val_0x1_str)
    1bbc:	0004a203          	lw	x4,0(x9)
    1bc0:	00220863          	beq	x4,x2,1bd0 <I_sub_cg_cr_rs1_rs2_edges_rs1val_0x80000000_rs2val_0x1+0x18>
    1bc4:	119022ef          	jal	x5,44dc <failedtest_x5_x4>
    1bc8:	00001bb8          	.word	0x00001bb8
    1bcc:	0000b019          	.word	0x0000b019
    1bd0:	00448493          	addi	x9,x9,4

# Testcase cr_rs1_rs2_edges (Test source rs1 = 0x80000000 rs2 = 0x00000002)
  RVTEST_TESTDATA_LOAD_INT(x20, x19) # load rs1: x19 = 0x80000000
    1bd4:	000a2983          	lw	x19,0(x20)
    1bd8:	004a0a13          	addi	x20,x20,4
  RVTEST_TESTDATA_LOAD_INT(x20, x17) # load rs2: x17 = 0x00000002
    1bdc:	000a2883          	lw	x17,0(x20)
    1be0:	004a0a13          	addi	x20,x20,4

00001be4 <I_sub_cg_cr_rs1_rs2_edges_rs1val_0x80000000_rs2val_0x2>:
I_sub_cg_cr_rs1_rs2_edges_rs1val_0x80000000_rs2val_0x2:
  sub x11, x19, x17 # perform operation
    1be4:	411985b3          	sub	x11,x19,x17
  # Check if x11 contains the expected result. x9 is the signature ptr, x5 is the link ptr, x4 is a temp reg.
  RVTEST_SIGUPD(x9, x5, x4, x11, I_sub_cg_cr_rs1_rs2_edges_rs1val_0x80000000_rs2val_0x2, I_sub_cg_cr_rs1_rs2_edges_rs1val_0x80000000_rs2val_0x2_str)
    1be8:	0004a203          	lw	x4,0(x9)
    1bec:	00b20863          	beq	x4,x11,1bfc <I_sub_cg_cr_rs1_rs2_edges_rs1val_0x80000000_rs2val_0x2+0x18>
    1bf0:	0ed022ef          	jal	x5,44dc <failedtest_x5_x4>
    1bf4:	00001be4          	.word	0x00001be4
    1bf8:	0000b06d          	.word	0x0000b06d
    1bfc:	00448493          	addi	x9,x9,4

# Testcase cr_rs1_rs2_edges (Test source rs1 = 0x80000000 rs2 = 0x80000000)
  RVTEST_TESTDATA_LOAD_INT(x20, x13) # load rs1: x13 = 0x80000000
    1c00:	000a2683          	lw	x13,0(x20)
    1c04:	004a0a13          	addi	x20,x20,4
  RVTEST_TESTDATA_LOAD_INT(x20, x2) # load rs2: x2 = 0x80000000
    1c08:	000a2103          	lw	x2,0(x20)
    1c0c:	004a0a13          	addi	x20,x20,4

00001c10 <I_sub_cg_cr_rs1_rs2_edges_rs1val_0x80000000_rs2val_0x80000000>:
I_sub_cg_cr_rs1_rs2_edges_rs1val_0x80000000_rs2val_0x80000000:
  sub x21, x13, x2 # perform operation
    1c10:	40268ab3          	sub	x21,x13,x2
  # Check if x21 contains the expected result. x9 is the signature ptr, x5 is the link ptr, x4 is a temp reg.
  RVTEST_SIGUPD(x9, x5, x4, x21, I_sub_cg_cr_rs1_rs2_edges_rs1val_0x80000000_rs2val_0x80000000, I_sub_cg_cr_rs1_rs2_edges_rs1val_0x80000000_rs2val_0x80000000_str)
    1c14:	0004a203          	lw	x4,0(x9)
    1c18:	01520863          	beq	x4,x21,1c28 <I_sub_cg_cr_rs1_rs2_edges_rs1val_0x80000000_rs2val_0x80000000+0x18>
    1c1c:	0c1022ef          	jal	x5,44dc <failedtest_x5_x4>
    1c20:	00001c10          	.word	0x00001c10
    1c24:	0000b0c1          	.word	0x0000b0c1
    1c28:	00448493          	addi	x9,x9,4

# Testcase cr_rs1_rs2_edges (Test source rs1 = 0x80000000 rs2 = 0x80000001)
  RVTEST_TESTDATA_LOAD_INT(x20, x22) # load rs1: x22 = 0x80000000
    1c2c:	000a2b03          	lw	x22,0(x20)
    1c30:	004a0a13          	addi	x20,x20,4
  RVTEST_TESTDATA_LOAD_INT(x20, x28) # load rs2: x28 = 0x80000001
    1c34:	000a2e03          	lw	x28,0(x20)
    1c38:	004a0a13          	addi	x20,x20,4

00001c3c <I_sub_cg_cr_rs1_rs2_edges_rs1val_0x80000000_rs2val_0x80000001>:
I_sub_cg_cr_rs1_rs2_edges_rs1val_0x80000000_rs2val_0x80000001:
  sub x29, x22, x28 # perform operation
    1c3c:	41cb0eb3          	sub	x29,x22,x28
  # Check if x29 contains the expected result. x9 is the signature ptr, x5 is the link ptr, x4 is a temp reg.
  RVTEST_SIGUPD(x9, x5, x4, x29, I_sub_cg_cr_rs1_rs2_edges_rs1val_0x80000000_rs2val_0x80000001, I_sub_cg_cr_rs1_rs2_edges_rs1val_0x80000000_rs2val_0x80000001_str)
    1c40:	0004a203          	lw	x4,0(x9)
    1c44:	01d20863          	beq	x4,x29,1c54 <I_sub_cg_cr_rs1_rs2_edges_rs1val_0x80000000_rs2val_0x80000001+0x18>
    1c48:	095022ef          	jal	x5,44dc <failedtest_x5_x4>
    1c4c:	00001c3c          	.word	0x00001c3c
    1c50:	0000b11c          	.word	0x0000b11c
    1c54:	00448493          	addi	x9,x9,4

# Testcase cr_rs1_rs2_edges (Test source rs1 = 0x80000000 rs2 = 0x7fffffff)
  RVTEST_TESTDATA_LOAD_INT(x20, x28) # load rs1: x28 = 0x80000000
    1c58:	000a2e03          	lw	x28,0(x20)
    1c5c:	004a0a13          	addi	x20,x20,4
  RVTEST_TESTDATA_LOAD_INT(x20, x18) # load rs2: x18 = 0x7fffffff
    1c60:	000a2903          	lw	x18,0(x20)
    1c64:	004a0a13          	addi	x20,x20,4

00001c68 <I_sub_cg_cr_rs1_rs2_edges_rs1val_0x80000000_rs2val_0x7fffffff>:
I_sub_cg_cr_rs1_rs2_edges_rs1val_0x80000000_rs2val_0x7fffffff:
  sub x25, x28, x18 # perform operation
    1c68:	412e0cb3          	sub	x25,x28,x18
  # Check if x25 contains the expected result. x9 is the signature ptr, x5 is the link ptr, x4 is a temp reg.
  RVTEST_SIGUPD(x9, x5, x4, x25, I_sub_cg_cr_rs1_rs2_edges_rs1val_0x80000000_rs2val_0x7fffffff, I_sub_cg_cr_rs1_rs2_edges_rs1val_0x80000000_rs2val_0x7fffffff_str)
    1c6c:	0004a203          	lw	x4,0(x9)
    1c70:	01920863          	beq	x4,x25,1c80 <I_sub_cg_cr_rs1_rs2_edges_rs1val_0x80000000_rs2val_0x7fffffff+0x18>
    1c74:	069022ef          	jal	x5,44dc <failedtest_x5_x4>
    1c78:	00001c68          	.word	0x00001c68
    1c7c:	0000b177          	.word	0x0000b177
    1c80:	00448493          	addi	x9,x9,4

# Testcase cr_rs1_rs2_edges (Test source rs1 = 0x80000000 rs2 = 0x7ffffffe)
  RVTEST_TESTDATA_LOAD_INT(x20, x16) # load rs1: x16 = 0x80000000
    1c84:	000a2803          	lw	x16,0(x20)
    1c88:	004a0a13          	addi	x20,x20,4
  RVTEST_TESTDATA_LOAD_INT(x20, x29) # load rs2: x29 = 0x7ffffffe
    1c8c:	000a2e83          	lw	x29,0(x20)
    1c90:	004a0a13          	addi	x20,x20,4

00001c94 <I_sub_cg_cr_rs1_rs2_edges_rs1val_0x80000000_rs2val_0x7ffffffe>:
I_sub_cg_cr_rs1_rs2_edges_rs1val_0x80000000_rs2val_0x7ffffffe:
  sub x8, x16, x29 # perform operation
    1c94:	41d80433          	sub	x8,x16,x29
  # Check if x8 contains the expected result. x9 is the signature ptr, x5 is the link ptr, x4 is a temp reg.
  RVTEST_SIGUPD(x9, x5, x4, x8, I_sub_cg_cr_rs1_rs2_edges_rs1val_0x80000000_rs2val_0x7ffffffe, I_sub_cg_cr_rs1_rs2_edges_rs1val_0x80000000_rs2val_0x7ffffffe_str)
    1c98:	0004a203          	lw	x4,0(x9)
    1c9c:	00820863          	beq	x4,x8,1cac <I_sub_cg_cr_rs1_rs2_edges_rs1val_0x80000000_rs2val_0x7ffffffe+0x18>
    1ca0:	03d022ef          	jal	x5,44dc <failedtest_x5_x4>
    1ca4:	00001c94          	.word	0x00001c94
    1ca8:	0000b1d2          	.word	0x0000b1d2
    1cac:	00448493          	addi	x9,x9,4

# Testcase cr_rs1_rs2_edges (Test source rs1 = 0x80000000 rs2 = 0xffffffff)
  RVTEST_TESTDATA_LOAD_INT(x20, x24) # load rs1: x24 = 0x80000000
    1cb0:	000a2c03          	lw	x24,0(x20)
    1cb4:	004a0a13          	addi	x20,x20,4
  RVTEST_TESTDATA_LOAD_INT(x20, x23) # load rs2: x23 = 0xffffffff
    1cb8:	000a2b83          	lw	x23,0(x20)
    1cbc:	004a0a13          	addi	x20,x20,4

00001cc0 <I_sub_cg_cr_rs1_rs2_edges_rs1val_0x80000000_rs2val_0xffffffff>:
I_sub_cg_cr_rs1_rs2_edges_rs1val_0x80000000_rs2val_0xffffffff:
  sub x15, x24, x23 # perform operation
    1cc0:	417c07b3          	sub	x15,x24,x23
  # Check if x15 contains the expected result. x9 is the signature ptr, x5 is the link ptr, x4 is a temp reg.
  RVTEST_SIGUPD(x9, x5, x4, x15, I_sub_cg_cr_rs1_rs2_edges_rs1val_0x80000000_rs2val_0xffffffff, I_sub_cg_cr_rs1_rs2_edges_rs1val_0x80000000_rs2val_0xffffffff_str)
    1cc4:	0004a203          	lw	x4,0(x9)
    1cc8:	00f20863          	beq	x4,x15,1cd8 <I_sub_cg_cr_rs1_rs2_edges_rs1val_0x80000000_rs2val_0xffffffff+0x18>
    1ccc:	011022ef          	jal	x5,44dc <failedtest_x5_x4>
    1cd0:	00001cc0          	.word	0x00001cc0
    1cd4:	0000b22d          	.word	0x0000b22d
    1cd8:	00448493          	addi	x9,x9,4

