
/home/dev/github/clones/riscv-arch-test/work/rv32i-core/elfs/rv32i/I/I-sw-00.elf:     file format elf32-littleriscv
/home/dev/github/clones/riscv-arch-test/work/rv32i-core/elfs/rv32i/I/I-sw-00.elf
architecture: riscv:rv32, flags 0x00000112:
EXEC_P, HAS_SYMS, D_PAGED
start address 0x00000000

Program Header:
0x70000003 off    0x00018240 vaddr 0x00000000 paddr 0x00000000 align 2**0
         filesz 0x00000033 memsz 0x00000000 flags r--
    LOAD off    0x00001000 vaddr 0x00000000 paddr 0x00000000 align 2**12
         filesz 0x000030a0 memsz 0x000030a0 flags r-x
    LOAD off    0x00005000 vaddr 0x00004000 paddr 0x00004000 align 2**12
         filesz 0x00013240 memsz 0x00013240 flags rwx

Sections:
Idx Name          Size      VMA       LMA       File off  Algn
  0 .text.init    00000040  00000000  00000000  00001000  2**5
                  CONTENTS, ALLOC, LOAD, READONLY, CODE
  1 .text.rvtest  00003060  00000040  00000040  00001040  2**5
                  CONTENTS, ALLOC, LOAD, READONLY, CODE
  2 .data         00012010  00004000  00004000  00005000  2**8
                  CONTENTS, ALLOC, LOAD, DATA
  3 .text.rvmodel 00000240  00017000  00017000  00018000  2**5
                  CONTENTS, ALLOC, LOAD, READONLY, CODE
  4 .riscv.attributes 00000033  00000000  00000000  00018240  2**0
                  CONTENTS, READONLY
  5 .debug_line   000012e4  00000000  00000000  00018273  2**0
                  CONTENTS, READONLY, DEBUGGING, OCTETS
  6 .debug_line_str 00000068  00000000  00000000  00019557  2**0
                  CONTENTS, READONLY, DEBUGGING, OCTETS
  7 .debug_info   00000023  00000000  00000000  000195bf  2**0
                  CONTENTS, READONLY, DEBUGGING, OCTETS
  8 .debug_abbrev 00000012  00000000  00000000  000195e2  2**0
                  CONTENTS, READONLY, DEBUGGING, OCTETS
  9 .debug_aranges 00000028  00000000  00000000  000195f8  2**3
                  CONTENTS, READONLY, DEBUGGING, OCTETS
 10 .debug_str    00000074  00000000  00000000  00019620  2**0
                  CONTENTS, READONLY, DEBUGGING, OCTETS
 11 .debug_rnglists 0000001a  00000000  00000000  00019694  2**0
                  CONTENTS, READONLY, DEBUGGING, OCTETS
SYMBOL TABLE:
00000000 l    d  .text.init	00000000 .text.init
00000040 l    d  .text.rvtest	00000000 .text.rvtest
00004000 l    d  .data	00000000 .data
00017000 l    d  .text.rvmodel	00000000 .text.rvmodel
00000000 l    d  .riscv.attributes	00000000 .riscv.attributes
00000000 l    d  .debug_line	00000000 .debug_line
00000000 l    d  .debug_line_str	00000000 .debug_line_str
00000000 l    d  .debug_info	00000000 .debug_info
00000000 l    d  .debug_abbrev	00000000 .debug_abbrev
00000000 l    d  .debug_aranges	00000000 .debug_aranges
00000000 l    d  .debug_str	00000000 .debug_str
00000000 l    d  .debug_rnglists	00000000 .debug_rnglists
00000000 l    df *ABS*	00000000 ccJAteZI.o
00000003 l       *ABS*	00000000 MMODE_SIG
00000001 l       *ABS*	00000000 SMODE_SIG
00000001 l       *ABS*	00000000 HMODE_SIG
00000002 l       *ABS*	00000000 VMODE_SIG
00017000 l       .text.rvmodel	00000000 rvmodel_boot
00000050 l       .text.rvtest	00000000 I_sw_cg_cp_rs1_nx0_b1
0000161c l       .text.rvtest	00000000 failedtest_x5_x4
00004294 l       .data	00000000 I_sw_cg_cp_rs1_nx0_b1_str
00000088 l       .text.rvtest	00000000 I_sw_cg_cp_rs1_nx0_b2
000042c4 l       .data	00000000 I_sw_cg_cp_rs1_nx0_b2_str
000000c4 l       .text.rvtest	00000000 I_sw_cg_cp_rs1_nx0_b3
000042f4 l       .data	00000000 I_sw_cg_cp_rs1_nx0_b3_str
00000104 l       .text.rvtest	00000000 I_sw_cg_cp_rs1_nx0_b4
0000165c l       .text.rvtest	00000000 failedtest_x14_x13
00004324 l       .data	00000000 I_sw_cg_cp_rs1_nx0_b4_str
0000013c l       .text.rvtest	00000000 I_sw_cg_cp_rs1_nx0_b5
00004354 l       .data	00000000 I_sw_cg_cp_rs1_nx0_b5_str
00000174 l       .text.rvtest	00000000 I_sw_cg_cp_rs1_nx0_b6
00004384 l       .data	00000000 I_sw_cg_cp_rs1_nx0_b6_str
000001ac l       .text.rvtest	00000000 I_sw_cg_cp_rs1_nx0_b7
000043b4 l       .data	00000000 I_sw_cg_cp_rs1_nx0_b7_str
000001e4 l       .text.rvtest	00000000 I_sw_cg_cp_rs1_nx0_b8
000043e4 l       .data	00000000 I_sw_cg_cp_rs1_nx0_b8_str
0000021c l       .text.rvtest	00000000 I_sw_cg_cp_rs1_nx0_b9
00004414 l       .data	00000000 I_sw_cg_cp_rs1_nx0_b9_str
00000254 l       .text.rvtest	00000000 I_sw_cg_cp_rs1_nx0_b10
00004444 l       .data	00000000 I_sw_cg_cp_rs1_nx0_b10_str
00000290 l       .text.rvtest	00000000 I_sw_cg_cp_rs1_nx0_b11
00004476 l       .data	00000000 I_sw_cg_cp_rs1_nx0_b11_str
000002c8 l       .text.rvtest	00000000 I_sw_cg_cp_rs1_nx0_b12
000044a8 l       .data	00000000 I_sw_cg_cp_rs1_nx0_b12_str
00000308 l       .text.rvtest	00000000 I_sw_cg_cp_rs1_nx0_b13
00001634 l       .text.rvtest	00000000 failedtest_x8_x7
000044da l       .data	00000000 I_sw_cg_cp_rs1_nx0_b13_str
00000340 l       .text.rvtest	00000000 I_sw_cg_cp_rs1_nx0_b14
0000450c l       .data	00000000 I_sw_cg_cp_rs1_nx0_b14_str
00000378 l       .text.rvtest	00000000 I_sw_cg_cp_rs1_nx0_b15
0000453e l       .data	00000000 I_sw_cg_cp_rs1_nx0_b15_str
000003b0 l       .text.rvtest	00000000 I_sw_cg_cp_rs1_nx0_b16
00004570 l       .data	00000000 I_sw_cg_cp_rs1_nx0_b16_str
000003e8 l       .text.rvtest	00000000 I_sw_cg_cp_rs1_nx0_b17
000045a2 l       .data	00000000 I_sw_cg_cp_rs1_nx0_b17_str
00000420 l       .text.rvtest	00000000 I_sw_cg_cp_rs1_nx0_b18
000045d4 l       .data	00000000 I_sw_cg_cp_rs1_nx0_b18_str
00000458 l       .text.rvtest	00000000 I_sw_cg_cp_rs1_nx0_b19
00004606 l       .data	00000000 I_sw_cg_cp_rs1_nx0_b19_str
00000490 l       .text.rvtest	00000000 I_sw_cg_cp_rs1_nx0_b20
00004638 l       .data	00000000 I_sw_cg_cp_rs1_nx0_b20_str
000004c8 l       .text.rvtest	00000000 I_sw_cg_cp_rs1_nx0_b21
0000466a l       .data	00000000 I_sw_cg_cp_rs1_nx0_b21_str
00000500 l       .text.rvtest	00000000 I_sw_cg_cp_rs1_nx0_b22
0000469c l       .data	00000000 I_sw_cg_cp_rs1_nx0_b22_str
00000538 l       .text.rvtest	00000000 I_sw_cg_cp_rs1_nx0_b23
000046ce l       .data	00000000 I_sw_cg_cp_rs1_nx0_b23_str
00000570 l       .text.rvtest	00000000 I_sw_cg_cp_rs1_nx0_b24
00004700 l       .data	00000000 I_sw_cg_cp_rs1_nx0_b24_str
000005a8 l       .text.rvtest	00000000 I_sw_cg_cp_rs1_nx0_b25
00004732 l       .data	00000000 I_sw_cg_cp_rs1_nx0_b25_str
000005e0 l       .text.rvtest	00000000 I_sw_cg_cp_rs1_nx0_b26
00004764 l       .data	00000000 I_sw_cg_cp_rs1_nx0_b26_str
00000618 l       .text.rvtest	00000000 I_sw_cg_cp_rs1_nx0_b27
00004796 l       .data	00000000 I_sw_cg_cp_rs1_nx0_b27_str
00000650 l       .text.rvtest	00000000 I_sw_cg_cp_rs1_nx0_b28
000047c8 l       .data	00000000 I_sw_cg_cp_rs1_nx0_b28_str
00000688 l       .text.rvtest	00000000 I_sw_cg_cp_rs1_nx0_b29
000047fa l       .data	00000000 I_sw_cg_cp_rs1_nx0_b29_str
000006c0 l       .text.rvtest	00000000 I_sw_cg_cp_rs1_nx0_b30
0000482c l       .data	00000000 I_sw_cg_cp_rs1_nx0_b30_str
000006f8 l       .text.rvtest	00000000 I_sw_cg_cp_rs1_nx0_b31
0000485e l       .data	00000000 I_sw_cg_cp_rs1_nx0_b31_str
00000730 l       .text.rvtest	00000000 I_sw_cg_cp_rs2_b0
00004890 l       .data	00000000 I_sw_cg_cp_rs2_b0_str
00000768 l       .text.rvtest	00000000 I_sw_cg_cp_rs2_b1
000048bd l       .data	00000000 I_sw_cg_cp_rs2_b1_str
000007a4 l       .text.rvtest	00000000 I_sw_cg_cp_rs2_b2
000048ea l       .data	00000000 I_sw_cg_cp_rs2_b2_str
000007e0 l       .text.rvtest	00000000 I_sw_cg_cp_rs2_b3
00004917 l       .data	00000000 I_sw_cg_cp_rs2_b3_str
00000818 l       .text.rvtest	00000000 I_sw_cg_cp_rs2_b4
00004944 l       .data	00000000 I_sw_cg_cp_rs2_b4_str
00000850 l       .text.rvtest	00000000 I_sw_cg_cp_rs2_b5
00004971 l       .data	00000000 I_sw_cg_cp_rs2_b5_str
00000888 l       .text.rvtest	00000000 I_sw_cg_cp_rs2_b6
0000499e l       .data	00000000 I_sw_cg_cp_rs2_b6_str
000008c8 l       .text.rvtest	00000000 I_sw_cg_cp_rs2_b7
000049cb l       .data	00000000 I_sw_cg_cp_rs2_b7_str
00000900 l       .text.rvtest	00000000 I_sw_cg_cp_rs2_b8
000049f8 l       .data	00000000 I_sw_cg_cp_rs2_b8_str
00000938 l       .text.rvtest	00000000 I_sw_cg_cp_rs2_b9
00004a25 l       .data	00000000 I_sw_cg_cp_rs2_b9_str
00000970 l       .text.rvtest	00000000 I_sw_cg_cp_rs2_b10
00004a52 l       .data	00000000 I_sw_cg_cp_rs2_b10_str
000009a8 l       .text.rvtest	00000000 I_sw_cg_cp_rs2_b11
00004a80 l       .data	00000000 I_sw_cg_cp_rs2_b11_str
000009e0 l       .text.rvtest	00000000 I_sw_cg_cp_rs2_b12
00004aae l       .data	00000000 I_sw_cg_cp_rs2_b12_str
00000a20 l       .text.rvtest	00000000 I_sw_cg_cp_rs2_b13
00004adc l       .data	00000000 I_sw_cg_cp_rs2_b13_str
00000a5c l       .text.rvtest	00000000 I_sw_cg_cp_rs2_b14
00004b0a l       .data	00000000 I_sw_cg_cp_rs2_b14_str
00000a94 l       .text.rvtest	00000000 I_sw_cg_cp_rs2_b15
00004b38 l       .data	00000000 I_sw_cg_cp_rs2_b15_str
00000acc l       .text.rvtest	00000000 I_sw_cg_cp_rs2_b16
00004b66 l       .data	00000000 I_sw_cg_cp_rs2_b16_str
00000b04 l       .text.rvtest	00000000 I_sw_cg_cp_rs2_b17
00004b94 l       .data	00000000 I_sw_cg_cp_rs2_b17_str
00000b3c l       .text.rvtest	00000000 I_sw_cg_cp_rs2_b18
00004bc2 l       .data	00000000 I_sw_cg_cp_rs2_b18_str
00000b74 l       .text.rvtest	00000000 I_sw_cg_cp_rs2_b19
00004bf0 l       .data	00000000 I_sw_cg_cp_rs2_b19_str
00000bac l       .text.rvtest	00000000 I_sw_cg_cp_rs2_b20
00004c1e l       .data	00000000 I_sw_cg_cp_rs2_b20_str
00000be4 l       .text.rvtest	00000000 I_sw_cg_cp_rs2_b21
00004c4c l       .data	00000000 I_sw_cg_cp_rs2_b21_str
00000c1c l       .text.rvtest	00000000 I_sw_cg_cp_rs2_b22
00004c7a l       .data	00000000 I_sw_cg_cp_rs2_b22_str
00000c54 l       .text.rvtest	00000000 I_sw_cg_cp_rs2_b23
00004ca8 l       .data	00000000 I_sw_cg_cp_rs2_b23_str
00000c90 l       .text.rvtest	00000000 I_sw_cg_cp_rs2_b24
00004cd6 l       .data	00000000 I_sw_cg_cp_rs2_b24_str
00000cc8 l       .text.rvtest	00000000 I_sw_cg_cp_rs2_b25
00004d04 l       .data	00000000 I_sw_cg_cp_rs2_b25_str
00000d04 l       .text.rvtest	00000000 I_sw_cg_cp_rs2_b26
00004d32 l       .data	00000000 I_sw_cg_cp_rs2_b26_str
00000d3c l       .text.rvtest	00000000 I_sw_cg_cp_rs2_b27
00004d60 l       .data	00000000 I_sw_cg_cp_rs2_b27_str
00000d74 l       .text.rvtest	00000000 I_sw_cg_cp_rs2_b28
00004d8e l       .data	00000000 I_sw_cg_cp_rs2_b28_str
00000dac l       .text.rvtest	00000000 I_sw_cg_cp_rs2_b29
00004dbc l       .data	00000000 I_sw_cg_cp_rs2_b29_str
00000de4 l       .text.rvtest	00000000 I_sw_cg_cp_rs2_b30
00004dea l       .data	00000000 I_sw_cg_cp_rs2_b30_str
00000e1c l       .text.rvtest	00000000 I_sw_cg_cp_rs2_b31
00004e18 l       .data	00000000 I_sw_cg_cp_rs2_b31_str
00000e54 l       .text.rvtest	00000000 I_sw_cg_cp_rs2_edges_0x0
00004e46 l       .data	00000000 I_sw_cg_cp_rs2_edges_0x0_str
00000e8c l       .text.rvtest	00000000 I_sw_cg_cp_rs2_edges_0x1
00004e7a l       .data	00000000 I_sw_cg_cp_rs2_edges_0x1_str
00000ec4 l       .text.rvtest	00000000 I_sw_cg_cp_rs2_edges_0x2
00004eae l       .data	00000000 I_sw_cg_cp_rs2_edges_0x2_str
00000efc l       .text.rvtest	00000000 I_sw_cg_cp_rs2_edges_0x80000000
00004ee2 l       .data	00000000 I_sw_cg_cp_rs2_edges_0x80000000_str
00000f34 l       .text.rvtest	00000000 I_sw_cg_cp_rs2_edges_0x80000001
00004f1d l       .data	00000000 I_sw_cg_cp_rs2_edges_0x80000001_str
00000f6c l       .text.rvtest	00000000 I_sw_cg_cp_rs2_edges_0x7fffffff
00004f58 l       .data	00000000 I_sw_cg_cp_rs2_edges_0x7fffffff_str
00000fa4 l       .text.rvtest	00000000 I_sw_cg_cp_rs2_edges_0x7ffffffe
00004f93 l       .data	00000000 I_sw_cg_cp_rs2_edges_0x7ffffffe_str
00000fdc l       .text.rvtest	00000000 I_sw_cg_cp_rs2_edges_0xffffffff
00004fce l       .data	00000000 I_sw_cg_cp_rs2_edges_0xffffffff_str
00001014 l       .text.rvtest	00000000 I_sw_cg_cp_rs2_edges_0xfffffffe
00005009 l       .data	00000000 I_sw_cg_cp_rs2_edges_0xfffffffe_str
0000104c l       .text.rvtest	00000000 I_sw_cg_cp_rs2_edges_0x5bbc8872
00005044 l       .data	00000000 I_sw_cg_cp_rs2_edges_0x5bbc8872_str
00001084 l       .text.rvtest	00000000 I_sw_cg_cp_rs2_edges_0xaaaaaaaa
0000507f l       .data	00000000 I_sw_cg_cp_rs2_edges_0xaaaaaaaa_str
000010bc l       .text.rvtest	00000000 I_sw_cg_cp_rs2_edges_0x55555555
000050ba l       .data	00000000 I_sw_cg_cp_rs2_edges_0x55555555_str
000010f4 l       .text.rvtest	00000000 I_sw_cg_cp_imm_edges_0x0
000050f5 l       .data	00000000 I_sw_cg_cp_imm_edges_0x0_str
0000112c l       .text.rvtest	00000000 I_sw_cg_cp_imm_edges_0x1
00005129 l       .data	00000000 I_sw_cg_cp_imm_edges_0x1_str
00001164 l       .text.rvtest	00000000 I_sw_cg_cp_imm_edges_0x2
0000515d l       .data	00000000 I_sw_cg_cp_imm_edges_0x2_str
0000119c l       .text.rvtest	00000000 I_sw_cg_cp_imm_edges_0x3
00005191 l       .data	00000000 I_sw_cg_cp_imm_edges_0x3_str
000011d4 l       .text.rvtest	00000000 I_sw_cg_cp_imm_edges_0x4
000051c5 l       .data	00000000 I_sw_cg_cp_imm_edges_0x4_str
0000120c l       .text.rvtest	00000000 I_sw_cg_cp_imm_edges_0x8
000051f9 l       .data	00000000 I_sw_cg_cp_imm_edges_0x8_str
00001244 l       .text.rvtest	00000000 I_sw_cg_cp_imm_edges_0x10
0000522d l       .data	00000000 I_sw_cg_cp_imm_edges_0x10_str
0000127c l       .text.rvtest	00000000 I_sw_cg_cp_imm_edges_0x20
00005262 l       .data	00000000 I_sw_cg_cp_imm_edges_0x20_str
000012b4 l       .text.rvtest	00000000 I_sw_cg_cp_imm_edges_0x40
00005297 l       .data	00000000 I_sw_cg_cp_imm_edges_0x40_str
000012ec l       .text.rvtest	00000000 I_sw_cg_cp_imm_edges_0x80
000052cc l       .data	00000000 I_sw_cg_cp_imm_edges_0x80_str
00001324 l       .text.rvtest	00000000 I_sw_cg_cp_imm_edges_0x100
00005301 l       .data	00000000 I_sw_cg_cp_imm_edges_0x100_str
0000135c l       .text.rvtest	00000000 I_sw_cg_cp_imm_edges_0x200
00005337 l       .data	00000000 I_sw_cg_cp_imm_edges_0x200_str
00001394 l       .text.rvtest	00000000 I_sw_cg_cp_imm_edges_0x3ff
0000536d l       .data	00000000 I_sw_cg_cp_imm_edges_0x3ff_str
000013cc l       .text.rvtest	00000000 I_sw_cg_cp_imm_edges_0x400
000053a3 l       .data	00000000 I_sw_cg_cp_imm_edges_0x400_str
00001404 l       .text.rvtest	00000000 I_sw_cg_cp_imm_edges_0x703
000053d9 l       .data	00000000 I_sw_cg_cp_imm_edges_0x703_str
0000143c l       .text.rvtest	00000000 I_sw_cg_cp_imm_edges_0x7ff
0000540f l       .data	00000000 I_sw_cg_cp_imm_edges_0x7ff_str
00001478 l       .text.rvtest	00000000 I_sw_cg_cp_imm_edges_m0x800
00005445 l       .data	00000000 I_sw_cg_cp_imm_edges_m0x800_str
000014b0 l       .text.rvtest	00000000 I_sw_cg_cp_imm_edges_m0x7ff
0000547c l       .data	00000000 I_sw_cg_cp_imm_edges_m0x7ff_str
000014e8 l       .text.rvtest	00000000 I_sw_cg_cp_imm_edges_m0x2
000054b3 l       .data	00000000 I_sw_cg_cp_imm_edges_m0x2_str
00001520 l       .text.rvtest	00000000 I_sw_cg_cp_imm_edges_m0x1
000054e8 l       .data	00000000 I_sw_cg_cp_imm_edges_m0x1_str
00001550 l       .text.rvtest	00000000 I_sw_cg_cp_align_word_b0
0000551d l       .data	00000000 I_sw_cg_cp_align_word_b0_str
00001598 l       .text.rvtest	00000000 I_sw_cg_cp_align_word_b4
00005551 l       .data	00000000 I_sw_cg_cp_align_word_b4_str
000015dc l       .text.rvtest	00000000 exit_cleanup
00005bf4 l       .data	00000000 successstr
00017204 l       .text.rvmodel	00000000 rvmodel_io_write_str
00017208 l       .text.rvmodel	00000000 rvmodel_halt_pass
00001610 l       .text.rvtest	00000000 abort_test
6f5ca309 l       *ABS*	00000000 immx
6f5ca309 l       *ABS*	00000000 absimm
00000000 l       *ABS*	00000000 cry
00000309 l       *ABS*	00000000 imm12
00005590 l       .data	00000000 begin_failure_scratch
000016e0 l       .text.rvtest	00000000 failedtest_saveregs
00001684 l       .text.rvtest	00000000 failedtest_trap_x7_x9
00005700 l       .data	00000000 saved_mcause
00005708 l       .data	00000000 saved_mtval
00005710 l       .data	00000000 saved_mstatus
00001750 l       .text.rvtest	00000000 failedtest_saveresults
00005590 l       .data	00000000 failure_type
000017cc l       .text.rvtest	00000000 failedtest_saveresults_trap
00001760 l       .text.rvtest	00000000 failedtest_saveresults_int
00001ba0 l       .text.rvtest	00000000 failedtest_saveresults_common
000056e8 l       .data	00000000 trap_diag_fail_str_ptr
00005db8 l       .data	00000000 trap_sig_offset_mismatch
00001a80 l       .text.rvtest	00000000 trap_diag_offset_mismatch
000056c0 l       .data	00000000 trap_diag_subtype
00005e1c l       .data	00000000 sv_Mvect_str
00001b00 l       .text.rvtest	00000000 trap_diag_field_identified
00005f1e l       .data	00000000 sv_Mcause_str
00006019 l       .data	00000000 sv_Mepc_str
0000610c l       .data	00000000 sv_Mtval_str
0000627f l       .data	00000000 sv_Mip_str
00006203 l       .data	00000000 sv_Mtval2_str
00006241 l       .data	00000000 sv_Mtinst_str
00005e5c l       .data	00000000 sv_Svect_str
00005f5c l       .data	00000000 sv_Scause_str
00006055 l       .data	00000000 sv_Sepc_str
00006149 l       .data	00000000 sv_Stval_str
000062ba l       .data	00000000 sv_Sip_str
00005e9c l       .data	00000000 sv_Hvect_str
00005f9a l       .data	00000000 sv_Hcause_str
00006091 l       .data	00000000 sv_Hepc_str
00006186 l       .data	00000000 sv_Htval_str
000062f5 l       .data	00000000 sv_Hip_str
00005edd l       .data	00000000 sv_Vvect_str
00005fd9 l       .data	00000000 sv_Vcause_str
000060ce l       .data	00000000 sv_Vepc_str
000061c4 l       .data	00000000 sv_Vtval_str
00006331 l       .data	00000000 sv_Vip_str
0000636e l       .data	00000000 Mclr_Mext_int_str
000063bd l       .data	00000000 Mclr_Sext_int_str
000064b8 l       .data	00000000 Sclr_Sext_int_str
000065b4 l       .data	00000000 Hclr_Sext_int_str
00001b90 l       .text.rvtest	00000000 trap_diag_generic_report
000056d8 l       .data	00000000 trap_diag_actual_offset
000056e0 l       .data	00000000 trap_diag_expected_offset
000056c4 l       .data	00000000 trap_diag_mode
000056c8 l       .data	00000000 trap_diag_actual_value
000056d0 l       .data	00000000 trap_diag_expected_value
00001bd0 l       .text.rvtest	00000000 failedtest_report
00001bd0 l       .text.rvtest	00000000 print_failstr
00005c29 l       .data	00000000 failstr
00001c08 l       .text.rvtest	00000000 print_testnamestr
00005cbb l       .data	00000000 testnamestr
00001c48 l       .text.rvtest	00000000 print_failure_test_name_str
000056b0 l       .data	00000000 failure_string_ptr
00001c58 l       .text.rvtest	00000000 print_newline_str
00005ccd l       .data	00000000 newlinestr
0000208c l       .text.rvtest	00000000 failedtest_report_trap_detailed
00005ccf l       .data	00000000 inststr
00005690 l       .data	00000000 failing_instruction
00002fd8 l       .text.rvtest	00000000 failedtest_hex_to_str
00005718 l       .data	00000000 ascii_buffer
00005ce3 l       .data	00000000 addrstr
00005698 l       .data	00000000 failing_addr
00006760 l       .data	00000000 regstr
00001e38 l       .text.rvtest	00000000 failedtest_report_not_intreg
00005694 l       .data	00000000 failing_reg
00003054 l       .text.rvtest	00000000 failedtest_dec_to_str
00001f14 l       .text.rvtest	00000000 failedtest_report_print_regstr
00001e8c l       .text.rvtest	00000000 failedtest_report_fpreg
00001ed8 l       .text.rvtest	00000000 failedtest_report_vecreg
000067c0 l       .data	00000000 fflagsstr
00001f48 l       .text.rvtest	00000000 failedtest_report_after_reg
00006771 l       .data	00000000 badvalstr
00001fac l       .text.rvtest	00000000 failedtest_report_badval_not_fp
000056a0 l       .data	00000000 failing_value
00001fbc l       .text.rvtest	00000000 failedtest_report_badval_done
00006788 l       .data	00000000 expvalstr
0000204c l       .text.rvtest	00000000 failedtest_report_expval_not_fp
000056a8 l       .data	00000000 expected_value
0000205c l       .text.rvtest	00000000 failedtest_report_expval_done
00002d84 l       .text.rvtest	00000000 failedtest_report_end
000067ec l       .data	00000000 trap_diag_header_str
00006818 l       .data	00000000 trap_diag_origstr_label
00002160 l       .text.rvtest	00000000 trap_report_offset_mismatch
00002c10 l       .text.rvtest	00000000 trap_report_generic
000024d4 l       .text.rvtest	00000000 trap_report_field_mismatch
00006828 l       .data	00000000 trap_diag_count_mismatch_str
00006889 l       .data	00000000 trap_diag_expected_offset_str
000068b0 l       .data	00000000 trap_diag_actual_offset_str
000023b4 l       .text.rvtest	00000000 trap_report_missing_traps
0000229c l       .text.rvtest	00000000 trap_report_extra_traps
000068d7 l       .data	00000000 trap_diag_extra_traps_str
0000695c l       .data	00000000 trap_diag_extra_bytes_str
00006987 l       .data	00000000 trap_diag_extra_hint_str
00002dd0 l       .text.rvtest	00000000 failedtest_print_csr_context
00006911 l       .data	00000000 trap_diag_missing_traps_str
00006a6f l       .data	00000000 trap_diag_missing_hint_str
00006b56 l       .data	00000000 trap_diag_handler_mode_str
00002564 l       .text.rvtest	00000000 trap_mode_m
000025a4 l       .text.rvtest	00000000 trap_mode_s
000025e4 l       .text.rvtest	00000000 trap_mode_h
00002624 l       .text.rvtest	00000000 trap_mode_v
00006b92 l       .data	00000000 trap_diag_mode_unknown_str
00002660 l       .text.rvtest	00000000 trap_mode_print
00006b70 l       .data	00000000 trap_diag_mode_m_str
00006b78 l       .data	00000000 trap_diag_mode_s_str
00006b80 l       .data	00000000 trap_diag_mode_hs_str
00006b89 l       .data	00000000 trap_diag_mode_vs_str
00006b9b l       .data	00000000 trap_diag_field_str
00002724 l       .text.rvtest	00000000 trap_field_vect
00002764 l       .text.rvtest	00000000 trap_field_cause
000027a4 l       .text.rvtest	00000000 trap_field_epc
000027e4 l       .text.rvtest	00000000 trap_field_tval
00002824 l       .text.rvtest	00000000 trap_field_ip
00002864 l       .text.rvtest	00000000 trap_field_tval2
000028a4 l       .text.rvtest	00000000 trap_field_tinst
000028e4 l       .text.rvtest	00000000 trap_field_intid
00006cf2 l       .data	00000000 trap_diag_field_unknown_str
00002920 l       .text.rvtest	00000000 trap_field_print
00006bb5 l       .data	00000000 trap_diag_field_vect_str
00006be6 l       .data	00000000 trap_diag_field_cause_str
00006c06 l       .data	00000000 trap_diag_field_epc_str
00006c24 l       .data	00000000 trap_diag_field_tval_str
00006c43 l       .data	00000000 trap_diag_field_ip_str
00006c6b l       .data	00000000 trap_diag_field_tval2_str
00006c97 l       .data	00000000 trap_diag_field_tinst_str
00006cc3 l       .data	00000000 trap_diag_field_intid_str
00006d01 l       .data	00000000 trap_diag_expected_str
00006d18 l       .data	00000000 trap_diag_actual_str
00002abc l       .text.rvtest	00000000 trap_field_not_cause
00006d2f l       .data	00000000 trap_diag_expected_cause_name_str
00002cf4 l       .text.rvtest	00000000 trap_cause_to_str
00006d46 l       .data	00000000 trap_diag_actual_cause_name_str
00002abc l       .text.rvtest	00000000 trap_field_not_epc
00006dbc l       .data	00000000 trap_diag_hint_vect_str
00006e92 l       .data	00000000 trap_diag_hint_cause_str
00006f85 l       .data	00000000 trap_diag_hint_epc_str
00007080 l       .data	00000000 trap_diag_hint_tval_str
00007167 l       .data	00000000 trap_diag_hint_ip_str
00006d74 l       .data	00000000 trap_diag_generic_str
000056f8 l       .data	00000000 saved_mepc
00005d57 l       .data	00000000 xepcinstrstr
00002d18 l       .text.rvtest	00000000 trap_cause_interrupt
00002cf8 l       .text.rvtest	00000000 trap_cause_exception
00002d44 l       .text.rvtest	00000000 trap_cause_unknown
00005740 l       .data	00000000 trap_excpt_name_tbl
000057a0 l       .data	00000000 trap_int_name_tbl
00005bde l       .data	00000000 trap_cause_unknown_str
0000679f l       .data	00000000 endstr
00002dc8 l       .text.rvtest	00000000 failedtest_terminate
00017214 l       .text.rvmodel	00000000 rvmodel_halt_fail
000056f0 l       .data	00000000 csr_context_ret_addr
00005d78 l       .data	00000000 mepcstr
00005d88 l       .data	00000000 mcausestr
00005d98 l       .data	00000000 mtvalstr
00005da8 l       .data	00000000 mstatusstr
00003018 l       .text.rvtest	00000000 failedtest_hex_to_str_loop
00003034 l       .text.rvtest	00000000 failedtest_hex_to_str_digit
00003038 l       .text.rvtest	00000000 failedtest_hex_to_str_write
00017000 l       .text.rvmodel	00000000 rvtest_boot_to_mmode
00017000 l       .text.rvmodel	00000000 rvtest_init_regs
00007250 l       .data	00000000 signature_base
000171a0 l       .text.rvmodel	00000000 canary_check
000067c8 l       .data	00000000 canary_mismatch
00004000 l       .data	00000000 scratch
00005740 l       .data	00000000 end_failure_scratch
000057e0 l       .data	00000000 trap_excpt_name_0
00005800 l       .data	00000000 trap_excpt_name_1
0000581a l       .data	00000000 trap_excpt_name_2
0000582f l       .data	00000000 trap_excpt_name_3
0000583b l       .data	00000000 trap_excpt_name_4
00005854 l       .data	00000000 trap_excpt_name_5
00005867 l       .data	00000000 trap_excpt_name_6
00005885 l       .data	00000000 trap_excpt_name_7
0000589d l       .data	00000000 trap_excpt_name_8
000058bb l       .data	00000000 trap_excpt_name_9
000058d9 l       .data	00000000 trap_excpt_name_10
000058f8 l       .data	00000000 trap_excpt_name_11
00005916 l       .data	00000000 trap_excpt_name_12
0000592e l       .data	00000000 trap_excpt_name_13
0000593f l       .data	00000000 trap_excpt_name_14
0000594e l       .data	00000000 trap_excpt_name_15
00005964 l       .data	00000000 trap_excpt_name_16
00005971 l       .data	00000000 trap_excpt_name_17
00005980 l       .data	00000000 trap_excpt_name_18
00005990 l       .data	00000000 trap_excpt_name_19
000059a0 l       .data	00000000 trap_excpt_name_20
000059be l       .data	00000000 trap_excpt_name_21
000059d5 l       .data	00000000 trap_excpt_name_22
000059ea l       .data	00000000 trap_excpt_name_23
00005a06 l       .data	00000000 trap_int_name_0
00005a1e l       .data	00000000 trap_int_name_1
00005a3d l       .data	00000000 trap_int_name_2
00005a64 l       .data	00000000 trap_int_name_3
00005a80 l       .data	00000000 trap_int_name_4
00005a98 l       .data	00000000 trap_int_name_5
00005ab4 l       .data	00000000 trap_int_name_6
00005ad8 l       .data	00000000 trap_int_name_7
00005af1 l       .data	00000000 trap_int_name_8
00005b09 l       .data	00000000 trap_int_name_9
00005b28 l       .data	00000000 trap_int_name_10
00005b4f l       .data	00000000 trap_int_name_11
00005b6b l       .data	00000000 trap_int_name_12
00005b90 l       .data	00000000 trap_int_name_13
00005bac l       .data	00000000 trap_int_name_14
00005bc5 l       .data	00000000 trap_int_name_15
00005c7d l       .data	00000000 abortstr
00005d24 l       .data	00000000 xepcstr
0000640f l       .data	00000000 Mclr_Vext_int_str
00006469 l       .data	00000000 Sclr_Mext_int_str
0000650a l       .data	00000000 Sclr_Vext_int_str
00006564 l       .data	00000000 Hclr_Mext_int_str
00006607 l       .data	00000000 Hclr_Vext_int_str
00006662 l       .data	00000000 Vclr_Mext_int_str
000066b2 l       .data	00000000 Vclr_Sext_int_str
00006705 l       .data	00000000 Vclr_Vext_int_str
00006d5d l       .data	00000000 trap_diag_curr_xepc_str
000075a0 l       .data	00000000 trap_sigptr
00016010 g       .data	00000000 end_signature
00016010 g       .data	00000000 rvtest_sig_end
00000000 g       .text.init	00000000 rvtest_entry_point
00007250 g       .data	00000000 begin_signature
000015dc g       .text.rvtest	00000000 rvtest_code_end
00000040 g       .text.rvtest	00000000 rvtest_code_begin
00007250 g       .data	00000000 rvtest_sig_begin
00004110 g       .data	00000000 rvtest_data_begin
0000724c g       .data	00000000 rvtest_data_end
000015dc g       .text.rvtest	00000000 cleanup_epilogs
00018000 g       .text.rvmodel	00000000 _end



Disassembly of section .text.init:

00000000 <rvtest_entry_point>:

// Include framework macros
#include "riscv_arch_test.h"

// Set up test environment and declare main entry point
RVTEST_BEGIN
   0:	00017097          	auipc	x1,0x17
   4:	00008093          	addi	x1,x1,0 # 17000 <rvmodel_boot>
   8:	00000013          	addi	x0,x0,0
   c:	00000013          	addi	x0,x0,0
  10:	00000013          	addi	x0,x0,0
  14:	00000013          	addi	x0,x0,0
  18:	00000013          	addi	x0,x0,0
  1c:	00000013          	addi	x0,x0,0
  20:	000080e7          	jalr	x1,0(x1)
  24:	00000013          	addi	x0,x0,0
  28:	00000013          	addi	x0,x0,0
  2c:	00000013          	addi	x0,x0,0
  30:	00000013          	addi	x0,x0,0
  34:	00000013          	addi	x0,x0,0
  38:	00000013          	addi	x0,x0,0
  3c:	00000013          	addi	x0,x0,0

Disassembly of section .text.rvtest:

00000040 <rvtest_code_begin>:
/////////////////////////////////
// cp_rs1_nx0
/////////////////////////////////

# Testcase cp_rs1_nx0 (Test source rs1 = x1)
  RVTEST_TESTDATA_LOAD_INT(x3, x22) # load rs2: x22 = 0x85091f07
      40:	0001ab03          	lw	x22,0(x3)
      44:	00418193          	addi	x3,x3,4
  mv x1, x2 # move signature pointer register
      48:	00010093          	addi	x1,x2,0
  addi x1, x1, 1063 # adjust base address for offset
      4c:	42708093          	addi	x1,x1,1063

00000050 <I_sw_cg_cp_rs1_nx0_b1>:
I_sw_cg_cp_rs1_nx0_b1:
  sw x22, -1063(x1) # perform store
      50:	bd60aca3          	sw	x22,-1063(x1)
  addi x1, x1, -1063 # restore base address
      54:	bd908093          	addi	x1,x1,-1063
  addi x1, x1, SIG_STRIDE # increment signature pointer
      58:	00408093          	addi	x1,x1,4
#ifdef RVTEST_SELFCHECK
  LREG x26, -SIG_STRIDE(x1) # load stored value for checking
      5c:	ffc0ad03          	lw	x26,-4(x1)
  # Check if x26 contains the expected result. x1 is the signature ptr, x5 is the link ptr, x4 is a temp reg.
  RVTEST_SIGUPD(x1, x5, x4, x26, I_sw_cg_cp_rs1_nx0_b1, I_sw_cg_cp_rs1_nx0_b1_str)
      60:	0000a203          	lw	x4,0(x1)
      64:	01a20863          	beq	x4,x26,74 <I_sw_cg_cp_rs1_nx0_b1+0x24>
      68:	5b4012ef          	jal	x5,161c <failedtest_x5_x4>
      6c:	00000050          	.word	0x00000050
      70:	00004294          	.word	0x00004294
      74:	00408093          	addi	x1,x1,4
  nop
  nop
#endif

# Testcase cp_rs1_nx0 (Test source rs1 = x2)
  RVTEST_TESTDATA_LOAD_INT(x3, x20) # load rs2: x20 = 0x4aff4fcc
      78:	0001aa03          	lw	x20,0(x3)
      7c:	00418193          	addi	x3,x3,4
  mv x2, x1 # move signature pointer register
      80:	00008113          	addi	x2,x1,0
  addi x2, x2, -1729 # adjust base address for offset
      84:	93f10113          	addi	x2,x2,-1729

00000088 <I_sw_cg_cp_rs1_nx0_b2>:
I_sw_cg_cp_rs1_nx0_b2:
  sw x20, 1729(x2) # perform store
      88:	6d4120a3          	sw	x20,1729(x2)
  addi x2, x2, 1729 # restore base address
      8c:	6c110113          	addi	x2,x2,1729
  addi x2, x2, SIG_STRIDE # increment signature pointer
      90:	00410113          	addi	x2,x2,4
#ifdef RVTEST_SELFCHECK
  LREG x11, -SIG_STRIDE(x2) # load stored value for checking
      94:	ffc12583          	lw	x11,-4(x2)
  # Check if x11 contains the expected result. x2 is the signature ptr, x5 is the link ptr, x4 is a temp reg.
  RVTEST_SIGUPD(x2, x5, x4, x11, I_sw_cg_cp_rs1_nx0_b2, I_sw_cg_cp_rs1_nx0_b2_str)
      98:	00012203          	lw	x4,0(x2)
      9c:	00b20863          	beq	x4,x11,ac <I_sw_cg_cp_rs1_nx0_b2+0x24>
      a0:	57c012ef          	jal	x5,161c <failedtest_x5_x4>
      a4:	00000088          	.word	0x00000088
      a8:	000042c4          	.word	0x000042c4
      ac:	00410113          	addi	x2,x2,4
  nop
  nop
  nop
#endif

  mv x11, x3 # switch data pointer register to avoid conflict with test
      b0:	00018593          	addi	x11,x3,0
# Testcase cp_rs1_nx0 (Test source rs1 = x3)
  RVTEST_TESTDATA_LOAD_INT(x11, x17) # load rs2: x17 = 0xf2942e85
      b4:	0005a883          	lw	x17,0(x11)
      b8:	00458593          	addi	x11,x11,4
  mv x3, x2 # move signature pointer register
      bc:	00010193          	addi	x3,x2,0
  addi x3, x3, -1979 # adjust base address for offset
      c0:	84518193          	addi	x3,x3,-1979

000000c4 <I_sw_cg_cp_rs1_nx0_b3>:
I_sw_cg_cp_rs1_nx0_b3:
  sw x17, 1979(x3) # perform store
      c4:	7b11ada3          	sw	x17,1979(x3)
  addi x3, x3, 1979 # restore base address
      c8:	7bb18193          	addi	x3,x3,1979
  addi x3, x3, SIG_STRIDE # increment signature pointer
      cc:	00418193          	addi	x3,x3,4
#ifdef RVTEST_SELFCHECK
  LREG x15, -SIG_STRIDE(x3) # load stored value for checking
      d0:	ffc1a783          	lw	x15,-4(x3)
  # Check if x15 contains the expected result. x3 is the signature ptr, x5 is the link ptr, x4 is a temp reg.
  RVTEST_SIGUPD(x3, x5, x4, x15, I_sw_cg_cp_rs1_nx0_b3, I_sw_cg_cp_rs1_nx0_b3_str)
      d4:	0001a203          	lw	x4,0(x3)
      d8:	00f20863          	beq	x4,x15,e8 <I_sw_cg_cp_rs1_nx0_b3+0x24>
      dc:	540012ef          	jal	x5,161c <failedtest_x5_x4>
      e0:	000000c4          	.word	0x000000c4
      e4:	000042f4          	.word	0x000042f4
      e8:	00418193          	addi	x3,x3,4
  nop
  nop
  nop
#endif

  mv x13, x4 # switch temp register to avoid conflict with test
      ec:	00020693          	addi	x13,x4,0 # 0 <rvtest_entry_point>
  mv x14, x5 # switch link pointer register to avoid conflict with test
      f0:	00028713          	addi	x14,x5,0
# Testcase cp_rs1_nx0 (Test source rs1 = x4)
  RVTEST_TESTDATA_LOAD_INT(x11, x31) # load rs2: x31 = 0x8654ee87
      f4:	0005af83          	lw	x31,0(x11)
      f8:	00458593          	addi	x11,x11,4
  mv x4, x3 # move signature pointer register
      fc:	00018213          	addi	x4,x3,0
  addi x4, x4, 1847 # adjust base address for offset
     100:	73720213          	addi	x4,x4,1847 # 737 <I_sw_cg_cp_rs2_b0+0x7>

00000104 <I_sw_cg_cp_rs1_nx0_b4>:
I_sw_cg_cp_rs1_nx0_b4:
  sw x31, -1847(x4) # perform store
     104:	8df224a3          	sw	x31,-1847(x4) # fffff8c9 <absimm+0x90a355c0>
  addi x4, x4, -1847 # restore base address
     108:	8c920213          	addi	x4,x4,-1847 # fffff8c9 <absimm+0x90a355c0>
  addi x4, x4, SIG_STRIDE # increment signature pointer
     10c:	00420213          	addi	x4,x4,4 # 4 <MMODE_SIG+0x1>
#ifdef RVTEST_SELFCHECK
  LREG x7, -SIG_STRIDE(x4) # load stored value for checking
     110:	ffc22383          	lw	x7,-4(x4) # fffffffc <absimm+0x90a35cf3>
  # Check if x7 contains the expected result. x4 is the signature ptr, x14 is the link ptr, x13 is a temp reg.
  RVTEST_SIGUPD(x4, x14, x13, x7, I_sw_cg_cp_rs1_nx0_b4, I_sw_cg_cp_rs1_nx0_b4_str)
     114:	00022683          	lw	x13,0(x4) # 0 <rvtest_entry_point>
     118:	00768863          	beq	x13,x7,128 <I_sw_cg_cp_rs1_nx0_b4+0x24>
     11c:	5400176f          	jal	x14,165c <failedtest_x14_x13>
     120:	00000104          	.word	0x00000104
     124:	00004324          	.word	0x00004324
     128:	00420213          	addi	x4,x4,4 # 4 <MMODE_SIG+0x1>
  nop
  nop
#endif

# Testcase cp_rs1_nx0 (Test source rs1 = x5)
  RVTEST_TESTDATA_LOAD_INT(x11, x24) # load rs2: x24 = 0x82914a38
     12c:	0005ac03          	lw	x24,0(x11)
     130:	00458593          	addi	x11,x11,4
  mv x5, x4 # move signature pointer register
     134:	00020293          	addi	x5,x4,0 # 0 <rvtest_entry_point>
  addi x5, x5, -255 # adjust base address for offset
     138:	f0128293          	addi	x5,x5,-255

0000013c <I_sw_cg_cp_rs1_nx0_b5>:
I_sw_cg_cp_rs1_nx0_b5:
  sw x24, 255(x5) # perform store
     13c:	0f82afa3          	sw	x24,255(x5)
  addi x5, x5, 255 # restore base address
     140:	0ff28293          	addi	x5,x5,255
  addi x5, x5, SIG_STRIDE # increment signature pointer
     144:	00428293          	addi	x5,x5,4
#ifdef RVTEST_SELFCHECK
  LREG x10, -SIG_STRIDE(x5) # load stored value for checking
     148:	ffc2a503          	lw	x10,-4(x5)
  # Check if x10 contains the expected result. x5 is the signature ptr, x14 is the link ptr, x13 is a temp reg.
  RVTEST_SIGUPD(x5, x14, x13, x10, I_sw_cg_cp_rs1_nx0_b5, I_sw_cg_cp_rs1_nx0_b5_str)
     14c:	0002a683          	lw	x13,0(x5)
     150:	00a68863          	beq	x13,x10,160 <I_sw_cg_cp_rs1_nx0_b5+0x24>
     154:	5080176f          	jal	x14,165c <failedtest_x14_x13>
     158:	0000013c          	.word	0x0000013c
     15c:	00004354          	.word	0x00004354
     160:	00428293          	addi	x5,x5,4
  nop
  nop
#endif

# Testcase cp_rs1_nx0 (Test source rs1 = x6)
  RVTEST_TESTDATA_LOAD_INT(x11, x7) # load rs2: x7 = 0x6d86a3f6
     164:	0005a383          	lw	x7,0(x11)
     168:	00458593          	addi	x11,x11,4
  mv x6, x5 # move signature pointer register
     16c:	00028313          	addi	x6,x5,0
  addi x6, x6, -231 # adjust base address for offset
     170:	f1930313          	addi	x6,x6,-231

00000174 <I_sw_cg_cp_rs1_nx0_b6>:
I_sw_cg_cp_rs1_nx0_b6:
  sw x7, 231(x6) # perform store
     174:	0e7323a3          	sw	x7,231(x6)
  addi x6, x6, 231 # restore base address
     178:	0e730313          	addi	x6,x6,231
  addi x6, x6, SIG_STRIDE # increment signature pointer
     17c:	00430313          	addi	x6,x6,4
#ifdef RVTEST_SELFCHECK
  LREG x16, -SIG_STRIDE(x6) # load stored value for checking
     180:	ffc32803          	lw	x16,-4(x6)
  # Check if x16 contains the expected result. x6 is the signature ptr, x14 is the link ptr, x13 is a temp reg.
  RVTEST_SIGUPD(x6, x14, x13, x16, I_sw_cg_cp_rs1_nx0_b6, I_sw_cg_cp_rs1_nx0_b6_str)
     184:	00032683          	lw	x13,0(x6)
     188:	01068863          	beq	x13,x16,198 <I_sw_cg_cp_rs1_nx0_b6+0x24>
     18c:	4d00176f          	jal	x14,165c <failedtest_x14_x13>
     190:	00000174          	.word	0x00000174
     194:	00004384          	.word	0x00004384
     198:	00430313          	addi	x6,x6,4
  nop
  nop
#endif

# Testcase cp_rs1_nx0 (Test source rs1 = x7)
  RVTEST_TESTDATA_LOAD_INT(x11, x15) # load rs2: x15 = 0x5e06a873
     19c:	0005a783          	lw	x15,0(x11)
     1a0:	00458593          	addi	x11,x11,4
  mv x7, x6 # move signature pointer register
     1a4:	00030393          	addi	x7,x6,0
  addi x7, x7, 900 # adjust base address for offset
     1a8:	38438393          	addi	x7,x7,900

000001ac <I_sw_cg_cp_rs1_nx0_b7>:
I_sw_cg_cp_rs1_nx0_b7:
  sw x15, -900(x7) # perform store
     1ac:	c6f3ae23          	sw	x15,-900(x7)
  addi x7, x7, -900 # restore base address
     1b0:	c7c38393          	addi	x7,x7,-900
  addi x7, x7, SIG_STRIDE # increment signature pointer
     1b4:	00438393          	addi	x7,x7,4
#ifdef RVTEST_SELFCHECK
  LREG x18, -SIG_STRIDE(x7) # load stored value for checking
     1b8:	ffc3a903          	lw	x18,-4(x7)
  # Check if x18 contains the expected result. x7 is the signature ptr, x14 is the link ptr, x13 is a temp reg.
  RVTEST_SIGUPD(x7, x14, x13, x18, I_sw_cg_cp_rs1_nx0_b7, I_sw_cg_cp_rs1_nx0_b7_str)
     1bc:	0003a683          	lw	x13,0(x7)
     1c0:	01268863          	beq	x13,x18,1d0 <I_sw_cg_cp_rs1_nx0_b7+0x24>
     1c4:	4980176f          	jal	x14,165c <failedtest_x14_x13>
     1c8:	000001ac          	.word	0x000001ac
     1cc:	000043b4          	.word	0x000043b4
     1d0:	00438393          	addi	x7,x7,4
  nop
  nop
#endif

# Testcase cp_rs1_nx0 (Test source rs1 = x8)
  RVTEST_TESTDATA_LOAD_INT(x11, x15) # load rs2: x15 = 0x2fc16a49
     1d4:	0005a783          	lw	x15,0(x11)
     1d8:	00458593          	addi	x11,x11,4
  mv x8, x7 # move signature pointer register
     1dc:	00038413          	addi	x8,x7,0
  addi x8, x8, -134 # adjust base address for offset
     1e0:	f7a40413          	addi	x8,x8,-134

000001e4 <I_sw_cg_cp_rs1_nx0_b8>:
I_sw_cg_cp_rs1_nx0_b8:
  sw x15, 134(x8) # perform store
     1e4:	08f42323          	sw	x15,134(x8)
  addi x8, x8, 134 # restore base address
     1e8:	08640413          	addi	x8,x8,134
  addi x8, x8, SIG_STRIDE # increment signature pointer
     1ec:	00440413          	addi	x8,x8,4
#ifdef RVTEST_SELFCHECK
  LREG x23, -SIG_STRIDE(x8) # load stored value for checking
     1f0:	ffc42b83          	lw	x23,-4(x8)
  # Check if x23 contains the expected result. x8 is the signature ptr, x14 is the link ptr, x13 is a temp reg.
  RVTEST_SIGUPD(x8, x14, x13, x23, I_sw_cg_cp_rs1_nx0_b8, I_sw_cg_cp_rs1_nx0_b8_str)
     1f4:	00042683          	lw	x13,0(x8)
     1f8:	01768863          	beq	x13,x23,208 <I_sw_cg_cp_rs1_nx0_b8+0x24>
     1fc:	4600176f          	jal	x14,165c <failedtest_x14_x13>
     200:	000001e4          	.word	0x000001e4
     204:	000043e4          	.word	0x000043e4
     208:	00440413          	addi	x8,x8,4
  nop
  nop
#endif

# Testcase cp_rs1_nx0 (Test source rs1 = x9)
  RVTEST_TESTDATA_LOAD_INT(x11, x15) # load rs2: x15 = 0x4965ec1e
     20c:	0005a783          	lw	x15,0(x11)
     210:	00458593          	addi	x11,x11,4
  mv x9, x8 # move signature pointer register
     214:	00040493          	addi	x9,x8,0
  addi x9, x9, 537 # adjust base address for offset
     218:	21948493          	addi	x9,x9,537

0000021c <I_sw_cg_cp_rs1_nx0_b9>:
I_sw_cg_cp_rs1_nx0_b9:
  sw x15, -537(x9) # perform store
     21c:	def4a3a3          	sw	x15,-537(x9)
  addi x9, x9, -537 # restore base address
     220:	de748493          	addi	x9,x9,-537
  addi x9, x9, SIG_STRIDE # increment signature pointer
     224:	00448493          	addi	x9,x9,4
#ifdef RVTEST_SELFCHECK
  LREG x31, -SIG_STRIDE(x9) # load stored value for checking
     228:	ffc4af83          	lw	x31,-4(x9)
  # Check if x31 contains the expected result. x9 is the signature ptr, x14 is the link ptr, x13 is a temp reg.
  RVTEST_SIGUPD(x9, x14, x13, x31, I_sw_cg_cp_rs1_nx0_b9, I_sw_cg_cp_rs1_nx0_b9_str)
     22c:	0004a683          	lw	x13,0(x9)
     230:	01f68863          	beq	x13,x31,240 <I_sw_cg_cp_rs1_nx0_b9+0x24>
     234:	4280176f          	jal	x14,165c <failedtest_x14_x13>
     238:	0000021c          	.word	0x0000021c
     23c:	00004414          	.word	0x00004414
     240:	00448493          	addi	x9,x9,4
  nop
  nop
#endif

# Testcase cp_rs1_nx0 (Test source rs1 = x10)
  RVTEST_TESTDATA_LOAD_INT(x11, x4) # load rs2: x4 = 0xcafcacab
     244:	0005a203          	lw	x4,0(x11)
     248:	00458593          	addi	x11,x11,4
  mv x10, x9 # move signature pointer register
     24c:	00048513          	addi	x10,x9,0
  addi x10, x10, -617 # adjust base address for offset
     250:	d9750513          	addi	x10,x10,-617

00000254 <I_sw_cg_cp_rs1_nx0_b10>:
I_sw_cg_cp_rs1_nx0_b10:
  sw x4, 617(x10) # perform store
     254:	264524a3          	sw	x4,617(x10)
  addi x10, x10, 617 # restore base address
     258:	26950513          	addi	x10,x10,617
  addi x10, x10, SIG_STRIDE # increment signature pointer
     25c:	00450513          	addi	x10,x10,4
#ifdef RVTEST_SELFCHECK
  LREG x5, -SIG_STRIDE(x10) # load stored value for checking
     260:	ffc52283          	lw	x5,-4(x10)
  # Check if x5 contains the expected result. x10 is the signature ptr, x14 is the link ptr, x13 is a temp reg.
  RVTEST_SIGUPD(x10, x14, x13, x5, I_sw_cg_cp_rs1_nx0_b10, I_sw_cg_cp_rs1_nx0_b10_str)
     264:	00052683          	lw	x13,0(x10)
     268:	00568863          	beq	x13,x5,278 <I_sw_cg_cp_rs1_nx0_b10+0x24>
     26c:	3f00176f          	jal	x14,165c <failedtest_x14_x13>
     270:	00000254          	.word	0x00000254
     274:	00004444          	.word	0x00004444
     278:	00450513          	addi	x10,x10,4
  nop
  nop
  nop
#endif

  mv x3, x11 # switch data pointer register to avoid conflict with test
     27c:	00058193          	addi	x3,x11,0
# Testcase cp_rs1_nx0 (Test source rs1 = x11)
  RVTEST_TESTDATA_LOAD_INT(x3, x19) # load rs2: x19 = 0xeda2002f
     280:	0001a983          	lw	x19,0(x3)
     284:	00418193          	addi	x3,x3,4
  mv x11, x10 # move signature pointer register
     288:	00050593          	addi	x11,x10,0
  addi x11, x11, -1407 # adjust base address for offset
     28c:	a8158593          	addi	x11,x11,-1407

00000290 <I_sw_cg_cp_rs1_nx0_b11>:
I_sw_cg_cp_rs1_nx0_b11:
  sw x19, 1407(x11) # perform store
     290:	5735afa3          	sw	x19,1407(x11)
  addi x11, x11, 1407 # restore base address
     294:	57f58593          	addi	x11,x11,1407
  addi x11, x11, SIG_STRIDE # increment signature pointer
     298:	00458593          	addi	x11,x11,4
#ifdef RVTEST_SELFCHECK
  LREG x15, -SIG_STRIDE(x11) # load stored value for checking
     29c:	ffc5a783          	lw	x15,-4(x11)
  # Check if x15 contains the expected result. x11 is the signature ptr, x14 is the link ptr, x13 is a temp reg.
  RVTEST_SIGUPD(x11, x14, x13, x15, I_sw_cg_cp_rs1_nx0_b11, I_sw_cg_cp_rs1_nx0_b11_str)
     2a0:	0005a683          	lw	x13,0(x11)
     2a4:	00f68863          	beq	x13,x15,2b4 <I_sw_cg_cp_rs1_nx0_b11+0x24>
     2a8:	3b40176f          	jal	x14,165c <failedtest_x14_x13>
     2ac:	00000290          	.word	0x00000290
     2b0:	00004476          	.word	0x00004476
     2b4:	00458593          	addi	x11,x11,4
  nop
  nop
#endif

# Testcase cp_rs1_nx0 (Test source rs1 = x12)
  RVTEST_TESTDATA_LOAD_INT(x3, x22) # load rs2: x22 = 0xe3cbfb1c
     2b8:	0001ab03          	lw	x22,0(x3)
     2bc:	00418193          	addi	x3,x3,4
  mv x12, x11 # move signature pointer register
     2c0:	00058613          	addi	x12,x11,0
  addi x12, x12, -1150 # adjust base address for offset
     2c4:	b8260613          	addi	x12,x12,-1150

000002c8 <I_sw_cg_cp_rs1_nx0_b12>:
I_sw_cg_cp_rs1_nx0_b12:
  sw x22, 1150(x12) # perform store
     2c8:	47662f23          	sw	x22,1150(x12)
  addi x12, x12, 1150 # restore base address
     2cc:	47e60613          	addi	x12,x12,1150
  addi x12, x12, SIG_STRIDE # increment signature pointer
     2d0:	00460613          	addi	x12,x12,4
#ifdef RVTEST_SELFCHECK
  LREG x29, -SIG_STRIDE(x12) # load stored value for checking
     2d4:	ffc62e83          	lw	x29,-4(x12)
  # Check if x29 contains the expected result. x12 is the signature ptr, x14 is the link ptr, x13 is a temp reg.
  RVTEST_SIGUPD(x12, x14, x13, x29, I_sw_cg_cp_rs1_nx0_b12, I_sw_cg_cp_rs1_nx0_b12_str)
     2d8:	00062683          	lw	x13,0(x12)
     2dc:	01d68863          	beq	x13,x29,2ec <I_sw_cg_cp_rs1_nx0_b12+0x24>
     2e0:	37c0176f          	jal	x14,165c <failedtest_x14_x13>
     2e4:	000002c8          	.word	0x000002c8
     2e8:	000044a8          	.word	0x000044a8
     2ec:	00460613          	addi	x12,x12,4
  nop
  nop
  nop
#endif

  mv x7, x13 # switch temp register to avoid conflict with test
     2f0:	00068393          	addi	x7,x13,0
  mv x8, x14 # switch link pointer register to avoid conflict with test
     2f4:	00070413          	addi	x8,x14,0
# Testcase cp_rs1_nx0 (Test source rs1 = x13)
  RVTEST_TESTDATA_LOAD_INT(x3, x6) # load rs2: x6 = 0x75d87cec
     2f8:	0001a303          	lw	x6,0(x3)
     2fc:	00418193          	addi	x3,x3,4
  mv x13, x12 # move signature pointer register
     300:	00060693          	addi	x13,x12,0
  addi x13, x13, -1642 # adjust base address for offset
     304:	99668693          	addi	x13,x13,-1642

00000308 <I_sw_cg_cp_rs1_nx0_b13>:
I_sw_cg_cp_rs1_nx0_b13:
  sw x6, 1642(x13) # perform store
     308:	6666a523          	sw	x6,1642(x13)
  addi x13, x13, 1642 # restore base address
     30c:	66a68693          	addi	x13,x13,1642
  addi x13, x13, SIG_STRIDE # increment signature pointer
     310:	00468693          	addi	x13,x13,4
#ifdef RVTEST_SELFCHECK
  LREG x20, -SIG_STRIDE(x13) # load stored value for checking
     314:	ffc6aa03          	lw	x20,-4(x13)
  # Check if x20 contains the expected result. x13 is the signature ptr, x8 is the link ptr, x7 is a temp reg.
  RVTEST_SIGUPD(x13, x8, x7, x20, I_sw_cg_cp_rs1_nx0_b13, I_sw_cg_cp_rs1_nx0_b13_str)
     318:	0006a383          	lw	x7,0(x13)
     31c:	01438863          	beq	x7,x20,32c <imm12+0x23>
     320:	3140146f          	jal	x8,1634 <failedtest_x8_x7>
     324:	00000308          	.word	0x00000308
     328:	000044da          	.word	0x000044da
     32c:	00468693          	addi	x13,x13,4
  nop
  nop
#endif

# Testcase cp_rs1_nx0 (Test source rs1 = x14)
  RVTEST_TESTDATA_LOAD_INT(x3, x21) # load rs2: x21 = 0x2b4e0745
     330:	0001aa83          	lw	x21,0(x3)
     334:	00418193          	addi	x3,x3,4
  mv x14, x13 # move signature pointer register
     338:	00068713          	addi	x14,x13,0
  addi x14, x14, -1068 # adjust base address for offset
     33c:	bd470713          	addi	x14,x14,-1068

00000340 <I_sw_cg_cp_rs1_nx0_b14>:
I_sw_cg_cp_rs1_nx0_b14:
  sw x21, 1068(x14) # perform store
     340:	43572623          	sw	x21,1068(x14)
  addi x14, x14, 1068 # restore base address
     344:	42c70713          	addi	x14,x14,1068
  addi x14, x14, SIG_STRIDE # increment signature pointer
     348:	00470713          	addi	x14,x14,4
#ifdef RVTEST_SELFCHECK
  LREG x19, -SIG_STRIDE(x14) # load stored value for checking
     34c:	ffc72983          	lw	x19,-4(x14)
  # Check if x19 contains the expected result. x14 is the signature ptr, x8 is the link ptr, x7 is a temp reg.
  RVTEST_SIGUPD(x14, x8, x7, x19, I_sw_cg_cp_rs1_nx0_b14, I_sw_cg_cp_rs1_nx0_b14_str)
     350:	00072383          	lw	x7,0(x14)
     354:	01338863          	beq	x7,x19,364 <I_sw_cg_cp_rs1_nx0_b14+0x24>
     358:	2dc0146f          	jal	x8,1634 <failedtest_x8_x7>
     35c:	00000340          	.word	0x00000340
     360:	0000450c          	.word	0x0000450c
     364:	00470713          	addi	x14,x14,4
  nop
  nop
#endif

# Testcase cp_rs1_nx0 (Test source rs1 = x15)
  RVTEST_TESTDATA_LOAD_INT(x3, x2) # load rs2: x2 = 0x716ddc81
     368:	0001a103          	lw	x2,0(x3)
     36c:	00418193          	addi	x3,x3,4
  mv x15, x14 # move signature pointer register
     370:	00070793          	addi	x15,x14,0
  addi x15, x15, 1539 # adjust base address for offset
     374:	60378793          	addi	x15,x15,1539

00000378 <I_sw_cg_cp_rs1_nx0_b15>:
I_sw_cg_cp_rs1_nx0_b15:
  sw x2, -1539(x15) # perform store
     378:	9e27aea3          	sw	x2,-1539(x15)
  addi x15, x15, -1539 # restore base address
     37c:	9fd78793          	addi	x15,x15,-1539
  addi x15, x15, SIG_STRIDE # increment signature pointer
     380:	00478793          	addi	x15,x15,4
#ifdef RVTEST_SELFCHECK
  LREG x23, -SIG_STRIDE(x15) # load stored value for checking
     384:	ffc7ab83          	lw	x23,-4(x15)
  # Check if x23 contains the expected result. x15 is the signature ptr, x8 is the link ptr, x7 is a temp reg.
  RVTEST_SIGUPD(x15, x8, x7, x23, I_sw_cg_cp_rs1_nx0_b15, I_sw_cg_cp_rs1_nx0_b15_str)
     388:	0007a383          	lw	x7,0(x15)
     38c:	01738863          	beq	x7,x23,39c <I_sw_cg_cp_rs1_nx0_b15+0x24>
     390:	2a40146f          	jal	x8,1634 <failedtest_x8_x7>
     394:	00000378          	.word	0x00000378
     398:	0000453e          	.word	0x0000453e
     39c:	00478793          	addi	x15,x15,4
  nop
  nop
#endif

# Testcase cp_rs1_nx0 (Test source rs1 = x16)
  RVTEST_TESTDATA_LOAD_INT(x3, x5) # load rs2: x5 = 0x9cd84540
     3a0:	0001a283          	lw	x5,0(x3)
     3a4:	00418193          	addi	x3,x3,4
  mv x16, x15 # move signature pointer register
     3a8:	00078813          	addi	x16,x15,0
  addi x16, x16, 525 # adjust base address for offset
     3ac:	20d80813          	addi	x16,x16,525

000003b0 <I_sw_cg_cp_rs1_nx0_b16>:
I_sw_cg_cp_rs1_nx0_b16:
  sw x5, -525(x16) # perform store
     3b0:	de5829a3          	sw	x5,-525(x16)
  addi x16, x16, -525 # restore base address
     3b4:	df380813          	addi	x16,x16,-525
  addi x16, x16, SIG_STRIDE # increment signature pointer
     3b8:	00480813          	addi	x16,x16,4
#ifdef RVTEST_SELFCHECK
  LREG x19, -SIG_STRIDE(x16) # load stored value for checking
     3bc:	ffc82983          	lw	x19,-4(x16)
  # Check if x19 contains the expected result. x16 is the signature ptr, x8 is the link ptr, x7 is a temp reg.
  RVTEST_SIGUPD(x16, x8, x7, x19, I_sw_cg_cp_rs1_nx0_b16, I_sw_cg_cp_rs1_nx0_b16_str)
     3c0:	00082383          	lw	x7,0(x16)
     3c4:	01338863          	beq	x7,x19,3d4 <I_sw_cg_cp_rs1_nx0_b16+0x24>
     3c8:	26c0146f          	jal	x8,1634 <failedtest_x8_x7>
     3cc:	000003b0          	.word	0x000003b0
     3d0:	00004570          	.word	0x00004570
     3d4:	00480813          	addi	x16,x16,4
  nop
  nop
#endif

# Testcase cp_rs1_nx0 (Test source rs1 = x17)
  RVTEST_TESTDATA_LOAD_INT(x3, x24) # load rs2: x24 = 0xc81cb2a5
     3d8:	0001ac03          	lw	x24,0(x3)
     3dc:	00418193          	addi	x3,x3,4
  mv x17, x16 # move signature pointer register
     3e0:	00080893          	addi	x17,x16,0
  addi x17, x17, 957 # adjust base address for offset
     3e4:	3bd88893          	addi	x17,x17,957

000003e8 <I_sw_cg_cp_rs1_nx0_b17>:
I_sw_cg_cp_rs1_nx0_b17:
  sw x24, -957(x17) # perform store
     3e8:	c588a1a3          	sw	x24,-957(x17)
  addi x17, x17, -957 # restore base address
     3ec:	c4388893          	addi	x17,x17,-957
  addi x17, x17, SIG_STRIDE # increment signature pointer
     3f0:	00488893          	addi	x17,x17,4
#ifdef RVTEST_SELFCHECK
  LREG x20, -SIG_STRIDE(x17) # load stored value for checking
     3f4:	ffc8aa03          	lw	x20,-4(x17)
  # Check if x20 contains the expected result. x17 is the signature ptr, x8 is the link ptr, x7 is a temp reg.
  RVTEST_SIGUPD(x17, x8, x7, x20, I_sw_cg_cp_rs1_nx0_b17, I_sw_cg_cp_rs1_nx0_b17_str)
     3f8:	0008a383          	lw	x7,0(x17)
     3fc:	01438863          	beq	x7,x20,40c <I_sw_cg_cp_rs1_nx0_b17+0x24>
     400:	2340146f          	jal	x8,1634 <failedtest_x8_x7>
     404:	000003e8          	.word	0x000003e8
     408:	000045a2          	.word	0x000045a2
     40c:	00488893          	addi	x17,x17,4
  nop
  nop
#endif

# Testcase cp_rs1_nx0 (Test source rs1 = x18)
  RVTEST_TESTDATA_LOAD_INT(x3, x5) # load rs2: x5 = 0x55457b75
     410:	0001a283          	lw	x5,0(x3)
     414:	00418193          	addi	x3,x3,4
  mv x18, x17 # move signature pointer register
     418:	00088913          	addi	x18,x17,0
  addi x18, x18, 1694 # adjust base address for offset
     41c:	69e90913          	addi	x18,x18,1694

00000420 <I_sw_cg_cp_rs1_nx0_b18>:
I_sw_cg_cp_rs1_nx0_b18:
  sw x5, -1694(x18) # perform store
     420:	96592123          	sw	x5,-1694(x18)
  addi x18, x18, -1694 # restore base address
     424:	96290913          	addi	x18,x18,-1694
  addi x18, x18, SIG_STRIDE # increment signature pointer
     428:	00490913          	addi	x18,x18,4
#ifdef RVTEST_SELFCHECK
  LREG x6, -SIG_STRIDE(x18) # load stored value for checking
     42c:	ffc92303          	lw	x6,-4(x18)
  # Check if x6 contains the expected result. x18 is the signature ptr, x8 is the link ptr, x7 is a temp reg.
  RVTEST_SIGUPD(x18, x8, x7, x6, I_sw_cg_cp_rs1_nx0_b18, I_sw_cg_cp_rs1_nx0_b18_str)
     430:	00092383          	lw	x7,0(x18)
     434:	00638863          	beq	x7,x6,444 <I_sw_cg_cp_rs1_nx0_b18+0x24>
     438:	1fc0146f          	jal	x8,1634 <failedtest_x8_x7>
     43c:	00000420          	.word	0x00000420
     440:	000045d4          	.word	0x000045d4
     444:	00490913          	addi	x18,x18,4
  nop
  nop
#endif

# Testcase cp_rs1_nx0 (Test source rs1 = x19)
  RVTEST_TESTDATA_LOAD_INT(x3, x15) # load rs2: x15 = 0x91552883
     448:	0001a783          	lw	x15,0(x3)
     44c:	00418193          	addi	x3,x3,4
  mv x19, x18 # move signature pointer register
     450:	00090993          	addi	x19,x18,0
  addi x19, x19, -518 # adjust base address for offset
     454:	dfa98993          	addi	x19,x19,-518

00000458 <I_sw_cg_cp_rs1_nx0_b19>:
I_sw_cg_cp_rs1_nx0_b19:
  sw x15, 518(x19) # perform store
     458:	20f9a323          	sw	x15,518(x19)
  addi x19, x19, 518 # restore base address
     45c:	20698993          	addi	x19,x19,518
  addi x19, x19, SIG_STRIDE # increment signature pointer
     460:	00498993          	addi	x19,x19,4
#ifdef RVTEST_SELFCHECK
  LREG x13, -SIG_STRIDE(x19) # load stored value for checking
     464:	ffc9a683          	lw	x13,-4(x19)
  # Check if x13 contains the expected result. x19 is the signature ptr, x8 is the link ptr, x7 is a temp reg.
  RVTEST_SIGUPD(x19, x8, x7, x13, I_sw_cg_cp_rs1_nx0_b19, I_sw_cg_cp_rs1_nx0_b19_str)
     468:	0009a383          	lw	x7,0(x19)
     46c:	00d38863          	beq	x7,x13,47c <I_sw_cg_cp_rs1_nx0_b19+0x24>
     470:	1c40146f          	jal	x8,1634 <failedtest_x8_x7>
     474:	00000458          	.word	0x00000458
     478:	00004606          	.word	0x00004606
     47c:	00498993          	addi	x19,x19,4
  nop
  nop
#endif

# Testcase cp_rs1_nx0 (Test source rs1 = x20)
  RVTEST_TESTDATA_LOAD_INT(x3, x0) # load rs2: x0 = 0x40639bae
     480:	0001a003          	lw	x0,0(x3)
     484:	00418193          	addi	x3,x3,4
  mv x20, x19 # move signature pointer register
     488:	00098a13          	addi	x20,x19,0
  addi x20, x20, -108 # adjust base address for offset
     48c:	f94a0a13          	addi	x20,x20,-108

00000490 <I_sw_cg_cp_rs1_nx0_b20>:
I_sw_cg_cp_rs1_nx0_b20:
  sw x0, 108(x20) # perform store
     490:	060a2623          	sw	x0,108(x20)
  addi x20, x20, 108 # restore base address
     494:	06ca0a13          	addi	x20,x20,108
  addi x20, x20, SIG_STRIDE # increment signature pointer
     498:	004a0a13          	addi	x20,x20,4
#ifdef RVTEST_SELFCHECK
  LREG x4, -SIG_STRIDE(x20) # load stored value for checking
     49c:	ffca2203          	lw	x4,-4(x20)
  # Check if x4 contains the expected result. x20 is the signature ptr, x8 is the link ptr, x7 is a temp reg.
  RVTEST_SIGUPD(x20, x8, x7, x4, I_sw_cg_cp_rs1_nx0_b20, I_sw_cg_cp_rs1_nx0_b20_str)
     4a0:	000a2383          	lw	x7,0(x20)
     4a4:	00438863          	beq	x7,x4,4b4 <I_sw_cg_cp_rs1_nx0_b20+0x24>
     4a8:	18c0146f          	jal	x8,1634 <failedtest_x8_x7>
     4ac:	00000490          	.word	0x00000490
     4b0:	00004638          	.word	0x00004638
     4b4:	004a0a13          	addi	x20,x20,4
  nop
  nop
#endif

# Testcase cp_rs1_nx0 (Test source rs1 = x21)
  RVTEST_TESTDATA_LOAD_INT(x3, x1) # load rs2: x1 = 0x4c14ef26
     4b8:	0001a083          	lw	x1,0(x3)
     4bc:	00418193          	addi	x3,x3,4
  mv x21, x20 # move signature pointer register
     4c0:	000a0a93          	addi	x21,x20,0
  addi x21, x21, -482 # adjust base address for offset
     4c4:	e1ea8a93          	addi	x21,x21,-482

000004c8 <I_sw_cg_cp_rs1_nx0_b21>:
I_sw_cg_cp_rs1_nx0_b21:
  sw x1, 482(x21) # perform store
     4c8:	1e1aa123          	sw	x1,482(x21)
  addi x21, x21, 482 # restore base address
     4cc:	1e2a8a93          	addi	x21,x21,482
  addi x21, x21, SIG_STRIDE # increment signature pointer
     4d0:	004a8a93          	addi	x21,x21,4
#ifdef RVTEST_SELFCHECK
  LREG x27, -SIG_STRIDE(x21) # load stored value for checking
     4d4:	ffcaad83          	lw	x27,-4(x21)
  # Check if x27 contains the expected result. x21 is the signature ptr, x8 is the link ptr, x7 is a temp reg.
  RVTEST_SIGUPD(x21, x8, x7, x27, I_sw_cg_cp_rs1_nx0_b21, I_sw_cg_cp_rs1_nx0_b21_str)
     4d8:	000aa383          	lw	x7,0(x21)
     4dc:	01b38863          	beq	x7,x27,4ec <I_sw_cg_cp_rs1_nx0_b21+0x24>
     4e0:	1540146f          	jal	x8,1634 <failedtest_x8_x7>
     4e4:	000004c8          	.word	0x000004c8
     4e8:	0000466a          	.word	0x0000466a
     4ec:	004a8a93          	addi	x21,x21,4
  nop
  nop
#endif

# Testcase cp_rs1_nx0 (Test source rs1 = x22)
  RVTEST_TESTDATA_LOAD_INT(x3, x31) # load rs2: x31 = 0x68b518a2
     4f0:	0001af83          	lw	x31,0(x3)
     4f4:	00418193          	addi	x3,x3,4
  mv x22, x21 # move signature pointer register
     4f8:	000a8b13          	addi	x22,x21,0
  addi x22, x22, -509 # adjust base address for offset
     4fc:	e03b0b13          	addi	x22,x22,-509

00000500 <I_sw_cg_cp_rs1_nx0_b22>:
I_sw_cg_cp_rs1_nx0_b22:
  sw x31, 509(x22) # perform store
     500:	1ffb2ea3          	sw	x31,509(x22)
  addi x22, x22, 509 # restore base address
     504:	1fdb0b13          	addi	x22,x22,509
  addi x22, x22, SIG_STRIDE # increment signature pointer
     508:	004b0b13          	addi	x22,x22,4
#ifdef RVTEST_SELFCHECK
  LREG x14, -SIG_STRIDE(x22) # load stored value for checking
     50c:	ffcb2703          	lw	x14,-4(x22)
  # Check if x14 contains the expected result. x22 is the signature ptr, x8 is the link ptr, x7 is a temp reg.
  RVTEST_SIGUPD(x22, x8, x7, x14, I_sw_cg_cp_rs1_nx0_b22, I_sw_cg_cp_rs1_nx0_b22_str)
     510:	000b2383          	lw	x7,0(x22)
     514:	00e38863          	beq	x7,x14,524 <I_sw_cg_cp_rs1_nx0_b22+0x24>
     518:	11c0146f          	jal	x8,1634 <failedtest_x8_x7>
     51c:	00000500          	.word	0x00000500
     520:	0000469c          	.word	0x0000469c
     524:	004b0b13          	addi	x22,x22,4
  nop
  nop
#endif

# Testcase cp_rs1_nx0 (Test source rs1 = x23)
  RVTEST_TESTDATA_LOAD_INT(x3, x10) # load rs2: x10 = 0x2ceb69f2
     528:	0001a503          	lw	x10,0(x3)
     52c:	00418193          	addi	x3,x3,4
  mv x23, x22 # move signature pointer register
     530:	000b0b93          	addi	x23,x22,0
  addi x23, x23, 1536 # adjust base address for offset
     534:	600b8b93          	addi	x23,x23,1536

00000538 <I_sw_cg_cp_rs1_nx0_b23>:
I_sw_cg_cp_rs1_nx0_b23:
  sw x10, -1536(x23) # perform store
     538:	a0aba023          	sw	x10,-1536(x23)
  addi x23, x23, -1536 # restore base address
     53c:	a00b8b93          	addi	x23,x23,-1536
  addi x23, x23, SIG_STRIDE # increment signature pointer
     540:	004b8b93          	addi	x23,x23,4
#ifdef RVTEST_SELFCHECK
  LREG x30, -SIG_STRIDE(x23) # load stored value for checking
     544:	ffcbaf03          	lw	x30,-4(x23)
  # Check if x30 contains the expected result. x23 is the signature ptr, x8 is the link ptr, x7 is a temp reg.
  RVTEST_SIGUPD(x23, x8, x7, x30, I_sw_cg_cp_rs1_nx0_b23, I_sw_cg_cp_rs1_nx0_b23_str)
     548:	000ba383          	lw	x7,0(x23)
     54c:	01e38863          	beq	x7,x30,55c <I_sw_cg_cp_rs1_nx0_b23+0x24>
     550:	0e40146f          	jal	x8,1634 <failedtest_x8_x7>
     554:	00000538          	.word	0x00000538
     558:	000046ce          	.word	0x000046ce
     55c:	004b8b93          	addi	x23,x23,4
  nop
  nop
#endif

# Testcase cp_rs1_nx0 (Test source rs1 = x24)
  RVTEST_TESTDATA_LOAD_INT(x3, x26) # load rs2: x26 = 0x818d95f2
     560:	0001ad03          	lw	x26,0(x3)
     564:	00418193          	addi	x3,x3,4
  mv x24, x23 # move signature pointer register
     568:	000b8c13          	addi	x24,x23,0
  addi x24, x24, -1251 # adjust base address for offset
     56c:	b1dc0c13          	addi	x24,x24,-1251

00000570 <I_sw_cg_cp_rs1_nx0_b24>:
I_sw_cg_cp_rs1_nx0_b24:
  sw x26, 1251(x24) # perform store
     570:	4fac21a3          	sw	x26,1251(x24)
  addi x24, x24, 1251 # restore base address
     574:	4e3c0c13          	addi	x24,x24,1251
  addi x24, x24, SIG_STRIDE # increment signature pointer
     578:	004c0c13          	addi	x24,x24,4
#ifdef RVTEST_SELFCHECK
  LREG x10, -SIG_STRIDE(x24) # load stored value for checking
     57c:	ffcc2503          	lw	x10,-4(x24)
  # Check if x10 contains the expected result. x24 is the signature ptr, x8 is the link ptr, x7 is a temp reg.
  RVTEST_SIGUPD(x24, x8, x7, x10, I_sw_cg_cp_rs1_nx0_b24, I_sw_cg_cp_rs1_nx0_b24_str)
     580:	000c2383          	lw	x7,0(x24)
     584:	00a38863          	beq	x7,x10,594 <I_sw_cg_cp_rs1_nx0_b24+0x24>
     588:	0ac0146f          	jal	x8,1634 <failedtest_x8_x7>
     58c:	00000570          	.word	0x00000570
     590:	00004700          	.word	0x00004700
     594:	004c0c13          	addi	x24,x24,4
  nop
  nop
#endif

# Testcase cp_rs1_nx0 (Test source rs1 = x25)
  RVTEST_TESTDATA_LOAD_INT(x3, x4) # load rs2: x4 = 0xc31ad048
     598:	0001a203          	lw	x4,0(x3)
     59c:	00418193          	addi	x3,x3,4
  mv x25, x24 # move signature pointer register
     5a0:	000c0c93          	addi	x25,x24,0
  addi x25, x25, 935 # adjust base address for offset
     5a4:	3a7c8c93          	addi	x25,x25,935

000005a8 <I_sw_cg_cp_rs1_nx0_b25>:
I_sw_cg_cp_rs1_nx0_b25:
  sw x4, -935(x25) # perform store
     5a8:	c44caca3          	sw	x4,-935(x25)
  addi x25, x25, -935 # restore base address
     5ac:	c59c8c93          	addi	x25,x25,-935
  addi x25, x25, SIG_STRIDE # increment signature pointer
     5b0:	004c8c93          	addi	x25,x25,4
#ifdef RVTEST_SELFCHECK
  LREG x9, -SIG_STRIDE(x25) # load stored value for checking
     5b4:	ffcca483          	lw	x9,-4(x25)
  # Check if x9 contains the expected result. x25 is the signature ptr, x8 is the link ptr, x7 is a temp reg.
  RVTEST_SIGUPD(x25, x8, x7, x9, I_sw_cg_cp_rs1_nx0_b25, I_sw_cg_cp_rs1_nx0_b25_str)
     5b8:	000ca383          	lw	x7,0(x25)
     5bc:	00938863          	beq	x7,x9,5cc <I_sw_cg_cp_rs1_nx0_b25+0x24>
     5c0:	0740146f          	jal	x8,1634 <failedtest_x8_x7>
     5c4:	000005a8          	.word	0x000005a8
     5c8:	00004732          	.word	0x00004732
     5cc:	004c8c93          	addi	x25,x25,4
  nop
  nop
#endif

# Testcase cp_rs1_nx0 (Test source rs1 = x26)
  RVTEST_TESTDATA_LOAD_INT(x3, x14) # load rs2: x14 = 0xde9dad94
     5d0:	0001a703          	lw	x14,0(x3)
     5d4:	00418193          	addi	x3,x3,4
  mv x26, x25 # move signature pointer register
     5d8:	000c8d13          	addi	x26,x25,0
  addi x26, x26, 1403 # adjust base address for offset
     5dc:	57bd0d13          	addi	x26,x26,1403

000005e0 <I_sw_cg_cp_rs1_nx0_b26>:
I_sw_cg_cp_rs1_nx0_b26:
  sw x14, -1403(x26) # perform store
     5e0:	a8ed22a3          	sw	x14,-1403(x26)
  addi x26, x26, -1403 # restore base address
     5e4:	a85d0d13          	addi	x26,x26,-1403
  addi x26, x26, SIG_STRIDE # increment signature pointer
     5e8:	004d0d13          	addi	x26,x26,4
#ifdef RVTEST_SELFCHECK
  LREG x10, -SIG_STRIDE(x26) # load stored value for checking
     5ec:	ffcd2503          	lw	x10,-4(x26)
  # Check if x10 contains the expected result. x26 is the signature ptr, x8 is the link ptr, x7 is a temp reg.
  RVTEST_SIGUPD(x26, x8, x7, x10, I_sw_cg_cp_rs1_nx0_b26, I_sw_cg_cp_rs1_nx0_b26_str)
     5f0:	000d2383          	lw	x7,0(x26)
     5f4:	00a38863          	beq	x7,x10,604 <I_sw_cg_cp_rs1_nx0_b26+0x24>
     5f8:	03c0146f          	jal	x8,1634 <failedtest_x8_x7>
     5fc:	000005e0          	.word	0x000005e0
     600:	00004764          	.word	0x00004764
     604:	004d0d13          	addi	x26,x26,4
  nop
  nop
#endif

# Testcase cp_rs1_nx0 (Test source rs1 = x27)
  RVTEST_TESTDATA_LOAD_INT(x3, x28) # load rs2: x28 = 0x428ac6d1
     608:	0001ae03          	lw	x28,0(x3)
     60c:	00418193          	addi	x3,x3,4
  mv x27, x26 # move signature pointer register
     610:	000d0d93          	addi	x27,x26,0
  addi x27, x27, 123 # adjust base address for offset
     614:	07bd8d93          	addi	x27,x27,123

00000618 <I_sw_cg_cp_rs1_nx0_b27>:
I_sw_cg_cp_rs1_nx0_b27:
  sw x28, -123(x27) # perform store
     618:	f9cda2a3          	sw	x28,-123(x27)
  addi x27, x27, -123 # restore base address
     61c:	f85d8d93          	addi	x27,x27,-123
  addi x27, x27, SIG_STRIDE # increment signature pointer
     620:	004d8d93          	addi	x27,x27,4
#ifdef RVTEST_SELFCHECK
  LREG x6, -SIG_STRIDE(x27) # load stored value for checking
     624:	ffcda303          	lw	x6,-4(x27)
  # Check if x6 contains the expected result. x27 is the signature ptr, x8 is the link ptr, x7 is a temp reg.
  RVTEST_SIGUPD(x27, x8, x7, x6, I_sw_cg_cp_rs1_nx0_b27, I_sw_cg_cp_rs1_nx0_b27_str)
     628:	000da383          	lw	x7,0(x27)
     62c:	00638863          	beq	x7,x6,63c <I_sw_cg_cp_rs1_nx0_b27+0x24>
     630:	0040146f          	jal	x8,1634 <failedtest_x8_x7>
     634:	00000618          	.word	0x00000618
     638:	00004796          	.word	0x00004796
     63c:	004d8d93          	addi	x27,x27,4
  nop
  nop
#endif

# Testcase cp_rs1_nx0 (Test source rs1 = x28)
  RVTEST_TESTDATA_LOAD_INT(x3, x5) # load rs2: x5 = 0x55e31962
     640:	0001a283          	lw	x5,0(x3)
     644:	00418193          	addi	x3,x3,4
  mv x28, x27 # move signature pointer register
     648:	000d8e13          	addi	x28,x27,0
  addi x28, x28, -1945 # adjust base address for offset
     64c:	867e0e13          	addi	x28,x28,-1945

00000650 <I_sw_cg_cp_rs1_nx0_b28>:
I_sw_cg_cp_rs1_nx0_b28:
  sw x5, 1945(x28) # perform store
     650:	785e2ca3          	sw	x5,1945(x28)
  addi x28, x28, 1945 # restore base address
     654:	799e0e13          	addi	x28,x28,1945
  addi x28, x28, SIG_STRIDE # increment signature pointer
     658:	004e0e13          	addi	x28,x28,4
#ifdef RVTEST_SELFCHECK
  LREG x20, -SIG_STRIDE(x28) # load stored value for checking
     65c:	ffce2a03          	lw	x20,-4(x28)
  # Check if x20 contains the expected result. x28 is the signature ptr, x8 is the link ptr, x7 is a temp reg.
  RVTEST_SIGUPD(x28, x8, x7, x20, I_sw_cg_cp_rs1_nx0_b28, I_sw_cg_cp_rs1_nx0_b28_str)
     660:	000e2383          	lw	x7,0(x28)
     664:	01438863          	beq	x7,x20,674 <I_sw_cg_cp_rs1_nx0_b28+0x24>
     668:	7cd0046f          	jal	x8,1634 <failedtest_x8_x7>
     66c:	00000650          	.word	0x00000650
     670:	000047c8          	.word	0x000047c8
     674:	004e0e13          	addi	x28,x28,4
  nop
  nop
#endif

# Testcase cp_rs1_nx0 (Test source rs1 = x29)
  RVTEST_TESTDATA_LOAD_INT(x3, x18) # load rs2: x18 = 0x97edee76
     678:	0001a903          	lw	x18,0(x3)
     67c:	00418193          	addi	x3,x3,4
  mv x29, x28 # move signature pointer register
     680:	000e0e93          	addi	x29,x28,0
  addi x29, x29, -525 # adjust base address for offset
     684:	df3e8e93          	addi	x29,x29,-525

00000688 <I_sw_cg_cp_rs1_nx0_b29>:
I_sw_cg_cp_rs1_nx0_b29:
  sw x18, 525(x29) # perform store
     688:	212ea6a3          	sw	x18,525(x29)
  addi x29, x29, 525 # restore base address
     68c:	20de8e93          	addi	x29,x29,525
  addi x29, x29, SIG_STRIDE # increment signature pointer
     690:	004e8e93          	addi	x29,x29,4
#ifdef RVTEST_SELFCHECK
  LREG x10, -SIG_STRIDE(x29) # load stored value for checking
     694:	ffcea503          	lw	x10,-4(x29)
  # Check if x10 contains the expected result. x29 is the signature ptr, x8 is the link ptr, x7 is a temp reg.
  RVTEST_SIGUPD(x29, x8, x7, x10, I_sw_cg_cp_rs1_nx0_b29, I_sw_cg_cp_rs1_nx0_b29_str)
     698:	000ea383          	lw	x7,0(x29)
     69c:	00a38863          	beq	x7,x10,6ac <I_sw_cg_cp_rs1_nx0_b29+0x24>
     6a0:	7950046f          	jal	x8,1634 <failedtest_x8_x7>
     6a4:	00000688          	.word	0x00000688
     6a8:	000047fa          	.word	0x000047fa
     6ac:	004e8e93          	addi	x29,x29,4
  nop
  nop
#endif

# Testcase cp_rs1_nx0 (Test source rs1 = x30)
  RVTEST_TESTDATA_LOAD_INT(x3, x1) # load rs2: x1 = 0x02f73af5
     6b0:	0001a083          	lw	x1,0(x3)
     6b4:	00418193          	addi	x3,x3,4
  mv x30, x29 # move signature pointer register
     6b8:	000e8f13          	addi	x30,x29,0
  addi x30, x30, 1778 # adjust base address for offset
     6bc:	6f2f0f13          	addi	x30,x30,1778

000006c0 <I_sw_cg_cp_rs1_nx0_b30>:
I_sw_cg_cp_rs1_nx0_b30:
  sw x1, -1778(x30) # perform store
     6c0:	901f2723          	sw	x1,-1778(x30)
  addi x30, x30, -1778 # restore base address
     6c4:	90ef0f13          	addi	x30,x30,-1778
  addi x30, x30, SIG_STRIDE # increment signature pointer
     6c8:	004f0f13          	addi	x30,x30,4
#ifdef RVTEST_SELFCHECK
  LREG x10, -SIG_STRIDE(x30) # load stored value for checking
     6cc:	ffcf2503          	lw	x10,-4(x30)
  # Check if x10 contains the expected result. x30 is the signature ptr, x8 is the link ptr, x7 is a temp reg.
  RVTEST_SIGUPD(x30, x8, x7, x10, I_sw_cg_cp_rs1_nx0_b30, I_sw_cg_cp_rs1_nx0_b30_str)
     6d0:	000f2383          	lw	x7,0(x30)
     6d4:	00a38863          	beq	x7,x10,6e4 <I_sw_cg_cp_rs1_nx0_b30+0x24>
     6d8:	75d0046f          	jal	x8,1634 <failedtest_x8_x7>
     6dc:	000006c0          	.word	0x000006c0
     6e0:	0000482c          	.word	0x0000482c
     6e4:	004f0f13          	addi	x30,x30,4
  nop
  nop
#endif

# Testcase cp_rs1_nx0 (Test source rs1 = x31)
  RVTEST_TESTDATA_LOAD_INT(x3, x27) # load rs2: x27 = 0x6397cf3b
     6e8:	0001ad83          	lw	x27,0(x3)
     6ec:	00418193          	addi	x3,x3,4
  mv x31, x30 # move signature pointer register
     6f0:	000f0f93          	addi	x31,x30,0
  addi x31, x31, -1288 # adjust base address for offset
     6f4:	af8f8f93          	addi	x31,x31,-1288

000006f8 <I_sw_cg_cp_rs1_nx0_b31>:
I_sw_cg_cp_rs1_nx0_b31:
  sw x27, 1288(x31) # perform store
     6f8:	51bfa423          	sw	x27,1288(x31)
  addi x31, x31, 1288 # restore base address
     6fc:	508f8f93          	addi	x31,x31,1288
  addi x31, x31, SIG_STRIDE # increment signature pointer
     700:	004f8f93          	addi	x31,x31,4
#ifdef RVTEST_SELFCHECK
  LREG x11, -SIG_STRIDE(x31) # load stored value for checking
     704:	ffcfa583          	lw	x11,-4(x31)
  # Check if x11 contains the expected result. x31 is the signature ptr, x8 is the link ptr, x7 is a temp reg.
  RVTEST_SIGUPD(x31, x8, x7, x11, I_sw_cg_cp_rs1_nx0_b31, I_sw_cg_cp_rs1_nx0_b31_str)
     708:	000fa383          	lw	x7,0(x31)
     70c:	00b38863          	beq	x7,x11,71c <I_sw_cg_cp_rs1_nx0_b31+0x24>
     710:	7250046f          	jal	x8,1634 <failedtest_x8_x7>
     714:	000006f8          	.word	0x000006f8
     718:	0000485e          	.word	0x0000485e
     71c:	004f8f93          	addi	x31,x31,4
/////////////////////////////////
// cp_rs2
/////////////////////////////////

# Testcase cp_rs2 (Test source rs2 = x0)
  RVTEST_TESTDATA_LOAD_INT(x3, x0) # load rs2: x0 = 0x9a9800b7
     720:	0001a003          	lw	x0,0(x3)
     724:	00418193          	addi	x3,x3,4
  mv x22, x31 # move signature pointer register
     728:	000f8b13          	addi	x22,x31,0
  addi x22, x22, -1417 # adjust base address for offset
     72c:	a77b0b13          	addi	x22,x22,-1417

00000730 <I_sw_cg_cp_rs2_b0>:
I_sw_cg_cp_rs2_b0:
  sw x0, 1417(x22) # perform store
     730:	580b24a3          	sw	x0,1417(x22)
  addi x22, x22, 1417 # restore base address
     734:	589b0b13          	addi	x22,x22,1417
  addi x22, x22, SIG_STRIDE # increment signature pointer
     738:	004b0b13          	addi	x22,x22,4
#ifdef RVTEST_SELFCHECK
  LREG x1, -SIG_STRIDE(x22) # load stored value for checking
     73c:	ffcb2083          	lw	x1,-4(x22)
  # Check if x1 contains the expected result. x22 is the signature ptr, x8 is the link ptr, x7 is a temp reg.
  RVTEST_SIGUPD(x22, x8, x7, x1, I_sw_cg_cp_rs2_b0, I_sw_cg_cp_rs2_b0_str)
     740:	000b2383          	lw	x7,0(x22)
     744:	00138863          	beq	x7,x1,754 <I_sw_cg_cp_rs2_b0+0x24>
     748:	6ed0046f          	jal	x8,1634 <failedtest_x8_x7>
     74c:	00000730          	.word	0x00000730
     750:	00004890          	.word	0x00004890
     754:	004b0b13          	addi	x22,x22,4
  nop
  nop
#endif

# Testcase cp_rs2 (Test source rs2 = x1)
  RVTEST_TESTDATA_LOAD_INT(x3, x1) # load rs2: x1 = 0xbe0bc484
     758:	0001a083          	lw	x1,0(x3)
     75c:	00418193          	addi	x3,x3,4
  mv x2, x22 # move signature pointer register
     760:	000b0113          	addi	x2,x22,0
  addi x2, x2, -911 # adjust base address for offset
     764:	c7110113          	addi	x2,x2,-911

00000768 <I_sw_cg_cp_rs2_b1>:
I_sw_cg_cp_rs2_b1:
  sw x1, 911(x2) # perform store
     768:	381127a3          	sw	x1,911(x2)
  addi x2, x2, 911 # restore base address
     76c:	38f10113          	addi	x2,x2,911
  addi x2, x2, SIG_STRIDE # increment signature pointer
     770:	00410113          	addi	x2,x2,4
#ifdef RVTEST_SELFCHECK
  LREG x18, -SIG_STRIDE(x2) # load stored value for checking
     774:	ffc12903          	lw	x18,-4(x2)
  # Check if x18 contains the expected result. x2 is the signature ptr, x8 is the link ptr, x7 is a temp reg.
  RVTEST_SIGUPD(x2, x8, x7, x18, I_sw_cg_cp_rs2_b1, I_sw_cg_cp_rs2_b1_str)
     778:	00012383          	lw	x7,0(x2)
     77c:	01238863          	beq	x7,x18,78c <I_sw_cg_cp_rs2_b1+0x24>
     780:	6b50046f          	jal	x8,1634 <failedtest_x8_x7>
     784:	00000768          	.word	0x00000768
     788:	000048bd          	.word	0x000048bd
     78c:	00410113          	addi	x2,x2,4
  nop
  nop
  nop
#endif

  mv x15, x2 # switch signature pointer register to avoid conflict with test
     790:	00010793          	addi	x15,x2,0
# Testcase cp_rs2 (Test source rs2 = x2)
  RVTEST_TESTDATA_LOAD_INT(x3, x2) # load rs2: x2 = 0x0d76ff89
     794:	0001a103          	lw	x2,0(x3)
     798:	00418193          	addi	x3,x3,4
  mv x14, x15 # move signature pointer register
     79c:	00078713          	addi	x14,x15,0
  addi x14, x14, -909 # adjust base address for offset
     7a0:	c7370713          	addi	x14,x14,-909

000007a4 <I_sw_cg_cp_rs2_b2>:
I_sw_cg_cp_rs2_b2:
  sw x2, 909(x14) # perform store
     7a4:	382726a3          	sw	x2,909(x14)
  addi x14, x14, 909 # restore base address
     7a8:	38d70713          	addi	x14,x14,909
  addi x14, x14, SIG_STRIDE # increment signature pointer
     7ac:	00470713          	addi	x14,x14,4
#ifdef RVTEST_SELFCHECK
  LREG x27, -SIG_STRIDE(x14) # load stored value for checking
     7b0:	ffc72d83          	lw	x27,-4(x14)
  # Check if x27 contains the expected result. x14 is the signature ptr, x8 is the link ptr, x7 is a temp reg.
  RVTEST_SIGUPD(x14, x8, x7, x27, I_sw_cg_cp_rs2_b2, I_sw_cg_cp_rs2_b2_str)
     7b4:	00072383          	lw	x7,0(x14)
     7b8:	01b38863          	beq	x7,x27,7c8 <I_sw_cg_cp_rs2_b2+0x24>
     7bc:	6790046f          	jal	x8,1634 <failedtest_x8_x7>
     7c0:	000007a4          	.word	0x000007a4
     7c4:	000048ea          	.word	0x000048ea
     7c8:	00470713          	addi	x14,x14,4
  nop
  nop
  nop
#endif

  mv x26, x3 # switch data pointer register to avoid conflict with test
     7cc:	00018d13          	addi	x26,x3,0
# Testcase cp_rs2 (Test source rs2 = x3)
  RVTEST_TESTDATA_LOAD_INT(x26, x3) # load rs2: x3 = 0x7df6ea99
     7d0:	000d2183          	lw	x3,0(x26)
     7d4:	004d0d13          	addi	x26,x26,4
  mv x16, x14 # move signature pointer register
     7d8:	00070813          	addi	x16,x14,0
  addi x16, x16, -1334 # adjust base address for offset
     7dc:	aca80813          	addi	x16,x16,-1334

000007e0 <I_sw_cg_cp_rs2_b3>:
I_sw_cg_cp_rs2_b3:
  sw x3, 1334(x16) # perform store
     7e0:	52382b23          	sw	x3,1334(x16)
  addi x16, x16, 1334 # restore base address
     7e4:	53680813          	addi	x16,x16,1334
  addi x16, x16, SIG_STRIDE # increment signature pointer
     7e8:	00480813          	addi	x16,x16,4
#ifdef RVTEST_SELFCHECK
  LREG x17, -SIG_STRIDE(x16) # load stored value for checking
     7ec:	ffc82883          	lw	x17,-4(x16)
  # Check if x17 contains the expected result. x16 is the signature ptr, x8 is the link ptr, x7 is a temp reg.
  RVTEST_SIGUPD(x16, x8, x7, x17, I_sw_cg_cp_rs2_b3, I_sw_cg_cp_rs2_b3_str)
     7f0:	00082383          	lw	x7,0(x16)
     7f4:	01138863          	beq	x7,x17,804 <I_sw_cg_cp_rs2_b3+0x24>
     7f8:	63d0046f          	jal	x8,1634 <failedtest_x8_x7>
     7fc:	000007e0          	.word	0x000007e0
     800:	00004917          	.word	0x00004917
     804:	00480813          	addi	x16,x16,4
  nop
  nop
#endif

# Testcase cp_rs2 (Test source rs2 = x4)
  RVTEST_TESTDATA_LOAD_INT(x26, x4) # load rs2: x4 = 0x3ba5eea0
     808:	000d2203          	lw	x4,0(x26)
     80c:	004d0d13          	addi	x26,x26,4
  mv x12, x16 # move signature pointer register
     810:	00080613          	addi	x12,x16,0
  addi x12, x12, 1291 # adjust base address for offset
     814:	50b60613          	addi	x12,x12,1291

00000818 <I_sw_cg_cp_rs2_b4>:
I_sw_cg_cp_rs2_b4:
  sw x4, -1291(x12) # perform store
     818:	ae462aa3          	sw	x4,-1291(x12)
  addi x12, x12, -1291 # restore base address
     81c:	af560613          	addi	x12,x12,-1291
  addi x12, x12, SIG_STRIDE # increment signature pointer
     820:	00460613          	addi	x12,x12,4
#ifdef RVTEST_SELFCHECK
  LREG x14, -SIG_STRIDE(x12) # load stored value for checking
     824:	ffc62703          	lw	x14,-4(x12)
  # Check if x14 contains the expected result. x12 is the signature ptr, x8 is the link ptr, x7 is a temp reg.
  RVTEST_SIGUPD(x12, x8, x7, x14, I_sw_cg_cp_rs2_b4, I_sw_cg_cp_rs2_b4_str)
     828:	00062383          	lw	x7,0(x12)
     82c:	00e38863          	beq	x7,x14,83c <I_sw_cg_cp_rs2_b4+0x24>
     830:	6050046f          	jal	x8,1634 <failedtest_x8_x7>
     834:	00000818          	.word	0x00000818
     838:	00004944          	.word	0x00004944
     83c:	00460613          	addi	x12,x12,4
  nop
  nop
#endif

# Testcase cp_rs2 (Test source rs2 = x5)
  RVTEST_TESTDATA_LOAD_INT(x26, x5) # load rs2: x5 = 0xdb1de6f3
     840:	000d2283          	lw	x5,0(x26)
     844:	004d0d13          	addi	x26,x26,4
  mv x1, x12 # move signature pointer register
     848:	00060093          	addi	x1,x12,0
  addi x1, x1, 295 # adjust base address for offset
     84c:	12708093          	addi	x1,x1,295

00000850 <I_sw_cg_cp_rs2_b5>:
I_sw_cg_cp_rs2_b5:
  sw x5, -295(x1) # perform store
     850:	ec50aca3          	sw	x5,-295(x1)
  addi x1, x1, -295 # restore base address
     854:	ed908093          	addi	x1,x1,-295
  addi x1, x1, SIG_STRIDE # increment signature pointer
     858:	00408093          	addi	x1,x1,4
#ifdef RVTEST_SELFCHECK
  LREG x14, -SIG_STRIDE(x1) # load stored value for checking
     85c:	ffc0a703          	lw	x14,-4(x1)
  # Check if x14 contains the expected result. x1 is the signature ptr, x8 is the link ptr, x7 is a temp reg.
  RVTEST_SIGUPD(x1, x8, x7, x14, I_sw_cg_cp_rs2_b5, I_sw_cg_cp_rs2_b5_str)
     860:	0000a383          	lw	x7,0(x1)
     864:	00e38863          	beq	x7,x14,874 <I_sw_cg_cp_rs2_b5+0x24>
     868:	5cd0046f          	jal	x8,1634 <failedtest_x8_x7>
     86c:	00000850          	.word	0x00000850
     870:	00004971          	.word	0x00004971
     874:	00408093          	addi	x1,x1,4
  nop
  nop
#endif

# Testcase cp_rs2 (Test source rs2 = x6)
  RVTEST_TESTDATA_LOAD_INT(x26, x6) # load rs2: x6 = 0xa8d66911
     878:	000d2303          	lw	x6,0(x26)
     87c:	004d0d13          	addi	x26,x26,4
  mv x11, x1 # move signature pointer register
     880:	00008593          	addi	x11,x1,0
  addi x11, x11, 644 # adjust base address for offset
     884:	28458593          	addi	x11,x11,644

00000888 <I_sw_cg_cp_rs2_b6>:
I_sw_cg_cp_rs2_b6:
  sw x6, -644(x11) # perform store
     888:	d665ae23          	sw	x6,-644(x11)
  addi x11, x11, -644 # restore base address
     88c:	d7c58593          	addi	x11,x11,-644
  addi x11, x11, SIG_STRIDE # increment signature pointer
     890:	00458593          	addi	x11,x11,4
#ifdef RVTEST_SELFCHECK
  LREG x14, -SIG_STRIDE(x11) # load stored value for checking
     894:	ffc5a703          	lw	x14,-4(x11)
  # Check if x14 contains the expected result. x11 is the signature ptr, x8 is the link ptr, x7 is a temp reg.
  RVTEST_SIGUPD(x11, x8, x7, x14, I_sw_cg_cp_rs2_b6, I_sw_cg_cp_rs2_b6_str)
     898:	0005a383          	lw	x7,0(x11)
     89c:	00e38863          	beq	x7,x14,8ac <I_sw_cg_cp_rs2_b6+0x24>
     8a0:	5950046f          	jal	x8,1634 <failedtest_x8_x7>
     8a4:	00000888          	.word	0x00000888
     8a8:	0000499e          	.word	0x0000499e
     8ac:	00458593          	addi	x11,x11,4
  nop
  nop
  nop
#endif

  mv x13, x7 # switch temp register to avoid conflict with test
     8b0:	00038693          	addi	x13,x7,0
  mv x14, x8 # switch link pointer register to avoid conflict with test
     8b4:	00040713          	addi	x14,x8,0
# Testcase cp_rs2 (Test source rs2 = x7)
  RVTEST_TESTDATA_LOAD_INT(x26, x7) # load rs2: x7 = 0xb9672434
     8b8:	000d2383          	lw	x7,0(x26)
     8bc:	004d0d13          	addi	x26,x26,4
  mv x1, x11 # move signature pointer register
     8c0:	00058093          	addi	x1,x11,0
  addi x1, x1, 106 # adjust base address for offset
     8c4:	06a08093          	addi	x1,x1,106

000008c8 <I_sw_cg_cp_rs2_b7>:
I_sw_cg_cp_rs2_b7:
  sw x7, -106(x1) # perform store
     8c8:	f870ab23          	sw	x7,-106(x1)
  addi x1, x1, -106 # restore base address
     8cc:	f9608093          	addi	x1,x1,-106
  addi x1, x1, SIG_STRIDE # increment signature pointer
     8d0:	00408093          	addi	x1,x1,4
#ifdef RVTEST_SELFCHECK
  LREG x24, -SIG_STRIDE(x1) # load stored value for checking
     8d4:	ffc0ac03          	lw	x24,-4(x1)
  # Check if x24 contains the expected result. x1 is the signature ptr, x14 is the link ptr, x13 is a temp reg.
  RVTEST_SIGUPD(x1, x14, x13, x24, I_sw_cg_cp_rs2_b7, I_sw_cg_cp_rs2_b7_str)
     8d8:	0000a683          	lw	x13,0(x1)
     8dc:	01868863          	beq	x13,x24,8ec <I_sw_cg_cp_rs2_b7+0x24>
     8e0:	57d0076f          	jal	x14,165c <failedtest_x14_x13>
     8e4:	000008c8          	.word	0x000008c8
     8e8:	000049cb          	.word	0x000049cb
     8ec:	00408093          	addi	x1,x1,4
  nop
  nop
#endif

# Testcase cp_rs2 (Test source rs2 = x8)
  RVTEST_TESTDATA_LOAD_INT(x26, x8) # load rs2: x8 = 0x2d7e476c
     8f0:	000d2403          	lw	x8,0(x26)
     8f4:	004d0d13          	addi	x26,x26,4
  mv x10, x1 # move signature pointer register
     8f8:	00008513          	addi	x10,x1,0
  addi x10, x10, 1535 # adjust base address for offset
     8fc:	5ff50513          	addi	x10,x10,1535

00000900 <I_sw_cg_cp_rs2_b8>:
I_sw_cg_cp_rs2_b8:
  sw x8, -1535(x10) # perform store
     900:	a08520a3          	sw	x8,-1535(x10)
  addi x10, x10, -1535 # restore base address
     904:	a0150513          	addi	x10,x10,-1535
  addi x10, x10, SIG_STRIDE # increment signature pointer
     908:	00450513          	addi	x10,x10,4
#ifdef RVTEST_SELFCHECK
  LREG x11, -SIG_STRIDE(x10) # load stored value for checking
     90c:	ffc52583          	lw	x11,-4(x10)
  # Check if x11 contains the expected result. x10 is the signature ptr, x14 is the link ptr, x13 is a temp reg.
  RVTEST_SIGUPD(x10, x14, x13, x11, I_sw_cg_cp_rs2_b8, I_sw_cg_cp_rs2_b8_str)
     910:	00052683          	lw	x13,0(x10)
     914:	00b68863          	beq	x13,x11,924 <I_sw_cg_cp_rs2_b8+0x24>
     918:	5450076f          	jal	x14,165c <failedtest_x14_x13>
     91c:	00000900          	.word	0x00000900
     920:	000049f8          	.word	0x000049f8
     924:	00450513          	addi	x10,x10,4
  nop
  nop
#endif

# Testcase cp_rs2 (Test source rs2 = x9)
  RVTEST_TESTDATA_LOAD_INT(x26, x9) # load rs2: x9 = 0xe68a3a54
     928:	000d2483          	lw	x9,0(x26)
     92c:	004d0d13          	addi	x26,x26,4
  mv x15, x10 # move signature pointer register
     930:	00050793          	addi	x15,x10,0
  addi x15, x15, 690 # adjust base address for offset
     934:	2b278793          	addi	x15,x15,690

00000938 <I_sw_cg_cp_rs2_b9>:
I_sw_cg_cp_rs2_b9:
  sw x9, -690(x15) # perform store
     938:	d497a723          	sw	x9,-690(x15)
  addi x15, x15, -690 # restore base address
     93c:	d4e78793          	addi	x15,x15,-690
  addi x15, x15, SIG_STRIDE # increment signature pointer
     940:	00478793          	addi	x15,x15,4
#ifdef RVTEST_SELFCHECK
  LREG x25, -SIG_STRIDE(x15) # load stored value for checking
     944:	ffc7ac83          	lw	x25,-4(x15)
  # Check if x25 contains the expected result. x15 is the signature ptr, x14 is the link ptr, x13 is a temp reg.
  RVTEST_SIGUPD(x15, x14, x13, x25, I_sw_cg_cp_rs2_b9, I_sw_cg_cp_rs2_b9_str)
     948:	0007a683          	lw	x13,0(x15)
     94c:	01968863          	beq	x13,x25,95c <I_sw_cg_cp_rs2_b9+0x24>
     950:	50d0076f          	jal	x14,165c <failedtest_x14_x13>
     954:	00000938          	.word	0x00000938
     958:	00004a25          	.word	0x00004a25
     95c:	00478793          	addi	x15,x15,4
  nop
  nop
#endif

# Testcase cp_rs2 (Test source rs2 = x10)
  RVTEST_TESTDATA_LOAD_INT(x26, x10) # load rs2: x10 = 0x9f944934
     960:	000d2503          	lw	x10,0(x26)
     964:	004d0d13          	addi	x26,x26,4
  mv x12, x15 # move signature pointer register
     968:	00078613          	addi	x12,x15,0
  addi x12, x12, -125 # adjust base address for offset
     96c:	f8360613          	addi	x12,x12,-125

00000970 <I_sw_cg_cp_rs2_b10>:
I_sw_cg_cp_rs2_b10:
  sw x10, 125(x12) # perform store
     970:	06a62ea3          	sw	x10,125(x12)
  addi x12, x12, 125 # restore base address
     974:	07d60613          	addi	x12,x12,125
  addi x12, x12, SIG_STRIDE # increment signature pointer
     978:	00460613          	addi	x12,x12,4
#ifdef RVTEST_SELFCHECK
  LREG x9, -SIG_STRIDE(x12) # load stored value for checking
     97c:	ffc62483          	lw	x9,-4(x12)
  # Check if x9 contains the expected result. x12 is the signature ptr, x14 is the link ptr, x13 is a temp reg.
  RVTEST_SIGUPD(x12, x14, x13, x9, I_sw_cg_cp_rs2_b10, I_sw_cg_cp_rs2_b10_str)
     980:	00062683          	lw	x13,0(x12)
     984:	00968863          	beq	x13,x9,994 <I_sw_cg_cp_rs2_b10+0x24>
     988:	4d50076f          	jal	x14,165c <failedtest_x14_x13>
     98c:	00000970          	.word	0x00000970
     990:	00004a52          	.word	0x00004a52
     994:	00460613          	addi	x12,x12,4
  nop
  nop
#endif

# Testcase cp_rs2 (Test source rs2 = x11)
  RVTEST_TESTDATA_LOAD_INT(x26, x11) # load rs2: x11 = 0xbda8cd77
     998:	000d2583          	lw	x11,0(x26)
     99c:	004d0d13          	addi	x26,x26,4
  mv x4, x12 # move signature pointer register
     9a0:	00060213          	addi	x4,x12,0
  addi x4, x4, 1374 # adjust base address for offset
     9a4:	55e20213          	addi	x4,x4,1374 # 55e <I_sw_cg_cp_rs1_nx0_b23+0x26>

000009a8 <I_sw_cg_cp_rs2_b11>:
I_sw_cg_cp_rs2_b11:
  sw x11, -1374(x4) # perform store
     9a8:	aab22123          	sw	x11,-1374(x4) # fffffaa2 <absimm+0x90a35799>
  addi x4, x4, -1374 # restore base address
     9ac:	aa220213          	addi	x4,x4,-1374 # fffffaa2 <absimm+0x90a35799>
  addi x4, x4, SIG_STRIDE # increment signature pointer
     9b0:	00420213          	addi	x4,x4,4 # 4 <MMODE_SIG+0x1>
#ifdef RVTEST_SELFCHECK
  LREG x20, -SIG_STRIDE(x4) # load stored value for checking
     9b4:	ffc22a03          	lw	x20,-4(x4) # fffffffc <absimm+0x90a35cf3>
  # Check if x20 contains the expected result. x4 is the signature ptr, x14 is the link ptr, x13 is a temp reg.
  RVTEST_SIGUPD(x4, x14, x13, x20, I_sw_cg_cp_rs2_b11, I_sw_cg_cp_rs2_b11_str)
     9b8:	00022683          	lw	x13,0(x4) # 0 <rvtest_entry_point>
     9bc:	01468863          	beq	x13,x20,9cc <I_sw_cg_cp_rs2_b11+0x24>
     9c0:	49d0076f          	jal	x14,165c <failedtest_x14_x13>
     9c4:	000009a8          	.word	0x000009a8
     9c8:	00004a80          	.word	0x00004a80
     9cc:	00420213          	addi	x4,x4,4 # 4 <MMODE_SIG+0x1>
  nop
  nop
#endif

# Testcase cp_rs2 (Test source rs2 = x12)
  RVTEST_TESTDATA_LOAD_INT(x26, x12) # load rs2: x12 = 0x959ea0fa
     9d0:	000d2603          	lw	x12,0(x26)
     9d4:	004d0d13          	addi	x26,x26,4
  mv x7, x4 # move signature pointer register
     9d8:	00020393          	addi	x7,x4,0 # 0 <rvtest_entry_point>
  addi x7, x7, 812 # adjust base address for offset
     9dc:	32c38393          	addi	x7,x7,812

000009e0 <I_sw_cg_cp_rs2_b12>:
I_sw_cg_cp_rs2_b12:
  sw x12, -812(x7) # perform store
     9e0:	ccc3aa23          	sw	x12,-812(x7)
  addi x7, x7, -812 # restore base address
     9e4:	cd438393          	addi	x7,x7,-812
  addi x7, x7, SIG_STRIDE # increment signature pointer
     9e8:	00438393          	addi	x7,x7,4
#ifdef RVTEST_SELFCHECK
  LREG x27, -SIG_STRIDE(x7) # load stored value for checking
     9ec:	ffc3ad83          	lw	x27,-4(x7)
  # Check if x27 contains the expected result. x7 is the signature ptr, x14 is the link ptr, x13 is a temp reg.
  RVTEST_SIGUPD(x7, x14, x13, x27, I_sw_cg_cp_rs2_b12, I_sw_cg_cp_rs2_b12_str)
     9f0:	0003a683          	lw	x13,0(x7)
     9f4:	01b68863          	beq	x13,x27,a04 <I_sw_cg_cp_rs2_b12+0x24>
     9f8:	4650076f          	jal	x14,165c <failedtest_x14_x13>
     9fc:	000009e0          	.word	0x000009e0
     a00:	00004aae          	.word	0x00004aae
     a04:	00438393          	addi	x7,x7,4
  nop
  nop
  nop
#endif

  mv x4, x13 # switch temp register to avoid conflict with test
     a08:	00068213          	addi	x4,x13,0
  mv x5, x14 # switch link pointer register to avoid conflict with test
     a0c:	00070293          	addi	x5,x14,0
# Testcase cp_rs2 (Test source rs2 = x13)
  RVTEST_TESTDATA_LOAD_INT(x26, x13) # load rs2: x13 = 0x224b86ed
     a10:	000d2683          	lw	x13,0(x26)
     a14:	004d0d13          	addi	x26,x26,4
  mv x14, x7 # move signature pointer register
     a18:	00038713          	addi	x14,x7,0
  addi x14, x14, -559 # adjust base address for offset
     a1c:	dd170713          	addi	x14,x14,-559

00000a20 <I_sw_cg_cp_rs2_b13>:
I_sw_cg_cp_rs2_b13:
  sw x13, 559(x14) # perform store
     a20:	22d727a3          	sw	x13,559(x14)
  addi x14, x14, 559 # restore base address
     a24:	22f70713          	addi	x14,x14,559
  addi x14, x14, SIG_STRIDE # increment signature pointer
     a28:	00470713          	addi	x14,x14,4
#ifdef RVTEST_SELFCHECK
  LREG x30, -SIG_STRIDE(x14) # load stored value for checking
     a2c:	ffc72f03          	lw	x30,-4(x14)
  # Check if x30 contains the expected result. x14 is the signature ptr, x5 is the link ptr, x4 is a temp reg.
  RVTEST_SIGUPD(x14, x5, x4, x30, I_sw_cg_cp_rs2_b13, I_sw_cg_cp_rs2_b13_str)
     a30:	00072203          	lw	x4,0(x14)
     a34:	01e20863          	beq	x4,x30,a44 <I_sw_cg_cp_rs2_b13+0x24>
     a38:	3e5002ef          	jal	x5,161c <failedtest_x5_x4>
     a3c:	00000a20          	.word	0x00000a20
     a40:	00004adc          	.word	0x00004adc
     a44:	00470713          	addi	x14,x14,4
  nop
  nop
  nop
#endif

  mv x10, x14 # switch signature pointer register to avoid conflict with test
     a48:	00070513          	addi	x10,x14,0
# Testcase cp_rs2 (Test source rs2 = x14)
  RVTEST_TESTDATA_LOAD_INT(x26, x14) # load rs2: x14 = 0x44863222
     a4c:	000d2703          	lw	x14,0(x26)
     a50:	004d0d13          	addi	x26,x26,4
  mv x11, x10 # move signature pointer register
     a54:	00050593          	addi	x11,x10,0
  addi x11, x11, 689 # adjust base address for offset
     a58:	2b158593          	addi	x11,x11,689

00000a5c <I_sw_cg_cp_rs2_b14>:
I_sw_cg_cp_rs2_b14:
  sw x14, -689(x11) # perform store
     a5c:	d4e5a7a3          	sw	x14,-689(x11)
  addi x11, x11, -689 # restore base address
     a60:	d4f58593          	addi	x11,x11,-689
  addi x11, x11, SIG_STRIDE # increment signature pointer
     a64:	00458593          	addi	x11,x11,4
#ifdef RVTEST_SELFCHECK
  LREG x22, -SIG_STRIDE(x11) # load stored value for checking
     a68:	ffc5ab03          	lw	x22,-4(x11)
  # Check if x22 contains the expected result. x11 is the signature ptr, x5 is the link ptr, x4 is a temp reg.
  RVTEST_SIGUPD(x11, x5, x4, x22, I_sw_cg_cp_rs2_b14, I_sw_cg_cp_rs2_b14_str)
     a6c:	0005a203          	lw	x4,0(x11)
     a70:	01620863          	beq	x4,x22,a80 <I_sw_cg_cp_rs2_b14+0x24>
     a74:	3a9002ef          	jal	x5,161c <failedtest_x5_x4>
     a78:	00000a5c          	.word	0x00000a5c
     a7c:	00004b0a          	.word	0x00004b0a
     a80:	00458593          	addi	x11,x11,4
  nop
  nop
#endif

# Testcase cp_rs2 (Test source rs2 = x15)
  RVTEST_TESTDATA_LOAD_INT(x26, x15) # load rs2: x15 = 0x39a1a647
     a84:	000d2783          	lw	x15,0(x26)
     a88:	004d0d13          	addi	x26,x26,4
  mv x2, x11 # move signature pointer register
     a8c:	00058113          	addi	x2,x11,0
  addi x2, x2, -1211 # adjust base address for offset
     a90:	b4510113          	addi	x2,x2,-1211

00000a94 <I_sw_cg_cp_rs2_b15>:
I_sw_cg_cp_rs2_b15:
  sw x15, 1211(x2) # perform store
     a94:	4af12da3          	sw	x15,1211(x2)
  addi x2, x2, 1211 # restore base address
     a98:	4bb10113          	addi	x2,x2,1211
  addi x2, x2, SIG_STRIDE # increment signature pointer
     a9c:	00410113          	addi	x2,x2,4
#ifdef RVTEST_SELFCHECK
  LREG x6, -SIG_STRIDE(x2) # load stored value for checking
     aa0:	ffc12303          	lw	x6,-4(x2)
  # Check if x6 contains the expected result. x2 is the signature ptr, x5 is the link ptr, x4 is a temp reg.
  RVTEST_SIGUPD(x2, x5, x4, x6, I_sw_cg_cp_rs2_b15, I_sw_cg_cp_rs2_b15_str)
     aa4:	00012203          	lw	x4,0(x2)
     aa8:	00620863          	beq	x4,x6,ab8 <I_sw_cg_cp_rs2_b15+0x24>
     aac:	371002ef          	jal	x5,161c <failedtest_x5_x4>
     ab0:	00000a94          	.word	0x00000a94
     ab4:	00004b38          	.word	0x00004b38
     ab8:	00410113          	addi	x2,x2,4
  nop
  nop
#endif

# Testcase cp_rs2 (Test source rs2 = x16)
  RVTEST_TESTDATA_LOAD_INT(x26, x16) # load rs2: x16 = 0x8ba01616
     abc:	000d2803          	lw	x16,0(x26)
     ac0:	004d0d13          	addi	x26,x26,4
  mv x29, x2 # move signature pointer register
     ac4:	00010e93          	addi	x29,x2,0
  addi x29, x29, -676 # adjust base address for offset
     ac8:	d5ce8e93          	addi	x29,x29,-676

00000acc <I_sw_cg_cp_rs2_b16>:
I_sw_cg_cp_rs2_b16:
  sw x16, 676(x29) # perform store
     acc:	2b0ea223          	sw	x16,676(x29)
  addi x29, x29, 676 # restore base address
     ad0:	2a4e8e93          	addi	x29,x29,676
  addi x29, x29, SIG_STRIDE # increment signature pointer
     ad4:	004e8e93          	addi	x29,x29,4
#ifdef RVTEST_SELFCHECK
  LREG x11, -SIG_STRIDE(x29) # load stored value for checking
     ad8:	ffcea583          	lw	x11,-4(x29)
  # Check if x11 contains the expected result. x29 is the signature ptr, x5 is the link ptr, x4 is a temp reg.
  RVTEST_SIGUPD(x29, x5, x4, x11, I_sw_cg_cp_rs2_b16, I_sw_cg_cp_rs2_b16_str)
     adc:	000ea203          	lw	x4,0(x29)
     ae0:	00b20863          	beq	x4,x11,af0 <I_sw_cg_cp_rs2_b16+0x24>
     ae4:	339002ef          	jal	x5,161c <failedtest_x5_x4>
     ae8:	00000acc          	.word	0x00000acc
     aec:	00004b66          	.word	0x00004b66
     af0:	004e8e93          	addi	x29,x29,4
  nop
  nop
#endif

# Testcase cp_rs2 (Test source rs2 = x17)
  RVTEST_TESTDATA_LOAD_INT(x26, x17) # load rs2: x17 = 0x32157a98
     af4:	000d2883          	lw	x17,0(x26)
     af8:	004d0d13          	addi	x26,x26,4
  mv x20, x29 # move signature pointer register
     afc:	000e8a13          	addi	x20,x29,0
  addi x20, x20, -532 # adjust base address for offset
     b00:	deca0a13          	addi	x20,x20,-532

00000b04 <I_sw_cg_cp_rs2_b17>:
I_sw_cg_cp_rs2_b17:
  sw x17, 532(x20) # perform store
     b04:	211a2a23          	sw	x17,532(x20)
  addi x20, x20, 532 # restore base address
     b08:	214a0a13          	addi	x20,x20,532
  addi x20, x20, SIG_STRIDE # increment signature pointer
     b0c:	004a0a13          	addi	x20,x20,4
#ifdef RVTEST_SELFCHECK
  LREG x23, -SIG_STRIDE(x20) # load stored value for checking
     b10:	ffca2b83          	lw	x23,-4(x20)
  # Check if x23 contains the expected result. x20 is the signature ptr, x5 is the link ptr, x4 is a temp reg.
  RVTEST_SIGUPD(x20, x5, x4, x23, I_sw_cg_cp_rs2_b17, I_sw_cg_cp_rs2_b17_str)
     b14:	000a2203          	lw	x4,0(x20)
     b18:	01720863          	beq	x4,x23,b28 <I_sw_cg_cp_rs2_b17+0x24>
     b1c:	301002ef          	jal	x5,161c <failedtest_x5_x4>
     b20:	00000b04          	.word	0x00000b04
     b24:	00004b94          	.word	0x00004b94
     b28:	004a0a13          	addi	x20,x20,4
  nop
  nop
#endif

# Testcase cp_rs2 (Test source rs2 = x18)
  RVTEST_TESTDATA_LOAD_INT(x26, x18) # load rs2: x18 = 0x9593d54c
     b2c:	000d2903          	lw	x18,0(x26)
     b30:	004d0d13          	addi	x26,x26,4
  mv x7, x20 # move signature pointer register
     b34:	000a0393          	addi	x7,x20,0
  addi x7, x7, -550 # adjust base address for offset
     b38:	dda38393          	addi	x7,x7,-550

00000b3c <I_sw_cg_cp_rs2_b18>:
I_sw_cg_cp_rs2_b18:
  sw x18, 550(x7) # perform store
     b3c:	2323a323          	sw	x18,550(x7)
  addi x7, x7, 550 # restore base address
     b40:	22638393          	addi	x7,x7,550
  addi x7, x7, SIG_STRIDE # increment signature pointer
     b44:	00438393          	addi	x7,x7,4
#ifdef RVTEST_SELFCHECK
  LREG x28, -SIG_STRIDE(x7) # load stored value for checking
     b48:	ffc3ae03          	lw	x28,-4(x7)
  # Check if x28 contains the expected result. x7 is the signature ptr, x5 is the link ptr, x4 is a temp reg.
  RVTEST_SIGUPD(x7, x5, x4, x28, I_sw_cg_cp_rs2_b18, I_sw_cg_cp_rs2_b18_str)
     b4c:	0003a203          	lw	x4,0(x7)
     b50:	01c20863          	beq	x4,x28,b60 <I_sw_cg_cp_rs2_b18+0x24>
     b54:	2c9002ef          	jal	x5,161c <failedtest_x5_x4>
     b58:	00000b3c          	.word	0x00000b3c
     b5c:	00004bc2          	.word	0x00004bc2
     b60:	00438393          	addi	x7,x7,4
  nop
  nop
#endif

# Testcase cp_rs2 (Test source rs2 = x19)
  RVTEST_TESTDATA_LOAD_INT(x26, x19) # load rs2: x19 = 0x3928116d
     b64:	000d2983          	lw	x19,0(x26)
     b68:	004d0d13          	addi	x26,x26,4
  mv x29, x7 # move signature pointer register
     b6c:	00038e93          	addi	x29,x7,0
  addi x29, x29, -1863 # adjust base address for offset
     b70:	8b9e8e93          	addi	x29,x29,-1863

00000b74 <I_sw_cg_cp_rs2_b19>:
I_sw_cg_cp_rs2_b19:
  sw x19, 1863(x29) # perform store
     b74:	753ea3a3          	sw	x19,1863(x29)
  addi x29, x29, 1863 # restore base address
     b78:	747e8e93          	addi	x29,x29,1863
  addi x29, x29, SIG_STRIDE # increment signature pointer
     b7c:	004e8e93          	addi	x29,x29,4
#ifdef RVTEST_SELFCHECK
  LREG x24, -SIG_STRIDE(x29) # load stored value for checking
     b80:	ffceac03          	lw	x24,-4(x29)
  # Check if x24 contains the expected result. x29 is the signature ptr, x5 is the link ptr, x4 is a temp reg.
  RVTEST_SIGUPD(x29, x5, x4, x24, I_sw_cg_cp_rs2_b19, I_sw_cg_cp_rs2_b19_str)
     b84:	000ea203          	lw	x4,0(x29)
     b88:	01820863          	beq	x4,x24,b98 <I_sw_cg_cp_rs2_b19+0x24>
     b8c:	291002ef          	jal	x5,161c <failedtest_x5_x4>
     b90:	00000b74          	.word	0x00000b74
     b94:	00004bf0          	.word	0x00004bf0
     b98:	004e8e93          	addi	x29,x29,4
  nop
  nop
#endif

# Testcase cp_rs2 (Test source rs2 = x20)
  RVTEST_TESTDATA_LOAD_INT(x26, x20) # load rs2: x20 = 0xdde73b94
     b9c:	000d2a03          	lw	x20,0(x26)
     ba0:	004d0d13          	addi	x26,x26,4
  mv x11, x29 # move signature pointer register
     ba4:	000e8593          	addi	x11,x29,0
  addi x11, x11, 608 # adjust base address for offset
     ba8:	26058593          	addi	x11,x11,608

00000bac <I_sw_cg_cp_rs2_b20>:
I_sw_cg_cp_rs2_b20:
  sw x20, -608(x11) # perform store
     bac:	db45a023          	sw	x20,-608(x11)
  addi x11, x11, -608 # restore base address
     bb0:	da058593          	addi	x11,x11,-608
  addi x11, x11, SIG_STRIDE # increment signature pointer
     bb4:	00458593          	addi	x11,x11,4
#ifdef RVTEST_SELFCHECK
  LREG x23, -SIG_STRIDE(x11) # load stored value for checking
     bb8:	ffc5ab83          	lw	x23,-4(x11)
  # Check if x23 contains the expected result. x11 is the signature ptr, x5 is the link ptr, x4 is a temp reg.
  RVTEST_SIGUPD(x11, x5, x4, x23, I_sw_cg_cp_rs2_b20, I_sw_cg_cp_rs2_b20_str)
     bbc:	0005a203          	lw	x4,0(x11)
     bc0:	01720863          	beq	x4,x23,bd0 <I_sw_cg_cp_rs2_b20+0x24>
     bc4:	259002ef          	jal	x5,161c <failedtest_x5_x4>
     bc8:	00000bac          	.word	0x00000bac
     bcc:	00004c1e          	.word	0x00004c1e
     bd0:	00458593          	addi	x11,x11,4
  nop
  nop
#endif

# Testcase cp_rs2 (Test source rs2 = x21)
  RVTEST_TESTDATA_LOAD_INT(x26, x21) # load rs2: x21 = 0x0655fb09
     bd4:	000d2a83          	lw	x21,0(x26)
     bd8:	004d0d13          	addi	x26,x26,4
  mv x24, x11 # move signature pointer register
     bdc:	00058c13          	addi	x24,x11,0
  addi x24, x24, -345 # adjust base address for offset
     be0:	ea7c0c13          	addi	x24,x24,-345

00000be4 <I_sw_cg_cp_rs2_b21>:
I_sw_cg_cp_rs2_b21:
  sw x21, 345(x24) # perform store
     be4:	155c2ca3          	sw	x21,345(x24)
  addi x24, x24, 345 # restore base address
     be8:	159c0c13          	addi	x24,x24,345
  addi x24, x24, SIG_STRIDE # increment signature pointer
     bec:	004c0c13          	addi	x24,x24,4
#ifdef RVTEST_SELFCHECK
  LREG x18, -SIG_STRIDE(x24) # load stored value for checking
     bf0:	ffcc2903          	lw	x18,-4(x24)
  # Check if x18 contains the expected result. x24 is the signature ptr, x5 is the link ptr, x4 is a temp reg.
  RVTEST_SIGUPD(x24, x5, x4, x18, I_sw_cg_cp_rs2_b21, I_sw_cg_cp_rs2_b21_str)
     bf4:	000c2203          	lw	x4,0(x24)
     bf8:	01220863          	beq	x4,x18,c08 <I_sw_cg_cp_rs2_b21+0x24>
     bfc:	221002ef          	jal	x5,161c <failedtest_x5_x4>
     c00:	00000be4          	.word	0x00000be4
     c04:	00004c4c          	.word	0x00004c4c
     c08:	004c0c13          	addi	x24,x24,4
  nop
  nop
#endif

# Testcase cp_rs2 (Test source rs2 = x22)
  RVTEST_TESTDATA_LOAD_INT(x26, x22) # load rs2: x22 = 0x2b2d67c8
     c0c:	000d2b03          	lw	x22,0(x26)
     c10:	004d0d13          	addi	x26,x26,4
  mv x17, x24 # move signature pointer register
     c14:	000c0893          	addi	x17,x24,0
  addi x17, x17, -956 # adjust base address for offset
     c18:	c4488893          	addi	x17,x17,-956

00000c1c <I_sw_cg_cp_rs2_b22>:
I_sw_cg_cp_rs2_b22:
  sw x22, 956(x17) # perform store
     c1c:	3b68ae23          	sw	x22,956(x17)
  addi x17, x17, 956 # restore base address
     c20:	3bc88893          	addi	x17,x17,956
  addi x17, x17, SIG_STRIDE # increment signature pointer
     c24:	00488893          	addi	x17,x17,4
#ifdef RVTEST_SELFCHECK
  LREG x27, -SIG_STRIDE(x17) # load stored value for checking
     c28:	ffc8ad83          	lw	x27,-4(x17)
  # Check if x27 contains the expected result. x17 is the signature ptr, x5 is the link ptr, x4 is a temp reg.
  RVTEST_SIGUPD(x17, x5, x4, x27, I_sw_cg_cp_rs2_b22, I_sw_cg_cp_rs2_b22_str)
     c2c:	0008a203          	lw	x4,0(x17)
     c30:	01b20863          	beq	x4,x27,c40 <I_sw_cg_cp_rs2_b22+0x24>
     c34:	1e9002ef          	jal	x5,161c <failedtest_x5_x4>
     c38:	00000c1c          	.word	0x00000c1c
     c3c:	00004c7a          	.word	0x00004c7a
     c40:	00488893          	addi	x17,x17,4
  nop
  nop
#endif

# Testcase cp_rs2 (Test source rs2 = x23)
  RVTEST_TESTDATA_LOAD_INT(x26, x23) # load rs2: x23 = 0x5a114ff0
     c44:	000d2b83          	lw	x23,0(x26)
     c48:	004d0d13          	addi	x26,x26,4
  mv x24, x17 # move signature pointer register
     c4c:	00088c13          	addi	x24,x17,0
  addi x24, x24, 1079 # adjust base address for offset
     c50:	437c0c13          	addi	x24,x24,1079

00000c54 <I_sw_cg_cp_rs2_b23>:
I_sw_cg_cp_rs2_b23:
  sw x23, -1079(x24) # perform store
     c54:	bd7c24a3          	sw	x23,-1079(x24)
  addi x24, x24, -1079 # restore base address
     c58:	bc9c0c13          	addi	x24,x24,-1079
  addi x24, x24, SIG_STRIDE # increment signature pointer
     c5c:	004c0c13          	addi	x24,x24,4
#ifdef RVTEST_SELFCHECK
  LREG x25, -SIG_STRIDE(x24) # load stored value for checking
     c60:	ffcc2c83          	lw	x25,-4(x24)
  # Check if x25 contains the expected result. x24 is the signature ptr, x5 is the link ptr, x4 is a temp reg.
  RVTEST_SIGUPD(x24, x5, x4, x25, I_sw_cg_cp_rs2_b23, I_sw_cg_cp_rs2_b23_str)
     c64:	000c2203          	lw	x4,0(x24)
     c68:	01920863          	beq	x4,x25,c78 <I_sw_cg_cp_rs2_b23+0x24>
     c6c:	1b1002ef          	jal	x5,161c <failedtest_x5_x4>
     c70:	00000c54          	.word	0x00000c54
     c74:	00004ca8          	.word	0x00004ca8
     c78:	004c0c13          	addi	x24,x24,4
  nop
  nop
  nop
#endif

  mv x18, x24 # switch signature pointer register to avoid conflict with test
     c7c:	000c0913          	addi	x18,x24,0
# Testcase cp_rs2 (Test source rs2 = x24)
  RVTEST_TESTDATA_LOAD_INT(x26, x24) # load rs2: x24 = 0x6a5f39e9
     c80:	000d2c03          	lw	x24,0(x26)
     c84:	004d0d13          	addi	x26,x26,4
  mv x21, x18 # move signature pointer register
     c88:	00090a93          	addi	x21,x18,0
  addi x21, x21, 1403 # adjust base address for offset
     c8c:	57ba8a93          	addi	x21,x21,1403

00000c90 <I_sw_cg_cp_rs2_b24>:
I_sw_cg_cp_rs2_b24:
  sw x24, -1403(x21) # perform store
     c90:	a98aa2a3          	sw	x24,-1403(x21)
  addi x21, x21, -1403 # restore base address
     c94:	a85a8a93          	addi	x21,x21,-1403
  addi x21, x21, SIG_STRIDE # increment signature pointer
     c98:	004a8a93          	addi	x21,x21,4
#ifdef RVTEST_SELFCHECK
  LREG x7, -SIG_STRIDE(x21) # load stored value for checking
     c9c:	ffcaa383          	lw	x7,-4(x21)
  # Check if x7 contains the expected result. x21 is the signature ptr, x5 is the link ptr, x4 is a temp reg.
  RVTEST_SIGUPD(x21, x5, x4, x7, I_sw_cg_cp_rs2_b24, I_sw_cg_cp_rs2_b24_str)
     ca0:	000aa203          	lw	x4,0(x21)
     ca4:	00720863          	beq	x4,x7,cb4 <I_sw_cg_cp_rs2_b24+0x24>
     ca8:	175002ef          	jal	x5,161c <failedtest_x5_x4>
     cac:	00000c90          	.word	0x00000c90
     cb0:	00004cd6          	.word	0x00004cd6
     cb4:	004a8a93          	addi	x21,x21,4
  nop
  nop
#endif

# Testcase cp_rs2 (Test source rs2 = x25)
  RVTEST_TESTDATA_LOAD_INT(x26, x25) # load rs2: x25 = 0x8fd2c24d
     cb8:	000d2c83          	lw	x25,0(x26)
     cbc:	004d0d13          	addi	x26,x26,4
  mv x6, x21 # move signature pointer register
     cc0:	000a8313          	addi	x6,x21,0
  addi x6, x6, 766 # adjust base address for offset
     cc4:	2fe30313          	addi	x6,x6,766

00000cc8 <I_sw_cg_cp_rs2_b25>:
I_sw_cg_cp_rs2_b25:
  sw x25, -766(x6) # perform store
     cc8:	d1932123          	sw	x25,-766(x6)
  addi x6, x6, -766 # restore base address
     ccc:	d0230313          	addi	x6,x6,-766
  addi x6, x6, SIG_STRIDE # increment signature pointer
     cd0:	00430313          	addi	x6,x6,4
#ifdef RVTEST_SELFCHECK
  LREG x9, -SIG_STRIDE(x6) # load stored value for checking
     cd4:	ffc32483          	lw	x9,-4(x6)
  # Check if x9 contains the expected result. x6 is the signature ptr, x5 is the link ptr, x4 is a temp reg.
  RVTEST_SIGUPD(x6, x5, x4, x9, I_sw_cg_cp_rs2_b25, I_sw_cg_cp_rs2_b25_str)
     cd8:	00032203          	lw	x4,0(x6)
     cdc:	00920863          	beq	x4,x9,cec <I_sw_cg_cp_rs2_b25+0x24>
     ce0:	13d002ef          	jal	x5,161c <failedtest_x5_x4>
     ce4:	00000cc8          	.word	0x00000cc8
     ce8:	00004d04          	.word	0x00004d04
     cec:	00430313          	addi	x6,x6,4
  nop
  nop
  nop
#endif

  mv x1, x26 # switch data pointer register to avoid conflict with test
     cf0:	000d0093          	addi	x1,x26,0
# Testcase cp_rs2 (Test source rs2 = x26)
  RVTEST_TESTDATA_LOAD_INT(x1, x26) # load rs2: x26 = 0xb266b8b7
     cf4:	0000ad03          	lw	x26,0(x1)
     cf8:	00408093          	addi	x1,x1,4
  mv x28, x6 # move signature pointer register
     cfc:	00030e13          	addi	x28,x6,0
  addi x28, x28, -1946 # adjust base address for offset
     d00:	866e0e13          	addi	x28,x28,-1946

00000d04 <I_sw_cg_cp_rs2_b26>:
I_sw_cg_cp_rs2_b26:
  sw x26, 1946(x28) # perform store
     d04:	79ae2d23          	sw	x26,1946(x28)
  addi x28, x28, 1946 # restore base address
     d08:	79ae0e13          	addi	x28,x28,1946
  addi x28, x28, SIG_STRIDE # increment signature pointer
     d0c:	004e0e13          	addi	x28,x28,4
#ifdef RVTEST_SELFCHECK
  LREG x8, -SIG_STRIDE(x28) # load stored value for checking
     d10:	ffce2403          	lw	x8,-4(x28)
  # Check if x8 contains the expected result. x28 is the signature ptr, x5 is the link ptr, x4 is a temp reg.
  RVTEST_SIGUPD(x28, x5, x4, x8, I_sw_cg_cp_rs2_b26, I_sw_cg_cp_rs2_b26_str)
     d14:	000e2203          	lw	x4,0(x28)
     d18:	00820863          	beq	x4,x8,d28 <I_sw_cg_cp_rs2_b26+0x24>
     d1c:	101002ef          	jal	x5,161c <failedtest_x5_x4>
     d20:	00000d04          	.word	0x00000d04
     d24:	00004d32          	.word	0x00004d32
     d28:	004e0e13          	addi	x28,x28,4
  nop
  nop
#endif

# Testcase cp_rs2 (Test source rs2 = x27)
  RVTEST_TESTDATA_LOAD_INT(x1, x27) # load rs2: x27 = 0x204d0187
     d2c:	0000ad83          	lw	x27,0(x1)
     d30:	00408093          	addi	x1,x1,4
  mv x24, x28 # move signature pointer register
     d34:	000e0c13          	addi	x24,x28,0
  addi x24, x24, -494 # adjust base address for offset
     d38:	e12c0c13          	addi	x24,x24,-494

00000d3c <I_sw_cg_cp_rs2_b27>:
I_sw_cg_cp_rs2_b27:
  sw x27, 494(x24) # perform store
     d3c:	1fbc2723          	sw	x27,494(x24)
  addi x24, x24, 494 # restore base address
     d40:	1eec0c13          	addi	x24,x24,494
  addi x24, x24, SIG_STRIDE # increment signature pointer
     d44:	004c0c13          	addi	x24,x24,4
#ifdef RVTEST_SELFCHECK
  LREG x16, -SIG_STRIDE(x24) # load stored value for checking
     d48:	ffcc2803          	lw	x16,-4(x24)
  # Check if x16 contains the expected result. x24 is the signature ptr, x5 is the link ptr, x4 is a temp reg.
  RVTEST_SIGUPD(x24, x5, x4, x16, I_sw_cg_cp_rs2_b27, I_sw_cg_cp_rs2_b27_str)
     d4c:	000c2203          	lw	x4,0(x24)
     d50:	01020863          	beq	x4,x16,d60 <I_sw_cg_cp_rs2_b27+0x24>
     d54:	0c9002ef          	jal	x5,161c <failedtest_x5_x4>
     d58:	00000d3c          	.word	0x00000d3c
     d5c:	00004d60          	.word	0x00004d60
     d60:	004c0c13          	addi	x24,x24,4
  nop
  nop
#endif

# Testcase cp_rs2 (Test source rs2 = x28)
  RVTEST_TESTDATA_LOAD_INT(x1, x28) # load rs2: x28 = 0x20e059d2
     d64:	0000ae03          	lw	x28,0(x1)
     d68:	00408093          	addi	x1,x1,4
  mv x25, x24 # move signature pointer register
     d6c:	000c0c93          	addi	x25,x24,0
  addi x25, x25, 1844 # adjust base address for offset
     d70:	734c8c93          	addi	x25,x25,1844

00000d74 <I_sw_cg_cp_rs2_b28>:
I_sw_cg_cp_rs2_b28:
  sw x28, -1844(x25) # perform store
     d74:	8dcca623          	sw	x28,-1844(x25)
  addi x25, x25, -1844 # restore base address
     d78:	8ccc8c93          	addi	x25,x25,-1844
  addi x25, x25, SIG_STRIDE # increment signature pointer
     d7c:	004c8c93          	addi	x25,x25,4
#ifdef RVTEST_SELFCHECK
  LREG x20, -SIG_STRIDE(x25) # load stored value for checking
     d80:	ffccaa03          	lw	x20,-4(x25)
  # Check if x20 contains the expected result. x25 is the signature ptr, x5 is the link ptr, x4 is a temp reg.
  RVTEST_SIGUPD(x25, x5, x4, x20, I_sw_cg_cp_rs2_b28, I_sw_cg_cp_rs2_b28_str)
     d84:	000ca203          	lw	x4,0(x25)
     d88:	01420863          	beq	x4,x20,d98 <I_sw_cg_cp_rs2_b28+0x24>
     d8c:	091002ef          	jal	x5,161c <failedtest_x5_x4>
     d90:	00000d74          	.word	0x00000d74
     d94:	00004d8e          	.word	0x00004d8e
     d98:	004c8c93          	addi	x25,x25,4
  nop
  nop
#endif

# Testcase cp_rs2 (Test source rs2 = x29)
  RVTEST_TESTDATA_LOAD_INT(x1, x29) # load rs2: x29 = 0x9cefdde0
     d9c:	0000ae83          	lw	x29,0(x1)
     da0:	00408093          	addi	x1,x1,4
  mv x24, x25 # move signature pointer register
     da4:	000c8c13          	addi	x24,x25,0
  addi x24, x24, -157 # adjust base address for offset
     da8:	f63c0c13          	addi	x24,x24,-157

00000dac <I_sw_cg_cp_rs2_b29>:
I_sw_cg_cp_rs2_b29:
  sw x29, 157(x24) # perform store
     dac:	09dc2ea3          	sw	x29,157(x24)
  addi x24, x24, 157 # restore base address
     db0:	09dc0c13          	addi	x24,x24,157
  addi x24, x24, SIG_STRIDE # increment signature pointer
     db4:	004c0c13          	addi	x24,x24,4
#ifdef RVTEST_SELFCHECK
  LREG x30, -SIG_STRIDE(x24) # load stored value for checking
     db8:	ffcc2f03          	lw	x30,-4(x24)
  # Check if x30 contains the expected result. x24 is the signature ptr, x5 is the link ptr, x4 is a temp reg.
  RVTEST_SIGUPD(x24, x5, x4, x30, I_sw_cg_cp_rs2_b29, I_sw_cg_cp_rs2_b29_str)
     dbc:	000c2203          	lw	x4,0(x24)
     dc0:	01e20863          	beq	x4,x30,dd0 <I_sw_cg_cp_rs2_b29+0x24>
     dc4:	059002ef          	jal	x5,161c <failedtest_x5_x4>
     dc8:	00000dac          	.word	0x00000dac
     dcc:	00004dbc          	.word	0x00004dbc
     dd0:	004c0c13          	addi	x24,x24,4
  nop
  nop
#endif

# Testcase cp_rs2 (Test source rs2 = x30)
  RVTEST_TESTDATA_LOAD_INT(x1, x30) # load rs2: x30 = 0xe2d6837d
     dd4:	0000af03          	lw	x30,0(x1)
     dd8:	00408093          	addi	x1,x1,4
  mv x25, x24 # move signature pointer register
     ddc:	000c0c93          	addi	x25,x24,0
  addi x25, x25, 531 # adjust base address for offset
     de0:	213c8c93          	addi	x25,x25,531

00000de4 <I_sw_cg_cp_rs2_b30>:
I_sw_cg_cp_rs2_b30:
  sw x30, -531(x25) # perform store
     de4:	dfeca6a3          	sw	x30,-531(x25)
  addi x25, x25, -531 # restore base address
     de8:	dedc8c93          	addi	x25,x25,-531
  addi x25, x25, SIG_STRIDE # increment signature pointer
     dec:	004c8c93          	addi	x25,x25,4
#ifdef RVTEST_SELFCHECK
  LREG x15, -SIG_STRIDE(x25) # load stored value for checking
     df0:	ffcca783          	lw	x15,-4(x25)
  # Check if x15 contains the expected result. x25 is the signature ptr, x5 is the link ptr, x4 is a temp reg.
  RVTEST_SIGUPD(x25, x5, x4, x15, I_sw_cg_cp_rs2_b30, I_sw_cg_cp_rs2_b30_str)
     df4:	000ca203          	lw	x4,0(x25)
     df8:	00f20863          	beq	x4,x15,e08 <I_sw_cg_cp_rs2_b30+0x24>
     dfc:	021002ef          	jal	x5,161c <failedtest_x5_x4>
     e00:	00000de4          	.word	0x00000de4
     e04:	00004dea          	.word	0x00004dea
     e08:	004c8c93          	addi	x25,x25,4
  nop
  nop
#endif

# Testcase cp_rs2 (Test source rs2 = x31)
  RVTEST_TESTDATA_LOAD_INT(x1, x31) # load rs2: x31 = 0xd4da5f77
     e0c:	0000af83          	lw	x31,0(x1)
     e10:	00408093          	addi	x1,x1,4
  mv x6, x25 # move signature pointer register
     e14:	000c8313          	addi	x6,x25,0
  addi x6, x6, -1879 # adjust base address for offset
     e18:	8a930313          	addi	x6,x6,-1879

00000e1c <I_sw_cg_cp_rs2_b31>:
I_sw_cg_cp_rs2_b31:
  sw x31, 1879(x6) # perform store
     e1c:	75f32ba3          	sw	x31,1879(x6)
  addi x6, x6, 1879 # restore base address
     e20:	75730313          	addi	x6,x6,1879
  addi x6, x6, SIG_STRIDE # increment signature pointer
     e24:	00430313          	addi	x6,x6,4
#ifdef RVTEST_SELFCHECK
  LREG x14, -SIG_STRIDE(x6) # load stored value for checking
     e28:	ffc32703          	lw	x14,-4(x6)
  # Check if x14 contains the expected result. x6 is the signature ptr, x5 is the link ptr, x4 is a temp reg.
  RVTEST_SIGUPD(x6, x5, x4, x14, I_sw_cg_cp_rs2_b31, I_sw_cg_cp_rs2_b31_str)
     e2c:	00032203          	lw	x4,0(x6)
     e30:	00e20863          	beq	x4,x14,e40 <I_sw_cg_cp_rs2_b31+0x24>
     e34:	7e8002ef          	jal	x5,161c <failedtest_x5_x4>
     e38:	00000e1c          	.word	0x00000e1c
     e3c:	00004e18          	.word	0x00004e18
     e40:	00430313          	addi	x6,x6,4
/////////////////////////////////
// cp_rs2_edges
/////////////////////////////////

# Testcase cp_rs2_edges (Test source rs2 value = 0x00000000)
  RVTEST_TESTDATA_LOAD_INT(x1, x7) # load rs2: x7 = 0x00000000
     e44:	0000a383          	lw	x7,0(x1)
     e48:	00408093          	addi	x1,x1,4
  mv x31, x6 # move signature pointer register
     e4c:	00030f93          	addi	x31,x6,0
  addi x31, x31, 455 # adjust base address for offset
     e50:	1c7f8f93          	addi	x31,x31,455

00000e54 <I_sw_cg_cp_rs2_edges_0x0>:
I_sw_cg_cp_rs2_edges_0x0:
  sw x7, -455(x31) # perform store
     e54:	e27faca3          	sw	x7,-455(x31)
  addi x31, x31, -455 # restore base address
     e58:	e39f8f93          	addi	x31,x31,-455
  addi x31, x31, SIG_STRIDE # increment signature pointer
     e5c:	004f8f93          	addi	x31,x31,4
#ifdef RVTEST_SELFCHECK
  LREG x20, -SIG_STRIDE(x31) # load stored value for checking
     e60:	ffcfaa03          	lw	x20,-4(x31)
  # Check if x20 contains the expected result. x31 is the signature ptr, x5 is the link ptr, x4 is a temp reg.
  RVTEST_SIGUPD(x31, x5, x4, x20, I_sw_cg_cp_rs2_edges_0x0, I_sw_cg_cp_rs2_edges_0x0_str)
     e64:	000fa203          	lw	x4,0(x31)
     e68:	01420863          	beq	x4,x20,e78 <I_sw_cg_cp_rs2_edges_0x0+0x24>
     e6c:	7b0002ef          	jal	x5,161c <failedtest_x5_x4>
     e70:	00000e54          	.word	0x00000e54
     e74:	00004e46          	.word	0x00004e46
     e78:	004f8f93          	addi	x31,x31,4
  nop
  nop
#endif

# Testcase cp_rs2_edges (Test source rs2 value = 0x00000001)
  RVTEST_TESTDATA_LOAD_INT(x1, x17) # load rs2: x17 = 0x00000001
     e7c:	0000a883          	lw	x17,0(x1)
     e80:	00408093          	addi	x1,x1,4
  mv x12, x31 # move signature pointer register
     e84:	000f8613          	addi	x12,x31,0
  addi x12, x12, 1318 # adjust base address for offset
     e88:	52660613          	addi	x12,x12,1318

00000e8c <I_sw_cg_cp_rs2_edges_0x1>:
I_sw_cg_cp_rs2_edges_0x1:
  sw x17, -1318(x12) # perform store
     e8c:	ad162d23          	sw	x17,-1318(x12)
  addi x12, x12, -1318 # restore base address
     e90:	ada60613          	addi	x12,x12,-1318
  addi x12, x12, SIG_STRIDE # increment signature pointer
     e94:	00460613          	addi	x12,x12,4
#ifdef RVTEST_SELFCHECK
  LREG x15, -SIG_STRIDE(x12) # load stored value for checking
     e98:	ffc62783          	lw	x15,-4(x12)
  # Check if x15 contains the expected result. x12 is the signature ptr, x5 is the link ptr, x4 is a temp reg.
  RVTEST_SIGUPD(x12, x5, x4, x15, I_sw_cg_cp_rs2_edges_0x1, I_sw_cg_cp_rs2_edges_0x1_str)
     e9c:	00062203          	lw	x4,0(x12)
     ea0:	00f20863          	beq	x4,x15,eb0 <I_sw_cg_cp_rs2_edges_0x1+0x24>
     ea4:	778002ef          	jal	x5,161c <failedtest_x5_x4>
     ea8:	00000e8c          	.word	0x00000e8c
     eac:	00004e7a          	.word	0x00004e7a
     eb0:	00460613          	addi	x12,x12,4
  nop
  nop
#endif

# Testcase cp_rs2_edges (Test source rs2 value = 0x00000002)
  RVTEST_TESTDATA_LOAD_INT(x1, x28) # load rs2: x28 = 0x00000002
     eb4:	0000ae03          	lw	x28,0(x1)
     eb8:	00408093          	addi	x1,x1,4
  mv x25, x12 # move signature pointer register
     ebc:	00060c93          	addi	x25,x12,0
  addi x25, x25, -335 # adjust base address for offset
     ec0:	eb1c8c93          	addi	x25,x25,-335

00000ec4 <I_sw_cg_cp_rs2_edges_0x2>:
I_sw_cg_cp_rs2_edges_0x2:
  sw x28, 335(x25) # perform store
     ec4:	15cca7a3          	sw	x28,335(x25)
  addi x25, x25, 335 # restore base address
     ec8:	14fc8c93          	addi	x25,x25,335
  addi x25, x25, SIG_STRIDE # increment signature pointer
     ecc:	004c8c93          	addi	x25,x25,4
#ifdef RVTEST_SELFCHECK
  LREG x30, -SIG_STRIDE(x25) # load stored value for checking
     ed0:	ffccaf03          	lw	x30,-4(x25)
  # Check if x30 contains the expected result. x25 is the signature ptr, x5 is the link ptr, x4 is a temp reg.
  RVTEST_SIGUPD(x25, x5, x4, x30, I_sw_cg_cp_rs2_edges_0x2, I_sw_cg_cp_rs2_edges_0x2_str)
     ed4:	000ca203          	lw	x4,0(x25)
     ed8:	01e20863          	beq	x4,x30,ee8 <I_sw_cg_cp_rs2_edges_0x2+0x24>
     edc:	740002ef          	jal	x5,161c <failedtest_x5_x4>
     ee0:	00000ec4          	.word	0x00000ec4
     ee4:	00004eae          	.word	0x00004eae
     ee8:	004c8c93          	addi	x25,x25,4
  nop
  nop
#endif

# Testcase cp_rs2_edges (Test source rs2 value = 0x80000000)
  RVTEST_TESTDATA_LOAD_INT(x1, x16) # load rs2: x16 = 0x80000000
     eec:	0000a803          	lw	x16,0(x1)
     ef0:	00408093          	addi	x1,x1,4
  mv x28, x25 # move signature pointer register
     ef4:	000c8e13          	addi	x28,x25,0
  addi x28, x28, -835 # adjust base address for offset
     ef8:	cbde0e13          	addi	x28,x28,-835

00000efc <I_sw_cg_cp_rs2_edges_0x80000000>:
I_sw_cg_cp_rs2_edges_0x80000000:
  sw x16, 835(x28) # perform store
     efc:	350e21a3          	sw	x16,835(x28)
  addi x28, x28, 835 # restore base address
     f00:	343e0e13          	addi	x28,x28,835
  addi x28, x28, SIG_STRIDE # increment signature pointer
     f04:	004e0e13          	addi	x28,x28,4
#ifdef RVTEST_SELFCHECK
  LREG x9, -SIG_STRIDE(x28) # load stored value for checking
     f08:	ffce2483          	lw	x9,-4(x28)
  # Check if x9 contains the expected result. x28 is the signature ptr, x5 is the link ptr, x4 is a temp reg.
  RVTEST_SIGUPD(x28, x5, x4, x9, I_sw_cg_cp_rs2_edges_0x80000000, I_sw_cg_cp_rs2_edges_0x80000000_str)
     f0c:	000e2203          	lw	x4,0(x28)
     f10:	00920863          	beq	x4,x9,f20 <I_sw_cg_cp_rs2_edges_0x80000000+0x24>
     f14:	708002ef          	jal	x5,161c <failedtest_x5_x4>
     f18:	00000efc          	.word	0x00000efc
     f1c:	00004ee2          	.word	0x00004ee2
     f20:	004e0e13          	addi	x28,x28,4
  nop
  nop
#endif

# Testcase cp_rs2_edges (Test source rs2 value = 0x80000001)
  RVTEST_TESTDATA_LOAD_INT(x1, x2) # load rs2: x2 = 0x80000001
     f24:	0000a103          	lw	x2,0(x1)
     f28:	00408093          	addi	x1,x1,4
  mv x22, x28 # move signature pointer register
     f2c:	000e0b13          	addi	x22,x28,0
  addi x22, x22, -968 # adjust base address for offset
     f30:	c38b0b13          	addi	x22,x22,-968

00000f34 <I_sw_cg_cp_rs2_edges_0x80000001>:
I_sw_cg_cp_rs2_edges_0x80000001:
  sw x2, 968(x22) # perform store
     f34:	3c2b2423          	sw	x2,968(x22)
  addi x22, x22, 968 # restore base address
     f38:	3c8b0b13          	addi	x22,x22,968
  addi x22, x22, SIG_STRIDE # increment signature pointer
     f3c:	004b0b13          	addi	x22,x22,4
#ifdef RVTEST_SELFCHECK
  LREG x19, -SIG_STRIDE(x22) # load stored value for checking
     f40:	ffcb2983          	lw	x19,-4(x22)
  # Check if x19 contains the expected result. x22 is the signature ptr, x5 is the link ptr, x4 is a temp reg.
  RVTEST_SIGUPD(x22, x5, x4, x19, I_sw_cg_cp_rs2_edges_0x80000001, I_sw_cg_cp_rs2_edges_0x80000001_str)
     f44:	000b2203          	lw	x4,0(x22)
     f48:	01320863          	beq	x4,x19,f58 <I_sw_cg_cp_rs2_edges_0x80000001+0x24>
     f4c:	6d0002ef          	jal	x5,161c <failedtest_x5_x4>
     f50:	00000f34          	.word	0x00000f34
     f54:	00004f1d          	.word	0x00004f1d
     f58:	004b0b13          	addi	x22,x22,4
  nop
  nop
#endif

# Testcase cp_rs2_edges (Test source rs2 value = 0x7fffffff)
  RVTEST_TESTDATA_LOAD_INT(x1, x6) # load rs2: x6 = 0x7fffffff
     f5c:	0000a303          	lw	x6,0(x1)
     f60:	00408093          	addi	x1,x1,4
  mv x18, x22 # move signature pointer register
     f64:	000b0913          	addi	x18,x22,0
  addi x18, x18, -704 # adjust base address for offset
     f68:	d4090913          	addi	x18,x18,-704

00000f6c <I_sw_cg_cp_rs2_edges_0x7fffffff>:
I_sw_cg_cp_rs2_edges_0x7fffffff:
  sw x6, 704(x18) # perform store
     f6c:	2c692023          	sw	x6,704(x18)
  addi x18, x18, 704 # restore base address
     f70:	2c090913          	addi	x18,x18,704
  addi x18, x18, SIG_STRIDE # increment signature pointer
     f74:	00490913          	addi	x18,x18,4
#ifdef RVTEST_SELFCHECK
  LREG x15, -SIG_STRIDE(x18) # load stored value for checking
     f78:	ffc92783          	lw	x15,-4(x18)
  # Check if x15 contains the expected result. x18 is the signature ptr, x5 is the link ptr, x4 is a temp reg.
  RVTEST_SIGUPD(x18, x5, x4, x15, I_sw_cg_cp_rs2_edges_0x7fffffff, I_sw_cg_cp_rs2_edges_0x7fffffff_str)
     f7c:	00092203          	lw	x4,0(x18)
     f80:	00f20863          	beq	x4,x15,f90 <I_sw_cg_cp_rs2_edges_0x7fffffff+0x24>
     f84:	698002ef          	jal	x5,161c <failedtest_x5_x4>
     f88:	00000f6c          	.word	0x00000f6c
     f8c:	00004f58          	.word	0x00004f58
     f90:	00490913          	addi	x18,x18,4
  nop
  nop
#endif

# Testcase cp_rs2_edges (Test source rs2 value = 0x7ffffffe)
  RVTEST_TESTDATA_LOAD_INT(x1, x29) # load rs2: x29 = 0x7ffffffe
     f94:	0000ae83          	lw	x29,0(x1)
     f98:	00408093          	addi	x1,x1,4
  mv x24, x18 # move signature pointer register
     f9c:	00090c13          	addi	x24,x18,0
  addi x24, x24, 1935 # adjust base address for offset
     fa0:	78fc0c13          	addi	x24,x24,1935

00000fa4 <I_sw_cg_cp_rs2_edges_0x7ffffffe>:
I_sw_cg_cp_rs2_edges_0x7ffffffe:
  sw x29, -1935(x24) # perform store
     fa4:	87dc28a3          	sw	x29,-1935(x24)
  addi x24, x24, -1935 # restore base address
     fa8:	871c0c13          	addi	x24,x24,-1935
  addi x24, x24, SIG_STRIDE # increment signature pointer
     fac:	004c0c13          	addi	x24,x24,4
#ifdef RVTEST_SELFCHECK
  LREG x25, -SIG_STRIDE(x24) # load stored value for checking
     fb0:	ffcc2c83          	lw	x25,-4(x24)
  # Check if x25 contains the expected result. x24 is the signature ptr, x5 is the link ptr, x4 is a temp reg.
  RVTEST_SIGUPD(x24, x5, x4, x25, I_sw_cg_cp_rs2_edges_0x7ffffffe, I_sw_cg_cp_rs2_edges_0x7ffffffe_str)
     fb4:	000c2203          	lw	x4,0(x24)
     fb8:	01920863          	beq	x4,x25,fc8 <I_sw_cg_cp_rs2_edges_0x7ffffffe+0x24>
     fbc:	660002ef          	jal	x5,161c <failedtest_x5_x4>
     fc0:	00000fa4          	.word	0x00000fa4
     fc4:	00004f93          	.word	0x00004f93
     fc8:	004c0c13          	addi	x24,x24,4
  nop
  nop
#endif

# Testcase cp_rs2_edges (Test source rs2 value = 0xffffffff)
  RVTEST_TESTDATA_LOAD_INT(x1, x12) # load rs2: x12 = 0xffffffff
     fcc:	0000a603          	lw	x12,0(x1)
     fd0:	00408093          	addi	x1,x1,4
  mv x22, x24 # move signature pointer register
     fd4:	000c0b13          	addi	x22,x24,0
  addi x22, x22, 1155 # adjust base address for offset
     fd8:	483b0b13          	addi	x22,x22,1155

00000fdc <I_sw_cg_cp_rs2_edges_0xffffffff>:
I_sw_cg_cp_rs2_edges_0xffffffff:
  sw x12, -1155(x22) # perform store
     fdc:	b6cb2ea3          	sw	x12,-1155(x22)
  addi x22, x22, -1155 # restore base address
     fe0:	b7db0b13          	addi	x22,x22,-1155
  addi x22, x22, SIG_STRIDE # increment signature pointer
     fe4:	004b0b13          	addi	x22,x22,4
#ifdef RVTEST_SELFCHECK
  LREG x17, -SIG_STRIDE(x22) # load stored value for checking
     fe8:	ffcb2883          	lw	x17,-4(x22)
  # Check if x17 contains the expected result. x22 is the signature ptr, x5 is the link ptr, x4 is a temp reg.
  RVTEST_SIGUPD(x22, x5, x4, x17, I_sw_cg_cp_rs2_edges_0xffffffff, I_sw_cg_cp_rs2_edges_0xffffffff_str)
     fec:	000b2203          	lw	x4,0(x22)
     ff0:	01120863          	beq	x4,x17,1000 <I_sw_cg_cp_rs2_edges_0xffffffff+0x24>
     ff4:	628002ef          	jal	x5,161c <failedtest_x5_x4>
     ff8:	00000fdc          	.word	0x00000fdc
     ffc:	00004fce          	.word	0x00004fce
    1000:	004b0b13          	addi	x22,x22,4
  nop
  nop
#endif

# Testcase cp_rs2_edges (Test source rs2 value = 0xfffffffe)
  RVTEST_TESTDATA_LOAD_INT(x1, x8) # load rs2: x8 = 0xfffffffe
    1004:	0000a403          	lw	x8,0(x1)
    1008:	00408093          	addi	x1,x1,4
  mv x14, x22 # move signature pointer register
    100c:	000b0713          	addi	x14,x22,0
  addi x14, x14, -81 # adjust base address for offset
    1010:	faf70713          	addi	x14,x14,-81

00001014 <I_sw_cg_cp_rs2_edges_0xfffffffe>:
I_sw_cg_cp_rs2_edges_0xfffffffe:
  sw x8, 81(x14) # perform store
    1014:	048728a3          	sw	x8,81(x14)
  addi x14, x14, 81 # restore base address
    1018:	05170713          	addi	x14,x14,81
  addi x14, x14, SIG_STRIDE # increment signature pointer
    101c:	00470713          	addi	x14,x14,4
#ifdef RVTEST_SELFCHECK
  LREG x16, -SIG_STRIDE(x14) # load stored value for checking
    1020:	ffc72803          	lw	x16,-4(x14)
  # Check if x16 contains the expected result. x14 is the signature ptr, x5 is the link ptr, x4 is a temp reg.
  RVTEST_SIGUPD(x14, x5, x4, x16, I_sw_cg_cp_rs2_edges_0xfffffffe, I_sw_cg_cp_rs2_edges_0xfffffffe_str)
    1024:	00072203          	lw	x4,0(x14)
    1028:	01020863          	beq	x4,x16,1038 <I_sw_cg_cp_rs2_edges_0xfffffffe+0x24>
    102c:	5f0002ef          	jal	x5,161c <failedtest_x5_x4>
    1030:	00001014          	.word	0x00001014
    1034:	00005009          	.word	0x00005009
    1038:	00470713          	addi	x14,x14,4
  nop
  nop
#endif

# Testcase cp_rs2_edges (Test source rs2 value = 0x5bbc8872)
  RVTEST_TESTDATA_LOAD_INT(x1, x19) # load rs2: x19 = 0x5bbc8872
    103c:	0000a983          	lw	x19,0(x1)
    1040:	00408093          	addi	x1,x1,4
  mv x6, x14 # move signature pointer register
    1044:	00070313          	addi	x6,x14,0
  addi x6, x6, -1383 # adjust base address for offset
    1048:	a9930313          	addi	x6,x6,-1383

0000104c <I_sw_cg_cp_rs2_edges_0x5bbc8872>:
I_sw_cg_cp_rs2_edges_0x5bbc8872:
  sw x19, 1383(x6) # perform store
    104c:	573323a3          	sw	x19,1383(x6)
  addi x6, x6, 1383 # restore base address
    1050:	56730313          	addi	x6,x6,1383
  addi x6, x6, SIG_STRIDE # increment signature pointer
    1054:	00430313          	addi	x6,x6,4
#ifdef RVTEST_SELFCHECK
  LREG x16, -SIG_STRIDE(x6) # load stored value for checking
    1058:	ffc32803          	lw	x16,-4(x6)
  # Check if x16 contains the expected result. x6 is the signature ptr, x5 is the link ptr, x4 is a temp reg.
  RVTEST_SIGUPD(x6, x5, x4, x16, I_sw_cg_cp_rs2_edges_0x5bbc8872, I_sw_cg_cp_rs2_edges_0x5bbc8872_str)
    105c:	00032203          	lw	x4,0(x6)
    1060:	01020863          	beq	x4,x16,1070 <I_sw_cg_cp_rs2_edges_0x5bbc8872+0x24>
    1064:	5b8002ef          	jal	x5,161c <failedtest_x5_x4>
    1068:	0000104c          	.word	0x0000104c
    106c:	00005044          	.word	0x00005044
    1070:	00430313          	addi	x6,x6,4
  nop
  nop
#endif

# Testcase cp_rs2_edges (Test source rs2 value = 0xaaaaaaaa)
  RVTEST_TESTDATA_LOAD_INT(x1, x12) # load rs2: x12 = 0xaaaaaaaa
    1074:	0000a603          	lw	x12,0(x1)
    1078:	00408093          	addi	x1,x1,4
  mv x16, x6 # move signature pointer register
    107c:	00030813          	addi	x16,x6,0
  addi x16, x16, -430 # adjust base address for offset
    1080:	e5280813          	addi	x16,x16,-430

00001084 <I_sw_cg_cp_rs2_edges_0xaaaaaaaa>:
I_sw_cg_cp_rs2_edges_0xaaaaaaaa:
  sw x12, 430(x16) # perform store
    1084:	1ac82723          	sw	x12,430(x16)
  addi x16, x16, 430 # restore base address
    1088:	1ae80813          	addi	x16,x16,430
  addi x16, x16, SIG_STRIDE # increment signature pointer
    108c:	00480813          	addi	x16,x16,4
#ifdef RVTEST_SELFCHECK
  LREG x21, -SIG_STRIDE(x16) # load stored value for checking
    1090:	ffc82a83          	lw	x21,-4(x16)
  # Check if x21 contains the expected result. x16 is the signature ptr, x5 is the link ptr, x4 is a temp reg.
  RVTEST_SIGUPD(x16, x5, x4, x21, I_sw_cg_cp_rs2_edges_0xaaaaaaaa, I_sw_cg_cp_rs2_edges_0xaaaaaaaa_str)
    1094:	00082203          	lw	x4,0(x16)
    1098:	01520863          	beq	x4,x21,10a8 <I_sw_cg_cp_rs2_edges_0xaaaaaaaa+0x24>
    109c:	580002ef          	jal	x5,161c <failedtest_x5_x4>
    10a0:	00001084          	.word	0x00001084
    10a4:	0000507f          	.word	0x0000507f
    10a8:	00480813          	addi	x16,x16,4
  nop
  nop
#endif

# Testcase cp_rs2_edges (Test source rs2 value = 0x55555555)
  RVTEST_TESTDATA_LOAD_INT(x1, x31) # load rs2: x31 = 0x55555555
    10ac:	0000af83          	lw	x31,0(x1)
    10b0:	00408093          	addi	x1,x1,4
  mv x22, x16 # move signature pointer register
    10b4:	00080b13          	addi	x22,x16,0
  addi x22, x22, 713 # adjust base address for offset
    10b8:	2c9b0b13          	addi	x22,x22,713

000010bc <I_sw_cg_cp_rs2_edges_0x55555555>:
I_sw_cg_cp_rs2_edges_0x55555555:
  sw x31, -713(x22) # perform store
    10bc:	d3fb2ba3          	sw	x31,-713(x22)
  addi x22, x22, -713 # restore base address
    10c0:	d37b0b13          	addi	x22,x22,-713
  addi x22, x22, SIG_STRIDE # increment signature pointer
    10c4:	004b0b13          	addi	x22,x22,4
#ifdef RVTEST_SELFCHECK
  LREG x6, -SIG_STRIDE(x22) # load stored value for checking
    10c8:	ffcb2303          	lw	x6,-4(x22)
  # Check if x6 contains the expected result. x22 is the signature ptr, x5 is the link ptr, x4 is a temp reg.
  RVTEST_SIGUPD(x22, x5, x4, x6, I_sw_cg_cp_rs2_edges_0x55555555, I_sw_cg_cp_rs2_edges_0x55555555_str)
    10cc:	000b2203          	lw	x4,0(x22)
    10d0:	00620863          	beq	x4,x6,10e0 <I_sw_cg_cp_rs2_edges_0x55555555+0x24>
    10d4:	548002ef          	jal	x5,161c <failedtest_x5_x4>
    10d8:	000010bc          	.word	0x000010bc
    10dc:	000050ba          	.word	0x000050ba
    10e0:	004b0b13          	addi	x22,x22,4
/////////////////////////////////
// cp_imm_edges
/////////////////////////////////

# Testcase cp_imm_edges (imm = 0)
  RVTEST_TESTDATA_LOAD_INT(x1, x17) # load rs2: x17 = 0x5aa885f3
    10e4:	0000a883          	lw	x17,0(x1)
    10e8:	00408093          	addi	x1,x1,4
  mv x16, x22 # move signature pointer register
    10ec:	000b0813          	addi	x16,x22,0
  addi x16, x16, 0 # adjust base address for offset
    10f0:	00080813          	addi	x16,x16,0

000010f4 <I_sw_cg_cp_imm_edges_0x0>:
I_sw_cg_cp_imm_edges_0x0:
  sw x17, 0(x16) # perform store
    10f4:	01182023          	sw	x17,0(x16)
  addi x16, x16, 0 # restore base address
    10f8:	00080813          	addi	x16,x16,0
  addi x16, x16, SIG_STRIDE # increment signature pointer
    10fc:	00480813          	addi	x16,x16,4
#ifdef RVTEST_SELFCHECK
  LREG x31, -SIG_STRIDE(x16) # load stored value for checking
    1100:	ffc82f83          	lw	x31,-4(x16)
  # Check if x31 contains the expected result. x16 is the signature ptr, x5 is the link ptr, x4 is a temp reg.
  RVTEST_SIGUPD(x16, x5, x4, x31, I_sw_cg_cp_imm_edges_0x0, I_sw_cg_cp_imm_edges_0x0_str)
    1104:	00082203          	lw	x4,0(x16)
    1108:	01f20863          	beq	x4,x31,1118 <I_sw_cg_cp_imm_edges_0x0+0x24>
    110c:	510002ef          	jal	x5,161c <failedtest_x5_x4>
    1110:	000010f4          	.word	0x000010f4
    1114:	000050f5          	.word	0x000050f5
    1118:	00480813          	addi	x16,x16,4
  nop
  nop
#endif

# Testcase cp_imm_edges (imm = 1)
  RVTEST_TESTDATA_LOAD_INT(x1, x23) # load rs2: x23 = 0x9c0eea91
    111c:	0000ab83          	lw	x23,0(x1)
    1120:	00408093          	addi	x1,x1,4
  mv x22, x16 # move signature pointer register
    1124:	00080b13          	addi	x22,x16,0
  addi x22, x22, -1 # adjust base address for offset
    1128:	fffb0b13          	addi	x22,x22,-1

0000112c <I_sw_cg_cp_imm_edges_0x1>:
I_sw_cg_cp_imm_edges_0x1:
  sw x23, 1(x22) # perform store
    112c:	017b20a3          	sw	x23,1(x22)
  addi x22, x22, 1 # restore base address
    1130:	001b0b13          	addi	x22,x22,1
  addi x22, x22, SIG_STRIDE # increment signature pointer
    1134:	004b0b13          	addi	x22,x22,4
#ifdef RVTEST_SELFCHECK
  LREG x28, -SIG_STRIDE(x22) # load stored value for checking
    1138:	ffcb2e03          	lw	x28,-4(x22)
  # Check if x28 contains the expected result. x22 is the signature ptr, x5 is the link ptr, x4 is a temp reg.
  RVTEST_SIGUPD(x22, x5, x4, x28, I_sw_cg_cp_imm_edges_0x1, I_sw_cg_cp_imm_edges_0x1_str)
    113c:	000b2203          	lw	x4,0(x22)
    1140:	01c20863          	beq	x4,x28,1150 <I_sw_cg_cp_imm_edges_0x1+0x24>
    1144:	4d8002ef          	jal	x5,161c <failedtest_x5_x4>
    1148:	0000112c          	.word	0x0000112c
    114c:	00005129          	.word	0x00005129
    1150:	004b0b13          	addi	x22,x22,4
  nop
  nop
#endif

# Testcase cp_imm_edges (imm = 2)
  RVTEST_TESTDATA_LOAD_INT(x1, x6) # load rs2: x6 = 0x991675d6
    1154:	0000a303          	lw	x6,0(x1)
    1158:	00408093          	addi	x1,x1,4
  mv x19, x22 # move signature pointer register
    115c:	000b0993          	addi	x19,x22,0
  addi x19, x19, -2 # adjust base address for offset
    1160:	ffe98993          	addi	x19,x19,-2

00001164 <I_sw_cg_cp_imm_edges_0x2>:
I_sw_cg_cp_imm_edges_0x2:
  sw x6, 2(x19) # perform store
    1164:	0069a123          	sw	x6,2(x19)
  addi x19, x19, 2 # restore base address
    1168:	00298993          	addi	x19,x19,2
  addi x19, x19, SIG_STRIDE # increment signature pointer
    116c:	00498993          	addi	x19,x19,4
#ifdef RVTEST_SELFCHECK
  LREG x12, -SIG_STRIDE(x19) # load stored value for checking
    1170:	ffc9a603          	lw	x12,-4(x19)
  # Check if x12 contains the expected result. x19 is the signature ptr, x5 is the link ptr, x4 is a temp reg.
  RVTEST_SIGUPD(x19, x5, x4, x12, I_sw_cg_cp_imm_edges_0x2, I_sw_cg_cp_imm_edges_0x2_str)
    1174:	0009a203          	lw	x4,0(x19)
    1178:	00c20863          	beq	x4,x12,1188 <I_sw_cg_cp_imm_edges_0x2+0x24>
    117c:	4a0002ef          	jal	x5,161c <failedtest_x5_x4>
    1180:	00001164          	.word	0x00001164
    1184:	0000515d          	.word	0x0000515d
    1188:	00498993          	addi	x19,x19,4
  nop
  nop
#endif

# Testcase cp_imm_edges (imm = 3)
  RVTEST_TESTDATA_LOAD_INT(x1, x23) # load rs2: x23 = 0x58367654
    118c:	0000ab83          	lw	x23,0(x1)
    1190:	00408093          	addi	x1,x1,4
  mv x2, x19 # move signature pointer register
    1194:	00098113          	addi	x2,x19,0
  addi x2, x2, -3 # adjust base address for offset
    1198:	ffd10113          	addi	x2,x2,-3

0000119c <I_sw_cg_cp_imm_edges_0x3>:
I_sw_cg_cp_imm_edges_0x3:
  sw x23, 3(x2) # perform store
    119c:	017121a3          	sw	x23,3(x2)
  addi x2, x2, 3 # restore base address
    11a0:	00310113          	addi	x2,x2,3
  addi x2, x2, SIG_STRIDE # increment signature pointer
    11a4:	00410113          	addi	x2,x2,4
#ifdef RVTEST_SELFCHECK
  LREG x16, -SIG_STRIDE(x2) # load stored value for checking
    11a8:	ffc12803          	lw	x16,-4(x2)
  # Check if x16 contains the expected result. x2 is the signature ptr, x5 is the link ptr, x4 is a temp reg.
  RVTEST_SIGUPD(x2, x5, x4, x16, I_sw_cg_cp_imm_edges_0x3, I_sw_cg_cp_imm_edges_0x3_str)
    11ac:	00012203          	lw	x4,0(x2)
    11b0:	01020863          	beq	x4,x16,11c0 <I_sw_cg_cp_imm_edges_0x3+0x24>
    11b4:	468002ef          	jal	x5,161c <failedtest_x5_x4>
    11b8:	0000119c          	.word	0x0000119c
    11bc:	00005191          	.word	0x00005191
    11c0:	00410113          	addi	x2,x2,4
  nop
  nop
#endif

# Testcase cp_imm_edges (imm = 4)
  RVTEST_TESTDATA_LOAD_INT(x1, x23) # load rs2: x23 = 0x0f19ff31
    11c4:	0000ab83          	lw	x23,0(x1)
    11c8:	00408093          	addi	x1,x1,4
  mv x6, x2 # move signature pointer register
    11cc:	00010313          	addi	x6,x2,0
  addi x6, x6, -4 # adjust base address for offset
    11d0:	ffc30313          	addi	x6,x6,-4

000011d4 <I_sw_cg_cp_imm_edges_0x4>:
I_sw_cg_cp_imm_edges_0x4:
  sw x23, 4(x6) # perform store
    11d4:	01732223          	sw	x23,4(x6)
  addi x6, x6, 4 # restore base address
    11d8:	00430313          	addi	x6,x6,4
  addi x6, x6, SIG_STRIDE # increment signature pointer
    11dc:	00430313          	addi	x6,x6,4
#ifdef RVTEST_SELFCHECK
  LREG x25, -SIG_STRIDE(x6) # load stored value for checking
    11e0:	ffc32c83          	lw	x25,-4(x6)
  # Check if x25 contains the expected result. x6 is the signature ptr, x5 is the link ptr, x4 is a temp reg.
  RVTEST_SIGUPD(x6, x5, x4, x25, I_sw_cg_cp_imm_edges_0x4, I_sw_cg_cp_imm_edges_0x4_str)
    11e4:	00032203          	lw	x4,0(x6)
    11e8:	01920863          	beq	x4,x25,11f8 <I_sw_cg_cp_imm_edges_0x4+0x24>
    11ec:	430002ef          	jal	x5,161c <failedtest_x5_x4>
    11f0:	000011d4          	.word	0x000011d4
    11f4:	000051c5          	.word	0x000051c5
    11f8:	00430313          	addi	x6,x6,4
  nop
  nop
#endif

# Testcase cp_imm_edges (imm = 8)
  RVTEST_TESTDATA_LOAD_INT(x1, x15) # load rs2: x15 = 0xa868e503
    11fc:	0000a783          	lw	x15,0(x1)
    1200:	00408093          	addi	x1,x1,4
  mv x8, x6 # move signature pointer register
    1204:	00030413          	addi	x8,x6,0
  addi x8, x8, -8 # adjust base address for offset
    1208:	ff840413          	addi	x8,x8,-8

0000120c <I_sw_cg_cp_imm_edges_0x8>:
I_sw_cg_cp_imm_edges_0x8:
  sw x15, 8(x8) # perform store
    120c:	00f42423          	sw	x15,8(x8)
  addi x8, x8, 8 # restore base address
    1210:	00840413          	addi	x8,x8,8
  addi x8, x8, SIG_STRIDE # increment signature pointer
    1214:	00440413          	addi	x8,x8,4
#ifdef RVTEST_SELFCHECK
  LREG x31, -SIG_STRIDE(x8) # load stored value for checking
    1218:	ffc42f83          	lw	x31,-4(x8)
  # Check if x31 contains the expected result. x8 is the signature ptr, x5 is the link ptr, x4 is a temp reg.
  RVTEST_SIGUPD(x8, x5, x4, x31, I_sw_cg_cp_imm_edges_0x8, I_sw_cg_cp_imm_edges_0x8_str)
    121c:	00042203          	lw	x4,0(x8)
    1220:	01f20863          	beq	x4,x31,1230 <I_sw_cg_cp_imm_edges_0x8+0x24>
    1224:	3f8002ef          	jal	x5,161c <failedtest_x5_x4>
    1228:	0000120c          	.word	0x0000120c
    122c:	000051f9          	.word	0x000051f9
    1230:	00440413          	addi	x8,x8,4
  nop
  nop
#endif

# Testcase cp_imm_edges (imm = 16)
  RVTEST_TESTDATA_LOAD_INT(x1, x31) # load rs2: x31 = 0x860e98b7
    1234:	0000af83          	lw	x31,0(x1)
    1238:	00408093          	addi	x1,x1,4
  mv x11, x8 # move signature pointer register
    123c:	00040593          	addi	x11,x8,0
  addi x11, x11, -16 # adjust base address for offset
    1240:	ff058593          	addi	x11,x11,-16

00001244 <I_sw_cg_cp_imm_edges_0x10>:
I_sw_cg_cp_imm_edges_0x10:
  sw x31, 16(x11) # perform store
    1244:	01f5a823          	sw	x31,16(x11)
  addi x11, x11, 16 # restore base address
    1248:	01058593          	addi	x11,x11,16
  addi x11, x11, SIG_STRIDE # increment signature pointer
    124c:	00458593          	addi	x11,x11,4
#ifdef RVTEST_SELFCHECK
  LREG x27, -SIG_STRIDE(x11) # load stored value for checking
    1250:	ffc5ad83          	lw	x27,-4(x11)
  # Check if x27 contains the expected result. x11 is the signature ptr, x5 is the link ptr, x4 is a temp reg.
  RVTEST_SIGUPD(x11, x5, x4, x27, I_sw_cg_cp_imm_edges_0x10, I_sw_cg_cp_imm_edges_0x10_str)
    1254:	0005a203          	lw	x4,0(x11)
    1258:	01b20863          	beq	x4,x27,1268 <I_sw_cg_cp_imm_edges_0x10+0x24>
    125c:	3c0002ef          	jal	x5,161c <failedtest_x5_x4>
    1260:	00001244          	.word	0x00001244
    1264:	0000522d          	.word	0x0000522d
    1268:	00458593          	addi	x11,x11,4
  nop
  nop
#endif

# Testcase cp_imm_edges (imm = 32)
  RVTEST_TESTDATA_LOAD_INT(x1, x2) # load rs2: x2 = 0x13da6910
    126c:	0000a103          	lw	x2,0(x1)
    1270:	00408093          	addi	x1,x1,4
  mv x15, x11 # move signature pointer register
    1274:	00058793          	addi	x15,x11,0
  addi x15, x15, -32 # adjust base address for offset
    1278:	fe078793          	addi	x15,x15,-32

0000127c <I_sw_cg_cp_imm_edges_0x20>:
I_sw_cg_cp_imm_edges_0x20:
  sw x2, 32(x15) # perform store
    127c:	0227a023          	sw	x2,32(x15)
  addi x15, x15, 32 # restore base address
    1280:	02078793          	addi	x15,x15,32
  addi x15, x15, SIG_STRIDE # increment signature pointer
    1284:	00478793          	addi	x15,x15,4
#ifdef RVTEST_SELFCHECK
  LREG x30, -SIG_STRIDE(x15) # load stored value for checking
    1288:	ffc7af03          	lw	x30,-4(x15)
  # Check if x30 contains the expected result. x15 is the signature ptr, x5 is the link ptr, x4 is a temp reg.
  RVTEST_SIGUPD(x15, x5, x4, x30, I_sw_cg_cp_imm_edges_0x20, I_sw_cg_cp_imm_edges_0x20_str)
    128c:	0007a203          	lw	x4,0(x15)
    1290:	01e20863          	beq	x4,x30,12a0 <I_sw_cg_cp_imm_edges_0x20+0x24>
    1294:	388002ef          	jal	x5,161c <failedtest_x5_x4>
    1298:	0000127c          	.word	0x0000127c
    129c:	00005262          	.word	0x00005262
    12a0:	00478793          	addi	x15,x15,4
  nop
  nop
#endif

# Testcase cp_imm_edges (imm = 64)
  RVTEST_TESTDATA_LOAD_INT(x1, x14) # load rs2: x14 = 0x3c1d5330
    12a4:	0000a703          	lw	x14,0(x1)
    12a8:	00408093          	addi	x1,x1,4
  mv x9, x15 # move signature pointer register
    12ac:	00078493          	addi	x9,x15,0
  addi x9, x9, -64 # adjust base address for offset
    12b0:	fc048493          	addi	x9,x9,-64

000012b4 <I_sw_cg_cp_imm_edges_0x40>:
I_sw_cg_cp_imm_edges_0x40:
  sw x14, 64(x9) # perform store
    12b4:	04e4a023          	sw	x14,64(x9)
  addi x9, x9, 64 # restore base address
    12b8:	04048493          	addi	x9,x9,64
  addi x9, x9, SIG_STRIDE # increment signature pointer
    12bc:	00448493          	addi	x9,x9,4
#ifdef RVTEST_SELFCHECK
  LREG x24, -SIG_STRIDE(x9) # load stored value for checking
    12c0:	ffc4ac03          	lw	x24,-4(x9)
  # Check if x24 contains the expected result. x9 is the signature ptr, x5 is the link ptr, x4 is a temp reg.
  RVTEST_SIGUPD(x9, x5, x4, x24, I_sw_cg_cp_imm_edges_0x40, I_sw_cg_cp_imm_edges_0x40_str)
    12c4:	0004a203          	lw	x4,0(x9)
    12c8:	01820863          	beq	x4,x24,12d8 <I_sw_cg_cp_imm_edges_0x40+0x24>
    12cc:	350002ef          	jal	x5,161c <failedtest_x5_x4>
    12d0:	000012b4          	.word	0x000012b4
    12d4:	00005297          	.word	0x00005297
    12d8:	00448493          	addi	x9,x9,4
  nop
  nop
#endif

# Testcase cp_imm_edges (imm = 128)
  RVTEST_TESTDATA_LOAD_INT(x1, x7) # load rs2: x7 = 0x141ea38a
    12dc:	0000a383          	lw	x7,0(x1)
    12e0:	00408093          	addi	x1,x1,4
  mv x29, x9 # move signature pointer register
    12e4:	00048e93          	addi	x29,x9,0
  addi x29, x29, -128 # adjust base address for offset
    12e8:	f80e8e93          	addi	x29,x29,-128

000012ec <I_sw_cg_cp_imm_edges_0x80>:
I_sw_cg_cp_imm_edges_0x80:
  sw x7, 128(x29) # perform store
    12ec:	087ea023          	sw	x7,128(x29)
  addi x29, x29, 128 # restore base address
    12f0:	080e8e93          	addi	x29,x29,128
  addi x29, x29, SIG_STRIDE # increment signature pointer
    12f4:	004e8e93          	addi	x29,x29,4
#ifdef RVTEST_SELFCHECK
  LREG x15, -SIG_STRIDE(x29) # load stored value for checking
    12f8:	ffcea783          	lw	x15,-4(x29)
  # Check if x15 contains the expected result. x29 is the signature ptr, x5 is the link ptr, x4 is a temp reg.
  RVTEST_SIGUPD(x29, x5, x4, x15, I_sw_cg_cp_imm_edges_0x80, I_sw_cg_cp_imm_edges_0x80_str)
    12fc:	000ea203          	lw	x4,0(x29)
    1300:	00f20863          	beq	x4,x15,1310 <I_sw_cg_cp_imm_edges_0x80+0x24>
    1304:	318002ef          	jal	x5,161c <failedtest_x5_x4>
    1308:	000012ec          	.word	0x000012ec
    130c:	000052cc          	.word	0x000052cc
    1310:	004e8e93          	addi	x29,x29,4
  nop
  nop
#endif

# Testcase cp_imm_edges (imm = 256)
  RVTEST_TESTDATA_LOAD_INT(x1, x8) # load rs2: x8 = 0x8ec858c6
    1314:	0000a403          	lw	x8,0(x1)
    1318:	00408093          	addi	x1,x1,4
  mv x13, x29 # move signature pointer register
    131c:	000e8693          	addi	x13,x29,0
  addi x13, x13, -256 # adjust base address for offset
    1320:	f0068693          	addi	x13,x13,-256

00001324 <I_sw_cg_cp_imm_edges_0x100>:
I_sw_cg_cp_imm_edges_0x100:
  sw x8, 256(x13) # perform store
    1324:	1086a023          	sw	x8,256(x13)
  addi x13, x13, 256 # restore base address
    1328:	10068693          	addi	x13,x13,256
  addi x13, x13, SIG_STRIDE # increment signature pointer
    132c:	00468693          	addi	x13,x13,4
#ifdef RVTEST_SELFCHECK
  LREG x12, -SIG_STRIDE(x13) # load stored value for checking
    1330:	ffc6a603          	lw	x12,-4(x13)
  # Check if x12 contains the expected result. x13 is the signature ptr, x5 is the link ptr, x4 is a temp reg.
  RVTEST_SIGUPD(x13, x5, x4, x12, I_sw_cg_cp_imm_edges_0x100, I_sw_cg_cp_imm_edges_0x100_str)
    1334:	0006a203          	lw	x4,0(x13)
    1338:	00c20863          	beq	x4,x12,1348 <I_sw_cg_cp_imm_edges_0x100+0x24>
    133c:	2e0002ef          	jal	x5,161c <failedtest_x5_x4>
    1340:	00001324          	.word	0x00001324
    1344:	00005301          	.word	0x00005301
    1348:	00468693          	addi	x13,x13,4
  nop
  nop
#endif

# Testcase cp_imm_edges (imm = 512)
  RVTEST_TESTDATA_LOAD_INT(x1, x30) # load rs2: x30 = 0x97e8d2f6
    134c:	0000af03          	lw	x30,0(x1)
    1350:	00408093          	addi	x1,x1,4
  mv x7, x13 # move signature pointer register
    1354:	00068393          	addi	x7,x13,0
  addi x7, x7, -512 # adjust base address for offset
    1358:	e0038393          	addi	x7,x7,-512

0000135c <I_sw_cg_cp_imm_edges_0x200>:
I_sw_cg_cp_imm_edges_0x200:
  sw x30, 512(x7) # perform store
    135c:	21e3a023          	sw	x30,512(x7)
  addi x7, x7, 512 # restore base address
    1360:	20038393          	addi	x7,x7,512
  addi x7, x7, SIG_STRIDE # increment signature pointer
    1364:	00438393          	addi	x7,x7,4
#ifdef RVTEST_SELFCHECK
  LREG x24, -SIG_STRIDE(x7) # load stored value for checking
    1368:	ffc3ac03          	lw	x24,-4(x7)
  # Check if x24 contains the expected result. x7 is the signature ptr, x5 is the link ptr, x4 is a temp reg.
  RVTEST_SIGUPD(x7, x5, x4, x24, I_sw_cg_cp_imm_edges_0x200, I_sw_cg_cp_imm_edges_0x200_str)
    136c:	0003a203          	lw	x4,0(x7)
    1370:	01820863          	beq	x4,x24,1380 <I_sw_cg_cp_imm_edges_0x200+0x24>
    1374:	2a8002ef          	jal	x5,161c <failedtest_x5_x4>
    1378:	0000135c          	.word	0x0000135c
    137c:	00005337          	.word	0x00005337
    1380:	00438393          	addi	x7,x7,4
  nop
  nop
#endif

# Testcase cp_imm_edges (imm = 1023)
  RVTEST_TESTDATA_LOAD_INT(x1, x17) # load rs2: x17 = 0x1b2c9cbe
    1384:	0000a883          	lw	x17,0(x1)
    1388:	00408093          	addi	x1,x1,4
  mv x8, x7 # move signature pointer register
    138c:	00038413          	addi	x8,x7,0
  addi x8, x8, -1023 # adjust base address for offset
    1390:	c0140413          	addi	x8,x8,-1023

00001394 <I_sw_cg_cp_imm_edges_0x3ff>:
I_sw_cg_cp_imm_edges_0x3ff:
  sw x17, 1023(x8) # perform store
    1394:	3f142fa3          	sw	x17,1023(x8)
  addi x8, x8, 1023 # restore base address
    1398:	3ff40413          	addi	x8,x8,1023
  addi x8, x8, SIG_STRIDE # increment signature pointer
    139c:	00440413          	addi	x8,x8,4
#ifdef RVTEST_SELFCHECK
  LREG x20, -SIG_STRIDE(x8) # load stored value for checking
    13a0:	ffc42a03          	lw	x20,-4(x8)
  # Check if x20 contains the expected result. x8 is the signature ptr, x5 is the link ptr, x4 is a temp reg.
  RVTEST_SIGUPD(x8, x5, x4, x20, I_sw_cg_cp_imm_edges_0x3ff, I_sw_cg_cp_imm_edges_0x3ff_str)
    13a4:	00042203          	lw	x4,0(x8)
    13a8:	01420863          	beq	x4,x20,13b8 <I_sw_cg_cp_imm_edges_0x3ff+0x24>
    13ac:	270002ef          	jal	x5,161c <failedtest_x5_x4>
    13b0:	00001394          	.word	0x00001394
    13b4:	0000536d          	.word	0x0000536d
    13b8:	00440413          	addi	x8,x8,4
  nop
  nop
#endif

# Testcase cp_imm_edges (imm = 1024)
  RVTEST_TESTDATA_LOAD_INT(x1, x9) # load rs2: x9 = 0x3b6d51b2
    13bc:	0000a483          	lw	x9,0(x1)
    13c0:	00408093          	addi	x1,x1,4
  mv x25, x8 # move signature pointer register
    13c4:	00040c93          	addi	x25,x8,0
  addi x25, x25, -1024 # adjust base address for offset
    13c8:	c00c8c93          	addi	x25,x25,-1024

000013cc <I_sw_cg_cp_imm_edges_0x400>:
I_sw_cg_cp_imm_edges_0x400:
  sw x9, 1024(x25) # perform store
    13cc:	409ca023          	sw	x9,1024(x25)
  addi x25, x25, 1024 # restore base address
    13d0:	400c8c93          	addi	x25,x25,1024
  addi x25, x25, SIG_STRIDE # increment signature pointer
    13d4:	004c8c93          	addi	x25,x25,4
#ifdef RVTEST_SELFCHECK
  LREG x29, -SIG_STRIDE(x25) # load stored value for checking
    13d8:	ffccae83          	lw	x29,-4(x25)
  # Check if x29 contains the expected result. x25 is the signature ptr, x5 is the link ptr, x4 is a temp reg.
  RVTEST_SIGUPD(x25, x5, x4, x29, I_sw_cg_cp_imm_edges_0x400, I_sw_cg_cp_imm_edges_0x400_str)
    13dc:	000ca203          	lw	x4,0(x25)
    13e0:	01d20863          	beq	x4,x29,13f0 <I_sw_cg_cp_imm_edges_0x400+0x24>
    13e4:	238002ef          	jal	x5,161c <failedtest_x5_x4>
    13e8:	000013cc          	.word	0x000013cc
    13ec:	000053a3          	.word	0x000053a3
    13f0:	004c8c93          	addi	x25,x25,4
  nop
  nop
#endif

# Testcase cp_imm_edges (imm = 1795)
  RVTEST_TESTDATA_LOAD_INT(x1, x27) # load rs2: x27 = 0x6bda5c4e
    13f4:	0000ad83          	lw	x27,0(x1)
    13f8:	00408093          	addi	x1,x1,4
  mv x3, x25 # move signature pointer register
    13fc:	000c8193          	addi	x3,x25,0
  addi x3, x3, -1795 # adjust base address for offset
    1400:	8fd18193          	addi	x3,x3,-1795

00001404 <I_sw_cg_cp_imm_edges_0x703>:
I_sw_cg_cp_imm_edges_0x703:
  sw x27, 1795(x3) # perform store
    1404:	71b1a1a3          	sw	x27,1795(x3)
  addi x3, x3, 1795 # restore base address
    1408:	70318193          	addi	x3,x3,1795
  addi x3, x3, SIG_STRIDE # increment signature pointer
    140c:	00418193          	addi	x3,x3,4
#ifdef RVTEST_SELFCHECK
  LREG x21, -SIG_STRIDE(x3) # load stored value for checking
    1410:	ffc1aa83          	lw	x21,-4(x3)
  # Check if x21 contains the expected result. x3 is the signature ptr, x5 is the link ptr, x4 is a temp reg.
  RVTEST_SIGUPD(x3, x5, x4, x21, I_sw_cg_cp_imm_edges_0x703, I_sw_cg_cp_imm_edges_0x703_str)
    1414:	0001a203          	lw	x4,0(x3)
    1418:	01520863          	beq	x4,x21,1428 <I_sw_cg_cp_imm_edges_0x703+0x24>
    141c:	200002ef          	jal	x5,161c <failedtest_x5_x4>
    1420:	00001404          	.word	0x00001404
    1424:	000053d9          	.word	0x000053d9
    1428:	00418193          	addi	x3,x3,4
  nop
  nop
#endif

# Testcase cp_imm_edges (imm = 2047)
  RVTEST_TESTDATA_LOAD_INT(x1, x21) # load rs2: x21 = 0xdb727b24
    142c:	0000aa83          	lw	x21,0(x1)
    1430:	00408093          	addi	x1,x1,4
  mv x12, x3 # move signature pointer register
    1434:	00018613          	addi	x12,x3,0
  addi x12, x12, -2047 # adjust base address for offset
    1438:	80160613          	addi	x12,x12,-2047

0000143c <I_sw_cg_cp_imm_edges_0x7ff>:
I_sw_cg_cp_imm_edges_0x7ff:
  sw x21, 2047(x12) # perform store
    143c:	7f562fa3          	sw	x21,2047(x12)
  addi x12, x12, 2047 # restore base address
    1440:	7ff60613          	addi	x12,x12,2047
  addi x12, x12, SIG_STRIDE # increment signature pointer
    1444:	00460613          	addi	x12,x12,4
#ifdef RVTEST_SELFCHECK
  LREG x8, -SIG_STRIDE(x12) # load stored value for checking
    1448:	ffc62403          	lw	x8,-4(x12)
  # Check if x8 contains the expected result. x12 is the signature ptr, x5 is the link ptr, x4 is a temp reg.
  RVTEST_SIGUPD(x12, x5, x4, x8, I_sw_cg_cp_imm_edges_0x7ff, I_sw_cg_cp_imm_edges_0x7ff_str)
    144c:	00062203          	lw	x4,0(x12)
    1450:	00820863          	beq	x4,x8,1460 <I_sw_cg_cp_imm_edges_0x7ff+0x24>
    1454:	1c8002ef          	jal	x5,161c <failedtest_x5_x4>
    1458:	0000143c          	.word	0x0000143c
    145c:	0000540f          	.word	0x0000540f
    1460:	00460613          	addi	x12,x12,4
  nop
  nop
#endif

# Testcase cp_imm_edges (imm = -2048)
  RVTEST_TESTDATA_LOAD_INT(x1, x25) # load rs2: x25 = 0x7b506ebf
    1464:	0000ac83          	lw	x25,0(x1)
    1468:	00408093          	addi	x1,x1,4
  mv x27, x12 # move signature pointer register
    146c:	00060d93          	addi	x27,x12,0
  addi x27, x27, 2047 # increment by 2047
    1470:	7ffd8d93          	addi	x27,x27,2047
  addi x27, x27, 1 # increment by 1 more for total +2048
    1474:	001d8d93          	addi	x27,x27,1

00001478 <I_sw_cg_cp_imm_edges_m0x800>:
I_sw_cg_cp_imm_edges_m0x800:
  sw x25, -2048(x27) # perform store
    1478:	819da023          	sw	x25,-2048(x27)
  addi x27, x27, -2048 # restore base address
    147c:	800d8d93          	addi	x27,x27,-2048
  addi x27, x27, SIG_STRIDE # increment signature pointer
    1480:	004d8d93          	addi	x27,x27,4
#ifdef RVTEST_SELFCHECK
  LREG x7, -SIG_STRIDE(x27) # load stored value for checking
    1484:	ffcda383          	lw	x7,-4(x27)
  # Check if x7 contains the expected result. x27 is the signature ptr, x5 is the link ptr, x4 is a temp reg.
  RVTEST_SIGUPD(x27, x5, x4, x7, I_sw_cg_cp_imm_edges_m0x800, I_sw_cg_cp_imm_edges_m0x800_str)
    1488:	000da203          	lw	x4,0(x27)
    148c:	00720863          	beq	x4,x7,149c <I_sw_cg_cp_imm_edges_m0x800+0x24>
    1490:	18c002ef          	jal	x5,161c <failedtest_x5_x4>
    1494:	00001478          	.word	0x00001478
    1498:	00005445          	.word	0x00005445
    149c:	004d8d93          	addi	x27,x27,4
  nop
  nop
#endif

# Testcase cp_imm_edges (imm = -2047)
  RVTEST_TESTDATA_LOAD_INT(x1, x31) # load rs2: x31 = 0x08c1c774
    14a0:	0000af83          	lw	x31,0(x1)
    14a4:	00408093          	addi	x1,x1,4
  mv x19, x27 # move signature pointer register
    14a8:	000d8993          	addi	x19,x27,0
  addi x19, x19, 2047 # adjust base address for offset
    14ac:	7ff98993          	addi	x19,x19,2047

000014b0 <I_sw_cg_cp_imm_edges_m0x7ff>:
I_sw_cg_cp_imm_edges_m0x7ff:
  sw x31, -2047(x19) # perform store
    14b0:	81f9a0a3          	sw	x31,-2047(x19)
  addi x19, x19, -2047 # restore base address
    14b4:	80198993          	addi	x19,x19,-2047
  addi x19, x19, SIG_STRIDE # increment signature pointer
    14b8:	00498993          	addi	x19,x19,4
#ifdef RVTEST_SELFCHECK
  LREG x8, -SIG_STRIDE(x19) # load stored value for checking
    14bc:	ffc9a403          	lw	x8,-4(x19)
  # Check if x8 contains the expected result. x19 is the signature ptr, x5 is the link ptr, x4 is a temp reg.
  RVTEST_SIGUPD(x19, x5, x4, x8, I_sw_cg_cp_imm_edges_m0x7ff, I_sw_cg_cp_imm_edges_m0x7ff_str)
    14c0:	0009a203          	lw	x4,0(x19)
    14c4:	00820863          	beq	x4,x8,14d4 <I_sw_cg_cp_imm_edges_m0x7ff+0x24>
    14c8:	154002ef          	jal	x5,161c <failedtest_x5_x4>
    14cc:	000014b0          	.word	0x000014b0
    14d0:	0000547c          	.word	0x0000547c
    14d4:	00498993          	addi	x19,x19,4
  nop
  nop
#endif

# Testcase cp_imm_edges (imm = -2)
  RVTEST_TESTDATA_LOAD_INT(x1, x18) # load rs2: x18 = 0x38eb4e13
    14d8:	0000a903          	lw	x18,0(x1)
    14dc:	00408093          	addi	x1,x1,4
  mv x13, x19 # move signature pointer register
    14e0:	00098693          	addi	x13,x19,0
  addi x13, x13, 2 # adjust base address for offset
    14e4:	00268693          	addi	x13,x13,2

000014e8 <I_sw_cg_cp_imm_edges_m0x2>:
I_sw_cg_cp_imm_edges_m0x2:
  sw x18, -2(x13) # perform store
    14e8:	ff26af23          	sw	x18,-2(x13)
  addi x13, x13, -2 # restore base address
    14ec:	ffe68693          	addi	x13,x13,-2
  addi x13, x13, SIG_STRIDE # increment signature pointer
    14f0:	00468693          	addi	x13,x13,4
#ifdef RVTEST_SELFCHECK
  LREG x21, -SIG_STRIDE(x13) # load stored value for checking
    14f4:	ffc6aa83          	lw	x21,-4(x13)
  # Check if x21 contains the expected result. x13 is the signature ptr, x5 is the link ptr, x4 is a temp reg.
  RVTEST_SIGUPD(x13, x5, x4, x21, I_sw_cg_cp_imm_edges_m0x2, I_sw_cg_cp_imm_edges_m0x2_str)
    14f8:	0006a203          	lw	x4,0(x13)
    14fc:	01520863          	beq	x4,x21,150c <I_sw_cg_cp_imm_edges_m0x2+0x24>
    1500:	11c002ef          	jal	x5,161c <failedtest_x5_x4>
    1504:	000014e8          	.word	0x000014e8
    1508:	000054b3          	.word	0x000054b3
    150c:	00468693          	addi	x13,x13,4
  nop
  nop
#endif

# Testcase cp_imm_edges (imm = -1)
  RVTEST_TESTDATA_LOAD_INT(x1, x27) # load rs2: x27 = 0x9fe8a559
    1510:	0000ad83          	lw	x27,0(x1)
    1514:	00408093          	addi	x1,x1,4
  mv x10, x13 # move signature pointer register
    1518:	00068513          	addi	x10,x13,0
  addi x10, x10, 1 # adjust base address for offset
    151c:	00150513          	addi	x10,x10,1

00001520 <I_sw_cg_cp_imm_edges_m0x1>:
I_sw_cg_cp_imm_edges_m0x1:
  sw x27, -1(x10) # perform store
    1520:	ffb52fa3          	sw	x27,-1(x10)
  addi x10, x10, -1 # restore base address
    1524:	fff50513          	addi	x10,x10,-1
  addi x10, x10, SIG_STRIDE # increment signature pointer
    1528:	00450513          	addi	x10,x10,4
#ifdef RVTEST_SELFCHECK
  LREG x7, -SIG_STRIDE(x10) # load stored value for checking
    152c:	ffc52383          	lw	x7,-4(x10)
  # Check if x7 contains the expected result. x10 is the signature ptr, x5 is the link ptr, x4 is a temp reg.
  RVTEST_SIGUPD(x10, x5, x4, x7, I_sw_cg_cp_imm_edges_m0x1, I_sw_cg_cp_imm_edges_m0x1_str)
    1530:	00052203          	lw	x4,0(x10)
    1534:	00720863          	beq	x4,x7,1544 <I_sw_cg_cp_imm_edges_m0x1+0x24>
    1538:	0e4002ef          	jal	x5,161c <failedtest_x5_x4>
    153c:	00001520          	.word	0x00001520
    1540:	000054e8          	.word	0x000054e8
    1544:	00450513          	addi	x10,x10,4
/////////////////////////////////
// cp_align_word
/////////////////////////////////

# Testcase: cp_align_word (imm[2:0] = 000)
  RVTEST_TESTDATA_LOAD_INT(x1, x17) # load rs2: x17 = 0x827b58ec
    1548:	0000a883          	lw	x17,0(x1)
    154c:	00408093          	addi	x1,x1,4

00001550 <I_sw_cg_cp_align_word_b0>:
I_sw_cg_cp_align_word_b0:
  sw x17, 0(x10) # perform store
    1550:	01152023          	sw	x17,0(x10)
  addi x10, x10, 8 # increment signature pointer
    1554:	00850513          	addi	x10,x10,8
#ifdef RVTEST_SELFCHECK
  LREG x6, -8(x10) # load stored value for checking
    1558:	ff852303          	lw	x6,-8(x10)
  # Check if x6 contains the expected result. x10 is the signature ptr, x5 is the link ptr, x4 is a temp reg.
  RVTEST_SIGUPD(x10, x5, x4, x6, I_sw_cg_cp_align_word_b0, I_sw_cg_cp_align_word_b0_str)
    155c:	00052203          	lw	x4,0(x10)
    1560:	00620863          	beq	x4,x6,1570 <I_sw_cg_cp_align_word_b0+0x20>
    1564:	0b8002ef          	jal	x5,161c <failedtest_x5_x4>
    1568:	00001550          	.word	0x00001550
    156c:	0000551d          	.word	0x0000551d
    1570:	00450513          	addi	x10,x10,4
  LREG x6, -8(x10) # load stored value for checking
    1574:	ff852303          	lw	x6,-8(x10)
  # Check if x6 contains the expected result. x10 is the signature ptr, x5 is the link ptr, x4 is a temp reg.
  RVTEST_SIGUPD(x10, x5, x4, x6, I_sw_cg_cp_align_word_b0, I_sw_cg_cp_align_word_b0_str)
    1578:	00052203          	lw	x4,0(x10)
    157c:	00620863          	beq	x4,x6,158c <I_sw_cg_cp_align_word_b0+0x3c>
    1580:	09c002ef          	jal	x5,161c <failedtest_x5_x4>
    1584:	00001550          	.word	0x00001550
    1588:	0000551d          	.word	0x0000551d
    158c:	00450513          	addi	x10,x10,4
  nop
  nop
#endif

# Testcase: cp_align_word (imm[2:0] = 100)
  RVTEST_TESTDATA_LOAD_INT(x1, x22) # load rs2: x22 = 0xa6f52c8c
    1590:	0000ab03          	lw	x22,0(x1)
    1594:	00408093          	addi	x1,x1,4

00001598 <I_sw_cg_cp_align_word_b4>:
I_sw_cg_cp_align_word_b4:
  sw x22, 4(x10) # perform store
    1598:	01652223          	sw	x22,4(x10)
  addi x10, x10, 8 # increment signature pointer
    159c:	00850513          	addi	x10,x10,8
#ifdef RVTEST_SELFCHECK
  LREG x14, -8(x10) # load stored value for checking
    15a0:	ff852703          	lw	x14,-8(x10)
  # Check if x14 contains the expected result. x10 is the signature ptr, x5 is the link ptr, x4 is a temp reg.
  RVTEST_SIGUPD(x10, x5, x4, x14, I_sw_cg_cp_align_word_b4, I_sw_cg_cp_align_word_b4_str)
    15a4:	00052203          	lw	x4,0(x10)
    15a8:	00e20863          	beq	x4,x14,15b8 <I_sw_cg_cp_align_word_b4+0x20>
    15ac:	070002ef          	jal	x5,161c <failedtest_x5_x4>
    15b0:	00001598          	.word	0x00001598
    15b4:	00005551          	.word	0x00005551
    15b8:	00450513          	addi	x10,x10,4
  LREG x14, -8(x10) # load stored value for checking
    15bc:	ff852703          	lw	x14,-8(x10)
  # Check if x14 contains the expected result. x10 is the signature ptr, x5 is the link ptr, x4 is a temp reg.
  RVTEST_SIGUPD(x10, x5, x4, x14, I_sw_cg_cp_align_word_b4, I_sw_cg_cp_align_word_b4_str)
    15c0:	00052203          	lw	x4,0(x10)
    15c4:	00e20863          	beq	x4,x14,15d4 <I_sw_cg_cp_align_word_b4+0x3c>
    15c8:	054002ef          	jal	x5,161c <failedtest_x5_x4>
    15cc:	00001598          	.word	0x00001598
    15d0:	00005551          	.word	0x00005551
    15d4:	00450513          	addi	x10,x10,4
  nop
  nop
#endif


  mv x2, x10 # restore signature pointer to default register for teardown
    15d8:	00050113          	addi	x2,x10,0

000015dc <cleanup_epilogs>:
    15dc:	00000013          	addi	x0,x0,0

// Instantiate trap handlers and other epilog code, call RVMODEL_HALT at end of test
RVTEST_CODE_END
    15e0:	00004517          	auipc	x10,0x4
    15e4:	61450513          	addi	x10,x10,1556 # 5bf4 <successstr>
    15e8:	00000013          	addi	x0,x0,0
    15ec:	00000013          	addi	x0,x0,0
    15f0:	00000013          	addi	x0,x0,0
    15f4:	00000013          	addi	x0,x0,0
    15f8:	00000013          	addi	x0,x0,0
    15fc:	00000013          	addi	x0,x0,0
    1600:	00016097          	auipc	x1,0x16
    1604:	c04080e7          	jalr	x1,-1020(x1) # 17204 <rvmodel_io_write_str>
    1608:	00016097          	auipc	x1,0x16
    160c:	c00080e7          	jalr	x1,-1024(x1) # 17208 <rvmodel_halt_pass>

00001610 <abort_test>:
    1610:	bad0e737          	lui	x14,0xbad0e
    1614:	ead70713          	addi	x14,x14,-339 # bad0dead <absimm+0x4b743ba4>
    1618:	fc5ff06f          	jal	x0,15dc <cleanup_epilogs>

0000161c <failedtest_x5_x4>:
    161c:	00004217          	auipc	x4,0x4
    1620:	f7420213          	addi	x4,x4,-140 # 5590 <begin_failure_scratch>
    1624:	02522423          	sw	x5,40(x4) # 28 <MMODE_SIG+0x25>
    1628:	00122423          	sw	x1,8(x4) # 8 <MMODE_SIG+0x5>
    162c:	00022023          	sw	x0,0(x4) # 0 <rvtest_entry_point>
    1630:	0b00006f          	jal	x0,16e0 <failedtest_saveregs>

00001634 <failedtest_x8_x7>:
    1634:	00004397          	auipc	x7,0x4
    1638:	f5c38393          	addi	x7,x7,-164 # 5590 <begin_failure_scratch>
    163c:	0483a023          	sw	x8,64(x7)
    1640:	0243a023          	sw	x4,32(x7)
    1644:	0253a423          	sw	x5,40(x7)
    1648:	0013a423          	sw	x1,8(x7)
    164c:	0003a023          	sw	x0,0(x7)
    1650:	00038213          	addi	x4,x7,0
    1654:	00040293          	addi	x5,x8,0
    1658:	0880006f          	jal	x0,16e0 <failedtest_saveregs>

0000165c <failedtest_x14_x13>:
    165c:	00004697          	auipc	x13,0x4
    1660:	f3468693          	addi	x13,x13,-204 # 5590 <begin_failure_scratch>
    1664:	06e6a823          	sw	x14,112(x13)
    1668:	0246a023          	sw	x4,32(x13)
    166c:	0256a423          	sw	x5,40(x13)
    1670:	0016a423          	sw	x1,8(x13)
    1674:	0006a023          	sw	x0,0(x13)
    1678:	00068213          	addi	x4,x13,0
    167c:	00070293          	addi	x5,x14,0
    1680:	0600006f          	jal	x0,16e0 <failedtest_saveregs>

00001684 <failedtest_trap_x7_x9>:
    1684:	00004497          	auipc	x9,0x4
    1688:	f0c48493          	addi	x9,x9,-244 # 5590 <begin_failure_scratch>
    168c:	0674a423          	sw	x7,104(x9)
    1690:	0244a023          	sw	x4,32(x9)
    1694:	0254a423          	sw	x5,40(x9)
    1698:	0014a423          	sw	x1,8(x9)
    169c:	00300093          	addi	x1,x0,3
    16a0:	0014a023          	sw	x1,0(x9)
    16a4:	00048213          	addi	x4,x9,0
    16a8:	00038293          	addi	x5,x7,0
    16ac:	342020f3          	csrrs	x1,mcause,x0
    16b0:	00004497          	auipc	x9,0x4
    16b4:	05048493          	addi	x9,x9,80 # 5700 <saved_mcause>
    16b8:	0014a023          	sw	x1,0(x9)
    16bc:	343020f3          	csrrs	x1,mtval,x0
    16c0:	00004497          	auipc	x9,0x4
    16c4:	04848493          	addi	x9,x9,72 # 5708 <saved_mtval>
    16c8:	0014a023          	sw	x1,0(x9)
    16cc:	300020f3          	csrrs	x1,mstatus,x0
    16d0:	00004497          	auipc	x9,0x4
    16d4:	04048493          	addi	x9,x9,64 # 5710 <saved_mstatus>
    16d8:	0014a023          	sw	x1,0(x9)
    16dc:	0040006f          	jal	x0,16e0 <failedtest_saveregs>

000016e0 <failedtest_saveregs>:
    16e0:	00222823          	sw	x2,16(x4) # 10 <MMODE_SIG+0xd>
    16e4:	00322c23          	sw	x3,24(x4) # 18 <MMODE_SIG+0x15>
    16e8:	02622823          	sw	x6,48(x4) # 30 <MMODE_SIG+0x2d>
    16ec:	02722c23          	sw	x7,56(x4) # 38 <MMODE_SIG+0x35>
    16f0:	04822023          	sw	x8,64(x4) # 40 <rvtest_code_begin>
    16f4:	04922423          	sw	x9,72(x4) # 48 <rvtest_code_begin+0x8>
    16f8:	04a22823          	sw	x10,80(x4) # 50 <I_sw_cg_cp_rs1_nx0_b1>
    16fc:	04b22c23          	sw	x11,88(x4) # 58 <I_sw_cg_cp_rs1_nx0_b1+0x8>
    1700:	06c22023          	sw	x12,96(x4) # 60 <I_sw_cg_cp_rs1_nx0_b1+0x10>
    1704:	06d22423          	sw	x13,104(x4) # 68 <I_sw_cg_cp_rs1_nx0_b1+0x18>
    1708:	06e22823          	sw	x14,112(x4) # 70 <I_sw_cg_cp_rs1_nx0_b1+0x20>
    170c:	06f22c23          	sw	x15,120(x4) # 78 <I_sw_cg_cp_rs1_nx0_b1+0x28>
    1710:	09022023          	sw	x16,128(x4) # 80 <I_sw_cg_cp_rs1_nx0_b1+0x30>
    1714:	09122423          	sw	x17,136(x4) # 88 <I_sw_cg_cp_rs1_nx0_b2>
    1718:	09222823          	sw	x18,144(x4) # 90 <I_sw_cg_cp_rs1_nx0_b2+0x8>
    171c:	09322c23          	sw	x19,152(x4) # 98 <I_sw_cg_cp_rs1_nx0_b2+0x10>
    1720:	0b422023          	sw	x20,160(x4) # a0 <I_sw_cg_cp_rs1_nx0_b2+0x18>
    1724:	0b522423          	sw	x21,168(x4) # a8 <I_sw_cg_cp_rs1_nx0_b2+0x20>
    1728:	0b622823          	sw	x22,176(x4) # b0 <I_sw_cg_cp_rs1_nx0_b2+0x28>
    172c:	0b722c23          	sw	x23,184(x4) # b8 <I_sw_cg_cp_rs1_nx0_b2+0x30>
    1730:	0d822023          	sw	x24,192(x4) # c0 <I_sw_cg_cp_rs1_nx0_b2+0x38>
    1734:	0d922423          	sw	x25,200(x4) # c8 <I_sw_cg_cp_rs1_nx0_b3+0x4>
    1738:	0da22823          	sw	x26,208(x4) # d0 <I_sw_cg_cp_rs1_nx0_b3+0xc>
    173c:	0db22c23          	sw	x27,216(x4) # d8 <I_sw_cg_cp_rs1_nx0_b3+0x14>
    1740:	0fc22023          	sw	x28,224(x4) # e0 <I_sw_cg_cp_rs1_nx0_b3+0x1c>
    1744:	0fd22423          	sw	x29,232(x4) # e8 <I_sw_cg_cp_rs1_nx0_b3+0x24>
    1748:	0fe22823          	sw	x30,240(x4) # f0 <I_sw_cg_cp_rs1_nx0_b3+0x2c>
    174c:	0ff22c23          	sw	x31,248(x4) # f8 <I_sw_cg_cp_rs1_nx0_b3+0x34>

00001750 <failedtest_saveresults>:
    1750:	00004497          	auipc	x9,0x4
    1754:	e404a483          	lw	x9,-448(x9) # 5590 <begin_failure_scratch>
    1758:	00300513          	addi	x10,x0,3
    175c:	06a48863          	beq	x9,x10,17cc <failedtest_saveresults_trap>

00001760 <failedtest_saveresults_int>:
    1760:	ffa2d303          	lhu	x6,-6(x5)
    1764:	ff82d383          	lhu	x7,-8(x5)
    1768:	01031313          	slli	x6,x6,0x10
    176c:	00736333          	or	x6,x6,x7
    1770:	00f35393          	srli	x7,x6,0xf
    1774:	01f3f393          	andi	x7,x7,31
    1778:	01435413          	srli	x8,x6,0x14
    177c:	01f47413          	andi	x8,x8,31
    1780:	10822223          	sw	x8,260(x4) # 104 <I_sw_cg_cp_rs1_nx0_b4>
    1784:	00341313          	slli	x6,x8,0x3
    1788:	00620333          	add	x6,x4,x6
    178c:	00032303          	lw	x6,0(x6)
    1790:	10622823          	sw	x6,272(x4) # 110 <I_sw_cg_cp_rs1_nx0_b4+0xc>
    1794:	ff62d303          	lhu	x6,-10(x5)
    1798:	ff42d383          	lhu	x7,-12(x5)
    179c:	01031313          	slli	x6,x6,0x10
    17a0:	00736333          	or	x6,x6,x7
    17a4:	41435393          	srai	x7,x6,0x14
    17a8:	00f35313          	srli	x6,x6,0xf
    17ac:	01f37313          	andi	x6,x6,31
    17b0:	00331313          	slli	x6,x6,0x3
    17b4:	00620333          	add	x6,x4,x6
    17b8:	00032303          	lw	x6,0(x6)
    17bc:	00730333          	add	x6,x6,x7
    17c0:	00032303          	lw	x6,0(x6)
    17c4:	10622c23          	sw	x6,280(x4) # 118 <I_sw_cg_cp_rs1_nx0_b4+0x14>
    17c8:	3d80006f          	jal	x0,1ba0 <failedtest_saveresults_common>

000017cc <failedtest_saveresults_trap>:
    17cc:	0042a303          	lw	x6,4(x5)
    17d0:	00004817          	auipc	x16,0x4
    17d4:	f1880813          	addi	x16,x16,-232 # 56e8 <trap_diag_fail_str_ptr>
    17d8:	00682023          	sw	x6,0(x16)
    17dc:	0002a303          	lw	x6,0(x5)
    17e0:	10622423          	sw	x6,264(x4) # 108 <I_sw_cg_cp_rs1_nx0_b4+0x4>
    17e4:	00004817          	auipc	x16,0x4
    17e8:	f0480813          	addi	x16,x16,-252 # 56e8 <trap_diag_fail_str_ptr>
    17ec:	00082303          	lw	x6,0(x16)
    17f0:	00004397          	auipc	x7,0x4
    17f4:	5c838393          	addi	x7,x7,1480 # 5db8 <trap_sig_offset_mismatch>
    17f8:	28730463          	beq	x6,x7,1a80 <trap_diag_offset_mismatch>
    17fc:	00000413          	addi	x8,x0,0
    1800:	00004817          	auipc	x16,0x4
    1804:	ec080813          	addi	x16,x16,-320 # 56c0 <trap_diag_subtype>
    1808:	00882023          	sw	x8,0(x16)
    180c:	00004397          	auipc	x7,0x4
    1810:	61038393          	addi	x7,x7,1552 # 5e1c <sv_Mvect_str>
    1814:	00731863          	bne	x6,x7,1824 <failedtest_saveresults_trap+0x58>
    1818:	00100413          	addi	x8,x0,1
    181c:	00000493          	addi	x9,x0,0
    1820:	2e00006f          	jal	x0,1b00 <trap_diag_field_identified>
    1824:	00004397          	auipc	x7,0x4
    1828:	6fa38393          	addi	x7,x7,1786 # 5f1e <sv_Mcause_str>
    182c:	00731863          	bne	x6,x7,183c <failedtest_saveresults_trap+0x70>
    1830:	00200413          	addi	x8,x0,2
    1834:	00000493          	addi	x9,x0,0
    1838:	2c80006f          	jal	x0,1b00 <trap_diag_field_identified>
    183c:	00004397          	auipc	x7,0x4
    1840:	7dd38393          	addi	x7,x7,2013 # 6019 <sv_Mepc_str>
    1844:	00731863          	bne	x6,x7,1854 <failedtest_saveresults_trap+0x88>
    1848:	00300413          	addi	x8,x0,3
    184c:	00000493          	addi	x9,x0,0
    1850:	2b00006f          	jal	x0,1b00 <trap_diag_field_identified>
    1854:	00005397          	auipc	x7,0x5
    1858:	8b838393          	addi	x7,x7,-1864 # 610c <sv_Mtval_str>
    185c:	00731863          	bne	x6,x7,186c <failedtest_saveresults_trap+0xa0>
    1860:	00400413          	addi	x8,x0,4
    1864:	00000493          	addi	x9,x0,0
    1868:	2980006f          	jal	x0,1b00 <trap_diag_field_identified>
    186c:	00005397          	auipc	x7,0x5
    1870:	a1338393          	addi	x7,x7,-1517 # 627f <sv_Mip_str>
    1874:	00731863          	bne	x6,x7,1884 <failedtest_saveresults_trap+0xb8>
    1878:	00500413          	addi	x8,x0,5
    187c:	00000493          	addi	x9,x0,0
    1880:	2800006f          	jal	x0,1b00 <trap_diag_field_identified>
    1884:	00005397          	auipc	x7,0x5
    1888:	97f38393          	addi	x7,x7,-1665 # 6203 <sv_Mtval2_str>
    188c:	00731863          	bne	x6,x7,189c <failedtest_saveresults_trap+0xd0>
    1890:	00600413          	addi	x8,x0,6
    1894:	00000493          	addi	x9,x0,0
    1898:	2680006f          	jal	x0,1b00 <trap_diag_field_identified>
    189c:	00005397          	auipc	x7,0x5
    18a0:	9a538393          	addi	x7,x7,-1627 # 6241 <sv_Mtinst_str>
    18a4:	00731863          	bne	x6,x7,18b4 <failedtest_saveresults_trap+0xe8>
    18a8:	00700413          	addi	x8,x0,7
    18ac:	00000493          	addi	x9,x0,0
    18b0:	2500006f          	jal	x0,1b00 <trap_diag_field_identified>
    18b4:	00004397          	auipc	x7,0x4
    18b8:	5a838393          	addi	x7,x7,1448 # 5e5c <sv_Svect_str>
    18bc:	00731863          	bne	x6,x7,18cc <failedtest_saveresults_trap+0x100>
    18c0:	00100413          	addi	x8,x0,1
    18c4:	00100493          	addi	x9,x0,1
    18c8:	2380006f          	jal	x0,1b00 <trap_diag_field_identified>
    18cc:	00004397          	auipc	x7,0x4
    18d0:	69038393          	addi	x7,x7,1680 # 5f5c <sv_Scause_str>
    18d4:	00731863          	bne	x6,x7,18e4 <failedtest_saveresults_trap+0x118>
    18d8:	00200413          	addi	x8,x0,2
    18dc:	00100493          	addi	x9,x0,1
    18e0:	2200006f          	jal	x0,1b00 <trap_diag_field_identified>
    18e4:	00004397          	auipc	x7,0x4
    18e8:	77138393          	addi	x7,x7,1905 # 6055 <sv_Sepc_str>
    18ec:	00731863          	bne	x6,x7,18fc <failedtest_saveresults_trap+0x130>
    18f0:	00300413          	addi	x8,x0,3
    18f4:	00100493          	addi	x9,x0,1
    18f8:	2080006f          	jal	x0,1b00 <trap_diag_field_identified>
    18fc:	00005397          	auipc	x7,0x5
    1900:	84d38393          	addi	x7,x7,-1971 # 6149 <sv_Stval_str>
    1904:	00731863          	bne	x6,x7,1914 <failedtest_saveresults_trap+0x148>
    1908:	00400413          	addi	x8,x0,4
    190c:	00100493          	addi	x9,x0,1
    1910:	1f00006f          	jal	x0,1b00 <trap_diag_field_identified>
    1914:	00005397          	auipc	x7,0x5
    1918:	9a638393          	addi	x7,x7,-1626 # 62ba <sv_Sip_str>
    191c:	00731863          	bne	x6,x7,192c <failedtest_saveresults_trap+0x160>
    1920:	00500413          	addi	x8,x0,5
    1924:	00100493          	addi	x9,x0,1
    1928:	1d80006f          	jal	x0,1b00 <trap_diag_field_identified>
    192c:	00004397          	auipc	x7,0x4
    1930:	57038393          	addi	x7,x7,1392 # 5e9c <sv_Hvect_str>
    1934:	00731863          	bne	x6,x7,1944 <failedtest_saveresults_trap+0x178>
    1938:	00100413          	addi	x8,x0,1
    193c:	00200493          	addi	x9,x0,2
    1940:	1c00006f          	jal	x0,1b00 <trap_diag_field_identified>
    1944:	00004397          	auipc	x7,0x4
    1948:	65638393          	addi	x7,x7,1622 # 5f9a <sv_Hcause_str>
    194c:	00731863          	bne	x6,x7,195c <failedtest_saveresults_trap+0x190>
    1950:	00200413          	addi	x8,x0,2
    1954:	00200493          	addi	x9,x0,2
    1958:	1a80006f          	jal	x0,1b00 <trap_diag_field_identified>
    195c:	00004397          	auipc	x7,0x4
    1960:	73538393          	addi	x7,x7,1845 # 6091 <sv_Hepc_str>
    1964:	00731863          	bne	x6,x7,1974 <failedtest_saveresults_trap+0x1a8>
    1968:	00300413          	addi	x8,x0,3
    196c:	00200493          	addi	x9,x0,2
    1970:	1900006f          	jal	x0,1b00 <trap_diag_field_identified>
    1974:	00005397          	auipc	x7,0x5
    1978:	81238393          	addi	x7,x7,-2030 # 6186 <sv_Htval_str>
    197c:	00731863          	bne	x6,x7,198c <failedtest_saveresults_trap+0x1c0>
    1980:	00400413          	addi	x8,x0,4
    1984:	00200493          	addi	x9,x0,2
    1988:	1780006f          	jal	x0,1b00 <trap_diag_field_identified>
    198c:	00005397          	auipc	x7,0x5
    1990:	96938393          	addi	x7,x7,-1687 # 62f5 <sv_Hip_str>
    1994:	00731863          	bne	x6,x7,19a4 <failedtest_saveresults_trap+0x1d8>
    1998:	00500413          	addi	x8,x0,5
    199c:	00200493          	addi	x9,x0,2
    19a0:	1600006f          	jal	x0,1b00 <trap_diag_field_identified>
    19a4:	00004397          	auipc	x7,0x4
    19a8:	53938393          	addi	x7,x7,1337 # 5edd <sv_Vvect_str>
    19ac:	00731863          	bne	x6,x7,19bc <failedtest_saveresults_trap+0x1f0>
    19b0:	00100413          	addi	x8,x0,1
    19b4:	00300493          	addi	x9,x0,3
    19b8:	1480006f          	jal	x0,1b00 <trap_diag_field_identified>
    19bc:	00004397          	auipc	x7,0x4
    19c0:	61d38393          	addi	x7,x7,1565 # 5fd9 <sv_Vcause_str>
    19c4:	00731863          	bne	x6,x7,19d4 <failedtest_saveresults_trap+0x208>
    19c8:	00200413          	addi	x8,x0,2
    19cc:	00300493          	addi	x9,x0,3
    19d0:	1300006f          	jal	x0,1b00 <trap_diag_field_identified>
    19d4:	00004397          	auipc	x7,0x4
    19d8:	6fa38393          	addi	x7,x7,1786 # 60ce <sv_Vepc_str>
    19dc:	00731863          	bne	x6,x7,19ec <failedtest_saveresults_trap+0x220>
    19e0:	00300413          	addi	x8,x0,3
    19e4:	00300493          	addi	x9,x0,3
    19e8:	1180006f          	jal	x0,1b00 <trap_diag_field_identified>
    19ec:	00004397          	auipc	x7,0x4
    19f0:	7d838393          	addi	x7,x7,2008 # 61c4 <sv_Vtval_str>
    19f4:	00731863          	bne	x6,x7,1a04 <failedtest_saveresults_trap+0x238>
    19f8:	00400413          	addi	x8,x0,4
    19fc:	00300493          	addi	x9,x0,3
    1a00:	1000006f          	jal	x0,1b00 <trap_diag_field_identified>
    1a04:	00005397          	auipc	x7,0x5
    1a08:	92d38393          	addi	x7,x7,-1747 # 6331 <sv_Vip_str>
    1a0c:	00731863          	bne	x6,x7,1a1c <failedtest_saveresults_trap+0x250>
    1a10:	00500413          	addi	x8,x0,5
    1a14:	00300493          	addi	x9,x0,3
    1a18:	0e80006f          	jal	x0,1b00 <trap_diag_field_identified>
    1a1c:	00005397          	auipc	x7,0x5
    1a20:	95238393          	addi	x7,x7,-1710 # 636e <Mclr_Mext_int_str>
    1a24:	00731863          	bne	x6,x7,1a34 <failedtest_saveresults_trap+0x268>
    1a28:	00800413          	addi	x8,x0,8
    1a2c:	00000493          	addi	x9,x0,0
    1a30:	0d00006f          	jal	x0,1b00 <trap_diag_field_identified>
    1a34:	00005397          	auipc	x7,0x5
    1a38:	98938393          	addi	x7,x7,-1655 # 63bd <Mclr_Sext_int_str>
    1a3c:	00731863          	bne	x6,x7,1a4c <failedtest_saveresults_trap+0x280>
    1a40:	00800413          	addi	x8,x0,8
    1a44:	00000493          	addi	x9,x0,0
    1a48:	0b80006f          	jal	x0,1b00 <trap_diag_field_identified>
    1a4c:	00005397          	auipc	x7,0x5
    1a50:	a6c38393          	addi	x7,x7,-1428 # 64b8 <Sclr_Sext_int_str>
    1a54:	00731863          	bne	x6,x7,1a64 <failedtest_saveresults_trap+0x298>
    1a58:	00800413          	addi	x8,x0,8
    1a5c:	00100493          	addi	x9,x0,1
    1a60:	0a00006f          	jal	x0,1b00 <trap_diag_field_identified>
    1a64:	00005397          	auipc	x7,0x5
    1a68:	b5038393          	addi	x7,x7,-1200 # 65b4 <Hclr_Sext_int_str>
    1a6c:	00731863          	bne	x6,x7,1a7c <failedtest_saveresults_trap+0x2b0>
    1a70:	00800413          	addi	x8,x0,8
    1a74:	00200493          	addi	x9,x0,2
    1a78:	0880006f          	jal	x0,1b00 <trap_diag_field_identified>
    1a7c:	1140006f          	jal	x0,1b90 <trap_diag_generic_report>

00001a80 <trap_diag_offset_mismatch>:
    1a80:	00900413          	addi	x8,x0,9
    1a84:	00004817          	auipc	x16,0x4
    1a88:	c3c80813          	addi	x16,x16,-964 # 56c0 <trap_diag_subtype>
    1a8c:	00882023          	sw	x8,0(x16)
    1a90:	ffa2d303          	lhu	x6,-6(x5)
    1a94:	ff82d383          	lhu	x7,-8(x5)
    1a98:	01031313          	slli	x6,x6,0x10
    1a9c:	00736333          	or	x6,x6,x7
    1aa0:	01435413          	srli	x8,x6,0x14
    1aa4:	01f47413          	andi	x8,x8,31
    1aa8:	00341313          	slli	x6,x8,0x3
    1aac:	00620333          	add	x6,x4,x6
    1ab0:	00032303          	lw	x6,0(x6)
    1ab4:	00004817          	auipc	x16,0x4
    1ab8:	c2480813          	addi	x16,x16,-988 # 56d8 <trap_diag_actual_offset>
    1abc:	00682023          	sw	x6,0(x16)
    1ac0:	ff62d303          	lhu	x6,-10(x5)
    1ac4:	ff42d383          	lhu	x7,-12(x5)
    1ac8:	01031313          	slli	x6,x6,0x10
    1acc:	00736333          	or	x6,x6,x7
    1ad0:	41435393          	srai	x7,x6,0x14
    1ad4:	00f35313          	srli	x6,x6,0xf
    1ad8:	01f37313          	andi	x6,x6,31
    1adc:	00331313          	slli	x6,x6,0x3
    1ae0:	00620333          	add	x6,x4,x6
    1ae4:	00032303          	lw	x6,0(x6)
    1ae8:	00730333          	add	x6,x6,x7
    1aec:	00032303          	lw	x6,0(x6)
    1af0:	00004817          	auipc	x16,0x4
    1af4:	bf080813          	addi	x16,x16,-1040 # 56e0 <trap_diag_expected_offset>
    1af8:	00682023          	sw	x6,0(x16)
    1afc:	0a40006f          	jal	x0,1ba0 <failedtest_saveresults_common>

00001b00 <trap_diag_field_identified>:
    1b00:	00004817          	auipc	x16,0x4
    1b04:	bc080813          	addi	x16,x16,-1088 # 56c0 <trap_diag_subtype>
    1b08:	00882023          	sw	x8,0(x16)
    1b0c:	00004817          	auipc	x16,0x4
    1b10:	bb880813          	addi	x16,x16,-1096 # 56c4 <trap_diag_mode>
    1b14:	00982023          	sw	x9,0(x16)
    1b18:	ffa2d303          	lhu	x6,-6(x5)
    1b1c:	ff82d383          	lhu	x7,-8(x5)
    1b20:	01031313          	slli	x6,x6,0x10
    1b24:	00736333          	or	x6,x6,x7
    1b28:	01435713          	srli	x14,x6,0x14
    1b2c:	01f77713          	andi	x14,x14,31
    1b30:	00371313          	slli	x6,x14,0x3
    1b34:	00620333          	add	x6,x4,x6
    1b38:	00032303          	lw	x6,0(x6)
    1b3c:	10622823          	sw	x6,272(x4) # 110 <I_sw_cg_cp_rs1_nx0_b4+0xc>
    1b40:	00004817          	auipc	x16,0x4
    1b44:	b8880813          	addi	x16,x16,-1144 # 56c8 <trap_diag_actual_value>
    1b48:	00682023          	sw	x6,0(x16)
    1b4c:	ff62d303          	lhu	x6,-10(x5)
    1b50:	ff42d383          	lhu	x7,-12(x5)
    1b54:	01031313          	slli	x6,x6,0x10
    1b58:	00736333          	or	x6,x6,x7
    1b5c:	41435393          	srai	x7,x6,0x14
    1b60:	00f35313          	srli	x6,x6,0xf
    1b64:	01f37313          	andi	x6,x6,31
    1b68:	00331313          	slli	x6,x6,0x3
    1b6c:	00620333          	add	x6,x4,x6
    1b70:	00032303          	lw	x6,0(x6)
    1b74:	00730333          	add	x6,x6,x7
    1b78:	00032303          	lw	x6,0(x6)
    1b7c:	10622c23          	sw	x6,280(x4) # 118 <I_sw_cg_cp_rs1_nx0_b4+0x14>
    1b80:	00004817          	auipc	x16,0x4
    1b84:	b5080813          	addi	x16,x16,-1200 # 56d0 <trap_diag_expected_value>
    1b88:	00682023          	sw	x6,0(x16)
    1b8c:	0140006f          	jal	x0,1ba0 <failedtest_saveresults_common>

00001b90 <trap_diag_generic_report>:
    1b90:	00004817          	auipc	x16,0x4
    1b94:	b3080813          	addi	x16,x16,-1232 # 56c0 <trap_diag_subtype>
    1b98:	00082023          	sw	x0,0(x16)
    1b9c:	0040006f          	jal	x0,1ba0 <failedtest_saveresults_common>

00001ba0 <failedtest_saveresults_common>:
    1ba0:	0002a303          	lw	x6,0(x5)
    1ba4:	10622423          	sw	x6,264(x4) # 108 <I_sw_cg_cp_rs1_nx0_b4+0x4>
    1ba8:	00035383          	lhu	x7,0(x6)
    1bac:	0033f413          	andi	x8,x7,3
    1bb0:	00300493          	addi	x9,x0,3
    1bb4:	00941863          	bne	x8,x9,1bc4 <failedtest_saveresults_common+0x24>
    1bb8:	00235403          	lhu	x8,2(x6)
    1bbc:	01041413          	slli	x8,x8,0x10
    1bc0:	0083e3b3          	or	x7,x7,x8
    1bc4:	10722023          	sw	x7,256(x4) # 100 <I_sw_cg_cp_rs1_nx0_b3+0x3c>
    1bc8:	0042a303          	lw	x6,4(x5)
    1bcc:	12622023          	sw	x6,288(x4) # 120 <I_sw_cg_cp_rs1_nx0_b4+0x1c>

00001bd0 <failedtest_report>:
    1bd0:	00000013          	addi	x0,x0,0
    1bd4:	00000013          	addi	x0,x0,0
    1bd8:	00000013          	addi	x0,x0,0
    1bdc:	00000013          	addi	x0,x0,0
    1be0:	00004517          	auipc	x10,0x4
    1be4:	04950513          	addi	x10,x10,73 # 5c29 <failstr>
    1be8:	00000013          	addi	x0,x0,0
    1bec:	00000013          	addi	x0,x0,0
    1bf0:	00000013          	addi	x0,x0,0
    1bf4:	00000013          	addi	x0,x0,0
    1bf8:	00000013          	addi	x0,x0,0
    1bfc:	00000013          	addi	x0,x0,0
    1c00:	00015097          	auipc	x1,0x15
    1c04:	604080e7          	jalr	x1,1540(x1) # 17204 <rvmodel_io_write_str>

00001c08 <print_testnamestr>:
    1c08:	00000013          	addi	x0,x0,0
    1c0c:	00000013          	addi	x0,x0,0
    1c10:	00000013          	addi	x0,x0,0
    1c14:	00000013          	addi	x0,x0,0
    1c18:	00000013          	addi	x0,x0,0
    1c1c:	00000013          	addi	x0,x0,0
    1c20:	00004517          	auipc	x10,0x4
    1c24:	09b50513          	addi	x10,x10,155 # 5cbb <testnamestr>
    1c28:	00000013          	addi	x0,x0,0
    1c2c:	00000013          	addi	x0,x0,0
    1c30:	00000013          	addi	x0,x0,0
    1c34:	00000013          	addi	x0,x0,0
    1c38:	00000013          	addi	x0,x0,0
    1c3c:	00000013          	addi	x0,x0,0
    1c40:	00015097          	auipc	x1,0x15
    1c44:	5c4080e7          	jalr	x1,1476(x1) # 17204 <rvmodel_io_write_str>

00001c48 <print_failure_test_name_str>:
    1c48:	00004517          	auipc	x10,0x4
    1c4c:	a6852503          	lw	x10,-1432(x10) # 56b0 <failure_string_ptr>
    1c50:	00015097          	auipc	x1,0x15
    1c54:	5b4080e7          	jalr	x1,1460(x1) # 17204 <rvmodel_io_write_str>

00001c58 <print_newline_str>:
    1c58:	00000013          	addi	x0,x0,0
    1c5c:	00000013          	addi	x0,x0,0
    1c60:	00004517          	auipc	x10,0x4
    1c64:	06d50513          	addi	x10,x10,109 # 5ccd <newlinestr>
    1c68:	00000013          	addi	x0,x0,0
    1c6c:	00000013          	addi	x0,x0,0
    1c70:	00000013          	addi	x0,x0,0
    1c74:	00000013          	addi	x0,x0,0
    1c78:	00000013          	addi	x0,x0,0
    1c7c:	00000013          	addi	x0,x0,0
    1c80:	00015097          	auipc	x1,0x15
    1c84:	584080e7          	jalr	x1,1412(x1) # 17204 <rvmodel_io_write_str>
    1c88:	00004517          	auipc	x10,0x4
    1c8c:	90852503          	lw	x10,-1784(x10) # 5590 <begin_failure_scratch>
    1c90:	00300593          	addi	x11,x0,3
    1c94:	3eb50c63          	beq	x10,x11,208c <failedtest_report_trap_detailed>
    1c98:	00000013          	addi	x0,x0,0
    1c9c:	00000013          	addi	x0,x0,0
    1ca0:	00004517          	auipc	x10,0x4
    1ca4:	02f50513          	addi	x10,x10,47 # 5ccf <inststr>
    1ca8:	00000013          	addi	x0,x0,0
    1cac:	00000013          	addi	x0,x0,0
    1cb0:	00000013          	addi	x0,x0,0
    1cb4:	00000013          	addi	x0,x0,0
    1cb8:	00000013          	addi	x0,x0,0
    1cbc:	00000013          	addi	x0,x0,0
    1cc0:	00015097          	auipc	x1,0x15
    1cc4:	544080e7          	jalr	x1,1348(x1) # 17204 <rvmodel_io_write_str>
    1cc8:	00004517          	auipc	x10,0x4
    1ccc:	9c852503          	lw	x10,-1592(x10) # 5690 <failing_instruction>
    1cd0:	02000593          	addi	x11,x0,32
    1cd4:	00357613          	andi	x12,x10,3
    1cd8:	00300693          	addi	x13,x0,3
    1cdc:	00d60463          	beq	x12,x13,1ce4 <print_newline_str+0x8c>
    1ce0:	01000593          	addi	x11,x0,16
    1ce4:	2f4010ef          	jal	x1,2fd8 <failedtest_hex_to_str>
    1ce8:	00000013          	addi	x0,x0,0
    1cec:	00000013          	addi	x0,x0,0
    1cf0:	00000013          	addi	x0,x0,0
    1cf4:	00000013          	addi	x0,x0,0
    1cf8:	00000013          	addi	x0,x0,0
    1cfc:	00000013          	addi	x0,x0,0
    1d00:	00004517          	auipc	x10,0x4
    1d04:	a1850513          	addi	x10,x10,-1512 # 5718 <ascii_buffer>
    1d08:	00000013          	addi	x0,x0,0
    1d0c:	00000013          	addi	x0,x0,0
    1d10:	00000013          	addi	x0,x0,0
    1d14:	00000013          	addi	x0,x0,0
    1d18:	00000013          	addi	x0,x0,0
    1d1c:	00000013          	addi	x0,x0,0
    1d20:	00015097          	auipc	x1,0x15
    1d24:	4e4080e7          	jalr	x1,1252(x1) # 17204 <rvmodel_io_write_str>
    1d28:	00000013          	addi	x0,x0,0
    1d2c:	00000013          	addi	x0,x0,0
    1d30:	00000013          	addi	x0,x0,0
    1d34:	00000013          	addi	x0,x0,0
    1d38:	00000013          	addi	x0,x0,0
    1d3c:	00000013          	addi	x0,x0,0
    1d40:	00004517          	auipc	x10,0x4
    1d44:	fa350513          	addi	x10,x10,-93 # 5ce3 <addrstr>
    1d48:	00000013          	addi	x0,x0,0
    1d4c:	00000013          	addi	x0,x0,0
    1d50:	00000013          	addi	x0,x0,0
    1d54:	00000013          	addi	x0,x0,0
    1d58:	00000013          	addi	x0,x0,0
    1d5c:	00000013          	addi	x0,x0,0
    1d60:	00015097          	auipc	x1,0x15
    1d64:	4a4080e7          	jalr	x1,1188(x1) # 17204 <rvmodel_io_write_str>
    1d68:	00004517          	auipc	x10,0x4
    1d6c:	93052503          	lw	x10,-1744(x10) # 5698 <failing_addr>
    1d70:	02000593          	addi	x11,x0,32
    1d74:	264010ef          	jal	x1,2fd8 <failedtest_hex_to_str>
    1d78:	00000013          	addi	x0,x0,0
    1d7c:	00000013          	addi	x0,x0,0
    1d80:	00004517          	auipc	x10,0x4
    1d84:	99850513          	addi	x10,x10,-1640 # 5718 <ascii_buffer>
    1d88:	00000013          	addi	x0,x0,0
    1d8c:	00000013          	addi	x0,x0,0
    1d90:	00000013          	addi	x0,x0,0
    1d94:	00000013          	addi	x0,x0,0
    1d98:	00000013          	addi	x0,x0,0
    1d9c:	00000013          	addi	x0,x0,0
    1da0:	00015097          	auipc	x1,0x15
    1da4:	464080e7          	jalr	x1,1124(x1) # 17204 <rvmodel_io_write_str>
    1da8:	00000013          	addi	x0,x0,0
    1dac:	00000013          	addi	x0,x0,0
    1db0:	00000013          	addi	x0,x0,0
    1db4:	00000013          	addi	x0,x0,0
    1db8:	00000013          	addi	x0,x0,0
    1dbc:	00000013          	addi	x0,x0,0
    1dc0:	00005517          	auipc	x10,0x5
    1dc4:	9a050513          	addi	x10,x10,-1632 # 6760 <regstr>
    1dc8:	00000013          	addi	x0,x0,0
    1dcc:	00000013          	addi	x0,x0,0
    1dd0:	00000013          	addi	x0,x0,0
    1dd4:	00000013          	addi	x0,x0,0
    1dd8:	00000013          	addi	x0,x0,0
    1ddc:	00000013          	addi	x0,x0,0
    1de0:	00015097          	auipc	x1,0x15
    1de4:	424080e7          	jalr	x1,1060(x1) # 17204 <rvmodel_io_write_str>
    1de8:	00003517          	auipc	x10,0x3
    1dec:	7a852503          	lw	x10,1960(x10) # 5590 <begin_failure_scratch>
    1df0:	00050663          	beq	x10,x0,1dfc <print_newline_str+0x1a4>
    1df4:	00300593          	addi	x11,x0,3
    1df8:	04b51063          	bne	x10,x11,1e38 <failedtest_report_not_intreg>
    1dfc:	07800593          	addi	x11,x0,120
    1e00:	00004617          	auipc	x12,0x4
    1e04:	91860613          	addi	x12,x12,-1768 # 5718 <ascii_buffer>
    1e08:	00000013          	addi	x0,x0,0
    1e0c:	00000013          	addi	x0,x0,0
    1e10:	00000013          	addi	x0,x0,0
    1e14:	00000013          	addi	x0,x0,0
    1e18:	00000013          	addi	x0,x0,0
    1e1c:	00000013          	addi	x0,x0,0
    1e20:	00b60023          	sb	x11,0(x12)
    1e24:	00160613          	addi	x12,x12,1
    1e28:	00004517          	auipc	x10,0x4
    1e2c:	86c52503          	lw	x10,-1940(x10) # 5694 <failing_reg>
    1e30:	224010ef          	jal	x1,3054 <failedtest_dec_to_str>
    1e34:	0e00006f          	jal	x0,1f14 <failedtest_report_print_regstr>

00001e38 <failedtest_report_not_intreg>:
    1e38:	00100593          	addi	x11,x0,1
    1e3c:	04b50863          	beq	x10,x11,1e8c <failedtest_report_fpreg>
    1e40:	00400593          	addi	x11,x0,4
    1e44:	08b50a63          	beq	x10,x11,1ed8 <failedtest_report_vecreg>
    1e48:	00000013          	addi	x0,x0,0
    1e4c:	00000013          	addi	x0,x0,0
    1e50:	00000013          	addi	x0,x0,0
    1e54:	00000013          	addi	x0,x0,0
    1e58:	00000013          	addi	x0,x0,0
    1e5c:	00000013          	addi	x0,x0,0
    1e60:	00005517          	auipc	x10,0x5
    1e64:	96050513          	addi	x10,x10,-1696 # 67c0 <fflagsstr>
    1e68:	00000013          	addi	x0,x0,0
    1e6c:	00000013          	addi	x0,x0,0
    1e70:	00000013          	addi	x0,x0,0
    1e74:	00000013          	addi	x0,x0,0
    1e78:	00000013          	addi	x0,x0,0
    1e7c:	00000013          	addi	x0,x0,0
    1e80:	00015097          	auipc	x1,0x15
    1e84:	384080e7          	jalr	x1,900(x1) # 17204 <rvmodel_io_write_str>
    1e88:	0c00006f          	jal	x0,1f48 <failedtest_report_after_reg>

00001e8c <failedtest_report_fpreg>:
    1e8c:	06600593          	addi	x11,x0,102
    1e90:	00000013          	addi	x0,x0,0
    1e94:	00000013          	addi	x0,x0,0
    1e98:	00000013          	addi	x0,x0,0
    1e9c:	00000013          	addi	x0,x0,0
    1ea0:	00004617          	auipc	x12,0x4
    1ea4:	87860613          	addi	x12,x12,-1928 # 5718 <ascii_buffer>
    1ea8:	00000013          	addi	x0,x0,0
    1eac:	00000013          	addi	x0,x0,0
    1eb0:	00000013          	addi	x0,x0,0
    1eb4:	00000013          	addi	x0,x0,0
    1eb8:	00000013          	addi	x0,x0,0
    1ebc:	00000013          	addi	x0,x0,0
    1ec0:	00b60023          	sb	x11,0(x12)
    1ec4:	00160613          	addi	x12,x12,1
    1ec8:	00003517          	auipc	x10,0x3
    1ecc:	7cc52503          	lw	x10,1996(x10) # 5694 <failing_reg>
    1ed0:	184010ef          	jal	x1,3054 <failedtest_dec_to_str>
    1ed4:	0400006f          	jal	x0,1f14 <failedtest_report_print_regstr>

00001ed8 <failedtest_report_vecreg>:
    1ed8:	07600593          	addi	x11,x0,118
    1edc:	00000013          	addi	x0,x0,0
    1ee0:	00004617          	auipc	x12,0x4
    1ee4:	83860613          	addi	x12,x12,-1992 # 5718 <ascii_buffer>
    1ee8:	00000013          	addi	x0,x0,0
    1eec:	00000013          	addi	x0,x0,0
    1ef0:	00000013          	addi	x0,x0,0
    1ef4:	00000013          	addi	x0,x0,0
    1ef8:	00000013          	addi	x0,x0,0
    1efc:	00000013          	addi	x0,x0,0
    1f00:	00b60023          	sb	x11,0(x12)
    1f04:	00160613          	addi	x12,x12,1
    1f08:	00003517          	auipc	x10,0x3
    1f0c:	78c52503          	lw	x10,1932(x10) # 5694 <failing_reg>
    1f10:	144010ef          	jal	x1,3054 <failedtest_dec_to_str>

00001f14 <failedtest_report_print_regstr>:
    1f14:	00000013          	addi	x0,x0,0
    1f18:	00000013          	addi	x0,x0,0
    1f1c:	00000013          	addi	x0,x0,0
    1f20:	00003517          	auipc	x10,0x3
    1f24:	7f850513          	addi	x10,x10,2040 # 5718 <ascii_buffer>
    1f28:	00000013          	addi	x0,x0,0
    1f2c:	00000013          	addi	x0,x0,0
    1f30:	00000013          	addi	x0,x0,0
    1f34:	00000013          	addi	x0,x0,0
    1f38:	00000013          	addi	x0,x0,0
    1f3c:	00000013          	addi	x0,x0,0
    1f40:	00015097          	auipc	x1,0x15
    1f44:	2c4080e7          	jalr	x1,708(x1) # 17204 <rvmodel_io_write_str>

00001f48 <failedtest_report_after_reg>:
    1f48:	00000013          	addi	x0,x0,0
    1f4c:	00000013          	addi	x0,x0,0
    1f50:	00000013          	addi	x0,x0,0
    1f54:	00000013          	addi	x0,x0,0
    1f58:	00000013          	addi	x0,x0,0
    1f5c:	00000013          	addi	x0,x0,0
    1f60:	00005517          	auipc	x10,0x5
    1f64:	81150513          	addi	x10,x10,-2031 # 6771 <badvalstr>
    1f68:	00000013          	addi	x0,x0,0
    1f6c:	00000013          	addi	x0,x0,0
    1f70:	00000013          	addi	x0,x0,0
    1f74:	00000013          	addi	x0,x0,0
    1f78:	00000013          	addi	x0,x0,0
    1f7c:	00000013          	addi	x0,x0,0
    1f80:	00015097          	auipc	x1,0x15
    1f84:	284080e7          	jalr	x1,644(x1) # 17204 <rvmodel_io_write_str>
    1f88:	00003517          	auipc	x10,0x3
    1f8c:	60852503          	lw	x10,1544(x10) # 5590 <begin_failure_scratch>
    1f90:	00100593          	addi	x11,x0,1
    1f94:	00b51c63          	bne	x10,x11,1fac <failedtest_report_badval_not_fp>
    1f98:	00003517          	auipc	x10,0x3
    1f9c:	70852503          	lw	x10,1800(x10) # 56a0 <failing_value>
    1fa0:	02000593          	addi	x11,x0,32
    1fa4:	034010ef          	jal	x1,2fd8 <failedtest_hex_to_str>
    1fa8:	0140006f          	jal	x0,1fbc <failedtest_report_badval_done>

00001fac <failedtest_report_badval_not_fp>:
    1fac:	00003517          	auipc	x10,0x3
    1fb0:	6f452503          	lw	x10,1780(x10) # 56a0 <failing_value>
    1fb4:	02000593          	addi	x11,x0,32
    1fb8:	020010ef          	jal	x1,2fd8 <failedtest_hex_to_str>

00001fbc <failedtest_report_badval_done>:
    1fbc:	00000013          	addi	x0,x0,0
    1fc0:	00003517          	auipc	x10,0x3
    1fc4:	75850513          	addi	x10,x10,1880 # 5718 <ascii_buffer>
    1fc8:	00000013          	addi	x0,x0,0
    1fcc:	00000013          	addi	x0,x0,0
    1fd0:	00000013          	addi	x0,x0,0
    1fd4:	00000013          	addi	x0,x0,0
    1fd8:	00000013          	addi	x0,x0,0
    1fdc:	00000013          	addi	x0,x0,0
    1fe0:	00015097          	auipc	x1,0x15
    1fe4:	224080e7          	jalr	x1,548(x1) # 17204 <rvmodel_io_write_str>
    1fe8:	00000013          	addi	x0,x0,0
    1fec:	00000013          	addi	x0,x0,0
    1ff0:	00000013          	addi	x0,x0,0
    1ff4:	00000013          	addi	x0,x0,0
    1ff8:	00000013          	addi	x0,x0,0
    1ffc:	00000013          	addi	x0,x0,0
    2000:	00004517          	auipc	x10,0x4
    2004:	78850513          	addi	x10,x10,1928 # 6788 <expvalstr>
    2008:	00000013          	addi	x0,x0,0
    200c:	00000013          	addi	x0,x0,0
    2010:	00000013          	addi	x0,x0,0
    2014:	00000013          	addi	x0,x0,0
    2018:	00000013          	addi	x0,x0,0
    201c:	00000013          	addi	x0,x0,0
    2020:	00015097          	auipc	x1,0x15
    2024:	1e4080e7          	jalr	x1,484(x1) # 17204 <rvmodel_io_write_str>
    2028:	00003517          	auipc	x10,0x3
    202c:	56852503          	lw	x10,1384(x10) # 5590 <begin_failure_scratch>
    2030:	00100593          	addi	x11,x0,1
    2034:	00b51c63          	bne	x10,x11,204c <failedtest_report_expval_not_fp>
    2038:	00003517          	auipc	x10,0x3
    203c:	67052503          	lw	x10,1648(x10) # 56a8 <expected_value>
    2040:	02000593          	addi	x11,x0,32
    2044:	795000ef          	jal	x1,2fd8 <failedtest_hex_to_str>
    2048:	0140006f          	jal	x0,205c <failedtest_report_expval_done>

0000204c <failedtest_report_expval_not_fp>:
    204c:	00003517          	auipc	x10,0x3
    2050:	65c52503          	lw	x10,1628(x10) # 56a8 <expected_value>
    2054:	02000593          	addi	x11,x0,32
    2058:	781000ef          	jal	x1,2fd8 <failedtest_hex_to_str>

0000205c <failedtest_report_expval_done>:
    205c:	00000013          	addi	x0,x0,0
    2060:	00003517          	auipc	x10,0x3
    2064:	6b850513          	addi	x10,x10,1720 # 5718 <ascii_buffer>
    2068:	00000013          	addi	x0,x0,0
    206c:	00000013          	addi	x0,x0,0
    2070:	00000013          	addi	x0,x0,0
    2074:	00000013          	addi	x0,x0,0
    2078:	00000013          	addi	x0,x0,0
    207c:	00000013          	addi	x0,x0,0
    2080:	00015097          	auipc	x1,0x15
    2084:	184080e7          	jalr	x1,388(x1) # 17204 <rvmodel_io_write_str>
    2088:	4fd0006f          	jal	x0,2d84 <failedtest_report_end>

0000208c <failedtest_report_trap_detailed>:
    208c:	00000013          	addi	x0,x0,0
    2090:	00000013          	addi	x0,x0,0
    2094:	00000013          	addi	x0,x0,0
    2098:	00000013          	addi	x0,x0,0
    209c:	00000013          	addi	x0,x0,0
    20a0:	00004517          	auipc	x10,0x4
    20a4:	74c50513          	addi	x10,x10,1868 # 67ec <trap_diag_header_str>
    20a8:	00000013          	addi	x0,x0,0
    20ac:	00000013          	addi	x0,x0,0
    20b0:	00000013          	addi	x0,x0,0
    20b4:	00000013          	addi	x0,x0,0
    20b8:	00000013          	addi	x0,x0,0
    20bc:	00000013          	addi	x0,x0,0
    20c0:	00015097          	auipc	x1,0x15
    20c4:	144080e7          	jalr	x1,324(x1) # 17204 <rvmodel_io_write_str>
    20c8:	00000013          	addi	x0,x0,0
    20cc:	00000013          	addi	x0,x0,0
    20d0:	00000013          	addi	x0,x0,0
    20d4:	00000013          	addi	x0,x0,0
    20d8:	00000013          	addi	x0,x0,0
    20dc:	00000013          	addi	x0,x0,0
    20e0:	00004517          	auipc	x10,0x4
    20e4:	73850513          	addi	x10,x10,1848 # 6818 <trap_diag_origstr_label>
    20e8:	00000013          	addi	x0,x0,0
    20ec:	00000013          	addi	x0,x0,0
    20f0:	00000013          	addi	x0,x0,0
    20f4:	00000013          	addi	x0,x0,0
    20f8:	00000013          	addi	x0,x0,0
    20fc:	00000013          	addi	x0,x0,0
    2100:	00015097          	auipc	x1,0x15
    2104:	104080e7          	jalr	x1,260(x1) # 17204 <rvmodel_io_write_str>
    2108:	00003817          	auipc	x16,0x3
    210c:	5e080813          	addi	x16,x16,1504 # 56e8 <trap_diag_fail_str_ptr>
    2110:	00082503          	lw	x10,0(x16)
    2114:	00015097          	auipc	x1,0x15
    2118:	0f0080e7          	jalr	x1,240(x1) # 17204 <rvmodel_io_write_str>
    211c:	00000013          	addi	x0,x0,0
    2120:	00004517          	auipc	x10,0x4
    2124:	bad50513          	addi	x10,x10,-1107 # 5ccd <newlinestr>
    2128:	00000013          	addi	x0,x0,0
    212c:	00000013          	addi	x0,x0,0
    2130:	00000013          	addi	x0,x0,0
    2134:	00000013          	addi	x0,x0,0
    2138:	00000013          	addi	x0,x0,0
    213c:	00000013          	addi	x0,x0,0
    2140:	00015097          	auipc	x1,0x15
    2144:	0c4080e7          	jalr	x1,196(x1) # 17204 <rvmodel_io_write_str>
    2148:	00003417          	auipc	x8,0x3
    214c:	57842403          	lw	x8,1400(x8) # 56c0 <trap_diag_subtype>
    2150:	00900493          	addi	x9,x0,9
    2154:	00940663          	beq	x8,x9,2160 <trap_report_offset_mismatch>
    2158:	2a040ce3          	beq	x8,x0,2c10 <trap_report_generic>
    215c:	3780006f          	jal	x0,24d4 <trap_report_field_mismatch>

00002160 <trap_report_offset_mismatch>:
    2160:	00004517          	auipc	x10,0x4
    2164:	6c850513          	addi	x10,x10,1736 # 6828 <trap_diag_count_mismatch_str>
    2168:	00000013          	addi	x0,x0,0
    216c:	00000013          	addi	x0,x0,0
    2170:	00000013          	addi	x0,x0,0
    2174:	00000013          	addi	x0,x0,0
    2178:	00000013          	addi	x0,x0,0
    217c:	00000013          	addi	x0,x0,0
    2180:	00015097          	auipc	x1,0x15
    2184:	084080e7          	jalr	x1,132(x1) # 17204 <rvmodel_io_write_str>
    2188:	00000013          	addi	x0,x0,0
    218c:	00000013          	addi	x0,x0,0
    2190:	00000013          	addi	x0,x0,0
    2194:	00000013          	addi	x0,x0,0
    2198:	00000013          	addi	x0,x0,0
    219c:	00000013          	addi	x0,x0,0
    21a0:	00004517          	auipc	x10,0x4
    21a4:	6e950513          	addi	x10,x10,1769 # 6889 <trap_diag_expected_offset_str>
    21a8:	00000013          	addi	x0,x0,0
    21ac:	00000013          	addi	x0,x0,0
    21b0:	00000013          	addi	x0,x0,0
    21b4:	00000013          	addi	x0,x0,0
    21b8:	00000013          	addi	x0,x0,0
    21bc:	00000013          	addi	x0,x0,0
    21c0:	00015097          	auipc	x1,0x15
    21c4:	044080e7          	jalr	x1,68(x1) # 17204 <rvmodel_io_write_str>
    21c8:	00003517          	auipc	x10,0x3
    21cc:	51852503          	lw	x10,1304(x10) # 56e0 <trap_diag_expected_offset>
    21d0:	02000593          	addi	x11,x0,32
    21d4:	605000ef          	jal	x1,2fd8 <failedtest_hex_to_str>
    21d8:	00000013          	addi	x0,x0,0
    21dc:	00000013          	addi	x0,x0,0
    21e0:	00003517          	auipc	x10,0x3
    21e4:	53850513          	addi	x10,x10,1336 # 5718 <ascii_buffer>
    21e8:	00000013          	addi	x0,x0,0
    21ec:	00000013          	addi	x0,x0,0
    21f0:	00000013          	addi	x0,x0,0
    21f4:	00000013          	addi	x0,x0,0
    21f8:	00000013          	addi	x0,x0,0
    21fc:	00000013          	addi	x0,x0,0
    2200:	00015097          	auipc	x1,0x15
    2204:	004080e7          	jalr	x1,4(x1) # 17204 <rvmodel_io_write_str>
    2208:	00000013          	addi	x0,x0,0
    220c:	00000013          	addi	x0,x0,0
    2210:	00000013          	addi	x0,x0,0
    2214:	00000013          	addi	x0,x0,0
    2218:	00000013          	addi	x0,x0,0
    221c:	00000013          	addi	x0,x0,0
    2220:	00004517          	auipc	x10,0x4
    2224:	69050513          	addi	x10,x10,1680 # 68b0 <trap_diag_actual_offset_str>
    2228:	00000013          	addi	x0,x0,0
    222c:	00000013          	addi	x0,x0,0
    2230:	00000013          	addi	x0,x0,0
    2234:	00000013          	addi	x0,x0,0
    2238:	00000013          	addi	x0,x0,0
    223c:	00000013          	addi	x0,x0,0
    2240:	00015097          	auipc	x1,0x15
    2244:	fc4080e7          	jalr	x1,-60(x1) # 17204 <rvmodel_io_write_str>
    2248:	00003517          	auipc	x10,0x3
    224c:	49052503          	lw	x10,1168(x10) # 56d8 <trap_diag_actual_offset>
    2250:	02000593          	addi	x11,x0,32
    2254:	585000ef          	jal	x1,2fd8 <failedtest_hex_to_str>
    2258:	00000013          	addi	x0,x0,0
    225c:	00000013          	addi	x0,x0,0
    2260:	00003517          	auipc	x10,0x3
    2264:	4b850513          	addi	x10,x10,1208 # 5718 <ascii_buffer>
    2268:	00000013          	addi	x0,x0,0
    226c:	00000013          	addi	x0,x0,0
    2270:	00000013          	addi	x0,x0,0
    2274:	00000013          	addi	x0,x0,0
    2278:	00000013          	addi	x0,x0,0
    227c:	00000013          	addi	x0,x0,0
    2280:	00015097          	auipc	x1,0x15
    2284:	f84080e7          	jalr	x1,-124(x1) # 17204 <rvmodel_io_write_str>
    2288:	00003317          	auipc	x6,0x3
    228c:	45032303          	lw	x6,1104(x6) # 56d8 <trap_diag_actual_offset>
    2290:	00003397          	auipc	x7,0x3
    2294:	4503a383          	lw	x7,1104(x7) # 56e0 <trap_diag_expected_offset>
    2298:	10734e63          	blt	x6,x7,23b4 <trap_report_missing_traps>

0000229c <trap_report_extra_traps>:
    229c:	00000013          	addi	x0,x0,0
    22a0:	00004517          	auipc	x10,0x4
    22a4:	63750513          	addi	x10,x10,1591 # 68d7 <trap_diag_extra_traps_str>
    22a8:	00000013          	addi	x0,x0,0
    22ac:	00000013          	addi	x0,x0,0
    22b0:	00000013          	addi	x0,x0,0
    22b4:	00000013          	addi	x0,x0,0
    22b8:	00000013          	addi	x0,x0,0
    22bc:	00000013          	addi	x0,x0,0
    22c0:	00015097          	auipc	x1,0x15
    22c4:	f44080e7          	jalr	x1,-188(x1) # 17204 <rvmodel_io_write_str>
    22c8:	00003317          	auipc	x6,0x3
    22cc:	41032303          	lw	x6,1040(x6) # 56d8 <trap_diag_actual_offset>
    22d0:	00003397          	auipc	x7,0x3
    22d4:	4103a383          	lw	x7,1040(x7) # 56e0 <trap_diag_expected_offset>
    22d8:	40730333          	sub	x6,x6,x7
    22dc:	00235313          	srli	x6,x6,0x2
    22e0:	00004517          	auipc	x10,0x4
    22e4:	67c50513          	addi	x10,x10,1660 # 695c <trap_diag_extra_bytes_str>
    22e8:	00000013          	addi	x0,x0,0
    22ec:	00000013          	addi	x0,x0,0
    22f0:	00000013          	addi	x0,x0,0
    22f4:	00000013          	addi	x0,x0,0
    22f8:	00000013          	addi	x0,x0,0
    22fc:	00000013          	addi	x0,x0,0
    2300:	00015097          	auipc	x1,0x15
    2304:	f04080e7          	jalr	x1,-252(x1) # 17204 <rvmodel_io_write_str>
    2308:	00003317          	auipc	x6,0x3
    230c:	3d032303          	lw	x6,976(x6) # 56d8 <trap_diag_actual_offset>
    2310:	00003397          	auipc	x7,0x3
    2314:	3d03a383          	lw	x7,976(x7) # 56e0 <trap_diag_expected_offset>
    2318:	40730533          	sub	x10,x6,x7
    231c:	02000593          	addi	x11,x0,32
    2320:	4b9000ef          	jal	x1,2fd8 <failedtest_hex_to_str>
    2324:	00000013          	addi	x0,x0,0
    2328:	00000013          	addi	x0,x0,0
    232c:	00000013          	addi	x0,x0,0
    2330:	00000013          	addi	x0,x0,0
    2334:	00000013          	addi	x0,x0,0
    2338:	00000013          	addi	x0,x0,0
    233c:	00000013          	addi	x0,x0,0
    2340:	00003517          	auipc	x10,0x3
    2344:	3d850513          	addi	x10,x10,984 # 5718 <ascii_buffer>
    2348:	00000013          	addi	x0,x0,0
    234c:	00000013          	addi	x0,x0,0
    2350:	00000013          	addi	x0,x0,0
    2354:	00000013          	addi	x0,x0,0
    2358:	00000013          	addi	x0,x0,0
    235c:	00000013          	addi	x0,x0,0
    2360:	00015097          	auipc	x1,0x15
    2364:	ea4080e7          	jalr	x1,-348(x1) # 17204 <rvmodel_io_write_str>
    2368:	00000013          	addi	x0,x0,0
    236c:	00000013          	addi	x0,x0,0
    2370:	00000013          	addi	x0,x0,0
    2374:	00000013          	addi	x0,x0,0
    2378:	00000013          	addi	x0,x0,0
    237c:	00000013          	addi	x0,x0,0
    2380:	00004517          	auipc	x10,0x4
    2384:	60750513          	addi	x10,x10,1543 # 6987 <trap_diag_extra_hint_str>
    2388:	00000013          	addi	x0,x0,0
    238c:	00000013          	addi	x0,x0,0
    2390:	00000013          	addi	x0,x0,0
    2394:	00000013          	addi	x0,x0,0
    2398:	00000013          	addi	x0,x0,0
    239c:	00000013          	addi	x0,x0,0
    23a0:	00015097          	auipc	x1,0x15
    23a4:	e64080e7          	jalr	x1,-412(x1) # 17204 <rvmodel_io_write_str>
    23a8:	00001097          	auipc	x1,0x1
    23ac:	a28080e7          	jalr	x1,-1496(x1) # 2dd0 <failedtest_print_csr_context>
    23b0:	1d50006f          	jal	x0,2d84 <failedtest_report_end>

000023b4 <trap_report_missing_traps>:
    23b4:	00000013          	addi	x0,x0,0
    23b8:	00000013          	addi	x0,x0,0
    23bc:	00000013          	addi	x0,x0,0
    23c0:	00004517          	auipc	x10,0x4
    23c4:	55150513          	addi	x10,x10,1361 # 6911 <trap_diag_missing_traps_str>
    23c8:	00000013          	addi	x0,x0,0
    23cc:	00000013          	addi	x0,x0,0
    23d0:	00000013          	addi	x0,x0,0
    23d4:	00000013          	addi	x0,x0,0
    23d8:	00000013          	addi	x0,x0,0
    23dc:	00000013          	addi	x0,x0,0
    23e0:	00015097          	auipc	x1,0x15
    23e4:	e24080e7          	jalr	x1,-476(x1) # 17204 <rvmodel_io_write_str>
    23e8:	00000013          	addi	x0,x0,0
    23ec:	00000013          	addi	x0,x0,0
    23f0:	00000013          	addi	x0,x0,0
    23f4:	00000013          	addi	x0,x0,0
    23f8:	00000013          	addi	x0,x0,0
    23fc:	00000013          	addi	x0,x0,0
    2400:	00004517          	auipc	x10,0x4
    2404:	55c50513          	addi	x10,x10,1372 # 695c <trap_diag_extra_bytes_str>
    2408:	00000013          	addi	x0,x0,0
    240c:	00000013          	addi	x0,x0,0
    2410:	00000013          	addi	x0,x0,0
    2414:	00000013          	addi	x0,x0,0
    2418:	00000013          	addi	x0,x0,0
    241c:	00000013          	addi	x0,x0,0
    2420:	00015097          	auipc	x1,0x15
    2424:	de4080e7          	jalr	x1,-540(x1) # 17204 <rvmodel_io_write_str>
    2428:	00003317          	auipc	x6,0x3
    242c:	2b832303          	lw	x6,696(x6) # 56e0 <trap_diag_expected_offset>
    2430:	00003397          	auipc	x7,0x3
    2434:	2a83a383          	lw	x7,680(x7) # 56d8 <trap_diag_actual_offset>
    2438:	40730533          	sub	x10,x6,x7
    243c:	02000593          	addi	x11,x0,32
    2440:	399000ef          	jal	x1,2fd8 <failedtest_hex_to_str>
    2444:	00000013          	addi	x0,x0,0
    2448:	00000013          	addi	x0,x0,0
    244c:	00000013          	addi	x0,x0,0
    2450:	00000013          	addi	x0,x0,0
    2454:	00000013          	addi	x0,x0,0
    2458:	00000013          	addi	x0,x0,0
    245c:	00000013          	addi	x0,x0,0
    2460:	00003517          	auipc	x10,0x3
    2464:	2b850513          	addi	x10,x10,696 # 5718 <ascii_buffer>
    2468:	00000013          	addi	x0,x0,0
    246c:	00000013          	addi	x0,x0,0
    2470:	00000013          	addi	x0,x0,0
    2474:	00000013          	addi	x0,x0,0
    2478:	00000013          	addi	x0,x0,0
    247c:	00000013          	addi	x0,x0,0
    2480:	00015097          	auipc	x1,0x15
    2484:	d84080e7          	jalr	x1,-636(x1) # 17204 <rvmodel_io_write_str>
    2488:	00000013          	addi	x0,x0,0
    248c:	00000013          	addi	x0,x0,0
    2490:	00000013          	addi	x0,x0,0
    2494:	00000013          	addi	x0,x0,0
    2498:	00000013          	addi	x0,x0,0
    249c:	00000013          	addi	x0,x0,0
    24a0:	00004517          	auipc	x10,0x4
    24a4:	5cf50513          	addi	x10,x10,1487 # 6a6f <trap_diag_missing_hint_str>
    24a8:	00000013          	addi	x0,x0,0
    24ac:	00000013          	addi	x0,x0,0
    24b0:	00000013          	addi	x0,x0,0
    24b4:	00000013          	addi	x0,x0,0
    24b8:	00000013          	addi	x0,x0,0
    24bc:	00000013          	addi	x0,x0,0
    24c0:	00015097          	auipc	x1,0x15
    24c4:	d44080e7          	jalr	x1,-700(x1) # 17204 <rvmodel_io_write_str>
    24c8:	00001097          	auipc	x1,0x1
    24cc:	908080e7          	jalr	x1,-1784(x1) # 2dd0 <failedtest_print_csr_context>
    24d0:	0b50006f          	jal	x0,2d84 <failedtest_report_end>

000024d4 <trap_report_field_mismatch>:
    24d4:	00000013          	addi	x0,x0,0
    24d8:	00000013          	addi	x0,x0,0
    24dc:	00000013          	addi	x0,x0,0
    24e0:	00004517          	auipc	x10,0x4
    24e4:	67650513          	addi	x10,x10,1654 # 6b56 <trap_diag_handler_mode_str>
    24e8:	00000013          	addi	x0,x0,0
    24ec:	00000013          	addi	x0,x0,0
    24f0:	00000013          	addi	x0,x0,0
    24f4:	00000013          	addi	x0,x0,0
    24f8:	00000013          	addi	x0,x0,0
    24fc:	00000013          	addi	x0,x0,0
    2500:	00015097          	auipc	x1,0x15
    2504:	d04080e7          	jalr	x1,-764(x1) # 17204 <rvmodel_io_write_str>
    2508:	00003517          	auipc	x10,0x3
    250c:	1bc52503          	lw	x10,444(x10) # 56c4 <trap_diag_mode>
    2510:	04050a63          	beq	x10,x0,2564 <trap_mode_m>
    2514:	00100593          	addi	x11,x0,1
    2518:	08b50663          	beq	x10,x11,25a4 <trap_mode_s>
    251c:	00200593          	addi	x11,x0,2
    2520:	0cb50263          	beq	x10,x11,25e4 <trap_mode_h>
    2524:	00300593          	addi	x11,x0,3
    2528:	0eb50e63          	beq	x10,x11,2624 <trap_mode_v>
    252c:	00000013          	addi	x0,x0,0
    2530:	00000013          	addi	x0,x0,0
    2534:	00000013          	addi	x0,x0,0
    2538:	00000013          	addi	x0,x0,0
    253c:	00000013          	addi	x0,x0,0
    2540:	00004517          	auipc	x10,0x4
    2544:	65250513          	addi	x10,x10,1618 # 6b92 <trap_diag_mode_unknown_str>
    2548:	00000013          	addi	x0,x0,0
    254c:	00000013          	addi	x0,x0,0
    2550:	00000013          	addi	x0,x0,0
    2554:	00000013          	addi	x0,x0,0
    2558:	00000013          	addi	x0,x0,0
    255c:	00000013          	addi	x0,x0,0
    2560:	1000006f          	jal	x0,2660 <trap_mode_print>

00002564 <trap_mode_m>:
    2564:	00000013          	addi	x0,x0,0
    2568:	00000013          	addi	x0,x0,0
    256c:	00000013          	addi	x0,x0,0
    2570:	00000013          	addi	x0,x0,0
    2574:	00000013          	addi	x0,x0,0
    2578:	00000013          	addi	x0,x0,0
    257c:	00000013          	addi	x0,x0,0
    2580:	00004517          	auipc	x10,0x4
    2584:	5f050513          	addi	x10,x10,1520 # 6b70 <trap_diag_mode_m_str>
    2588:	00000013          	addi	x0,x0,0
    258c:	00000013          	addi	x0,x0,0
    2590:	00000013          	addi	x0,x0,0
    2594:	00000013          	addi	x0,x0,0
    2598:	00000013          	addi	x0,x0,0
    259c:	00000013          	addi	x0,x0,0
    25a0:	0c00006f          	jal	x0,2660 <trap_mode_print>

000025a4 <trap_mode_s>:
    25a4:	00000013          	addi	x0,x0,0
    25a8:	00000013          	addi	x0,x0,0
    25ac:	00000013          	addi	x0,x0,0
    25b0:	00000013          	addi	x0,x0,0
    25b4:	00000013          	addi	x0,x0,0
    25b8:	00000013          	addi	x0,x0,0
    25bc:	00000013          	addi	x0,x0,0
    25c0:	00004517          	auipc	x10,0x4
    25c4:	5b850513          	addi	x10,x10,1464 # 6b78 <trap_diag_mode_s_str>
    25c8:	00000013          	addi	x0,x0,0
    25cc:	00000013          	addi	x0,x0,0
    25d0:	00000013          	addi	x0,x0,0
    25d4:	00000013          	addi	x0,x0,0
    25d8:	00000013          	addi	x0,x0,0
    25dc:	00000013          	addi	x0,x0,0
    25e0:	0800006f          	jal	x0,2660 <trap_mode_print>

000025e4 <trap_mode_h>:
    25e4:	00000013          	addi	x0,x0,0
    25e8:	00000013          	addi	x0,x0,0
    25ec:	00000013          	addi	x0,x0,0
    25f0:	00000013          	addi	x0,x0,0
    25f4:	00000013          	addi	x0,x0,0
    25f8:	00000013          	addi	x0,x0,0
    25fc:	00000013          	addi	x0,x0,0
    2600:	00004517          	auipc	x10,0x4
    2604:	58050513          	addi	x10,x10,1408 # 6b80 <trap_diag_mode_hs_str>
    2608:	00000013          	addi	x0,x0,0
    260c:	00000013          	addi	x0,x0,0
    2610:	00000013          	addi	x0,x0,0
    2614:	00000013          	addi	x0,x0,0
    2618:	00000013          	addi	x0,x0,0
    261c:	00000013          	addi	x0,x0,0
    2620:	0400006f          	jal	x0,2660 <trap_mode_print>

00002624 <trap_mode_v>:
    2624:	00000013          	addi	x0,x0,0
    2628:	00000013          	addi	x0,x0,0
    262c:	00000013          	addi	x0,x0,0
    2630:	00000013          	addi	x0,x0,0
    2634:	00000013          	addi	x0,x0,0
    2638:	00000013          	addi	x0,x0,0
    263c:	00000013          	addi	x0,x0,0
    2640:	00004517          	auipc	x10,0x4
    2644:	54950513          	addi	x10,x10,1353 # 6b89 <trap_diag_mode_vs_str>
    2648:	00000013          	addi	x0,x0,0
    264c:	00000013          	addi	x0,x0,0
    2650:	00000013          	addi	x0,x0,0
    2654:	00000013          	addi	x0,x0,0
    2658:	00000013          	addi	x0,x0,0
    265c:	00000013          	addi	x0,x0,0

00002660 <trap_mode_print>:
    2660:	00015097          	auipc	x1,0x15
    2664:	ba4080e7          	jalr	x1,-1116(x1) # 17204 <rvmodel_io_write_str>
    2668:	00000013          	addi	x0,x0,0
    266c:	00000013          	addi	x0,x0,0
    2670:	00000013          	addi	x0,x0,0
    2674:	00000013          	addi	x0,x0,0
    2678:	00000013          	addi	x0,x0,0
    267c:	00000013          	addi	x0,x0,0
    2680:	00004517          	auipc	x10,0x4
    2684:	51b50513          	addi	x10,x10,1307 # 6b9b <trap_diag_field_str>
    2688:	00000013          	addi	x0,x0,0
    268c:	00000013          	addi	x0,x0,0
    2690:	00000013          	addi	x0,x0,0
    2694:	00000013          	addi	x0,x0,0
    2698:	00000013          	addi	x0,x0,0
    269c:	00000013          	addi	x0,x0,0
    26a0:	00015097          	auipc	x1,0x15
    26a4:	b64080e7          	jalr	x1,-1180(x1) # 17204 <rvmodel_io_write_str>
    26a8:	00003517          	auipc	x10,0x3
    26ac:	01852503          	lw	x10,24(x10) # 56c0 <trap_diag_subtype>
    26b0:	00100593          	addi	x11,x0,1
    26b4:	06b50863          	beq	x10,x11,2724 <trap_field_vect>
    26b8:	00200593          	addi	x11,x0,2
    26bc:	0ab50463          	beq	x10,x11,2764 <trap_field_cause>
    26c0:	00300593          	addi	x11,x0,3
    26c4:	0eb50063          	beq	x10,x11,27a4 <trap_field_epc>
    26c8:	00400593          	addi	x11,x0,4
    26cc:	10b50c63          	beq	x10,x11,27e4 <trap_field_tval>
    26d0:	00500593          	addi	x11,x0,5
    26d4:	14b50863          	beq	x10,x11,2824 <trap_field_ip>
    26d8:	00600593          	addi	x11,x0,6
    26dc:	18b50463          	beq	x10,x11,2864 <trap_field_tval2>
    26e0:	00700593          	addi	x11,x0,7
    26e4:	1cb50063          	beq	x10,x11,28a4 <trap_field_tinst>
    26e8:	00800593          	addi	x11,x0,8
    26ec:	1eb50c63          	beq	x10,x11,28e4 <trap_field_intid>
    26f0:	00000013          	addi	x0,x0,0
    26f4:	00000013          	addi	x0,x0,0
    26f8:	00000013          	addi	x0,x0,0
    26fc:	00000013          	addi	x0,x0,0
    2700:	00004517          	auipc	x10,0x4
    2704:	5f250513          	addi	x10,x10,1522 # 6cf2 <trap_diag_field_unknown_str>
    2708:	00000013          	addi	x0,x0,0
    270c:	00000013          	addi	x0,x0,0
    2710:	00000013          	addi	x0,x0,0
    2714:	00000013          	addi	x0,x0,0
    2718:	00000013          	addi	x0,x0,0
    271c:	00000013          	addi	x0,x0,0
    2720:	2000006f          	jal	x0,2920 <trap_field_print>

00002724 <trap_field_vect>:
    2724:	00000013          	addi	x0,x0,0
    2728:	00000013          	addi	x0,x0,0
    272c:	00000013          	addi	x0,x0,0
    2730:	00000013          	addi	x0,x0,0
    2734:	00000013          	addi	x0,x0,0
    2738:	00000013          	addi	x0,x0,0
    273c:	00000013          	addi	x0,x0,0
    2740:	00004517          	auipc	x10,0x4
    2744:	47550513          	addi	x10,x10,1141 # 6bb5 <trap_diag_field_vect_str>
    2748:	00000013          	addi	x0,x0,0
    274c:	00000013          	addi	x0,x0,0
    2750:	00000013          	addi	x0,x0,0
    2754:	00000013          	addi	x0,x0,0
    2758:	00000013          	addi	x0,x0,0
    275c:	00000013          	addi	x0,x0,0
    2760:	1c00006f          	jal	x0,2920 <trap_field_print>

00002764 <trap_field_cause>:
    2764:	00000013          	addi	x0,x0,0
    2768:	00000013          	addi	x0,x0,0
    276c:	00000013          	addi	x0,x0,0
    2770:	00000013          	addi	x0,x0,0
    2774:	00000013          	addi	x0,x0,0
    2778:	00000013          	addi	x0,x0,0
    277c:	00000013          	addi	x0,x0,0
    2780:	00004517          	auipc	x10,0x4
    2784:	46650513          	addi	x10,x10,1126 # 6be6 <trap_diag_field_cause_str>
    2788:	00000013          	addi	x0,x0,0
    278c:	00000013          	addi	x0,x0,0
    2790:	00000013          	addi	x0,x0,0
    2794:	00000013          	addi	x0,x0,0
    2798:	00000013          	addi	x0,x0,0
    279c:	00000013          	addi	x0,x0,0
    27a0:	1800006f          	jal	x0,2920 <trap_field_print>

000027a4 <trap_field_epc>:
    27a4:	00000013          	addi	x0,x0,0
    27a8:	00000013          	addi	x0,x0,0
    27ac:	00000013          	addi	x0,x0,0
    27b0:	00000013          	addi	x0,x0,0
    27b4:	00000013          	addi	x0,x0,0
    27b8:	00000013          	addi	x0,x0,0
    27bc:	00000013          	addi	x0,x0,0
    27c0:	00004517          	auipc	x10,0x4
    27c4:	44650513          	addi	x10,x10,1094 # 6c06 <trap_diag_field_epc_str>
    27c8:	00000013          	addi	x0,x0,0
    27cc:	00000013          	addi	x0,x0,0
    27d0:	00000013          	addi	x0,x0,0
    27d4:	00000013          	addi	x0,x0,0
    27d8:	00000013          	addi	x0,x0,0
    27dc:	00000013          	addi	x0,x0,0
    27e0:	1400006f          	jal	x0,2920 <trap_field_print>

000027e4 <trap_field_tval>:
    27e4:	00000013          	addi	x0,x0,0
    27e8:	00000013          	addi	x0,x0,0
    27ec:	00000013          	addi	x0,x0,0
    27f0:	00000013          	addi	x0,x0,0
    27f4:	00000013          	addi	x0,x0,0
    27f8:	00000013          	addi	x0,x0,0
    27fc:	00000013          	addi	x0,x0,0
    2800:	00004517          	auipc	x10,0x4
    2804:	42450513          	addi	x10,x10,1060 # 6c24 <trap_diag_field_tval_str>
    2808:	00000013          	addi	x0,x0,0
    280c:	00000013          	addi	x0,x0,0
    2810:	00000013          	addi	x0,x0,0
    2814:	00000013          	addi	x0,x0,0
    2818:	00000013          	addi	x0,x0,0
    281c:	00000013          	addi	x0,x0,0
    2820:	1000006f          	jal	x0,2920 <trap_field_print>

00002824 <trap_field_ip>:
    2824:	00000013          	addi	x0,x0,0
    2828:	00000013          	addi	x0,x0,0
    282c:	00000013          	addi	x0,x0,0
    2830:	00000013          	addi	x0,x0,0
    2834:	00000013          	addi	x0,x0,0
    2838:	00000013          	addi	x0,x0,0
    283c:	00000013          	addi	x0,x0,0
    2840:	00004517          	auipc	x10,0x4
    2844:	40350513          	addi	x10,x10,1027 # 6c43 <trap_diag_field_ip_str>
    2848:	00000013          	addi	x0,x0,0
    284c:	00000013          	addi	x0,x0,0
    2850:	00000013          	addi	x0,x0,0
    2854:	00000013          	addi	x0,x0,0
    2858:	00000013          	addi	x0,x0,0
    285c:	00000013          	addi	x0,x0,0
    2860:	0c00006f          	jal	x0,2920 <trap_field_print>

00002864 <trap_field_tval2>:
    2864:	00000013          	addi	x0,x0,0
    2868:	00000013          	addi	x0,x0,0
    286c:	00000013          	addi	x0,x0,0
    2870:	00000013          	addi	x0,x0,0
    2874:	00000013          	addi	x0,x0,0
    2878:	00000013          	addi	x0,x0,0
    287c:	00000013          	addi	x0,x0,0
    2880:	00004517          	auipc	x10,0x4
    2884:	3eb50513          	addi	x10,x10,1003 # 6c6b <trap_diag_field_tval2_str>
    2888:	00000013          	addi	x0,x0,0
    288c:	00000013          	addi	x0,x0,0
    2890:	00000013          	addi	x0,x0,0
    2894:	00000013          	addi	x0,x0,0
    2898:	00000013          	addi	x0,x0,0
    289c:	00000013          	addi	x0,x0,0
    28a0:	0800006f          	jal	x0,2920 <trap_field_print>

000028a4 <trap_field_tinst>:
    28a4:	00000013          	addi	x0,x0,0
    28a8:	00000013          	addi	x0,x0,0
    28ac:	00000013          	addi	x0,x0,0
    28b0:	00000013          	addi	x0,x0,0
    28b4:	00000013          	addi	x0,x0,0
    28b8:	00000013          	addi	x0,x0,0
    28bc:	00000013          	addi	x0,x0,0
    28c0:	00004517          	auipc	x10,0x4
    28c4:	3d750513          	addi	x10,x10,983 # 6c97 <trap_diag_field_tinst_str>
    28c8:	00000013          	addi	x0,x0,0
    28cc:	00000013          	addi	x0,x0,0
    28d0:	00000013          	addi	x0,x0,0
    28d4:	00000013          	addi	x0,x0,0
    28d8:	00000013          	addi	x0,x0,0
    28dc:	00000013          	addi	x0,x0,0
    28e0:	0400006f          	jal	x0,2920 <trap_field_print>

000028e4 <trap_field_intid>:
    28e4:	00000013          	addi	x0,x0,0
    28e8:	00000013          	addi	x0,x0,0
    28ec:	00000013          	addi	x0,x0,0
    28f0:	00000013          	addi	x0,x0,0
    28f4:	00000013          	addi	x0,x0,0
    28f8:	00000013          	addi	x0,x0,0
    28fc:	00000013          	addi	x0,x0,0
    2900:	00004517          	auipc	x10,0x4
    2904:	3c350513          	addi	x10,x10,963 # 6cc3 <trap_diag_field_intid_str>
    2908:	00000013          	addi	x0,x0,0
    290c:	00000013          	addi	x0,x0,0
    2910:	00000013          	addi	x0,x0,0
    2914:	00000013          	addi	x0,x0,0
    2918:	00000013          	addi	x0,x0,0
    291c:	00000013          	addi	x0,x0,0

00002920 <trap_field_print>:
    2920:	00015097          	auipc	x1,0x15
    2924:	8e4080e7          	jalr	x1,-1820(x1) # 17204 <rvmodel_io_write_str>
    2928:	00000013          	addi	x0,x0,0
    292c:	00000013          	addi	x0,x0,0
    2930:	00000013          	addi	x0,x0,0
    2934:	00000013          	addi	x0,x0,0
    2938:	00000013          	addi	x0,x0,0
    293c:	00000013          	addi	x0,x0,0
    2940:	00004517          	auipc	x10,0x4
    2944:	3c150513          	addi	x10,x10,961 # 6d01 <trap_diag_expected_str>
    2948:	00000013          	addi	x0,x0,0
    294c:	00000013          	addi	x0,x0,0
    2950:	00000013          	addi	x0,x0,0
    2954:	00000013          	addi	x0,x0,0
    2958:	00000013          	addi	x0,x0,0
    295c:	00000013          	addi	x0,x0,0
    2960:	00015097          	auipc	x1,0x15
    2964:	8a4080e7          	jalr	x1,-1884(x1) # 17204 <rvmodel_io_write_str>
    2968:	00003517          	auipc	x10,0x3
    296c:	d6852503          	lw	x10,-664(x10) # 56d0 <trap_diag_expected_value>
    2970:	02000593          	addi	x11,x0,32
    2974:	664000ef          	jal	x1,2fd8 <failedtest_hex_to_str>
    2978:	00000013          	addi	x0,x0,0
    297c:	00000013          	addi	x0,x0,0
    2980:	00003517          	auipc	x10,0x3
    2984:	d9850513          	addi	x10,x10,-616 # 5718 <ascii_buffer>
    2988:	00000013          	addi	x0,x0,0
    298c:	00000013          	addi	x0,x0,0
    2990:	00000013          	addi	x0,x0,0
    2994:	00000013          	addi	x0,x0,0
    2998:	00000013          	addi	x0,x0,0
    299c:	00000013          	addi	x0,x0,0
    29a0:	00015097          	auipc	x1,0x15
    29a4:	864080e7          	jalr	x1,-1948(x1) # 17204 <rvmodel_io_write_str>
    29a8:	00000013          	addi	x0,x0,0
    29ac:	00000013          	addi	x0,x0,0
    29b0:	00000013          	addi	x0,x0,0
    29b4:	00000013          	addi	x0,x0,0
    29b8:	00000013          	addi	x0,x0,0
    29bc:	00000013          	addi	x0,x0,0
    29c0:	00004517          	auipc	x10,0x4
    29c4:	35850513          	addi	x10,x10,856 # 6d18 <trap_diag_actual_str>
    29c8:	00000013          	addi	x0,x0,0
    29cc:	00000013          	addi	x0,x0,0
    29d0:	00000013          	addi	x0,x0,0
    29d4:	00000013          	addi	x0,x0,0
    29d8:	00000013          	addi	x0,x0,0
    29dc:	00000013          	addi	x0,x0,0
    29e0:	00015097          	auipc	x1,0x15
    29e4:	824080e7          	jalr	x1,-2012(x1) # 17204 <rvmodel_io_write_str>
    29e8:	00003517          	auipc	x10,0x3
    29ec:	ce052503          	lw	x10,-800(x10) # 56c8 <trap_diag_actual_value>
    29f0:	02000593          	addi	x11,x0,32
    29f4:	5e4000ef          	jal	x1,2fd8 <failedtest_hex_to_str>
    29f8:	00000013          	addi	x0,x0,0
    29fc:	00000013          	addi	x0,x0,0
    2a00:	00003517          	auipc	x10,0x3
    2a04:	d1850513          	addi	x10,x10,-744 # 5718 <ascii_buffer>
    2a08:	00000013          	addi	x0,x0,0
    2a0c:	00000013          	addi	x0,x0,0
    2a10:	00000013          	addi	x0,x0,0
    2a14:	00000013          	addi	x0,x0,0
    2a18:	00000013          	addi	x0,x0,0
    2a1c:	00000013          	addi	x0,x0,0
    2a20:	00014097          	auipc	x1,0x14
    2a24:	7e4080e7          	jalr	x1,2020(x1) # 17204 <rvmodel_io_write_str>
    2a28:	00003517          	auipc	x10,0x3
    2a2c:	c9852503          	lw	x10,-872(x10) # 56c0 <trap_diag_subtype>
    2a30:	00200593          	addi	x11,x0,2
    2a34:	08b51463          	bne	x10,x11,2abc <trap_field_not_cause>
    2a38:	00000013          	addi	x0,x0,0
    2a3c:	00000013          	addi	x0,x0,0
    2a40:	00004517          	auipc	x10,0x4
    2a44:	2ef50513          	addi	x10,x10,751 # 6d2f <trap_diag_expected_cause_name_str>
    2a48:	00000013          	addi	x0,x0,0
    2a4c:	00000013          	addi	x0,x0,0
    2a50:	00000013          	addi	x0,x0,0
    2a54:	00000013          	addi	x0,x0,0
    2a58:	00000013          	addi	x0,x0,0
    2a5c:	00000013          	addi	x0,x0,0
    2a60:	00014097          	auipc	x1,0x14
    2a64:	7a4080e7          	jalr	x1,1956(x1) # 17204 <rvmodel_io_write_str>
    2a68:	00003517          	auipc	x10,0x3
    2a6c:	c6852503          	lw	x10,-920(x10) # 56d0 <trap_diag_expected_value>
    2a70:	284000ef          	jal	x1,2cf4 <trap_cause_to_str>
    2a74:	00014097          	auipc	x1,0x14
    2a78:	790080e7          	jalr	x1,1936(x1) # 17204 <rvmodel_io_write_str>
    2a7c:	00000013          	addi	x0,x0,0
    2a80:	00004517          	auipc	x10,0x4
    2a84:	2c650513          	addi	x10,x10,710 # 6d46 <trap_diag_actual_cause_name_str>
    2a88:	00000013          	addi	x0,x0,0
    2a8c:	00000013          	addi	x0,x0,0
    2a90:	00000013          	addi	x0,x0,0
    2a94:	00000013          	addi	x0,x0,0
    2a98:	00000013          	addi	x0,x0,0
    2a9c:	00000013          	addi	x0,x0,0
    2aa0:	00014097          	auipc	x1,0x14
    2aa4:	764080e7          	jalr	x1,1892(x1) # 17204 <rvmodel_io_write_str>
    2aa8:	00003517          	auipc	x10,0x3
    2aac:	c2052503          	lw	x10,-992(x10) # 56c8 <trap_diag_actual_value>
    2ab0:	244000ef          	jal	x1,2cf4 <trap_cause_to_str>
    2ab4:	00014097          	auipc	x1,0x14
    2ab8:	750080e7          	jalr	x1,1872(x1) # 17204 <rvmodel_io_write_str>

00002abc <trap_field_not_cause>:
    2abc:	00000097          	auipc	x1,0x0
    2ac0:	314080e7          	jalr	x1,788(x1) # 2dd0 <failedtest_print_csr_context>
    2ac4:	00003517          	auipc	x10,0x3
    2ac8:	bfc52503          	lw	x10,-1028(x10) # 56c0 <trap_diag_subtype>
    2acc:	00100593          	addi	x11,x0,1
    2ad0:	02b51e63          	bne	x10,x11,2b0c <trap_field_not_cause+0x50>
    2ad4:	00000013          	addi	x0,x0,0
    2ad8:	00000013          	addi	x0,x0,0
    2adc:	00000013          	addi	x0,x0,0
    2ae0:	00004517          	auipc	x10,0x4
    2ae4:	2dc50513          	addi	x10,x10,732 # 6dbc <trap_diag_hint_vect_str>
    2ae8:	00000013          	addi	x0,x0,0
    2aec:	00000013          	addi	x0,x0,0
    2af0:	00000013          	addi	x0,x0,0
    2af4:	00000013          	addi	x0,x0,0
    2af8:	00000013          	addi	x0,x0,0
    2afc:	00000013          	addi	x0,x0,0
    2b00:	00014097          	auipc	x1,0x14
    2b04:	704080e7          	jalr	x1,1796(x1) # 17204 <rvmodel_io_write_str>
    2b08:	27c0006f          	jal	x0,2d84 <failedtest_report_end>
    2b0c:	00200593          	addi	x11,x0,2
    2b10:	02b51e63          	bne	x10,x11,2b4c <trap_field_not_cause+0x90>
    2b14:	00000013          	addi	x0,x0,0
    2b18:	00000013          	addi	x0,x0,0
    2b1c:	00000013          	addi	x0,x0,0
    2b20:	00004517          	auipc	x10,0x4
    2b24:	37250513          	addi	x10,x10,882 # 6e92 <trap_diag_hint_cause_str>
    2b28:	00000013          	addi	x0,x0,0
    2b2c:	00000013          	addi	x0,x0,0
    2b30:	00000013          	addi	x0,x0,0
    2b34:	00000013          	addi	x0,x0,0
    2b38:	00000013          	addi	x0,x0,0
    2b3c:	00000013          	addi	x0,x0,0
    2b40:	00014097          	auipc	x1,0x14
    2b44:	6c4080e7          	jalr	x1,1732(x1) # 17204 <rvmodel_io_write_str>
    2b48:	23c0006f          	jal	x0,2d84 <failedtest_report_end>
    2b4c:	00300593          	addi	x11,x0,3
    2b50:	02b51e63          	bne	x10,x11,2b8c <trap_field_not_cause+0xd0>
    2b54:	00000013          	addi	x0,x0,0
    2b58:	00000013          	addi	x0,x0,0
    2b5c:	00000013          	addi	x0,x0,0
    2b60:	00004517          	auipc	x10,0x4
    2b64:	42550513          	addi	x10,x10,1061 # 6f85 <trap_diag_hint_epc_str>
    2b68:	00000013          	addi	x0,x0,0
    2b6c:	00000013          	addi	x0,x0,0
    2b70:	00000013          	addi	x0,x0,0
    2b74:	00000013          	addi	x0,x0,0
    2b78:	00000013          	addi	x0,x0,0
    2b7c:	00000013          	addi	x0,x0,0
    2b80:	00014097          	auipc	x1,0x14
    2b84:	684080e7          	jalr	x1,1668(x1) # 17204 <rvmodel_io_write_str>
    2b88:	1fc0006f          	jal	x0,2d84 <failedtest_report_end>
    2b8c:	00400593          	addi	x11,x0,4
    2b90:	02b51e63          	bne	x10,x11,2bcc <trap_field_not_cause+0x110>
    2b94:	00000013          	addi	x0,x0,0
    2b98:	00000013          	addi	x0,x0,0
    2b9c:	00000013          	addi	x0,x0,0
    2ba0:	00004517          	auipc	x10,0x4
    2ba4:	4e050513          	addi	x10,x10,1248 # 7080 <trap_diag_hint_tval_str>
    2ba8:	00000013          	addi	x0,x0,0
    2bac:	00000013          	addi	x0,x0,0
    2bb0:	00000013          	addi	x0,x0,0
    2bb4:	00000013          	addi	x0,x0,0
    2bb8:	00000013          	addi	x0,x0,0
    2bbc:	00000013          	addi	x0,x0,0
    2bc0:	00014097          	auipc	x1,0x14
    2bc4:	644080e7          	jalr	x1,1604(x1) # 17204 <rvmodel_io_write_str>
    2bc8:	1bc0006f          	jal	x0,2d84 <failedtest_report_end>
    2bcc:	00500593          	addi	x11,x0,5
    2bd0:	02b51e63          	bne	x10,x11,2c0c <trap_field_not_cause+0x150>
    2bd4:	00000013          	addi	x0,x0,0
    2bd8:	00000013          	addi	x0,x0,0
    2bdc:	00000013          	addi	x0,x0,0
    2be0:	00004517          	auipc	x10,0x4
    2be4:	58750513          	addi	x10,x10,1415 # 7167 <trap_diag_hint_ip_str>
    2be8:	00000013          	addi	x0,x0,0
    2bec:	00000013          	addi	x0,x0,0
    2bf0:	00000013          	addi	x0,x0,0
    2bf4:	00000013          	addi	x0,x0,0
    2bf8:	00000013          	addi	x0,x0,0
    2bfc:	00000013          	addi	x0,x0,0
    2c00:	00014097          	auipc	x1,0x14
    2c04:	604080e7          	jalr	x1,1540(x1) # 17204 <rvmodel_io_write_str>
    2c08:	17c0006f          	jal	x0,2d84 <failedtest_report_end>
    2c0c:	1780006f          	jal	x0,2d84 <failedtest_report_end>

00002c10 <trap_report_generic>:
    2c10:	00000013          	addi	x0,x0,0
    2c14:	00000013          	addi	x0,x0,0
    2c18:	00000013          	addi	x0,x0,0
    2c1c:	00000013          	addi	x0,x0,0
    2c20:	00004517          	auipc	x10,0x4
    2c24:	15450513          	addi	x10,x10,340 # 6d74 <trap_diag_generic_str>
    2c28:	00000013          	addi	x0,x0,0
    2c2c:	00000013          	addi	x0,x0,0
    2c30:	00000013          	addi	x0,x0,0
    2c34:	00000013          	addi	x0,x0,0
    2c38:	00000013          	addi	x0,x0,0
    2c3c:	00000013          	addi	x0,x0,0
    2c40:	00014097          	auipc	x1,0x14
    2c44:	5c4080e7          	jalr	x1,1476(x1) # 17204 <rvmodel_io_write_str>
    2c48:	00003617          	auipc	x12,0x3
    2c4c:	ab062603          	lw	x12,-1360(x12) # 56f8 <saved_mepc>
    2c50:	00000013          	addi	x0,x0,0
    2c54:	00000013          	addi	x0,x0,0
    2c58:	00000013          	addi	x0,x0,0
    2c5c:	00000013          	addi	x0,x0,0
    2c60:	00003517          	auipc	x10,0x3
    2c64:	0f750513          	addi	x10,x10,247 # 5d57 <xepcinstrstr>
    2c68:	00000013          	addi	x0,x0,0
    2c6c:	00000013          	addi	x0,x0,0
    2c70:	00000013          	addi	x0,x0,0
    2c74:	00000013          	addi	x0,x0,0
    2c78:	00000013          	addi	x0,x0,0
    2c7c:	00000013          	addi	x0,x0,0
    2c80:	00014097          	auipc	x1,0x14
    2c84:	584080e7          	jalr	x1,1412(x1) # 17204 <rvmodel_io_write_str>
    2c88:	00065503          	lhu	x10,0(x12)
    2c8c:	01000593          	addi	x11,x0,16
    2c90:	00357413          	andi	x8,x10,3
    2c94:	00300493          	addi	x9,x0,3
    2c98:	00941a63          	bne	x8,x9,2cac <trap_report_generic+0x9c>
    2c9c:	00265403          	lhu	x8,2(x12)
    2ca0:	01041413          	slli	x8,x8,0x10
    2ca4:	00856533          	or	x10,x10,x8
    2ca8:	02000593          	addi	x11,x0,32
    2cac:	32c000ef          	jal	x1,2fd8 <failedtest_hex_to_str>
    2cb0:	00000013          	addi	x0,x0,0
    2cb4:	00000013          	addi	x0,x0,0
    2cb8:	00000013          	addi	x0,x0,0
    2cbc:	00000013          	addi	x0,x0,0
    2cc0:	00003517          	auipc	x10,0x3
    2cc4:	a5850513          	addi	x10,x10,-1448 # 5718 <ascii_buffer>
    2cc8:	00000013          	addi	x0,x0,0
    2ccc:	00000013          	addi	x0,x0,0
    2cd0:	00000013          	addi	x0,x0,0
    2cd4:	00000013          	addi	x0,x0,0
    2cd8:	00000013          	addi	x0,x0,0
    2cdc:	00000013          	addi	x0,x0,0
    2ce0:	00014097          	auipc	x1,0x14
    2ce4:	524080e7          	jalr	x1,1316(x1) # 17204 <rvmodel_io_write_str>
    2ce8:	00000097          	auipc	x1,0x0
    2cec:	0e8080e7          	jalr	x1,232(x1) # 2dd0 <failedtest_print_csr_context>
    2cf0:	0940006f          	jal	x0,2d84 <failedtest_report_end>

00002cf4 <trap_cause_to_str>:
    2cf4:	02054263          	blt	x10,x0,2d18 <trap_cause_interrupt>

00002cf8 <trap_cause_exception>:
    2cf8:	01800593          	addi	x11,x0,24
    2cfc:	04b55463          	bge	x10,x11,2d44 <trap_cause_unknown>
    2d00:	00003597          	auipc	x11,0x3
    2d04:	a4058593          	addi	x11,x11,-1472 # 5740 <end_failure_scratch>
    2d08:	00251613          	slli	x12,x10,0x2
    2d0c:	00c585b3          	add	x11,x11,x12
    2d10:	0005a503          	lw	x10,0(x11)
    2d14:	00008067          	jalr	x0,0(x1)

00002d18 <trap_cause_interrupt>:
    2d18:	00100593          	addi	x11,x0,1
    2d1c:	01f59593          	slli	x11,x11,0x1f
    2d20:	00b54533          	xor	x10,x10,x11
    2d24:	01000593          	addi	x11,x0,16
    2d28:	00b55e63          	bge	x10,x11,2d44 <trap_cause_unknown>
    2d2c:	00003597          	auipc	x11,0x3
    2d30:	a7458593          	addi	x11,x11,-1420 # 57a0 <trap_int_name_tbl>
    2d34:	00251613          	slli	x12,x10,0x2
    2d38:	00c585b3          	add	x11,x11,x12
    2d3c:	0005a503          	lw	x10,0(x11)
    2d40:	00008067          	jalr	x0,0(x1)

00002d44 <trap_cause_unknown>:
    2d44:	00000013          	addi	x0,x0,0
    2d48:	00000013          	addi	x0,x0,0
    2d4c:	00000013          	addi	x0,x0,0
    2d50:	00000013          	addi	x0,x0,0
    2d54:	00000013          	addi	x0,x0,0
    2d58:	00000013          	addi	x0,x0,0
    2d5c:	00000013          	addi	x0,x0,0
    2d60:	00003517          	auipc	x10,0x3
    2d64:	e7e50513          	addi	x10,x10,-386 # 5bde <trap_cause_unknown_str>
    2d68:	00000013          	addi	x0,x0,0
    2d6c:	00000013          	addi	x0,x0,0
    2d70:	00000013          	addi	x0,x0,0
    2d74:	00000013          	addi	x0,x0,0
    2d78:	00000013          	addi	x0,x0,0
    2d7c:	00000013          	addi	x0,x0,0
    2d80:	00008067          	jalr	x0,0(x1)

00002d84 <failedtest_report_end>:
    2d84:	00000013          	addi	x0,x0,0
    2d88:	00000013          	addi	x0,x0,0
    2d8c:	00000013          	addi	x0,x0,0
    2d90:	00000013          	addi	x0,x0,0
    2d94:	00000013          	addi	x0,x0,0
    2d98:	00000013          	addi	x0,x0,0
    2d9c:	00000013          	addi	x0,x0,0
    2da0:	00004517          	auipc	x10,0x4
    2da4:	9ff50513          	addi	x10,x10,-1537 # 679f <endstr>
    2da8:	00000013          	addi	x0,x0,0
    2dac:	00000013          	addi	x0,x0,0
    2db0:	00000013          	addi	x0,x0,0
    2db4:	00000013          	addi	x0,x0,0
    2db8:	00000013          	addi	x0,x0,0
    2dbc:	00000013          	addi	x0,x0,0
    2dc0:	00014097          	auipc	x1,0x14
    2dc4:	444080e7          	jalr	x1,1092(x1) # 17204 <rvmodel_io_write_str>

00002dc8 <failedtest_terminate>:
    2dc8:	00014097          	auipc	x1,0x14
    2dcc:	44c080e7          	jalr	x1,1100(x1) # 17214 <rvmodel_halt_fail>

00002dd0 <failedtest_print_csr_context>:
    2dd0:	00003617          	auipc	x12,0x3
    2dd4:	92060613          	addi	x12,x12,-1760 # 56f0 <csr_context_ret_addr>
    2dd8:	00162023          	sw	x1,0(x12)
    2ddc:	00000013          	addi	x0,x0,0
    2de0:	00003517          	auipc	x10,0x3
    2de4:	f9850513          	addi	x10,x10,-104 # 5d78 <mepcstr>
    2de8:	00000013          	addi	x0,x0,0
    2dec:	00000013          	addi	x0,x0,0
    2df0:	00000013          	addi	x0,x0,0
    2df4:	00000013          	addi	x0,x0,0
    2df8:	00000013          	addi	x0,x0,0
    2dfc:	00000013          	addi	x0,x0,0
    2e00:	00014097          	auipc	x1,0x14
    2e04:	404080e7          	jalr	x1,1028(x1) # 17204 <rvmodel_io_write_str>
    2e08:	00003517          	auipc	x10,0x3
    2e0c:	8f052503          	lw	x10,-1808(x10) # 56f8 <saved_mepc>
    2e10:	02000593          	addi	x11,x0,32
    2e14:	1c4000ef          	jal	x1,2fd8 <failedtest_hex_to_str>
    2e18:	00000013          	addi	x0,x0,0
    2e1c:	00000013          	addi	x0,x0,0
    2e20:	00003517          	auipc	x10,0x3
    2e24:	8f850513          	addi	x10,x10,-1800 # 5718 <ascii_buffer>
    2e28:	00000013          	addi	x0,x0,0
    2e2c:	00000013          	addi	x0,x0,0
    2e30:	00000013          	addi	x0,x0,0
    2e34:	00000013          	addi	x0,x0,0
    2e38:	00000013          	addi	x0,x0,0
    2e3c:	00000013          	addi	x0,x0,0
    2e40:	00014097          	auipc	x1,0x14
    2e44:	3c4080e7          	jalr	x1,964(x1) # 17204 <rvmodel_io_write_str>
    2e48:	00000013          	addi	x0,x0,0
    2e4c:	00000013          	addi	x0,x0,0
    2e50:	00000013          	addi	x0,x0,0
    2e54:	00000013          	addi	x0,x0,0
    2e58:	00000013          	addi	x0,x0,0
    2e5c:	00000013          	addi	x0,x0,0
    2e60:	00003517          	auipc	x10,0x3
    2e64:	f2850513          	addi	x10,x10,-216 # 5d88 <mcausestr>
    2e68:	00000013          	addi	x0,x0,0
    2e6c:	00000013          	addi	x0,x0,0
    2e70:	00000013          	addi	x0,x0,0
    2e74:	00000013          	addi	x0,x0,0
    2e78:	00000013          	addi	x0,x0,0
    2e7c:	00000013          	addi	x0,x0,0
    2e80:	00014097          	auipc	x1,0x14
    2e84:	384080e7          	jalr	x1,900(x1) # 17204 <rvmodel_io_write_str>
    2e88:	00003517          	auipc	x10,0x3
    2e8c:	87852503          	lw	x10,-1928(x10) # 5700 <saved_mcause>
    2e90:	02000593          	addi	x11,x0,32
    2e94:	144000ef          	jal	x1,2fd8 <failedtest_hex_to_str>
    2e98:	00000013          	addi	x0,x0,0
    2e9c:	00000013          	addi	x0,x0,0
    2ea0:	00003517          	auipc	x10,0x3
    2ea4:	87850513          	addi	x10,x10,-1928 # 5718 <ascii_buffer>
    2ea8:	00000013          	addi	x0,x0,0
    2eac:	00000013          	addi	x0,x0,0
    2eb0:	00000013          	addi	x0,x0,0
    2eb4:	00000013          	addi	x0,x0,0
    2eb8:	00000013          	addi	x0,x0,0
    2ebc:	00000013          	addi	x0,x0,0
    2ec0:	00014097          	auipc	x1,0x14
    2ec4:	344080e7          	jalr	x1,836(x1) # 17204 <rvmodel_io_write_str>
    2ec8:	00000013          	addi	x0,x0,0
    2ecc:	00000013          	addi	x0,x0,0
    2ed0:	00000013          	addi	x0,x0,0
    2ed4:	00000013          	addi	x0,x0,0
    2ed8:	00000013          	addi	x0,x0,0
    2edc:	00000013          	addi	x0,x0,0
    2ee0:	00003517          	auipc	x10,0x3
    2ee4:	eb850513          	addi	x10,x10,-328 # 5d98 <mtvalstr>
    2ee8:	00000013          	addi	x0,x0,0
    2eec:	00000013          	addi	x0,x0,0
    2ef0:	00000013          	addi	x0,x0,0
    2ef4:	00000013          	addi	x0,x0,0
    2ef8:	00000013          	addi	x0,x0,0
    2efc:	00000013          	addi	x0,x0,0
    2f00:	00014097          	auipc	x1,0x14
    2f04:	304080e7          	jalr	x1,772(x1) # 17204 <rvmodel_io_write_str>
    2f08:	00003517          	auipc	x10,0x3
    2f0c:	80052503          	lw	x10,-2048(x10) # 5708 <saved_mtval>
    2f10:	02000593          	addi	x11,x0,32
    2f14:	0c4000ef          	jal	x1,2fd8 <failedtest_hex_to_str>
    2f18:	00000013          	addi	x0,x0,0
    2f1c:	00000013          	addi	x0,x0,0
    2f20:	00002517          	auipc	x10,0x2
    2f24:	7f850513          	addi	x10,x10,2040 # 5718 <ascii_buffer>
    2f28:	00000013          	addi	x0,x0,0
    2f2c:	00000013          	addi	x0,x0,0
    2f30:	00000013          	addi	x0,x0,0
    2f34:	00000013          	addi	x0,x0,0
    2f38:	00000013          	addi	x0,x0,0
    2f3c:	00000013          	addi	x0,x0,0
    2f40:	00014097          	auipc	x1,0x14
    2f44:	2c4080e7          	jalr	x1,708(x1) # 17204 <rvmodel_io_write_str>
    2f48:	00000013          	addi	x0,x0,0
    2f4c:	00000013          	addi	x0,x0,0
    2f50:	00000013          	addi	x0,x0,0
    2f54:	00000013          	addi	x0,x0,0
    2f58:	00000013          	addi	x0,x0,0
    2f5c:	00000013          	addi	x0,x0,0
    2f60:	00003517          	auipc	x10,0x3
    2f64:	e4850513          	addi	x10,x10,-440 # 5da8 <mstatusstr>
    2f68:	00000013          	addi	x0,x0,0
    2f6c:	00000013          	addi	x0,x0,0
    2f70:	00000013          	addi	x0,x0,0
    2f74:	00000013          	addi	x0,x0,0
    2f78:	00000013          	addi	x0,x0,0
    2f7c:	00000013          	addi	x0,x0,0
    2f80:	00014097          	auipc	x1,0x14
    2f84:	284080e7          	jalr	x1,644(x1) # 17204 <rvmodel_io_write_str>
    2f88:	00002517          	auipc	x10,0x2
    2f8c:	78852503          	lw	x10,1928(x10) # 5710 <saved_mstatus>
    2f90:	02000593          	addi	x11,x0,32
    2f94:	044000ef          	jal	x1,2fd8 <failedtest_hex_to_str>
    2f98:	00000013          	addi	x0,x0,0
    2f9c:	00000013          	addi	x0,x0,0
    2fa0:	00002517          	auipc	x10,0x2
    2fa4:	77850513          	addi	x10,x10,1912 # 5718 <ascii_buffer>
    2fa8:	00000013          	addi	x0,x0,0
    2fac:	00000013          	addi	x0,x0,0
    2fb0:	00000013          	addi	x0,x0,0
    2fb4:	00000013          	addi	x0,x0,0
    2fb8:	00000013          	addi	x0,x0,0
    2fbc:	00000013          	addi	x0,x0,0
