
/home/dev/github/clones/riscv-arch-test/work/rv32i-core/elfs/rv32i/I/I-xori-00.elf:     file format elf32-littleriscv
/home/dev/github/clones/riscv-arch-test/work/rv32i-core/elfs/rv32i/I/I-xori-00.elf
architecture: riscv:rv32, flags 0x00000112:
EXEC_P, HAS_SYMS, D_PAGED
start address 0x00000000

Program Header:
0x70000003 off    0x0001e240 vaddr 0x00000000 paddr 0x00000000 align 2**0
         filesz 0x00000033 memsz 0x00000000 flags r--
    LOAD off    0x00001000 vaddr 0x00000000 paddr 0x00000000 align 2**12
         filesz 0x00004f40 memsz 0x00004f40 flags r-x
    LOAD off    0x00006000 vaddr 0x00008000 paddr 0x00008000 align 2**12
         filesz 0x00018240 memsz 0x00018240 flags rwx

Sections:
Idx Name          Size      VMA       LMA       File off  Algn
  0 .text.init    00000040  00000000  00000000  00001000  2**5
                  CONTENTS, ALLOC, LOAD, READONLY, CODE
  1 .text.rvtest  00004f00  00000040  00000040  00001040  2**5
                  CONTENTS, ALLOC, LOAD, READONLY, CODE
  2 .data         00017c90  00008000  00008000  00006000  2**8
                  CONTENTS, ALLOC, LOAD, DATA
  3 .text.rvmodel 00000240  00020000  00020000  0001e000  2**5
                  CONTENTS, ALLOC, LOAD, READONLY, CODE
  4 .riscv.attributes 00000033  00000000  00000000  0001e240  2**0
                  CONTENTS, READONLY
  5 .debug_line   00001ae2  00000000  00000000  0001e273  2**0
                  CONTENTS, READONLY, DEBUGGING, OCTETS
  6 .debug_line_str 0000006a  00000000  00000000  0001fd55  2**0
                  CONTENTS, READONLY, DEBUGGING, OCTETS
  7 .debug_info   00000023  00000000  00000000  0001fdbf  2**0
                  CONTENTS, READONLY, DEBUGGING, OCTETS
  8 .debug_abbrev 00000012  00000000  00000000  0001fde2  2**0
                  CONTENTS, READONLY, DEBUGGING, OCTETS
  9 .debug_aranges 00000028  00000000  00000000  0001fdf8  2**3
                  CONTENTS, READONLY, DEBUGGING, OCTETS
 10 .debug_str    00000076  00000000  00000000  0001fe20  2**0
                  CONTENTS, READONLY, DEBUGGING, OCTETS
 11 .debug_rnglists 0000001b  00000000  00000000  0001fe96  2**0
                  CONTENTS, READONLY, DEBUGGING, OCTETS
SYMBOL TABLE:
00000000 l    d  .text.init	00000000 .text.init
00000040 l    d  .text.rvtest	00000000 .text.rvtest
00008000 l    d  .data	00000000 .data
00020000 l    d  .text.rvmodel	00000000 .text.rvmodel
00000000 l    d  .riscv.attributes	00000000 .riscv.attributes
00000000 l    d  .debug_line	00000000 .debug_line
00000000 l    d  .debug_line_str	00000000 .debug_line_str
00000000 l    d  .debug_info	00000000 .debug_info
00000000 l    d  .debug_abbrev	00000000 .debug_abbrev
00000000 l    d  .debug_aranges	00000000 .debug_aranges
00000000 l    d  .debug_str	00000000 .debug_str
00000000 l    d  .debug_rnglists	00000000 .debug_rnglists
00000000 l    df *ABS*	00000000 ccQccBt4.o
00000003 l       *ABS*	00000000 MMODE_SIG
00000001 l       *ABS*	00000000 SMODE_SIG
00000001 l       *ABS*	00000000 HMODE_SIG
00000002 l       *ABS*	00000000 VMODE_SIG
00020000 l       .text.rvmodel	00000000 rvmodel_boot
00000048 l       .text.rvtest	00000000 I_xori_cg_cp_rs1_b0
000034bc l       .text.rvtest	00000000 failedtest_x5_x4
000086d0 l       .data	00000000 I_xori_cg_cp_rs1_b0_str
0000006c l       .text.rvtest	00000000 I_xori_cg_cp_rs1_b1
000086fe l       .data	00000000 I_xori_cg_cp_rs1_b1_str
00000094 l       .text.rvtest	00000000 I_xori_cg_cp_rs1_b2
0000872c l       .data	00000000 I_xori_cg_cp_rs1_b2_str
000000bc l       .text.rvtest	00000000 I_xori_cg_cp_rs1_b3
0000875a l       .data	00000000 I_xori_cg_cp_rs1_b3_str
000000e8 l       .text.rvtest	00000000 I_xori_cg_cp_rs1_b4
000034fc l       .text.rvtest	00000000 failedtest_x14_x13
00008788 l       .data	00000000 I_xori_cg_cp_rs1_b4_str
0000010c l       .text.rvtest	00000000 I_xori_cg_cp_rs1_b5
000087b6 l       .data	00000000 I_xori_cg_cp_rs1_b5_str
00000130 l       .text.rvtest	00000000 I_xori_cg_cp_rs1_b6
000087e4 l       .data	00000000 I_xori_cg_cp_rs1_b6_str
00000154 l       .text.rvtest	00000000 I_xori_cg_cp_rs1_b7
00008812 l       .data	00000000 I_xori_cg_cp_rs1_b7_str
00000178 l       .text.rvtest	00000000 I_xori_cg_cp_rs1_b8
00008840 l       .data	00000000 I_xori_cg_cp_rs1_b8_str
0000019c l       .text.rvtest	00000000 I_xori_cg_cp_rs1_b9
0000886e l       .data	00000000 I_xori_cg_cp_rs1_b9_str
000001c0 l       .text.rvtest	00000000 I_xori_cg_cp_rs1_b10
0000889d l       .data	00000000 I_xori_cg_cp_rs1_b10_str
000001e4 l       .text.rvtest	00000000 I_xori_cg_cp_rs1_b11
000088cd l       .data	00000000 I_xori_cg_cp_rs1_b11_str
00000208 l       .text.rvtest	00000000 I_xori_cg_cp_rs1_b12
000088fd l       .data	00000000 I_xori_cg_cp_rs1_b12_str
00000234 l       .text.rvtest	00000000 I_xori_cg_cp_rs1_b13
000034d4 l       .text.rvtest	00000000 failedtest_x8_x7
0000892d l       .data	00000000 I_xori_cg_cp_rs1_b13_str
00000258 l       .text.rvtest	00000000 I_xori_cg_cp_rs1_b14
0000895d l       .data	00000000 I_xori_cg_cp_rs1_b14_str
0000027c l       .text.rvtest	00000000 I_xori_cg_cp_rs1_b15
0000898d l       .data	00000000 I_xori_cg_cp_rs1_b15_str
000002a0 l       .text.rvtest	00000000 I_xori_cg_cp_rs1_b16
000089bd l       .data	00000000 I_xori_cg_cp_rs1_b16_str
000002c4 l       .text.rvtest	00000000 I_xori_cg_cp_rs1_b17
000089ed l       .data	00000000 I_xori_cg_cp_rs1_b17_str
000002e8 l       .text.rvtest	00000000 I_xori_cg_cp_rs1_b18
00008a1d l       .data	00000000 I_xori_cg_cp_rs1_b18_str
0000030c l       .text.rvtest	00000000 I_xori_cg_cp_rs1_b19
00008a4d l       .data	00000000 I_xori_cg_cp_rs1_b19_str
00000334 l       .text.rvtest	00000000 I_xori_cg_cp_rs1_b20
00008a7d l       .data	00000000 I_xori_cg_cp_rs1_b20_str
00000358 l       .text.rvtest	00000000 I_xori_cg_cp_rs1_b21
00008aad l       .data	00000000 I_xori_cg_cp_rs1_b21_str
00000380 l       .text.rvtest	00000000 I_xori_cg_cp_rs1_b22
00008add l       .data	00000000 I_xori_cg_cp_rs1_b22_str
000003a4 l       .text.rvtest	00000000 I_xori_cg_cp_rs1_b23
00008b0d l       .data	00000000 I_xori_cg_cp_rs1_b23_str
000003c8 l       .text.rvtest	00000000 I_xori_cg_cp_rs1_b24
00008b3d l       .data	00000000 I_xori_cg_cp_rs1_b24_str
000003ec l       .text.rvtest	00000000 I_xori_cg_cp_rs1_b25
00008b6d l       .data	00000000 I_xori_cg_cp_rs1_b25_str
00000410 l       .text.rvtest	00000000 I_xori_cg_cp_rs1_b26
00008b9d l       .data	00000000 I_xori_cg_cp_rs1_b26_str
00000438 l       .text.rvtest	00000000 I_xori_cg_cp_rs1_b27
00008bcd l       .data	00000000 I_xori_cg_cp_rs1_b27_str
0000045c l       .text.rvtest	00000000 I_xori_cg_cp_rs1_b28
00008bfd l       .data	00000000 I_xori_cg_cp_rs1_b28_str
00000480 l       .text.rvtest	00000000 I_xori_cg_cp_rs1_b29
00008c2d l       .data	00000000 I_xori_cg_cp_rs1_b29_str
000004a4 l       .text.rvtest	00000000 I_xori_cg_cp_rs1_b30
00008c5d l       .data	00000000 I_xori_cg_cp_rs1_b30_str
000004cc l       .text.rvtest	00000000 I_xori_cg_cp_rs1_b31
00008c8d l       .data	00000000 I_xori_cg_cp_rs1_b31_str
000004f0 l       .text.rvtest	00000000 I_xori_cg_cp_rd_b0
00008cbd l       .data	00000000 I_xori_cg_cp_rd_b0_str
00000514 l       .text.rvtest	00000000 I_xori_cg_cp_rd_b1
00008ceb l       .data	00000000 I_xori_cg_cp_rd_b1_str
00000538 l       .text.rvtest	00000000 I_xori_cg_cp_rd_b2
00008d19 l       .data	00000000 I_xori_cg_cp_rd_b2_str
0000055c l       .text.rvtest	00000000 I_xori_cg_cp_rd_b3
00008d47 l       .data	00000000 I_xori_cg_cp_rd_b3_str
00000580 l       .text.rvtest	00000000 I_xori_cg_cp_rd_b4
00008d75 l       .data	00000000 I_xori_cg_cp_rd_b4_str
000005a4 l       .text.rvtest	00000000 I_xori_cg_cp_rd_b5
00008da3 l       .data	00000000 I_xori_cg_cp_rd_b5_str
000005c8 l       .text.rvtest	00000000 I_xori_cg_cp_rd_b6
00008dd1 l       .data	00000000 I_xori_cg_cp_rd_b6_str
000005f4 l       .text.rvtest	00000000 I_xori_cg_cp_rd_b7
00008dff l       .data	00000000 I_xori_cg_cp_rd_b7_str
00000618 l       .text.rvtest	00000000 I_xori_cg_cp_rd_b8
00008e2d l       .data	00000000 I_xori_cg_cp_rd_b8_str
0000063c l       .text.rvtest	00000000 I_xori_cg_cp_rd_b9
00008e5b l       .data	00000000 I_xori_cg_cp_rd_b9_str
00000660 l       .text.rvtest	00000000 I_xori_cg_cp_rd_b10
00008e89 l       .data	00000000 I_xori_cg_cp_rd_b10_str
00000684 l       .text.rvtest	00000000 I_xori_cg_cp_rd_b11
00008eb8 l       .data	00000000 I_xori_cg_cp_rd_b11_str
000006a8 l       .text.rvtest	00000000 I_xori_cg_cp_rd_b12
00008ee7 l       .data	00000000 I_xori_cg_cp_rd_b12_str
000006d4 l       .text.rvtest	00000000 I_xori_cg_cp_rd_b13
00008f16 l       .data	00000000 I_xori_cg_cp_rd_b13_str
000006f8 l       .text.rvtest	00000000 I_xori_cg_cp_rd_b14
00008f45 l       .data	00000000 I_xori_cg_cp_rd_b14_str
0000071c l       .text.rvtest	00000000 I_xori_cg_cp_rd_b15
00008f74 l       .data	00000000 I_xori_cg_cp_rd_b15_str
00000744 l       .text.rvtest	00000000 I_xori_cg_cp_rd_b16
00008fa3 l       .data	00000000 I_xori_cg_cp_rd_b16_str
00000768 l       .text.rvtest	00000000 I_xori_cg_cp_rd_b17
00008fd2 l       .data	00000000 I_xori_cg_cp_rd_b17_str
0000078c l       .text.rvtest	00000000 I_xori_cg_cp_rd_b18
00009001 l       .data	00000000 I_xori_cg_cp_rd_b18_str
000007b0 l       .text.rvtest	00000000 I_xori_cg_cp_rd_b19
00009030 l       .data	00000000 I_xori_cg_cp_rd_b19_str
000007d4 l       .text.rvtest	00000000 I_xori_cg_cp_rd_b20
0000905f l       .data	00000000 I_xori_cg_cp_rd_b20_str
000007f8 l       .text.rvtest	00000000 I_xori_cg_cp_rd_b21
0000908e l       .data	00000000 I_xori_cg_cp_rd_b21_str
0000081c l       .text.rvtest	00000000 I_xori_cg_cp_rd_b22
000090bd l       .data	00000000 I_xori_cg_cp_rd_b22_str
00000840 l       .text.rvtest	00000000 I_xori_cg_cp_rd_b23
000090ec l       .data	00000000 I_xori_cg_cp_rd_b23_str
00000864 l       .text.rvtest	00000000 I_xori_cg_cp_rd_b24
0000911b l       .data	00000000 I_xori_cg_cp_rd_b24_str
0000088c l       .text.rvtest	00000000 I_xori_cg_cp_rd_b25
0000914a l       .data	00000000 I_xori_cg_cp_rd_b25_str
000008b0 l       .text.rvtest	00000000 I_xori_cg_cp_rd_b26
00009179 l       .data	00000000 I_xori_cg_cp_rd_b26_str
000008d4 l       .text.rvtest	00000000 I_xori_cg_cp_rd_b27
000091a8 l       .data	00000000 I_xori_cg_cp_rd_b27_str
000008f8 l       .text.rvtest	00000000 I_xori_cg_cp_rd_b28
000091d7 l       .data	00000000 I_xori_cg_cp_rd_b28_str
0000091c l       .text.rvtest	00000000 I_xori_cg_cp_rd_b29
00009206 l       .data	00000000 I_xori_cg_cp_rd_b29_str
00000940 l       .text.rvtest	00000000 I_xori_cg_cp_rd_b30
00009235 l       .data	00000000 I_xori_cg_cp_rd_b30_str
00000964 l       .text.rvtest	00000000 I_xori_cg_cp_rd_b31
00009264 l       .data	00000000 I_xori_cg_cp_rd_b31_str
00000988 l       .text.rvtest	00000000 I_xori_cg_cp_rs1_edges_0x0
00009293 l       .data	00000000 I_xori_cg_cp_rs1_edges_0x0_str
000009ac l       .text.rvtest	00000000 I_xori_cg_cp_rs1_edges_0x1
000092c9 l       .data	00000000 I_xori_cg_cp_rs1_edges_0x1_str
000009d0 l       .text.rvtest	00000000 I_xori_cg_cp_rs1_edges_0x2
000092ff l       .data	00000000 I_xori_cg_cp_rs1_edges_0x2_str
000009f4 l       .text.rvtest	00000000 I_xori_cg_cp_rs1_edges_0x80000000
00009335 l       .data	00000000 I_xori_cg_cp_rs1_edges_0x80000000_str
00000a18 l       .text.rvtest	00000000 I_xori_cg_cp_rs1_edges_0x80000001
00009372 l       .data	00000000 I_xori_cg_cp_rs1_edges_0x80000001_str
00000a3c l       .text.rvtest	00000000 I_xori_cg_cp_rs1_edges_0x7fffffff
000093af l       .data	00000000 I_xori_cg_cp_rs1_edges_0x7fffffff_str
00000a60 l       .text.rvtest	00000000 I_xori_cg_cp_rs1_edges_0x7ffffffe
000093ec l       .data	00000000 I_xori_cg_cp_rs1_edges_0x7ffffffe_str
00000a84 l       .text.rvtest	00000000 I_xori_cg_cp_rs1_edges_0xffffffff
00009429 l       .data	00000000 I_xori_cg_cp_rs1_edges_0xffffffff_str
00000aa8 l       .text.rvtest	00000000 I_xori_cg_cp_rs1_edges_0xfffffffe
00009466 l       .data	00000000 I_xori_cg_cp_rs1_edges_0xfffffffe_str
00000acc l       .text.rvtest	00000000 I_xori_cg_cp_rs1_edges_0x5bbc8872
000094a3 l       .data	00000000 I_xori_cg_cp_rs1_edges_0x5bbc8872_str
00000af0 l       .text.rvtest	00000000 I_xori_cg_cp_rs1_edges_0xaaaaaaaa
000094e0 l       .data	00000000 I_xori_cg_cp_rs1_edges_0xaaaaaaaa_str
00000b14 l       .text.rvtest	00000000 I_xori_cg_cp_rs1_edges_0x55555555
0000951d l       .data	00000000 I_xori_cg_cp_rs1_edges_0x55555555_str
00000b38 l       .text.rvtest	00000000 I_xori_cg_cr_rs1_imm_edges_rs1val_0x0_immval_0x0
0000955a l       .data	00000000 I_xori_cg_cr_rs1_imm_edges_rs1val_0x0_immval_0x0_str
00000b5c l       .text.rvtest	00000000 I_xori_cg_cr_rs1_imm_edges_rs1val_0x0_immval_0x1
000095a7 l       .data	00000000 I_xori_cg_cr_rs1_imm_edges_rs1val_0x0_immval_0x1_str
00000b80 l       .text.rvtest	00000000 I_xori_cg_cr_rs1_imm_edges_rs1val_0x0_immval_0x2
000095f4 l       .data	00000000 I_xori_cg_cr_rs1_imm_edges_rs1val_0x0_immval_0x2_str
00000ba4 l       .text.rvtest	00000000 I_xori_cg_cr_rs1_imm_edges_rs1val_0x0_immval_0x3
00009641 l       .data	00000000 I_xori_cg_cr_rs1_imm_edges_rs1val_0x0_immval_0x3_str
00000bc8 l       .text.rvtest	00000000 I_xori_cg_cr_rs1_imm_edges_rs1val_0x0_immval_0x4
0000968e l       .data	00000000 I_xori_cg_cr_rs1_imm_edges_rs1val_0x0_immval_0x4_str
00000bec l       .text.rvtest	00000000 I_xori_cg_cr_rs1_imm_edges_rs1val_0x0_immval_0x8
000096db l       .data	00000000 I_xori_cg_cr_rs1_imm_edges_rs1val_0x0_immval_0x8_str
00000c10 l       .text.rvtest	00000000 I_xori_cg_cr_rs1_imm_edges_rs1val_0x0_immval_0x10
00009728 l       .data	00000000 I_xori_cg_cr_rs1_imm_edges_rs1val_0x0_immval_0x10_str
00000c34 l       .text.rvtest	00000000 I_xori_cg_cr_rs1_imm_edges_rs1val_0x0_immval_0x20
00009776 l       .data	00000000 I_xori_cg_cr_rs1_imm_edges_rs1val_0x0_immval_0x20_str
00000c58 l       .text.rvtest	00000000 I_xori_cg_cr_rs1_imm_edges_rs1val_0x0_immval_0x40
000097c4 l       .data	00000000 I_xori_cg_cr_rs1_imm_edges_rs1val_0x0_immval_0x40_str
00000c7c l       .text.rvtest	00000000 I_xori_cg_cr_rs1_imm_edges_rs1val_0x0_immval_0x80
00009812 l       .data	00000000 I_xori_cg_cr_rs1_imm_edges_rs1val_0x0_immval_0x80_str
00000ca0 l       .text.rvtest	00000000 I_xori_cg_cr_rs1_imm_edges_rs1val_0x0_immval_0x100
00009860 l       .data	00000000 I_xori_cg_cr_rs1_imm_edges_rs1val_0x0_immval_0x100_str
00000cc4 l       .text.rvtest	00000000 I_xori_cg_cr_rs1_imm_edges_rs1val_0x0_immval_0x200
000098af l       .data	00000000 I_xori_cg_cr_rs1_imm_edges_rs1val_0x0_immval_0x200_str
00000ce8 l       .text.rvtest	00000000 I_xori_cg_cr_rs1_imm_edges_rs1val_0x0_immval_0x3ff
000098fe l       .data	00000000 I_xori_cg_cr_rs1_imm_edges_rs1val_0x0_immval_0x3ff_str
00000d0c l       .text.rvtest	00000000 I_xori_cg_cr_rs1_imm_edges_rs1val_0x0_immval_0x400
0000994d l       .data	00000000 I_xori_cg_cr_rs1_imm_edges_rs1val_0x0_immval_0x400_str
00000d30 l       .text.rvtest	00000000 I_xori_cg_cr_rs1_imm_edges_rs1val_0x0_immval_0x703
0000999c l       .data	00000000 I_xori_cg_cr_rs1_imm_edges_rs1val_0x0_immval_0x703_str
00000d54 l       .text.rvtest	00000000 I_xori_cg_cr_rs1_imm_edges_rs1val_0x0_immval_0x7ff
000099eb l       .data	00000000 I_xori_cg_cr_rs1_imm_edges_rs1val_0x0_immval_0x7ff_str
00000d78 l       .text.rvtest	00000000 I_xori_cg_cr_rs1_imm_edges_rs1val_0x0_immval_m0x800
00009a3a l       .data	00000000 I_xori_cg_cr_rs1_imm_edges_rs1val_0x0_immval_m0x800_str
00000d9c l       .text.rvtest	00000000 I_xori_cg_cr_rs1_imm_edges_rs1val_0x0_immval_m0x7ff
00009a8a l       .data	00000000 I_xori_cg_cr_rs1_imm_edges_rs1val_0x0_immval_m0x7ff_str
00000dc0 l       .text.rvtest	00000000 I_xori_cg_cr_rs1_imm_edges_rs1val_0x0_immval_m0x2
00009ada l       .data	00000000 I_xori_cg_cr_rs1_imm_edges_rs1val_0x0_immval_m0x2_str
00000de4 l       .text.rvtest	00000000 I_xori_cg_cr_rs1_imm_edges_rs1val_0x0_immval_m0x1
00009b28 l       .data	00000000 I_xori_cg_cr_rs1_imm_edges_rs1val_0x0_immval_m0x1_str
00000e08 l       .text.rvtest	00000000 I_xori_cg_cr_rs1_imm_edges_rs1val_0x1_immval_0x0
00009b76 l       .data	00000000 I_xori_cg_cr_rs1_imm_edges_rs1val_0x1_immval_0x0_str
00000e2c l       .text.rvtest	00000000 I_xori_cg_cr_rs1_imm_edges_rs1val_0x1_immval_0x1
00009bc3 l       .data	00000000 I_xori_cg_cr_rs1_imm_edges_rs1val_0x1_immval_0x1_str
00000e50 l       .text.rvtest	00000000 I_xori_cg_cr_rs1_imm_edges_rs1val_0x1_immval_0x2
00009c10 l       .data	00000000 I_xori_cg_cr_rs1_imm_edges_rs1val_0x1_immval_0x2_str
00000e74 l       .text.rvtest	00000000 I_xori_cg_cr_rs1_imm_edges_rs1val_0x1_immval_0x3
00009c5d l       .data	00000000 I_xori_cg_cr_rs1_imm_edges_rs1val_0x1_immval_0x3_str
00000e98 l       .text.rvtest	00000000 I_xori_cg_cr_rs1_imm_edges_rs1val_0x1_immval_0x4
00009cab l       .data	00000000 I_xori_cg_cr_rs1_imm_edges_rs1val_0x1_immval_0x4_str
00000ebc l       .text.rvtest	00000000 I_xori_cg_cr_rs1_imm_edges_rs1val_0x1_immval_0x8
00009cf9 l       .data	00000000 I_xori_cg_cr_rs1_imm_edges_rs1val_0x1_immval_0x8_str
00000ee0 l       .text.rvtest	00000000 I_xori_cg_cr_rs1_imm_edges_rs1val_0x1_immval_0x10
00009d47 l       .data	00000000 I_xori_cg_cr_rs1_imm_edges_rs1val_0x1_immval_0x10_str
00000f04 l       .text.rvtest	00000000 I_xori_cg_cr_rs1_imm_edges_rs1val_0x1_immval_0x20
00009d96 l       .data	00000000 I_xori_cg_cr_rs1_imm_edges_rs1val_0x1_immval_0x20_str
00000f28 l       .text.rvtest	00000000 I_xori_cg_cr_rs1_imm_edges_rs1val_0x1_immval_0x40
00009de5 l       .data	00000000 I_xori_cg_cr_rs1_imm_edges_rs1val_0x1_immval_0x40_str
00000f4c l       .text.rvtest	00000000 I_xori_cg_cr_rs1_imm_edges_rs1val_0x1_immval_0x80
00009e34 l       .data	00000000 I_xori_cg_cr_rs1_imm_edges_rs1val_0x1_immval_0x80_str
00000f70 l       .text.rvtest	00000000 I_xori_cg_cr_rs1_imm_edges_rs1val_0x1_immval_0x100
00009e83 l       .data	00000000 I_xori_cg_cr_rs1_imm_edges_rs1val_0x1_immval_0x100_str
00000f94 l       .text.rvtest	00000000 I_xori_cg_cr_rs1_imm_edges_rs1val_0x1_immval_0x200
00009ed3 l       .data	00000000 I_xori_cg_cr_rs1_imm_edges_rs1val_0x1_immval_0x200_str
00000fb8 l       .text.rvtest	00000000 I_xori_cg_cr_rs1_imm_edges_rs1val_0x1_immval_0x3ff
00009f23 l       .data	00000000 I_xori_cg_cr_rs1_imm_edges_rs1val_0x1_immval_0x3ff_str
00000fdc l       .text.rvtest	00000000 I_xori_cg_cr_rs1_imm_edges_rs1val_0x1_immval_0x400
00009f73 l       .data	00000000 I_xori_cg_cr_rs1_imm_edges_rs1val_0x1_immval_0x400_str
00001000 l       .text.rvtest	00000000 I_xori_cg_cr_rs1_imm_edges_rs1val_0x1_immval_0x703
00009fc3 l       .data	00000000 I_xori_cg_cr_rs1_imm_edges_rs1val_0x1_immval_0x703_str
00001024 l       .text.rvtest	00000000 I_xori_cg_cr_rs1_imm_edges_rs1val_0x1_immval_0x7ff
0000a013 l       .data	00000000 I_xori_cg_cr_rs1_imm_edges_rs1val_0x1_immval_0x7ff_str
00001048 l       .text.rvtest	00000000 I_xori_cg_cr_rs1_imm_edges_rs1val_0x1_immval_m0x800
0000a063 l       .data	00000000 I_xori_cg_cr_rs1_imm_edges_rs1val_0x1_immval_m0x800_str
0000106c l       .text.rvtest	00000000 I_xori_cg_cr_rs1_imm_edges_rs1val_0x1_immval_m0x7ff
0000a0b4 l       .data	00000000 I_xori_cg_cr_rs1_imm_edges_rs1val_0x1_immval_m0x7ff_str
00001090 l       .text.rvtest	00000000 I_xori_cg_cr_rs1_imm_edges_rs1val_0x1_immval_m0x2
0000a105 l       .data	00000000 I_xori_cg_cr_rs1_imm_edges_rs1val_0x1_immval_m0x2_str
000010b4 l       .text.rvtest	00000000 I_xori_cg_cr_rs1_imm_edges_rs1val_0x1_immval_m0x1
0000a154 l       .data	00000000 I_xori_cg_cr_rs1_imm_edges_rs1val_0x1_immval_m0x1_str
000010d8 l       .text.rvtest	00000000 I_xori_cg_cr_rs1_imm_edges_rs1val_0x2_immval_0x0
0000a1a3 l       .data	00000000 I_xori_cg_cr_rs1_imm_edges_rs1val_0x2_immval_0x0_str
000010fc l       .text.rvtest	00000000 I_xori_cg_cr_rs1_imm_edges_rs1val_0x2_immval_0x1
0000a1f1 l       .data	00000000 I_xori_cg_cr_rs1_imm_edges_rs1val_0x2_immval_0x1_str
00001120 l       .text.rvtest	00000000 I_xori_cg_cr_rs1_imm_edges_rs1val_0x2_immval_0x2
0000a23f l       .data	00000000 I_xori_cg_cr_rs1_imm_edges_rs1val_0x2_immval_0x2_str
00001144 l       .text.rvtest	00000000 I_xori_cg_cr_rs1_imm_edges_rs1val_0x2_immval_0x3
0000a28d l       .data	00000000 I_xori_cg_cr_rs1_imm_edges_rs1val_0x2_immval_0x3_str
00001168 l       .text.rvtest	00000000 I_xori_cg_cr_rs1_imm_edges_rs1val_0x2_immval_0x4
0000a2db l       .data	00000000 I_xori_cg_cr_rs1_imm_edges_rs1val_0x2_immval_0x4_str
0000118c l       .text.rvtest	00000000 I_xori_cg_cr_rs1_imm_edges_rs1val_0x2_immval_0x8
0000a329 l       .data	00000000 I_xori_cg_cr_rs1_imm_edges_rs1val_0x2_immval_0x8_str
000011b0 l       .text.rvtest	00000000 I_xori_cg_cr_rs1_imm_edges_rs1val_0x2_immval_0x10
0000a377 l       .data	00000000 I_xori_cg_cr_rs1_imm_edges_rs1val_0x2_immval_0x10_str
000011d4 l       .text.rvtest	00000000 I_xori_cg_cr_rs1_imm_edges_rs1val_0x2_immval_0x20
0000a3c6 l       .data	00000000 I_xori_cg_cr_rs1_imm_edges_rs1val_0x2_immval_0x20_str
000011f8 l       .text.rvtest	00000000 I_xori_cg_cr_rs1_imm_edges_rs1val_0x2_immval_0x40
0000a415 l       .data	00000000 I_xori_cg_cr_rs1_imm_edges_rs1val_0x2_immval_0x40_str
0000121c l       .text.rvtest	00000000 I_xori_cg_cr_rs1_imm_edges_rs1val_0x2_immval_0x80
0000a464 l       .data	00000000 I_xori_cg_cr_rs1_imm_edges_rs1val_0x2_immval_0x80_str
00001240 l       .text.rvtest	00000000 I_xori_cg_cr_rs1_imm_edges_rs1val_0x2_immval_0x100
0000a4b3 l       .data	00000000 I_xori_cg_cr_rs1_imm_edges_rs1val_0x2_immval_0x100_str
00001264 l       .text.rvtest	00000000 I_xori_cg_cr_rs1_imm_edges_rs1val_0x2_immval_0x200
0000a503 l       .data	00000000 I_xori_cg_cr_rs1_imm_edges_rs1val_0x2_immval_0x200_str
00001288 l       .text.rvtest	00000000 I_xori_cg_cr_rs1_imm_edges_rs1val_0x2_immval_0x3ff
0000a553 l       .data	00000000 I_xori_cg_cr_rs1_imm_edges_rs1val_0x2_immval_0x3ff_str
000012ac l       .text.rvtest	00000000 I_xori_cg_cr_rs1_imm_edges_rs1val_0x2_immval_0x400
0000a5a3 l       .data	00000000 I_xori_cg_cr_rs1_imm_edges_rs1val_0x2_immval_0x400_str
000012d0 l       .text.rvtest	00000000 I_xori_cg_cr_rs1_imm_edges_rs1val_0x2_immval_0x703
0000a5f3 l       .data	00000000 I_xori_cg_cr_rs1_imm_edges_rs1val_0x2_immval_0x703_str
000012f4 l       .text.rvtest	00000000 I_xori_cg_cr_rs1_imm_edges_rs1val_0x2_immval_0x7ff
0000a643 l       .data	00000000 I_xori_cg_cr_rs1_imm_edges_rs1val_0x2_immval_0x7ff_str
00001318 l       .text.rvtest	00000000 I_xori_cg_cr_rs1_imm_edges_rs1val_0x2_immval_m0x800
0000a693 l       .data	00000000 I_xori_cg_cr_rs1_imm_edges_rs1val_0x2_immval_m0x800_str
0000133c l       .text.rvtest	00000000 I_xori_cg_cr_rs1_imm_edges_rs1val_0x2_immval_m0x7ff
0000a6e4 l       .data	00000000 I_xori_cg_cr_rs1_imm_edges_rs1val_0x2_immval_m0x7ff_str
00001360 l       .text.rvtest	00000000 I_xori_cg_cr_rs1_imm_edges_rs1val_0x2_immval_m0x2
0000a735 l       .data	00000000 I_xori_cg_cr_rs1_imm_edges_rs1val_0x2_immval_m0x2_str
00001384 l       .text.rvtest	00000000 I_xori_cg_cr_rs1_imm_edges_rs1val_0x2_immval_m0x1
0000a784 l       .data	00000000 I_xori_cg_cr_rs1_imm_edges_rs1val_0x2_immval_m0x1_str
000013a8 l       .text.rvtest	00000000 I_xori_cg_cr_rs1_imm_edges_rs1val_0x80000000_immval_0x0
0000a7d3 l       .data	00000000 I_xori_cg_cr_rs1_imm_edges_rs1val_0x80000000_immval_0x0_str
000013cc l       .text.rvtest	00000000 I_xori_cg_cr_rs1_imm_edges_rs1val_0x80000000_immval_0x1
0000a828 l       .data	00000000 I_xori_cg_cr_rs1_imm_edges_rs1val_0x80000000_immval_0x1_str
000013f0 l       .text.rvtest	00000000 I_xori_cg_cr_rs1_imm_edges_rs1val_0x80000000_immval_0x2
0000a87d l       .data	00000000 I_xori_cg_cr_rs1_imm_edges_rs1val_0x80000000_immval_0x2_str
00001414 l       .text.rvtest	00000000 I_xori_cg_cr_rs1_imm_edges_rs1val_0x80000000_immval_0x3
0000a8d2 l       .data	00000000 I_xori_cg_cr_rs1_imm_edges_rs1val_0x80000000_immval_0x3_str
00001438 l       .text.rvtest	00000000 I_xori_cg_cr_rs1_imm_edges_rs1val_0x80000000_immval_0x4
0000a927 l       .data	00000000 I_xori_cg_cr_rs1_imm_edges_rs1val_0x80000000_immval_0x4_str
0000145c l       .text.rvtest	00000000 I_xori_cg_cr_rs1_imm_edges_rs1val_0x80000000_immval_0x8
0000a97c l       .data	00000000 I_xori_cg_cr_rs1_imm_edges_rs1val_0x80000000_immval_0x8_str
00001480 l       .text.rvtest	00000000 I_xori_cg_cr_rs1_imm_edges_rs1val_0x80000000_immval_0x10
0000a9d1 l       .data	00000000 I_xori_cg_cr_rs1_imm_edges_rs1val_0x80000000_immval_0x10_str
000014a4 l       .text.rvtest	00000000 I_xori_cg_cr_rs1_imm_edges_rs1val_0x80000000_immval_0x20
0000aa27 l       .data	00000000 I_xori_cg_cr_rs1_imm_edges_rs1val_0x80000000_immval_0x20_str
000014c8 l       .text.rvtest	00000000 I_xori_cg_cr_rs1_imm_edges_rs1val_0x80000000_immval_0x40
0000aa7d l       .data	00000000 I_xori_cg_cr_rs1_imm_edges_rs1val_0x80000000_immval_0x40_str
000014ec l       .text.rvtest	00000000 I_xori_cg_cr_rs1_imm_edges_rs1val_0x80000000_immval_0x80
0000aad3 l       .data	00000000 I_xori_cg_cr_rs1_imm_edges_rs1val_0x80000000_immval_0x80_str
00001510 l       .text.rvtest	00000000 I_xori_cg_cr_rs1_imm_edges_rs1val_0x80000000_immval_0x100
0000ab29 l       .data	00000000 I_xori_cg_cr_rs1_imm_edges_rs1val_0x80000000_immval_0x100_str
00001534 l       .text.rvtest	00000000 I_xori_cg_cr_rs1_imm_edges_rs1val_0x80000000_immval_0x200
0000ab80 l       .data	00000000 I_xori_cg_cr_rs1_imm_edges_rs1val_0x80000000_immval_0x200_str
00001558 l       .text.rvtest	00000000 I_xori_cg_cr_rs1_imm_edges_rs1val_0x80000000_immval_0x3ff
0000abd7 l       .data	00000000 I_xori_cg_cr_rs1_imm_edges_rs1val_0x80000000_immval_0x3ff_str
0000157c l       .text.rvtest	00000000 I_xori_cg_cr_rs1_imm_edges_rs1val_0x80000000_immval_0x400
0000ac2e l       .data	00000000 I_xori_cg_cr_rs1_imm_edges_rs1val_0x80000000_immval_0x400_str
000015a0 l       .text.rvtest	00000000 I_xori_cg_cr_rs1_imm_edges_rs1val_0x80000000_immval_0x703
0000ac85 l       .data	00000000 I_xori_cg_cr_rs1_imm_edges_rs1val_0x80000000_immval_0x703_str
000015c4 l       .text.rvtest	00000000 I_xori_cg_cr_rs1_imm_edges_rs1val_0x80000000_immval_0x7ff
0000acdc l       .data	00000000 I_xori_cg_cr_rs1_imm_edges_rs1val_0x80000000_immval_0x7ff_str
000015e8 l       .text.rvtest	00000000 I_xori_cg_cr_rs1_imm_edges_rs1val_0x80000000_immval_m0x800
0000ad33 l       .data	00000000 I_xori_cg_cr_rs1_imm_edges_rs1val_0x80000000_immval_m0x800_str
0000160c l       .text.rvtest	00000000 I_xori_cg_cr_rs1_imm_edges_rs1val_0x80000000_immval_m0x7ff
0000ad8b l       .data	00000000 I_xori_cg_cr_rs1_imm_edges_rs1val_0x80000000_immval_m0x7ff_str
00001630 l       .text.rvtest	00000000 I_xori_cg_cr_rs1_imm_edges_rs1val_0x80000000_immval_m0x2
0000ade3 l       .data	00000000 I_xori_cg_cr_rs1_imm_edges_rs1val_0x80000000_immval_m0x2_str
00001654 l       .text.rvtest	00000000 I_xori_cg_cr_rs1_imm_edges_rs1val_0x80000000_immval_m0x1
0000ae39 l       .data	00000000 I_xori_cg_cr_rs1_imm_edges_rs1val_0x80000000_immval_m0x1_str
00001678 l       .text.rvtest	00000000 I_xori_cg_cr_rs1_imm_edges_rs1val_0x80000001_immval_0x0
0000ae8f l       .data	00000000 I_xori_cg_cr_rs1_imm_edges_rs1val_0x80000001_immval_0x0_str
0000169c l       .text.rvtest	00000000 I_xori_cg_cr_rs1_imm_edges_rs1val_0x80000001_immval_0x1
0000aee4 l       .data	00000000 I_xori_cg_cr_rs1_imm_edges_rs1val_0x80000001_immval_0x1_str
000016c0 l       .text.rvtest	00000000 I_xori_cg_cr_rs1_imm_edges_rs1val_0x80000001_immval_0x2
0000af39 l       .data	00000000 I_xori_cg_cr_rs1_imm_edges_rs1val_0x80000001_immval_0x2_str
000016e4 l       .text.rvtest	00000000 I_xori_cg_cr_rs1_imm_edges_rs1val_0x80000001_immval_0x3
0000af8e l       .data	00000000 I_xori_cg_cr_rs1_imm_edges_rs1val_0x80000001_immval_0x3_str
00001708 l       .text.rvtest	00000000 I_xori_cg_cr_rs1_imm_edges_rs1val_0x80000001_immval_0x4
0000afe3 l       .data	00000000 I_xori_cg_cr_rs1_imm_edges_rs1val_0x80000001_immval_0x4_str
0000172c l       .text.rvtest	00000000 I_xori_cg_cr_rs1_imm_edges_rs1val_0x80000001_immval_0x8
0000b038 l       .data	00000000 I_xori_cg_cr_rs1_imm_edges_rs1val_0x80000001_immval_0x8_str
00001750 l       .text.rvtest	00000000 I_xori_cg_cr_rs1_imm_edges_rs1val_0x80000001_immval_0x10
0000b08d l       .data	00000000 I_xori_cg_cr_rs1_imm_edges_rs1val_0x80000001_immval_0x10_str
00001774 l       .text.rvtest	00000000 I_xori_cg_cr_rs1_imm_edges_rs1val_0x80000001_immval_0x20
0000b0e3 l       .data	00000000 I_xori_cg_cr_rs1_imm_edges_rs1val_0x80000001_immval_0x20_str
00001798 l       .text.rvtest	00000000 I_xori_cg_cr_rs1_imm_edges_rs1val_0x80000001_immval_0x40
0000b139 l       .data	00000000 I_xori_cg_cr_rs1_imm_edges_rs1val_0x80000001_immval_0x40_str
000017bc l       .text.rvtest	00000000 I_xori_cg_cr_rs1_imm_edges_rs1val_0x80000001_immval_0x80
0000b18f l       .data	00000000 I_xori_cg_cr_rs1_imm_edges_rs1val_0x80000001_immval_0x80_str
000017e0 l       .text.rvtest	00000000 I_xori_cg_cr_rs1_imm_edges_rs1val_0x80000001_immval_0x100
0000b1e5 l       .data	00000000 I_xori_cg_cr_rs1_imm_edges_rs1val_0x80000001_immval_0x100_str
00001804 l       .text.rvtest	00000000 I_xori_cg_cr_rs1_imm_edges_rs1val_0x80000001_immval_0x200
0000b23c l       .data	00000000 I_xori_cg_cr_rs1_imm_edges_rs1val_0x80000001_immval_0x200_str
00001828 l       .text.rvtest	00000000 I_xori_cg_cr_rs1_imm_edges_rs1val_0x80000001_immval_0x3ff
0000b293 l       .data	00000000 I_xori_cg_cr_rs1_imm_edges_rs1val_0x80000001_immval_0x3ff_str
0000184c l       .text.rvtest	00000000 I_xori_cg_cr_rs1_imm_edges_rs1val_0x80000001_immval_0x400
0000b2ea l       .data	00000000 I_xori_cg_cr_rs1_imm_edges_rs1val_0x80000001_immval_0x400_str
00001870 l       .text.rvtest	00000000 I_xori_cg_cr_rs1_imm_edges_rs1val_0x80000001_immval_0x703
0000b341 l       .data	00000000 I_xori_cg_cr_rs1_imm_edges_rs1val_0x80000001_immval_0x703_str
00001894 l       .text.rvtest	00000000 I_xori_cg_cr_rs1_imm_edges_rs1val_0x80000001_immval_0x7ff
0000b398 l       .data	00000000 I_xori_cg_cr_rs1_imm_edges_rs1val_0x80000001_immval_0x7ff_str
000018b8 l       .text.rvtest	00000000 I_xori_cg_cr_rs1_imm_edges_rs1val_0x80000001_immval_m0x800
0000b3ef l       .data	00000000 I_xori_cg_cr_rs1_imm_edges_rs1val_0x80000001_immval_m0x800_str
000018dc l       .text.rvtest	00000000 I_xori_cg_cr_rs1_imm_edges_rs1val_0x80000001_immval_m0x7ff
0000b447 l       .data	00000000 I_xori_cg_cr_rs1_imm_edges_rs1val_0x80000001_immval_m0x7ff_str
00001900 l       .text.rvtest	00000000 I_xori_cg_cr_rs1_imm_edges_rs1val_0x80000001_immval_m0x2
0000b49f l       .data	00000000 I_xori_cg_cr_rs1_imm_edges_rs1val_0x80000001_immval_m0x2_str
00001924 l       .text.rvtest	00000000 I_xori_cg_cr_rs1_imm_edges_rs1val_0x80000001_immval_m0x1
0000b4f5 l       .data	00000000 I_xori_cg_cr_rs1_imm_edges_rs1val_0x80000001_immval_m0x1_str
00001948 l       .text.rvtest	00000000 I_xori_cg_cr_rs1_imm_edges_rs1val_0x7fffffff_immval_0x0
0000b54b l       .data	00000000 I_xori_cg_cr_rs1_imm_edges_rs1val_0x7fffffff_immval_0x0_str
0000196c l       .text.rvtest	00000000 I_xori_cg_cr_rs1_imm_edges_rs1val_0x7fffffff_immval_0x1
0000b5a0 l       .data	00000000 I_xori_cg_cr_rs1_imm_edges_rs1val_0x7fffffff_immval_0x1_str
00001990 l       .text.rvtest	00000000 I_xori_cg_cr_rs1_imm_edges_rs1val_0x7fffffff_immval_0x2
0000b5f5 l       .data	00000000 I_xori_cg_cr_rs1_imm_edges_rs1val_0x7fffffff_immval_0x2_str
000019b4 l       .text.rvtest	00000000 I_xori_cg_cr_rs1_imm_edges_rs1val_0x7fffffff_immval_0x3
0000b64a l       .data	00000000 I_xori_cg_cr_rs1_imm_edges_rs1val_0x7fffffff_immval_0x3_str
000019d8 l       .text.rvtest	00000000 I_xori_cg_cr_rs1_imm_edges_rs1val_0x7fffffff_immval_0x4
0000b69f l       .data	00000000 I_xori_cg_cr_rs1_imm_edges_rs1val_0x7fffffff_immval_0x4_str
000019fc l       .text.rvtest	00000000 I_xori_cg_cr_rs1_imm_edges_rs1val_0x7fffffff_immval_0x8
0000b6f4 l       .data	00000000 I_xori_cg_cr_rs1_imm_edges_rs1val_0x7fffffff_immval_0x8_str
00001a20 l       .text.rvtest	00000000 I_xori_cg_cr_rs1_imm_edges_rs1val_0x7fffffff_immval_0x10
0000b749 l       .data	00000000 I_xori_cg_cr_rs1_imm_edges_rs1val_0x7fffffff_immval_0x10_str
00001a44 l       .text.rvtest	00000000 I_xori_cg_cr_rs1_imm_edges_rs1val_0x7fffffff_immval_0x20
0000b79f l       .data	00000000 I_xori_cg_cr_rs1_imm_edges_rs1val_0x7fffffff_immval_0x20_str
00001a68 l       .text.rvtest	00000000 I_xori_cg_cr_rs1_imm_edges_rs1val_0x7fffffff_immval_0x40
0000b7f5 l       .data	00000000 I_xori_cg_cr_rs1_imm_edges_rs1val_0x7fffffff_immval_0x40_str
00001a8c l       .text.rvtest	00000000 I_xori_cg_cr_rs1_imm_edges_rs1val_0x7fffffff_immval_0x80
0000b84b l       .data	00000000 I_xori_cg_cr_rs1_imm_edges_rs1val_0x7fffffff_immval_0x80_str
00001ab0 l       .text.rvtest	00000000 I_xori_cg_cr_rs1_imm_edges_rs1val_0x7fffffff_immval_0x100
0000b8a1 l       .data	00000000 I_xori_cg_cr_rs1_imm_edges_rs1val_0x7fffffff_immval_0x100_str
00001ad4 l       .text.rvtest	00000000 I_xori_cg_cr_rs1_imm_edges_rs1val_0x7fffffff_immval_0x200
0000b8f8 l       .data	00000000 I_xori_cg_cr_rs1_imm_edges_rs1val_0x7fffffff_immval_0x200_str
00001af8 l       .text.rvtest	00000000 I_xori_cg_cr_rs1_imm_edges_rs1val_0x7fffffff_immval_0x3ff
0000b94f l       .data	00000000 I_xori_cg_cr_rs1_imm_edges_rs1val_0x7fffffff_immval_0x3ff_str
00001b1c l       .text.rvtest	00000000 I_xori_cg_cr_rs1_imm_edges_rs1val_0x7fffffff_immval_0x400
0000b9a6 l       .data	00000000 I_xori_cg_cr_rs1_imm_edges_rs1val_0x7fffffff_immval_0x400_str
00001b40 l       .text.rvtest	00000000 I_xori_cg_cr_rs1_imm_edges_rs1val_0x7fffffff_immval_0x703
0000b9fd l       .data	00000000 I_xori_cg_cr_rs1_imm_edges_rs1val_0x7fffffff_immval_0x703_str
00001b64 l       .text.rvtest	00000000 I_xori_cg_cr_rs1_imm_edges_rs1val_0x7fffffff_immval_0x7ff
0000ba54 l       .data	00000000 I_xori_cg_cr_rs1_imm_edges_rs1val_0x7fffffff_immval_0x7ff_str
00001b88 l       .text.rvtest	00000000 I_xori_cg_cr_rs1_imm_edges_rs1val_0x7fffffff_immval_m0x800
0000baab l       .data	00000000 I_xori_cg_cr_rs1_imm_edges_rs1val_0x7fffffff_immval_m0x800_str
00001bac l       .text.rvtest	00000000 I_xori_cg_cr_rs1_imm_edges_rs1val_0x7fffffff_immval_m0x7ff
0000bb03 l       .data	00000000 I_xori_cg_cr_rs1_imm_edges_rs1val_0x7fffffff_immval_m0x7ff_str
00001bd0 l       .text.rvtest	00000000 I_xori_cg_cr_rs1_imm_edges_rs1val_0x7fffffff_immval_m0x2
0000bb5b l       .data	00000000 I_xori_cg_cr_rs1_imm_edges_rs1val_0x7fffffff_immval_m0x2_str
00001bf4 l       .text.rvtest	00000000 I_xori_cg_cr_rs1_imm_edges_rs1val_0x7fffffff_immval_m0x1
0000bbb1 l       .data	00000000 I_xori_cg_cr_rs1_imm_edges_rs1val_0x7fffffff_immval_m0x1_str
00001c18 l       .text.rvtest	00000000 I_xori_cg_cr_rs1_imm_edges_rs1val_0x7ffffffe_immval_0x0
0000bc07 l       .data	00000000 I_xori_cg_cr_rs1_imm_edges_rs1val_0x7ffffffe_immval_0x0_str
00001c3c l       .text.rvtest	00000000 I_xori_cg_cr_rs1_imm_edges_rs1val_0x7ffffffe_immval_0x1
0000bc5c l       .data	00000000 I_xori_cg_cr_rs1_imm_edges_rs1val_0x7ffffffe_immval_0x1_str
00001c60 l       .text.rvtest	00000000 I_xori_cg_cr_rs1_imm_edges_rs1val_0x7ffffffe_immval_0x2
0000bcb1 l       .data	00000000 I_xori_cg_cr_rs1_imm_edges_rs1val_0x7ffffffe_immval_0x2_str
00001c84 l       .text.rvtest	00000000 I_xori_cg_cr_rs1_imm_edges_rs1val_0x7ffffffe_immval_0x3
0000bd06 l       .data	00000000 I_xori_cg_cr_rs1_imm_edges_rs1val_0x7ffffffe_immval_0x3_str
00001ca8 l       .text.rvtest	00000000 I_xori_cg_cr_rs1_imm_edges_rs1val_0x7ffffffe_immval_0x4
0000bd5b l       .data	00000000 I_xori_cg_cr_rs1_imm_edges_rs1val_0x7ffffffe_immval_0x4_str
00001ccc l       .text.rvtest	00000000 I_xori_cg_cr_rs1_imm_edges_rs1val_0x7ffffffe_immval_0x8
0000bdb0 l       .data	00000000 I_xori_cg_cr_rs1_imm_edges_rs1val_0x7ffffffe_immval_0x8_str
00001cf0 l       .text.rvtest	00000000 I_xori_cg_cr_rs1_imm_edges_rs1val_0x7ffffffe_immval_0x10
0000be05 l       .data	00000000 I_xori_cg_cr_rs1_imm_edges_rs1val_0x7ffffffe_immval_0x10_str
00001d14 l       .text.rvtest	00000000 I_xori_cg_cr_rs1_imm_edges_rs1val_0x7ffffffe_immval_0x20
0000be5b l       .data	00000000 I_xori_cg_cr_rs1_imm_edges_rs1val_0x7ffffffe_immval_0x20_str
00001d38 l       .text.rvtest	00000000 I_xori_cg_cr_rs1_imm_edges_rs1val_0x7ffffffe_immval_0x40
0000beb1 l       .data	00000000 I_xori_cg_cr_rs1_imm_edges_rs1val_0x7ffffffe_immval_0x40_str
00001d5c l       .text.rvtest	00000000 I_xori_cg_cr_rs1_imm_edges_rs1val_0x7ffffffe_immval_0x80
0000bf07 l       .data	00000000 I_xori_cg_cr_rs1_imm_edges_rs1val_0x7ffffffe_immval_0x80_str
00001d80 l       .text.rvtest	00000000 I_xori_cg_cr_rs1_imm_edges_rs1val_0x7ffffffe_immval_0x100
0000bf5d l       .data	00000000 I_xori_cg_cr_rs1_imm_edges_rs1val_0x7ffffffe_immval_0x100_str
00001da4 l       .text.rvtest	00000000 I_xori_cg_cr_rs1_imm_edges_rs1val_0x7ffffffe_immval_0x200
0000bfb4 l       .data	00000000 I_xori_cg_cr_rs1_imm_edges_rs1val_0x7ffffffe_immval_0x200_str
00001dc8 l       .text.rvtest	00000000 I_xori_cg_cr_rs1_imm_edges_rs1val_0x7ffffffe_immval_0x3ff
0000c00b l       .data	00000000 I_xori_cg_cr_rs1_imm_edges_rs1val_0x7ffffffe_immval_0x3ff_str
00001dec l       .text.rvtest	00000000 I_xori_cg_cr_rs1_imm_edges_rs1val_0x7ffffffe_immval_0x400
0000c062 l       .data	00000000 I_xori_cg_cr_rs1_imm_edges_rs1val_0x7ffffffe_immval_0x400_str
00001e10 l       .text.rvtest	00000000 I_xori_cg_cr_rs1_imm_edges_rs1val_0x7ffffffe_immval_0x703
0000c0b9 l       .data	00000000 I_xori_cg_cr_rs1_imm_edges_rs1val_0x7ffffffe_immval_0x703_str
00001e34 l       .text.rvtest	00000000 I_xori_cg_cr_rs1_imm_edges_rs1val_0x7ffffffe_immval_0x7ff
0000c110 l       .data	00000000 I_xori_cg_cr_rs1_imm_edges_rs1val_0x7ffffffe_immval_0x7ff_str
00001e58 l       .text.rvtest	00000000 I_xori_cg_cr_rs1_imm_edges_rs1val_0x7ffffffe_immval_m0x800
0000c167 l       .data	00000000 I_xori_cg_cr_rs1_imm_edges_rs1val_0x7ffffffe_immval_m0x800_str
00001e7c l       .text.rvtest	00000000 I_xori_cg_cr_rs1_imm_edges_rs1val_0x7ffffffe_immval_m0x7ff
0000c1bf l       .data	00000000 I_xori_cg_cr_rs1_imm_edges_rs1val_0x7ffffffe_immval_m0x7ff_str
00001ea0 l       .text.rvtest	00000000 I_xori_cg_cr_rs1_imm_edges_rs1val_0x7ffffffe_immval_m0x2
0000c217 l       .data	00000000 I_xori_cg_cr_rs1_imm_edges_rs1val_0x7ffffffe_immval_m0x2_str
00001ec4 l       .text.rvtest	00000000 I_xori_cg_cr_rs1_imm_edges_rs1val_0x7ffffffe_immval_m0x1
0000c26d l       .data	00000000 I_xori_cg_cr_rs1_imm_edges_rs1val_0x7ffffffe_immval_m0x1_str
00001ee8 l       .text.rvtest	00000000 I_xori_cg_cr_rs1_imm_edges_rs1val_0xffffffff_immval_0x0
0000c2c3 l       .data	00000000 I_xori_cg_cr_rs1_imm_edges_rs1val_0xffffffff_immval_0x0_str
00001f0c l       .text.rvtest	00000000 I_xori_cg_cr_rs1_imm_edges_rs1val_0xffffffff_immval_0x1
0000c318 l       .data	00000000 I_xori_cg_cr_rs1_imm_edges_rs1val_0xffffffff_immval_0x1_str
00001f30 l       .text.rvtest	00000000 I_xori_cg_cr_rs1_imm_edges_rs1val_0xffffffff_immval_0x2
0000c36d l       .data	00000000 I_xori_cg_cr_rs1_imm_edges_rs1val_0xffffffff_immval_0x2_str
00001f54 l       .text.rvtest	00000000 I_xori_cg_cr_rs1_imm_edges_rs1val_0xffffffff_immval_0x3
0000c3c2 l       .data	00000000 I_xori_cg_cr_rs1_imm_edges_rs1val_0xffffffff_immval_0x3_str
00001f78 l       .text.rvtest	00000000 I_xori_cg_cr_rs1_imm_edges_rs1val_0xffffffff_immval_0x4
0000c417 l       .data	00000000 I_xori_cg_cr_rs1_imm_edges_rs1val_0xffffffff_immval_0x4_str
00001f9c l       .text.rvtest	00000000 I_xori_cg_cr_rs1_imm_edges_rs1val_0xffffffff_immval_0x8
0000c46c l       .data	00000000 I_xori_cg_cr_rs1_imm_edges_rs1val_0xffffffff_immval_0x8_str
00001fc0 l       .text.rvtest	00000000 I_xori_cg_cr_rs1_imm_edges_rs1val_0xffffffff_immval_0x10
0000c4c1 l       .data	00000000 I_xori_cg_cr_rs1_imm_edges_rs1val_0xffffffff_immval_0x10_str
00001fe4 l       .text.rvtest	00000000 I_xori_cg_cr_rs1_imm_edges_rs1val_0xffffffff_immval_0x20
0000c517 l       .data	00000000 I_xori_cg_cr_rs1_imm_edges_rs1val_0xffffffff_immval_0x20_str
00002008 l       .text.rvtest	00000000 I_xori_cg_cr_rs1_imm_edges_rs1val_0xffffffff_immval_0x40
0000c56d l       .data	00000000 I_xori_cg_cr_rs1_imm_edges_rs1val_0xffffffff_immval_0x40_str
0000202c l       .text.rvtest	00000000 I_xori_cg_cr_rs1_imm_edges_rs1val_0xffffffff_immval_0x80
0000c5c3 l       .data	00000000 I_xori_cg_cr_rs1_imm_edges_rs1val_0xffffffff_immval_0x80_str
00002050 l       .text.rvtest	00000000 I_xori_cg_cr_rs1_imm_edges_rs1val_0xffffffff_immval_0x100
0000c619 l       .data	00000000 I_xori_cg_cr_rs1_imm_edges_rs1val_0xffffffff_immval_0x100_str
00002074 l       .text.rvtest	00000000 I_xori_cg_cr_rs1_imm_edges_rs1val_0xffffffff_immval_0x200
0000c670 l       .data	00000000 I_xori_cg_cr_rs1_imm_edges_rs1val_0xffffffff_immval_0x200_str
00002098 l       .text.rvtest	00000000 I_xori_cg_cr_rs1_imm_edges_rs1val_0xffffffff_immval_0x3ff
0000c6c7 l       .data	00000000 I_xori_cg_cr_rs1_imm_edges_rs1val_0xffffffff_immval_0x3ff_str
000020bc l       .text.rvtest	00000000 I_xori_cg_cr_rs1_imm_edges_rs1val_0xffffffff_immval_0x400
0000c71e l       .data	00000000 I_xori_cg_cr_rs1_imm_edges_rs1val_0xffffffff_immval_0x400_str
000020e0 l       .text.rvtest	00000000 I_xori_cg_cr_rs1_imm_edges_rs1val_0xffffffff_immval_0x703
0000c775 l       .data	00000000 I_xori_cg_cr_rs1_imm_edges_rs1val_0xffffffff_immval_0x703_str
00002104 l       .text.rvtest	00000000 I_xori_cg_cr_rs1_imm_edges_rs1val_0xffffffff_immval_0x7ff
0000c7cc l       .data	00000000 I_xori_cg_cr_rs1_imm_edges_rs1val_0xffffffff_immval_0x7ff_str
00002128 l       .text.rvtest	00000000 I_xori_cg_cr_rs1_imm_edges_rs1val_0xffffffff_immval_m0x800
0000c823 l       .data	00000000 I_xori_cg_cr_rs1_imm_edges_rs1val_0xffffffff_immval_m0x800_str
0000214c l       .text.rvtest	00000000 I_xori_cg_cr_rs1_imm_edges_rs1val_0xffffffff_immval_m0x7ff
0000c87b l       .data	00000000 I_xori_cg_cr_rs1_imm_edges_rs1val_0xffffffff_immval_m0x7ff_str
00002170 l       .text.rvtest	00000000 I_xori_cg_cr_rs1_imm_edges_rs1val_0xffffffff_immval_m0x2
0000c8d3 l       .data	00000000 I_xori_cg_cr_rs1_imm_edges_rs1val_0xffffffff_immval_m0x2_str
00002194 l       .text.rvtest	00000000 I_xori_cg_cr_rs1_imm_edges_rs1val_0xffffffff_immval_m0x1
0000c929 l       .data	00000000 I_xori_cg_cr_rs1_imm_edges_rs1val_0xffffffff_immval_m0x1_str
000021b8 l       .text.rvtest	00000000 I_xori_cg_cr_rs1_imm_edges_rs1val_0xfffffffe_immval_0x0
0000c97f l       .data	00000000 I_xori_cg_cr_rs1_imm_edges_rs1val_0xfffffffe_immval_0x0_str
000021dc l       .text.rvtest	00000000 I_xori_cg_cr_rs1_imm_edges_rs1val_0xfffffffe_immval_0x1
0000c9d4 l       .data	00000000 I_xori_cg_cr_rs1_imm_edges_rs1val_0xfffffffe_immval_0x1_str
00002200 l       .text.rvtest	00000000 I_xori_cg_cr_rs1_imm_edges_rs1val_0xfffffffe_immval_0x2
0000ca29 l       .data	00000000 I_xori_cg_cr_rs1_imm_edges_rs1val_0xfffffffe_immval_0x2_str
00002224 l       .text.rvtest	00000000 I_xori_cg_cr_rs1_imm_edges_rs1val_0xfffffffe_immval_0x3
0000ca7e l       .data	00000000 I_xori_cg_cr_rs1_imm_edges_rs1val_0xfffffffe_immval_0x3_str
00002248 l       .text.rvtest	00000000 I_xori_cg_cr_rs1_imm_edges_rs1val_0xfffffffe_immval_0x4
0000cad3 l       .data	00000000 I_xori_cg_cr_rs1_imm_edges_rs1val_0xfffffffe_immval_0x4_str
0000226c l       .text.rvtest	00000000 I_xori_cg_cr_rs1_imm_edges_rs1val_0xfffffffe_immval_0x8
0000cb28 l       .data	00000000 I_xori_cg_cr_rs1_imm_edges_rs1val_0xfffffffe_immval_0x8_str
00002290 l       .text.rvtest	00000000 I_xori_cg_cr_rs1_imm_edges_rs1val_0xfffffffe_immval_0x10
0000cb7d l       .data	00000000 I_xori_cg_cr_rs1_imm_edges_rs1val_0xfffffffe_immval_0x10_str
000022b4 l       .text.rvtest	00000000 I_xori_cg_cr_rs1_imm_edges_rs1val_0xfffffffe_immval_0x20
0000cbd3 l       .data	00000000 I_xori_cg_cr_rs1_imm_edges_rs1val_0xfffffffe_immval_0x20_str
000022d8 l       .text.rvtest	00000000 I_xori_cg_cr_rs1_imm_edges_rs1val_0xfffffffe_immval_0x40
0000cc29 l       .data	00000000 I_xori_cg_cr_rs1_imm_edges_rs1val_0xfffffffe_immval_0x40_str
000022fc l       .text.rvtest	00000000 I_xori_cg_cr_rs1_imm_edges_rs1val_0xfffffffe_immval_0x80
0000cc7f l       .data	00000000 I_xori_cg_cr_rs1_imm_edges_rs1val_0xfffffffe_immval_0x80_str
00002320 l       .text.rvtest	00000000 I_xori_cg_cr_rs1_imm_edges_rs1val_0xfffffffe_immval_0x100
0000ccd5 l       .data	00000000 I_xori_cg_cr_rs1_imm_edges_rs1val_0xfffffffe_immval_0x100_str
00002344 l       .text.rvtest	00000000 I_xori_cg_cr_rs1_imm_edges_rs1val_0xfffffffe_immval_0x200
0000cd2c l       .data	00000000 I_xori_cg_cr_rs1_imm_edges_rs1val_0xfffffffe_immval_0x200_str
00002368 l       .text.rvtest	00000000 I_xori_cg_cr_rs1_imm_edges_rs1val_0xfffffffe_immval_0x3ff
0000cd83 l       .data	00000000 I_xori_cg_cr_rs1_imm_edges_rs1val_0xfffffffe_immval_0x3ff_str
0000238c l       .text.rvtest	00000000 I_xori_cg_cr_rs1_imm_edges_rs1val_0xfffffffe_immval_0x400
0000cdda l       .data	00000000 I_xori_cg_cr_rs1_imm_edges_rs1val_0xfffffffe_immval_0x400_str
000023b0 l       .text.rvtest	00000000 I_xori_cg_cr_rs1_imm_edges_rs1val_0xfffffffe_immval_0x703
0000ce31 l       .data	00000000 I_xori_cg_cr_rs1_imm_edges_rs1val_0xfffffffe_immval_0x703_str
000023d4 l       .text.rvtest	00000000 I_xori_cg_cr_rs1_imm_edges_rs1val_0xfffffffe_immval_0x7ff
0000ce88 l       .data	00000000 I_xori_cg_cr_rs1_imm_edges_rs1val_0xfffffffe_immval_0x7ff_str
000023f8 l       .text.rvtest	00000000 I_xori_cg_cr_rs1_imm_edges_rs1val_0xfffffffe_immval_m0x800
0000cedf l       .data	00000000 I_xori_cg_cr_rs1_imm_edges_rs1val_0xfffffffe_immval_m0x800_str
0000241c l       .text.rvtest	00000000 I_xori_cg_cr_rs1_imm_edges_rs1val_0xfffffffe_immval_m0x7ff
0000cf37 l       .data	00000000 I_xori_cg_cr_rs1_imm_edges_rs1val_0xfffffffe_immval_m0x7ff_str
00002440 l       .text.rvtest	00000000 I_xori_cg_cr_rs1_imm_edges_rs1val_0xfffffffe_immval_m0x2
0000cf8f l       .data	00000000 I_xori_cg_cr_rs1_imm_edges_rs1val_0xfffffffe_immval_m0x2_str
00002464 l       .text.rvtest	00000000 I_xori_cg_cr_rs1_imm_edges_rs1val_0xfffffffe_immval_m0x1
0000cfe5 l       .data	00000000 I_xori_cg_cr_rs1_imm_edges_rs1val_0xfffffffe_immval_m0x1_str
00002488 l       .text.rvtest	00000000 I_xori_cg_cr_rs1_imm_edges_rs1val_0x5bbc8872_immval_0x0
0000d03b l       .data	00000000 I_xori_cg_cr_rs1_imm_edges_rs1val_0x5bbc8872_immval_0x0_str
000024ac l       .text.rvtest	00000000 I_xori_cg_cr_rs1_imm_edges_rs1val_0x5bbc8872_immval_0x1
0000d090 l       .data	00000000 I_xori_cg_cr_rs1_imm_edges_rs1val_0x5bbc8872_immval_0x1_str
000024d0 l       .text.rvtest	00000000 I_xori_cg_cr_rs1_imm_edges_rs1val_0x5bbc8872_immval_0x2
0000d0e5 l       .data	00000000 I_xori_cg_cr_rs1_imm_edges_rs1val_0x5bbc8872_immval_0x2_str
000024f4 l       .text.rvtest	00000000 I_xori_cg_cr_rs1_imm_edges_rs1val_0x5bbc8872_immval_0x3
0000d13a l       .data	00000000 I_xori_cg_cr_rs1_imm_edges_rs1val_0x5bbc8872_immval_0x3_str
00002518 l       .text.rvtest	00000000 I_xori_cg_cr_rs1_imm_edges_rs1val_0x5bbc8872_immval_0x4
0000d18f l       .data	00000000 I_xori_cg_cr_rs1_imm_edges_rs1val_0x5bbc8872_immval_0x4_str
0000253c l       .text.rvtest	00000000 I_xori_cg_cr_rs1_imm_edges_rs1val_0x5bbc8872_immval_0x8
0000d1e4 l       .data	00000000 I_xori_cg_cr_rs1_imm_edges_rs1val_0x5bbc8872_immval_0x8_str
00002560 l       .text.rvtest	00000000 I_xori_cg_cr_rs1_imm_edges_rs1val_0x5bbc8872_immval_0x10
0000d239 l       .data	00000000 I_xori_cg_cr_rs1_imm_edges_rs1val_0x5bbc8872_immval_0x10_str
00002584 l       .text.rvtest	00000000 I_xori_cg_cr_rs1_imm_edges_rs1val_0x5bbc8872_immval_0x20
0000d28f l       .data	00000000 I_xori_cg_cr_rs1_imm_edges_rs1val_0x5bbc8872_immval_0x20_str
000025a8 l       .text.rvtest	00000000 I_xori_cg_cr_rs1_imm_edges_rs1val_0x5bbc8872_immval_0x40
0000d2e5 l       .data	00000000 I_xori_cg_cr_rs1_imm_edges_rs1val_0x5bbc8872_immval_0x40_str
000025cc l       .text.rvtest	00000000 I_xori_cg_cr_rs1_imm_edges_rs1val_0x5bbc8872_immval_0x80
0000d33b l       .data	00000000 I_xori_cg_cr_rs1_imm_edges_rs1val_0x5bbc8872_immval_0x80_str
000025f0 l       .text.rvtest	00000000 I_xori_cg_cr_rs1_imm_edges_rs1val_0x5bbc8872_immval_0x100
0000d391 l       .data	00000000 I_xori_cg_cr_rs1_imm_edges_rs1val_0x5bbc8872_immval_0x100_str
00002614 l       .text.rvtest	00000000 I_xori_cg_cr_rs1_imm_edges_rs1val_0x5bbc8872_immval_0x200
0000d3e8 l       .data	00000000 I_xori_cg_cr_rs1_imm_edges_rs1val_0x5bbc8872_immval_0x200_str
00002638 l       .text.rvtest	00000000 I_xori_cg_cr_rs1_imm_edges_rs1val_0x5bbc8872_immval_0x3ff
0000d43f l       .data	00000000 I_xori_cg_cr_rs1_imm_edges_rs1val_0x5bbc8872_immval_0x3ff_str
0000265c l       .text.rvtest	00000000 I_xori_cg_cr_rs1_imm_edges_rs1val_0x5bbc8872_immval_0x400
0000d496 l       .data	00000000 I_xori_cg_cr_rs1_imm_edges_rs1val_0x5bbc8872_immval_0x400_str
00002680 l       .text.rvtest	00000000 I_xori_cg_cr_rs1_imm_edges_rs1val_0x5bbc8872_immval_0x703
0000d4ed l       .data	00000000 I_xori_cg_cr_rs1_imm_edges_rs1val_0x5bbc8872_immval_0x703_str
000026a4 l       .text.rvtest	00000000 I_xori_cg_cr_rs1_imm_edges_rs1val_0x5bbc8872_immval_0x7ff
0000d544 l       .data	00000000 I_xori_cg_cr_rs1_imm_edges_rs1val_0x5bbc8872_immval_0x7ff_str
000026c8 l       .text.rvtest	00000000 I_xori_cg_cr_rs1_imm_edges_rs1val_0x5bbc8872_immval_m0x800
0000d59b l       .data	00000000 I_xori_cg_cr_rs1_imm_edges_rs1val_0x5bbc8872_immval_m0x800_str
000026ec l       .text.rvtest	00000000 I_xori_cg_cr_rs1_imm_edges_rs1val_0x5bbc8872_immval_m0x7ff
0000d5f3 l       .data	00000000 I_xori_cg_cr_rs1_imm_edges_rs1val_0x5bbc8872_immval_m0x7ff_str
00002710 l       .text.rvtest	00000000 I_xori_cg_cr_rs1_imm_edges_rs1val_0x5bbc8872_immval_m0x2
0000d64b l       .data	00000000 I_xori_cg_cr_rs1_imm_edges_rs1val_0x5bbc8872_immval_m0x2_str
00002734 l       .text.rvtest	00000000 I_xori_cg_cr_rs1_imm_edges_rs1val_0x5bbc8872_immval_m0x1
0000d6a1 l       .data	00000000 I_xori_cg_cr_rs1_imm_edges_rs1val_0x5bbc8872_immval_m0x1_str
00002758 l       .text.rvtest	00000000 I_xori_cg_cr_rs1_imm_edges_rs1val_0xaaaaaaaa_immval_0x0
0000d6f7 l       .data	00000000 I_xori_cg_cr_rs1_imm_edges_rs1val_0xaaaaaaaa_immval_0x0_str
0000277c l       .text.rvtest	00000000 I_xori_cg_cr_rs1_imm_edges_rs1val_0xaaaaaaaa_immval_0x1
0000d74c l       .data	00000000 I_xori_cg_cr_rs1_imm_edges_rs1val_0xaaaaaaaa_immval_0x1_str
000027a0 l       .text.rvtest	00000000 I_xori_cg_cr_rs1_imm_edges_rs1val_0xaaaaaaaa_immval_0x2
0000d7a1 l       .data	00000000 I_xori_cg_cr_rs1_imm_edges_rs1val_0xaaaaaaaa_immval_0x2_str
000027c4 l       .text.rvtest	00000000 I_xori_cg_cr_rs1_imm_edges_rs1val_0xaaaaaaaa_immval_0x3
0000d7f6 l       .data	00000000 I_xori_cg_cr_rs1_imm_edges_rs1val_0xaaaaaaaa_immval_0x3_str
000027e8 l       .text.rvtest	00000000 I_xori_cg_cr_rs1_imm_edges_rs1val_0xaaaaaaaa_immval_0x4
0000d84b l       .data	00000000 I_xori_cg_cr_rs1_imm_edges_rs1val_0xaaaaaaaa_immval_0x4_str
0000280c l       .text.rvtest	00000000 I_xori_cg_cr_rs1_imm_edges_rs1val_0xaaaaaaaa_immval_0x8
0000d8a0 l       .data	00000000 I_xori_cg_cr_rs1_imm_edges_rs1val_0xaaaaaaaa_immval_0x8_str
00002830 l       .text.rvtest	00000000 I_xori_cg_cr_rs1_imm_edges_rs1val_0xaaaaaaaa_immval_0x10
0000d8f5 l       .data	00000000 I_xori_cg_cr_rs1_imm_edges_rs1val_0xaaaaaaaa_immval_0x10_str
00002854 l       .text.rvtest	00000000 I_xori_cg_cr_rs1_imm_edges_rs1val_0xaaaaaaaa_immval_0x20
0000d94b l       .data	00000000 I_xori_cg_cr_rs1_imm_edges_rs1val_0xaaaaaaaa_immval_0x20_str
00002878 l       .text.rvtest	00000000 I_xori_cg_cr_rs1_imm_edges_rs1val_0xaaaaaaaa_immval_0x40
0000d9a1 l       .data	00000000 I_xori_cg_cr_rs1_imm_edges_rs1val_0xaaaaaaaa_immval_0x40_str
0000289c l       .text.rvtest	00000000 I_xori_cg_cr_rs1_imm_edges_rs1val_0xaaaaaaaa_immval_0x80
0000d9f7 l       .data	00000000 I_xori_cg_cr_rs1_imm_edges_rs1val_0xaaaaaaaa_immval_0x80_str
000028c0 l       .text.rvtest	00000000 I_xori_cg_cr_rs1_imm_edges_rs1val_0xaaaaaaaa_immval_0x100
0000da4d l       .data	00000000 I_xori_cg_cr_rs1_imm_edges_rs1val_0xaaaaaaaa_immval_0x100_str
000028e4 l       .text.rvtest	00000000 I_xori_cg_cr_rs1_imm_edges_rs1val_0xaaaaaaaa_immval_0x200
0000daa4 l       .data	00000000 I_xori_cg_cr_rs1_imm_edges_rs1val_0xaaaaaaaa_immval_0x200_str
00002908 l       .text.rvtest	00000000 I_xori_cg_cr_rs1_imm_edges_rs1val_0xaaaaaaaa_immval_0x3ff
0000dafb l       .data	00000000 I_xori_cg_cr_rs1_imm_edges_rs1val_0xaaaaaaaa_immval_0x3ff_str
0000292c l       .text.rvtest	00000000 I_xori_cg_cr_rs1_imm_edges_rs1val_0xaaaaaaaa_immval_0x400
0000db52 l       .data	00000000 I_xori_cg_cr_rs1_imm_edges_rs1val_0xaaaaaaaa_immval_0x400_str
00002950 l       .text.rvtest	00000000 I_xori_cg_cr_rs1_imm_edges_rs1val_0xaaaaaaaa_immval_0x703
0000dba9 l       .data	00000000 I_xori_cg_cr_rs1_imm_edges_rs1val_0xaaaaaaaa_immval_0x703_str
00002974 l       .text.rvtest	00000000 I_xori_cg_cr_rs1_imm_edges_rs1val_0xaaaaaaaa_immval_0x7ff
0000dc00 l       .data	00000000 I_xori_cg_cr_rs1_imm_edges_rs1val_0xaaaaaaaa_immval_0x7ff_str
00002998 l       .text.rvtest	00000000 I_xori_cg_cr_rs1_imm_edges_rs1val_0xaaaaaaaa_immval_m0x800
0000dc57 l       .data	00000000 I_xori_cg_cr_rs1_imm_edges_rs1val_0xaaaaaaaa_immval_m0x800_str
000029bc l       .text.rvtest	00000000 I_xori_cg_cr_rs1_imm_edges_rs1val_0xaaaaaaaa_immval_m0x7ff
0000dcaf l       .data	00000000 I_xori_cg_cr_rs1_imm_edges_rs1val_0xaaaaaaaa_immval_m0x7ff_str
000029e0 l       .text.rvtest	00000000 I_xori_cg_cr_rs1_imm_edges_rs1val_0xaaaaaaaa_immval_m0x2
0000dd07 l       .data	00000000 I_xori_cg_cr_rs1_imm_edges_rs1val_0xaaaaaaaa_immval_m0x2_str
00002a04 l       .text.rvtest	00000000 I_xori_cg_cr_rs1_imm_edges_rs1val_0xaaaaaaaa_immval_m0x1
0000dd5d l       .data	00000000 I_xori_cg_cr_rs1_imm_edges_rs1val_0xaaaaaaaa_immval_m0x1_str
00002a28 l       .text.rvtest	00000000 I_xori_cg_cr_rs1_imm_edges_rs1val_0x55555555_immval_0x0
0000ddb3 l       .data	00000000 I_xori_cg_cr_rs1_imm_edges_rs1val_0x55555555_immval_0x0_str
00002a4c l       .text.rvtest	00000000 I_xori_cg_cr_rs1_imm_edges_rs1val_0x55555555_immval_0x1
0000de08 l       .data	00000000 I_xori_cg_cr_rs1_imm_edges_rs1val_0x55555555_immval_0x1_str
00002a70 l       .text.rvtest	00000000 I_xori_cg_cr_rs1_imm_edges_rs1val_0x55555555_immval_0x2
0000de5d l       .data	00000000 I_xori_cg_cr_rs1_imm_edges_rs1val_0x55555555_immval_0x2_str
00002a94 l       .text.rvtest	00000000 I_xori_cg_cr_rs1_imm_edges_rs1val_0x55555555_immval_0x3
0000deb2 l       .data	00000000 I_xori_cg_cr_rs1_imm_edges_rs1val_0x55555555_immval_0x3_str
00002ab8 l       .text.rvtest	00000000 I_xori_cg_cr_rs1_imm_edges_rs1val_0x55555555_immval_0x4
0000df07 l       .data	00000000 I_xori_cg_cr_rs1_imm_edges_rs1val_0x55555555_immval_0x4_str
00002adc l       .text.rvtest	00000000 I_xori_cg_cr_rs1_imm_edges_rs1val_0x55555555_immval_0x8
0000df5c l       .data	00000000 I_xori_cg_cr_rs1_imm_edges_rs1val_0x55555555_immval_0x8_str
00002b00 l       .text.rvtest	00000000 I_xori_cg_cr_rs1_imm_edges_rs1val_0x55555555_immval_0x10
0000dfb1 l       .data	00000000 I_xori_cg_cr_rs1_imm_edges_rs1val_0x55555555_immval_0x10_str
00002b24 l       .text.rvtest	00000000 I_xori_cg_cr_rs1_imm_edges_rs1val_0x55555555_immval_0x20
0000e007 l       .data	00000000 I_xori_cg_cr_rs1_imm_edges_rs1val_0x55555555_immval_0x20_str
00002b48 l       .text.rvtest	00000000 I_xori_cg_cr_rs1_imm_edges_rs1val_0x55555555_immval_0x40
0000e05d l       .data	00000000 I_xori_cg_cr_rs1_imm_edges_rs1val_0x55555555_immval_0x40_str
00002b6c l       .text.rvtest	00000000 I_xori_cg_cr_rs1_imm_edges_rs1val_0x55555555_immval_0x80
0000e0b3 l       .data	00000000 I_xori_cg_cr_rs1_imm_edges_rs1val_0x55555555_immval_0x80_str
00002b90 l       .text.rvtest	00000000 I_xori_cg_cr_rs1_imm_edges_rs1val_0x55555555_immval_0x100
0000e109 l       .data	00000000 I_xori_cg_cr_rs1_imm_edges_rs1val_0x55555555_immval_0x100_str
00002bb4 l       .text.rvtest	00000000 I_xori_cg_cr_rs1_imm_edges_rs1val_0x55555555_immval_0x200
0000e160 l       .data	00000000 I_xori_cg_cr_rs1_imm_edges_rs1val_0x55555555_immval_0x200_str
00002bd8 l       .text.rvtest	00000000 I_xori_cg_cr_rs1_imm_edges_rs1val_0x55555555_immval_0x3ff
0000e1b7 l       .data	00000000 I_xori_cg_cr_rs1_imm_edges_rs1val_0x55555555_immval_0x3ff_str
00002bfc l       .text.rvtest	00000000 I_xori_cg_cr_rs1_imm_edges_rs1val_0x55555555_immval_0x400
0000e20e l       .data	00000000 I_xori_cg_cr_rs1_imm_edges_rs1val_0x55555555_immval_0x400_str
00002c20 l       .text.rvtest	00000000 I_xori_cg_cr_rs1_imm_edges_rs1val_0x55555555_immval_0x703
0000e265 l       .data	00000000 I_xori_cg_cr_rs1_imm_edges_rs1val_0x55555555_immval_0x703_str
00002c44 l       .text.rvtest	00000000 I_xori_cg_cr_rs1_imm_edges_rs1val_0x55555555_immval_0x7ff
0000e2bc l       .data	00000000 I_xori_cg_cr_rs1_imm_edges_rs1val_0x55555555_immval_0x7ff_str
00002c68 l       .text.rvtest	00000000 I_xori_cg_cr_rs1_imm_edges_rs1val_0x55555555_immval_m0x800
0000e313 l       .data	00000000 I_xori_cg_cr_rs1_imm_edges_rs1val_0x55555555_immval_m0x800_str
00002c8c l       .text.rvtest	00000000 I_xori_cg_cr_rs1_imm_edges_rs1val_0x55555555_immval_m0x7ff
0000e36b l       .data	00000000 I_xori_cg_cr_rs1_imm_edges_rs1val_0x55555555_immval_m0x7ff_str
00002cb0 l       .text.rvtest	00000000 I_xori_cg_cr_rs1_imm_edges_rs1val_0x55555555_immval_m0x2
0000e3c3 l       .data	00000000 I_xori_cg_cr_rs1_imm_edges_rs1val_0x55555555_immval_m0x2_str
00002cd4 l       .text.rvtest	00000000 I_xori_cg_cr_rs1_imm_edges_rs1val_0x55555555_immval_m0x1
0000e419 l       .data	00000000 I_xori_cg_cr_rs1_imm_edges_rs1val_0x55555555_immval_m0x1_str
00002cf8 l       .text.rvtest	00000000 I_xori_cg_cmp_rd_rs1_b0
0000e46f l       .data	00000000 I_xori_cg_cmp_rd_rs1_b0_str
00002d1c l       .text.rvtest	00000000 I_xori_cg_cmp_rd_rs1_b1
0000e4a3 l       .data	00000000 I_xori_cg_cmp_rd_rs1_b1_str
00002d40 l       .text.rvtest	00000000 I_xori_cg_cmp_rd_rs1_b2
0000e4d7 l       .data	00000000 I_xori_cg_cmp_rd_rs1_b2_str
00002d64 l       .text.rvtest	00000000 I_xori_cg_cmp_rd_rs1_b3
0000e50b l       .data	00000000 I_xori_cg_cmp_rd_rs1_b3_str
00002d90 l       .text.rvtest	00000000 I_xori_cg_cmp_rd_rs1_b4
0000e53f l       .data	00000000 I_xori_cg_cmp_rd_rs1_b4_str
00002db4 l       .text.rvtest	00000000 I_xori_cg_cmp_rd_rs1_b5
0000e573 l       .data	00000000 I_xori_cg_cmp_rd_rs1_b5_str
00002dd8 l       .text.rvtest	00000000 I_xori_cg_cmp_rd_rs1_b6
0000e5a7 l       .data	00000000 I_xori_cg_cmp_rd_rs1_b6_str
00002dfc l       .text.rvtest	00000000 I_xori_cg_cmp_rd_rs1_b7
0000e5db l       .data	00000000 I_xori_cg_cmp_rd_rs1_b7_str
00002e20 l       .text.rvtest	00000000 I_xori_cg_cmp_rd_rs1_b8
0000e60f l       .data	00000000 I_xori_cg_cmp_rd_rs1_b8_str
00002e44 l       .text.rvtest	00000000 I_xori_cg_cmp_rd_rs1_b9
0000e643 l       .data	00000000 I_xori_cg_cmp_rd_rs1_b9_str
00002e68 l       .text.rvtest	00000000 I_xori_cg_cmp_rd_rs1_b10
0000e677 l       .data	00000000 I_xori_cg_cmp_rd_rs1_b10_str
00002e8c l       .text.rvtest	00000000 I_xori_cg_cmp_rd_rs1_b11
0000e6ac l       .data	00000000 I_xori_cg_cmp_rd_rs1_b11_str
00002eb4 l       .text.rvtest	00000000 I_xori_cg_cmp_rd_rs1_b12
0000e6e1 l       .data	00000000 I_xori_cg_cmp_rd_rs1_b12_str
00002ee0 l       .text.rvtest	00000000 I_xori_cg_cmp_rd_rs1_b13
0000e716 l       .data	00000000 I_xori_cg_cmp_rd_rs1_b13_str
00002f04 l       .text.rvtest	00000000 I_xori_cg_cmp_rd_rs1_b14
0000e74b l       .data	00000000 I_xori_cg_cmp_rd_rs1_b14_str
00002f28 l       .text.rvtest	00000000 I_xori_cg_cmp_rd_rs1_b15
0000e780 l       .data	00000000 I_xori_cg_cmp_rd_rs1_b15_str
00002f4c l       .text.rvtest	00000000 I_xori_cg_cmp_rd_rs1_b16
0000e7b5 l       .data	00000000 I_xori_cg_cmp_rd_rs1_b16_str
00002f74 l       .text.rvtest	00000000 I_xori_cg_cmp_rd_rs1_b17
0000e7ea l       .data	00000000 I_xori_cg_cmp_rd_rs1_b17_str
00002f98 l       .text.rvtest	00000000 I_xori_cg_cmp_rd_rs1_b18
0000e81f l       .data	00000000 I_xori_cg_cmp_rd_rs1_b18_str
00002fc0 l       .text.rvtest	00000000 I_xori_cg_cmp_rd_rs1_b19
0000e854 l       .data	00000000 I_xori_cg_cmp_rd_rs1_b19_str
00002fe4 l       .text.rvtest	00000000 I_xori_cg_cmp_rd_rs1_b20
0000e889 l       .data	00000000 I_xori_cg_cmp_rd_rs1_b20_str
00003008 l       .text.rvtest	00000000 I_xori_cg_cmp_rd_rs1_b21
0000e8be l       .data	00000000 I_xori_cg_cmp_rd_rs1_b21_str
0000302c l       .text.rvtest	00000000 I_xori_cg_cmp_rd_rs1_b22
0000e8f3 l       .data	00000000 I_xori_cg_cmp_rd_rs1_b22_str
00003050 l       .text.rvtest	00000000 I_xori_cg_cmp_rd_rs1_b23
0000e928 l       .data	00000000 I_xori_cg_cmp_rd_rs1_b23_str
00003078 l       .text.rvtest	00000000 I_xori_cg_cmp_rd_rs1_b24
0000e95d l       .data	00000000 I_xori_cg_cmp_rd_rs1_b24_str
0000309c l       .text.rvtest	00000000 I_xori_cg_cmp_rd_rs1_b25
0000e992 l       .data	00000000 I_xori_cg_cmp_rd_rs1_b25_str
000030c4 l       .text.rvtest	00000000 I_xori_cg_cmp_rd_rs1_b26
0000e9c7 l       .data	00000000 I_xori_cg_cmp_rd_rs1_b26_str
000030e8 l       .text.rvtest	00000000 I_xori_cg_cmp_rd_rs1_b27
0000e9fc l       .data	00000000 I_xori_cg_cmp_rd_rs1_b27_str
00003110 l       .text.rvtest	00000000 I_xori_cg_cmp_rd_rs1_b28
0000ea31 l       .data	00000000 I_xori_cg_cmp_rd_rs1_b28_str
00003134 l       .text.rvtest	00000000 I_xori_cg_cmp_rd_rs1_b29
0000ea66 l       .data	00000000 I_xori_cg_cmp_rd_rs1_b29_str
00003158 l       .text.rvtest	00000000 I_xori_cg_cmp_rd_rs1_b30
0000ea9b l       .data	00000000 I_xori_cg_cmp_rd_rs1_b30_str
00003180 l       .text.rvtest	00000000 I_xori_cg_cmp_rd_rs1_b31
0000ead0 l       .data	00000000 I_xori_cg_cmp_rd_rs1_b31_str
000031a4 l       .text.rvtest	00000000 I_xori_cg_cp_imm_edges_0x0
0000eb05 l       .data	00000000 I_xori_cg_cp_imm_edges_0x0_str
000031c8 l       .text.rvtest	00000000 I_xori_cg_cp_imm_edges_0x1
0000eb3c l       .data	00000000 I_xori_cg_cp_imm_edges_0x1_str
000031ec l       .text.rvtest	00000000 I_xori_cg_cp_imm_edges_0x2
0000eb73 l       .data	00000000 I_xori_cg_cp_imm_edges_0x2_str
00003210 l       .text.rvtest	00000000 I_xori_cg_cp_imm_edges_0x3
0000ebaa l       .data	00000000 I_xori_cg_cp_imm_edges_0x3_str
00003234 l       .text.rvtest	00000000 I_xori_cg_cp_imm_edges_0x4
0000ebe1 l       .data	00000000 I_xori_cg_cp_imm_edges_0x4_str
00003258 l       .text.rvtest	00000000 I_xori_cg_cp_imm_edges_0x8
0000ec18 l       .data	00000000 I_xori_cg_cp_imm_edges_0x8_str
0000327c l       .text.rvtest	00000000 I_xori_cg_cp_imm_edges_0x10
0000ec4f l       .data	00000000 I_xori_cg_cp_imm_edges_0x10_str
000032a0 l       .text.rvtest	00000000 I_xori_cg_cp_imm_edges_0x20
0000ec87 l       .data	00000000 I_xori_cg_cp_imm_edges_0x20_str
000032c4 l       .text.rvtest	00000000 I_xori_cg_cp_imm_edges_0x40
0000ecbf l       .data	00000000 I_xori_cg_cp_imm_edges_0x40_str
000032e8 l       .text.rvtest	00000000 I_xori_cg_cp_imm_edges_0x80
0000ecf7 l       .data	00000000 I_xori_cg_cp_imm_edges_0x80_str
0000330c l       .text.rvtest	00000000 I_xori_cg_cp_imm_edges_0x100
0000ed2f l       .data	00000000 I_xori_cg_cp_imm_edges_0x100_str
00003330 l       .text.rvtest	00000000 I_xori_cg_cp_imm_edges_0x200
0000ed68 l       .data	00000000 I_xori_cg_cp_imm_edges_0x200_str
00003354 l       .text.rvtest	00000000 I_xori_cg_cp_imm_edges_0x3ff
0000eda1 l       .data	00000000 I_xori_cg_cp_imm_edges_0x3ff_str
00003378 l       .text.rvtest	00000000 I_xori_cg_cp_imm_edges_0x400
0000edda l       .data	00000000 I_xori_cg_cp_imm_edges_0x400_str
0000339c l       .text.rvtest	00000000 I_xori_cg_cp_imm_edges_0x703
0000ee13 l       .data	00000000 I_xori_cg_cp_imm_edges_0x703_str
000033c0 l       .text.rvtest	00000000 I_xori_cg_cp_imm_edges_0x7ff
0000ee4c l       .data	00000000 I_xori_cg_cp_imm_edges_0x7ff_str
000033e4 l       .text.rvtest	00000000 I_xori_cg_cp_imm_edges_m0x800
0000ee85 l       .data	00000000 I_xori_cg_cp_imm_edges_m0x800_str
00003408 l       .text.rvtest	00000000 I_xori_cg_cp_imm_edges_m0x7ff
0000eebf l       .data	00000000 I_xori_cg_cp_imm_edges_m0x7ff_str
0000342c l       .text.rvtest	00000000 I_xori_cg_cp_imm_edges_m0x2
0000eef9 l       .data	00000000 I_xori_cg_cp_imm_edges_m0x2_str
00003450 l       .text.rvtest	00000000 I_xori_cg_cp_imm_edges_m0x1
0000ef31 l       .data	00000000 I_xori_cg_cp_imm_edges_m0x1_str
00003470 l       .text.rvtest	00000000 exit_cleanup
0000f5d4 l       .data	00000000 successstr
00020204 l       .text.rvmodel	00000000 rvmodel_io_write_str
00020208 l       .text.rvmodel	00000000 rvmodel_halt_pass
000034b0 l       .text.rvtest	00000000 abort_test
6f5ca309 l       *ABS*	00000000 immx
6f5ca309 l       *ABS*	00000000 absimm
00000000 l       *ABS*	00000000 cry
00000309 l       *ABS*	00000000 imm12
0000ef70 l       .data	00000000 begin_failure_scratch
00003580 l       .text.rvtest	00000000 failedtest_saveregs
00003524 l       .text.rvtest	00000000 failedtest_trap_x7_x9
0000f0e0 l       .data	00000000 saved_mcause
0000f0e8 l       .data	00000000 saved_mtval
0000f0f0 l       .data	00000000 saved_mstatus
000035f0 l       .text.rvtest	00000000 failedtest_saveresults
0000ef70 l       .data	00000000 failure_type
0000366c l       .text.rvtest	00000000 failedtest_saveresults_trap
00003600 l       .text.rvtest	00000000 failedtest_saveresults_int
00003a40 l       .text.rvtest	00000000 failedtest_saveresults_common
0000f0c8 l       .data	00000000 trap_diag_fail_str_ptr
0000f79c l       .data	00000000 trap_sig_offset_mismatch
00003920 l       .text.rvtest	00000000 trap_diag_offset_mismatch
0000f0a0 l       .data	00000000 trap_diag_subtype
0000f800 l       .data	00000000 sv_Mvect_str
000039a0 l       .text.rvtest	00000000 trap_diag_field_identified
0000f902 l       .data	00000000 sv_Mcause_str
0000f9fd l       .data	00000000 sv_Mepc_str
0000faf0 l       .data	00000000 sv_Mtval_str
0000fc63 l       .data	00000000 sv_Mip_str
0000fbe7 l       .data	00000000 sv_Mtval2_str
0000fc25 l       .data	00000000 sv_Mtinst_str
0000f840 l       .data	00000000 sv_Svect_str
0000f940 l       .data	00000000 sv_Scause_str
0000fa39 l       .data	00000000 sv_Sepc_str
0000fb2d l       .data	00000000 sv_Stval_str
0000fc9e l       .data	00000000 sv_Sip_str
0000f880 l       .data	00000000 sv_Hvect_str
0000f97e l       .data	00000000 sv_Hcause_str
0000fa75 l       .data	00000000 sv_Hepc_str
0000fb6a l       .data	00000000 sv_Htval_str
0000fcd9 l       .data	00000000 sv_Hip_str
0000f8c1 l       .data	00000000 sv_Vvect_str
0000f9bd l       .data	00000000 sv_Vcause_str
0000fab2 l       .data	00000000 sv_Vepc_str
0000fba8 l       .data	00000000 sv_Vtval_str
0000fd15 l       .data	00000000 sv_Vip_str
0000fd52 l       .data	00000000 Mclr_Mext_int_str
0000fda1 l       .data	00000000 Mclr_Sext_int_str
0000fe9c l       .data	00000000 Sclr_Sext_int_str
0000ff98 l       .data	00000000 Hclr_Sext_int_str
00003a30 l       .text.rvtest	00000000 trap_diag_generic_report
0000f0b8 l       .data	00000000 trap_diag_actual_offset
0000f0c0 l       .data	00000000 trap_diag_expected_offset
0000f0a4 l       .data	00000000 trap_diag_mode
0000f0a8 l       .data	00000000 trap_diag_actual_value
0000f0b0 l       .data	00000000 trap_diag_expected_value
00003a70 l       .text.rvtest	00000000 failedtest_report
00003a70 l       .text.rvtest	00000000 print_failstr
0000f60b l       .data	00000000 failstr
00003aa8 l       .text.rvtest	00000000 print_testnamestr
0000f69f l       .data	00000000 testnamestr
00003ae8 l       .text.rvtest	00000000 print_failure_test_name_str
0000f090 l       .data	00000000 failure_string_ptr
00003af8 l       .text.rvtest	00000000 print_newline_str
0000f6b1 l       .data	00000000 newlinestr
00003f2c l       .text.rvtest	00000000 failedtest_report_trap_detailed
0000f6b3 l       .data	00000000 inststr
0000f070 l       .data	00000000 failing_instruction
00004e78 l       .text.rvtest	00000000 failedtest_hex_to_str
0000f0f8 l       .data	00000000 ascii_buffer
0000f6c7 l       .data	00000000 addrstr
0000f078 l       .data	00000000 failing_addr
00010144 l       .data	00000000 regstr
00003cd8 l       .text.rvtest	00000000 failedtest_report_not_intreg
0000f074 l       .data	00000000 failing_reg
00004ef4 l       .text.rvtest	00000000 failedtest_dec_to_str
00003db4 l       .text.rvtest	00000000 failedtest_report_print_regstr
00003d2c l       .text.rvtest	00000000 failedtest_report_fpreg
00003d78 l       .text.rvtest	00000000 failedtest_report_vecreg
000101a4 l       .data	00000000 fflagsstr
00003de8 l       .text.rvtest	00000000 failedtest_report_after_reg
00010155 l       .data	00000000 badvalstr
00003e4c l       .text.rvtest	00000000 failedtest_report_badval_not_fp
0000f080 l       .data	00000000 failing_value
00003e5c l       .text.rvtest	00000000 failedtest_report_badval_done
0001016c l       .data	00000000 expvalstr
00003eec l       .text.rvtest	00000000 failedtest_report_expval_not_fp
0000f088 l       .data	00000000 expected_value
00003efc l       .text.rvtest	00000000 failedtest_report_expval_done
00004c24 l       .text.rvtest	00000000 failedtest_report_end
000101d0 l       .data	00000000 trap_diag_header_str
000101fc l       .data	00000000 trap_diag_origstr_label
00004000 l       .text.rvtest	00000000 trap_report_offset_mismatch
00004ab0 l       .text.rvtest	00000000 trap_report_generic
00004374 l       .text.rvtest	00000000 trap_report_field_mismatch
0001020c l       .data	00000000 trap_diag_count_mismatch_str
0001026d l       .data	00000000 trap_diag_expected_offset_str
00010294 l       .data	00000000 trap_diag_actual_offset_str
00004254 l       .text.rvtest	00000000 trap_report_missing_traps
0000413c l       .text.rvtest	00000000 trap_report_extra_traps
000102bb l       .data	00000000 trap_diag_extra_traps_str
00010340 l       .data	00000000 trap_diag_extra_bytes_str
0001036b l       .data	00000000 trap_diag_extra_hint_str
00004c70 l       .text.rvtest	00000000 failedtest_print_csr_context
000102f5 l       .data	00000000 trap_diag_missing_traps_str
00010453 l       .data	00000000 trap_diag_missing_hint_str
0001053a l       .data	00000000 trap_diag_handler_mode_str
00004404 l       .text.rvtest	00000000 trap_mode_m
00004444 l       .text.rvtest	00000000 trap_mode_s
00004484 l       .text.rvtest	00000000 trap_mode_h
000044c4 l       .text.rvtest	00000000 trap_mode_v
00010576 l       .data	00000000 trap_diag_mode_unknown_str
00004500 l       .text.rvtest	00000000 trap_mode_print
00010554 l       .data	00000000 trap_diag_mode_m_str
0001055c l       .data	00000000 trap_diag_mode_s_str
00010564 l       .data	00000000 trap_diag_mode_hs_str
0001056d l       .data	00000000 trap_diag_mode_vs_str
0001057f l       .data	00000000 trap_diag_field_str
000045c4 l       .text.rvtest	00000000 trap_field_vect
00004604 l       .text.rvtest	00000000 trap_field_cause
00004644 l       .text.rvtest	00000000 trap_field_epc
00004684 l       .text.rvtest	00000000 trap_field_tval
000046c4 l       .text.rvtest	00000000 trap_field_ip
00004704 l       .text.rvtest	00000000 trap_field_tval2
00004744 l       .text.rvtest	00000000 trap_field_tinst
00004784 l       .text.rvtest	00000000 trap_field_intid
000106d6 l       .data	00000000 trap_diag_field_unknown_str
000047c0 l       .text.rvtest	00000000 trap_field_print
00010599 l       .data	00000000 trap_diag_field_vect_str
000105ca l       .data	00000000 trap_diag_field_cause_str
000105ea l       .data	00000000 trap_diag_field_epc_str
00010608 l       .data	00000000 trap_diag_field_tval_str
00010627 l       .data	00000000 trap_diag_field_ip_str
0001064f l       .data	00000000 trap_diag_field_tval2_str
0001067b l       .data	00000000 trap_diag_field_tinst_str
000106a7 l       .data	00000000 trap_diag_field_intid_str
000106e5 l       .data	00000000 trap_diag_expected_str
000106fc l       .data	00000000 trap_diag_actual_str
0000495c l       .text.rvtest	00000000 trap_field_not_cause
00010713 l       .data	00000000 trap_diag_expected_cause_name_str
00004b94 l       .text.rvtest	00000000 trap_cause_to_str
0001072a l       .data	00000000 trap_diag_actual_cause_name_str
0000495c l       .text.rvtest	00000000 trap_field_not_epc
000107a0 l       .data	00000000 trap_diag_hint_vect_str
00010876 l       .data	00000000 trap_diag_hint_cause_str
00010969 l       .data	00000000 trap_diag_hint_epc_str
00010a64 l       .data	00000000 trap_diag_hint_tval_str
00010b4b l       .data	00000000 trap_diag_hint_ip_str
00010758 l       .data	00000000 trap_diag_generic_str
0000f0d8 l       .data	00000000 saved_mepc
0000f73b l       .data	00000000 xepcinstrstr
00004bb8 l       .text.rvtest	00000000 trap_cause_interrupt
00004b98 l       .text.rvtest	00000000 trap_cause_exception
00004be4 l       .text.rvtest	00000000 trap_cause_unknown
0000f120 l       .data	00000000 trap_excpt_name_tbl
0000f180 l       .data	00000000 trap_int_name_tbl
0000f5be l       .data	00000000 trap_cause_unknown_str
00010183 l       .data	00000000 endstr
00004c68 l       .text.rvtest	00000000 failedtest_terminate
00020214 l       .text.rvmodel	00000000 rvmodel_halt_fail
0000f0d0 l       .data	00000000 csr_context_ret_addr
0000f75c l       .data	00000000 mepcstr
0000f76c l       .data	00000000 mcausestr
0000f77c l       .data	00000000 mtvalstr
0000f78c l       .data	00000000 mstatusstr
00004eb8 l       .text.rvtest	00000000 failedtest_hex_to_str_loop
00004ed4 l       .text.rvtest	00000000 failedtest_hex_to_str_digit
00004ed8 l       .text.rvtest	00000000 failedtest_hex_to_str_write
00020000 l       .text.rvmodel	00000000 rvtest_boot_to_mmode
00020000 l       .text.rvmodel	00000000 rvtest_init_regs
00010c30 l       .data	00000000 signature_base
000201a0 l       .text.rvmodel	00000000 canary_check
000101ac l       .data	00000000 canary_mismatch
00008000 l       .data	00000000 scratch
0000f120 l       .data	00000000 end_failure_scratch
0000f1c0 l       .data	00000000 trap_excpt_name_0
0000f1e0 l       .data	00000000 trap_excpt_name_1
0000f1fa l       .data	00000000 trap_excpt_name_2
0000f20f l       .data	00000000 trap_excpt_name_3
0000f21b l       .data	00000000 trap_excpt_name_4
0000f234 l       .data	00000000 trap_excpt_name_5
0000f247 l       .data	00000000 trap_excpt_name_6
0000f265 l       .data	00000000 trap_excpt_name_7
0000f27d l       .data	00000000 trap_excpt_name_8
0000f29b l       .data	00000000 trap_excpt_name_9
0000f2b9 l       .data	00000000 trap_excpt_name_10
0000f2d8 l       .data	00000000 trap_excpt_name_11
0000f2f6 l       .data	00000000 trap_excpt_name_12
0000f30e l       .data	00000000 trap_excpt_name_13
0000f31f l       .data	00000000 trap_excpt_name_14
0000f32e l       .data	00000000 trap_excpt_name_15
0000f344 l       .data	00000000 trap_excpt_name_16
0000f351 l       .data	00000000 trap_excpt_name_17
0000f360 l       .data	00000000 trap_excpt_name_18
0000f370 l       .data	00000000 trap_excpt_name_19
0000f380 l       .data	00000000 trap_excpt_name_20
0000f39e l       .data	00000000 trap_excpt_name_21
0000f3b5 l       .data	00000000 trap_excpt_name_22
0000f3ca l       .data	00000000 trap_excpt_name_23
0000f3e6 l       .data	00000000 trap_int_name_0
0000f3fe l       .data	00000000 trap_int_name_1
0000f41d l       .data	00000000 trap_int_name_2
0000f444 l       .data	00000000 trap_int_name_3
0000f460 l       .data	00000000 trap_int_name_4
0000f478 l       .data	00000000 trap_int_name_5
0000f494 l       .data	00000000 trap_int_name_6
0000f4b8 l       .data	00000000 trap_int_name_7
0000f4d1 l       .data	00000000 trap_int_name_8
0000f4e9 l       .data	00000000 trap_int_name_9
0000f508 l       .data	00000000 trap_int_name_10
0000f52f l       .data	00000000 trap_int_name_11
0000f54b l       .data	00000000 trap_int_name_12
0000f570 l       .data	00000000 trap_int_name_13
0000f58c l       .data	00000000 trap_int_name_14
0000f5a5 l       .data	00000000 trap_int_name_15
0000f661 l       .data	00000000 abortstr
0000f708 l       .data	00000000 xepcstr
0000fdf3 l       .data	00000000 Mclr_Vext_int_str
0000fe4d l       .data	00000000 Sclr_Mext_int_str
0000feee l       .data	00000000 Sclr_Vext_int_str
0000ff48 l       .data	00000000 Hclr_Mext_int_str
0000ffeb l       .data	00000000 Hclr_Vext_int_str
00010046 l       .data	00000000 Vclr_Mext_int_str
00010096 l       .data	00000000 Vclr_Sext_int_str
000100e9 l       .data	00000000 Vclr_Vext_int_str
00010741 l       .data	00000000 trap_diag_curr_xepc_str
00011220 l       .data	00000000 trap_sigptr
0001fc90 g       .data	00000000 end_signature
0001fc90 g       .data	00000000 rvtest_sig_end
00000000 g       .text.init	00000000 rvtest_entry_point
00010c30 g       .data	00000000 begin_signature
00003470 g       .text.rvtest	00000000 rvtest_code_end
00000040 g       .text.rvtest	00000000 rvtest_code_begin
00010c30 g       .data	00000000 rvtest_sig_begin
00008110 g       .data	00000000 rvtest_data_begin
00010c30 g       .data	00000000 rvtest_data_end
00003470 g       .text.rvtest	00000000 cleanup_epilogs
00021000 g       .text.rvmodel	00000000 _end



Disassembly of section .text.init:

00000000 <rvtest_entry_point>:

// Include framework macros
#include "riscv_arch_test.h"

// Set up test environment and declare main entry point
RVTEST_BEGIN
   0:	00020097          	auipc	x1,0x20
   4:	00008093          	addi	x1,x1,0 # 20000 <rvmodel_boot>
   8:	00000013          	addi	x0,x0,0
   c:	00000013          	addi	x0,x0,0
  10:	00000013          	addi	x0,x0,0
  14:	00000013          	addi	x0,x0,0
  18:	00000013          	addi	x0,x0,0
  1c:	00000013          	addi	x0,x0,0
  20:	000080e7          	jalr	x1,0(x1)
  24:	00000013          	addi	x0,x0,0
  28:	00000013          	addi	x0,x0,0
  2c:	00000013          	addi	x0,x0,0
  30:	00000013          	addi	x0,x0,0
  34:	00000013          	addi	x0,x0,0
  38:	00000013          	addi	x0,x0,0
  3c:	00000013          	addi	x0,x0,0

Disassembly of section .text.rvtest:

00000040 <rvtest_code_begin>:
/////////////////////////////////
// cp_rs1
/////////////////////////////////

# Testcase cp_rs1 (Test source rs1 = x0)
  RVTEST_TESTDATA_LOAD_INT(x3, x0) # load rs1: x0 = 0xd19a5feb
      40:	0001a003          	lw	x0,0(x3)
      44:	00418193          	addi	x3,x3,4

00000048 <I_xori_cg_cp_rs1_b0>:
I_xori_cg_cp_rs1_b0:
  xori x11, x0, 1198 # perform operation
      48:	4ae04593          	xori	x11,x0,1198
  # Check if x11 contains the expected result. x2 is the signature ptr, x5 is the link ptr, x4 is a temp reg.
  RVTEST_SIGUPD(x2, x5, x4, x11, I_xori_cg_cp_rs1_b0, I_xori_cg_cp_rs1_b0_str)
      4c:	00012203          	lw	x4,0(x2)
      50:	00b20863          	beq	x4,x11,60 <I_xori_cg_cp_rs1_b0+0x18>
      54:	468032ef          	jal	x5,34bc <failedtest_x5_x4>
      58:	00000048          	.word	0x00000048
      5c:	000086d0          	.word	0x000086d0
      60:	00410113          	addi	x2,x2,4

# Testcase cp_rs1 (Test source rs1 = x1)
  RVTEST_TESTDATA_LOAD_INT(x3, x1) # load rs1: x1 = 0xc067eff3
      64:	0001a083          	lw	x1,0(x3)
      68:	00418193          	addi	x3,x3,4

0000006c <I_xori_cg_cp_rs1_b1>:
I_xori_cg_cp_rs1_b1:
  xori x30, x1, 837 # perform operation
      6c:	3450cf13          	xori	x30,x1,837
  # Check if x30 contains the expected result. x2 is the signature ptr, x5 is the link ptr, x4 is a temp reg.
  RVTEST_SIGUPD(x2, x5, x4, x30, I_xori_cg_cp_rs1_b1, I_xori_cg_cp_rs1_b1_str)
      70:	00012203          	lw	x4,0(x2)
      74:	01e20863          	beq	x4,x30,84 <I_xori_cg_cp_rs1_b1+0x18>
      78:	444032ef          	jal	x5,34bc <failedtest_x5_x4>
      7c:	0000006c          	.word	0x0000006c
      80:	000086fe          	.word	0x000086fe
      84:	00410113          	addi	x2,x2,4

  mv x20, x2 # switch signature pointer register to avoid conflict with test
      88:	00010a13          	addi	x20,x2,0
# Testcase cp_rs1 (Test source rs1 = x2)
  RVTEST_TESTDATA_LOAD_INT(x3, x2) # load rs1: x2 = 0x7fb8cfc1
      8c:	0001a103          	lw	x2,0(x3)
      90:	00418193          	addi	x3,x3,4

00000094 <I_xori_cg_cp_rs1_b2>:
I_xori_cg_cp_rs1_b2:
  xori x18, x2, 1826 # perform operation
      94:	72214913          	xori	x18,x2,1826
  # Check if x18 contains the expected result. x20 is the signature ptr, x5 is the link ptr, x4 is a temp reg.
  RVTEST_SIGUPD(x20, x5, x4, x18, I_xori_cg_cp_rs1_b2, I_xori_cg_cp_rs1_b2_str)
      98:	000a2203          	lw	x4,0(x20)
      9c:	01220863          	beq	x4,x18,ac <I_xori_cg_cp_rs1_b2+0x18>
      a0:	41c032ef          	jal	x5,34bc <failedtest_x5_x4>
      a4:	00000094          	.word	0x00000094
      a8:	0000872c          	.word	0x0000872c
      ac:	004a0a13          	addi	x20,x20,4

  mv x22, x3 # switch data pointer register to avoid conflict with test
      b0:	00018b13          	addi	x22,x3,0
# Testcase cp_rs1 (Test source rs1 = x3)
  RVTEST_TESTDATA_LOAD_INT(x22, x3) # load rs1: x3 = 0x5a0eb16c
      b4:	000b2183          	lw	x3,0(x22)
      b8:	004b0b13          	addi	x22,x22,4

000000bc <I_xori_cg_cp_rs1_b3>:
I_xori_cg_cp_rs1_b3:
  xori x18, x3, -1872 # perform operation
      bc:	8b01c913          	xori	x18,x3,-1872
  # Check if x18 contains the expected result. x20 is the signature ptr, x5 is the link ptr, x4 is a temp reg.
  RVTEST_SIGUPD(x20, x5, x4, x18, I_xori_cg_cp_rs1_b3, I_xori_cg_cp_rs1_b3_str)
      c0:	000a2203          	lw	x4,0(x20)
      c4:	01220863          	beq	x4,x18,d4 <I_xori_cg_cp_rs1_b3+0x18>
      c8:	3f4032ef          	jal	x5,34bc <failedtest_x5_x4>
      cc:	000000bc          	.word	0x000000bc
      d0:	0000875a          	.word	0x0000875a
      d4:	004a0a13          	addi	x20,x20,4

  mv x13, x4 # switch temp register to avoid conflict with test
      d8:	00020693          	addi	x13,x4,0 # 0 <rvtest_entry_point>
  mv x14, x5 # switch link pointer register to avoid conflict with test
      dc:	00028713          	addi	x14,x5,0
# Testcase cp_rs1 (Test source rs1 = x4)
  RVTEST_TESTDATA_LOAD_INT(x22, x4) # load rs1: x4 = 0xbc0e423a
      e0:	000b2203          	lw	x4,0(x22)
      e4:	004b0b13          	addi	x22,x22,4

000000e8 <I_xori_cg_cp_rs1_b4>:
I_xori_cg_cp_rs1_b4:
  xori x26, x4, -614 # perform operation
      e8:	d9a24d13          	xori	x26,x4,-614
  # Check if x26 contains the expected result. x20 is the signature ptr, x14 is the link ptr, x13 is a temp reg.
  RVTEST_SIGUPD(x20, x14, x13, x26, I_xori_cg_cp_rs1_b4, I_xori_cg_cp_rs1_b4_str)
      ec:	000a2683          	lw	x13,0(x20)
      f0:	01a68863          	beq	x13,x26,100 <I_xori_cg_cp_rs1_b4+0x18>
      f4:	4080376f          	jal	x14,34fc <failedtest_x14_x13>
      f8:	000000e8          	.word	0x000000e8
      fc:	00008788          	.word	0x00008788
     100:	004a0a13          	addi	x20,x20,4

# Testcase cp_rs1 (Test source rs1 = x5)
  RVTEST_TESTDATA_LOAD_INT(x22, x5) # load rs1: x5 = 0x030e3a2f
     104:	000b2283          	lw	x5,0(x22)
     108:	004b0b13          	addi	x22,x22,4

0000010c <I_xori_cg_cp_rs1_b5>:
I_xori_cg_cp_rs1_b5:
  xori x2, x5, -891 # perform operation
     10c:	c852c113          	xori	x2,x5,-891
  # Check if x2 contains the expected result. x20 is the signature ptr, x14 is the link ptr, x13 is a temp reg.
  RVTEST_SIGUPD(x20, x14, x13, x2, I_xori_cg_cp_rs1_b5, I_xori_cg_cp_rs1_b5_str)
     110:	000a2683          	lw	x13,0(x20)
     114:	00268863          	beq	x13,x2,124 <I_xori_cg_cp_rs1_b5+0x18>
     118:	3e40376f          	jal	x14,34fc <failedtest_x14_x13>
     11c:	0000010c          	.word	0x0000010c
     120:	000087b6          	.word	0x000087b6
     124:	004a0a13          	addi	x20,x20,4

# Testcase cp_rs1 (Test source rs1 = x6)
  RVTEST_TESTDATA_LOAD_INT(x22, x6) # load rs1: x6 = 0x675c575e
     128:	000b2303          	lw	x6,0(x22)
     12c:	004b0b13          	addi	x22,x22,4

00000130 <I_xori_cg_cp_rs1_b6>:
I_xori_cg_cp_rs1_b6:
  xori x12, x6, -1875 # perform operation
     130:	8ad34613          	xori	x12,x6,-1875
  # Check if x12 contains the expected result. x20 is the signature ptr, x14 is the link ptr, x13 is a temp reg.
  RVTEST_SIGUPD(x20, x14, x13, x12, I_xori_cg_cp_rs1_b6, I_xori_cg_cp_rs1_b6_str)
     134:	000a2683          	lw	x13,0(x20)
     138:	00c68863          	beq	x13,x12,148 <I_xori_cg_cp_rs1_b6+0x18>
     13c:	3c00376f          	jal	x14,34fc <failedtest_x14_x13>
     140:	00000130          	.word	0x00000130
     144:	000087e4          	.word	0x000087e4
     148:	004a0a13          	addi	x20,x20,4

# Testcase cp_rs1 (Test source rs1 = x7)
  RVTEST_TESTDATA_LOAD_INT(x22, x7) # load rs1: x7 = 0x7d4def3c
     14c:	000b2383          	lw	x7,0(x22)
     150:	004b0b13          	addi	x22,x22,4

00000154 <I_xori_cg_cp_rs1_b7>:
I_xori_cg_cp_rs1_b7:
  xori x11, x7, -709 # perform operation
     154:	d3b3c593          	xori	x11,x7,-709
  # Check if x11 contains the expected result. x20 is the signature ptr, x14 is the link ptr, x13 is a temp reg.
  RVTEST_SIGUPD(x20, x14, x13, x11, I_xori_cg_cp_rs1_b7, I_xori_cg_cp_rs1_b7_str)
     158:	000a2683          	lw	x13,0(x20)
     15c:	00b68863          	beq	x13,x11,16c <I_xori_cg_cp_rs1_b7+0x18>
     160:	39c0376f          	jal	x14,34fc <failedtest_x14_x13>
     164:	00000154          	.word	0x00000154
     168:	00008812          	.word	0x00008812
     16c:	004a0a13          	addi	x20,x20,4

# Testcase cp_rs1 (Test source rs1 = x8)
  RVTEST_TESTDATA_LOAD_INT(x22, x8) # load rs1: x8 = 0xc2ece8fb
     170:	000b2403          	lw	x8,0(x22)
     174:	004b0b13          	addi	x22,x22,4

00000178 <I_xori_cg_cp_rs1_b8>:
I_xori_cg_cp_rs1_b8:
  xori x26, x8, -1405 # perform operation
     178:	a8344d13          	xori	x26,x8,-1405
  # Check if x26 contains the expected result. x20 is the signature ptr, x14 is the link ptr, x13 is a temp reg.
  RVTEST_SIGUPD(x20, x14, x13, x26, I_xori_cg_cp_rs1_b8, I_xori_cg_cp_rs1_b8_str)
     17c:	000a2683          	lw	x13,0(x20)
     180:	01a68863          	beq	x13,x26,190 <I_xori_cg_cp_rs1_b8+0x18>
     184:	3780376f          	jal	x14,34fc <failedtest_x14_x13>
     188:	00000178          	.word	0x00000178
     18c:	00008840          	.word	0x00008840
     190:	004a0a13          	addi	x20,x20,4

# Testcase cp_rs1 (Test source rs1 = x9)
  RVTEST_TESTDATA_LOAD_INT(x22, x9) # load rs1: x9 = 0x73f2a267
     194:	000b2483          	lw	x9,0(x22)
     198:	004b0b13          	addi	x22,x22,4

0000019c <I_xori_cg_cp_rs1_b9>:
I_xori_cg_cp_rs1_b9:
  xori x18, x9, 645 # perform operation
     19c:	2854c913          	xori	x18,x9,645
  # Check if x18 contains the expected result. x20 is the signature ptr, x14 is the link ptr, x13 is a temp reg.
  RVTEST_SIGUPD(x20, x14, x13, x18, I_xori_cg_cp_rs1_b9, I_xori_cg_cp_rs1_b9_str)
     1a0:	000a2683          	lw	x13,0(x20)
     1a4:	01268863          	beq	x13,x18,1b4 <I_xori_cg_cp_rs1_b9+0x18>
     1a8:	3540376f          	jal	x14,34fc <failedtest_x14_x13>
     1ac:	0000019c          	.word	0x0000019c
     1b0:	0000886e          	.word	0x0000886e
     1b4:	004a0a13          	addi	x20,x20,4

# Testcase cp_rs1 (Test source rs1 = x10)
  RVTEST_TESTDATA_LOAD_INT(x22, x10) # load rs1: x10 = 0x7075748e
     1b8:	000b2503          	lw	x10,0(x22)
     1bc:	004b0b13          	addi	x22,x22,4

000001c0 <I_xori_cg_cp_rs1_b10>:
I_xori_cg_cp_rs1_b10:
  xori x17, x10, -1857 # perform operation
     1c0:	8bf54893          	xori	x17,x10,-1857
  # Check if x17 contains the expected result. x20 is the signature ptr, x14 is the link ptr, x13 is a temp reg.
  RVTEST_SIGUPD(x20, x14, x13, x17, I_xori_cg_cp_rs1_b10, I_xori_cg_cp_rs1_b10_str)
     1c4:	000a2683          	lw	x13,0(x20)
     1c8:	01168863          	beq	x13,x17,1d8 <I_xori_cg_cp_rs1_b10+0x18>
     1cc:	3300376f          	jal	x14,34fc <failedtest_x14_x13>
     1d0:	000001c0          	.word	0x000001c0
     1d4:	0000889d          	.word	0x0000889d
     1d8:	004a0a13          	addi	x20,x20,4

# Testcase cp_rs1 (Test source rs1 = x11)
  RVTEST_TESTDATA_LOAD_INT(x22, x11) # load rs1: x11 = 0x2f3562a6
     1dc:	000b2583          	lw	x11,0(x22)
     1e0:	004b0b13          	addi	x22,x22,4

000001e4 <I_xori_cg_cp_rs1_b11>:
I_xori_cg_cp_rs1_b11:
  xori x25, x11, -452 # perform operation
     1e4:	e3c5cc93          	xori	x25,x11,-452
  # Check if x25 contains the expected result. x20 is the signature ptr, x14 is the link ptr, x13 is a temp reg.
  RVTEST_SIGUPD(x20, x14, x13, x25, I_xori_cg_cp_rs1_b11, I_xori_cg_cp_rs1_b11_str)
     1e8:	000a2683          	lw	x13,0(x20)
     1ec:	01968863          	beq	x13,x25,1fc <I_xori_cg_cp_rs1_b11+0x18>
     1f0:	30c0376f          	jal	x14,34fc <failedtest_x14_x13>
     1f4:	000001e4          	.word	0x000001e4
     1f8:	000088cd          	.word	0x000088cd
     1fc:	004a0a13          	addi	x20,x20,4

# Testcase cp_rs1 (Test source rs1 = x12)
  RVTEST_TESTDATA_LOAD_INT(x22, x12) # load rs1: x12 = 0x1979739b
     200:	000b2603          	lw	x12,0(x22)
     204:	004b0b13          	addi	x22,x22,4

00000208 <I_xori_cg_cp_rs1_b12>:
I_xori_cg_cp_rs1_b12:
  xori x25, x12, 381 # perform operation
     208:	17d64c93          	xori	x25,x12,381
  # Check if x25 contains the expected result. x20 is the signature ptr, x14 is the link ptr, x13 is a temp reg.
  RVTEST_SIGUPD(x20, x14, x13, x25, I_xori_cg_cp_rs1_b12, I_xori_cg_cp_rs1_b12_str)
     20c:	000a2683          	lw	x13,0(x20)
     210:	01968863          	beq	x13,x25,220 <I_xori_cg_cp_rs1_b12+0x18>
     214:	2e80376f          	jal	x14,34fc <failedtest_x14_x13>
     218:	00000208          	.word	0x00000208
     21c:	000088fd          	.word	0x000088fd
     220:	004a0a13          	addi	x20,x20,4

  mv x7, x13 # switch temp register to avoid conflict with test
     224:	00068393          	addi	x7,x13,0
  mv x8, x14 # switch link pointer register to avoid conflict with test
     228:	00070413          	addi	x8,x14,0
# Testcase cp_rs1 (Test source rs1 = x13)
  RVTEST_TESTDATA_LOAD_INT(x22, x13) # load rs1: x13 = 0xe99d7009
     22c:	000b2683          	lw	x13,0(x22)
     230:	004b0b13          	addi	x22,x22,4

00000234 <I_xori_cg_cp_rs1_b13>:
I_xori_cg_cp_rs1_b13:
  xori x26, x13, -1207 # perform operation
     234:	b496cd13          	xori	x26,x13,-1207
  # Check if x26 contains the expected result. x20 is the signature ptr, x8 is the link ptr, x7 is a temp reg.
  RVTEST_SIGUPD(x20, x8, x7, x26, I_xori_cg_cp_rs1_b13, I_xori_cg_cp_rs1_b13_str)
     238:	000a2383          	lw	x7,0(x20)
     23c:	01a38863          	beq	x7,x26,24c <I_xori_cg_cp_rs1_b13+0x18>
     240:	2940346f          	jal	x8,34d4 <failedtest_x8_x7>
     244:	00000234          	.word	0x00000234
     248:	0000892d          	.word	0x0000892d
     24c:	004a0a13          	addi	x20,x20,4

# Testcase cp_rs1 (Test source rs1 = x14)
  RVTEST_TESTDATA_LOAD_INT(x22, x14) # load rs1: x14 = 0x303da987
     250:	000b2703          	lw	x14,0(x22)
     254:	004b0b13          	addi	x22,x22,4

00000258 <I_xori_cg_cp_rs1_b14>:
I_xori_cg_cp_rs1_b14:
  xori x5, x14, 1089 # perform operation
     258:	44174293          	xori	x5,x14,1089
  # Check if x5 contains the expected result. x20 is the signature ptr, x8 is the link ptr, x7 is a temp reg.
  RVTEST_SIGUPD(x20, x8, x7, x5, I_xori_cg_cp_rs1_b14, I_xori_cg_cp_rs1_b14_str)
     25c:	000a2383          	lw	x7,0(x20)
     260:	00538863          	beq	x7,x5,270 <I_xori_cg_cp_rs1_b14+0x18>
     264:	2700346f          	jal	x8,34d4 <failedtest_x8_x7>
     268:	00000258          	.word	0x00000258
     26c:	0000895d          	.word	0x0000895d
     270:	004a0a13          	addi	x20,x20,4

# Testcase cp_rs1 (Test source rs1 = x15)
  RVTEST_TESTDATA_LOAD_INT(x22, x15) # load rs1: x15 = 0xe579afbf
     274:	000b2783          	lw	x15,0(x22)
     278:	004b0b13          	addi	x22,x22,4

0000027c <I_xori_cg_cp_rs1_b15>:
I_xori_cg_cp_rs1_b15:
  xori x28, x15, 1380 # perform operation
     27c:	5647ce13          	xori	x28,x15,1380
  # Check if x28 contains the expected result. x20 is the signature ptr, x8 is the link ptr, x7 is a temp reg.
  RVTEST_SIGUPD(x20, x8, x7, x28, I_xori_cg_cp_rs1_b15, I_xori_cg_cp_rs1_b15_str)
     280:	000a2383          	lw	x7,0(x20)
     284:	01c38863          	beq	x7,x28,294 <I_xori_cg_cp_rs1_b15+0x18>
     288:	24c0346f          	jal	x8,34d4 <failedtest_x8_x7>
     28c:	0000027c          	.word	0x0000027c
     290:	0000898d          	.word	0x0000898d
     294:	004a0a13          	addi	x20,x20,4

# Testcase cp_rs1 (Test source rs1 = x16)
  RVTEST_TESTDATA_LOAD_INT(x22, x16) # load rs1: x16 = 0xb25d8225
     298:	000b2803          	lw	x16,0(x22)
     29c:	004b0b13          	addi	x22,x22,4

000002a0 <I_xori_cg_cp_rs1_b16>:
I_xori_cg_cp_rs1_b16:
  xori x1, x16, 702 # perform operation
     2a0:	2be84093          	xori	x1,x16,702
  # Check if x1 contains the expected result. x20 is the signature ptr, x8 is the link ptr, x7 is a temp reg.
  RVTEST_SIGUPD(x20, x8, x7, x1, I_xori_cg_cp_rs1_b16, I_xori_cg_cp_rs1_b16_str)
     2a4:	000a2383          	lw	x7,0(x20)
     2a8:	00138863          	beq	x7,x1,2b8 <I_xori_cg_cp_rs1_b16+0x18>
     2ac:	2280346f          	jal	x8,34d4 <failedtest_x8_x7>
     2b0:	000002a0          	.word	0x000002a0
     2b4:	000089bd          	.word	0x000089bd
     2b8:	004a0a13          	addi	x20,x20,4

# Testcase cp_rs1 (Test source rs1 = x17)
  RVTEST_TESTDATA_LOAD_INT(x22, x17) # load rs1: x17 = 0x72793c62
     2bc:	000b2883          	lw	x17,0(x22)
     2c0:	004b0b13          	addi	x22,x22,4

000002c4 <I_xori_cg_cp_rs1_b17>:
I_xori_cg_cp_rs1_b17:
  xori x14, x17, -1658 # perform operation
     2c4:	9868c713          	xori	x14,x17,-1658
  # Check if x14 contains the expected result. x20 is the signature ptr, x8 is the link ptr, x7 is a temp reg.
  RVTEST_SIGUPD(x20, x8, x7, x14, I_xori_cg_cp_rs1_b17, I_xori_cg_cp_rs1_b17_str)
     2c8:	000a2383          	lw	x7,0(x20)
     2cc:	00e38863          	beq	x7,x14,2dc <I_xori_cg_cp_rs1_b17+0x18>
     2d0:	2040346f          	jal	x8,34d4 <failedtest_x8_x7>
     2d4:	000002c4          	.word	0x000002c4
     2d8:	000089ed          	.word	0x000089ed
     2dc:	004a0a13          	addi	x20,x20,4

# Testcase cp_rs1 (Test source rs1 = x18)
  RVTEST_TESTDATA_LOAD_INT(x22, x18) # load rs1: x18 = 0x93d0b513
     2e0:	000b2903          	lw	x18,0(x22)
     2e4:	004b0b13          	addi	x22,x22,4

000002e8 <I_xori_cg_cp_rs1_b18>:
I_xori_cg_cp_rs1_b18:
  xori x30, x18, -766 # perform operation
     2e8:	d0294f13          	xori	x30,x18,-766
  # Check if x30 contains the expected result. x20 is the signature ptr, x8 is the link ptr, x7 is a temp reg.
  RVTEST_SIGUPD(x20, x8, x7, x30, I_xori_cg_cp_rs1_b18, I_xori_cg_cp_rs1_b18_str)
     2ec:	000a2383          	lw	x7,0(x20)
     2f0:	01e38863          	beq	x7,x30,300 <I_xori_cg_cp_rs1_b18+0x18>
     2f4:	1e00346f          	jal	x8,34d4 <failedtest_x8_x7>
     2f8:	000002e8          	.word	0x000002e8
     2fc:	00008a1d          	.word	0x00008a1d
     300:	004a0a13          	addi	x20,x20,4

# Testcase cp_rs1 (Test source rs1 = x19)
  RVTEST_TESTDATA_LOAD_INT(x22, x19) # load rs1: x19 = 0x34a7f4a4
     304:	000b2983          	lw	x19,0(x22)
     308:	004b0b13          	addi	x22,x22,4

0000030c <I_xori_cg_cp_rs1_b19>:
I_xori_cg_cp_rs1_b19:
  xori x2, x19, -1443 # perform operation
     30c:	a5d9c113          	xori	x2,x19,-1443
  # Check if x2 contains the expected result. x20 is the signature ptr, x8 is the link ptr, x7 is a temp reg.
  RVTEST_SIGUPD(x20, x8, x7, x2, I_xori_cg_cp_rs1_b19, I_xori_cg_cp_rs1_b19_str)
     310:	000a2383          	lw	x7,0(x20)
     314:	00238863          	beq	x7,x2,324 <I_xori_cg_cp_rs1_b19+0x18>
     318:	1bc0346f          	jal	x8,34d4 <failedtest_x8_x7>
     31c:	0000030c          	.word	0x0000030c
     320:	00008a4d          	.word	0x00008a4d
     324:	004a0a13          	addi	x20,x20,4

  mv x27, x20 # switch signature pointer register to avoid conflict with test
     328:	000a0d93          	addi	x27,x20,0
# Testcase cp_rs1 (Test source rs1 = x20)
  RVTEST_TESTDATA_LOAD_INT(x22, x20) # load rs1: x20 = 0x39b9521f
     32c:	000b2a03          	lw	x20,0(x22)
     330:	004b0b13          	addi	x22,x22,4

00000334 <I_xori_cg_cp_rs1_b20>:
I_xori_cg_cp_rs1_b20:
  xori x13, x20, 164 # perform operation
     334:	0a4a4693          	xori	x13,x20,164
  # Check if x13 contains the expected result. x27 is the signature ptr, x8 is the link ptr, x7 is a temp reg.
  RVTEST_SIGUPD(x27, x8, x7, x13, I_xori_cg_cp_rs1_b20, I_xori_cg_cp_rs1_b20_str)
     338:	000da383          	lw	x7,0(x27)
     33c:	00d38863          	beq	x7,x13,34c <I_xori_cg_cp_rs1_b20+0x18>
     340:	1940346f          	jal	x8,34d4 <failedtest_x8_x7>
     344:	00000334          	.word	0x00000334
     348:	00008a7d          	.word	0x00008a7d
     34c:	004d8d93          	addi	x27,x27,4

# Testcase cp_rs1 (Test source rs1 = x21)
  RVTEST_TESTDATA_LOAD_INT(x22, x21) # load rs1: x21 = 0x2a2f3732
     350:	000b2a83          	lw	x21,0(x22)
     354:	004b0b13          	addi	x22,x22,4

00000358 <I_xori_cg_cp_rs1_b21>:
I_xori_cg_cp_rs1_b21:
  xori x26, x21, -1128 # perform operation
     358:	b98acd13          	xori	x26,x21,-1128
  # Check if x26 contains the expected result. x27 is the signature ptr, x8 is the link ptr, x7 is a temp reg.
  RVTEST_SIGUPD(x27, x8, x7, x26, I_xori_cg_cp_rs1_b21, I_xori_cg_cp_rs1_b21_str)
     35c:	000da383          	lw	x7,0(x27)
     360:	01a38863          	beq	x7,x26,370 <I_xori_cg_cp_rs1_b21+0x18>
     364:	1700346f          	jal	x8,34d4 <failedtest_x8_x7>
     368:	00000358          	.word	0x00000358
     36c:	00008aad          	.word	0x00008aad
     370:	004d8d93          	addi	x27,x27,4

  mv x31, x22 # switch data pointer register to avoid conflict with test
     374:	000b0f93          	addi	x31,x22,0
# Testcase cp_rs1 (Test source rs1 = x22)
  RVTEST_TESTDATA_LOAD_INT(x31, x22) # load rs1: x22 = 0x93e1b567
     378:	000fab03          	lw	x22,0(x31)
     37c:	004f8f93          	addi	x31,x31,4

00000380 <I_xori_cg_cp_rs1_b22>:
I_xori_cg_cp_rs1_b22:
  xori x13, x22, 1707 # perform operation
     380:	6abb4693          	xori	x13,x22,1707
  # Check if x13 contains the expected result. x27 is the signature ptr, x8 is the link ptr, x7 is a temp reg.
  RVTEST_SIGUPD(x27, x8, x7, x13, I_xori_cg_cp_rs1_b22, I_xori_cg_cp_rs1_b22_str)
     384:	000da383          	lw	x7,0(x27)
     388:	00d38863          	beq	x7,x13,398 <I_xori_cg_cp_rs1_b22+0x18>
     38c:	1480346f          	jal	x8,34d4 <failedtest_x8_x7>
     390:	00000380          	.word	0x00000380
     394:	00008add          	.word	0x00008add
     398:	004d8d93          	addi	x27,x27,4

# Testcase cp_rs1 (Test source rs1 = x23)
  RVTEST_TESTDATA_LOAD_INT(x31, x23) # load rs1: x23 = 0x97eb902f
     39c:	000fab83          	lw	x23,0(x31)
     3a0:	004f8f93          	addi	x31,x31,4

000003a4 <I_xori_cg_cp_rs1_b23>:
I_xori_cg_cp_rs1_b23:
  xori x21, x23, 64 # perform operation
     3a4:	040bca93          	xori	x21,x23,64
  # Check if x21 contains the expected result. x27 is the signature ptr, x8 is the link ptr, x7 is a temp reg.
  RVTEST_SIGUPD(x27, x8, x7, x21, I_xori_cg_cp_rs1_b23, I_xori_cg_cp_rs1_b23_str)
     3a8:	000da383          	lw	x7,0(x27)
     3ac:	01538863          	beq	x7,x21,3bc <I_xori_cg_cp_rs1_b23+0x18>
     3b0:	1240346f          	jal	x8,34d4 <failedtest_x8_x7>
     3b4:	000003a4          	.word	0x000003a4
     3b8:	00008b0d          	.word	0x00008b0d
     3bc:	004d8d93          	addi	x27,x27,4

# Testcase cp_rs1 (Test source rs1 = x24)
  RVTEST_TESTDATA_LOAD_INT(x31, x24) # load rs1: x24 = 0x01dd9369
     3c0:	000fac03          	lw	x24,0(x31)
     3c4:	004f8f93          	addi	x31,x31,4

000003c8 <I_xori_cg_cp_rs1_b24>:
I_xori_cg_cp_rs1_b24:
  xori x23, x24, -2020 # perform operation
     3c8:	81cc4b93          	xori	x23,x24,-2020
  # Check if x23 contains the expected result. x27 is the signature ptr, x8 is the link ptr, x7 is a temp reg.
  RVTEST_SIGUPD(x27, x8, x7, x23, I_xori_cg_cp_rs1_b24, I_xori_cg_cp_rs1_b24_str)
     3cc:	000da383          	lw	x7,0(x27)
     3d0:	01738863          	beq	x7,x23,3e0 <I_xori_cg_cp_rs1_b24+0x18>
     3d4:	1000346f          	jal	x8,34d4 <failedtest_x8_x7>
     3d8:	000003c8          	.word	0x000003c8
     3dc:	00008b3d          	.word	0x00008b3d
     3e0:	004d8d93          	addi	x27,x27,4

# Testcase cp_rs1 (Test source rs1 = x25)
  RVTEST_TESTDATA_LOAD_INT(x31, x25) # load rs1: x25 = 0x3cdbec21
     3e4:	000fac83          	lw	x25,0(x31)
     3e8:	004f8f93          	addi	x31,x31,4

000003ec <I_xori_cg_cp_rs1_b25>:
I_xori_cg_cp_rs1_b25:
  xori x30, x25, 1143 # perform operation
     3ec:	477ccf13          	xori	x30,x25,1143
  # Check if x30 contains the expected result. x27 is the signature ptr, x8 is the link ptr, x7 is a temp reg.
  RVTEST_SIGUPD(x27, x8, x7, x30, I_xori_cg_cp_rs1_b25, I_xori_cg_cp_rs1_b25_str)
     3f0:	000da383          	lw	x7,0(x27)
     3f4:	01e38863          	beq	x7,x30,404 <I_xori_cg_cp_rs1_b25+0x18>
     3f8:	0dc0346f          	jal	x8,34d4 <failedtest_x8_x7>
     3fc:	000003ec          	.word	0x000003ec
     400:	00008b6d          	.word	0x00008b6d
     404:	004d8d93          	addi	x27,x27,4

# Testcase cp_rs1 (Test source rs1 = x26)
  RVTEST_TESTDATA_LOAD_INT(x31, x26) # load rs1: x26 = 0xd3f3a812
     408:	000fad03          	lw	x26,0(x31)
     40c:	004f8f93          	addi	x31,x31,4

00000410 <I_xori_cg_cp_rs1_b26>:
I_xori_cg_cp_rs1_b26:
  xori x29, x26, 236 # perform operation
     410:	0ecd4e93          	xori	x29,x26,236
  # Check if x29 contains the expected result. x27 is the signature ptr, x8 is the link ptr, x7 is a temp reg.
  RVTEST_SIGUPD(x27, x8, x7, x29, I_xori_cg_cp_rs1_b26, I_xori_cg_cp_rs1_b26_str)
     414:	000da383          	lw	x7,0(x27)
     418:	01d38863          	beq	x7,x29,428 <I_xori_cg_cp_rs1_b26+0x18>
     41c:	0b80346f          	jal	x8,34d4 <failedtest_x8_x7>
     420:	00000410          	.word	0x00000410
     424:	00008b9d          	.word	0x00008b9d
     428:	004d8d93          	addi	x27,x27,4

  mv x16, x27 # switch signature pointer register to avoid conflict with test
     42c:	000d8813          	addi	x16,x27,0
# Testcase cp_rs1 (Test source rs1 = x27)
  RVTEST_TESTDATA_LOAD_INT(x31, x27) # load rs1: x27 = 0xff17ecbc
     430:	000fad83          	lw	x27,0(x31)
     434:	004f8f93          	addi	x31,x31,4

00000438 <I_xori_cg_cp_rs1_b27>:
I_xori_cg_cp_rs1_b27:
  xori x24, x27, -942 # perform operation
     438:	c52dcc13          	xori	x24,x27,-942
  # Check if x24 contains the expected result. x16 is the signature ptr, x8 is the link ptr, x7 is a temp reg.
  RVTEST_SIGUPD(x16, x8, x7, x24, I_xori_cg_cp_rs1_b27, I_xori_cg_cp_rs1_b27_str)
     43c:	00082383          	lw	x7,0(x16)
     440:	01838863          	beq	x7,x24,450 <I_xori_cg_cp_rs1_b27+0x18>
     444:	0900346f          	jal	x8,34d4 <failedtest_x8_x7>
     448:	00000438          	.word	0x00000438
     44c:	00008bcd          	.word	0x00008bcd
     450:	00480813          	addi	x16,x16,4

# Testcase cp_rs1 (Test source rs1 = x28)
  RVTEST_TESTDATA_LOAD_INT(x31, x28) # load rs1: x28 = 0xcf6f86f3
     454:	000fae03          	lw	x28,0(x31)
     458:	004f8f93          	addi	x31,x31,4

0000045c <I_xori_cg_cp_rs1_b28>:
I_xori_cg_cp_rs1_b28:
  xori x15, x28, 680 # perform operation
     45c:	2a8e4793          	xori	x15,x28,680
  # Check if x15 contains the expected result. x16 is the signature ptr, x8 is the link ptr, x7 is a temp reg.
  RVTEST_SIGUPD(x16, x8, x7, x15, I_xori_cg_cp_rs1_b28, I_xori_cg_cp_rs1_b28_str)
     460:	00082383          	lw	x7,0(x16)
     464:	00f38863          	beq	x7,x15,474 <I_xori_cg_cp_rs1_b28+0x18>
     468:	06c0346f          	jal	x8,34d4 <failedtest_x8_x7>
     46c:	0000045c          	.word	0x0000045c
     470:	00008bfd          	.word	0x00008bfd
     474:	00480813          	addi	x16,x16,4

# Testcase cp_rs1 (Test source rs1 = x29)
  RVTEST_TESTDATA_LOAD_INT(x31, x29) # load rs1: x29 = 0xdb4c3328
     478:	000fae83          	lw	x29,0(x31)
     47c:	004f8f93          	addi	x31,x31,4

00000480 <I_xori_cg_cp_rs1_b29>:
I_xori_cg_cp_rs1_b29:
  xori x11, x29, 488 # perform operation
     480:	1e8ec593          	xori	x11,x29,488
  # Check if x11 contains the expected result. x16 is the signature ptr, x8 is the link ptr, x7 is a temp reg.
  RVTEST_SIGUPD(x16, x8, x7, x11, I_xori_cg_cp_rs1_b29, I_xori_cg_cp_rs1_b29_str)
     484:	00082383          	lw	x7,0(x16)
     488:	00b38863          	beq	x7,x11,498 <I_xori_cg_cp_rs1_b29+0x18>
     48c:	0480346f          	jal	x8,34d4 <failedtest_x8_x7>
     490:	00000480          	.word	0x00000480
     494:	00008c2d          	.word	0x00008c2d
     498:	00480813          	addi	x16,x16,4

# Testcase cp_rs1 (Test source rs1 = x30)
  RVTEST_TESTDATA_LOAD_INT(x31, x30) # load rs1: x30 = 0x2c405a1a
     49c:	000faf03          	lw	x30,0(x31)
     4a0:	004f8f93          	addi	x31,x31,4

000004a4 <I_xori_cg_cp_rs1_b30>:
I_xori_cg_cp_rs1_b30:
  xori x4, x30, 304 # perform operation
     4a4:	130f4213          	xori	x4,x30,304
  # Check if x4 contains the expected result. x16 is the signature ptr, x8 is the link ptr, x7 is a temp reg.
  RVTEST_SIGUPD(x16, x8, x7, x4, I_xori_cg_cp_rs1_b30, I_xori_cg_cp_rs1_b30_str)
     4a8:	00082383          	lw	x7,0(x16)
     4ac:	00438863          	beq	x7,x4,4bc <I_xori_cg_cp_rs1_b30+0x18>
     4b0:	0240346f          	jal	x8,34d4 <failedtest_x8_x7>
     4b4:	000004a4          	.word	0x000004a4
     4b8:	00008c5d          	.word	0x00008c5d
     4bc:	00480813          	addi	x16,x16,4

  mv x25, x31 # switch data pointer register to avoid conflict with test
     4c0:	000f8c93          	addi	x25,x31,0
# Testcase cp_rs1 (Test source rs1 = x31)
  RVTEST_TESTDATA_LOAD_INT(x25, x31) # load rs1: x31 = 0xe61e303d
     4c4:	000caf83          	lw	x31,0(x25)
     4c8:	004c8c93          	addi	x25,x25,4

000004cc <I_xori_cg_cp_rs1_b31>:
I_xori_cg_cp_rs1_b31:
  xori x3, x31, -610 # perform operation
     4cc:	d9efc193          	xori	x3,x31,-610
  # Check if x3 contains the expected result. x16 is the signature ptr, x8 is the link ptr, x7 is a temp reg.
  RVTEST_SIGUPD(x16, x8, x7, x3, I_xori_cg_cp_rs1_b31, I_xori_cg_cp_rs1_b31_str)
     4d0:	00082383          	lw	x7,0(x16)
     4d4:	00338863          	beq	x7,x3,4e4 <I_xori_cg_cp_rs1_b31+0x18>
     4d8:	7fd0246f          	jal	x8,34d4 <failedtest_x8_x7>
     4dc:	000004cc          	.word	0x000004cc
     4e0:	00008c8d          	.word	0x00008c8d
     4e4:	00480813          	addi	x16,x16,4
/////////////////////////////////
// cp_rd
/////////////////////////////////

# Testcase cp_rd (Test destination rd = x0)
  RVTEST_TESTDATA_LOAD_INT(x25, x1) # load rs1: x1 = 0xa36290b0
     4e8:	000ca083          	lw	x1,0(x25)
     4ec:	004c8c93          	addi	x25,x25,4

000004f0 <I_xori_cg_cp_rd_b0>:
I_xori_cg_cp_rd_b0:
  xori x0, x1, -1663 # perform operation
     4f0:	9810c013          	xori	x0,x1,-1663
  # Check if x0 contains the expected result. x16 is the signature ptr, x8 is the link ptr, x7 is a temp reg.
  RVTEST_SIGUPD(x16, x8, x7, x0, I_xori_cg_cp_rd_b0, I_xori_cg_cp_rd_b0_str)
     4f4:	00082383          	lw	x7,0(x16)
     4f8:	00038863          	beq	x7,x0,508 <I_xori_cg_cp_rd_b0+0x18>
     4fc:	7d90246f          	jal	x8,34d4 <failedtest_x8_x7>
     500:	000004f0          	.word	0x000004f0
     504:	00008cbd          	.word	0x00008cbd
     508:	00480813          	addi	x16,x16,4

# Testcase cp_rd (Test destination rd = x1)
  RVTEST_TESTDATA_LOAD_INT(x25, x12) # load rs1: x12 = 0xbd44e507
     50c:	000ca603          	lw	x12,0(x25)
     510:	004c8c93          	addi	x25,x25,4

00000514 <I_xori_cg_cp_rd_b1>:
I_xori_cg_cp_rd_b1:
  xori x1, x12, 955 # perform operation
     514:	3bb64093          	xori	x1,x12,955
  # Check if x1 contains the expected result. x16 is the signature ptr, x8 is the link ptr, x7 is a temp reg.
  RVTEST_SIGUPD(x16, x8, x7, x1, I_xori_cg_cp_rd_b1, I_xori_cg_cp_rd_b1_str)
     518:	00082383          	lw	x7,0(x16)
     51c:	00138863          	beq	x7,x1,52c <I_xori_cg_cp_rd_b1+0x18>
     520:	7b50246f          	jal	x8,34d4 <failedtest_x8_x7>
     524:	00000514          	.word	0x00000514
     528:	00008ceb          	.word	0x00008ceb
     52c:	00480813          	addi	x16,x16,4

# Testcase cp_rd (Test destination rd = x2)
  RVTEST_TESTDATA_LOAD_INT(x25, x28) # load rs1: x28 = 0x0207a983
     530:	000cae03          	lw	x28,0(x25)
     534:	004c8c93          	addi	x25,x25,4

00000538 <I_xori_cg_cp_rd_b2>:
I_xori_cg_cp_rd_b2:
  xori x2, x28, -940 # perform operation
     538:	c54e4113          	xori	x2,x28,-940
  # Check if x2 contains the expected result. x16 is the signature ptr, x8 is the link ptr, x7 is a temp reg.
  RVTEST_SIGUPD(x16, x8, x7, x2, I_xori_cg_cp_rd_b2, I_xori_cg_cp_rd_b2_str)
     53c:	00082383          	lw	x7,0(x16)
     540:	00238863          	beq	x7,x2,550 <I_xori_cg_cp_rd_b2+0x18>
     544:	7910246f          	jal	x8,34d4 <failedtest_x8_x7>
     548:	00000538          	.word	0x00000538
     54c:	00008d19          	.word	0x00008d19
     550:	00480813          	addi	x16,x16,4

# Testcase cp_rd (Test destination rd = x3)
  RVTEST_TESTDATA_LOAD_INT(x25, x10) # load rs1: x10 = 0xbdc041dc
     554:	000ca503          	lw	x10,0(x25)
     558:	004c8c93          	addi	x25,x25,4

0000055c <I_xori_cg_cp_rd_b3>:
I_xori_cg_cp_rd_b3:
  xori x3, x10, 1537 # perform operation
     55c:	60154193          	xori	x3,x10,1537
  # Check if x3 contains the expected result. x16 is the signature ptr, x8 is the link ptr, x7 is a temp reg.
  RVTEST_SIGUPD(x16, x8, x7, x3, I_xori_cg_cp_rd_b3, I_xori_cg_cp_rd_b3_str)
     560:	00082383          	lw	x7,0(x16)
     564:	00338863          	beq	x7,x3,574 <I_xori_cg_cp_rd_b3+0x18>
     568:	76d0246f          	jal	x8,34d4 <failedtest_x8_x7>
     56c:	0000055c          	.word	0x0000055c
     570:	00008d47          	.word	0x00008d47
     574:	00480813          	addi	x16,x16,4

# Testcase cp_rd (Test destination rd = x4)
  RVTEST_TESTDATA_LOAD_INT(x25, x14) # load rs1: x14 = 0x3156eb47
     578:	000ca703          	lw	x14,0(x25)
     57c:	004c8c93          	addi	x25,x25,4

00000580 <I_xori_cg_cp_rd_b4>:
I_xori_cg_cp_rd_b4:
  xori x4, x14, 1816 # perform operation
     580:	71874213          	xori	x4,x14,1816
  # Check if x4 contains the expected result. x16 is the signature ptr, x8 is the link ptr, x7 is a temp reg.
  RVTEST_SIGUPD(x16, x8, x7, x4, I_xori_cg_cp_rd_b4, I_xori_cg_cp_rd_b4_str)
     584:	00082383          	lw	x7,0(x16)
     588:	00438863          	beq	x7,x4,598 <I_xori_cg_cp_rd_b4+0x18>
     58c:	7490246f          	jal	x8,34d4 <failedtest_x8_x7>
     590:	00000580          	.word	0x00000580
     594:	00008d75          	.word	0x00008d75
     598:	00480813          	addi	x16,x16,4

# Testcase cp_rd (Test destination rd = x5)
  RVTEST_TESTDATA_LOAD_INT(x25, x12) # load rs1: x12 = 0x0393824e
     59c:	000ca603          	lw	x12,0(x25)
     5a0:	004c8c93          	addi	x25,x25,4

000005a4 <I_xori_cg_cp_rd_b5>:
I_xori_cg_cp_rd_b5:
  xori x5, x12, -289 # perform operation
     5a4:	edf64293          	xori	x5,x12,-289
  # Check if x5 contains the expected result. x16 is the signature ptr, x8 is the link ptr, x7 is a temp reg.
  RVTEST_SIGUPD(x16, x8, x7, x5, I_xori_cg_cp_rd_b5, I_xori_cg_cp_rd_b5_str)
     5a8:	00082383          	lw	x7,0(x16)
     5ac:	00538863          	beq	x7,x5,5bc <I_xori_cg_cp_rd_b5+0x18>
     5b0:	7250246f          	jal	x8,34d4 <failedtest_x8_x7>
     5b4:	000005a4          	.word	0x000005a4
     5b8:	00008da3          	.word	0x00008da3
     5bc:	00480813          	addi	x16,x16,4

# Testcase cp_rd (Test destination rd = x6)
  RVTEST_TESTDATA_LOAD_INT(x25, x21) # load rs1: x21 = 0x1a9f1fae
     5c0:	000caa83          	lw	x21,0(x25)
     5c4:	004c8c93          	addi	x25,x25,4

000005c8 <I_xori_cg_cp_rd_b6>:
I_xori_cg_cp_rd_b6:
  xori x6, x21, 414 # perform operation
     5c8:	19eac313          	xori	x6,x21,414
  # Check if x6 contains the expected result. x16 is the signature ptr, x8 is the link ptr, x7 is a temp reg.
  RVTEST_SIGUPD(x16, x8, x7, x6, I_xori_cg_cp_rd_b6, I_xori_cg_cp_rd_b6_str)
     5cc:	00082383          	lw	x7,0(x16)
     5d0:	00638863          	beq	x7,x6,5e0 <I_xori_cg_cp_rd_b6+0x18>
     5d4:	7010246f          	jal	x8,34d4 <failedtest_x8_x7>
     5d8:	000005c8          	.word	0x000005c8
     5dc:	00008dd1          	.word	0x00008dd1
     5e0:	00480813          	addi	x16,x16,4

  mv x13, x7 # switch temp register to avoid conflict with test
     5e4:	00038693          	addi	x13,x7,0
  mv x14, x8 # switch link pointer register to avoid conflict with test
     5e8:	00040713          	addi	x14,x8,0
# Testcase cp_rd (Test destination rd = x7)
  RVTEST_TESTDATA_LOAD_INT(x25, x18) # load rs1: x18 = 0x66128afa
     5ec:	000ca903          	lw	x18,0(x25)
     5f0:	004c8c93          	addi	x25,x25,4

000005f4 <I_xori_cg_cp_rd_b7>:
I_xori_cg_cp_rd_b7:
  xori x7, x18, 761 # perform operation
     5f4:	2f994393          	xori	x7,x18,761
  # Check if x7 contains the expected result. x16 is the signature ptr, x14 is the link ptr, x13 is a temp reg.
  RVTEST_SIGUPD(x16, x14, x13, x7, I_xori_cg_cp_rd_b7, I_xori_cg_cp_rd_b7_str)
     5f8:	00082683          	lw	x13,0(x16)
     5fc:	00768863          	beq	x13,x7,60c <I_xori_cg_cp_rd_b7+0x18>
     600:	6fd0276f          	jal	x14,34fc <failedtest_x14_x13>
     604:	000005f4          	.word	0x000005f4
     608:	00008dff          	.word	0x00008dff
     60c:	00480813          	addi	x16,x16,4

# Testcase cp_rd (Test destination rd = x8)
  RVTEST_TESTDATA_LOAD_INT(x25, x9) # load rs1: x9 = 0xb1cc7ba2
     610:	000ca483          	lw	x9,0(x25)
     614:	004c8c93          	addi	x25,x25,4

00000618 <I_xori_cg_cp_rd_b8>:
I_xori_cg_cp_rd_b8:
  xori x8, x9, -932 # perform operation
     618:	c5c4c413          	xori	x8,x9,-932
  # Check if x8 contains the expected result. x16 is the signature ptr, x14 is the link ptr, x13 is a temp reg.
  RVTEST_SIGUPD(x16, x14, x13, x8, I_xori_cg_cp_rd_b8, I_xori_cg_cp_rd_b8_str)
     61c:	00082683          	lw	x13,0(x16)
     620:	00868863          	beq	x13,x8,630 <I_xori_cg_cp_rd_b8+0x18>
     624:	6d90276f          	jal	x14,34fc <failedtest_x14_x13>
     628:	00000618          	.word	0x00000618
     62c:	00008e2d          	.word	0x00008e2d
     630:	00480813          	addi	x16,x16,4

# Testcase cp_rd (Test destination rd = x9)
  RVTEST_TESTDATA_LOAD_INT(x25, x22) # load rs1: x22 = 0xd4c6fb1b
     634:	000cab03          	lw	x22,0(x25)
     638:	004c8c93          	addi	x25,x25,4

0000063c <I_xori_cg_cp_rd_b9>:
I_xori_cg_cp_rd_b9:
  xori x9, x22, -2037 # perform operation
     63c:	80bb4493          	xori	x9,x22,-2037
  # Check if x9 contains the expected result. x16 is the signature ptr, x14 is the link ptr, x13 is a temp reg.
  RVTEST_SIGUPD(x16, x14, x13, x9, I_xori_cg_cp_rd_b9, I_xori_cg_cp_rd_b9_str)
     640:	00082683          	lw	x13,0(x16)
     644:	00968863          	beq	x13,x9,654 <I_xori_cg_cp_rd_b9+0x18>
     648:	6b50276f          	jal	x14,34fc <failedtest_x14_x13>
     64c:	0000063c          	.word	0x0000063c
     650:	00008e5b          	.word	0x00008e5b
     654:	00480813          	addi	x16,x16,4

# Testcase cp_rd (Test destination rd = x10)
  RVTEST_TESTDATA_LOAD_INT(x25, x6) # load rs1: x6 = 0xe81a64e6
     658:	000ca303          	lw	x6,0(x25)
     65c:	004c8c93          	addi	x25,x25,4

00000660 <I_xori_cg_cp_rd_b10>:
I_xori_cg_cp_rd_b10:
  xori x10, x6, -987 # perform operation
     660:	c2534513          	xori	x10,x6,-987
  # Check if x10 contains the expected result. x16 is the signature ptr, x14 is the link ptr, x13 is a temp reg.
  RVTEST_SIGUPD(x16, x14, x13, x10, I_xori_cg_cp_rd_b10, I_xori_cg_cp_rd_b10_str)
     664:	00082683          	lw	x13,0(x16)
     668:	00a68863          	beq	x13,x10,678 <I_xori_cg_cp_rd_b10+0x18>
     66c:	6910276f          	jal	x14,34fc <failedtest_x14_x13>
     670:	00000660          	.word	0x00000660
     674:	00008e89          	.word	0x00008e89
     678:	00480813          	addi	x16,x16,4

# Testcase cp_rd (Test destination rd = x11)
  RVTEST_TESTDATA_LOAD_INT(x25, x12) # load rs1: x12 = 0x335c8efb
     67c:	000ca603          	lw	x12,0(x25)
     680:	004c8c93          	addi	x25,x25,4

00000684 <I_xori_cg_cp_rd_b11>:
I_xori_cg_cp_rd_b11:
  xori x11, x12, -1279 # perform operation
     684:	b0164593          	xori	x11,x12,-1279
  # Check if x11 contains the expected result. x16 is the signature ptr, x14 is the link ptr, x13 is a temp reg.
  RVTEST_SIGUPD(x16, x14, x13, x11, I_xori_cg_cp_rd_b11, I_xori_cg_cp_rd_b11_str)
     688:	00082683          	lw	x13,0(x16)
     68c:	00b68863          	beq	x13,x11,69c <I_xori_cg_cp_rd_b11+0x18>
     690:	66d0276f          	jal	x14,34fc <failedtest_x14_x13>
     694:	00000684          	.word	0x00000684
     698:	00008eb8          	.word	0x00008eb8
     69c:	00480813          	addi	x16,x16,4

# Testcase cp_rd (Test destination rd = x12)
  RVTEST_TESTDATA_LOAD_INT(x25, x26) # load rs1: x26 = 0xb5721fe0
     6a0:	000cad03          	lw	x26,0(x25)
     6a4:	004c8c93          	addi	x25,x25,4

000006a8 <I_xori_cg_cp_rd_b12>:
I_xori_cg_cp_rd_b12:
  xori x12, x26, 854 # perform operation
     6a8:	356d4613          	xori	x12,x26,854
  # Check if x12 contains the expected result. x16 is the signature ptr, x14 is the link ptr, x13 is a temp reg.
  RVTEST_SIGUPD(x16, x14, x13, x12, I_xori_cg_cp_rd_b12, I_xori_cg_cp_rd_b12_str)
     6ac:	00082683          	lw	x13,0(x16)
     6b0:	00c68863          	beq	x13,x12,6c0 <I_xori_cg_cp_rd_b12+0x18>
     6b4:	6490276f          	jal	x14,34fc <failedtest_x14_x13>
     6b8:	000006a8          	.word	0x000006a8
     6bc:	00008ee7          	.word	0x00008ee7
     6c0:	00480813          	addi	x16,x16,4

  mv x4, x13 # switch temp register to avoid conflict with test
     6c4:	00068213          	addi	x4,x13,0
  mv x5, x14 # switch link pointer register to avoid conflict with test
     6c8:	00070293          	addi	x5,x14,0
# Testcase cp_rd (Test destination rd = x13)
  RVTEST_TESTDATA_LOAD_INT(x25, x29) # load rs1: x29 = 0x1871dd8d
     6cc:	000cae83          	lw	x29,0(x25)
     6d0:	004c8c93          	addi	x25,x25,4

000006d4 <I_xori_cg_cp_rd_b13>:
I_xori_cg_cp_rd_b13:
  xori x13, x29, 1574 # perform operation
     6d4:	626ec693          	xori	x13,x29,1574
  # Check if x13 contains the expected result. x16 is the signature ptr, x5 is the link ptr, x4 is a temp reg.
  RVTEST_SIGUPD(x16, x5, x4, x13, I_xori_cg_cp_rd_b13, I_xori_cg_cp_rd_b13_str)
     6d8:	00082203          	lw	x4,0(x16)
     6dc:	00d20863          	beq	x4,x13,6ec <I_xori_cg_cp_rd_b13+0x18>
     6e0:	5dd022ef          	jal	x5,34bc <failedtest_x5_x4>
     6e4:	000006d4          	.word	0x000006d4
     6e8:	00008f16          	.word	0x00008f16
     6ec:	00480813          	addi	x16,x16,4

# Testcase cp_rd (Test destination rd = x14)
  RVTEST_TESTDATA_LOAD_INT(x25, x9) # load rs1: x9 = 0x4528ec7e
     6f0:	000ca483          	lw	x9,0(x25)
     6f4:	004c8c93          	addi	x25,x25,4

000006f8 <I_xori_cg_cp_rd_b14>:
I_xori_cg_cp_rd_b14:
  xori x14, x9, 1296 # perform operation
     6f8:	5104c713          	xori	x14,x9,1296
  # Check if x14 contains the expected result. x16 is the signature ptr, x5 is the link ptr, x4 is a temp reg.
  RVTEST_SIGUPD(x16, x5, x4, x14, I_xori_cg_cp_rd_b14, I_xori_cg_cp_rd_b14_str)
     6fc:	00082203          	lw	x4,0(x16)
     700:	00e20863          	beq	x4,x14,710 <I_xori_cg_cp_rd_b14+0x18>
     704:	5b9022ef          	jal	x5,34bc <failedtest_x5_x4>
     708:	000006f8          	.word	0x000006f8
     70c:	00008f45          	.word	0x00008f45
     710:	00480813          	addi	x16,x16,4

# Testcase cp_rd (Test destination rd = x15)
  RVTEST_TESTDATA_LOAD_INT(x25, x28) # load rs1: x28 = 0x6094cb2d
     714:	000cae03          	lw	x28,0(x25)
     718:	004c8c93          	addi	x25,x25,4

0000071c <I_xori_cg_cp_rd_b15>:
I_xori_cg_cp_rd_b15:
  xori x15, x28, 1869 # perform operation
     71c:	74de4793          	xori	x15,x28,1869
  # Check if x15 contains the expected result. x16 is the signature ptr, x5 is the link ptr, x4 is a temp reg.
  RVTEST_SIGUPD(x16, x5, x4, x15, I_xori_cg_cp_rd_b15, I_xori_cg_cp_rd_b15_str)
     720:	00082203          	lw	x4,0(x16)
     724:	00f20863          	beq	x4,x15,734 <I_xori_cg_cp_rd_b15+0x18>
     728:	595022ef          	jal	x5,34bc <failedtest_x5_x4>
     72c:	0000071c          	.word	0x0000071c
     730:	00008f74          	.word	0x00008f74
     734:	00480813          	addi	x16,x16,4

  mv x12, x16 # switch signature pointer register to avoid conflict with test
     738:	00080613          	addi	x12,x16,0
# Testcase cp_rd (Test destination rd = x16)
  RVTEST_TESTDATA_LOAD_INT(x25, x7) # load rs1: x7 = 0xc750f40f
     73c:	000ca383          	lw	x7,0(x25)
     740:	004c8c93          	addi	x25,x25,4

00000744 <I_xori_cg_cp_rd_b16>:
I_xori_cg_cp_rd_b16:
  xori x16, x7, 1754 # perform operation
     744:	6da3c813          	xori	x16,x7,1754
  # Check if x16 contains the expected result. x12 is the signature ptr, x5 is the link ptr, x4 is a temp reg.
  RVTEST_SIGUPD(x12, x5, x4, x16, I_xori_cg_cp_rd_b16, I_xori_cg_cp_rd_b16_str)
     748:	00062203          	lw	x4,0(x12)
     74c:	01020863          	beq	x4,x16,75c <I_xori_cg_cp_rd_b16+0x18>
     750:	56d022ef          	jal	x5,34bc <failedtest_x5_x4>
     754:	00000744          	.word	0x00000744
     758:	00008fa3          	.word	0x00008fa3
     75c:	00460613          	addi	x12,x12,4

# Testcase cp_rd (Test destination rd = x17)
  RVTEST_TESTDATA_LOAD_INT(x25, x31) # load rs1: x31 = 0x6782d82c
     760:	000caf83          	lw	x31,0(x25)
     764:	004c8c93          	addi	x25,x25,4

00000768 <I_xori_cg_cp_rd_b17>:
I_xori_cg_cp_rd_b17:
  xori x17, x31, -238 # perform operation
     768:	f12fc893          	xori	x17,x31,-238
  # Check if x17 contains the expected result. x12 is the signature ptr, x5 is the link ptr, x4 is a temp reg.
  RVTEST_SIGUPD(x12, x5, x4, x17, I_xori_cg_cp_rd_b17, I_xori_cg_cp_rd_b17_str)
     76c:	00062203          	lw	x4,0(x12)
     770:	01120863          	beq	x4,x17,780 <I_xori_cg_cp_rd_b17+0x18>
     774:	549022ef          	jal	x5,34bc <failedtest_x5_x4>
     778:	00000768          	.word	0x00000768
     77c:	00008fd2          	.word	0x00008fd2
     780:	00460613          	addi	x12,x12,4

# Testcase cp_rd (Test destination rd = x18)
  RVTEST_TESTDATA_LOAD_INT(x25, x21) # load rs1: x21 = 0x48986100
     784:	000caa83          	lw	x21,0(x25)
     788:	004c8c93          	addi	x25,x25,4

0000078c <I_xori_cg_cp_rd_b18>:
I_xori_cg_cp_rd_b18:
  xori x18, x21, -573 # perform operation
     78c:	dc3ac913          	xori	x18,x21,-573
  # Check if x18 contains the expected result. x12 is the signature ptr, x5 is the link ptr, x4 is a temp reg.
  RVTEST_SIGUPD(x12, x5, x4, x18, I_xori_cg_cp_rd_b18, I_xori_cg_cp_rd_b18_str)
     790:	00062203          	lw	x4,0(x12)
     794:	01220863          	beq	x4,x18,7a4 <I_xori_cg_cp_rd_b18+0x18>
     798:	525022ef          	jal	x5,34bc <failedtest_x5_x4>
     79c:	0000078c          	.word	0x0000078c
     7a0:	00009001          	.word	0x00009001
     7a4:	00460613          	addi	x12,x12,4

# Testcase cp_rd (Test destination rd = x19)
  RVTEST_TESTDATA_LOAD_INT(x25, x27) # load rs1: x27 = 0x9163f42f
     7a8:	000cad83          	lw	x27,0(x25)
     7ac:	004c8c93          	addi	x25,x25,4

000007b0 <I_xori_cg_cp_rd_b19>:
I_xori_cg_cp_rd_b19:
  xori x19, x27, 258 # perform operation
     7b0:	102dc993          	xori	x19,x27,258
  # Check if x19 contains the expected result. x12 is the signature ptr, x5 is the link ptr, x4 is a temp reg.
  RVTEST_SIGUPD(x12, x5, x4, x19, I_xori_cg_cp_rd_b19, I_xori_cg_cp_rd_b19_str)
     7b4:	00062203          	lw	x4,0(x12)
     7b8:	01320863          	beq	x4,x19,7c8 <I_xori_cg_cp_rd_b19+0x18>
     7bc:	501022ef          	jal	x5,34bc <failedtest_x5_x4>
     7c0:	000007b0          	.word	0x000007b0
     7c4:	00009030          	.word	0x00009030
     7c8:	00460613          	addi	x12,x12,4

# Testcase cp_rd (Test destination rd = x20)
  RVTEST_TESTDATA_LOAD_INT(x25, x30) # load rs1: x30 = 0xf5df1104
     7cc:	000caf03          	lw	x30,0(x25)
     7d0:	004c8c93          	addi	x25,x25,4

000007d4 <I_xori_cg_cp_rd_b20>:
I_xori_cg_cp_rd_b20:
  xori x20, x30, 1536 # perform operation
     7d4:	600f4a13          	xori	x20,x30,1536
  # Check if x20 contains the expected result. x12 is the signature ptr, x5 is the link ptr, x4 is a temp reg.
  RVTEST_SIGUPD(x12, x5, x4, x20, I_xori_cg_cp_rd_b20, I_xori_cg_cp_rd_b20_str)
     7d8:	00062203          	lw	x4,0(x12)
     7dc:	01420863          	beq	x4,x20,7ec <I_xori_cg_cp_rd_b20+0x18>
     7e0:	4dd022ef          	jal	x5,34bc <failedtest_x5_x4>
     7e4:	000007d4          	.word	0x000007d4
     7e8:	0000905f          	.word	0x0000905f
     7ec:	00460613          	addi	x12,x12,4

# Testcase cp_rd (Test destination rd = x21)
  RVTEST_TESTDATA_LOAD_INT(x25, x0) # load rs1: x0 = 0x9c1e59a3
     7f0:	000ca003          	lw	x0,0(x25)
     7f4:	004c8c93          	addi	x25,x25,4

000007f8 <I_xori_cg_cp_rd_b21>:
I_xori_cg_cp_rd_b21:
  xori x21, x0, 735 # perform operation
     7f8:	2df04a93          	xori	x21,x0,735
  # Check if x21 contains the expected result. x12 is the signature ptr, x5 is the link ptr, x4 is a temp reg.
  RVTEST_SIGUPD(x12, x5, x4, x21, I_xori_cg_cp_rd_b21, I_xori_cg_cp_rd_b21_str)
     7fc:	00062203          	lw	x4,0(x12)
     800:	01520863          	beq	x4,x21,810 <I_xori_cg_cp_rd_b21+0x18>
     804:	4b9022ef          	jal	x5,34bc <failedtest_x5_x4>
     808:	000007f8          	.word	0x000007f8
     80c:	0000908e          	.word	0x0000908e
     810:	00460613          	addi	x12,x12,4

# Testcase cp_rd (Test destination rd = x22)
  RVTEST_TESTDATA_LOAD_INT(x25, x13) # load rs1: x13 = 0x1deebb3d
     814:	000ca683          	lw	x13,0(x25)
     818:	004c8c93          	addi	x25,x25,4

0000081c <I_xori_cg_cp_rd_b22>:
I_xori_cg_cp_rd_b22:
  xori x22, x13, 291 # perform operation
     81c:	1236cb13          	xori	x22,x13,291
  # Check if x22 contains the expected result. x12 is the signature ptr, x5 is the link ptr, x4 is a temp reg.
  RVTEST_SIGUPD(x12, x5, x4, x22, I_xori_cg_cp_rd_b22, I_xori_cg_cp_rd_b22_str)
     820:	00062203          	lw	x4,0(x12)
     824:	01620863          	beq	x4,x22,834 <I_xori_cg_cp_rd_b22+0x18>
     828:	495022ef          	jal	x5,34bc <failedtest_x5_x4>
     82c:	0000081c          	.word	0x0000081c
     830:	000090bd          	.word	0x000090bd
     834:	00460613          	addi	x12,x12,4

# Testcase cp_rd (Test destination rd = x23)
  RVTEST_TESTDATA_LOAD_INT(x25, x27) # load rs1: x27 = 0x28f0496a
     838:	000cad83          	lw	x27,0(x25)
     83c:	004c8c93          	addi	x25,x25,4

00000840 <I_xori_cg_cp_rd_b23>:
I_xori_cg_cp_rd_b23:
  xori x23, x27, -142 # perform operation
     840:	f72dcb93          	xori	x23,x27,-142
  # Check if x23 contains the expected result. x12 is the signature ptr, x5 is the link ptr, x4 is a temp reg.
  RVTEST_SIGUPD(x12, x5, x4, x23, I_xori_cg_cp_rd_b23, I_xori_cg_cp_rd_b23_str)
     844:	00062203          	lw	x4,0(x12)
     848:	01720863          	beq	x4,x23,858 <I_xori_cg_cp_rd_b23+0x18>
     84c:	471022ef          	jal	x5,34bc <failedtest_x5_x4>
     850:	00000840          	.word	0x00000840
     854:	000090ec          	.word	0x000090ec
     858:	00460613          	addi	x12,x12,4

# Testcase cp_rd (Test destination rd = x24)
  RVTEST_TESTDATA_LOAD_INT(x25, x6) # load rs1: x6 = 0xf32beb89
     85c:	000ca303          	lw	x6,0(x25)
     860:	004c8c93          	addi	x25,x25,4

00000864 <I_xori_cg_cp_rd_b24>:
I_xori_cg_cp_rd_b24:
  xori x24, x6, -1699 # perform operation
     864:	95d34c13          	xori	x24,x6,-1699
  # Check if x24 contains the expected result. x12 is the signature ptr, x5 is the link ptr, x4 is a temp reg.
  RVTEST_SIGUPD(x12, x5, x4, x24, I_xori_cg_cp_rd_b24, I_xori_cg_cp_rd_b24_str)
     868:	00062203          	lw	x4,0(x12)
     86c:	01820863          	beq	x4,x24,87c <I_xori_cg_cp_rd_b24+0x18>
     870:	44d022ef          	jal	x5,34bc <failedtest_x5_x4>
     874:	00000864          	.word	0x00000864
     878:	0000911b          	.word	0x0000911b
     87c:	00460613          	addi	x12,x12,4

  mv x24, x25 # switch data pointer register to avoid conflict with test
     880:	000c8c13          	addi	x24,x25,0
# Testcase cp_rd (Test destination rd = x25)
  RVTEST_TESTDATA_LOAD_INT(x24, x14) # load rs1: x14 = 0x4f902be0
     884:	000c2703          	lw	x14,0(x24)
     888:	004c0c13          	addi	x24,x24,4

0000088c <I_xori_cg_cp_rd_b25>:
I_xori_cg_cp_rd_b25:
  xori x25, x14, -1074 # perform operation
     88c:	bce74c93          	xori	x25,x14,-1074
  # Check if x25 contains the expected result. x12 is the signature ptr, x5 is the link ptr, x4 is a temp reg.
  RVTEST_SIGUPD(x12, x5, x4, x25, I_xori_cg_cp_rd_b25, I_xori_cg_cp_rd_b25_str)
     890:	00062203          	lw	x4,0(x12)
     894:	01920863          	beq	x4,x25,8a4 <I_xori_cg_cp_rd_b25+0x18>
     898:	425022ef          	jal	x5,34bc <failedtest_x5_x4>
     89c:	0000088c          	.word	0x0000088c
     8a0:	0000914a          	.word	0x0000914a
     8a4:	00460613          	addi	x12,x12,4

# Testcase cp_rd (Test destination rd = x26)
  RVTEST_TESTDATA_LOAD_INT(x24, x8) # load rs1: x8 = 0x8bba8ea8
     8a8:	000c2403          	lw	x8,0(x24)
     8ac:	004c0c13          	addi	x24,x24,4

000008b0 <I_xori_cg_cp_rd_b26>:
I_xori_cg_cp_rd_b26:
  xori x26, x8, 1981 # perform operation
     8b0:	7bd44d13          	xori	x26,x8,1981
  # Check if x26 contains the expected result. x12 is the signature ptr, x5 is the link ptr, x4 is a temp reg.
  RVTEST_SIGUPD(x12, x5, x4, x26, I_xori_cg_cp_rd_b26, I_xori_cg_cp_rd_b26_str)
     8b4:	00062203          	lw	x4,0(x12)
     8b8:	01a20863          	beq	x4,x26,8c8 <I_xori_cg_cp_rd_b26+0x18>
     8bc:	401022ef          	jal	x5,34bc <failedtest_x5_x4>
     8c0:	000008b0          	.word	0x000008b0
     8c4:	00009179          	.word	0x00009179
     8c8:	00460613          	addi	x12,x12,4

# Testcase cp_rd (Test destination rd = x27)
  RVTEST_TESTDATA_LOAD_INT(x24, x18) # load rs1: x18 = 0x904148d7
     8cc:	000c2903          	lw	x18,0(x24)
     8d0:	004c0c13          	addi	x24,x24,4

000008d4 <I_xori_cg_cp_rd_b27>:
I_xori_cg_cp_rd_b27:
  xori x27, x18, -1503 # perform operation
     8d4:	a2194d93          	xori	x27,x18,-1503
  # Check if x27 contains the expected result. x12 is the signature ptr, x5 is the link ptr, x4 is a temp reg.
  RVTEST_SIGUPD(x12, x5, x4, x27, I_xori_cg_cp_rd_b27, I_xori_cg_cp_rd_b27_str)
     8d8:	00062203          	lw	x4,0(x12)
     8dc:	01b20863          	beq	x4,x27,8ec <I_xori_cg_cp_rd_b27+0x18>
     8e0:	3dd022ef          	jal	x5,34bc <failedtest_x5_x4>
     8e4:	000008d4          	.word	0x000008d4
     8e8:	000091a8          	.word	0x000091a8
     8ec:	00460613          	addi	x12,x12,4

# Testcase cp_rd (Test destination rd = x28)
  RVTEST_TESTDATA_LOAD_INT(x24, x8) # load rs1: x8 = 0x7a6fa4be
     8f0:	000c2403          	lw	x8,0(x24)
     8f4:	004c0c13          	addi	x24,x24,4

000008f8 <I_xori_cg_cp_rd_b28>:
I_xori_cg_cp_rd_b28:
  xori x28, x8, -259 # perform operation
     8f8:	efd44e13          	xori	x28,x8,-259
  # Check if x28 contains the expected result. x12 is the signature ptr, x5 is the link ptr, x4 is a temp reg.
  RVTEST_SIGUPD(x12, x5, x4, x28, I_xori_cg_cp_rd_b28, I_xori_cg_cp_rd_b28_str)
     8fc:	00062203          	lw	x4,0(x12)
     900:	01c20863          	beq	x4,x28,910 <I_xori_cg_cp_rd_b28+0x18>
     904:	3b9022ef          	jal	x5,34bc <failedtest_x5_x4>
     908:	000008f8          	.word	0x000008f8
     90c:	000091d7          	.word	0x000091d7
     910:	00460613          	addi	x12,x12,4

# Testcase cp_rd (Test destination rd = x29)
  RVTEST_TESTDATA_LOAD_INT(x24, x0) # load rs1: x0 = 0x8d14f147
     914:	000c2003          	lw	x0,0(x24)
     918:	004c0c13          	addi	x24,x24,4

0000091c <I_xori_cg_cp_rd_b29>:
I_xori_cg_cp_rd_b29:
  xori x29, x0, -1316 # perform operation
     91c:	adc04e93          	xori	x29,x0,-1316
  # Check if x29 contains the expected result. x12 is the signature ptr, x5 is the link ptr, x4 is a temp reg.
  RVTEST_SIGUPD(x12, x5, x4, x29, I_xori_cg_cp_rd_b29, I_xori_cg_cp_rd_b29_str)
     920:	00062203          	lw	x4,0(x12)
     924:	01d20863          	beq	x4,x29,934 <I_xori_cg_cp_rd_b29+0x18>
     928:	395022ef          	jal	x5,34bc <failedtest_x5_x4>
     92c:	0000091c          	.word	0x0000091c
     930:	00009206          	.word	0x00009206
     934:	00460613          	addi	x12,x12,4

# Testcase cp_rd (Test destination rd = x30)
  RVTEST_TESTDATA_LOAD_INT(x24, x19) # load rs1: x19 = 0x00fbc76d
     938:	000c2983          	lw	x19,0(x24)
     93c:	004c0c13          	addi	x24,x24,4

00000940 <I_xori_cg_cp_rd_b30>:
I_xori_cg_cp_rd_b30:
  xori x30, x19, 469 # perform operation
     940:	1d59cf13          	xori	x30,x19,469
  # Check if x30 contains the expected result. x12 is the signature ptr, x5 is the link ptr, x4 is a temp reg.
  RVTEST_SIGUPD(x12, x5, x4, x30, I_xori_cg_cp_rd_b30, I_xori_cg_cp_rd_b30_str)
     944:	00062203          	lw	x4,0(x12)
     948:	01e20863          	beq	x4,x30,958 <I_xori_cg_cp_rd_b30+0x18>
     94c:	371022ef          	jal	x5,34bc <failedtest_x5_x4>
     950:	00000940          	.word	0x00000940
     954:	00009235          	.word	0x00009235
     958:	00460613          	addi	x12,x12,4

# Testcase cp_rd (Test destination rd = x31)
  RVTEST_TESTDATA_LOAD_INT(x24, x2) # load rs1: x2 = 0xa0ee7b65
     95c:	000c2103          	lw	x2,0(x24)
     960:	004c0c13          	addi	x24,x24,4

00000964 <I_xori_cg_cp_rd_b31>:
I_xori_cg_cp_rd_b31:
  xori x31, x2, 1802 # perform operation
     964:	70a14f93          	xori	x31,x2,1802
  # Check if x31 contains the expected result. x12 is the signature ptr, x5 is the link ptr, x4 is a temp reg.
  RVTEST_SIGUPD(x12, x5, x4, x31, I_xori_cg_cp_rd_b31, I_xori_cg_cp_rd_b31_str)
     968:	00062203          	lw	x4,0(x12)
     96c:	01f20863          	beq	x4,x31,97c <I_xori_cg_cp_rd_b31+0x18>
     970:	34d022ef          	jal	x5,34bc <failedtest_x5_x4>
     974:	00000964          	.word	0x00000964
     978:	00009264          	.word	0x00009264
     97c:	00460613          	addi	x12,x12,4
/////////////////////////////////
// cp_rs1_edges
/////////////////////////////////

# Testcase cp_rs1_edges (Test source rs1 value = 0x00000000)
  RVTEST_TESTDATA_LOAD_INT(x24, x10) # load rs1: x10 = 0x00000000
     980:	000c2503          	lw	x10,0(x24)
     984:	004c0c13          	addi	x24,x24,4

00000988 <I_xori_cg_cp_rs1_edges_0x0>:
I_xori_cg_cp_rs1_edges_0x0:
  xori x21, x10, 1631 # perform operation
     988:	65f54a93          	xori	x21,x10,1631
  # Check if x21 contains the expected result. x12 is the signature ptr, x5 is the link ptr, x4 is a temp reg.
  RVTEST_SIGUPD(x12, x5, x4, x21, I_xori_cg_cp_rs1_edges_0x0, I_xori_cg_cp_rs1_edges_0x0_str)
     98c:	00062203          	lw	x4,0(x12)
     990:	01520863          	beq	x4,x21,9a0 <I_xori_cg_cp_rs1_edges_0x0+0x18>
     994:	329022ef          	jal	x5,34bc <failedtest_x5_x4>
     998:	00000988          	.word	0x00000988
     99c:	00009293          	.word	0x00009293
     9a0:	00460613          	addi	x12,x12,4

# Testcase cp_rs1_edges (Test source rs1 value = 0x00000001)
  RVTEST_TESTDATA_LOAD_INT(x24, x21) # load rs1: x21 = 0x00000001
     9a4:	000c2a83          	lw	x21,0(x24)
     9a8:	004c0c13          	addi	x24,x24,4

000009ac <I_xori_cg_cp_rs1_edges_0x1>:
I_xori_cg_cp_rs1_edges_0x1:
  xori x9, x21, 390 # perform operation
     9ac:	186ac493          	xori	x9,x21,390
  # Check if x9 contains the expected result. x12 is the signature ptr, x5 is the link ptr, x4 is a temp reg.
  RVTEST_SIGUPD(x12, x5, x4, x9, I_xori_cg_cp_rs1_edges_0x1, I_xori_cg_cp_rs1_edges_0x1_str)
     9b0:	00062203          	lw	x4,0(x12)
     9b4:	00920863          	beq	x4,x9,9c4 <I_xori_cg_cp_rs1_edges_0x1+0x18>
     9b8:	305022ef          	jal	x5,34bc <failedtest_x5_x4>
     9bc:	000009ac          	.word	0x000009ac
     9c0:	000092c9          	.word	0x000092c9
     9c4:	00460613          	addi	x12,x12,4

# Testcase cp_rs1_edges (Test source rs1 value = 0x00000002)
  RVTEST_TESTDATA_LOAD_INT(x24, x7) # load rs1: x7 = 0x00000002
     9c8:	000c2383          	lw	x7,0(x24)
     9cc:	004c0c13          	addi	x24,x24,4

000009d0 <I_xori_cg_cp_rs1_edges_0x2>:
I_xori_cg_cp_rs1_edges_0x2:
  xori x28, x7, 382 # perform operation
     9d0:	17e3ce13          	xori	x28,x7,382
  # Check if x28 contains the expected result. x12 is the signature ptr, x5 is the link ptr, x4 is a temp reg.
  RVTEST_SIGUPD(x12, x5, x4, x28, I_xori_cg_cp_rs1_edges_0x2, I_xori_cg_cp_rs1_edges_0x2_str)
     9d4:	00062203          	lw	x4,0(x12)
     9d8:	01c20863          	beq	x4,x28,9e8 <I_xori_cg_cp_rs1_edges_0x2+0x18>
     9dc:	2e1022ef          	jal	x5,34bc <failedtest_x5_x4>
     9e0:	000009d0          	.word	0x000009d0
     9e4:	000092ff          	.word	0x000092ff
     9e8:	00460613          	addi	x12,x12,4

# Testcase cp_rs1_edges (Test source rs1 value = 0x80000000)
  RVTEST_TESTDATA_LOAD_INT(x24, x19) # load rs1: x19 = 0x80000000
     9ec:	000c2983          	lw	x19,0(x24)
     9f0:	004c0c13          	addi	x24,x24,4

000009f4 <I_xori_cg_cp_rs1_edges_0x80000000>:
I_xori_cg_cp_rs1_edges_0x80000000:
  xori x30, x19, 1671 # perform operation
     9f4:	6879cf13          	xori	x30,x19,1671
  # Check if x30 contains the expected result. x12 is the signature ptr, x5 is the link ptr, x4 is a temp reg.
  RVTEST_SIGUPD(x12, x5, x4, x30, I_xori_cg_cp_rs1_edges_0x80000000, I_xori_cg_cp_rs1_edges_0x80000000_str)
     9f8:	00062203          	lw	x4,0(x12)
     9fc:	01e20863          	beq	x4,x30,a0c <I_xori_cg_cp_rs1_edges_0x80000000+0x18>
     a00:	2bd022ef          	jal	x5,34bc <failedtest_x5_x4>
     a04:	000009f4          	.word	0x000009f4
     a08:	00009335          	.word	0x00009335
     a0c:	00460613          	addi	x12,x12,4

# Testcase cp_rs1_edges (Test source rs1 value = 0x80000001)
  RVTEST_TESTDATA_LOAD_INT(x24, x17) # load rs1: x17 = 0x80000001
     a10:	000c2883          	lw	x17,0(x24)
     a14:	004c0c13          	addi	x24,x24,4

00000a18 <I_xori_cg_cp_rs1_edges_0x80000001>:
I_xori_cg_cp_rs1_edges_0x80000001:
  xori x20, x17, 1674 # perform operation
     a18:	68a8ca13          	xori	x20,x17,1674
  # Check if x20 contains the expected result. x12 is the signature ptr, x5 is the link ptr, x4 is a temp reg.
  RVTEST_SIGUPD(x12, x5, x4, x20, I_xori_cg_cp_rs1_edges_0x80000001, I_xori_cg_cp_rs1_edges_0x80000001_str)
     a1c:	00062203          	lw	x4,0(x12)
     a20:	01420863          	beq	x4,x20,a30 <I_xori_cg_cp_rs1_edges_0x80000001+0x18>
     a24:	299022ef          	jal	x5,34bc <failedtest_x5_x4>
     a28:	00000a18          	.word	0x00000a18
     a2c:	00009372          	.word	0x00009372
     a30:	00460613          	addi	x12,x12,4

# Testcase cp_rs1_edges (Test source rs1 value = 0x7fffffff)
  RVTEST_TESTDATA_LOAD_INT(x24, x16) # load rs1: x16 = 0x7fffffff
     a34:	000c2803          	lw	x16,0(x24)
     a38:	004c0c13          	addi	x24,x24,4

00000a3c <I_xori_cg_cp_rs1_edges_0x7fffffff>:
I_xori_cg_cp_rs1_edges_0x7fffffff:
  xori x22, x16, -1022 # perform operation
     a3c:	c0284b13          	xori	x22,x16,-1022
  # Check if x22 contains the expected result. x12 is the signature ptr, x5 is the link ptr, x4 is a temp reg.
  RVTEST_SIGUPD(x12, x5, x4, x22, I_xori_cg_cp_rs1_edges_0x7fffffff, I_xori_cg_cp_rs1_edges_0x7fffffff_str)
     a40:	00062203          	lw	x4,0(x12)
     a44:	01620863          	beq	x4,x22,a54 <I_xori_cg_cp_rs1_edges_0x7fffffff+0x18>
     a48:	275022ef          	jal	x5,34bc <failedtest_x5_x4>
     a4c:	00000a3c          	.word	0x00000a3c
     a50:	000093af          	.word	0x000093af
     a54:	00460613          	addi	x12,x12,4

# Testcase cp_rs1_edges (Test source rs1 value = 0x7ffffffe)
  RVTEST_TESTDATA_LOAD_INT(x24, x19) # load rs1: x19 = 0x7ffffffe
     a58:	000c2983          	lw	x19,0(x24)
     a5c:	004c0c13          	addi	x24,x24,4

00000a60 <I_xori_cg_cp_rs1_edges_0x7ffffffe>:
I_xori_cg_cp_rs1_edges_0x7ffffffe:
  xori x1, x19, -735 # perform operation
     a60:	d219c093          	xori	x1,x19,-735
  # Check if x1 contains the expected result. x12 is the signature ptr, x5 is the link ptr, x4 is a temp reg.
  RVTEST_SIGUPD(x12, x5, x4, x1, I_xori_cg_cp_rs1_edges_0x7ffffffe, I_xori_cg_cp_rs1_edges_0x7ffffffe_str)
     a64:	00062203          	lw	x4,0(x12)
     a68:	00120863          	beq	x4,x1,a78 <I_xori_cg_cp_rs1_edges_0x7ffffffe+0x18>
     a6c:	251022ef          	jal	x5,34bc <failedtest_x5_x4>
     a70:	00000a60          	.word	0x00000a60
     a74:	000093ec          	.word	0x000093ec
     a78:	00460613          	addi	x12,x12,4

# Testcase cp_rs1_edges (Test source rs1 value = 0xffffffff)
  RVTEST_TESTDATA_LOAD_INT(x24, x21) # load rs1: x21 = 0xffffffff
     a7c:	000c2a83          	lw	x21,0(x24)
     a80:	004c0c13          	addi	x24,x24,4

00000a84 <I_xori_cg_cp_rs1_edges_0xffffffff>:
I_xori_cg_cp_rs1_edges_0xffffffff:
  xori x14, x21, 1976 # perform operation
     a84:	7b8ac713          	xori	x14,x21,1976
  # Check if x14 contains the expected result. x12 is the signature ptr, x5 is the link ptr, x4 is a temp reg.
  RVTEST_SIGUPD(x12, x5, x4, x14, I_xori_cg_cp_rs1_edges_0xffffffff, I_xori_cg_cp_rs1_edges_0xffffffff_str)
     a88:	00062203          	lw	x4,0(x12)
     a8c:	00e20863          	beq	x4,x14,a9c <I_xori_cg_cp_rs1_edges_0xffffffff+0x18>
     a90:	22d022ef          	jal	x5,34bc <failedtest_x5_x4>
     a94:	00000a84          	.word	0x00000a84
     a98:	00009429          	.word	0x00009429
     a9c:	00460613          	addi	x12,x12,4

# Testcase cp_rs1_edges (Test source rs1 value = 0xfffffffe)
  RVTEST_TESTDATA_LOAD_INT(x24, x18) # load rs1: x18 = 0xfffffffe
     aa0:	000c2903          	lw	x18,0(x24)
     aa4:	004c0c13          	addi	x24,x24,4

00000aa8 <I_xori_cg_cp_rs1_edges_0xfffffffe>:
I_xori_cg_cp_rs1_edges_0xfffffffe:
  xori x15, x18, 1486 # perform operation
     aa8:	5ce94793          	xori	x15,x18,1486
  # Check if x15 contains the expected result. x12 is the signature ptr, x5 is the link ptr, x4 is a temp reg.
  RVTEST_SIGUPD(x12, x5, x4, x15, I_xori_cg_cp_rs1_edges_0xfffffffe, I_xori_cg_cp_rs1_edges_0xfffffffe_str)
     aac:	00062203          	lw	x4,0(x12)
     ab0:	00f20863          	beq	x4,x15,ac0 <I_xori_cg_cp_rs1_edges_0xfffffffe+0x18>
     ab4:	209022ef          	jal	x5,34bc <failedtest_x5_x4>
     ab8:	00000aa8          	.word	0x00000aa8
     abc:	00009466          	.word	0x00009466
     ac0:	00460613          	addi	x12,x12,4

# Testcase cp_rs1_edges (Test source rs1 value = 0x5bbc8872)
  RVTEST_TESTDATA_LOAD_INT(x24, x30) # load rs1: x30 = 0x5bbc8872
     ac4:	000c2f03          	lw	x30,0(x24)
     ac8:	004c0c13          	addi	x24,x24,4

00000acc <I_xori_cg_cp_rs1_edges_0x5bbc8872>:
I_xori_cg_cp_rs1_edges_0x5bbc8872:
  xori x1, x30, -904 # perform operation
     acc:	c78f4093          	xori	x1,x30,-904
  # Check if x1 contains the expected result. x12 is the signature ptr, x5 is the link ptr, x4 is a temp reg.
  RVTEST_SIGUPD(x12, x5, x4, x1, I_xori_cg_cp_rs1_edges_0x5bbc8872, I_xori_cg_cp_rs1_edges_0x5bbc8872_str)
     ad0:	00062203          	lw	x4,0(x12)
     ad4:	00120863          	beq	x4,x1,ae4 <I_xori_cg_cp_rs1_edges_0x5bbc8872+0x18>
     ad8:	1e5022ef          	jal	x5,34bc <failedtest_x5_x4>
     adc:	00000acc          	.word	0x00000acc
     ae0:	000094a3          	.word	0x000094a3
     ae4:	00460613          	addi	x12,x12,4

# Testcase cp_rs1_edges (Test source rs1 value = 0xaaaaaaaa)
  RVTEST_TESTDATA_LOAD_INT(x24, x28) # load rs1: x28 = 0xaaaaaaaa
     ae8:	000c2e03          	lw	x28,0(x24)
     aec:	004c0c13          	addi	x24,x24,4

00000af0 <I_xori_cg_cp_rs1_edges_0xaaaaaaaa>:
I_xori_cg_cp_rs1_edges_0xaaaaaaaa:
  xori x16, x28, -1318 # perform operation
     af0:	adae4813          	xori	x16,x28,-1318
  # Check if x16 contains the expected result. x12 is the signature ptr, x5 is the link ptr, x4 is a temp reg.
  RVTEST_SIGUPD(x12, x5, x4, x16, I_xori_cg_cp_rs1_edges_0xaaaaaaaa, I_xori_cg_cp_rs1_edges_0xaaaaaaaa_str)
     af4:	00062203          	lw	x4,0(x12)
     af8:	01020863          	beq	x4,x16,b08 <I_xori_cg_cp_rs1_edges_0xaaaaaaaa+0x18>
     afc:	1c1022ef          	jal	x5,34bc <failedtest_x5_x4>
     b00:	00000af0          	.word	0x00000af0
     b04:	000094e0          	.word	0x000094e0
     b08:	00460613          	addi	x12,x12,4

# Testcase cp_rs1_edges (Test source rs1 value = 0x55555555)
  RVTEST_TESTDATA_LOAD_INT(x24, x27) # load rs1: x27 = 0x55555555
     b0c:	000c2d83          	lw	x27,0(x24)
     b10:	004c0c13          	addi	x24,x24,4

00000b14 <I_xori_cg_cp_rs1_edges_0x55555555>:
I_xori_cg_cp_rs1_edges_0x55555555:
  xori x22, x27, -1710 # perform operation
     b14:	952dcb13          	xori	x22,x27,-1710
  # Check if x22 contains the expected result. x12 is the signature ptr, x5 is the link ptr, x4 is a temp reg.
  RVTEST_SIGUPD(x12, x5, x4, x22, I_xori_cg_cp_rs1_edges_0x55555555, I_xori_cg_cp_rs1_edges_0x55555555_str)
     b18:	00062203          	lw	x4,0(x12)
     b1c:	01620863          	beq	x4,x22,b2c <I_xori_cg_cp_rs1_edges_0x55555555+0x18>
     b20:	19d022ef          	jal	x5,34bc <failedtest_x5_x4>
     b24:	00000b14          	.word	0x00000b14
     b28:	0000951d          	.word	0x0000951d
     b2c:	00460613          	addi	x12,x12,4
/////////////////////////////////
// cr_rs1_imm_edges
/////////////////////////////////

# Testcase cr_rs1_imm_edges (rs1 = 0x00000000, imm = 0)
  RVTEST_TESTDATA_LOAD_INT(x24, x21) # load rs1: x21 = 0x00000000
     b30:	000c2a83          	lw	x21,0(x24)
     b34:	004c0c13          	addi	x24,x24,4

00000b38 <I_xori_cg_cr_rs1_imm_edges_rs1val_0x0_immval_0x0>:
I_xori_cg_cr_rs1_imm_edges_rs1val_0x0_immval_0x0:
  xori x15, x21, 0 # perform operation
     b38:	000ac793          	xori	x15,x21,0
  # Check if x15 contains the expected result. x12 is the signature ptr, x5 is the link ptr, x4 is a temp reg.
  RVTEST_SIGUPD(x12, x5, x4, x15, I_xori_cg_cr_rs1_imm_edges_rs1val_0x0_immval_0x0, I_xori_cg_cr_rs1_imm_edges_rs1val_0x0_immval_0x0_str)
     b3c:	00062203          	lw	x4,0(x12)
     b40:	00f20863          	beq	x4,x15,b50 <I_xori_cg_cr_rs1_imm_edges_rs1val_0x0_immval_0x0+0x18>
     b44:	179022ef          	jal	x5,34bc <failedtest_x5_x4>
     b48:	00000b38          	.word	0x00000b38
     b4c:	0000955a          	.word	0x0000955a
     b50:	00460613          	addi	x12,x12,4

# Testcase cr_rs1_imm_edges (rs1 = 0x00000000, imm = 1)
  RVTEST_TESTDATA_LOAD_INT(x24, x19) # load rs1: x19 = 0x00000000
     b54:	000c2983          	lw	x19,0(x24)
     b58:	004c0c13          	addi	x24,x24,4

00000b5c <I_xori_cg_cr_rs1_imm_edges_rs1val_0x0_immval_0x1>:
I_xori_cg_cr_rs1_imm_edges_rs1val_0x0_immval_0x1:
  xori x29, x19, 1 # perform operation
     b5c:	0019ce93          	xori	x29,x19,1
  # Check if x29 contains the expected result. x12 is the signature ptr, x5 is the link ptr, x4 is a temp reg.
  RVTEST_SIGUPD(x12, x5, x4, x29, I_xori_cg_cr_rs1_imm_edges_rs1val_0x0_immval_0x1, I_xori_cg_cr_rs1_imm_edges_rs1val_0x0_immval_0x1_str)
     b60:	00062203          	lw	x4,0(x12)
     b64:	01d20863          	beq	x4,x29,b74 <I_xori_cg_cr_rs1_imm_edges_rs1val_0x0_immval_0x1+0x18>
     b68:	155022ef          	jal	x5,34bc <failedtest_x5_x4>
     b6c:	00000b5c          	.word	0x00000b5c
     b70:	000095a7          	.word	0x000095a7
     b74:	00460613          	addi	x12,x12,4

# Testcase cr_rs1_imm_edges (rs1 = 0x00000000, imm = 2)
  RVTEST_TESTDATA_LOAD_INT(x24, x26) # load rs1: x26 = 0x00000000
     b78:	000c2d03          	lw	x26,0(x24)
     b7c:	004c0c13          	addi	x24,x24,4

00000b80 <I_xori_cg_cr_rs1_imm_edges_rs1val_0x0_immval_0x2>:
I_xori_cg_cr_rs1_imm_edges_rs1val_0x0_immval_0x2:
  xori x25, x26, 2 # perform operation
     b80:	002d4c93          	xori	x25,x26,2
  # Check if x25 contains the expected result. x12 is the signature ptr, x5 is the link ptr, x4 is a temp reg.
  RVTEST_SIGUPD(x12, x5, x4, x25, I_xori_cg_cr_rs1_imm_edges_rs1val_0x0_immval_0x2, I_xori_cg_cr_rs1_imm_edges_rs1val_0x0_immval_0x2_str)
     b84:	00062203          	lw	x4,0(x12)
     b88:	01920863          	beq	x4,x25,b98 <I_xori_cg_cr_rs1_imm_edges_rs1val_0x0_immval_0x2+0x18>
     b8c:	131022ef          	jal	x5,34bc <failedtest_x5_x4>
     b90:	00000b80          	.word	0x00000b80
     b94:	000095f4          	.word	0x000095f4
     b98:	00460613          	addi	x12,x12,4

# Testcase cr_rs1_imm_edges (rs1 = 0x00000000, imm = 3)
  RVTEST_TESTDATA_LOAD_INT(x24, x21) # load rs1: x21 = 0x00000000
     b9c:	000c2a83          	lw	x21,0(x24)
     ba0:	004c0c13          	addi	x24,x24,4

00000ba4 <I_xori_cg_cr_rs1_imm_edges_rs1val_0x0_immval_0x3>:
I_xori_cg_cr_rs1_imm_edges_rs1val_0x0_immval_0x3:
  xori x25, x21, 3 # perform operation
     ba4:	003acc93          	xori	x25,x21,3
  # Check if x25 contains the expected result. x12 is the signature ptr, x5 is the link ptr, x4 is a temp reg.
  RVTEST_SIGUPD(x12, x5, x4, x25, I_xori_cg_cr_rs1_imm_edges_rs1val_0x0_immval_0x3, I_xori_cg_cr_rs1_imm_edges_rs1val_0x0_immval_0x3_str)
     ba8:	00062203          	lw	x4,0(x12)
     bac:	01920863          	beq	x4,x25,bbc <I_xori_cg_cr_rs1_imm_edges_rs1val_0x0_immval_0x3+0x18>
     bb0:	10d022ef          	jal	x5,34bc <failedtest_x5_x4>
     bb4:	00000ba4          	.word	0x00000ba4
     bb8:	00009641          	.word	0x00009641
     bbc:	00460613          	addi	x12,x12,4

# Testcase cr_rs1_imm_edges (rs1 = 0x00000000, imm = 4)
  RVTEST_TESTDATA_LOAD_INT(x24, x28) # load rs1: x28 = 0x00000000
     bc0:	000c2e03          	lw	x28,0(x24)
     bc4:	004c0c13          	addi	x24,x24,4

00000bc8 <I_xori_cg_cr_rs1_imm_edges_rs1val_0x0_immval_0x4>:
I_xori_cg_cr_rs1_imm_edges_rs1val_0x0_immval_0x4:
  xori x16, x28, 4 # perform operation
     bc8:	004e4813          	xori	x16,x28,4
  # Check if x16 contains the expected result. x12 is the signature ptr, x5 is the link ptr, x4 is a temp reg.
  RVTEST_SIGUPD(x12, x5, x4, x16, I_xori_cg_cr_rs1_imm_edges_rs1val_0x0_immval_0x4, I_xori_cg_cr_rs1_imm_edges_rs1val_0x0_immval_0x4_str)
     bcc:	00062203          	lw	x4,0(x12)
     bd0:	01020863          	beq	x4,x16,be0 <I_xori_cg_cr_rs1_imm_edges_rs1val_0x0_immval_0x4+0x18>
     bd4:	0e9022ef          	jal	x5,34bc <failedtest_x5_x4>
     bd8:	00000bc8          	.word	0x00000bc8
     bdc:	0000968e          	.word	0x0000968e
     be0:	00460613          	addi	x12,x12,4

# Testcase cr_rs1_imm_edges (rs1 = 0x00000000, imm = 8)
  RVTEST_TESTDATA_LOAD_INT(x24, x22) # load rs1: x22 = 0x00000000
     be4:	000c2b03          	lw	x22,0(x24)
     be8:	004c0c13          	addi	x24,x24,4

00000bec <I_xori_cg_cr_rs1_imm_edges_rs1val_0x0_immval_0x8>:
I_xori_cg_cr_rs1_imm_edges_rs1val_0x0_immval_0x8:
  xori x25, x22, 8 # perform operation
     bec:	008b4c93          	xori	x25,x22,8
  # Check if x25 contains the expected result. x12 is the signature ptr, x5 is the link ptr, x4 is a temp reg.
  RVTEST_SIGUPD(x12, x5, x4, x25, I_xori_cg_cr_rs1_imm_edges_rs1val_0x0_immval_0x8, I_xori_cg_cr_rs1_imm_edges_rs1val_0x0_immval_0x8_str)
     bf0:	00062203          	lw	x4,0(x12)
     bf4:	01920863          	beq	x4,x25,c04 <I_xori_cg_cr_rs1_imm_edges_rs1val_0x0_immval_0x8+0x18>
     bf8:	0c5022ef          	jal	x5,34bc <failedtest_x5_x4>
     bfc:	00000bec          	.word	0x00000bec
     c00:	000096db          	.word	0x000096db
     c04:	00460613          	addi	x12,x12,4

# Testcase cr_rs1_imm_edges (rs1 = 0x00000000, imm = 16)
  RVTEST_TESTDATA_LOAD_INT(x24, x28) # load rs1: x28 = 0x00000000
     c08:	000c2e03          	lw	x28,0(x24)
     c0c:	004c0c13          	addi	x24,x24,4

00000c10 <I_xori_cg_cr_rs1_imm_edges_rs1val_0x0_immval_0x10>:
I_xori_cg_cr_rs1_imm_edges_rs1val_0x0_immval_0x10:
  xori x3, x28, 16 # perform operation
     c10:	010e4193          	xori	x3,x28,16
  # Check if x3 contains the expected result. x12 is the signature ptr, x5 is the link ptr, x4 is a temp reg.
  RVTEST_SIGUPD(x12, x5, x4, x3, I_xori_cg_cr_rs1_imm_edges_rs1val_0x0_immval_0x10, I_xori_cg_cr_rs1_imm_edges_rs1val_0x0_immval_0x10_str)
     c14:	00062203          	lw	x4,0(x12)
     c18:	00320863          	beq	x4,x3,c28 <I_xori_cg_cr_rs1_imm_edges_rs1val_0x0_immval_0x10+0x18>
     c1c:	0a1022ef          	jal	x5,34bc <failedtest_x5_x4>
     c20:	00000c10          	.word	0x00000c10
     c24:	00009728          	.word	0x00009728
     c28:	00460613          	addi	x12,x12,4

# Testcase cr_rs1_imm_edges (rs1 = 0x00000000, imm = 32)
  RVTEST_TESTDATA_LOAD_INT(x24, x17) # load rs1: x17 = 0x00000000
     c2c:	000c2883          	lw	x17,0(x24)
     c30:	004c0c13          	addi	x24,x24,4

00000c34 <I_xori_cg_cr_rs1_imm_edges_rs1val_0x0_immval_0x20>:
I_xori_cg_cr_rs1_imm_edges_rs1val_0x0_immval_0x20:
  xori x2, x17, 32 # perform operation
     c34:	0208c113          	xori	x2,x17,32
  # Check if x2 contains the expected result. x12 is the signature ptr, x5 is the link ptr, x4 is a temp reg.
  RVTEST_SIGUPD(x12, x5, x4, x2, I_xori_cg_cr_rs1_imm_edges_rs1val_0x0_immval_0x20, I_xori_cg_cr_rs1_imm_edges_rs1val_0x0_immval_0x20_str)
     c38:	00062203          	lw	x4,0(x12)
     c3c:	00220863          	beq	x4,x2,c4c <I_xori_cg_cr_rs1_imm_edges_rs1val_0x0_immval_0x20+0x18>
     c40:	07d022ef          	jal	x5,34bc <failedtest_x5_x4>
     c44:	00000c34          	.word	0x00000c34
     c48:	00009776          	.word	0x00009776
     c4c:	00460613          	addi	x12,x12,4

# Testcase cr_rs1_imm_edges (rs1 = 0x00000000, imm = 64)
  RVTEST_TESTDATA_LOAD_INT(x24, x16) # load rs1: x16 = 0x00000000
     c50:	000c2803          	lw	x16,0(x24)
     c54:	004c0c13          	addi	x24,x24,4

00000c58 <I_xori_cg_cr_rs1_imm_edges_rs1val_0x0_immval_0x40>:
I_xori_cg_cr_rs1_imm_edges_rs1val_0x0_immval_0x40:
  xori x15, x16, 64 # perform operation
     c58:	04084793          	xori	x15,x16,64
  # Check if x15 contains the expected result. x12 is the signature ptr, x5 is the link ptr, x4 is a temp reg.
  RVTEST_SIGUPD(x12, x5, x4, x15, I_xori_cg_cr_rs1_imm_edges_rs1val_0x0_immval_0x40, I_xori_cg_cr_rs1_imm_edges_rs1val_0x0_immval_0x40_str)
     c5c:	00062203          	lw	x4,0(x12)
     c60:	00f20863          	beq	x4,x15,c70 <I_xori_cg_cr_rs1_imm_edges_rs1val_0x0_immval_0x40+0x18>
     c64:	059022ef          	jal	x5,34bc <failedtest_x5_x4>
     c68:	00000c58          	.word	0x00000c58
     c6c:	000097c4          	.word	0x000097c4
     c70:	00460613          	addi	x12,x12,4

# Testcase cr_rs1_imm_edges (rs1 = 0x00000000, imm = 128)
  RVTEST_TESTDATA_LOAD_INT(x24, x30) # load rs1: x30 = 0x00000000
     c74:	000c2f03          	lw	x30,0(x24)
     c78:	004c0c13          	addi	x24,x24,4

00000c7c <I_xori_cg_cr_rs1_imm_edges_rs1val_0x0_immval_0x80>:
I_xori_cg_cr_rs1_imm_edges_rs1val_0x0_immval_0x80:
  xori x20, x30, 128 # perform operation
     c7c:	080f4a13          	xori	x20,x30,128
  # Check if x20 contains the expected result. x12 is the signature ptr, x5 is the link ptr, x4 is a temp reg.
  RVTEST_SIGUPD(x12, x5, x4, x20, I_xori_cg_cr_rs1_imm_edges_rs1val_0x0_immval_0x80, I_xori_cg_cr_rs1_imm_edges_rs1val_0x0_immval_0x80_str)
     c80:	00062203          	lw	x4,0(x12)
     c84:	01420863          	beq	x4,x20,c94 <I_xori_cg_cr_rs1_imm_edges_rs1val_0x0_immval_0x80+0x18>
     c88:	035022ef          	jal	x5,34bc <failedtest_x5_x4>
     c8c:	00000c7c          	.word	0x00000c7c
     c90:	00009812          	.word	0x00009812
     c94:	00460613          	addi	x12,x12,4

# Testcase cr_rs1_imm_edges (rs1 = 0x00000000, imm = 256)
  RVTEST_TESTDATA_LOAD_INT(x24, x29) # load rs1: x29 = 0x00000000
     c98:	000c2e83          	lw	x29,0(x24)
     c9c:	004c0c13          	addi	x24,x24,4

00000ca0 <I_xori_cg_cr_rs1_imm_edges_rs1val_0x0_immval_0x100>:
I_xori_cg_cr_rs1_imm_edges_rs1val_0x0_immval_0x100:
  xori x10, x29, 256 # perform operation
     ca0:	100ec513          	xori	x10,x29,256
  # Check if x10 contains the expected result. x12 is the signature ptr, x5 is the link ptr, x4 is a temp reg.
  RVTEST_SIGUPD(x12, x5, x4, x10, I_xori_cg_cr_rs1_imm_edges_rs1val_0x0_immval_0x100, I_xori_cg_cr_rs1_imm_edges_rs1val_0x0_immval_0x100_str)
     ca4:	00062203          	lw	x4,0(x12)
     ca8:	00a20863          	beq	x4,x10,cb8 <I_xori_cg_cr_rs1_imm_edges_rs1val_0x0_immval_0x100+0x18>
     cac:	011022ef          	jal	x5,34bc <failedtest_x5_x4>
     cb0:	00000ca0          	.word	0x00000ca0
     cb4:	00009860          	.word	0x00009860
     cb8:	00460613          	addi	x12,x12,4

# Testcase cr_rs1_imm_edges (rs1 = 0x00000000, imm = 512)
  RVTEST_TESTDATA_LOAD_INT(x24, x22) # load rs1: x22 = 0x00000000
     cbc:	000c2b03          	lw	x22,0(x24)
     cc0:	004c0c13          	addi	x24,x24,4

00000cc4 <I_xori_cg_cr_rs1_imm_edges_rs1val_0x0_immval_0x200>:
I_xori_cg_cr_rs1_imm_edges_rs1val_0x0_immval_0x200:
  xori x23, x22, 512 # perform operation
     cc4:	200b4b93          	xori	x23,x22,512
  # Check if x23 contains the expected result. x12 is the signature ptr, x5 is the link ptr, x4 is a temp reg.
  RVTEST_SIGUPD(x12, x5, x4, x23, I_xori_cg_cr_rs1_imm_edges_rs1val_0x0_immval_0x200, I_xori_cg_cr_rs1_imm_edges_rs1val_0x0_immval_0x200_str)
     cc8:	00062203          	lw	x4,0(x12)
     ccc:	01720863          	beq	x4,x23,cdc <I_xori_cg_cr_rs1_imm_edges_rs1val_0x0_immval_0x200+0x18>
     cd0:	7ec022ef          	jal	x5,34bc <failedtest_x5_x4>
     cd4:	00000cc4          	.word	0x00000cc4
     cd8:	000098af          	.word	0x000098af
     cdc:	00460613          	addi	x12,x12,4

# Testcase cr_rs1_imm_edges (rs1 = 0x00000000, imm = 1023)
  RVTEST_TESTDATA_LOAD_INT(x24, x14) # load rs1: x14 = 0x00000000
     ce0:	000c2703          	lw	x14,0(x24)
     ce4:	004c0c13          	addi	x24,x24,4

00000ce8 <I_xori_cg_cr_rs1_imm_edges_rs1val_0x0_immval_0x3ff>:
I_xori_cg_cr_rs1_imm_edges_rs1val_0x0_immval_0x3ff:
  xori x10, x14, 1023 # perform operation
     ce8:	3ff74513          	xori	x10,x14,1023
  # Check if x10 contains the expected result. x12 is the signature ptr, x5 is the link ptr, x4 is a temp reg.
  RVTEST_SIGUPD(x12, x5, x4, x10, I_xori_cg_cr_rs1_imm_edges_rs1val_0x0_immval_0x3ff, I_xori_cg_cr_rs1_imm_edges_rs1val_0x0_immval_0x3ff_str)
     cec:	00062203          	lw	x4,0(x12)
     cf0:	00a20863          	beq	x4,x10,d00 <I_xori_cg_cr_rs1_imm_edges_rs1val_0x0_immval_0x3ff+0x18>
     cf4:	7c8022ef          	jal	x5,34bc <failedtest_x5_x4>
     cf8:	00000ce8          	.word	0x00000ce8
     cfc:	000098fe          	.word	0x000098fe
     d00:	00460613          	addi	x12,x12,4

# Testcase cr_rs1_imm_edges (rs1 = 0x00000000, imm = 1024)
  RVTEST_TESTDATA_LOAD_INT(x24, x13) # load rs1: x13 = 0x00000000
     d04:	000c2683          	lw	x13,0(x24)
     d08:	004c0c13          	addi	x24,x24,4

00000d0c <I_xori_cg_cr_rs1_imm_edges_rs1val_0x0_immval_0x400>:
I_xori_cg_cr_rs1_imm_edges_rs1val_0x0_immval_0x400:
  xori x26, x13, 1024 # perform operation
     d0c:	4006cd13          	xori	x26,x13,1024
  # Check if x26 contains the expected result. x12 is the signature ptr, x5 is the link ptr, x4 is a temp reg.
  RVTEST_SIGUPD(x12, x5, x4, x26, I_xori_cg_cr_rs1_imm_edges_rs1val_0x0_immval_0x400, I_xori_cg_cr_rs1_imm_edges_rs1val_0x0_immval_0x400_str)
     d10:	00062203          	lw	x4,0(x12)
     d14:	01a20863          	beq	x4,x26,d24 <I_xori_cg_cr_rs1_imm_edges_rs1val_0x0_immval_0x400+0x18>
     d18:	7a4022ef          	jal	x5,34bc <failedtest_x5_x4>
     d1c:	00000d0c          	.word	0x00000d0c
     d20:	0000994d          	.word	0x0000994d
     d24:	00460613          	addi	x12,x12,4

# Testcase cr_rs1_imm_edges (rs1 = 0x00000000, imm = 1795)
  RVTEST_TESTDATA_LOAD_INT(x24, x19) # load rs1: x19 = 0x00000000
     d28:	000c2983          	lw	x19,0(x24)
     d2c:	004c0c13          	addi	x24,x24,4

00000d30 <I_xori_cg_cr_rs1_imm_edges_rs1val_0x0_immval_0x703>:
I_xori_cg_cr_rs1_imm_edges_rs1val_0x0_immval_0x703:
  xori x11, x19, 1795 # perform operation
     d30:	7039c593          	xori	x11,x19,1795
  # Check if x11 contains the expected result. x12 is the signature ptr, x5 is the link ptr, x4 is a temp reg.
  RVTEST_SIGUPD(x12, x5, x4, x11, I_xori_cg_cr_rs1_imm_edges_rs1val_0x0_immval_0x703, I_xori_cg_cr_rs1_imm_edges_rs1val_0x0_immval_0x703_str)
     d34:	00062203          	lw	x4,0(x12)
     d38:	00b20863          	beq	x4,x11,d48 <I_xori_cg_cr_rs1_imm_edges_rs1val_0x0_immval_0x703+0x18>
     d3c:	780022ef          	jal	x5,34bc <failedtest_x5_x4>
     d40:	00000d30          	.word	0x00000d30
     d44:	0000999c          	.word	0x0000999c
     d48:	00460613          	addi	x12,x12,4

# Testcase cr_rs1_imm_edges (rs1 = 0x00000000, imm = 2047)
  RVTEST_TESTDATA_LOAD_INT(x24, x20) # load rs1: x20 = 0x00000000
     d4c:	000c2a03          	lw	x20,0(x24)
     d50:	004c0c13          	addi	x24,x24,4

00000d54 <I_xori_cg_cr_rs1_imm_edges_rs1val_0x0_immval_0x7ff>:
I_xori_cg_cr_rs1_imm_edges_rs1val_0x0_immval_0x7ff:
  xori x19, x20, 2047 # perform operation
     d54:	7ffa4993          	xori	x19,x20,2047
  # Check if x19 contains the expected result. x12 is the signature ptr, x5 is the link ptr, x4 is a temp reg.
  RVTEST_SIGUPD(x12, x5, x4, x19, I_xori_cg_cr_rs1_imm_edges_rs1val_0x0_immval_0x7ff, I_xori_cg_cr_rs1_imm_edges_rs1val_0x0_immval_0x7ff_str)
     d58:	00062203          	lw	x4,0(x12)
     d5c:	01320863          	beq	x4,x19,d6c <I_xori_cg_cr_rs1_imm_edges_rs1val_0x0_immval_0x7ff+0x18>
     d60:	75c022ef          	jal	x5,34bc <failedtest_x5_x4>
     d64:	00000d54          	.word	0x00000d54
     d68:	000099eb          	.word	0x000099eb
     d6c:	00460613          	addi	x12,x12,4

# Testcase cr_rs1_imm_edges (rs1 = 0x00000000, imm = -2048)
  RVTEST_TESTDATA_LOAD_INT(x24, x27) # load rs1: x27 = 0x00000000
     d70:	000c2d83          	lw	x27,0(x24)
     d74:	004c0c13          	addi	x24,x24,4

00000d78 <I_xori_cg_cr_rs1_imm_edges_rs1val_0x0_immval_m0x800>:
I_xori_cg_cr_rs1_imm_edges_rs1val_0x0_immval_m0x800:
  xori x10, x27, -2048 # perform operation
     d78:	800dc513          	xori	x10,x27,-2048
  # Check if x10 contains the expected result. x12 is the signature ptr, x5 is the link ptr, x4 is a temp reg.
  RVTEST_SIGUPD(x12, x5, x4, x10, I_xori_cg_cr_rs1_imm_edges_rs1val_0x0_immval_m0x800, I_xori_cg_cr_rs1_imm_edges_rs1val_0x0_immval_m0x800_str)
     d7c:	00062203          	lw	x4,0(x12)
     d80:	00a20863          	beq	x4,x10,d90 <I_xori_cg_cr_rs1_imm_edges_rs1val_0x0_immval_m0x800+0x18>
     d84:	738022ef          	jal	x5,34bc <failedtest_x5_x4>
     d88:	00000d78          	.word	0x00000d78
     d8c:	00009a3a          	.word	0x00009a3a
     d90:	00460613          	addi	x12,x12,4

# Testcase cr_rs1_imm_edges (rs1 = 0x00000000, imm = -2047)
  RVTEST_TESTDATA_LOAD_INT(x24, x31) # load rs1: x31 = 0x00000000
     d94:	000c2f83          	lw	x31,0(x24)
     d98:	004c0c13          	addi	x24,x24,4

00000d9c <I_xori_cg_cr_rs1_imm_edges_rs1val_0x0_immval_m0x7ff>:
I_xori_cg_cr_rs1_imm_edges_rs1val_0x0_immval_m0x7ff:
  xori x20, x31, -2047 # perform operation
     d9c:	801fca13          	xori	x20,x31,-2047
  # Check if x20 contains the expected result. x12 is the signature ptr, x5 is the link ptr, x4 is a temp reg.
  RVTEST_SIGUPD(x12, x5, x4, x20, I_xori_cg_cr_rs1_imm_edges_rs1val_0x0_immval_m0x7ff, I_xori_cg_cr_rs1_imm_edges_rs1val_0x0_immval_m0x7ff_str)
     da0:	00062203          	lw	x4,0(x12)
     da4:	01420863          	beq	x4,x20,db4 <I_xori_cg_cr_rs1_imm_edges_rs1val_0x0_immval_m0x7ff+0x18>
     da8:	714022ef          	jal	x5,34bc <failedtest_x5_x4>
     dac:	00000d9c          	.word	0x00000d9c
     db0:	00009a8a          	.word	0x00009a8a
     db4:	00460613          	addi	x12,x12,4

# Testcase cr_rs1_imm_edges (rs1 = 0x00000000, imm = -2)
  RVTEST_TESTDATA_LOAD_INT(x24, x9) # load rs1: x9 = 0x00000000
     db8:	000c2483          	lw	x9,0(x24)
     dbc:	004c0c13          	addi	x24,x24,4

00000dc0 <I_xori_cg_cr_rs1_imm_edges_rs1val_0x0_immval_m0x2>:
I_xori_cg_cr_rs1_imm_edges_rs1val_0x0_immval_m0x2:
  xori x20, x9, -2 # perform operation
     dc0:	ffe4ca13          	xori	x20,x9,-2
  # Check if x20 contains the expected result. x12 is the signature ptr, x5 is the link ptr, x4 is a temp reg.
  RVTEST_SIGUPD(x12, x5, x4, x20, I_xori_cg_cr_rs1_imm_edges_rs1val_0x0_immval_m0x2, I_xori_cg_cr_rs1_imm_edges_rs1val_0x0_immval_m0x2_str)
     dc4:	00062203          	lw	x4,0(x12)
     dc8:	01420863          	beq	x4,x20,dd8 <I_xori_cg_cr_rs1_imm_edges_rs1val_0x0_immval_m0x2+0x18>
     dcc:	6f0022ef          	jal	x5,34bc <failedtest_x5_x4>
     dd0:	00000dc0          	.word	0x00000dc0
     dd4:	00009ada          	.word	0x00009ada
     dd8:	00460613          	addi	x12,x12,4

# Testcase cr_rs1_imm_edges (rs1 = 0x00000000, imm = -1)
  RVTEST_TESTDATA_LOAD_INT(x24, x27) # load rs1: x27 = 0x00000000
     ddc:	000c2d83          	lw	x27,0(x24)
     de0:	004c0c13          	addi	x24,x24,4

00000de4 <I_xori_cg_cr_rs1_imm_edges_rs1val_0x0_immval_m0x1>:
I_xori_cg_cr_rs1_imm_edges_rs1val_0x0_immval_m0x1:
  xori x19, x27, -1 # perform operation
     de4:	fffdc993          	xori	x19,x27,-1
  # Check if x19 contains the expected result. x12 is the signature ptr, x5 is the link ptr, x4 is a temp reg.
  RVTEST_SIGUPD(x12, x5, x4, x19, I_xori_cg_cr_rs1_imm_edges_rs1val_0x0_immval_m0x1, I_xori_cg_cr_rs1_imm_edges_rs1val_0x0_immval_m0x1_str)
     de8:	00062203          	lw	x4,0(x12)
     dec:	01320863          	beq	x4,x19,dfc <I_xori_cg_cr_rs1_imm_edges_rs1val_0x0_immval_m0x1+0x18>
     df0:	6cc022ef          	jal	x5,34bc <failedtest_x5_x4>
     df4:	00000de4          	.word	0x00000de4
     df8:	00009b28          	.word	0x00009b28
     dfc:	00460613          	addi	x12,x12,4

# Testcase cr_rs1_imm_edges (rs1 = 0x00000001, imm = 0)
  RVTEST_TESTDATA_LOAD_INT(x24, x25) # load rs1: x25 = 0x00000001
     e00:	000c2c83          	lw	x25,0(x24)
     e04:	004c0c13          	addi	x24,x24,4

00000e08 <I_xori_cg_cr_rs1_imm_edges_rs1val_0x1_immval_0x0>:
I_xori_cg_cr_rs1_imm_edges_rs1val_0x1_immval_0x0:
  xori x9, x25, 0 # perform operation
     e08:	000cc493          	xori	x9,x25,0
  # Check if x9 contains the expected result. x12 is the signature ptr, x5 is the link ptr, x4 is a temp reg.
  RVTEST_SIGUPD(x12, x5, x4, x9, I_xori_cg_cr_rs1_imm_edges_rs1val_0x1_immval_0x0, I_xori_cg_cr_rs1_imm_edges_rs1val_0x1_immval_0x0_str)
     e0c:	00062203          	lw	x4,0(x12)
     e10:	00920863          	beq	x4,x9,e20 <I_xori_cg_cr_rs1_imm_edges_rs1val_0x1_immval_0x0+0x18>
     e14:	6a8022ef          	jal	x5,34bc <failedtest_x5_x4>
     e18:	00000e08          	.word	0x00000e08
     e1c:	00009b76          	.word	0x00009b76
     e20:	00460613          	addi	x12,x12,4

# Testcase cr_rs1_imm_edges (rs1 = 0x00000001, imm = 1)
  RVTEST_TESTDATA_LOAD_INT(x24, x30) # load rs1: x30 = 0x00000001
     e24:	000c2f03          	lw	x30,0(x24)
     e28:	004c0c13          	addi	x24,x24,4

00000e2c <I_xori_cg_cr_rs1_imm_edges_rs1val_0x1_immval_0x1>:
I_xori_cg_cr_rs1_imm_edges_rs1val_0x1_immval_0x1:
  xori x21, x30, 1 # perform operation
     e2c:	001f4a93          	xori	x21,x30,1
  # Check if x21 contains the expected result. x12 is the signature ptr, x5 is the link ptr, x4 is a temp reg.
  RVTEST_SIGUPD(x12, x5, x4, x21, I_xori_cg_cr_rs1_imm_edges_rs1val_0x1_immval_0x1, I_xori_cg_cr_rs1_imm_edges_rs1val_0x1_immval_0x1_str)
     e30:	00062203          	lw	x4,0(x12)
     e34:	01520863          	beq	x4,x21,e44 <I_xori_cg_cr_rs1_imm_edges_rs1val_0x1_immval_0x1+0x18>
     e38:	684022ef          	jal	x5,34bc <failedtest_x5_x4>
     e3c:	00000e2c          	.word	0x00000e2c
     e40:	00009bc3          	.word	0x00009bc3
     e44:	00460613          	addi	x12,x12,4

# Testcase cr_rs1_imm_edges (rs1 = 0x00000001, imm = 2)
  RVTEST_TESTDATA_LOAD_INT(x24, x28) # load rs1: x28 = 0x00000001
     e48:	000c2e03          	lw	x28,0(x24)
     e4c:	004c0c13          	addi	x24,x24,4

00000e50 <I_xori_cg_cr_rs1_imm_edges_rs1val_0x1_immval_0x2>:
I_xori_cg_cr_rs1_imm_edges_rs1val_0x1_immval_0x2:
  xori x22, x28, 2 # perform operation
     e50:	002e4b13          	xori	x22,x28,2
  # Check if x22 contains the expected result. x12 is the signature ptr, x5 is the link ptr, x4 is a temp reg.
  RVTEST_SIGUPD(x12, x5, x4, x22, I_xori_cg_cr_rs1_imm_edges_rs1val_0x1_immval_0x2, I_xori_cg_cr_rs1_imm_edges_rs1val_0x1_immval_0x2_str)
     e54:	00062203          	lw	x4,0(x12)
     e58:	01620863          	beq	x4,x22,e68 <I_xori_cg_cr_rs1_imm_edges_rs1val_0x1_immval_0x2+0x18>
     e5c:	660022ef          	jal	x5,34bc <failedtest_x5_x4>
     e60:	00000e50          	.word	0x00000e50
     e64:	00009c10          	.word	0x00009c10
     e68:	00460613          	addi	x12,x12,4

# Testcase cr_rs1_imm_edges (rs1 = 0x00000001, imm = 3)
  RVTEST_TESTDATA_LOAD_INT(x24, x11) # load rs1: x11 = 0x00000001
     e6c:	000c2583          	lw	x11,0(x24)
     e70:	004c0c13          	addi	x24,x24,4

00000e74 <I_xori_cg_cr_rs1_imm_edges_rs1val_0x1_immval_0x3>:
I_xori_cg_cr_rs1_imm_edges_rs1val_0x1_immval_0x3:
  xori x19, x11, 3 # perform operation
     e74:	0035c993          	xori	x19,x11,3
  # Check if x19 contains the expected result. x12 is the signature ptr, x5 is the link ptr, x4 is a temp reg.
  RVTEST_SIGUPD(x12, x5, x4, x19, I_xori_cg_cr_rs1_imm_edges_rs1val_0x1_immval_0x3, I_xori_cg_cr_rs1_imm_edges_rs1val_0x1_immval_0x3_str)
     e78:	00062203          	lw	x4,0(x12)
     e7c:	01320863          	beq	x4,x19,e8c <I_xori_cg_cr_rs1_imm_edges_rs1val_0x1_immval_0x3+0x18>
     e80:	63c022ef          	jal	x5,34bc <failedtest_x5_x4>
     e84:	00000e74          	.word	0x00000e74
     e88:	00009c5d          	.word	0x00009c5d
     e8c:	00460613          	addi	x12,x12,4

# Testcase cr_rs1_imm_edges (rs1 = 0x00000001, imm = 4)
  RVTEST_TESTDATA_LOAD_INT(x24, x15) # load rs1: x15 = 0x00000001
     e90:	000c2783          	lw	x15,0(x24)
     e94:	004c0c13          	addi	x24,x24,4

00000e98 <I_xori_cg_cr_rs1_imm_edges_rs1val_0x1_immval_0x4>:
I_xori_cg_cr_rs1_imm_edges_rs1val_0x1_immval_0x4:
  xori x28, x15, 4 # perform operation
     e98:	0047ce13          	xori	x28,x15,4
  # Check if x28 contains the expected result. x12 is the signature ptr, x5 is the link ptr, x4 is a temp reg.
  RVTEST_SIGUPD(x12, x5, x4, x28, I_xori_cg_cr_rs1_imm_edges_rs1val_0x1_immval_0x4, I_xori_cg_cr_rs1_imm_edges_rs1val_0x1_immval_0x4_str)
     e9c:	00062203          	lw	x4,0(x12)
     ea0:	01c20863          	beq	x4,x28,eb0 <I_xori_cg_cr_rs1_imm_edges_rs1val_0x1_immval_0x4+0x18>
     ea4:	618022ef          	jal	x5,34bc <failedtest_x5_x4>
     ea8:	00000e98          	.word	0x00000e98
     eac:	00009cab          	.word	0x00009cab
     eb0:	00460613          	addi	x12,x12,4

# Testcase cr_rs1_imm_edges (rs1 = 0x00000001, imm = 8)
  RVTEST_TESTDATA_LOAD_INT(x24, x18) # load rs1: x18 = 0x00000001
     eb4:	000c2903          	lw	x18,0(x24)
     eb8:	004c0c13          	addi	x24,x24,4

00000ebc <I_xori_cg_cr_rs1_imm_edges_rs1val_0x1_immval_0x8>:
I_xori_cg_cr_rs1_imm_edges_rs1val_0x1_immval_0x8:
  xori x9, x18, 8 # perform operation
     ebc:	00894493          	xori	x9,x18,8
  # Check if x9 contains the expected result. x12 is the signature ptr, x5 is the link ptr, x4 is a temp reg.
  RVTEST_SIGUPD(x12, x5, x4, x9, I_xori_cg_cr_rs1_imm_edges_rs1val_0x1_immval_0x8, I_xori_cg_cr_rs1_imm_edges_rs1val_0x1_immval_0x8_str)
     ec0:	00062203          	lw	x4,0(x12)
     ec4:	00920863          	beq	x4,x9,ed4 <I_xori_cg_cr_rs1_imm_edges_rs1val_0x1_immval_0x8+0x18>
     ec8:	5f4022ef          	jal	x5,34bc <failedtest_x5_x4>
     ecc:	00000ebc          	.word	0x00000ebc
     ed0:	00009cf9          	.word	0x00009cf9
     ed4:	00460613          	addi	x12,x12,4

# Testcase cr_rs1_imm_edges (rs1 = 0x00000001, imm = 16)
  RVTEST_TESTDATA_LOAD_INT(x24, x2) # load rs1: x2 = 0x00000001
     ed8:	000c2103          	lw	x2,0(x24)
     edc:	004c0c13          	addi	x24,x24,4

00000ee0 <I_xori_cg_cr_rs1_imm_edges_rs1val_0x1_immval_0x10>:
I_xori_cg_cr_rs1_imm_edges_rs1val_0x1_immval_0x10:
  xori x23, x2, 16 # perform operation
     ee0:	01014b93          	xori	x23,x2,16
  # Check if x23 contains the expected result. x12 is the signature ptr, x5 is the link ptr, x4 is a temp reg.
  RVTEST_SIGUPD(x12, x5, x4, x23, I_xori_cg_cr_rs1_imm_edges_rs1val_0x1_immval_0x10, I_xori_cg_cr_rs1_imm_edges_rs1val_0x1_immval_0x10_str)
     ee4:	00062203          	lw	x4,0(x12)
     ee8:	01720863          	beq	x4,x23,ef8 <I_xori_cg_cr_rs1_imm_edges_rs1val_0x1_immval_0x10+0x18>
     eec:	5d0022ef          	jal	x5,34bc <failedtest_x5_x4>
     ef0:	00000ee0          	.word	0x00000ee0
     ef4:	00009d47          	.word	0x00009d47
     ef8:	00460613          	addi	x12,x12,4

# Testcase cr_rs1_imm_edges (rs1 = 0x00000001, imm = 32)
  RVTEST_TESTDATA_LOAD_INT(x24, x3) # load rs1: x3 = 0x00000001
     efc:	000c2183          	lw	x3,0(x24)
     f00:	004c0c13          	addi	x24,x24,4

00000f04 <I_xori_cg_cr_rs1_imm_edges_rs1val_0x1_immval_0x20>:
I_xori_cg_cr_rs1_imm_edges_rs1val_0x1_immval_0x20:
  xori x23, x3, 32 # perform operation
     f04:	0201cb93          	xori	x23,x3,32
  # Check if x23 contains the expected result. x12 is the signature ptr, x5 is the link ptr, x4 is a temp reg.
  RVTEST_SIGUPD(x12, x5, x4, x23, I_xori_cg_cr_rs1_imm_edges_rs1val_0x1_immval_0x20, I_xori_cg_cr_rs1_imm_edges_rs1val_0x1_immval_0x20_str)
     f08:	00062203          	lw	x4,0(x12)
     f0c:	01720863          	beq	x4,x23,f1c <I_xori_cg_cr_rs1_imm_edges_rs1val_0x1_immval_0x20+0x18>
     f10:	5ac022ef          	jal	x5,34bc <failedtest_x5_x4>
     f14:	00000f04          	.word	0x00000f04
     f18:	00009d96          	.word	0x00009d96
     f1c:	00460613          	addi	x12,x12,4

# Testcase cr_rs1_imm_edges (rs1 = 0x00000001, imm = 64)
  RVTEST_TESTDATA_LOAD_INT(x24, x9) # load rs1: x9 = 0x00000001
     f20:	000c2483          	lw	x9,0(x24)
     f24:	004c0c13          	addi	x24,x24,4

00000f28 <I_xori_cg_cr_rs1_imm_edges_rs1val_0x1_immval_0x40>:
I_xori_cg_cr_rs1_imm_edges_rs1val_0x1_immval_0x40:
  xori x30, x9, 64 # perform operation
     f28:	0404cf13          	xori	x30,x9,64
  # Check if x30 contains the expected result. x12 is the signature ptr, x5 is the link ptr, x4 is a temp reg.
  RVTEST_SIGUPD(x12, x5, x4, x30, I_xori_cg_cr_rs1_imm_edges_rs1val_0x1_immval_0x40, I_xori_cg_cr_rs1_imm_edges_rs1val_0x1_immval_0x40_str)
     f2c:	00062203          	lw	x4,0(x12)
     f30:	01e20863          	beq	x4,x30,f40 <I_xori_cg_cr_rs1_imm_edges_rs1val_0x1_immval_0x40+0x18>
     f34:	588022ef          	jal	x5,34bc <failedtest_x5_x4>
     f38:	00000f28          	.word	0x00000f28
     f3c:	00009de5          	.word	0x00009de5
     f40:	00460613          	addi	x12,x12,4

# Testcase cr_rs1_imm_edges (rs1 = 0x00000001, imm = 128)
  RVTEST_TESTDATA_LOAD_INT(x24, x1) # load rs1: x1 = 0x00000001
     f44:	000c2083          	lw	x1,0(x24)
     f48:	004c0c13          	addi	x24,x24,4

00000f4c <I_xori_cg_cr_rs1_imm_edges_rs1val_0x1_immval_0x80>:
I_xori_cg_cr_rs1_imm_edges_rs1val_0x1_immval_0x80:
  xori x23, x1, 128 # perform operation
     f4c:	0800cb93          	xori	x23,x1,128
  # Check if x23 contains the expected result. x12 is the signature ptr, x5 is the link ptr, x4 is a temp reg.
  RVTEST_SIGUPD(x12, x5, x4, x23, I_xori_cg_cr_rs1_imm_edges_rs1val_0x1_immval_0x80, I_xori_cg_cr_rs1_imm_edges_rs1val_0x1_immval_0x80_str)
     f50:	00062203          	lw	x4,0(x12)
     f54:	01720863          	beq	x4,x23,f64 <I_xori_cg_cr_rs1_imm_edges_rs1val_0x1_immval_0x80+0x18>
     f58:	564022ef          	jal	x5,34bc <failedtest_x5_x4>
     f5c:	00000f4c          	.word	0x00000f4c
     f60:	00009e34          	.word	0x00009e34
     f64:	00460613          	addi	x12,x12,4

# Testcase cr_rs1_imm_edges (rs1 = 0x00000001, imm = 256)
  RVTEST_TESTDATA_LOAD_INT(x24, x2) # load rs1: x2 = 0x00000001
     f68:	000c2103          	lw	x2,0(x24)
     f6c:	004c0c13          	addi	x24,x24,4

00000f70 <I_xori_cg_cr_rs1_imm_edges_rs1val_0x1_immval_0x100>:
I_xori_cg_cr_rs1_imm_edges_rs1val_0x1_immval_0x100:
  xori x10, x2, 256 # perform operation
     f70:	10014513          	xori	x10,x2,256
  # Check if x10 contains the expected result. x12 is the signature ptr, x5 is the link ptr, x4 is a temp reg.
  RVTEST_SIGUPD(x12, x5, x4, x10, I_xori_cg_cr_rs1_imm_edges_rs1val_0x1_immval_0x100, I_xori_cg_cr_rs1_imm_edges_rs1val_0x1_immval_0x100_str)
     f74:	00062203          	lw	x4,0(x12)
     f78:	00a20863          	beq	x4,x10,f88 <I_xori_cg_cr_rs1_imm_edges_rs1val_0x1_immval_0x100+0x18>
     f7c:	540022ef          	jal	x5,34bc <failedtest_x5_x4>
     f80:	00000f70          	.word	0x00000f70
     f84:	00009e83          	.word	0x00009e83
     f88:	00460613          	addi	x12,x12,4

# Testcase cr_rs1_imm_edges (rs1 = 0x00000001, imm = 512)
  RVTEST_TESTDATA_LOAD_INT(x24, x28) # load rs1: x28 = 0x00000001
     f8c:	000c2e03          	lw	x28,0(x24)
     f90:	004c0c13          	addi	x24,x24,4

00000f94 <I_xori_cg_cr_rs1_imm_edges_rs1val_0x1_immval_0x200>:
I_xori_cg_cr_rs1_imm_edges_rs1val_0x1_immval_0x200:
  xori x16, x28, 512 # perform operation
     f94:	200e4813          	xori	x16,x28,512
  # Check if x16 contains the expected result. x12 is the signature ptr, x5 is the link ptr, x4 is a temp reg.
  RVTEST_SIGUPD(x12, x5, x4, x16, I_xori_cg_cr_rs1_imm_edges_rs1val_0x1_immval_0x200, I_xori_cg_cr_rs1_imm_edges_rs1val_0x1_immval_0x200_str)
     f98:	00062203          	lw	x4,0(x12)
     f9c:	01020863          	beq	x4,x16,fac <I_xori_cg_cr_rs1_imm_edges_rs1val_0x1_immval_0x200+0x18>
     fa0:	51c022ef          	jal	x5,34bc <failedtest_x5_x4>
     fa4:	00000f94          	.word	0x00000f94
     fa8:	00009ed3          	.word	0x00009ed3
     fac:	00460613          	addi	x12,x12,4

# Testcase cr_rs1_imm_edges (rs1 = 0x00000001, imm = 1023)
  RVTEST_TESTDATA_LOAD_INT(x24, x8) # load rs1: x8 = 0x00000001
     fb0:	000c2403          	lw	x8,0(x24)
     fb4:	004c0c13          	addi	x24,x24,4

00000fb8 <I_xori_cg_cr_rs1_imm_edges_rs1val_0x1_immval_0x3ff>:
I_xori_cg_cr_rs1_imm_edges_rs1val_0x1_immval_0x3ff:
  xori x19, x8, 1023 # perform operation
     fb8:	3ff44993          	xori	x19,x8,1023
  # Check if x19 contains the expected result. x12 is the signature ptr, x5 is the link ptr, x4 is a temp reg.
  RVTEST_SIGUPD(x12, x5, x4, x19, I_xori_cg_cr_rs1_imm_edges_rs1val_0x1_immval_0x3ff, I_xori_cg_cr_rs1_imm_edges_rs1val_0x1_immval_0x3ff_str)
     fbc:	00062203          	lw	x4,0(x12)
     fc0:	01320863          	beq	x4,x19,fd0 <I_xori_cg_cr_rs1_imm_edges_rs1val_0x1_immval_0x3ff+0x18>
     fc4:	4f8022ef          	jal	x5,34bc <failedtest_x5_x4>
     fc8:	00000fb8          	.word	0x00000fb8
     fcc:	00009f23          	.word	0x00009f23
     fd0:	00460613          	addi	x12,x12,4

# Testcase cr_rs1_imm_edges (rs1 = 0x00000001, imm = 1024)
  RVTEST_TESTDATA_LOAD_INT(x24, x26) # load rs1: x26 = 0x00000001
     fd4:	000c2d03          	lw	x26,0(x24)
     fd8:	004c0c13          	addi	x24,x24,4

00000fdc <I_xori_cg_cr_rs1_imm_edges_rs1val_0x1_immval_0x400>:
I_xori_cg_cr_rs1_imm_edges_rs1val_0x1_immval_0x400:
  xori x18, x26, 1024 # perform operation
     fdc:	400d4913          	xori	x18,x26,1024
  # Check if x18 contains the expected result. x12 is the signature ptr, x5 is the link ptr, x4 is a temp reg.
  RVTEST_SIGUPD(x12, x5, x4, x18, I_xori_cg_cr_rs1_imm_edges_rs1val_0x1_immval_0x400, I_xori_cg_cr_rs1_imm_edges_rs1val_0x1_immval_0x400_str)
     fe0:	00062203          	lw	x4,0(x12)
     fe4:	01220863          	beq	x4,x18,ff4 <I_xori_cg_cr_rs1_imm_edges_rs1val_0x1_immval_0x400+0x18>
     fe8:	4d4022ef          	jal	x5,34bc <failedtest_x5_x4>
     fec:	00000fdc          	.word	0x00000fdc
     ff0:	00009f73          	.word	0x00009f73
     ff4:	00460613          	addi	x12,x12,4

# Testcase cr_rs1_imm_edges (rs1 = 0x00000001, imm = 1795)
  RVTEST_TESTDATA_LOAD_INT(x24, x10) # load rs1: x10 = 0x00000001
     ff8:	000c2503          	lw	x10,0(x24)
     ffc:	004c0c13          	addi	x24,x24,4

00001000 <I_xori_cg_cr_rs1_imm_edges_rs1val_0x1_immval_0x703>:
I_xori_cg_cr_rs1_imm_edges_rs1val_0x1_immval_0x703:
  xori x30, x10, 1795 # perform operation
    1000:	70354f13          	xori	x30,x10,1795
  # Check if x30 contains the expected result. x12 is the signature ptr, x5 is the link ptr, x4 is a temp reg.
  RVTEST_SIGUPD(x12, x5, x4, x30, I_xori_cg_cr_rs1_imm_edges_rs1val_0x1_immval_0x703, I_xori_cg_cr_rs1_imm_edges_rs1val_0x1_immval_0x703_str)
    1004:	00062203          	lw	x4,0(x12)
    1008:	01e20863          	beq	x4,x30,1018 <I_xori_cg_cr_rs1_imm_edges_rs1val_0x1_immval_0x703+0x18>
    100c:	4b0022ef          	jal	x5,34bc <failedtest_x5_x4>
    1010:	00001000          	.word	0x00001000
    1014:	00009fc3          	.word	0x00009fc3
    1018:	00460613          	addi	x12,x12,4

# Testcase cr_rs1_imm_edges (rs1 = 0x00000001, imm = 2047)
  RVTEST_TESTDATA_LOAD_INT(x24, x7) # load rs1: x7 = 0x00000001
    101c:	000c2383          	lw	x7,0(x24)
    1020:	004c0c13          	addi	x24,x24,4

00001024 <I_xori_cg_cr_rs1_imm_edges_rs1val_0x1_immval_0x7ff>:
I_xori_cg_cr_rs1_imm_edges_rs1val_0x1_immval_0x7ff:
  xori x28, x7, 2047 # perform operation
    1024:	7ff3ce13          	xori	x28,x7,2047
  # Check if x28 contains the expected result. x12 is the signature ptr, x5 is the link ptr, x4 is a temp reg.
  RVTEST_SIGUPD(x12, x5, x4, x28, I_xori_cg_cr_rs1_imm_edges_rs1val_0x1_immval_0x7ff, I_xori_cg_cr_rs1_imm_edges_rs1val_0x1_immval_0x7ff_str)
    1028:	00062203          	lw	x4,0(x12)
    102c:	01c20863          	beq	x4,x28,103c <I_xori_cg_cr_rs1_imm_edges_rs1val_0x1_immval_0x7ff+0x18>
    1030:	48c022ef          	jal	x5,34bc <failedtest_x5_x4>
    1034:	00001024          	.word	0x00001024
    1038:	0000a013          	.word	0x0000a013
    103c:	00460613          	addi	x12,x12,4

# Testcase cr_rs1_imm_edges (rs1 = 0x00000001, imm = -2048)
  RVTEST_TESTDATA_LOAD_INT(x24, x2) # load rs1: x2 = 0x00000001
    1040:	000c2103          	lw	x2,0(x24)
    1044:	004c0c13          	addi	x24,x24,4

00001048 <I_xori_cg_cr_rs1_imm_edges_rs1val_0x1_immval_m0x800>:
I_xori_cg_cr_rs1_imm_edges_rs1val_0x1_immval_m0x800:
  xori x3, x2, -2048 # perform operation
    1048:	80014193          	xori	x3,x2,-2048
  # Check if x3 contains the expected result. x12 is the signature ptr, x5 is the link ptr, x4 is a temp reg.
  RVTEST_SIGUPD(x12, x5, x4, x3, I_xori_cg_cr_rs1_imm_edges_rs1val_0x1_immval_m0x800, I_xori_cg_cr_rs1_imm_edges_rs1val_0x1_immval_m0x800_str)
    104c:	00062203          	lw	x4,0(x12)
    1050:	00320863          	beq	x4,x3,1060 <I_xori_cg_cr_rs1_imm_edges_rs1val_0x1_immval_m0x800+0x18>
    1054:	468022ef          	jal	x5,34bc <failedtest_x5_x4>
    1058:	00001048          	.word	0x00001048
    105c:	0000a063          	.word	0x0000a063
    1060:	00460613          	addi	x12,x12,4

# Testcase cr_rs1_imm_edges (rs1 = 0x00000001, imm = -2047)
  RVTEST_TESTDATA_LOAD_INT(x24, x8) # load rs1: x8 = 0x00000001
    1064:	000c2403          	lw	x8,0(x24)
    1068:	004c0c13          	addi	x24,x24,4

0000106c <I_xori_cg_cr_rs1_imm_edges_rs1val_0x1_immval_m0x7ff>:
I_xori_cg_cr_rs1_imm_edges_rs1val_0x1_immval_m0x7ff:
  xori x17, x8, -2047 # perform operation
    106c:	80144893          	xori	x17,x8,-2047
  # Check if x17 contains the expected result. x12 is the signature ptr, x5 is the link ptr, x4 is a temp reg.
  RVTEST_SIGUPD(x12, x5, x4, x17, I_xori_cg_cr_rs1_imm_edges_rs1val_0x1_immval_m0x7ff, I_xori_cg_cr_rs1_imm_edges_rs1val_0x1_immval_m0x7ff_str)
    1070:	00062203          	lw	x4,0(x12)
    1074:	01120863          	beq	x4,x17,1084 <I_xori_cg_cr_rs1_imm_edges_rs1val_0x1_immval_m0x7ff+0x18>
    1078:	444022ef          	jal	x5,34bc <failedtest_x5_x4>
    107c:	0000106c          	.word	0x0000106c
    1080:	0000a0b4          	.word	0x0000a0b4
    1084:	00460613          	addi	x12,x12,4

# Testcase cr_rs1_imm_edges (rs1 = 0x00000001, imm = -2)
  RVTEST_TESTDATA_LOAD_INT(x24, x7) # load rs1: x7 = 0x00000001
    1088:	000c2383          	lw	x7,0(x24)
    108c:	004c0c13          	addi	x24,x24,4

00001090 <I_xori_cg_cr_rs1_imm_edges_rs1val_0x1_immval_m0x2>:
I_xori_cg_cr_rs1_imm_edges_rs1val_0x1_immval_m0x2:
  xori x29, x7, -2 # perform operation
    1090:	ffe3ce93          	xori	x29,x7,-2
  # Check if x29 contains the expected result. x12 is the signature ptr, x5 is the link ptr, x4 is a temp reg.
  RVTEST_SIGUPD(x12, x5, x4, x29, I_xori_cg_cr_rs1_imm_edges_rs1val_0x1_immval_m0x2, I_xori_cg_cr_rs1_imm_edges_rs1val_0x1_immval_m0x2_str)
    1094:	00062203          	lw	x4,0(x12)
    1098:	01d20863          	beq	x4,x29,10a8 <I_xori_cg_cr_rs1_imm_edges_rs1val_0x1_immval_m0x2+0x18>
    109c:	420022ef          	jal	x5,34bc <failedtest_x5_x4>
    10a0:	00001090          	.word	0x00001090
    10a4:	0000a105          	.word	0x0000a105
    10a8:	00460613          	addi	x12,x12,4

# Testcase cr_rs1_imm_edges (rs1 = 0x00000001, imm = -1)
  RVTEST_TESTDATA_LOAD_INT(x24, x7) # load rs1: x7 = 0x00000001
    10ac:	000c2383          	lw	x7,0(x24)
    10b0:	004c0c13          	addi	x24,x24,4

000010b4 <I_xori_cg_cr_rs1_imm_edges_rs1val_0x1_immval_m0x1>:
I_xori_cg_cr_rs1_imm_edges_rs1val_0x1_immval_m0x1:
  xori x10, x7, -1 # perform operation
    10b4:	fff3c513          	xori	x10,x7,-1
  # Check if x10 contains the expected result. x12 is the signature ptr, x5 is the link ptr, x4 is a temp reg.
  RVTEST_SIGUPD(x12, x5, x4, x10, I_xori_cg_cr_rs1_imm_edges_rs1val_0x1_immval_m0x1, I_xori_cg_cr_rs1_imm_edges_rs1val_0x1_immval_m0x1_str)
    10b8:	00062203          	lw	x4,0(x12)
    10bc:	00a20863          	beq	x4,x10,10cc <I_xori_cg_cr_rs1_imm_edges_rs1val_0x1_immval_m0x1+0x18>
    10c0:	3fc022ef          	jal	x5,34bc <failedtest_x5_x4>
    10c4:	000010b4          	.word	0x000010b4
    10c8:	0000a154          	.word	0x0000a154
    10cc:	00460613          	addi	x12,x12,4

# Testcase cr_rs1_imm_edges (rs1 = 0x00000002, imm = 0)
  RVTEST_TESTDATA_LOAD_INT(x24, x31) # load rs1: x31 = 0x00000002
    10d0:	000c2f83          	lw	x31,0(x24)
    10d4:	004c0c13          	addi	x24,x24,4

000010d8 <I_xori_cg_cr_rs1_imm_edges_rs1val_0x2_immval_0x0>:
I_xori_cg_cr_rs1_imm_edges_rs1val_0x2_immval_0x0:
  xori x16, x31, 0 # perform operation
    10d8:	000fc813          	xori	x16,x31,0
  # Check if x16 contains the expected result. x12 is the signature ptr, x5 is the link ptr, x4 is a temp reg.
  RVTEST_SIGUPD(x12, x5, x4, x16, I_xori_cg_cr_rs1_imm_edges_rs1val_0x2_immval_0x0, I_xori_cg_cr_rs1_imm_edges_rs1val_0x2_immval_0x0_str)
    10dc:	00062203          	lw	x4,0(x12)
    10e0:	01020863          	beq	x4,x16,10f0 <I_xori_cg_cr_rs1_imm_edges_rs1val_0x2_immval_0x0+0x18>
    10e4:	3d8022ef          	jal	x5,34bc <failedtest_x5_x4>
    10e8:	000010d8          	.word	0x000010d8
    10ec:	0000a1a3          	.word	0x0000a1a3
    10f0:	00460613          	addi	x12,x12,4

# Testcase cr_rs1_imm_edges (rs1 = 0x00000002, imm = 1)
  RVTEST_TESTDATA_LOAD_INT(x24, x10) # load rs1: x10 = 0x00000002
    10f4:	000c2503          	lw	x10,0(x24)
    10f8:	004c0c13          	addi	x24,x24,4

000010fc <I_xori_cg_cr_rs1_imm_edges_rs1val_0x2_immval_0x1>:
I_xori_cg_cr_rs1_imm_edges_rs1val_0x2_immval_0x1:
  xori x13, x10, 1 # perform operation
    10fc:	00154693          	xori	x13,x10,1
  # Check if x13 contains the expected result. x12 is the signature ptr, x5 is the link ptr, x4 is a temp reg.
  RVTEST_SIGUPD(x12, x5, x4, x13, I_xori_cg_cr_rs1_imm_edges_rs1val_0x2_immval_0x1, I_xori_cg_cr_rs1_imm_edges_rs1val_0x2_immval_0x1_str)
    1100:	00062203          	lw	x4,0(x12)
    1104:	00d20863          	beq	x4,x13,1114 <I_xori_cg_cr_rs1_imm_edges_rs1val_0x2_immval_0x1+0x18>
    1108:	3b4022ef          	jal	x5,34bc <failedtest_x5_x4>
    110c:	000010fc          	.word	0x000010fc
    1110:	0000a1f1          	.word	0x0000a1f1
    1114:	00460613          	addi	x12,x12,4

# Testcase cr_rs1_imm_edges (rs1 = 0x00000002, imm = 2)
  RVTEST_TESTDATA_LOAD_INT(x24, x11) # load rs1: x11 = 0x00000002
    1118:	000c2583          	lw	x11,0(x24)
    111c:	004c0c13          	addi	x24,x24,4

00001120 <I_xori_cg_cr_rs1_imm_edges_rs1val_0x2_immval_0x2>:
I_xori_cg_cr_rs1_imm_edges_rs1val_0x2_immval_0x2:
  xori x23, x11, 2 # perform operation
    1120:	0025cb93          	xori	x23,x11,2
  # Check if x23 contains the expected result. x12 is the signature ptr, x5 is the link ptr, x4 is a temp reg.
  RVTEST_SIGUPD(x12, x5, x4, x23, I_xori_cg_cr_rs1_imm_edges_rs1val_0x2_immval_0x2, I_xori_cg_cr_rs1_imm_edges_rs1val_0x2_immval_0x2_str)
    1124:	00062203          	lw	x4,0(x12)
    1128:	01720863          	beq	x4,x23,1138 <I_xori_cg_cr_rs1_imm_edges_rs1val_0x2_immval_0x2+0x18>
    112c:	390022ef          	jal	x5,34bc <failedtest_x5_x4>
    1130:	00001120          	.word	0x00001120
    1134:	0000a23f          	.word	0x0000a23f
    1138:	00460613          	addi	x12,x12,4

# Testcase cr_rs1_imm_edges (rs1 = 0x00000002, imm = 3)
  RVTEST_TESTDATA_LOAD_INT(x24, x17) # load rs1: x17 = 0x00000002
    113c:	000c2883          	lw	x17,0(x24)
    1140:	004c0c13          	addi	x24,x24,4

00001144 <I_xori_cg_cr_rs1_imm_edges_rs1val_0x2_immval_0x3>:
I_xori_cg_cr_rs1_imm_edges_rs1val_0x2_immval_0x3:
  xori x3, x17, 3 # perform operation
    1144:	0038c193          	xori	x3,x17,3
  # Check if x3 contains the expected result. x12 is the signature ptr, x5 is the link ptr, x4 is a temp reg.
  RVTEST_SIGUPD(x12, x5, x4, x3, I_xori_cg_cr_rs1_imm_edges_rs1val_0x2_immval_0x3, I_xori_cg_cr_rs1_imm_edges_rs1val_0x2_immval_0x3_str)
    1148:	00062203          	lw	x4,0(x12)
    114c:	00320863          	beq	x4,x3,115c <I_xori_cg_cr_rs1_imm_edges_rs1val_0x2_immval_0x3+0x18>
    1150:	36c022ef          	jal	x5,34bc <failedtest_x5_x4>
    1154:	00001144          	.word	0x00001144
    1158:	0000a28d          	.word	0x0000a28d
    115c:	00460613          	addi	x12,x12,4

# Testcase cr_rs1_imm_edges (rs1 = 0x00000002, imm = 4)
  RVTEST_TESTDATA_LOAD_INT(x24, x1) # load rs1: x1 = 0x00000002
    1160:	000c2083          	lw	x1,0(x24)
    1164:	004c0c13          	addi	x24,x24,4

00001168 <I_xori_cg_cr_rs1_imm_edges_rs1val_0x2_immval_0x4>:
I_xori_cg_cr_rs1_imm_edges_rs1val_0x2_immval_0x4:
  xori x15, x1, 4 # perform operation
    1168:	0040c793          	xori	x15,x1,4
  # Check if x15 contains the expected result. x12 is the signature ptr, x5 is the link ptr, x4 is a temp reg.
  RVTEST_SIGUPD(x12, x5, x4, x15, I_xori_cg_cr_rs1_imm_edges_rs1val_0x2_immval_0x4, I_xori_cg_cr_rs1_imm_edges_rs1val_0x2_immval_0x4_str)
    116c:	00062203          	lw	x4,0(x12)
    1170:	00f20863          	beq	x4,x15,1180 <I_xori_cg_cr_rs1_imm_edges_rs1val_0x2_immval_0x4+0x18>
    1174:	348022ef          	jal	x5,34bc <failedtest_x5_x4>
    1178:	00001168          	.word	0x00001168
    117c:	0000a2db          	.word	0x0000a2db
    1180:	00460613          	addi	x12,x12,4

# Testcase cr_rs1_imm_edges (rs1 = 0x00000002, imm = 8)
  RVTEST_TESTDATA_LOAD_INT(x24, x10) # load rs1: x10 = 0x00000002
    1184:	000c2503          	lw	x10,0(x24)
    1188:	004c0c13          	addi	x24,x24,4

0000118c <I_xori_cg_cr_rs1_imm_edges_rs1val_0x2_immval_0x8>:
I_xori_cg_cr_rs1_imm_edges_rs1val_0x2_immval_0x8:
  xori x27, x10, 8 # perform operation
    118c:	00854d93          	xori	x27,x10,8
  # Check if x27 contains the expected result. x12 is the signature ptr, x5 is the link ptr, x4 is a temp reg.
  RVTEST_SIGUPD(x12, x5, x4, x27, I_xori_cg_cr_rs1_imm_edges_rs1val_0x2_immval_0x8, I_xori_cg_cr_rs1_imm_edges_rs1val_0x2_immval_0x8_str)
    1190:	00062203          	lw	x4,0(x12)
    1194:	01b20863          	beq	x4,x27,11a4 <I_xori_cg_cr_rs1_imm_edges_rs1val_0x2_immval_0x8+0x18>
    1198:	324022ef          	jal	x5,34bc <failedtest_x5_x4>
    119c:	0000118c          	.word	0x0000118c
    11a0:	0000a329          	.word	0x0000a329
    11a4:	00460613          	addi	x12,x12,4

# Testcase cr_rs1_imm_edges (rs1 = 0x00000002, imm = 16)
  RVTEST_TESTDATA_LOAD_INT(x24, x20) # load rs1: x20 = 0x00000002
    11a8:	000c2a03          	lw	x20,0(x24)
    11ac:	004c0c13          	addi	x24,x24,4

000011b0 <I_xori_cg_cr_rs1_imm_edges_rs1val_0x2_immval_0x10>:
I_xori_cg_cr_rs1_imm_edges_rs1val_0x2_immval_0x10:
  xori x8, x20, 16 # perform operation
    11b0:	010a4413          	xori	x8,x20,16
  # Check if x8 contains the expected result. x12 is the signature ptr, x5 is the link ptr, x4 is a temp reg.
  RVTEST_SIGUPD(x12, x5, x4, x8, I_xori_cg_cr_rs1_imm_edges_rs1val_0x2_immval_0x10, I_xori_cg_cr_rs1_imm_edges_rs1val_0x2_immval_0x10_str)
    11b4:	00062203          	lw	x4,0(x12)
    11b8:	00820863          	beq	x4,x8,11c8 <I_xori_cg_cr_rs1_imm_edges_rs1val_0x2_immval_0x10+0x18>
    11bc:	300022ef          	jal	x5,34bc <failedtest_x5_x4>
    11c0:	000011b0          	.word	0x000011b0
    11c4:	0000a377          	.word	0x0000a377
    11c8:	00460613          	addi	x12,x12,4

# Testcase cr_rs1_imm_edges (rs1 = 0x00000002, imm = 32)
  RVTEST_TESTDATA_LOAD_INT(x24, x2) # load rs1: x2 = 0x00000002
    11cc:	000c2103          	lw	x2,0(x24)
    11d0:	004c0c13          	addi	x24,x24,4

000011d4 <I_xori_cg_cr_rs1_imm_edges_rs1val_0x2_immval_0x20>:
I_xori_cg_cr_rs1_imm_edges_rs1val_0x2_immval_0x20:
  xori x17, x2, 32 # perform operation
    11d4:	02014893          	xori	x17,x2,32
  # Check if x17 contains the expected result. x12 is the signature ptr, x5 is the link ptr, x4 is a temp reg.
  RVTEST_SIGUPD(x12, x5, x4, x17, I_xori_cg_cr_rs1_imm_edges_rs1val_0x2_immval_0x20, I_xori_cg_cr_rs1_imm_edges_rs1val_0x2_immval_0x20_str)
    11d8:	00062203          	lw	x4,0(x12)
    11dc:	01120863          	beq	x4,x17,11ec <I_xori_cg_cr_rs1_imm_edges_rs1val_0x2_immval_0x20+0x18>
    11e0:	2dc022ef          	jal	x5,34bc <failedtest_x5_x4>
    11e4:	000011d4          	.word	0x000011d4
    11e8:	0000a3c6          	.word	0x0000a3c6
    11ec:	00460613          	addi	x12,x12,4

# Testcase cr_rs1_imm_edges (rs1 = 0x00000002, imm = 64)
  RVTEST_TESTDATA_LOAD_INT(x24, x16) # load rs1: x16 = 0x00000002
    11f0:	000c2803          	lw	x16,0(x24)
    11f4:	004c0c13          	addi	x24,x24,4

000011f8 <I_xori_cg_cr_rs1_imm_edges_rs1val_0x2_immval_0x40>:
I_xori_cg_cr_rs1_imm_edges_rs1val_0x2_immval_0x40:
  xori x1, x16, 64 # perform operation
    11f8:	04084093          	xori	x1,x16,64
  # Check if x1 contains the expected result. x12 is the signature ptr, x5 is the link ptr, x4 is a temp reg.
  RVTEST_SIGUPD(x12, x5, x4, x1, I_xori_cg_cr_rs1_imm_edges_rs1val_0x2_immval_0x40, I_xori_cg_cr_rs1_imm_edges_rs1val_0x2_immval_0x40_str)
    11fc:	00062203          	lw	x4,0(x12)
    1200:	00120863          	beq	x4,x1,1210 <I_xori_cg_cr_rs1_imm_edges_rs1val_0x2_immval_0x40+0x18>
    1204:	2b8022ef          	jal	x5,34bc <failedtest_x5_x4>
    1208:	000011f8          	.word	0x000011f8
    120c:	0000a415          	.word	0x0000a415
    1210:	00460613          	addi	x12,x12,4

# Testcase cr_rs1_imm_edges (rs1 = 0x00000002, imm = 128)
  RVTEST_TESTDATA_LOAD_INT(x24, x31) # load rs1: x31 = 0x00000002
    1214:	000c2f83          	lw	x31,0(x24)
    1218:	004c0c13          	addi	x24,x24,4

0000121c <I_xori_cg_cr_rs1_imm_edges_rs1val_0x2_immval_0x80>:
I_xori_cg_cr_rs1_imm_edges_rs1val_0x2_immval_0x80:
  xori x19, x31, 128 # perform operation
    121c:	080fc993          	xori	x19,x31,128
  # Check if x19 contains the expected result. x12 is the signature ptr, x5 is the link ptr, x4 is a temp reg.
  RVTEST_SIGUPD(x12, x5, x4, x19, I_xori_cg_cr_rs1_imm_edges_rs1val_0x2_immval_0x80, I_xori_cg_cr_rs1_imm_edges_rs1val_0x2_immval_0x80_str)
    1220:	00062203          	lw	x4,0(x12)
    1224:	01320863          	beq	x4,x19,1234 <I_xori_cg_cr_rs1_imm_edges_rs1val_0x2_immval_0x80+0x18>
    1228:	294022ef          	jal	x5,34bc <failedtest_x5_x4>
    122c:	0000121c          	.word	0x0000121c
    1230:	0000a464          	.word	0x0000a464
    1234:	00460613          	addi	x12,x12,4

# Testcase cr_rs1_imm_edges (rs1 = 0x00000002, imm = 256)
  RVTEST_TESTDATA_LOAD_INT(x24, x29) # load rs1: x29 = 0x00000002
    1238:	000c2e83          	lw	x29,0(x24)
    123c:	004c0c13          	addi	x24,x24,4

00001240 <I_xori_cg_cr_rs1_imm_edges_rs1val_0x2_immval_0x100>:
I_xori_cg_cr_rs1_imm_edges_rs1val_0x2_immval_0x100:
  xori x16, x29, 256 # perform operation
    1240:	100ec813          	xori	x16,x29,256
  # Check if x16 contains the expected result. x12 is the signature ptr, x5 is the link ptr, x4 is a temp reg.
  RVTEST_SIGUPD(x12, x5, x4, x16, I_xori_cg_cr_rs1_imm_edges_rs1val_0x2_immval_0x100, I_xori_cg_cr_rs1_imm_edges_rs1val_0x2_immval_0x100_str)
    1244:	00062203          	lw	x4,0(x12)
    1248:	01020863          	beq	x4,x16,1258 <I_xori_cg_cr_rs1_imm_edges_rs1val_0x2_immval_0x100+0x18>
    124c:	270022ef          	jal	x5,34bc <failedtest_x5_x4>
    1250:	00001240          	.word	0x00001240
    1254:	0000a4b3          	.word	0x0000a4b3
    1258:	00460613          	addi	x12,x12,4

# Testcase cr_rs1_imm_edges (rs1 = 0x00000002, imm = 512)
  RVTEST_TESTDATA_LOAD_INT(x24, x11) # load rs1: x11 = 0x00000002
    125c:	000c2583          	lw	x11,0(x24)
    1260:	004c0c13          	addi	x24,x24,4

00001264 <I_xori_cg_cr_rs1_imm_edges_rs1val_0x2_immval_0x200>:
I_xori_cg_cr_rs1_imm_edges_rs1val_0x2_immval_0x200:
  xori x8, x11, 512 # perform operation
    1264:	2005c413          	xori	x8,x11,512
  # Check if x8 contains the expected result. x12 is the signature ptr, x5 is the link ptr, x4 is a temp reg.
  RVTEST_SIGUPD(x12, x5, x4, x8, I_xori_cg_cr_rs1_imm_edges_rs1val_0x2_immval_0x200, I_xori_cg_cr_rs1_imm_edges_rs1val_0x2_immval_0x200_str)
    1268:	00062203          	lw	x4,0(x12)
    126c:	00820863          	beq	x4,x8,127c <I_xori_cg_cr_rs1_imm_edges_rs1val_0x2_immval_0x200+0x18>
    1270:	24c022ef          	jal	x5,34bc <failedtest_x5_x4>
    1274:	00001264          	.word	0x00001264
    1278:	0000a503          	.word	0x0000a503
    127c:	00460613          	addi	x12,x12,4

# Testcase cr_rs1_imm_edges (rs1 = 0x00000002, imm = 1023)
  RVTEST_TESTDATA_LOAD_INT(x24, x15) # load rs1: x15 = 0x00000002
    1280:	000c2783          	lw	x15,0(x24)
    1284:	004c0c13          	addi	x24,x24,4

00001288 <I_xori_cg_cr_rs1_imm_edges_rs1val_0x2_immval_0x3ff>:
I_xori_cg_cr_rs1_imm_edges_rs1val_0x2_immval_0x3ff:
  xori x7, x15, 1023 # perform operation
    1288:	3ff7c393          	xori	x7,x15,1023
  # Check if x7 contains the expected result. x12 is the signature ptr, x5 is the link ptr, x4 is a temp reg.
  RVTEST_SIGUPD(x12, x5, x4, x7, I_xori_cg_cr_rs1_imm_edges_rs1val_0x2_immval_0x3ff, I_xori_cg_cr_rs1_imm_edges_rs1val_0x2_immval_0x3ff_str)
    128c:	00062203          	lw	x4,0(x12)
    1290:	00720863          	beq	x4,x7,12a0 <I_xori_cg_cr_rs1_imm_edges_rs1val_0x2_immval_0x3ff+0x18>
    1294:	228022ef          	jal	x5,34bc <failedtest_x5_x4>
    1298:	00001288          	.word	0x00001288
    129c:	0000a553          	.word	0x0000a553
    12a0:	00460613          	addi	x12,x12,4

# Testcase cr_rs1_imm_edges (rs1 = 0x00000002, imm = 1024)
  RVTEST_TESTDATA_LOAD_INT(x24, x13) # load rs1: x13 = 0x00000002
    12a4:	000c2683          	lw	x13,0(x24)
    12a8:	004c0c13          	addi	x24,x24,4

000012ac <I_xori_cg_cr_rs1_imm_edges_rs1val_0x2_immval_0x400>:
I_xori_cg_cr_rs1_imm_edges_rs1val_0x2_immval_0x400:
  xori x11, x13, 1024 # perform operation
    12ac:	4006c593          	xori	x11,x13,1024
  # Check if x11 contains the expected result. x12 is the signature ptr, x5 is the link ptr, x4 is a temp reg.
  RVTEST_SIGUPD(x12, x5, x4, x11, I_xori_cg_cr_rs1_imm_edges_rs1val_0x2_immval_0x400, I_xori_cg_cr_rs1_imm_edges_rs1val_0x2_immval_0x400_str)
    12b0:	00062203          	lw	x4,0(x12)
    12b4:	00b20863          	beq	x4,x11,12c4 <I_xori_cg_cr_rs1_imm_edges_rs1val_0x2_immval_0x400+0x18>
    12b8:	204022ef          	jal	x5,34bc <failedtest_x5_x4>
    12bc:	000012ac          	.word	0x000012ac
    12c0:	0000a5a3          	.word	0x0000a5a3
    12c4:	00460613          	addi	x12,x12,4

# Testcase cr_rs1_imm_edges (rs1 = 0x00000002, imm = 1795)
  RVTEST_TESTDATA_LOAD_INT(x24, x6) # load rs1: x6 = 0x00000002
    12c8:	000c2303          	lw	x6,0(x24)
    12cc:	004c0c13          	addi	x24,x24,4

000012d0 <I_xori_cg_cr_rs1_imm_edges_rs1val_0x2_immval_0x703>:
I_xori_cg_cr_rs1_imm_edges_rs1val_0x2_immval_0x703:
  xori x16, x6, 1795 # perform operation
    12d0:	70334813          	xori	x16,x6,1795
  # Check if x16 contains the expected result. x12 is the signature ptr, x5 is the link ptr, x4 is a temp reg.
  RVTEST_SIGUPD(x12, x5, x4, x16, I_xori_cg_cr_rs1_imm_edges_rs1val_0x2_immval_0x703, I_xori_cg_cr_rs1_imm_edges_rs1val_0x2_immval_0x703_str)
    12d4:	00062203          	lw	x4,0(x12)
    12d8:	01020863          	beq	x4,x16,12e8 <I_xori_cg_cr_rs1_imm_edges_rs1val_0x2_immval_0x703+0x18>
    12dc:	1e0022ef          	jal	x5,34bc <failedtest_x5_x4>
    12e0:	000012d0          	.word	0x000012d0
    12e4:	0000a5f3          	.word	0x0000a5f3
    12e8:	00460613          	addi	x12,x12,4

# Testcase cr_rs1_imm_edges (rs1 = 0x00000002, imm = 2047)
  RVTEST_TESTDATA_LOAD_INT(x24, x17) # load rs1: x17 = 0x00000002
    12ec:	000c2883          	lw	x17,0(x24)
    12f0:	004c0c13          	addi	x24,x24,4

000012f4 <I_xori_cg_cr_rs1_imm_edges_rs1val_0x2_immval_0x7ff>:
I_xori_cg_cr_rs1_imm_edges_rs1val_0x2_immval_0x7ff:
  xori x15, x17, 2047 # perform operation
    12f4:	7ff8c793          	xori	x15,x17,2047
  # Check if x15 contains the expected result. x12 is the signature ptr, x5 is the link ptr, x4 is a temp reg.
  RVTEST_SIGUPD(x12, x5, x4, x15, I_xori_cg_cr_rs1_imm_edges_rs1val_0x2_immval_0x7ff, I_xori_cg_cr_rs1_imm_edges_rs1val_0x2_immval_0x7ff_str)
    12f8:	00062203          	lw	x4,0(x12)
    12fc:	00f20863          	beq	x4,x15,130c <I_xori_cg_cr_rs1_imm_edges_rs1val_0x2_immval_0x7ff+0x18>
    1300:	1bc022ef          	jal	x5,34bc <failedtest_x5_x4>
    1304:	000012f4          	.word	0x000012f4
    1308:	0000a643          	.word	0x0000a643
    130c:	00460613          	addi	x12,x12,4

# Testcase cr_rs1_imm_edges (rs1 = 0x00000002, imm = -2048)
  RVTEST_TESTDATA_LOAD_INT(x24, x25) # load rs1: x25 = 0x00000002
    1310:	000c2c83          	lw	x25,0(x24)
    1314:	004c0c13          	addi	x24,x24,4

00001318 <I_xori_cg_cr_rs1_imm_edges_rs1val_0x2_immval_m0x800>:
I_xori_cg_cr_rs1_imm_edges_rs1val_0x2_immval_m0x800:
  xori x17, x25, -2048 # perform operation
    1318:	800cc893          	xori	x17,x25,-2048
  # Check if x17 contains the expected result. x12 is the signature ptr, x5 is the link ptr, x4 is a temp reg.
  RVTEST_SIGUPD(x12, x5, x4, x17, I_xori_cg_cr_rs1_imm_edges_rs1val_0x2_immval_m0x800, I_xori_cg_cr_rs1_imm_edges_rs1val_0x2_immval_m0x800_str)
    131c:	00062203          	lw	x4,0(x12)
    1320:	01120863          	beq	x4,x17,1330 <I_xori_cg_cr_rs1_imm_edges_rs1val_0x2_immval_m0x800+0x18>
    1324:	198022ef          	jal	x5,34bc <failedtest_x5_x4>
    1328:	00001318          	.word	0x00001318
    132c:	0000a693          	.word	0x0000a693
    1330:	00460613          	addi	x12,x12,4

# Testcase cr_rs1_imm_edges (rs1 = 0x00000002, imm = -2047)
  RVTEST_TESTDATA_LOAD_INT(x24, x17) # load rs1: x17 = 0x00000002
    1334:	000c2883          	lw	x17,0(x24)
    1338:	004c0c13          	addi	x24,x24,4

0000133c <I_xori_cg_cr_rs1_imm_edges_rs1val_0x2_immval_m0x7ff>:
I_xori_cg_cr_rs1_imm_edges_rs1val_0x2_immval_m0x7ff:
  xori x11, x17, -2047 # perform operation
    133c:	8018c593          	xori	x11,x17,-2047
  # Check if x11 contains the expected result. x12 is the signature ptr, x5 is the link ptr, x4 is a temp reg.
  RVTEST_SIGUPD(x12, x5, x4, x11, I_xori_cg_cr_rs1_imm_edges_rs1val_0x2_immval_m0x7ff, I_xori_cg_cr_rs1_imm_edges_rs1val_0x2_immval_m0x7ff_str)
    1340:	00062203          	lw	x4,0(x12)
    1344:	00b20863          	beq	x4,x11,1354 <I_xori_cg_cr_rs1_imm_edges_rs1val_0x2_immval_m0x7ff+0x18>
    1348:	174022ef          	jal	x5,34bc <failedtest_x5_x4>
    134c:	0000133c          	.word	0x0000133c
    1350:	0000a6e4          	.word	0x0000a6e4
    1354:	00460613          	addi	x12,x12,4

# Testcase cr_rs1_imm_edges (rs1 = 0x00000002, imm = -2)
  RVTEST_TESTDATA_LOAD_INT(x24, x23) # load rs1: x23 = 0x00000002
    1358:	000c2b83          	lw	x23,0(x24)
    135c:	004c0c13          	addi	x24,x24,4

00001360 <I_xori_cg_cr_rs1_imm_edges_rs1val_0x2_immval_m0x2>:
I_xori_cg_cr_rs1_imm_edges_rs1val_0x2_immval_m0x2:
  xori x17, x23, -2 # perform operation
    1360:	ffebc893          	xori	x17,x23,-2
  # Check if x17 contains the expected result. x12 is the signature ptr, x5 is the link ptr, x4 is a temp reg.
  RVTEST_SIGUPD(x12, x5, x4, x17, I_xori_cg_cr_rs1_imm_edges_rs1val_0x2_immval_m0x2, I_xori_cg_cr_rs1_imm_edges_rs1val_0x2_immval_m0x2_str)
    1364:	00062203          	lw	x4,0(x12)
    1368:	01120863          	beq	x4,x17,1378 <I_xori_cg_cr_rs1_imm_edges_rs1val_0x2_immval_m0x2+0x18>
    136c:	150022ef          	jal	x5,34bc <failedtest_x5_x4>
    1370:	00001360          	.word	0x00001360
    1374:	0000a735          	.word	0x0000a735
    1378:	00460613          	addi	x12,x12,4

# Testcase cr_rs1_imm_edges (rs1 = 0x00000002, imm = -1)
  RVTEST_TESTDATA_LOAD_INT(x24, x25) # load rs1: x25 = 0x00000002
    137c:	000c2c83          	lw	x25,0(x24)
    1380:	004c0c13          	addi	x24,x24,4

00001384 <I_xori_cg_cr_rs1_imm_edges_rs1val_0x2_immval_m0x1>:
I_xori_cg_cr_rs1_imm_edges_rs1val_0x2_immval_m0x1:
  xori x3, x25, -1 # perform operation
    1384:	fffcc193          	xori	x3,x25,-1
  # Check if x3 contains the expected result. x12 is the signature ptr, x5 is the link ptr, x4 is a temp reg.
  RVTEST_SIGUPD(x12, x5, x4, x3, I_xori_cg_cr_rs1_imm_edges_rs1val_0x2_immval_m0x1, I_xori_cg_cr_rs1_imm_edges_rs1val_0x2_immval_m0x1_str)
    1388:	00062203          	lw	x4,0(x12)
    138c:	00320863          	beq	x4,x3,139c <I_xori_cg_cr_rs1_imm_edges_rs1val_0x2_immval_m0x1+0x18>
    1390:	12c022ef          	jal	x5,34bc <failedtest_x5_x4>
    1394:	00001384          	.word	0x00001384
    1398:	0000a784          	.word	0x0000a784
    139c:	00460613          	addi	x12,x12,4

# Testcase cr_rs1_imm_edges (rs1 = 0x80000000, imm = 0)
  RVTEST_TESTDATA_LOAD_INT(x24, x7) # load rs1: x7 = 0x80000000
    13a0:	000c2383          	lw	x7,0(x24)
    13a4:	004c0c13          	addi	x24,x24,4

000013a8 <I_xori_cg_cr_rs1_imm_edges_rs1val_0x80000000_immval_0x0>:
I_xori_cg_cr_rs1_imm_edges_rs1val_0x80000000_immval_0x0:
  xori x11, x7, 0 # perform operation
    13a8:	0003c593          	xori	x11,x7,0
  # Check if x11 contains the expected result. x12 is the signature ptr, x5 is the link ptr, x4 is a temp reg.
  RVTEST_SIGUPD(x12, x5, x4, x11, I_xori_cg_cr_rs1_imm_edges_rs1val_0x80000000_immval_0x0, I_xori_cg_cr_rs1_imm_edges_rs1val_0x80000000_immval_0x0_str)
    13ac:	00062203          	lw	x4,0(x12)
    13b0:	00b20863          	beq	x4,x11,13c0 <I_xori_cg_cr_rs1_imm_edges_rs1val_0x80000000_immval_0x0+0x18>
    13b4:	108022ef          	jal	x5,34bc <failedtest_x5_x4>
    13b8:	000013a8          	.word	0x000013a8
    13bc:	0000a7d3          	.word	0x0000a7d3
    13c0:	00460613          	addi	x12,x12,4

# Testcase cr_rs1_imm_edges (rs1 = 0x80000000, imm = 1)
  RVTEST_TESTDATA_LOAD_INT(x24, x28) # load rs1: x28 = 0x80000000
    13c4:	000c2e03          	lw	x28,0(x24)
    13c8:	004c0c13          	addi	x24,x24,4

000013cc <I_xori_cg_cr_rs1_imm_edges_rs1val_0x80000000_immval_0x1>:
I_xori_cg_cr_rs1_imm_edges_rs1val_0x80000000_immval_0x1:
  xori x14, x28, 1 # perform operation
    13cc:	001e4713          	xori	x14,x28,1
  # Check if x14 contains the expected result. x12 is the signature ptr, x5 is the link ptr, x4 is a temp reg.
  RVTEST_SIGUPD(x12, x5, x4, x14, I_xori_cg_cr_rs1_imm_edges_rs1val_0x80000000_immval_0x1, I_xori_cg_cr_rs1_imm_edges_rs1val_0x80000000_immval_0x1_str)
    13d0:	00062203          	lw	x4,0(x12)
    13d4:	00e20863          	beq	x4,x14,13e4 <I_xori_cg_cr_rs1_imm_edges_rs1val_0x80000000_immval_0x1+0x18>
    13d8:	0e4022ef          	jal	x5,34bc <failedtest_x5_x4>
    13dc:	000013cc          	.word	0x000013cc
    13e0:	0000a828          	.word	0x0000a828
    13e4:	00460613          	addi	x12,x12,4

# Testcase cr_rs1_imm_edges (rs1 = 0x80000000, imm = 2)
  RVTEST_TESTDATA_LOAD_INT(x24, x20) # load rs1: x20 = 0x80000000
    13e8:	000c2a03          	lw	x20,0(x24)
    13ec:	004c0c13          	addi	x24,x24,4

000013f0 <I_xori_cg_cr_rs1_imm_edges_rs1val_0x80000000_immval_0x2>:
I_xori_cg_cr_rs1_imm_edges_rs1val_0x80000000_immval_0x2:
  xori x8, x20, 2 # perform operation
    13f0:	002a4413          	xori	x8,x20,2
  # Check if x8 contains the expected result. x12 is the signature ptr, x5 is the link ptr, x4 is a temp reg.
  RVTEST_SIGUPD(x12, x5, x4, x8, I_xori_cg_cr_rs1_imm_edges_rs1val_0x80000000_immval_0x2, I_xori_cg_cr_rs1_imm_edges_rs1val_0x80000000_immval_0x2_str)
    13f4:	00062203          	lw	x4,0(x12)
    13f8:	00820863          	beq	x4,x8,1408 <I_xori_cg_cr_rs1_imm_edges_rs1val_0x80000000_immval_0x2+0x18>
    13fc:	0c0022ef          	jal	x5,34bc <failedtest_x5_x4>
    1400:	000013f0          	.word	0x000013f0
    1404:	0000a87d          	.word	0x0000a87d
    1408:	00460613          	addi	x12,x12,4

# Testcase cr_rs1_imm_edges (rs1 = 0x80000000, imm = 3)
  RVTEST_TESTDATA_LOAD_INT(x24, x22) # load rs1: x22 = 0x80000000
    140c:	000c2b03          	lw	x22,0(x24)
    1410:	004c0c13          	addi	x24,x24,4

00001414 <I_xori_cg_cr_rs1_imm_edges_rs1val_0x80000000_immval_0x3>:
I_xori_cg_cr_rs1_imm_edges_rs1val_0x80000000_immval_0x3:
  xori x6, x22, 3 # perform operation
    1414:	003b4313          	xori	x6,x22,3
  # Check if x6 contains the expected result. x12 is the signature ptr, x5 is the link ptr, x4 is a temp reg.
  RVTEST_SIGUPD(x12, x5, x4, x6, I_xori_cg_cr_rs1_imm_edges_rs1val_0x80000000_immval_0x3, I_xori_cg_cr_rs1_imm_edges_rs1val_0x80000000_immval_0x3_str)
    1418:	00062203          	lw	x4,0(x12)
    141c:	00620863          	beq	x4,x6,142c <I_xori_cg_cr_rs1_imm_edges_rs1val_0x80000000_immval_0x3+0x18>
    1420:	09c022ef          	jal	x5,34bc <failedtest_x5_x4>
    1424:	00001414          	.word	0x00001414
    1428:	0000a8d2          	.word	0x0000a8d2
    142c:	00460613          	addi	x12,x12,4

# Testcase cr_rs1_imm_edges (rs1 = 0x80000000, imm = 4)
  RVTEST_TESTDATA_LOAD_INT(x24, x11) # load rs1: x11 = 0x80000000
    1430:	000c2583          	lw	x11,0(x24)
    1434:	004c0c13          	addi	x24,x24,4

00001438 <I_xori_cg_cr_rs1_imm_edges_rs1val_0x80000000_immval_0x4>:
I_xori_cg_cr_rs1_imm_edges_rs1val_0x80000000_immval_0x4:
  xori x20, x11, 4 # perform operation
    1438:	0045ca13          	xori	x20,x11,4
  # Check if x20 contains the expected result. x12 is the signature ptr, x5 is the link ptr, x4 is a temp reg.
  RVTEST_SIGUPD(x12, x5, x4, x20, I_xori_cg_cr_rs1_imm_edges_rs1val_0x80000000_immval_0x4, I_xori_cg_cr_rs1_imm_edges_rs1val_0x80000000_immval_0x4_str)
    143c:	00062203          	lw	x4,0(x12)
    1440:	01420863          	beq	x4,x20,1450 <I_xori_cg_cr_rs1_imm_edges_rs1val_0x80000000_immval_0x4+0x18>
    1444:	078022ef          	jal	x5,34bc <failedtest_x5_x4>
    1448:	00001438          	.word	0x00001438
    144c:	0000a927          	.word	0x0000a927
    1450:	00460613          	addi	x12,x12,4

# Testcase cr_rs1_imm_edges (rs1 = 0x80000000, imm = 8)
  RVTEST_TESTDATA_LOAD_INT(x24, x19) # load rs1: x19 = 0x80000000
    1454:	000c2983          	lw	x19,0(x24)
    1458:	004c0c13          	addi	x24,x24,4

0000145c <I_xori_cg_cr_rs1_imm_edges_rs1val_0x80000000_immval_0x8>:
I_xori_cg_cr_rs1_imm_edges_rs1val_0x80000000_immval_0x8:
  xori x14, x19, 8 # perform operation
    145c:	0089c713          	xori	x14,x19,8
  # Check if x14 contains the expected result. x12 is the signature ptr, x5 is the link ptr, x4 is a temp reg.
  RVTEST_SIGUPD(x12, x5, x4, x14, I_xori_cg_cr_rs1_imm_edges_rs1val_0x80000000_immval_0x8, I_xori_cg_cr_rs1_imm_edges_rs1val_0x80000000_immval_0x8_str)
    1460:	00062203          	lw	x4,0(x12)
    1464:	00e20863          	beq	x4,x14,1474 <I_xori_cg_cr_rs1_imm_edges_rs1val_0x80000000_immval_0x8+0x18>
    1468:	054022ef          	jal	x5,34bc <failedtest_x5_x4>
    146c:	0000145c          	.word	0x0000145c
    1470:	0000a97c          	.word	0x0000a97c
    1474:	00460613          	addi	x12,x12,4

# Testcase cr_rs1_imm_edges (rs1 = 0x80000000, imm = 16)
  RVTEST_TESTDATA_LOAD_INT(x24, x14) # load rs1: x14 = 0x80000000
    1478:	000c2703          	lw	x14,0(x24)
    147c:	004c0c13          	addi	x24,x24,4

00001480 <I_xori_cg_cr_rs1_imm_edges_rs1val_0x80000000_immval_0x10>:
I_xori_cg_cr_rs1_imm_edges_rs1val_0x80000000_immval_0x10:
  xori x30, x14, 16 # perform operation
    1480:	01074f13          	xori	x30,x14,16
  # Check if x30 contains the expected result. x12 is the signature ptr, x5 is the link ptr, x4 is a temp reg.
  RVTEST_SIGUPD(x12, x5, x4, x30, I_xori_cg_cr_rs1_imm_edges_rs1val_0x80000000_immval_0x10, I_xori_cg_cr_rs1_imm_edges_rs1val_0x80000000_immval_0x10_str)
    1484:	00062203          	lw	x4,0(x12)
    1488:	01e20863          	beq	x4,x30,1498 <I_xori_cg_cr_rs1_imm_edges_rs1val_0x80000000_immval_0x10+0x18>
    148c:	030022ef          	jal	x5,34bc <failedtest_x5_x4>
    1490:	00001480          	.word	0x00001480
    1494:	0000a9d1          	.word	0x0000a9d1
    1498:	00460613          	addi	x12,x12,4

# Testcase cr_rs1_imm_edges (rs1 = 0x80000000, imm = 32)
  RVTEST_TESTDATA_LOAD_INT(x24, x17) # load rs1: x17 = 0x80000000
    149c:	000c2883          	lw	x17,0(x24)
    14a0:	004c0c13          	addi	x24,x24,4

000014a4 <I_xori_cg_cr_rs1_imm_edges_rs1val_0x80000000_immval_0x20>:
I_xori_cg_cr_rs1_imm_edges_rs1val_0x80000000_immval_0x20:
  xori x25, x17, 32 # perform operation
    14a4:	0208cc93          	xori	x25,x17,32
  # Check if x25 contains the expected result. x12 is the signature ptr, x5 is the link ptr, x4 is a temp reg.
  RVTEST_SIGUPD(x12, x5, x4, x25, I_xori_cg_cr_rs1_imm_edges_rs1val_0x80000000_immval_0x20, I_xori_cg_cr_rs1_imm_edges_rs1val_0x80000000_immval_0x20_str)
    14a8:	00062203          	lw	x4,0(x12)
    14ac:	01920863          	beq	x4,x25,14bc <I_xori_cg_cr_rs1_imm_edges_rs1val_0x80000000_immval_0x20+0x18>
    14b0:	00c022ef          	jal	x5,34bc <failedtest_x5_x4>
    14b4:	000014a4          	.word	0x000014a4
    14b8:	0000aa27          	.word	0x0000aa27
    14bc:	00460613          	addi	x12,x12,4

# Testcase cr_rs1_imm_edges (rs1 = 0x80000000, imm = 64)
  RVTEST_TESTDATA_LOAD_INT(x24, x1) # load rs1: x1 = 0x80000000
    14c0:	000c2083          	lw	x1,0(x24)
    14c4:	004c0c13          	addi	x24,x24,4

000014c8 <I_xori_cg_cr_rs1_imm_edges_rs1val_0x80000000_immval_0x40>:
I_xori_cg_cr_rs1_imm_edges_rs1val_0x80000000_immval_0x40:
  xori x15, x1, 64 # perform operation
    14c8:	0400c793          	xori	x15,x1,64
  # Check if x15 contains the expected result. x12 is the signature ptr, x5 is the link ptr, x4 is a temp reg.
  RVTEST_SIGUPD(x12, x5, x4, x15, I_xori_cg_cr_rs1_imm_edges_rs1val_0x80000000_immval_0x40, I_xori_cg_cr_rs1_imm_edges_rs1val_0x80000000_immval_0x40_str)
    14cc:	00062203          	lw	x4,0(x12)
    14d0:	00f20863          	beq	x4,x15,14e0 <I_xori_cg_cr_rs1_imm_edges_rs1val_0x80000000_immval_0x40+0x18>
    14d4:	7e9012ef          	jal	x5,34bc <failedtest_x5_x4>
    14d8:	000014c8          	.word	0x000014c8
    14dc:	0000aa7d          	.word	0x0000aa7d
    14e0:	00460613          	addi	x12,x12,4

# Testcase cr_rs1_imm_edges (rs1 = 0x80000000, imm = 128)
  RVTEST_TESTDATA_LOAD_INT(x24, x7) # load rs1: x7 = 0x80000000
    14e4:	000c2383          	lw	x7,0(x24)
    14e8:	004c0c13          	addi	x24,x24,4

000014ec <I_xori_cg_cr_rs1_imm_edges_rs1val_0x80000000_immval_0x80>:
I_xori_cg_cr_rs1_imm_edges_rs1val_0x80000000_immval_0x80:
  xori x26, x7, 128 # perform operation
    14ec:	0803cd13          	xori	x26,x7,128
  # Check if x26 contains the expected result. x12 is the signature ptr, x5 is the link ptr, x4 is a temp reg.
  RVTEST_SIGUPD(x12, x5, x4, x26, I_xori_cg_cr_rs1_imm_edges_rs1val_0x80000000_immval_0x80, I_xori_cg_cr_rs1_imm_edges_rs1val_0x80000000_immval_0x80_str)
    14f0:	00062203          	lw	x4,0(x12)
    14f4:	01a20863          	beq	x4,x26,1504 <I_xori_cg_cr_rs1_imm_edges_rs1val_0x80000000_immval_0x80+0x18>
    14f8:	7c5012ef          	jal	x5,34bc <failedtest_x5_x4>
    14fc:	000014ec          	.word	0x000014ec
    1500:	0000aad3          	.word	0x0000aad3
    1504:	00460613          	addi	x12,x12,4

# Testcase cr_rs1_imm_edges (rs1 = 0x80000000, imm = 256)
  RVTEST_TESTDATA_LOAD_INT(x24, x7) # load rs1: x7 = 0x80000000
    1508:	000c2383          	lw	x7,0(x24)
    150c:	004c0c13          	addi	x24,x24,4

00001510 <I_xori_cg_cr_rs1_imm_edges_rs1val_0x80000000_immval_0x100>:
I_xori_cg_cr_rs1_imm_edges_rs1val_0x80000000_immval_0x100:
  xori x15, x7, 256 # perform operation
    1510:	1003c793          	xori	x15,x7,256
  # Check if x15 contains the expected result. x12 is the signature ptr, x5 is the link ptr, x4 is a temp reg.
  RVTEST_SIGUPD(x12, x5, x4, x15, I_xori_cg_cr_rs1_imm_edges_rs1val_0x80000000_immval_0x100, I_xori_cg_cr_rs1_imm_edges_rs1val_0x80000000_immval_0x100_str)
    1514:	00062203          	lw	x4,0(x12)
    1518:	00f20863          	beq	x4,x15,1528 <I_xori_cg_cr_rs1_imm_edges_rs1val_0x80000000_immval_0x100+0x18>
    151c:	7a1012ef          	jal	x5,34bc <failedtest_x5_x4>
    1520:	00001510          	.word	0x00001510
    1524:	0000ab29          	.word	0x0000ab29
    1528:	00460613          	addi	x12,x12,4

# Testcase cr_rs1_imm_edges (rs1 = 0x80000000, imm = 512)
  RVTEST_TESTDATA_LOAD_INT(x24, x9) # load rs1: x9 = 0x80000000
    152c:	000c2483          	lw	x9,0(x24)
    1530:	004c0c13          	addi	x24,x24,4

00001534 <I_xori_cg_cr_rs1_imm_edges_rs1val_0x80000000_immval_0x200>:
I_xori_cg_cr_rs1_imm_edges_rs1val_0x80000000_immval_0x200:
  xori x11, x9, 512 # perform operation
    1534:	2004c593          	xori	x11,x9,512
  # Check if x11 contains the expected result. x12 is the signature ptr, x5 is the link ptr, x4 is a temp reg.
  RVTEST_SIGUPD(x12, x5, x4, x11, I_xori_cg_cr_rs1_imm_edges_rs1val_0x80000000_immval_0x200, I_xori_cg_cr_rs1_imm_edges_rs1val_0x80000000_immval_0x200_str)
    1538:	00062203          	lw	x4,0(x12)
    153c:	00b20863          	beq	x4,x11,154c <I_xori_cg_cr_rs1_imm_edges_rs1val_0x80000000_immval_0x200+0x18>
    1540:	77d012ef          	jal	x5,34bc <failedtest_x5_x4>
    1544:	00001534          	.word	0x00001534
    1548:	0000ab80          	.word	0x0000ab80
    154c:	00460613          	addi	x12,x12,4

# Testcase cr_rs1_imm_edges (rs1 = 0x80000000, imm = 1023)
  RVTEST_TESTDATA_LOAD_INT(x24, x13) # load rs1: x13 = 0x80000000
    1550:	000c2683          	lw	x13,0(x24)
    1554:	004c0c13          	addi	x24,x24,4

00001558 <I_xori_cg_cr_rs1_imm_edges_rs1val_0x80000000_immval_0x3ff>:
I_xori_cg_cr_rs1_imm_edges_rs1val_0x80000000_immval_0x3ff:
  xori x15, x13, 1023 # perform operation
    1558:	3ff6c793          	xori	x15,x13,1023
  # Check if x15 contains the expected result. x12 is the signature ptr, x5 is the link ptr, x4 is a temp reg.
  RVTEST_SIGUPD(x12, x5, x4, x15, I_xori_cg_cr_rs1_imm_edges_rs1val_0x80000000_immval_0x3ff, I_xori_cg_cr_rs1_imm_edges_rs1val_0x80000000_immval_0x3ff_str)
    155c:	00062203          	lw	x4,0(x12)
    1560:	00f20863          	beq	x4,x15,1570 <I_xori_cg_cr_rs1_imm_edges_rs1val_0x80000000_immval_0x3ff+0x18>
    1564:	759012ef          	jal	x5,34bc <failedtest_x5_x4>
    1568:	00001558          	.word	0x00001558
    156c:	0000abd7          	.word	0x0000abd7
    1570:	00460613          	addi	x12,x12,4

# Testcase cr_rs1_imm_edges (rs1 = 0x80000000, imm = 1024)
  RVTEST_TESTDATA_LOAD_INT(x24, x15) # load rs1: x15 = 0x80000000
    1574:	000c2783          	lw	x15,0(x24)
    1578:	004c0c13          	addi	x24,x24,4

0000157c <I_xori_cg_cr_rs1_imm_edges_rs1val_0x80000000_immval_0x400>:
I_xori_cg_cr_rs1_imm_edges_rs1val_0x80000000_immval_0x400:
  xori x16, x15, 1024 # perform operation
    157c:	4007c813          	xori	x16,x15,1024
  # Check if x16 contains the expected result. x12 is the signature ptr, x5 is the link ptr, x4 is a temp reg.
  RVTEST_SIGUPD(x12, x5, x4, x16, I_xori_cg_cr_rs1_imm_edges_rs1val_0x80000000_immval_0x400, I_xori_cg_cr_rs1_imm_edges_rs1val_0x80000000_immval_0x400_str)
    1580:	00062203          	lw	x4,0(x12)
    1584:	01020863          	beq	x4,x16,1594 <I_xori_cg_cr_rs1_imm_edges_rs1val_0x80000000_immval_0x400+0x18>
    1588:	735012ef          	jal	x5,34bc <failedtest_x5_x4>
    158c:	0000157c          	.word	0x0000157c
    1590:	0000ac2e          	.word	0x0000ac2e
    1594:	00460613          	addi	x12,x12,4

# Testcase cr_rs1_imm_edges (rs1 = 0x80000000, imm = 1795)
  RVTEST_TESTDATA_LOAD_INT(x24, x6) # load rs1: x6 = 0x80000000
    1598:	000c2303          	lw	x6,0(x24)
    159c:	004c0c13          	addi	x24,x24,4

000015a0 <I_xori_cg_cr_rs1_imm_edges_rs1val_0x80000000_immval_0x703>:
I_xori_cg_cr_rs1_imm_edges_rs1val_0x80000000_immval_0x703:
  xori x9, x6, 1795 # perform operation
    15a0:	70334493          	xori	x9,x6,1795
  # Check if x9 contains the expected result. x12 is the signature ptr, x5 is the link ptr, x4 is a temp reg.
  RVTEST_SIGUPD(x12, x5, x4, x9, I_xori_cg_cr_rs1_imm_edges_rs1val_0x80000000_immval_0x703, I_xori_cg_cr_rs1_imm_edges_rs1val_0x80000000_immval_0x703_str)
    15a4:	00062203          	lw	x4,0(x12)
    15a8:	00920863          	beq	x4,x9,15b8 <I_xori_cg_cr_rs1_imm_edges_rs1val_0x80000000_immval_0x703+0x18>
    15ac:	711012ef          	jal	x5,34bc <failedtest_x5_x4>
    15b0:	000015a0          	.word	0x000015a0
    15b4:	0000ac85          	.word	0x0000ac85
    15b8:	00460613          	addi	x12,x12,4

# Testcase cr_rs1_imm_edges (rs1 = 0x80000000, imm = 2047)
  RVTEST_TESTDATA_LOAD_INT(x24, x7) # load rs1: x7 = 0x80000000
    15bc:	000c2383          	lw	x7,0(x24)
    15c0:	004c0c13          	addi	x24,x24,4

000015c4 <I_xori_cg_cr_rs1_imm_edges_rs1val_0x80000000_immval_0x7ff>:
I_xori_cg_cr_rs1_imm_edges_rs1val_0x80000000_immval_0x7ff:
  xori x21, x7, 2047 # perform operation
    15c4:	7ff3ca93          	xori	x21,x7,2047
  # Check if x21 contains the expected result. x12 is the signature ptr, x5 is the link ptr, x4 is a temp reg.
  RVTEST_SIGUPD(x12, x5, x4, x21, I_xori_cg_cr_rs1_imm_edges_rs1val_0x80000000_immval_0x7ff, I_xori_cg_cr_rs1_imm_edges_rs1val_0x80000000_immval_0x7ff_str)
    15c8:	00062203          	lw	x4,0(x12)
    15cc:	01520863          	beq	x4,x21,15dc <I_xori_cg_cr_rs1_imm_edges_rs1val_0x80000000_immval_0x7ff+0x18>
    15d0:	6ed012ef          	jal	x5,34bc <failedtest_x5_x4>
    15d4:	000015c4          	.word	0x000015c4
    15d8:	0000acdc          	.word	0x0000acdc
    15dc:	00460613          	addi	x12,x12,4

# Testcase cr_rs1_imm_edges (rs1 = 0x80000000, imm = -2048)
  RVTEST_TESTDATA_LOAD_INT(x24, x23) # load rs1: x23 = 0x80000000
    15e0:	000c2b83          	lw	x23,0(x24)
    15e4:	004c0c13          	addi	x24,x24,4

000015e8 <I_xori_cg_cr_rs1_imm_edges_rs1val_0x80000000_immval_m0x800>:
I_xori_cg_cr_rs1_imm_edges_rs1val_0x80000000_immval_m0x800:
  xori x8, x23, -2048 # perform operation
    15e8:	800bc413          	xori	x8,x23,-2048
  # Check if x8 contains the expected result. x12 is the signature ptr, x5 is the link ptr, x4 is a temp reg.
  RVTEST_SIGUPD(x12, x5, x4, x8, I_xori_cg_cr_rs1_imm_edges_rs1val_0x80000000_immval_m0x800, I_xori_cg_cr_rs1_imm_edges_rs1val_0x80000000_immval_m0x800_str)
    15ec:	00062203          	lw	x4,0(x12)
    15f0:	00820863          	beq	x4,x8,1600 <I_xori_cg_cr_rs1_imm_edges_rs1val_0x80000000_immval_m0x800+0x18>
    15f4:	6c9012ef          	jal	x5,34bc <failedtest_x5_x4>
    15f8:	000015e8          	.word	0x000015e8
    15fc:	0000ad33          	.word	0x0000ad33
    1600:	00460613          	addi	x12,x12,4

# Testcase cr_rs1_imm_edges (rs1 = 0x80000000, imm = -2047)
  RVTEST_TESTDATA_LOAD_INT(x24, x30) # load rs1: x30 = 0x80000000
    1604:	000c2f03          	lw	x30,0(x24)
    1608:	004c0c13          	addi	x24,x24,4

0000160c <I_xori_cg_cr_rs1_imm_edges_rs1val_0x80000000_immval_m0x7ff>:
I_xori_cg_cr_rs1_imm_edges_rs1val_0x80000000_immval_m0x7ff:
  xori x19, x30, -2047 # perform operation
    160c:	801f4993          	xori	x19,x30,-2047
  # Check if x19 contains the expected result. x12 is the signature ptr, x5 is the link ptr, x4 is a temp reg.
  RVTEST_SIGUPD(x12, x5, x4, x19, I_xori_cg_cr_rs1_imm_edges_rs1val_0x80000000_immval_m0x7ff, I_xori_cg_cr_rs1_imm_edges_rs1val_0x80000000_immval_m0x7ff_str)
    1610:	00062203          	lw	x4,0(x12)
    1614:	01320863          	beq	x4,x19,1624 <I_xori_cg_cr_rs1_imm_edges_rs1val_0x80000000_immval_m0x7ff+0x18>
    1618:	6a5012ef          	jal	x5,34bc <failedtest_x5_x4>
    161c:	0000160c          	.word	0x0000160c
    1620:	0000ad8b          	.word	0x0000ad8b
    1624:	00460613          	addi	x12,x12,4

# Testcase cr_rs1_imm_edges (rs1 = 0x80000000, imm = -2)
  RVTEST_TESTDATA_LOAD_INT(x24, x18) # load rs1: x18 = 0x80000000
    1628:	000c2903          	lw	x18,0(x24)
    162c:	004c0c13          	addi	x24,x24,4

00001630 <I_xori_cg_cr_rs1_imm_edges_rs1val_0x80000000_immval_m0x2>:
I_xori_cg_cr_rs1_imm_edges_rs1val_0x80000000_immval_m0x2:
  xori x6, x18, -2 # perform operation
    1630:	ffe94313          	xori	x6,x18,-2
  # Check if x6 contains the expected result. x12 is the signature ptr, x5 is the link ptr, x4 is a temp reg.
  RVTEST_SIGUPD(x12, x5, x4, x6, I_xori_cg_cr_rs1_imm_edges_rs1val_0x80000000_immval_m0x2, I_xori_cg_cr_rs1_imm_edges_rs1val_0x80000000_immval_m0x2_str)
    1634:	00062203          	lw	x4,0(x12)
    1638:	00620863          	beq	x4,x6,1648 <I_xori_cg_cr_rs1_imm_edges_rs1val_0x80000000_immval_m0x2+0x18>
    163c:	681012ef          	jal	x5,34bc <failedtest_x5_x4>
    1640:	00001630          	.word	0x00001630
    1644:	0000ade3          	.word	0x0000ade3
    1648:	00460613          	addi	x12,x12,4

# Testcase cr_rs1_imm_edges (rs1 = 0x80000000, imm = -1)
  RVTEST_TESTDATA_LOAD_INT(x24, x6) # load rs1: x6 = 0x80000000
    164c:	000c2303          	lw	x6,0(x24)
    1650:	004c0c13          	addi	x24,x24,4

00001654 <I_xori_cg_cr_rs1_imm_edges_rs1val_0x80000000_immval_m0x1>:
I_xori_cg_cr_rs1_imm_edges_rs1val_0x80000000_immval_m0x1:
  xori x15, x6, -1 # perform operation
    1654:	fff34793          	xori	x15,x6,-1
  # Check if x15 contains the expected result. x12 is the signature ptr, x5 is the link ptr, x4 is a temp reg.
  RVTEST_SIGUPD(x12, x5, x4, x15, I_xori_cg_cr_rs1_imm_edges_rs1val_0x80000000_immval_m0x1, I_xori_cg_cr_rs1_imm_edges_rs1val_0x80000000_immval_m0x1_str)
    1658:	00062203          	lw	x4,0(x12)
    165c:	00f20863          	beq	x4,x15,166c <I_xori_cg_cr_rs1_imm_edges_rs1val_0x80000000_immval_m0x1+0x18>
    1660:	65d012ef          	jal	x5,34bc <failedtest_x5_x4>
    1664:	00001654          	.word	0x00001654
    1668:	0000ae39          	.word	0x0000ae39
    166c:	00460613          	addi	x12,x12,4

# Testcase cr_rs1_imm_edges (rs1 = 0x80000001, imm = 0)
  RVTEST_TESTDATA_LOAD_INT(x24, x16) # load rs1: x16 = 0x80000001
    1670:	000c2803          	lw	x16,0(x24)
    1674:	004c0c13          	addi	x24,x24,4

00001678 <I_xori_cg_cr_rs1_imm_edges_rs1val_0x80000001_immval_0x0>:
I_xori_cg_cr_rs1_imm_edges_rs1val_0x80000001_immval_0x0:
  xori x7, x16, 0 # perform operation
    1678:	00084393          	xori	x7,x16,0
  # Check if x7 contains the expected result. x12 is the signature ptr, x5 is the link ptr, x4 is a temp reg.
  RVTEST_SIGUPD(x12, x5, x4, x7, I_xori_cg_cr_rs1_imm_edges_rs1val_0x80000001_immval_0x0, I_xori_cg_cr_rs1_imm_edges_rs1val_0x80000001_immval_0x0_str)
    167c:	00062203          	lw	x4,0(x12)
    1680:	00720863          	beq	x4,x7,1690 <I_xori_cg_cr_rs1_imm_edges_rs1val_0x80000001_immval_0x0+0x18>
    1684:	639012ef          	jal	x5,34bc <failedtest_x5_x4>
    1688:	00001678          	.word	0x00001678
    168c:	0000ae8f          	.word	0x0000ae8f
    1690:	00460613          	addi	x12,x12,4

# Testcase cr_rs1_imm_edges (rs1 = 0x80000001, imm = 1)
  RVTEST_TESTDATA_LOAD_INT(x24, x25) # load rs1: x25 = 0x80000001
    1694:	000c2c83          	lw	x25,0(x24)
    1698:	004c0c13          	addi	x24,x24,4

0000169c <I_xori_cg_cr_rs1_imm_edges_rs1val_0x80000001_immval_0x1>:
I_xori_cg_cr_rs1_imm_edges_rs1val_0x80000001_immval_0x1:
  xori x1, x25, 1 # perform operation
    169c:	001cc093          	xori	x1,x25,1
  # Check if x1 contains the expected result. x12 is the signature ptr, x5 is the link ptr, x4 is a temp reg.
  RVTEST_SIGUPD(x12, x5, x4, x1, I_xori_cg_cr_rs1_imm_edges_rs1val_0x80000001_immval_0x1, I_xori_cg_cr_rs1_imm_edges_rs1val_0x80000001_immval_0x1_str)
    16a0:	00062203          	lw	x4,0(x12)
    16a4:	00120863          	beq	x4,x1,16b4 <I_xori_cg_cr_rs1_imm_edges_rs1val_0x80000001_immval_0x1+0x18>
    16a8:	615012ef          	jal	x5,34bc <failedtest_x5_x4>
    16ac:	0000169c          	.word	0x0000169c
    16b0:	0000aee4          	.word	0x0000aee4
    16b4:	00460613          	addi	x12,x12,4

# Testcase cr_rs1_imm_edges (rs1 = 0x80000001, imm = 2)
  RVTEST_TESTDATA_LOAD_INT(x24, x23) # load rs1: x23 = 0x80000001
    16b8:	000c2b83          	lw	x23,0(x24)
    16bc:	004c0c13          	addi	x24,x24,4

000016c0 <I_xori_cg_cr_rs1_imm_edges_rs1val_0x80000001_immval_0x2>:
I_xori_cg_cr_rs1_imm_edges_rs1val_0x80000001_immval_0x2:
  xori x6, x23, 2 # perform operation
    16c0:	002bc313          	xori	x6,x23,2
  # Check if x6 contains the expected result. x12 is the signature ptr, x5 is the link ptr, x4 is a temp reg.
  RVTEST_SIGUPD(x12, x5, x4, x6, I_xori_cg_cr_rs1_imm_edges_rs1val_0x80000001_immval_0x2, I_xori_cg_cr_rs1_imm_edges_rs1val_0x80000001_immval_0x2_str)
    16c4:	00062203          	lw	x4,0(x12)
    16c8:	00620863          	beq	x4,x6,16d8 <I_xori_cg_cr_rs1_imm_edges_rs1val_0x80000001_immval_0x2+0x18>
    16cc:	5f1012ef          	jal	x5,34bc <failedtest_x5_x4>
    16d0:	000016c0          	.word	0x000016c0
    16d4:	0000af39          	.word	0x0000af39
    16d8:	00460613          	addi	x12,x12,4

# Testcase cr_rs1_imm_edges (rs1 = 0x80000001, imm = 3)
  RVTEST_TESTDATA_LOAD_INT(x24, x25) # load rs1: x25 = 0x80000001
    16dc:	000c2c83          	lw	x25,0(x24)
    16e0:	004c0c13          	addi	x24,x24,4

000016e4 <I_xori_cg_cr_rs1_imm_edges_rs1val_0x80000001_immval_0x3>:
I_xori_cg_cr_rs1_imm_edges_rs1val_0x80000001_immval_0x3:
  xori x9, x25, 3 # perform operation
    16e4:	003cc493          	xori	x9,x25,3
  # Check if x9 contains the expected result. x12 is the signature ptr, x5 is the link ptr, x4 is a temp reg.
  RVTEST_SIGUPD(x12, x5, x4, x9, I_xori_cg_cr_rs1_imm_edges_rs1val_0x80000001_immval_0x3, I_xori_cg_cr_rs1_imm_edges_rs1val_0x80000001_immval_0x3_str)
    16e8:	00062203          	lw	x4,0(x12)
    16ec:	00920863          	beq	x4,x9,16fc <I_xori_cg_cr_rs1_imm_edges_rs1val_0x80000001_immval_0x3+0x18>
    16f0:	5cd012ef          	jal	x5,34bc <failedtest_x5_x4>
    16f4:	000016e4          	.word	0x000016e4
    16f8:	0000af8e          	.word	0x0000af8e
    16fc:	00460613          	addi	x12,x12,4

# Testcase cr_rs1_imm_edges (rs1 = 0x80000001, imm = 4)
  RVTEST_TESTDATA_LOAD_INT(x24, x6) # load rs1: x6 = 0x80000001
    1700:	000c2303          	lw	x6,0(x24)
    1704:	004c0c13          	addi	x24,x24,4

00001708 <I_xori_cg_cr_rs1_imm_edges_rs1val_0x80000001_immval_0x4>:
I_xori_cg_cr_rs1_imm_edges_rs1val_0x80000001_immval_0x4:
  xori x3, x6, 4 # perform operation
    1708:	00434193          	xori	x3,x6,4
  # Check if x3 contains the expected result. x12 is the signature ptr, x5 is the link ptr, x4 is a temp reg.
  RVTEST_SIGUPD(x12, x5, x4, x3, I_xori_cg_cr_rs1_imm_edges_rs1val_0x80000001_immval_0x4, I_xori_cg_cr_rs1_imm_edges_rs1val_0x80000001_immval_0x4_str)
    170c:	00062203          	lw	x4,0(x12)
    1710:	00320863          	beq	x4,x3,1720 <I_xori_cg_cr_rs1_imm_edges_rs1val_0x80000001_immval_0x4+0x18>
    1714:	5a9012ef          	jal	x5,34bc <failedtest_x5_x4>
    1718:	00001708          	.word	0x00001708
    171c:	0000afe3          	.word	0x0000afe3
    1720:	00460613          	addi	x12,x12,4

# Testcase cr_rs1_imm_edges (rs1 = 0x80000001, imm = 8)
  RVTEST_TESTDATA_LOAD_INT(x24, x17) # load rs1: x17 = 0x80000001
    1724:	000c2883          	lw	x17,0(x24)
    1728:	004c0c13          	addi	x24,x24,4

0000172c <I_xori_cg_cr_rs1_imm_edges_rs1val_0x80000001_immval_0x8>:
I_xori_cg_cr_rs1_imm_edges_rs1val_0x80000001_immval_0x8:
  xori x23, x17, 8 # perform operation
    172c:	0088cb93          	xori	x23,x17,8
  # Check if x23 contains the expected result. x12 is the signature ptr, x5 is the link ptr, x4 is a temp reg.
  RVTEST_SIGUPD(x12, x5, x4, x23, I_xori_cg_cr_rs1_imm_edges_rs1val_0x80000001_immval_0x8, I_xori_cg_cr_rs1_imm_edges_rs1val_0x80000001_immval_0x8_str)
    1730:	00062203          	lw	x4,0(x12)
    1734:	01720863          	beq	x4,x23,1744 <I_xori_cg_cr_rs1_imm_edges_rs1val_0x80000001_immval_0x8+0x18>
    1738:	585012ef          	jal	x5,34bc <failedtest_x5_x4>
    173c:	0000172c          	.word	0x0000172c
    1740:	0000b038          	.word	0x0000b038
    1744:	00460613          	addi	x12,x12,4

# Testcase cr_rs1_imm_edges (rs1 = 0x80000001, imm = 16)
  RVTEST_TESTDATA_LOAD_INT(x24, x22) # load rs1: x22 = 0x80000001
    1748:	000c2b03          	lw	x22,0(x24)
    174c:	004c0c13          	addi	x24,x24,4

00001750 <I_xori_cg_cr_rs1_imm_edges_rs1val_0x80000001_immval_0x10>:
I_xori_cg_cr_rs1_imm_edges_rs1val_0x80000001_immval_0x10:
  xori x9, x22, 16 # perform operation
    1750:	010b4493          	xori	x9,x22,16
  # Check if x9 contains the expected result. x12 is the signature ptr, x5 is the link ptr, x4 is a temp reg.
  RVTEST_SIGUPD(x12, x5, x4, x9, I_xori_cg_cr_rs1_imm_edges_rs1val_0x80000001_immval_0x10, I_xori_cg_cr_rs1_imm_edges_rs1val_0x80000001_immval_0x10_str)
    1754:	00062203          	lw	x4,0(x12)
    1758:	00920863          	beq	x4,x9,1768 <I_xori_cg_cr_rs1_imm_edges_rs1val_0x80000001_immval_0x10+0x18>
    175c:	561012ef          	jal	x5,34bc <failedtest_x5_x4>
    1760:	00001750          	.word	0x00001750
    1764:	0000b08d          	.word	0x0000b08d
    1768:	00460613          	addi	x12,x12,4

# Testcase cr_rs1_imm_edges (rs1 = 0x80000001, imm = 32)
  RVTEST_TESTDATA_LOAD_INT(x24, x13) # load rs1: x13 = 0x80000001
    176c:	000c2683          	lw	x13,0(x24)
    1770:	004c0c13          	addi	x24,x24,4

00001774 <I_xori_cg_cr_rs1_imm_edges_rs1val_0x80000001_immval_0x20>:
I_xori_cg_cr_rs1_imm_edges_rs1val_0x80000001_immval_0x20:
  xori x31, x13, 32 # perform operation
    1774:	0206cf93          	xori	x31,x13,32
  # Check if x31 contains the expected result. x12 is the signature ptr, x5 is the link ptr, x4 is a temp reg.
  RVTEST_SIGUPD(x12, x5, x4, x31, I_xori_cg_cr_rs1_imm_edges_rs1val_0x80000001_immval_0x20, I_xori_cg_cr_rs1_imm_edges_rs1val_0x80000001_immval_0x20_str)
    1778:	00062203          	lw	x4,0(x12)
    177c:	01f20863          	beq	x4,x31,178c <I_xori_cg_cr_rs1_imm_edges_rs1val_0x80000001_immval_0x20+0x18>
    1780:	53d012ef          	jal	x5,34bc <failedtest_x5_x4>
    1784:	00001774          	.word	0x00001774
    1788:	0000b0e3          	.word	0x0000b0e3
    178c:	00460613          	addi	x12,x12,4

# Testcase cr_rs1_imm_edges (rs1 = 0x80000001, imm = 64)
  RVTEST_TESTDATA_LOAD_INT(x24, x17) # load rs1: x17 = 0x80000001
    1790:	000c2883          	lw	x17,0(x24)
    1794:	004c0c13          	addi	x24,x24,4

00001798 <I_xori_cg_cr_rs1_imm_edges_rs1val_0x80000001_immval_0x40>:
I_xori_cg_cr_rs1_imm_edges_rs1val_0x80000001_immval_0x40:
  xori x31, x17, 64 # perform operation
    1798:	0408cf93          	xori	x31,x17,64
  # Check if x31 contains the expected result. x12 is the signature ptr, x5 is the link ptr, x4 is a temp reg.
  RVTEST_SIGUPD(x12, x5, x4, x31, I_xori_cg_cr_rs1_imm_edges_rs1val_0x80000001_immval_0x40, I_xori_cg_cr_rs1_imm_edges_rs1val_0x80000001_immval_0x40_str)
    179c:	00062203          	lw	x4,0(x12)
    17a0:	01f20863          	beq	x4,x31,17b0 <I_xori_cg_cr_rs1_imm_edges_rs1val_0x80000001_immval_0x40+0x18>
    17a4:	519012ef          	jal	x5,34bc <failedtest_x5_x4>
    17a8:	00001798          	.word	0x00001798
    17ac:	0000b139          	.word	0x0000b139
    17b0:	00460613          	addi	x12,x12,4

# Testcase cr_rs1_imm_edges (rs1 = 0x80000001, imm = 128)
  RVTEST_TESTDATA_LOAD_INT(x24, x23) # load rs1: x23 = 0x80000001
    17b4:	000c2b83          	lw	x23,0(x24)
    17b8:	004c0c13          	addi	x24,x24,4

000017bc <I_xori_cg_cr_rs1_imm_edges_rs1val_0x80000001_immval_0x80>:
I_xori_cg_cr_rs1_imm_edges_rs1val_0x80000001_immval_0x80:
  xori x21, x23, 128 # perform operation
    17bc:	080bca93          	xori	x21,x23,128
  # Check if x21 contains the expected result. x12 is the signature ptr, x5 is the link ptr, x4 is a temp reg.
  RVTEST_SIGUPD(x12, x5, x4, x21, I_xori_cg_cr_rs1_imm_edges_rs1val_0x80000001_immval_0x80, I_xori_cg_cr_rs1_imm_edges_rs1val_0x80000001_immval_0x80_str)
    17c0:	00062203          	lw	x4,0(x12)
    17c4:	01520863          	beq	x4,x21,17d4 <I_xori_cg_cr_rs1_imm_edges_rs1val_0x80000001_immval_0x80+0x18>
    17c8:	4f5012ef          	jal	x5,34bc <failedtest_x5_x4>
    17cc:	000017bc          	.word	0x000017bc
    17d0:	0000b18f          	.word	0x0000b18f
    17d4:	00460613          	addi	x12,x12,4

# Testcase cr_rs1_imm_edges (rs1 = 0x80000001, imm = 256)
  RVTEST_TESTDATA_LOAD_INT(x24, x6) # load rs1: x6 = 0x80000001
    17d8:	000c2303          	lw	x6,0(x24)
    17dc:	004c0c13          	addi	x24,x24,4

000017e0 <I_xori_cg_cr_rs1_imm_edges_rs1val_0x80000001_immval_0x100>:
I_xori_cg_cr_rs1_imm_edges_rs1val_0x80000001_immval_0x100:
  xori x1, x6, 256 # perform operation
    17e0:	10034093          	xori	x1,x6,256
  # Check if x1 contains the expected result. x12 is the signature ptr, x5 is the link ptr, x4 is a temp reg.
  RVTEST_SIGUPD(x12, x5, x4, x1, I_xori_cg_cr_rs1_imm_edges_rs1val_0x80000001_immval_0x100, I_xori_cg_cr_rs1_imm_edges_rs1val_0x80000001_immval_0x100_str)
    17e4:	00062203          	lw	x4,0(x12)
    17e8:	00120863          	beq	x4,x1,17f8 <I_xori_cg_cr_rs1_imm_edges_rs1val_0x80000001_immval_0x100+0x18>
    17ec:	4d1012ef          	jal	x5,34bc <failedtest_x5_x4>
    17f0:	000017e0          	.word	0x000017e0
    17f4:	0000b1e5          	.word	0x0000b1e5
    17f8:	00460613          	addi	x12,x12,4

# Testcase cr_rs1_imm_edges (rs1 = 0x80000001, imm = 512)
  RVTEST_TESTDATA_LOAD_INT(x24, x20) # load rs1: x20 = 0x80000001
    17fc:	000c2a03          	lw	x20,0(x24)
    1800:	004c0c13          	addi	x24,x24,4

00001804 <I_xori_cg_cr_rs1_imm_edges_rs1val_0x80000001_immval_0x200>:
I_xori_cg_cr_rs1_imm_edges_rs1val_0x80000001_immval_0x200:
  xori x23, x20, 512 # perform operation
    1804:	200a4b93          	xori	x23,x20,512
  # Check if x23 contains the expected result. x12 is the signature ptr, x5 is the link ptr, x4 is a temp reg.
  RVTEST_SIGUPD(x12, x5, x4, x23, I_xori_cg_cr_rs1_imm_edges_rs1val_0x80000001_immval_0x200, I_xori_cg_cr_rs1_imm_edges_rs1val_0x80000001_immval_0x200_str)
    1808:	00062203          	lw	x4,0(x12)
    180c:	01720863          	beq	x4,x23,181c <I_xori_cg_cr_rs1_imm_edges_rs1val_0x80000001_immval_0x200+0x18>
    1810:	4ad012ef          	jal	x5,34bc <failedtest_x5_x4>
    1814:	00001804          	.word	0x00001804
    1818:	0000b23c          	.word	0x0000b23c
    181c:	00460613          	addi	x12,x12,4

# Testcase cr_rs1_imm_edges (rs1 = 0x80000001, imm = 1023)
  RVTEST_TESTDATA_LOAD_INT(x24, x16) # load rs1: x16 = 0x80000001
    1820:	000c2803          	lw	x16,0(x24)
    1824:	004c0c13          	addi	x24,x24,4

00001828 <I_xori_cg_cr_rs1_imm_edges_rs1val_0x80000001_immval_0x3ff>:
I_xori_cg_cr_rs1_imm_edges_rs1val_0x80000001_immval_0x3ff:
  xori x6, x16, 1023 # perform operation
    1828:	3ff84313          	xori	x6,x16,1023
  # Check if x6 contains the expected result. x12 is the signature ptr, x5 is the link ptr, x4 is a temp reg.
  RVTEST_SIGUPD(x12, x5, x4, x6, I_xori_cg_cr_rs1_imm_edges_rs1val_0x80000001_immval_0x3ff, I_xori_cg_cr_rs1_imm_edges_rs1val_0x80000001_immval_0x3ff_str)
    182c:	00062203          	lw	x4,0(x12)
    1830:	00620863          	beq	x4,x6,1840 <I_xori_cg_cr_rs1_imm_edges_rs1val_0x80000001_immval_0x3ff+0x18>
    1834:	489012ef          	jal	x5,34bc <failedtest_x5_x4>
    1838:	00001828          	.word	0x00001828
    183c:	0000b293          	.word	0x0000b293
    1840:	00460613          	addi	x12,x12,4

# Testcase cr_rs1_imm_edges (rs1 = 0x80000001, imm = 1024)
  RVTEST_TESTDATA_LOAD_INT(x24, x17) # load rs1: x17 = 0x80000001
    1844:	000c2883          	lw	x17,0(x24)
    1848:	004c0c13          	addi	x24,x24,4

0000184c <I_xori_cg_cr_rs1_imm_edges_rs1val_0x80000001_immval_0x400>:
I_xori_cg_cr_rs1_imm_edges_rs1val_0x80000001_immval_0x400:
  xori x9, x17, 1024 # perform operation
    184c:	4008c493          	xori	x9,x17,1024
  # Check if x9 contains the expected result. x12 is the signature ptr, x5 is the link ptr, x4 is a temp reg.
  RVTEST_SIGUPD(x12, x5, x4, x9, I_xori_cg_cr_rs1_imm_edges_rs1val_0x80000001_immval_0x400, I_xori_cg_cr_rs1_imm_edges_rs1val_0x80000001_immval_0x400_str)
    1850:	00062203          	lw	x4,0(x12)
    1854:	00920863          	beq	x4,x9,1864 <I_xori_cg_cr_rs1_imm_edges_rs1val_0x80000001_immval_0x400+0x18>
    1858:	465012ef          	jal	x5,34bc <failedtest_x5_x4>
    185c:	0000184c          	.word	0x0000184c
    1860:	0000b2ea          	.word	0x0000b2ea
    1864:	00460613          	addi	x12,x12,4

# Testcase cr_rs1_imm_edges (rs1 = 0x80000001, imm = 1795)
  RVTEST_TESTDATA_LOAD_INT(x24, x11) # load rs1: x11 = 0x80000001
    1868:	000c2583          	lw	x11,0(x24)
    186c:	004c0c13          	addi	x24,x24,4

00001870 <I_xori_cg_cr_rs1_imm_edges_rs1val_0x80000001_immval_0x703>:
I_xori_cg_cr_rs1_imm_edges_rs1val_0x80000001_immval_0x703:
  xori x21, x11, 1795 # perform operation
    1870:	7035ca93          	xori	x21,x11,1795
  # Check if x21 contains the expected result. x12 is the signature ptr, x5 is the link ptr, x4 is a temp reg.
  RVTEST_SIGUPD(x12, x5, x4, x21, I_xori_cg_cr_rs1_imm_edges_rs1val_0x80000001_immval_0x703, I_xori_cg_cr_rs1_imm_edges_rs1val_0x80000001_immval_0x703_str)
    1874:	00062203          	lw	x4,0(x12)
    1878:	01520863          	beq	x4,x21,1888 <I_xori_cg_cr_rs1_imm_edges_rs1val_0x80000001_immval_0x703+0x18>
    187c:	441012ef          	jal	x5,34bc <failedtest_x5_x4>
    1880:	00001870          	.word	0x00001870
    1884:	0000b341          	.word	0x0000b341
    1888:	00460613          	addi	x12,x12,4

# Testcase cr_rs1_imm_edges (rs1 = 0x80000001, imm = 2047)
  RVTEST_TESTDATA_LOAD_INT(x24, x21) # load rs1: x21 = 0x80000001
    188c:	000c2a83          	lw	x21,0(x24)
    1890:	004c0c13          	addi	x24,x24,4

00001894 <I_xori_cg_cr_rs1_imm_edges_rs1val_0x80000001_immval_0x7ff>:
I_xori_cg_cr_rs1_imm_edges_rs1val_0x80000001_immval_0x7ff:
  xori x13, x21, 2047 # perform operation
    1894:	7ffac693          	xori	x13,x21,2047
  # Check if x13 contains the expected result. x12 is the signature ptr, x5 is the link ptr, x4 is a temp reg.
  RVTEST_SIGUPD(x12, x5, x4, x13, I_xori_cg_cr_rs1_imm_edges_rs1val_0x80000001_immval_0x7ff, I_xori_cg_cr_rs1_imm_edges_rs1val_0x80000001_immval_0x7ff_str)
    1898:	00062203          	lw	x4,0(x12)
    189c:	00d20863          	beq	x4,x13,18ac <I_xori_cg_cr_rs1_imm_edges_rs1val_0x80000001_immval_0x7ff+0x18>
    18a0:	41d012ef          	jal	x5,34bc <failedtest_x5_x4>
    18a4:	00001894          	.word	0x00001894
    18a8:	0000b398          	.word	0x0000b398
    18ac:	00460613          	addi	x12,x12,4

# Testcase cr_rs1_imm_edges (rs1 = 0x80000001, imm = -2048)
  RVTEST_TESTDATA_LOAD_INT(x24, x29) # load rs1: x29 = 0x80000001
    18b0:	000c2e83          	lw	x29,0(x24)
    18b4:	004c0c13          	addi	x24,x24,4

000018b8 <I_xori_cg_cr_rs1_imm_edges_rs1val_0x80000001_immval_m0x800>:
I_xori_cg_cr_rs1_imm_edges_rs1val_0x80000001_immval_m0x800:
  xori x18, x29, -2048 # perform operation
    18b8:	800ec913          	xori	x18,x29,-2048
  # Check if x18 contains the expected result. x12 is the signature ptr, x5 is the link ptr, x4 is a temp reg.
  RVTEST_SIGUPD(x12, x5, x4, x18, I_xori_cg_cr_rs1_imm_edges_rs1val_0x80000001_immval_m0x800, I_xori_cg_cr_rs1_imm_edges_rs1val_0x80000001_immval_m0x800_str)
    18bc:	00062203          	lw	x4,0(x12)
    18c0:	01220863          	beq	x4,x18,18d0 <I_xori_cg_cr_rs1_imm_edges_rs1val_0x80000001_immval_m0x800+0x18>
    18c4:	3f9012ef          	jal	x5,34bc <failedtest_x5_x4>
    18c8:	000018b8          	.word	0x000018b8
    18cc:	0000b3ef          	.word	0x0000b3ef
    18d0:	00460613          	addi	x12,x12,4

# Testcase cr_rs1_imm_edges (rs1 = 0x80000001, imm = -2047)
  RVTEST_TESTDATA_LOAD_INT(x24, x23) # load rs1: x23 = 0x80000001
    18d4:	000c2b83          	lw	x23,0(x24)
    18d8:	004c0c13          	addi	x24,x24,4

000018dc <I_xori_cg_cr_rs1_imm_edges_rs1val_0x80000001_immval_m0x7ff>:
I_xori_cg_cr_rs1_imm_edges_rs1val_0x80000001_immval_m0x7ff:
  xori x2, x23, -2047 # perform operation
    18dc:	801bc113          	xori	x2,x23,-2047
  # Check if x2 contains the expected result. x12 is the signature ptr, x5 is the link ptr, x4 is a temp reg.
  RVTEST_SIGUPD(x12, x5, x4, x2, I_xori_cg_cr_rs1_imm_edges_rs1val_0x80000001_immval_m0x7ff, I_xori_cg_cr_rs1_imm_edges_rs1val_0x80000001_immval_m0x7ff_str)
    18e0:	00062203          	lw	x4,0(x12)
    18e4:	00220863          	beq	x4,x2,18f4 <I_xori_cg_cr_rs1_imm_edges_rs1val_0x80000001_immval_m0x7ff+0x18>
    18e8:	3d5012ef          	jal	x5,34bc <failedtest_x5_x4>
    18ec:	000018dc          	.word	0x000018dc
    18f0:	0000b447          	.word	0x0000b447
    18f4:	00460613          	addi	x12,x12,4

# Testcase cr_rs1_imm_edges (rs1 = 0x80000001, imm = -2)
  RVTEST_TESTDATA_LOAD_INT(x24, x13) # load rs1: x13 = 0x80000001
    18f8:	000c2683          	lw	x13,0(x24)
    18fc:	004c0c13          	addi	x24,x24,4

00001900 <I_xori_cg_cr_rs1_imm_edges_rs1val_0x80000001_immval_m0x2>:
I_xori_cg_cr_rs1_imm_edges_rs1val_0x80000001_immval_m0x2:
  xori x26, x13, -2 # perform operation
    1900:	ffe6cd13          	xori	x26,x13,-2
  # Check if x26 contains the expected result. x12 is the signature ptr, x5 is the link ptr, x4 is a temp reg.
  RVTEST_SIGUPD(x12, x5, x4, x26, I_xori_cg_cr_rs1_imm_edges_rs1val_0x80000001_immval_m0x2, I_xori_cg_cr_rs1_imm_edges_rs1val_0x80000001_immval_m0x2_str)
    1904:	00062203          	lw	x4,0(x12)
    1908:	01a20863          	beq	x4,x26,1918 <I_xori_cg_cr_rs1_imm_edges_rs1val_0x80000001_immval_m0x2+0x18>
    190c:	3b1012ef          	jal	x5,34bc <failedtest_x5_x4>
    1910:	00001900          	.word	0x00001900
    1914:	0000b49f          	.word	0x0000b49f
    1918:	00460613          	addi	x12,x12,4

# Testcase cr_rs1_imm_edges (rs1 = 0x80000001, imm = -1)
  RVTEST_TESTDATA_LOAD_INT(x24, x30) # load rs1: x30 = 0x80000001
    191c:	000c2f03          	lw	x30,0(x24)
    1920:	004c0c13          	addi	x24,x24,4

00001924 <I_xori_cg_cr_rs1_imm_edges_rs1val_0x80000001_immval_m0x1>:
I_xori_cg_cr_rs1_imm_edges_rs1val_0x80000001_immval_m0x1:
  xori x21, x30, -1 # perform operation
    1924:	ffff4a93          	xori	x21,x30,-1
  # Check if x21 contains the expected result. x12 is the signature ptr, x5 is the link ptr, x4 is a temp reg.
  RVTEST_SIGUPD(x12, x5, x4, x21, I_xori_cg_cr_rs1_imm_edges_rs1val_0x80000001_immval_m0x1, I_xori_cg_cr_rs1_imm_edges_rs1val_0x80000001_immval_m0x1_str)
    1928:	00062203          	lw	x4,0(x12)
    192c:	01520863          	beq	x4,x21,193c <I_xori_cg_cr_rs1_imm_edges_rs1val_0x80000001_immval_m0x1+0x18>
    1930:	38d012ef          	jal	x5,34bc <failedtest_x5_x4>
    1934:	00001924          	.word	0x00001924
    1938:	0000b4f5          	.word	0x0000b4f5
    193c:	00460613          	addi	x12,x12,4

# Testcase cr_rs1_imm_edges (rs1 = 0x7fffffff, imm = 0)
  RVTEST_TESTDATA_LOAD_INT(x24, x26) # load rs1: x26 = 0x7fffffff
    1940:	000c2d03          	lw	x26,0(x24)
    1944:	004c0c13          	addi	x24,x24,4

00001948 <I_xori_cg_cr_rs1_imm_edges_rs1val_0x7fffffff_immval_0x0>:
I_xori_cg_cr_rs1_imm_edges_rs1val_0x7fffffff_immval_0x0:
  xori x11, x26, 0 # perform operation
    1948:	000d4593          	xori	x11,x26,0
  # Check if x11 contains the expected result. x12 is the signature ptr, x5 is the link ptr, x4 is a temp reg.
  RVTEST_SIGUPD(x12, x5, x4, x11, I_xori_cg_cr_rs1_imm_edges_rs1val_0x7fffffff_immval_0x0, I_xori_cg_cr_rs1_imm_edges_rs1val_0x7fffffff_immval_0x0_str)
    194c:	00062203          	lw	x4,0(x12)
    1950:	00b20863          	beq	x4,x11,1960 <I_xori_cg_cr_rs1_imm_edges_rs1val_0x7fffffff_immval_0x0+0x18>
    1954:	369012ef          	jal	x5,34bc <failedtest_x5_x4>
    1958:	00001948          	.word	0x00001948
    195c:	0000b54b          	.word	0x0000b54b
    1960:	00460613          	addi	x12,x12,4

# Testcase cr_rs1_imm_edges (rs1 = 0x7fffffff, imm = 1)
  RVTEST_TESTDATA_LOAD_INT(x24, x3) # load rs1: x3 = 0x7fffffff
    1964:	000c2183          	lw	x3,0(x24)
    1968:	004c0c13          	addi	x24,x24,4

0000196c <I_xori_cg_cr_rs1_imm_edges_rs1val_0x7fffffff_immval_0x1>:
I_xori_cg_cr_rs1_imm_edges_rs1val_0x7fffffff_immval_0x1:
  xori x31, x3, 1 # perform operation
    196c:	0011cf93          	xori	x31,x3,1
  # Check if x31 contains the expected result. x12 is the signature ptr, x5 is the link ptr, x4 is a temp reg.
  RVTEST_SIGUPD(x12, x5, x4, x31, I_xori_cg_cr_rs1_imm_edges_rs1val_0x7fffffff_immval_0x1, I_xori_cg_cr_rs1_imm_edges_rs1val_0x7fffffff_immval_0x1_str)
    1970:	00062203          	lw	x4,0(x12)
    1974:	01f20863          	beq	x4,x31,1984 <I_xori_cg_cr_rs1_imm_edges_rs1val_0x7fffffff_immval_0x1+0x18>
    1978:	345012ef          	jal	x5,34bc <failedtest_x5_x4>
    197c:	0000196c          	.word	0x0000196c
    1980:	0000b5a0          	.word	0x0000b5a0
    1984:	00460613          	addi	x12,x12,4

# Testcase cr_rs1_imm_edges (rs1 = 0x7fffffff, imm = 2)
  RVTEST_TESTDATA_LOAD_INT(x24, x8) # load rs1: x8 = 0x7fffffff
    1988:	000c2403          	lw	x8,0(x24)
    198c:	004c0c13          	addi	x24,x24,4

00001990 <I_xori_cg_cr_rs1_imm_edges_rs1val_0x7fffffff_immval_0x2>:
I_xori_cg_cr_rs1_imm_edges_rs1val_0x7fffffff_immval_0x2:
  xori x6, x8, 2 # perform operation
    1990:	00244313          	xori	x6,x8,2
  # Check if x6 contains the expected result. x12 is the signature ptr, x5 is the link ptr, x4 is a temp reg.
  RVTEST_SIGUPD(x12, x5, x4, x6, I_xori_cg_cr_rs1_imm_edges_rs1val_0x7fffffff_immval_0x2, I_xori_cg_cr_rs1_imm_edges_rs1val_0x7fffffff_immval_0x2_str)
    1994:	00062203          	lw	x4,0(x12)
    1998:	00620863          	beq	x4,x6,19a8 <I_xori_cg_cr_rs1_imm_edges_rs1val_0x7fffffff_immval_0x2+0x18>
    199c:	321012ef          	jal	x5,34bc <failedtest_x5_x4>
    19a0:	00001990          	.word	0x00001990
    19a4:	0000b5f5          	.word	0x0000b5f5
    19a8:	00460613          	addi	x12,x12,4

# Testcase cr_rs1_imm_edges (rs1 = 0x7fffffff, imm = 3)
  RVTEST_TESTDATA_LOAD_INT(x24, x20) # load rs1: x20 = 0x7fffffff
    19ac:	000c2a03          	lw	x20,0(x24)
    19b0:	004c0c13          	addi	x24,x24,4

000019b4 <I_xori_cg_cr_rs1_imm_edges_rs1val_0x7fffffff_immval_0x3>:
I_xori_cg_cr_rs1_imm_edges_rs1val_0x7fffffff_immval_0x3:
  xori x14, x20, 3 # perform operation
    19b4:	003a4713          	xori	x14,x20,3
  # Check if x14 contains the expected result. x12 is the signature ptr, x5 is the link ptr, x4 is a temp reg.
  RVTEST_SIGUPD(x12, x5, x4, x14, I_xori_cg_cr_rs1_imm_edges_rs1val_0x7fffffff_immval_0x3, I_xori_cg_cr_rs1_imm_edges_rs1val_0x7fffffff_immval_0x3_str)
    19b8:	00062203          	lw	x4,0(x12)
    19bc:	00e20863          	beq	x4,x14,19cc <I_xori_cg_cr_rs1_imm_edges_rs1val_0x7fffffff_immval_0x3+0x18>
    19c0:	2fd012ef          	jal	x5,34bc <failedtest_x5_x4>
    19c4:	000019b4          	.word	0x000019b4
    19c8:	0000b64a          	.word	0x0000b64a
    19cc:	00460613          	addi	x12,x12,4

# Testcase cr_rs1_imm_edges (rs1 = 0x7fffffff, imm = 4)
  RVTEST_TESTDATA_LOAD_INT(x24, x28) # load rs1: x28 = 0x7fffffff
    19d0:	000c2e03          	lw	x28,0(x24)
    19d4:	004c0c13          	addi	x24,x24,4

000019d8 <I_xori_cg_cr_rs1_imm_edges_rs1val_0x7fffffff_immval_0x4>:
I_xori_cg_cr_rs1_imm_edges_rs1val_0x7fffffff_immval_0x4:
  xori x3, x28, 4 # perform operation
    19d8:	004e4193          	xori	x3,x28,4
