
/home/dev/github/clones/riscv-arch-test/work/rv32i-core/elfs/rv32i/I/I-xori-00.elf:     file format elf32-littleriscv
/home/dev/github/clones/riscv-arch-test/work/rv32i-core/elfs/rv32i/I/I-xori-00.elf
architecture: riscv:rv32, flags 0x00000112:
EXEC_P, HAS_SYMS, D_PAGED
start address 0x00000000

Program Header:
0x70000003 off    0x0001e240 vaddr 0x00000000 paddr 0x00000000 align 2**0
         filesz 0x00000033 memsz 0x00000000 flags r--
    LOAD off    0x00001000 vaddr 0x00000000 paddr 0x00000000 align 2**12
         filesz 0x00004f40 memsz 0x00004f40 flags r-x
    LOAD off    0x00006000 vaddr 0x00008000 paddr 0x00008000 align 2**12
         filesz 0x00018240 memsz 0x00018240 flags rwx

Sections:
Idx Name          Size      VMA       LMA       File off  Algn
  0 .text.init    00000040  00000000  00000000  00001000  2**5
                  CONTENTS, ALLOC, LOAD, READONLY, CODE
  1 .text.rvtest  00004f00  00000040  00000040  00001040  2**5
                  CONTENTS, ALLOC, LOAD, READONLY, CODE
  2 .data         00017c90  00008000  00008000  00006000  2**8
                  CONTENTS, ALLOC, LOAD, DATA
  3 .text.rvmodel 00000240  00020000  00020000  0001e000  2**5
                  CONTENTS, ALLOC, LOAD, READONLY, CODE
  4 .riscv.attributes 00000033  00000000  00000000  0001e240  2**0
                  CONTENTS, READONLY
  5 .debug_line   00001ae2  00000000  00000000  0001e273  2**0
                  CONTENTS, READONLY, DEBUGGING, OCTETS
  6 .debug_line_str 0000006a  00000000  00000000  0001fd55  2**0
                  CONTENTS, READONLY, DEBUGGING, OCTETS
  7 .debug_info   00000023  00000000  00000000  0001fdbf  2**0
                  CONTENTS, READONLY, DEBUGGING, OCTETS
  8 .debug_abbrev 00000012  00000000  00000000  0001fde2  2**0
                  CONTENTS, READONLY, DEBUGGING, OCTETS
  9 .debug_aranges 00000028  00000000  00000000  0001fdf8  2**3
                  CONTENTS, READONLY, DEBUGGING, OCTETS
 10 .debug_str    00000076  00000000  00000000  0001fe20  2**0
                  CONTENTS, READONLY, DEBUGGING, OCTETS
 11 .debug_rnglists 0000001b  00000000  00000000  0001fe96  2**0
                  CONTENTS, READONLY, DEBUGGING, OCTETS
SYMBOL TABLE:
00000000 l    d  .text.init	00000000 .text.init
00000040 l    d  .text.rvtest	00000000 .text.rvtest
00008000 l    d  .data	00000000 .data
00020000 l    d  .text.rvmodel	00000000 .text.rvmodel
00000000 l    d  .riscv.attributes	00000000 .riscv.attributes
00000000 l    d  .debug_line	00000000 .debug_line
00000000 l    d  .debug_line_str	00000000 .debug_line_str
00000000 l    d  .debug_info	00000000 .debug_info
00000000 l    d  .debug_abbrev	00000000 .debug_abbrev
00000000 l    d  .debug_aranges	00000000 .debug_aranges
00000000 l    d  .debug_str	00000000 .debug_str
00000000 l    d  .debug_rnglists	00000000 .debug_rnglists
00000000 l    df *ABS*	00000000 ccQccBt4.o
00000003 l       *ABS*	00000000 MMODE_SIG
00000001 l       *ABS*	00000000 SMODE_SIG
00000001 l       *ABS*	00000000 HMODE_SIG
00000002 l       *ABS*	00000000 VMODE_SIG
00020000 l       .text.rvmodel	00000000 rvmodel_boot
00000048 l       .text.rvtest	00000000 I_xori_cg_cp_rs1_b0
000034bc l       .text.rvtest	00000000 failedtest_x5_x4
000086d0 l       .data	00000000 I_xori_cg_cp_rs1_b0_str
0000006c l       .text.rvtest	00000000 I_xori_cg_cp_rs1_b1
000086fe l       .data	00000000 I_xori_cg_cp_rs1_b1_str
00000094 l       .text.rvtest	00000000 I_xori_cg_cp_rs1_b2
0000872c l       .data	00000000 I_xori_cg_cp_rs1_b2_str
000000bc l       .text.rvtest	00000000 I_xori_cg_cp_rs1_b3
0000875a l       .data	00000000 I_xori_cg_cp_rs1_b3_str
000000e8 l       .text.rvtest	00000000 I_xori_cg_cp_rs1_b4
000034fc l       .text.rvtest	00000000 failedtest_x14_x13
00008788 l       .data	00000000 I_xori_cg_cp_rs1_b4_str
0000010c l       .text.rvtest	00000000 I_xori_cg_cp_rs1_b5
000087b6 l       .data	00000000 I_xori_cg_cp_rs1_b5_str
00000130 l       .text.rvtest	00000000 I_xori_cg_cp_rs1_b6
000087e4 l       .data	00000000 I_xori_cg_cp_rs1_b6_str
00000154 l       .text.rvtest	00000000 I_xori_cg_cp_rs1_b7
00008812 l       .data	00000000 I_xori_cg_cp_rs1_b7_str
00000178 l       .text.rvtest	00000000 I_xori_cg_cp_rs1_b8
00008840 l       .data	00000000 I_xori_cg_cp_rs1_b8_str
0000019c l       .text.rvtest	00000000 I_xori_cg_cp_rs1_b9
0000886e l       .data	00000000 I_xori_cg_cp_rs1_b9_str
000001c0 l       .text.rvtest	00000000 I_xori_cg_cp_rs1_b10
0000889d l       .data	00000000 I_xori_cg_cp_rs1_b10_str
000001e4 l       .text.rvtest	00000000 I_xori_cg_cp_rs1_b11
000088cd l       .data	00000000 I_xori_cg_cp_rs1_b11_str
00000208 l       .text.rvtest	00000000 I_xori_cg_cp_rs1_b12
000088fd l       .data	00000000 I_xori_cg_cp_rs1_b12_str
00000234 l       .text.rvtest	00000000 I_xori_cg_cp_rs1_b13
000034d4 l       .text.rvtest	00000000 failedtest_x8_x7
0000892d l       .data	00000000 I_xori_cg_cp_rs1_b13_str
00000258 l       .text.rvtest	00000000 I_xori_cg_cp_rs1_b14
0000895d l       .data	00000000 I_xori_cg_cp_rs1_b14_str
0000027c l       .text.rvtest	00000000 I_xori_cg_cp_rs1_b15
0000898d l       .data	00000000 I_xori_cg_cp_rs1_b15_str
000002a0 l       .text.rvtest	00000000 I_xori_cg_cp_rs1_b16
000089bd l       .data	00000000 I_xori_cg_cp_rs1_b16_str
000002c4 l       .text.rvtest	00000000 I_xori_cg_cp_rs1_b17
000089ed l       .data	00000000 I_xori_cg_cp_rs1_b17_str
000002e8 l       .text.rvtest	00000000 I_xori_cg_cp_rs1_b18
00008a1d l       .data	00000000 I_xori_cg_cp_rs1_b18_str
0000030c l       .text.rvtest	00000000 I_xori_cg_cp_rs1_b19
00008a4d l       .data	00000000 I_xori_cg_cp_rs1_b19_str
00000334 l       .text.rvtest	00000000 I_xori_cg_cp_rs1_b20
00008a7d l       .data	00000000 I_xori_cg_cp_rs1_b20_str
00000358 l       .text.rvtest	00000000 I_xori_cg_cp_rs1_b21
00008aad l       .data	00000000 I_xori_cg_cp_rs1_b21_str
00000380 l       .text.rvtest	00000000 I_xori_cg_cp_rs1_b22
00008add l       .data	00000000 I_xori_cg_cp_rs1_b22_str
000003a4 l       .text.rvtest	00000000 I_xori_cg_cp_rs1_b23
00008b0d l       .data	00000000 I_xori_cg_cp_rs1_b23_str
000003c8 l       .text.rvtest	00000000 I_xori_cg_cp_rs1_b24
00008b3d l       .data	00000000 I_xori_cg_cp_rs1_b24_str
000003ec l       .text.rvtest	00000000 I_xori_cg_cp_rs1_b25
00008b6d l       .data	00000000 I_xori_cg_cp_rs1_b25_str
00000410 l       .text.rvtest	00000000 I_xori_cg_cp_rs1_b26
00008b9d l       .data	00000000 I_xori_cg_cp_rs1_b26_str
00000438 l       .text.rvtest	00000000 I_xori_cg_cp_rs1_b27
00008bcd l       .data	00000000 I_xori_cg_cp_rs1_b27_str
0000045c l       .text.rvtest	00000000 I_xori_cg_cp_rs1_b28
00008bfd l       .data	00000000 I_xori_cg_cp_rs1_b28_str
00000480 l       .text.rvtest	00000000 I_xori_cg_cp_rs1_b29
00008c2d l       .data	00000000 I_xori_cg_cp_rs1_b29_str
000004a4 l       .text.rvtest	00000000 I_xori_cg_cp_rs1_b30
00008c5d l       .data	00000000 I_xori_cg_cp_rs1_b30_str
000004cc l       .text.rvtest	00000000 I_xori_cg_cp_rs1_b31
00008c8d l       .data	00000000 I_xori_cg_cp_rs1_b31_str
000004f0 l       .text.rvtest	00000000 I_xori_cg_cp_rd_b0
00008cbd l       .data	00000000 I_xori_cg_cp_rd_b0_str
00000514 l       .text.rvtest	00000000 I_xori_cg_cp_rd_b1
00008ceb l       .data	00000000 I_xori_cg_cp_rd_b1_str
00000538 l       .text.rvtest	00000000 I_xori_cg_cp_rd_b2
00008d19 l       .data	00000000 I_xori_cg_cp_rd_b2_str
0000055c l       .text.rvtest	00000000 I_xori_cg_cp_rd_b3
00008d47 l       .data	00000000 I_xori_cg_cp_rd_b3_str
00000580 l       .text.rvtest	00000000 I_xori_cg_cp_rd_b4
00008d75 l       .data	00000000 I_xori_cg_cp_rd_b4_str
000005a4 l       .text.rvtest	00000000 I_xori_cg_cp_rd_b5
00008da3 l       .data	00000000 I_xori_cg_cp_rd_b5_str
000005c8 l       .text.rvtest	00000000 I_xori_cg_cp_rd_b6
00008dd1 l       .data	00000000 I_xori_cg_cp_rd_b6_str
000005f4 l       .text.rvtest	00000000 I_xori_cg_cp_rd_b7
00008dff l       .data	00000000 I_xori_cg_cp_rd_b7_str
00000618 l       .text.rvtest	00000000 I_xori_cg_cp_rd_b8
00008e2d l       .data	00000000 I_xori_cg_cp_rd_b8_str
0000063c l       .text.rvtest	00000000 I_xori_cg_cp_rd_b9
00008e5b l       .data	00000000 I_xori_cg_cp_rd_b9_str
00000660 l       .text.rvtest	00000000 I_xori_cg_cp_rd_b10
00008e89 l       .data	00000000 I_xori_cg_cp_rd_b10_str
00000684 l       .text.rvtest	00000000 I_xori_cg_cp_rd_b11
00008eb8 l       .data	00000000 I_xori_cg_cp_rd_b11_str
000006a8 l       .text.rvtest	00000000 I_xori_cg_cp_rd_b12
00008ee7 l       .data	00000000 I_xori_cg_cp_rd_b12_str
000006d4 l       .text.rvtest	00000000 I_xori_cg_cp_rd_b13
00008f16 l       .data	00000000 I_xori_cg_cp_rd_b13_str
000006f8 l       .text.rvtest	00000000 I_xori_cg_cp_rd_b14
00008f45 l       .data	00000000 I_xori_cg_cp_rd_b14_str
0000071c l       .text.rvtest	00000000 I_xori_cg_cp_rd_b15
00008f74 l       .data	00000000 I_xori_cg_cp_rd_b15_str
00000744 l       .text.rvtest	00000000 I_xori_cg_cp_rd_b16
00008fa3 l       .data	00000000 I_xori_cg_cp_rd_b16_str
00000768 l       .text.rvtest	00000000 I_xori_cg_cp_rd_b17
00008fd2 l       .data	00000000 I_xori_cg_cp_rd_b17_str
0000078c l       .text.rvtest	00000000 I_xori_cg_cp_rd_b18
00009001 l       .data	00000000 I_xori_cg_cp_rd_b18_str
000007b0 l       .text.rvtest	00000000 I_xori_cg_cp_rd_b19
00009030 l       .data	00000000 I_xori_cg_cp_rd_b19_str
000007d4 l       .text.rvtest	00000000 I_xori_cg_cp_rd_b20
0000905f l       .data	00000000 I_xori_cg_cp_rd_b20_str
000007f8 l       .text.rvtest	00000000 I_xori_cg_cp_rd_b21
0000908e l       .data	00000000 I_xori_cg_cp_rd_b21_str
0000081c l       .text.rvtest	00000000 I_xori_cg_cp_rd_b22
000090bd l       .data	00000000 I_xori_cg_cp_rd_b22_str
00000840 l       .text.rvtest	00000000 I_xori_cg_cp_rd_b23
000090ec l       .data	00000000 I_xori_cg_cp_rd_b23_str
00000864 l       .text.rvtest	00000000 I_xori_cg_cp_rd_b24
0000911b l       .data	00000000 I_xori_cg_cp_rd_b24_str
0000088c l       .text.rvtest	00000000 I_xori_cg_cp_rd_b25
0000914a l       .data	00000000 I_xori_cg_cp_rd_b25_str
000008b0 l       .text.rvtest	00000000 I_xori_cg_cp_rd_b26
00009179 l       .data	00000000 I_xori_cg_cp_rd_b26_str
000008d4 l       .text.rvtest	00000000 I_xori_cg_cp_rd_b27
000091a8 l       .data	00000000 I_xori_cg_cp_rd_b27_str
000008f8 l       .text.rvtest	00000000 I_xori_cg_cp_rd_b28
000091d7 l       .data	00000000 I_xori_cg_cp_rd_b28_str
0000091c l       .text.rvtest	00000000 I_xori_cg_cp_rd_b29
00009206 l       .data	00000000 I_xori_cg_cp_rd_b29_str
00000940 l       .text.rvtest	00000000 I_xori_cg_cp_rd_b30
00009235 l       .data	00000000 I_xori_cg_cp_rd_b30_str
00000964 l       .text.rvtest	00000000 I_xori_cg_cp_rd_b31
00009264 l       .data	00000000 I_xori_cg_cp_rd_b31_str
00000988 l       .text.rvtest	00000000 I_xori_cg_cp_rs1_edges_0x0
00009293 l       .data	00000000 I_xori_cg_cp_rs1_edges_0x0_str
000009ac l       .text.rvtest	00000000 I_xori_cg_cp_rs1_edges_0x1
000092c9 l       .data	00000000 I_xori_cg_cp_rs1_edges_0x1_str
000009d0 l       .text.rvtest	00000000 I_xori_cg_cp_rs1_edges_0x2
000092ff l       .data	00000000 I_xori_cg_cp_rs1_edges_0x2_str
000009f4 l       .text.rvtest	00000000 I_xori_cg_cp_rs1_edges_0x80000000
00009335 l       .data	00000000 I_xori_cg_cp_rs1_edges_0x80000000_str
00000a18 l       .text.rvtest	00000000 I_xori_cg_cp_rs1_edges_0x80000001
00009372 l       .data	00000000 I_xori_cg_cp_rs1_edges_0x80000001_str
00000a3c l       .text.rvtest	00000000 I_xori_cg_cp_rs1_edges_0x7fffffff
000093af l       .data	00000000 I_xori_cg_cp_rs1_edges_0x7fffffff_str
00000a60 l       .text.rvtest	00000000 I_xori_cg_cp_rs1_edges_0x7ffffffe
000093ec l       .data	00000000 I_xori_cg_cp_rs1_edges_0x7ffffffe_str
00000a84 l       .text.rvtest	00000000 I_xori_cg_cp_rs1_edges_0xffffffff
00009429 l       .data	00000000 I_xori_cg_cp_rs1_edges_0xffffffff_str
00000aa8 l       .text.rvtest	00000000 I_xori_cg_cp_rs1_edges_0xfffffffe
00009466 l       .data	00000000 I_xori_cg_cp_rs1_edges_0xfffffffe_str
00000acc l       .text.rvtest	00000000 I_xori_cg_cp_rs1_edges_0x5bbc8872
000094a3 l       .data	00000000 I_xori_cg_cp_rs1_edges_0x5bbc8872_str
00000af0 l       .text.rvtest	00000000 I_xori_cg_cp_rs1_edges_0xaaaaaaaa
000094e0 l       .data	00000000 I_xori_cg_cp_rs1_edges_0xaaaaaaaa_str
00000b14 l       .text.rvtest	00000000 I_xori_cg_cp_rs1_edges_0x55555555
0000951d l       .data	00000000 I_xori_cg_cp_rs1_edges_0x55555555_str
00000b38 l       .text.rvtest	00000000 I_xori_cg_cr_rs1_imm_edges_rs1val_0x0_immval_0x0
0000955a l       .data	00000000 I_xori_cg_cr_rs1_imm_edges_rs1val_0x0_immval_0x0_str
00000b5c l       .text.rvtest	00000000 I_xori_cg_cr_rs1_imm_edges_rs1val_0x0_immval_0x1
000095a7 l       .data	00000000 I_xori_cg_cr_rs1_imm_edges_rs1val_0x0_immval_0x1_str
00000b80 l       .text.rvtest	00000000 I_xori_cg_cr_rs1_imm_edges_rs1val_0x0_immval_0x2
000095f4 l       .data	00000000 I_xori_cg_cr_rs1_imm_edges_rs1val_0x0_immval_0x2_str
00000ba4 l       .text.rvtest	00000000 I_xori_cg_cr_rs1_imm_edges_rs1val_0x0_immval_0x3
00009641 l       .data	00000000 I_xori_cg_cr_rs1_imm_edges_rs1val_0x0_immval_0x3_str
00000bc8 l       .text.rvtest	00000000 I_xori_cg_cr_rs1_imm_edges_rs1val_0x0_immval_0x4
0000968e l       .data	00000000 I_xori_cg_cr_rs1_imm_edges_rs1val_0x0_immval_0x4_str
00000bec l       .text.rvtest	00000000 I_xori_cg_cr_rs1_imm_edges_rs1val_0x0_immval_0x8
000096db l       .data	00000000 I_xori_cg_cr_rs1_imm_edges_rs1val_0x0_immval_0x8_str
00000c10 l       .text.rvtest	00000000 I_xori_cg_cr_rs1_imm_edges_rs1val_0x0_immval_0x10
00009728 l       .data	00000000 I_xori_cg_cr_rs1_imm_edges_rs1val_0x0_immval_0x10_str
00000c34 l       .text.rvtest	00000000 I_xori_cg_cr_rs1_imm_edges_rs1val_0x0_immval_0x20
00009776 l       .data	00000000 I_xori_cg_cr_rs1_imm_edges_rs1val_0x0_immval_0x20_str
00000c58 l       .text.rvtest	00000000 I_xori_cg_cr_rs1_imm_edges_rs1val_0x0_immval_0x40
000097c4 l       .data	00000000 I_xori_cg_cr_rs1_imm_edges_rs1val_0x0_immval_0x40_str
00000c7c l       .text.rvtest	00000000 I_xori_cg_cr_rs1_imm_edges_rs1val_0x0_immval_0x80
00009812 l       .data	00000000 I_xori_cg_cr_rs1_imm_edges_rs1val_0x0_immval_0x80_str
00000ca0 l       .text.rvtest	00000000 I_xori_cg_cr_rs1_imm_edges_rs1val_0x0_immval_0x100
00009860 l       .data	00000000 I_xori_cg_cr_rs1_imm_edges_rs1val_0x0_immval_0x100_str
00000cc4 l       .text.rvtest	00000000 I_xori_cg_cr_rs1_imm_edges_rs1val_0x0_immval_0x200
000098af l       .data	00000000 I_xori_cg_cr_rs1_imm_edges_rs1val_0x0_immval_0x200_str
00000ce8 l       .text.rvtest	00000000 I_xori_cg_cr_rs1_imm_edges_rs1val_0x0_immval_0x3ff
000098fe l       .data	00000000 I_xori_cg_cr_rs1_imm_edges_rs1val_0x0_immval_0x3ff_str
00000d0c l       .text.rvtest	00000000 I_xori_cg_cr_rs1_imm_edges_rs1val_0x0_immval_0x400
0000994d l       .data	00000000 I_xori_cg_cr_rs1_imm_edges_rs1val_0x0_immval_0x400_str
00000d30 l       .text.rvtest	00000000 I_xori_cg_cr_rs1_imm_edges_rs1val_0x0_immval_0x703
0000999c l       .data	00000000 I_xori_cg_cr_rs1_imm_edges_rs1val_0x0_immval_0x703_str
00000d54 l       .text.rvtest	00000000 I_xori_cg_cr_rs1_imm_edges_rs1val_0x0_immval_0x7ff
000099eb l       .data	00000000 I_xori_cg_cr_rs1_imm_edges_rs1val_0x0_immval_0x7ff_str
00000d78 l       .text.rvtest	00000000 I_xori_cg_cr_rs1_imm_edges_rs1val_0x0_immval_m0x800
00009a3a l       .data	00000000 I_xori_cg_cr_rs1_imm_edges_rs1val_0x0_immval_m0x800_str
00000d9c l       .text.rvtest	00000000 I_xori_cg_cr_rs1_imm_edges_rs1val_0x0_immval_m0x7ff
00009a8a l       .data	00000000 I_xori_cg_cr_rs1_imm_edges_rs1val_0x0_immval_m0x7ff_str
00000dc0 l       .text.rvtest	00000000 I_xori_cg_cr_rs1_imm_edges_rs1val_0x0_immval_m0x2
00009ada l       .data	00000000 I_xori_cg_cr_rs1_imm_edges_rs1val_0x0_immval_m0x2_str
00000de4 l       .text.rvtest	00000000 I_xori_cg_cr_rs1_imm_edges_rs1val_0x0_immval_m0x1
00009b28 l       .data	00000000 I_xori_cg_cr_rs1_imm_edges_rs1val_0x0_immval_m0x1_str
00000e08 l       .text.rvtest	00000000 I_xori_cg_cr_rs1_imm_edges_rs1val_0x1_immval_0x0
00009b76 l       .data	00000000 I_xori_cg_cr_rs1_imm_edges_rs1val_0x1_immval_0x0_str
00000e2c l       .text.rvtest	00000000 I_xori_cg_cr_rs1_imm_edges_rs1val_0x1_immval_0x1
00009bc3 l       .data	00000000 I_xori_cg_cr_rs1_imm_edges_rs1val_0x1_immval_0x1_str
00000e50 l       .text.rvtest	00000000 I_xori_cg_cr_rs1_imm_edges_rs1val_0x1_immval_0x2
00009c10 l       .data	00000000 I_xori_cg_cr_rs1_imm_edges_rs1val_0x1_immval_0x2_str
00000e74 l       .text.rvtest	00000000 I_xori_cg_cr_rs1_imm_edges_rs1val_0x1_immval_0x3
00009c5d l       .data	00000000 I_xori_cg_cr_rs1_imm_edges_rs1val_0x1_immval_0x3_str
00000e98 l       .text.rvtest	00000000 I_xori_cg_cr_rs1_imm_edges_rs1val_0x1_immval_0x4
00009cab l       .data	00000000 I_xori_cg_cr_rs1_imm_edges_rs1val_0x1_immval_0x4_str
00000ebc l       .text.rvtest	00000000 I_xori_cg_cr_rs1_imm_edges_rs1val_0x1_immval_0x8
00009cf9 l       .data	00000000 I_xori_cg_cr_rs1_imm_edges_rs1val_0x1_immval_0x8_str
00000ee0 l       .text.rvtest	00000000 I_xori_cg_cr_rs1_imm_edges_rs1val_0x1_immval_0x10
00009d47 l       .data	00000000 I_xori_cg_cr_rs1_imm_edges_rs1val_0x1_immval_0x10_str
00000f04 l       .text.rvtest	00000000 I_xori_cg_cr_rs1_imm_edges_rs1val_0x1_immval_0x20
00009d96 l       .data	00000000 I_xori_cg_cr_rs1_imm_edges_rs1val_0x1_immval_0x20_str
00000f28 l       .text.rvtest	00000000 I_xori_cg_cr_rs1_imm_edges_rs1val_0x1_immval_0x40
00009de5 l       .data	00000000 I_xori_cg_cr_rs1_imm_edges_rs1val_0x1_immval_0x40_str
00000f4c l       .text.rvtest	00000000 I_xori_cg_cr_rs1_imm_edges_rs1val_0x1_immval_0x80
00009e34 l       .data	00000000 I_xori_cg_cr_rs1_imm_edges_rs1val_0x1_immval_0x80_str
00000f70 l       .text.rvtest	00000000 I_xori_cg_cr_rs1_imm_edges_rs1val_0x1_immval_0x100
00009e83 l       .data	00000000 I_xori_cg_cr_rs1_imm_edges_rs1val_0x1_immval_0x100_str
00000f94 l       .text.rvtest	00000000 I_xori_cg_cr_rs1_imm_edges_rs1val_0x1_immval_0x200
00009ed3 l       .data	00000000 I_xori_cg_cr_rs1_imm_edges_rs1val_0x1_immval_0x200_str
00000fb8 l       .text.rvtest	00000000 I_xori_cg_cr_rs1_imm_edges_rs1val_0x1_immval_0x3ff
00009f23 l       .data	00000000 I_xori_cg_cr_rs1_imm_edges_rs1val_0x1_immval_0x3ff_str
00000fdc l       .text.rvtest	00000000 I_xori_cg_cr_rs1_imm_edges_rs1val_0x1_immval_0x400
00009f73 l       .data	00000000 I_xori_cg_cr_rs1_imm_edges_rs1val_0x1_immval_0x400_str
00001000 l       .text.rvtest	00000000 I_xori_cg_cr_rs1_imm_edges_rs1val_0x1_immval_0x703
00009fc3 l       .data	00000000 I_xori_cg_cr_rs1_imm_edges_rs1val_0x1_immval_0x703_str
00001024 l       .text.rvtest	00000000 I_xori_cg_cr_rs1_imm_edges_rs1val_0x1_immval_0x7ff
0000a013 l       .data	00000000 I_xori_cg_cr_rs1_imm_edges_rs1val_0x1_immval_0x7ff_str
00001048 l       .text.rvtest	00000000 I_xori_cg_cr_rs1_imm_edges_rs1val_0x1_immval_m0x800
0000a063 l       .data	00000000 I_xori_cg_cr_rs1_imm_edges_rs1val_0x1_immval_m0x800_str
0000106c l       .text.rvtest	00000000 I_xori_cg_cr_rs1_imm_edges_rs1val_0x1_immval_m0x7ff
0000a0b4 l       .data	00000000 I_xori_cg_cr_rs1_imm_edges_rs1val_0x1_immval_m0x7ff_str
00001090 l       .text.rvtest	00000000 I_xori_cg_cr_rs1_imm_edges_rs1val_0x1_immval_m0x2
0000a105 l       .data	00000000 I_xori_cg_cr_rs1_imm_edges_rs1val_0x1_immval_m0x2_str
000010b4 l       .text.rvtest	00000000 I_xori_cg_cr_rs1_imm_edges_rs1val_0x1_immval_m0x1
0000a154 l       .data	00000000 I_xori_cg_cr_rs1_imm_edges_rs1val_0x1_immval_m0x1_str
000010d8 l       .text.rvtest	00000000 I_xori_cg_cr_rs1_imm_edges_rs1val_0x2_immval_0x0
0000a1a3 l       .data	00000000 I_xori_cg_cr_rs1_imm_edges_rs1val_0x2_immval_0x0_str
000010fc l       .text.rvtest	00000000 I_xori_cg_cr_rs1_imm_edges_rs1val_0x2_immval_0x1
0000a1f1 l       .data	00000000 I_xori_cg_cr_rs1_imm_edges_rs1val_0x2_immval_0x1_str
00001120 l       .text.rvtest	00000000 I_xori_cg_cr_rs1_imm_edges_rs1val_0x2_immval_0x2
0000a23f l       .data	00000000 I_xori_cg_cr_rs1_imm_edges_rs1val_0x2_immval_0x2_str
00001144 l       .text.rvtest	00000000 I_xori_cg_cr_rs1_imm_edges_rs1val_0x2_immval_0x3
0000a28d l       .data	00000000 I_xori_cg_cr_rs1_imm_edges_rs1val_0x2_immval_0x3_str
00001168 l       .text.rvtest	00000000 I_xori_cg_cr_rs1_imm_edges_rs1val_0x2_immval_0x4
0000a2db l       .data	00000000 I_xori_cg_cr_rs1_imm_edges_rs1val_0x2_immval_0x4_str
0000118c l       .text.rvtest	00000000 I_xori_cg_cr_rs1_imm_edges_rs1val_0x2_immval_0x8
0000a329 l       .data	00000000 I_xori_cg_cr_rs1_imm_edges_rs1val_0x2_immval_0x8_str
000011b0 l       .text.rvtest	00000000 I_xori_cg_cr_rs1_imm_edges_rs1val_0x2_immval_0x10
0000a377 l       .data	00000000 I_xori_cg_cr_rs1_imm_edges_rs1val_0x2_immval_0x10_str
000011d4 l       .text.rvtest	00000000 I_xori_cg_cr_rs1_imm_edges_rs1val_0x2_immval_0x20
0000a3c6 l       .data	00000000 I_xori_cg_cr_rs1_imm_edges_rs1val_0x2_immval_0x20_str
000011f8 l       .text.rvtest	00000000 I_xori_cg_cr_rs1_imm_edges_rs1val_0x2_immval_0x40
0000a415 l       .data	00000000 I_xori_cg_cr_rs1_imm_edges_rs1val_0x2_immval_0x40_str
0000121c l       .text.rvtest	00000000 I_xori_cg_cr_rs1_imm_edges_rs1val_0x2_immval_0x80
0000a464 l       .data	00000000 I_xori_cg_cr_rs1_imm_edges_rs1val_0x2_immval_0x80_str
00001240 l       .text.rvtest	00000000 I_xori_cg_cr_rs1_imm_edges_rs1val_0x2_immval_0x100
0000a4b3 l       .data	00000000 I_xori_cg_cr_rs1_imm_edges_rs1val_0x2_immval_0x100_str
00001264 l       .text.rvtest	00000000 I_xori_cg_cr_rs1_imm_edges_rs1val_0x2_immval_0x200
0000a503 l       .data	00000000 I_xori_cg_cr_rs1_imm_edges_rs1val_0x2_immval_0x200_str
00001288 l       .text.rvtest	00000000 I_xori_cg_cr_rs1_imm_edges_rs1val_0x2_immval_0x3ff
0000a553 l       .data	00000000 I_xori_cg_cr_rs1_imm_edges_rs1val_0x2_immval_0x3ff_str
000012ac l       .text.rvtest	00000000 I_xori_cg_cr_rs1_imm_edges_rs1val_0x2_immval_0x400
0000a5a3 l       .data	00000000 I_xori_cg_cr_rs1_imm_edges_rs1val_0x2_immval_0x400_str
000012d0 l       .text.rvtest	00000000 I_xori_cg_cr_rs1_imm_edges_rs1val_0x2_immval_0x703
0000a5f3 l       .data	00000000 I_xori_cg_cr_rs1_imm_edges_rs1val_0x2_immval_0x703_str
000012f4 l       .text.rvtest	00000000 I_xori_cg_cr_rs1_imm_edges_rs1val_0x2_immval_0x7ff
0000a643 l       .data	00000000 I_xori_cg_cr_rs1_imm_edges_rs1val_0x2_immval_0x7ff_str
00001318 l       .text.rvtest	00000000 I_xori_cg_cr_rs1_imm_edges_rs1val_0x2_immval_m0x800
0000a693 l       .data	00000000 I_xori_cg_cr_rs1_imm_edges_rs1val_0x2_immval_m0x800_str
0000133c l       .text.rvtest	00000000 I_xori_cg_cr_rs1_imm_edges_rs1val_0x2_immval_m0x7ff
0000a6e4 l       .data	00000000 I_xori_cg_cr_rs1_imm_edges_rs1val_0x2_immval_m0x7ff_str
00001360 l       .text.rvtest	00000000 I_xori_cg_cr_rs1_imm_edges_rs1val_0x2_immval_m0x2
0000a735 l       .data	00000000 I_xori_cg_cr_rs1_imm_edges_rs1val_0x2_immval_m0x2_str
00001384 l       .text.rvtest	00000000 I_xori_cg_cr_rs1_imm_edges_rs1val_0x2_immval_m0x1
0000a784 l       .data	00000000 I_xori_cg_cr_rs1_imm_edges_rs1val_0x2_immval_m0x1_str
000013a8 l       .text.rvtest	00000000 I_xori_cg_cr_rs1_imm_edges_rs1val_0x80000000_immval_0x0
0000a7d3 l       .data	00000000 I_xori_cg_cr_rs1_imm_edges_rs1val_0x80000000_immval_0x0_str
000013cc l       .text.rvtest	00000000 I_xori_cg_cr_rs1_imm_edges_rs1val_0x80000000_immval_0x1
0000a828 l       .data	00000000 I_xori_cg_cr_rs1_imm_edges_rs1val_0x80000000_immval_0x1_str
000013f0 l       .text.rvtest	00000000 I_xori_cg_cr_rs1_imm_edges_rs1val_0x80000000_immval_0x2
0000a87d l       .data	00000000 I_xori_cg_cr_rs1_imm_edges_rs1val_0x80000000_immval_0x2_str
00001414 l       .text.rvtest	00000000 I_xori_cg_cr_rs1_imm_edges_rs1val_0x80000000_immval_0x3
0000a8d2 l       .data	00000000 I_xori_cg_cr_rs1_imm_edges_rs1val_0x80000000_immval_0x3_str
00001438 l       .text.rvtest	00000000 I_xori_cg_cr_rs1_imm_edges_rs1val_0x80000000_immval_0x4
0000a927 l       .data	00000000 I_xori_cg_cr_rs1_imm_edges_rs1val_0x80000000_immval_0x4_str
0000145c l       .text.rvtest	00000000 I_xori_cg_cr_rs1_imm_edges_rs1val_0x80000000_immval_0x8
0000a97c l       .data	00000000 I_xori_cg_cr_rs1_imm_edges_rs1val_0x80000000_immval_0x8_str
00001480 l       .text.rvtest	00000000 I_xori_cg_cr_rs1_imm_edges_rs1val_0x80000000_immval_0x10
0000a9d1 l       .data	00000000 I_xori_cg_cr_rs1_imm_edges_rs1val_0x80000000_immval_0x10_str
000014a4 l       .text.rvtest	00000000 I_xori_cg_cr_rs1_imm_edges_rs1val_0x80000000_immval_0x20
0000aa27 l       .data	00000000 I_xori_cg_cr_rs1_imm_edges_rs1val_0x80000000_immval_0x20_str
000014c8 l       .text.rvtest	00000000 I_xori_cg_cr_rs1_imm_edges_rs1val_0x80000000_immval_0x40
0000aa7d l       .data	00000000 I_xori_cg_cr_rs1_imm_edges_rs1val_0x80000000_immval_0x40_str
000014ec l       .text.rvtest	00000000 I_xori_cg_cr_rs1_imm_edges_rs1val_0x80000000_immval_0x80
0000aad3 l       .data	00000000 I_xori_cg_cr_rs1_imm_edges_rs1val_0x80000000_immval_0x80_str
00001510 l       .text.rvtest	00000000 I_xori_cg_cr_rs1_imm_edges_rs1val_0x80000000_immval_0x100
0000ab29 l       .data	00000000 I_xori_cg_cr_rs1_imm_edges_rs1val_0x80000000_immval_0x100_str
00001534 l       .text.rvtest	00000000 I_xori_cg_cr_rs1_imm_edges_rs1val_0x80000000_immval_0x200
0000ab80 l       .data	00000000 I_xori_cg_cr_rs1_imm_edges_rs1val_0x80000000_immval_0x200_str
00001558 l       .text.rvtest	00000000 I_xori_cg_cr_rs1_imm_edges_rs1val_0x80000000_immval_0x3ff
0000abd7 l       .data	00000000 I_xori_cg_cr_rs1_imm_edges_rs1val_0x80000000_immval_0x3ff_str
0000157c l       .text.rvtest	00000000 I_xori_cg_cr_rs1_imm_edges_rs1val_0x80000000_immval_0x400
0000ac2e l       .data	00000000 I_xori_cg_cr_rs1_imm_edges_rs1val_0x80000000_immval_0x400_str
000015a0 l       .text.rvtest	00000000 I_xori_cg_cr_rs1_imm_edges_rs1val_0x80000000_immval_0x703
0000ac85 l       .data	00000000 I_xori_cg_cr_rs1_imm_edges_rs1val_0x80000000_immval_0x703_str
000015c4 l       .text.rvtest	00000000 I_xori_cg_cr_rs1_imm_edges_rs1val_0x80000000_immval_0x7ff
0000acdc l       .data	00000000 I_xori_cg_cr_rs1_imm_edges_rs1val_0x80000000_immval_0x7ff_str
000015e8 l       .text.rvtest	00000000 I_xori_cg_cr_rs1_imm_edges_rs1val_0x80000000_immval_m0x800
0000ad33 l       .data	00000000 I_xori_cg_cr_rs1_imm_edges_rs1val_0x80000000_immval_m0x800_str
0000160c l       .text.rvtest	00000000 I_xori_cg_cr_rs1_imm_edges_rs1val_0x80000000_immval_m0x7ff
0000ad8b l       .data	00000000 I_xori_cg_cr_rs1_imm_edges_rs1val_0x80000000_immval_m0x7ff_str
00001630 l       .text.rvtest	00000000 I_xori_cg_cr_rs1_imm_edges_rs1val_0x80000000_immval_m0x2
0000ade3 l       .data	00000000 I_xori_cg_cr_rs1_imm_edges_rs1val_0x80000000_immval_m0x2_str
00001654 l       .text.rvtest	00000000 I_xori_cg_cr_rs1_imm_edges_rs1val_0x80000000_immval_m0x1
0000ae39 l       .data	00000000 I_xori_cg_cr_rs1_imm_edges_rs1val_0x80000000_immval_m0x1_str
00001678 l       .text.rvtest	00000000 I_xori_cg_cr_rs1_imm_edges_rs1val_0x80000001_immval_0x0
0000ae8f l       .data	00000000 I_xori_cg_cr_rs1_imm_edges_rs1val_0x80000001_immval_0x0_str
0000169c l       .text.rvtest	00000000 I_xori_cg_cr_rs1_imm_edges_rs1val_0x80000001_immval_0x1
0000aee4 l       .data	00000000 I_xori_cg_cr_rs1_imm_edges_rs1val_0x80000001_immval_0x1_str
000016c0 l       .text.rvtest	00000000 I_xori_cg_cr_rs1_imm_edges_rs1val_0x80000001_immval_0x2
0000af39 l       .data	00000000 I_xori_cg_cr_rs1_imm_edges_rs1val_0x80000001_immval_0x2_str
000016e4 l       .text.rvtest	00000000 I_xori_cg_cr_rs1_imm_edges_rs1val_0x80000001_immval_0x3
0000af8e l       .data	00000000 I_xori_cg_cr_rs1_imm_edges_rs1val_0x80000001_immval_0x3_str
00001708 l       .text.rvtest	00000000 I_xori_cg_cr_rs1_imm_edges_rs1val_0x80000001_immval_0x4
0000afe3 l       .data	00000000 I_xori_cg_cr_rs1_imm_edges_rs1val_0x80000001_immval_0x4_str
0000172c l       .text.rvtest	00000000 I_xori_cg_cr_rs1_imm_edges_rs1val_0x80000001_immval_0x8
0000b038 l       .data	00000000 I_xori_cg_cr_rs1_imm_edges_rs1val_0x80000001_immval_0x8_str
00001750 l       .text.rvtest	00000000 I_xori_cg_cr_rs1_imm_edges_rs1val_0x80000001_immval_0x10
0000b08d l       .data	00000000 I_xori_cg_cr_rs1_imm_edges_rs1val_0x80000001_immval_0x10_str
00001774 l       .text.rvtest	00000000 I_xori_cg_cr_rs1_imm_edges_rs1val_0x80000001_immval_0x20
0000b0e3 l       .data	00000000 I_xori_cg_cr_rs1_imm_edges_rs1val_0x80000001_immval_0x20_str
00001798 l       .text.rvtest	00000000 I_xori_cg_cr_rs1_imm_edges_rs1val_0x80000001_immval_0x40
0000b139 l       .data	00000000 I_xori_cg_cr_rs1_imm_edges_rs1val_0x80000001_immval_0x40_str
000017bc l       .text.rvtest	00000000 I_xori_cg_cr_rs1_imm_edges_rs1val_0x80000001_immval_0x80
0000b18f l       .data	00000000 I_xori_cg_cr_rs1_imm_edges_rs1val_0x80000001_immval_0x80_str
000017e0 l       .text.rvtest	00000000 I_xori_cg_cr_rs1_imm_edges_rs1val_0x80000001_immval_0x100
0000b1e5 l       .data	00000000 I_xori_cg_cr_rs1_imm_edges_rs1val_0x80000001_immval_0x100_str
00001804 l       .text.rvtest	00000000 I_xori_cg_cr_rs1_imm_edges_rs1val_0x80000001_immval_0x200
0000b23c l       .data	00000000 I_xori_cg_cr_rs1_imm_edges_rs1val_0x80000001_immval_0x200_str
00001828 l       .text.rvtest	00000000 I_xori_cg_cr_rs1_imm_edges_rs1val_0x80000001_immval_0x3ff
0000b293 l       .data	00000000 I_xori_cg_cr_rs1_imm_edges_rs1val_0x80000001_immval_0x3ff_str
0000184c l       .text.rvtest	00000000 I_xori_cg_cr_rs1_imm_edges_rs1val_0x80000001_immval_0x400
0000b2ea l       .data	00000000 I_xori_cg_cr_rs1_imm_edges_rs1val_0x80000001_immval_0x400_str
00001870 l       .text.rvtest	00000000 I_xori_cg_cr_rs1_imm_edges_rs1val_0x80000001_immval_0x703
0000b341 l       .data	00000000 I_xori_cg_cr_rs1_imm_edges_rs1val_0x80000001_immval_0x703_str
00001894 l       .text.rvtest	00000000 I_xori_cg_cr_rs1_imm_edges_rs1val_0x80000001_immval_0x7ff
0000b398 l       .data	00000000 I_xori_cg_cr_rs1_imm_edges_rs1val_0x80000001_immval_0x7ff_str
000018b8 l       .text.rvtest	00000000 I_xori_cg_cr_rs1_imm_edges_rs1val_0x80000001_immval_m0x800
0000b3ef l       .data	00000000 I_xori_cg_cr_rs1_imm_edges_rs1val_0x80000001_immval_m0x800_str
000018dc l       .text.rvtest	00000000 I_xori_cg_cr_rs1_imm_edges_rs1val_0x80000001_immval_m0x7ff
0000b447 l       .data	00000000 I_xori_cg_cr_rs1_imm_edges_rs1val_0x80000001_immval_m0x7ff_str
00001900 l       .text.rvtest	00000000 I_xori_cg_cr_rs1_imm_edges_rs1val_0x80000001_immval_m0x2
0000b49f l       .data	00000000 I_xori_cg_cr_rs1_imm_edges_rs1val_0x80000001_immval_m0x2_str
00001924 l       .text.rvtest	00000000 I_xori_cg_cr_rs1_imm_edges_rs1val_0x80000001_immval_m0x1
0000b4f5 l       .data	00000000 I_xori_cg_cr_rs1_imm_edges_rs1val_0x80000001_immval_m0x1_str
00001948 l       .text.rvtest	00000000 I_xori_cg_cr_rs1_imm_edges_rs1val_0x7fffffff_immval_0x0
0000b54b l       .data	00000000 I_xori_cg_cr_rs1_imm_edges_rs1val_0x7fffffff_immval_0x0_str
0000196c l       .text.rvtest	00000000 I_xori_cg_cr_rs1_imm_edges_rs1val_0x7fffffff_immval_0x1
0000b5a0 l       .data	00000000 I_xori_cg_cr_rs1_imm_edges_rs1val_0x7fffffff_immval_0x1_str
00001990 l       .text.rvtest	00000000 I_xori_cg_cr_rs1_imm_edges_rs1val_0x7fffffff_immval_0x2
0000b5f5 l       .data	00000000 I_xori_cg_cr_rs1_imm_edges_rs1val_0x7fffffff_immval_0x2_str
000019b4 l       .text.rvtest	00000000 I_xori_cg_cr_rs1_imm_edges_rs1val_0x7fffffff_immval_0x3
0000b64a l       .data	00000000 I_xori_cg_cr_rs1_imm_edges_rs1val_0x7fffffff_immval_0x3_str
000019d8 l       .text.rvtest	00000000 I_xori_cg_cr_rs1_imm_edges_rs1val_0x7fffffff_immval_0x4
0000b69f l       .data	00000000 I_xori_cg_cr_rs1_imm_edges_rs1val_0x7fffffff_immval_0x4_str
000019fc l       .text.rvtest	00000000 I_xori_cg_cr_rs1_imm_edges_rs1val_0x7fffffff_immval_0x8
0000b6f4 l       .data	00000000 I_xori_cg_cr_rs1_imm_edges_rs1val_0x7fffffff_immval_0x8_str
00001a20 l       .text.rvtest	00000000 I_xori_cg_cr_rs1_imm_edges_rs1val_0x7fffffff_immval_0x10
0000b749 l       .data	00000000 I_xori_cg_cr_rs1_imm_edges_rs1val_0x7fffffff_immval_0x10_str
00001a44 l       .text.rvtest	00000000 I_xori_cg_cr_rs1_imm_edges_rs1val_0x7fffffff_immval_0x20
0000b79f l       .data	00000000 I_xori_cg_cr_rs1_imm_edges_rs1val_0x7fffffff_immval_0x20_str
00001a68 l       .text.rvtest	00000000 I_xori_cg_cr_rs1_imm_edges_rs1val_0x7fffffff_immval_0x40
0000b7f5 l       .data	00000000 I_xori_cg_cr_rs1_imm_edges_rs1val_0x7fffffff_immval_0x40_str
00001a8c l       .text.rvtest	00000000 I_xori_cg_cr_rs1_imm_edges_rs1val_0x7fffffff_immval_0x80
0000b84b l       .data	00000000 I_xori_cg_cr_rs1_imm_edges_rs1val_0x7fffffff_immval_0x80_str
00001ab0 l       .text.rvtest	00000000 I_xori_cg_cr_rs1_imm_edges_rs1val_0x7fffffff_immval_0x100
0000b8a1 l       .data	00000000 I_xori_cg_cr_rs1_imm_edges_rs1val_0x7fffffff_immval_0x100_str
00001ad4 l       .text.rvtest	00000000 I_xori_cg_cr_rs1_imm_edges_rs1val_0x7fffffff_immval_0x200
0000b8f8 l       .data	00000000 I_xori_cg_cr_rs1_imm_edges_rs1val_0x7fffffff_immval_0x200_str
00001af8 l       .text.rvtest	00000000 I_xori_cg_cr_rs1_imm_edges_rs1val_0x7fffffff_immval_0x3ff
0000b94f l       .data	00000000 I_xori_cg_cr_rs1_imm_edges_rs1val_0x7fffffff_immval_0x3ff_str
00001b1c l       .text.rvtest	00000000 I_xori_cg_cr_rs1_imm_edges_rs1val_0x7fffffff_immval_0x400
0000b9a6 l       .data	00000000 I_xori_cg_cr_rs1_imm_edges_rs1val_0x7fffffff_immval_0x400_str
00001b40 l       .text.rvtest	00000000 I_xori_cg_cr_rs1_imm_edges_rs1val_0x7fffffff_immval_0x703
0000b9fd l       .data	00000000 I_xori_cg_cr_rs1_imm_edges_rs1val_0x7fffffff_immval_0x703_str
00001b64 l       .text.rvtest	00000000 I_xori_cg_cr_rs1_imm_edges_rs1val_0x7fffffff_immval_0x7ff
0000ba54 l       .data	00000000 I_xori_cg_cr_rs1_imm_edges_rs1val_0x7fffffff_immval_0x7ff_str
00001b88 l       .text.rvtest	00000000 I_xori_cg_cr_rs1_imm_edges_rs1val_0x7fffffff_immval_m0x800
0000baab l       .data	00000000 I_xori_cg_cr_rs1_imm_edges_rs1val_0x7fffffff_immval_m0x800_str
00001bac l       .text.rvtest	00000000 I_xori_cg_cr_rs1_imm_edges_rs1val_0x7fffffff_immval_m0x7ff
0000bb03 l       .data	00000000 I_xori_cg_cr_rs1_imm_edges_rs1val_0x7fffffff_immval_m0x7ff_str
00001bd0 l       .text.rvtest	00000000 I_xori_cg_cr_rs1_imm_edges_rs1val_0x7fffffff_immval_m0x2
0000bb5b l       .data	00000000 I_xori_cg_cr_rs1_imm_edges_rs1val_0x7fffffff_immval_m0x2_str
00001bf4 l       .text.rvtest	00000000 I_xori_cg_cr_rs1_imm_edges_rs1val_0x7fffffff_immval_m0x1
0000bbb1 l       .data	00000000 I_xori_cg_cr_rs1_imm_edges_rs1val_0x7fffffff_immval_m0x1_str
00001c18 l       .text.rvtest	00000000 I_xori_cg_cr_rs1_imm_edges_rs1val_0x7ffffffe_immval_0x0
0000bc07 l       .data	00000000 I_xori_cg_cr_rs1_imm_edges_rs1val_0x7ffffffe_immval_0x0_str
00001c3c l       .text.rvtest	00000000 I_xori_cg_cr_rs1_imm_edges_rs1val_0x7ffffffe_immval_0x1
0000bc5c l       .data	00000000 I_xori_cg_cr_rs1_imm_edges_rs1val_0x7ffffffe_immval_0x1_str
00001c60 l       .text.rvtest	00000000 I_xori_cg_cr_rs1_imm_edges_rs1val_0x7ffffffe_immval_0x2
0000bcb1 l       .data	00000000 I_xori_cg_cr_rs1_imm_edges_rs1val_0x7ffffffe_immval_0x2_str
00001c84 l       .text.rvtest	00000000 I_xori_cg_cr_rs1_imm_edges_rs1val_0x7ffffffe_immval_0x3
0000bd06 l       .data	00000000 I_xori_cg_cr_rs1_imm_edges_rs1val_0x7ffffffe_immval_0x3_str
00001ca8 l       .text.rvtest	00000000 I_xori_cg_cr_rs1_imm_edges_rs1val_0x7ffffffe_immval_0x4
0000bd5b l       .data	00000000 I_xori_cg_cr_rs1_imm_edges_rs1val_0x7ffffffe_immval_0x4_str
00001ccc l       .text.rvtest	00000000 I_xori_cg_cr_rs1_imm_edges_rs1val_0x7ffffffe_immval_0x8
0000bdb0 l       .data	00000000 I_xori_cg_cr_rs1_imm_edges_rs1val_0x7ffffffe_immval_0x8_str
00001cf0 l       .text.rvtest	00000000 I_xori_cg_cr_rs1_imm_edges_rs1val_0x7ffffffe_immval_0x10
0000be05 l       .data	00000000 I_xori_cg_cr_rs1_imm_edges_rs1val_0x7ffffffe_immval_0x10_str
00001d14 l       .text.rvtest	00000000 I_xori_cg_cr_rs1_imm_edges_rs1val_0x7ffffffe_immval_0x20
0000be5b l       .data	00000000 I_xori_cg_cr_rs1_imm_edges_rs1val_0x7ffffffe_immval_0x20_str
00001d38 l       .text.rvtest	00000000 I_xori_cg_cr_rs1_imm_edges_rs1val_0x7ffffffe_immval_0x40
0000beb1 l       .data	00000000 I_xori_cg_cr_rs1_imm_edges_rs1val_0x7ffffffe_immval_0x40_str
00001d5c l       .text.rvtest	00000000 I_xori_cg_cr_rs1_imm_edges_rs1val_0x7ffffffe_immval_0x80
0000bf07 l       .data	00000000 I_xori_cg_cr_rs1_imm_edges_rs1val_0x7ffffffe_immval_0x80_str
00001d80 l       .text.rvtest	00000000 I_xori_cg_cr_rs1_imm_edges_rs1val_0x7ffffffe_immval_0x100
0000bf5d l       .data	00000000 I_xori_cg_cr_rs1_imm_edges_rs1val_0x7ffffffe_immval_0x100_str
00001da4 l       .text.rvtest	00000000 I_xori_cg_cr_rs1_imm_edges_rs1val_0x7ffffffe_immval_0x200
0000bfb4 l       .data	00000000 I_xori_cg_cr_rs1_imm_edges_rs1val_0x7ffffffe_immval_0x200_str
00001dc8 l       .text.rvtest	00000000 I_xori_cg_cr_rs1_imm_edges_rs1val_0x7ffffffe_immval_0x3ff
0000c00b l       .data	00000000 I_xori_cg_cr_rs1_imm_edges_rs1val_0x7ffffffe_immval_0x3ff_str
00001dec l       .text.rvtest	00000000 I_xori_cg_cr_rs1_imm_edges_rs1val_0x7ffffffe_immval_0x400
0000c062 l       .data	00000000 I_xori_cg_cr_rs1_imm_edges_rs1val_0x7ffffffe_immval_0x400_str
00001e10 l       .text.rvtest	00000000 I_xori_cg_cr_rs1_imm_edges_rs1val_0x7ffffffe_immval_0x703
0000c0b9 l       .data	00000000 I_xori_cg_cr_rs1_imm_edges_rs1val_0x7ffffffe_immval_0x703_str
00001e34 l       .text.rvtest	00000000 I_xori_cg_cr_rs1_imm_edges_rs1val_0x7ffffffe_immval_0x7ff
0000c110 l       .data	00000000 I_xori_cg_cr_rs1_imm_edges_rs1val_0x7ffffffe_immval_0x7ff_str
00001e58 l       .text.rvtest	00000000 I_xori_cg_cr_rs1_imm_edges_rs1val_0x7ffffffe_immval_m0x800
0000c167 l       .data	00000000 I_xori_cg_cr_rs1_imm_edges_rs1val_0x7ffffffe_immval_m0x800_str
00001e7c l       .text.rvtest	00000000 I_xori_cg_cr_rs1_imm_edges_rs1val_0x7ffffffe_immval_m0x7ff
0000c1bf l       .data	00000000 I_xori_cg_cr_rs1_imm_edges_rs1val_0x7ffffffe_immval_m0x7ff_str
00001ea0 l       .text.rvtest	00000000 I_xori_cg_cr_rs1_imm_edges_rs1val_0x7ffffffe_immval_m0x2
0000c217 l       .data	00000000 I_xori_cg_cr_rs1_imm_edges_rs1val_0x7ffffffe_immval_m0x2_str
00001ec4 l       .text.rvtest	00000000 I_xori_cg_cr_rs1_imm_edges_rs1val_0x7ffffffe_immval_m0x1
0000c26d l       .data	00000000 I_xori_cg_cr_rs1_imm_edges_rs1val_0x7ffffffe_immval_m0x1_str
00001ee8 l       .text.rvtest	00000000 I_xori_cg_cr_rs1_imm_edges_rs1val_0xffffffff_immval_0x0
0000c2c3 l       .data	00000000 I_xori_cg_cr_rs1_imm_edges_rs1val_0xffffffff_immval_0x0_str
00001f0c l       .text.rvtest	00000000 I_xori_cg_cr_rs1_imm_edges_rs1val_0xffffffff_immval_0x1
0000c318 l       .data	00000000 I_xori_cg_cr_rs1_imm_edges_rs1val_0xffffffff_immval_0x1_str
00001f30 l       .text.rvtest	00000000 I_xori_cg_cr_rs1_imm_edges_rs1val_0xffffffff_immval_0x2
0000c36d l       .data	00000000 I_xori_cg_cr_rs1_imm_edges_rs1val_0xffffffff_immval_0x2_str
00001f54 l       .text.rvtest	00000000 I_xori_cg_cr_rs1_imm_edges_rs1val_0xffffffff_immval_0x3
0000c3c2 l       .data	00000000 I_xori_cg_cr_rs1_imm_edges_rs1val_0xffffffff_immval_0x3_str
00001f78 l       .text.rvtest	00000000 I_xori_cg_cr_rs1_imm_edges_rs1val_0xffffffff_immval_0x4
0000c417 l       .data	00000000 I_xori_cg_cr_rs1_imm_edges_rs1val_0xffffffff_immval_0x4_str
00001f9c l       .text.rvtest	00000000 I_xori_cg_cr_rs1_imm_edges_rs1val_0xffffffff_immval_0x8
0000c46c l       .data	00000000 I_xori_cg_cr_rs1_imm_edges_rs1val_0xffffffff_immval_0x8_str
00001fc0 l       .text.rvtest	00000000 I_xori_cg_cr_rs1_imm_edges_rs1val_0xffffffff_immval_0x10
0000c4c1 l       .data	00000000 I_xori_cg_cr_rs1_imm_edges_rs1val_0xffffffff_immval_0x10_str
00001fe4 l       .text.rvtest	00000000 I_xori_cg_cr_rs1_imm_edges_rs1val_0xffffffff_immval_0x20
0000c517 l       .data	00000000 I_xori_cg_cr_rs1_imm_edges_rs1val_0xffffffff_immval_0x20_str
00002008 l       .text.rvtest	00000000 I_xori_cg_cr_rs1_imm_edges_rs1val_0xffffffff_immval_0x40
0000c56d l       .data	00000000 I_xori_cg_cr_rs1_imm_edges_rs1val_0xffffffff_immval_0x40_str
0000202c l       .text.rvtest	00000000 I_xori_cg_cr_rs1_imm_edges_rs1val_0xffffffff_immval_0x80
0000c5c3 l       .data	00000000 I_xori_cg_cr_rs1_imm_edges_rs1val_0xffffffff_immval_0x80_str
00002050 l       .text.rvtest	00000000 I_xori_cg_cr_rs1_imm_edges_rs1val_0xffffffff_immval_0x100
0000c619 l       .data	00000000 I_xori_cg_cr_rs1_imm_edges_rs1val_0xffffffff_immval_0x100_str
00002074 l       .text.rvtest	00000000 I_xori_cg_cr_rs1_imm_edges_rs1val_0xffffffff_immval_0x200
0000c670 l       .data	00000000 I_xori_cg_cr_rs1_imm_edges_rs1val_0xffffffff_immval_0x200_str
00002098 l       .text.rvtest	00000000 I_xori_cg_cr_rs1_imm_edges_rs1val_0xffffffff_immval_0x3ff
0000c6c7 l       .data	00000000 I_xori_cg_cr_rs1_imm_edges_rs1val_0xffffffff_immval_0x3ff_str
000020bc l       .text.rvtest	00000000 I_xori_cg_cr_rs1_imm_edges_rs1val_0xffffffff_immval_0x400
0000c71e l       .data	00000000 I_xori_cg_cr_rs1_imm_edges_rs1val_0xffffffff_immval_0x400_str
000020e0 l       .text.rvtest	00000000 I_xori_cg_cr_rs1_imm_edges_rs1val_0xffffffff_immval_0x703
0000c775 l       .data	00000000 I_xori_cg_cr_rs1_imm_edges_rs1val_0xffffffff_immval_0x703_str
00002104 l       .text.rvtest	00000000 I_xori_cg_cr_rs1_imm_edges_rs1val_0xffffffff_immval_0x7ff
0000c7cc l       .data	00000000 I_xori_cg_cr_rs1_imm_edges_rs1val_0xffffffff_immval_0x7ff_str
00002128 l       .text.rvtest	00000000 I_xori_cg_cr_rs1_imm_edges_rs1val_0xffffffff_immval_m0x800
0000c823 l       .data	00000000 I_xori_cg_cr_rs1_imm_edges_rs1val_0xffffffff_immval_m0x800_str
0000214c l       .text.rvtest	00000000 I_xori_cg_cr_rs1_imm_edges_rs1val_0xffffffff_immval_m0x7ff
0000c87b l       .data	00000000 I_xori_cg_cr_rs1_imm_edges_rs1val_0xffffffff_immval_m0x7ff_str
00002170 l       .text.rvtest	00000000 I_xori_cg_cr_rs1_imm_edges_rs1val_0xffffffff_immval_m0x2
0000c8d3 l       .data	00000000 I_xori_cg_cr_rs1_imm_edges_rs1val_0xffffffff_immval_m0x2_str
00002194 l       .text.rvtest	00000000 I_xori_cg_cr_rs1_imm_edges_rs1val_0xffffffff_immval_m0x1
0000c929 l       .data	00000000 I_xori_cg_cr_rs1_imm_edges_rs1val_0xffffffff_immval_m0x1_str
000021b8 l       .text.rvtest	00000000 I_xori_cg_cr_rs1_imm_edges_rs1val_0xfffffffe_immval_0x0
0000c97f l       .data	00000000 I_xori_cg_cr_rs1_imm_edges_rs1val_0xfffffffe_immval_0x0_str
000021dc l       .text.rvtest	00000000 I_xori_cg_cr_rs1_imm_edges_rs1val_0xfffffffe_immval_0x1
0000c9d4 l       .data	00000000 I_xori_cg_cr_rs1_imm_edges_rs1val_0xfffffffe_immval_0x1_str
00002200 l       .text.rvtest	00000000 I_xori_cg_cr_rs1_imm_edges_rs1val_0xfffffffe_immval_0x2
0000ca29 l       .data	00000000 I_xori_cg_cr_rs1_imm_edges_rs1val_0xfffffffe_immval_0x2_str
00002224 l       .text.rvtest	00000000 I_xori_cg_cr_rs1_imm_edges_rs1val_0xfffffffe_immval_0x3
0000ca7e l       .data	00000000 I_xori_cg_cr_rs1_imm_edges_rs1val_0xfffffffe_immval_0x3_str
00002248 l       .text.rvtest	00000000 I_xori_cg_cr_rs1_imm_edges_rs1val_0xfffffffe_immval_0x4
0000cad3 l       .data	00000000 I_xori_cg_cr_rs1_imm_edges_rs1val_0xfffffffe_immval_0x4_str
0000226c l       .text.rvtest	00000000 I_xori_cg_cr_rs1_imm_edges_rs1val_0xfffffffe_immval_0x8
0000cb28 l       .data	00000000 I_xori_cg_cr_rs1_imm_edges_rs1val_0xfffffffe_immval_0x8_str
00002290 l       .text.rvtest	00000000 I_xori_cg_cr_rs1_imm_edges_rs1val_0xfffffffe_immval_0x10
0000cb7d l       .data	00000000 I_xori_cg_cr_rs1_imm_edges_rs1val_0xfffffffe_immval_0x10_str
000022b4 l       .text.rvtest	00000000 I_xori_cg_cr_rs1_imm_edges_rs1val_0xfffffffe_immval_0x20
0000cbd3 l       .data	00000000 I_xori_cg_cr_rs1_imm_edges_rs1val_0xfffffffe_immval_0x20_str
000022d8 l       .text.rvtest	00000000 I_xori_cg_cr_rs1_imm_edges_rs1val_0xfffffffe_immval_0x40
0000cc29 l       .data	00000000 I_xori_cg_cr_rs1_imm_edges_rs1val_0xfffffffe_immval_0x40_str
000022fc l       .text.rvtest	00000000 I_xori_cg_cr_rs1_imm_edges_rs1val_0xfffffffe_immval_0x80
0000cc7f l       .data	00000000 I_xori_cg_cr_rs1_imm_edges_rs1val_0xfffffffe_immval_0x80_str
00002320 l       .text.rvtest	00000000 I_xori_cg_cr_rs1_imm_edges_rs1val_0xfffffffe_immval_0x100
0000ccd5 l       .data	00000000 I_xori_cg_cr_rs1_imm_edges_rs1val_0xfffffffe_immval_0x100_str
00002344 l       .text.rvtest	00000000 I_xori_cg_cr_rs1_imm_edges_rs1val_0xfffffffe_immval_0x200
0000cd2c l       .data	00000000 I_xori_cg_cr_rs1_imm_edges_rs1val_0xfffffffe_immval_0x200_str
00002368 l       .text.rvtest	00000000 I_xori_cg_cr_rs1_imm_edges_rs1val_0xfffffffe_immval_0x3ff
0000cd83 l       .data	00000000 I_xori_cg_cr_rs1_imm_edges_rs1val_0xfffffffe_immval_0x3ff_str
0000238c l       .text.rvtest	00000000 I_xori_cg_cr_rs1_imm_edges_rs1val_0xfffffffe_immval_0x400
0000cdda l       .data	00000000 I_xori_cg_cr_rs1_imm_edges_rs1val_0xfffffffe_immval_0x400_str
000023b0 l       .text.rvtest	00000000 I_xori_cg_cr_rs1_imm_edges_rs1val_0xfffffffe_immval_0x703
0000ce31 l       .data	00000000 I_xori_cg_cr_rs1_imm_edges_rs1val_0xfffffffe_immval_0x703_str
000023d4 l       .text.rvtest	00000000 I_xori_cg_cr_rs1_imm_edges_rs1val_0xfffffffe_immval_0x7ff
0000ce88 l       .data	00000000 I_xori_cg_cr_rs1_imm_edges_rs1val_0xfffffffe_immval_0x7ff_str
000023f8 l       .text.rvtest	00000000 I_xori_cg_cr_rs1_imm_edges_rs1val_0xfffffffe_immval_m0x800
0000cedf l       .data	00000000 I_xori_cg_cr_rs1_imm_edges_rs1val_0xfffffffe_immval_m0x800_str
0000241c l       .text.rvtest	00000000 I_xori_cg_cr_rs1_imm_edges_rs1val_0xfffffffe_immval_m0x7ff
0000cf37 l       .data	00000000 I_xori_cg_cr_rs1_imm_edges_rs1val_0xfffffffe_immval_m0x7ff_str
00002440 l       .text.rvtest	00000000 I_xori_cg_cr_rs1_imm_edges_rs1val_0xfffffffe_immval_m0x2
0000cf8f l       .data	00000000 I_xori_cg_cr_rs1_imm_edges_rs1val_0xfffffffe_immval_m0x2_str
00002464 l       .text.rvtest	00000000 I_xori_cg_cr_rs1_imm_edges_rs1val_0xfffffffe_immval_m0x1
0000cfe5 l       .data	00000000 I_xori_cg_cr_rs1_imm_edges_rs1val_0xfffffffe_immval_m0x1_str
00002488 l       .text.rvtest	00000000 I_xori_cg_cr_rs1_imm_edges_rs1val_0x5bbc8872_immval_0x0
0000d03b l       .data	00000000 I_xori_cg_cr_rs1_imm_edges_rs1val_0x5bbc8872_immval_0x0_str
000024ac l       .text.rvtest	00000000 I_xori_cg_cr_rs1_imm_edges_rs1val_0x5bbc8872_immval_0x1
0000d090 l       .data	00000000 I_xori_cg_cr_rs1_imm_edges_rs1val_0x5bbc8872_immval_0x1_str
000024d0 l       .text.rvtest	00000000 I_xori_cg_cr_rs1_imm_edges_rs1val_0x5bbc8872_immval_0x2
0000d0e5 l       .data	00000000 I_xori_cg_cr_rs1_imm_edges_rs1val_0x5bbc8872_immval_0x2_str
000024f4 l       .text.rvtest	00000000 I_xori_cg_cr_rs1_imm_edges_rs1val_0x5bbc8872_immval_0x3
0000d13a l       .data	00000000 I_xori_cg_cr_rs1_imm_edges_rs1val_0x5bbc8872_immval_0x3_str
00002518 l       .text.rvtest	00000000 I_xori_cg_cr_rs1_imm_edges_rs1val_0x5bbc8872_immval_0x4
0000d18f l       .data	00000000 I_xori_cg_cr_rs1_imm_edges_rs1val_0x5bbc8872_immval_0x4_str
0000253c l       .text.rvtest	00000000 I_xori_cg_cr_rs1_imm_edges_rs1val_0x5bbc8872_immval_0x8
0000d1e4 l       .data	00000000 I_xori_cg_cr_rs1_imm_edges_rs1val_0x5bbc8872_immval_0x8_str
00002560 l       .text.rvtest	00000000 I_xori_cg_cr_rs1_imm_edges_rs1val_0x5bbc8872_immval_0x10
0000d239 l       .data	00000000 I_xori_cg_cr_rs1_imm_edges_rs1val_0x5bbc8872_immval_0x10_str
00002584 l       .text.rvtest	00000000 I_xori_cg_cr_rs1_imm_edges_rs1val_0x5bbc8872_immval_0x20
0000d28f l       .data	00000000 I_xori_cg_cr_rs1_imm_edges_rs1val_0x5bbc8872_immval_0x20_str
000025a8 l       .text.rvtest	00000000 I_xori_cg_cr_rs1_imm_edges_rs1val_0x5bbc8872_immval_0x40
0000d2e5 l       .data	00000000 I_xori_cg_cr_rs1_imm_edges_rs1val_0x5bbc8872_immval_0x40_str
000025cc l       .text.rvtest	00000000 I_xori_cg_cr_rs1_imm_edges_rs1val_0x5bbc8872_immval_0x80
0000d33b l       .data	00000000 I_xori_cg_cr_rs1_imm_edges_rs1val_0x5bbc8872_immval_0x80_str
000025f0 l       .text.rvtest	00000000 I_xori_cg_cr_rs1_imm_edges_rs1val_0x5bbc8872_immval_0x100
0000d391 l       .data	00000000 I_xori_cg_cr_rs1_imm_edges_rs1val_0x5bbc8872_immval_0x100_str
00002614 l       .text.rvtest	00000000 I_xori_cg_cr_rs1_imm_edges_rs1val_0x5bbc8872_immval_0x200
0000d3e8 l       .data	00000000 I_xori_cg_cr_rs1_imm_edges_rs1val_0x5bbc8872_immval_0x200_str
00002638 l       .text.rvtest	00000000 I_xori_cg_cr_rs1_imm_edges_rs1val_0x5bbc8872_immval_0x3ff
0000d43f l       .data	00000000 I_xori_cg_cr_rs1_imm_edges_rs1val_0x5bbc8872_immval_0x3ff_str
0000265c l       .text.rvtest	00000000 I_xori_cg_cr_rs1_imm_edges_rs1val_0x5bbc8872_immval_0x400
0000d496 l       .data	00000000 I_xori_cg_cr_rs1_imm_edges_rs1val_0x5bbc8872_immval_0x400_str
00002680 l       .text.rvtest	00000000 I_xori_cg_cr_rs1_imm_edges_rs1val_0x5bbc8872_immval_0x703
0000d4ed l       .data	00000000 I_xori_cg_cr_rs1_imm_edges_rs1val_0x5bbc8872_immval_0x703_str
000026a4 l       .text.rvtest	00000000 I_xori_cg_cr_rs1_imm_edges_rs1val_0x5bbc8872_immval_0x7ff
0000d544 l       .data	00000000 I_xori_cg_cr_rs1_imm_edges_rs1val_0x5bbc8872_immval_0x7ff_str
000026c8 l       .text.rvtest	00000000 I_xori_cg_cr_rs1_imm_edges_rs1val_0x5bbc8872_immval_m0x800
0000d59b l       .data	00000000 I_xori_cg_cr_rs1_imm_edges_rs1val_0x5bbc8872_immval_m0x800_str
000026ec l       .text.rvtest	00000000 I_xori_cg_cr_rs1_imm_edges_rs1val_0x5bbc8872_immval_m0x7ff
0000d5f3 l       .data	00000000 I_xori_cg_cr_rs1_imm_edges_rs1val_0x5bbc8872_immval_m0x7ff_str
00002710 l       .text.rvtest	00000000 I_xori_cg_cr_rs1_imm_edges_rs1val_0x5bbc8872_immval_m0x2
0000d64b l       .data	00000000 I_xori_cg_cr_rs1_imm_edges_rs1val_0x5bbc8872_immval_m0x2_str
00002734 l       .text.rvtest	00000000 I_xori_cg_cr_rs1_imm_edges_rs1val_0x5bbc8872_immval_m0x1
0000d6a1 l       .data	00000000 I_xori_cg_cr_rs1_imm_edges_rs1val_0x5bbc8872_immval_m0x1_str
00002758 l       .text.rvtest	00000000 I_xori_cg_cr_rs1_imm_edges_rs1val_0xaaaaaaaa_immval_0x0
0000d6f7 l       .data	00000000 I_xori_cg_cr_rs1_imm_edges_rs1val_0xaaaaaaaa_immval_0x0_str
0000277c l       .text.rvtest	00000000 I_xori_cg_cr_rs1_imm_edges_rs1val_0xaaaaaaaa_immval_0x1
0000d74c l       .data	00000000 I_xori_cg_cr_rs1_imm_edges_rs1val_0xaaaaaaaa_immval_0x1_str
000027a0 l       .text.rvtest	00000000 I_xori_cg_cr_rs1_imm_edges_rs1val_0xaaaaaaaa_immval_0x2
0000d7a1 l       .data	00000000 I_xori_cg_cr_rs1_imm_edges_rs1val_0xaaaaaaaa_immval_0x2_str
000027c4 l       .text.rvtest	00000000 I_xori_cg_cr_rs1_imm_edges_rs1val_0xaaaaaaaa_immval_0x3
0000d7f6 l       .data	00000000 I_xori_cg_cr_rs1_imm_edges_rs1val_0xaaaaaaaa_immval_0x3_str
000027e8 l       .text.rvtest	00000000 I_xori_cg_cr_rs1_imm_edges_rs1val_0xaaaaaaaa_immval_0x4
0000d84b l       .data	00000000 I_xori_cg_cr_rs1_imm_edges_rs1val_0xaaaaaaaa_immval_0x4_str
0000280c l       .text.rvtest	00000000 I_xori_cg_cr_rs1_imm_edges_rs1val_0xaaaaaaaa_immval_0x8
0000d8a0 l       .data	00000000 I_xori_cg_cr_rs1_imm_edges_rs1val_0xaaaaaaaa_immval_0x8_str
00002830 l       .text.rvtest	00000000 I_xori_cg_cr_rs1_imm_edges_rs1val_0xaaaaaaaa_immval_0x10
0000d8f5 l       .data	00000000 I_xori_cg_cr_rs1_imm_edges_rs1val_0xaaaaaaaa_immval_0x10_str
00002854 l       .text.rvtest	00000000 I_xori_cg_cr_rs1_imm_edges_rs1val_0xaaaaaaaa_immval_0x20
0000d94b l       .data	00000000 I_xori_cg_cr_rs1_imm_edges_rs1val_0xaaaaaaaa_immval_0x20_str
00002878 l       .text.rvtest	00000000 I_xori_cg_cr_rs1_imm_edges_rs1val_0xaaaaaaaa_immval_0x40
0000d9a1 l       .data	00000000 I_xori_cg_cr_rs1_imm_edges_rs1val_0xaaaaaaaa_immval_0x40_str
0000289c l       .text.rvtest	00000000 I_xori_cg_cr_rs1_imm_edges_rs1val_0xaaaaaaaa_immval_0x80
0000d9f7 l       .data	00000000 I_xori_cg_cr_rs1_imm_edges_rs1val_0xaaaaaaaa_immval_0x80_str
000028c0 l       .text.rvtest	00000000 I_xori_cg_cr_rs1_imm_edges_rs1val_0xaaaaaaaa_immval_0x100
0000da4d l       .data	00000000 I_xori_cg_cr_rs1_imm_edges_rs1val_0xaaaaaaaa_immval_0x100_str
000028e4 l       .text.rvtest	00000000 I_xori_cg_cr_rs1_imm_edges_rs1val_0xaaaaaaaa_immval_0x200
0000daa4 l       .data	00000000 I_xori_cg_cr_rs1_imm_edges_rs1val_0xaaaaaaaa_immval_0x200_str
00002908 l       .text.rvtest	00000000 I_xori_cg_cr_rs1_imm_edges_rs1val_0xaaaaaaaa_immval_0x3ff
0000dafb l       .data	00000000 I_xori_cg_cr_rs1_imm_edges_rs1val_0xaaaaaaaa_immval_0x3ff_str
0000292c l       .text.rvtest	00000000 I_xori_cg_cr_rs1_imm_edges_rs1val_0xaaaaaaaa_immval_0x400
0000db52 l       .data	00000000 I_xori_cg_cr_rs1_imm_edges_rs1val_0xaaaaaaaa_immval_0x400_str
00002950 l       .text.rvtest	00000000 I_xori_cg_cr_rs1_imm_edges_rs1val_0xaaaaaaaa_immval_0x703
0000dba9 l       .data	00000000 I_xori_cg_cr_rs1_imm_edges_rs1val_0xaaaaaaaa_immval_0x703_str
00002974 l       .text.rvtest	00000000 I_xori_cg_cr_rs1_imm_edges_rs1val_0xaaaaaaaa_immval_0x7ff
0000dc00 l       .data	00000000 I_xori_cg_cr_rs1_imm_edges_rs1val_0xaaaaaaaa_immval_0x7ff_str
00002998 l       .text.rvtest	00000000 I_xori_cg_cr_rs1_imm_edges_rs1val_0xaaaaaaaa_immval_m0x800
0000dc57 l       .data	00000000 I_xori_cg_cr_rs1_imm_edges_rs1val_0xaaaaaaaa_immval_m0x800_str
000029bc l       .text.rvtest	00000000 I_xori_cg_cr_rs1_imm_edges_rs1val_0xaaaaaaaa_immval_m0x7ff
0000dcaf l       .data	00000000 I_xori_cg_cr_rs1_imm_edges_rs1val_0xaaaaaaaa_immval_m0x7ff_str
000029e0 l       .text.rvtest	00000000 I_xori_cg_cr_rs1_imm_edges_rs1val_0xaaaaaaaa_immval_m0x2
0000dd07 l       .data	00000000 I_xori_cg_cr_rs1_imm_edges_rs1val_0xaaaaaaaa_immval_m0x2_str
00002a04 l       .text.rvtest	00000000 I_xori_cg_cr_rs1_imm_edges_rs1val_0xaaaaaaaa_immval_m0x1
0000dd5d l       .data	00000000 I_xori_cg_cr_rs1_imm_edges_rs1val_0xaaaaaaaa_immval_m0x1_str
00002a28 l       .text.rvtest	00000000 I_xori_cg_cr_rs1_imm_edges_rs1val_0x55555555_immval_0x0
0000ddb3 l       .data	00000000 I_xori_cg_cr_rs1_imm_edges_rs1val_0x55555555_immval_0x0_str
00002a4c l       .text.rvtest	00000000 I_xori_cg_cr_rs1_imm_edges_rs1val_0x55555555_immval_0x1
0000de08 l       .data	00000000 I_xori_cg_cr_rs1_imm_edges_rs1val_0x55555555_immval_0x1_str
00002a70 l       .text.rvtest	00000000 I_xori_cg_cr_rs1_imm_edges_rs1val_0x55555555_immval_0x2
0000de5d l       .data	00000000 I_xori_cg_cr_rs1_imm_edges_rs1val_0x55555555_immval_0x2_str
00002a94 l       .text.rvtest	00000000 I_xori_cg_cr_rs1_imm_edges_rs1val_0x55555555_immval_0x3
0000deb2 l       .data	00000000 I_xori_cg_cr_rs1_imm_edges_rs1val_0x55555555_immval_0x3_str
00002ab8 l       .text.rvtest	00000000 I_xori_cg_cr_rs1_imm_edges_rs1val_0x55555555_immval_0x4
0000df07 l       .data	00000000 I_xori_cg_cr_rs1_imm_edges_rs1val_0x55555555_immval_0x4_str
00002adc l       .text.rvtest	00000000 I_xori_cg_cr_rs1_imm_edges_rs1val_0x55555555_immval_0x8
0000df5c l       .data	00000000 I_xori_cg_cr_rs1_imm_edges_rs1val_0x55555555_immval_0x8_str
00002b00 l       .text.rvtest	00000000 I_xori_cg_cr_rs1_imm_edges_rs1val_0x55555555_immval_0x10
0000dfb1 l       .data	00000000 I_xori_cg_cr_rs1_imm_edges_rs1val_0x55555555_immval_0x10_str
00002b24 l       .text.rvtest	00000000 I_xori_cg_cr_rs1_imm_edges_rs1val_0x55555555_immval_0x20
0000e007 l       .data	00000000 I_xori_cg_cr_rs1_imm_edges_rs1val_0x55555555_immval_0x20_str
00002b48 l       .text.rvtest	00000000 I_xori_cg_cr_rs1_imm_edges_rs1val_0x55555555_immval_0x40
0000e05d l       .data	00000000 I_xori_cg_cr_rs1_imm_edges_rs1val_0x55555555_immval_0x40_str
00002b6c l       .text.rvtest	00000000 I_xori_cg_cr_rs1_imm_edges_rs1val_0x55555555_immval_0x80
0000e0b3 l       .data	00000000 I_xori_cg_cr_rs1_imm_edges_rs1val_0x55555555_immval_0x80_str
00002b90 l       .text.rvtest	00000000 I_xori_cg_cr_rs1_imm_edges_rs1val_0x55555555_immval_0x100
0000e109 l       .data	00000000 I_xori_cg_cr_rs1_imm_edges_rs1val_0x55555555_immval_0x100_str
00002bb4 l       .text.rvtest	00000000 I_xori_cg_cr_rs1_imm_edges_rs1val_0x55555555_immval_0x200
0000e160 l       .data	00000000 I_xori_cg_cr_rs1_imm_edges_rs1val_0x55555555_immval_0x200_str
00002bd8 l       .text.rvtest	00000000 I_xori_cg_cr_rs1_imm_edges_rs1val_0x55555555_immval_0x3ff
0000e1b7 l       .data	00000000 I_xori_cg_cr_rs1_imm_edges_rs1val_0x55555555_immval_0x3ff_str
00002bfc l       .text.rvtest	00000000 I_xori_cg_cr_rs1_imm_edges_rs1val_0x55555555_immval_0x400
0000e20e l       .data	00000000 I_xori_cg_cr_rs1_imm_edges_rs1val_0x55555555_immval_0x400_str
00002c20 l       .text.rvtest	00000000 I_xori_cg_cr_rs1_imm_edges_rs1val_0x55555555_immval_0x703
0000e265 l       .data	00000000 I_xori_cg_cr_rs1_imm_edges_rs1val_0x55555555_immval_0x703_str
00002c44 l       .text.rvtest	00000000 I_xori_cg_cr_rs1_imm_edges_rs1val_0x55555555_immval_0x7ff
0000e2bc l       .data	00000000 I_xori_cg_cr_rs1_imm_edges_rs1val_0x55555555_immval_0x7ff_str
00002c68 l       .text.rvtest	00000000 I_xori_cg_cr_rs1_imm_edges_rs1val_0x55555555_immval_m0x800
0000e313 l       .data	00000000 I_xori_cg_cr_rs1_imm_edges_rs1val_0x55555555_immval_m0x800_str
00002c8c l       .text.rvtest	00000000 I_xori_cg_cr_rs1_imm_edges_rs1val_0x55555555_immval_m0x7ff
0000e36b l       .data	00000000 I_xori_cg_cr_rs1_imm_edges_rs1val_0x55555555_immval_m0x7ff_str
00002cb0 l       .text.rvtest	00000000 I_xori_cg_cr_rs1_imm_edges_rs1val_0x55555555_immval_m0x2
0000e3c3 l       .data	00000000 I_xori_cg_cr_rs1_imm_edges_rs1val_0x55555555_immval_m0x2_str
00002cd4 l       .text.rvtest	00000000 I_xori_cg_cr_rs1_imm_edges_rs1val_0x55555555_immval_m0x1
0000e419 l       .data	00000000 I_xori_cg_cr_rs1_imm_edges_rs1val_0x55555555_immval_m0x1_str
00002cf8 l       .text.rvtest	00000000 I_xori_cg_cmp_rd_rs1_b0
0000e46f l       .data	00000000 I_xori_cg_cmp_rd_rs1_b0_str
00002d1c l       .text.rvtest	00000000 I_xori_cg_cmp_rd_rs1_b1
0000e4a3 l       .data	00000000 I_xori_cg_cmp_rd_rs1_b1_str
00002d40 l       .text.rvtest	00000000 I_xori_cg_cmp_rd_rs1_b2
0000e4d7 l       .data	00000000 I_xori_cg_cmp_rd_rs1_b2_str
00002d64 l       .text.rvtest	00000000 I_xori_cg_cmp_rd_rs1_b3
0000e50b l       .data	00000000 I_xori_cg_cmp_rd_rs1_b3_str
00002d90 l       .text.rvtest	00000000 I_xori_cg_cmp_rd_rs1_b4
0000e53f l       .data	00000000 I_xori_cg_cmp_rd_rs1_b4_str
00002db4 l       .text.rvtest	00000000 I_xori_cg_cmp_rd_rs1_b5
0000e573 l       .data	00000000 I_xori_cg_cmp_rd_rs1_b5_str
00002dd8 l       .text.rvtest	00000000 I_xori_cg_cmp_rd_rs1_b6
0000e5a7 l       .data	00000000 I_xori_cg_cmp_rd_rs1_b6_str
00002dfc l       .text.rvtest	00000000 I_xori_cg_cmp_rd_rs1_b7
0000e5db l       .data	00000000 I_xori_cg_cmp_rd_rs1_b7_str
00002e20 l       .text.rvtest	00000000 I_xori_cg_cmp_rd_rs1_b8
0000e60f l       .data	00000000 I_xori_cg_cmp_rd_rs1_b8_str
00002e44 l       .text.rvtest	00000000 I_xori_cg_cmp_rd_rs1_b9
0000e643 l       .data	00000000 I_xori_cg_cmp_rd_rs1_b9_str
00002e68 l       .text.rvtest	00000000 I_xori_cg_cmp_rd_rs1_b10
0000e677 l       .data	00000000 I_xori_cg_cmp_rd_rs1_b10_str
00002e8c l       .text.rvtest	00000000 I_xori_cg_cmp_rd_rs1_b11
0000e6ac l       .data	00000000 I_xori_cg_cmp_rd_rs1_b11_str
00002eb4 l       .text.rvtest	00000000 I_xori_cg_cmp_rd_rs1_b12
0000e6e1 l       .data	00000000 I_xori_cg_cmp_rd_rs1_b12_str
00002ee0 l       .text.rvtest	00000000 I_xori_cg_cmp_rd_rs1_b13
0000e716 l       .data	00000000 I_xori_cg_cmp_rd_rs1_b13_str
00002f04 l       .text.rvtest	00000000 I_xori_cg_cmp_rd_rs1_b14
0000e74b l       .data	00000000 I_xori_cg_cmp_rd_rs1_b14_str
00002f28 l       .text.rvtest	00000000 I_xori_cg_cmp_rd_rs1_b15
0000e780 l       .data	00000000 I_xori_cg_cmp_rd_rs1_b15_str
00002f4c l       .text.rvtest	00000000 I_xori_cg_cmp_rd_rs1_b16
0000e7b5 l       .data	00000000 I_xori_cg_cmp_rd_rs1_b16_str
00002f74 l       .text.rvtest	00000000 I_xori_cg_cmp_rd_rs1_b17
0000e7ea l       .data	00000000 I_xori_cg_cmp_rd_rs1_b17_str
00002f98 l       .text.rvtest	00000000 I_xori_cg_cmp_rd_rs1_b18
0000e81f l       .data	00000000 I_xori_cg_cmp_rd_rs1_b18_str
00002fc0 l       .text.rvtest	00000000 I_xori_cg_cmp_rd_rs1_b19
0000e854 l       .data	00000000 I_xori_cg_cmp_rd_rs1_b19_str
00002fe4 l       .text.rvtest	00000000 I_xori_cg_cmp_rd_rs1_b20
0000e889 l       .data	00000000 I_xori_cg_cmp_rd_rs1_b20_str
00003008 l       .text.rvtest	00000000 I_xori_cg_cmp_rd_rs1_b21
0000e8be l       .data	00000000 I_xori_cg_cmp_rd_rs1_b21_str
0000302c l       .text.rvtest	00000000 I_xori_cg_cmp_rd_rs1_b22
0000e8f3 l       .data	00000000 I_xori_cg_cmp_rd_rs1_b22_str
00003050 l       .text.rvtest	00000000 I_xori_cg_cmp_rd_rs1_b23
0000e928 l       .data	00000000 I_xori_cg_cmp_rd_rs1_b23_str
00003078 l       .text.rvtest	00000000 I_xori_cg_cmp_rd_rs1_b24
0000e95d l       .data	00000000 I_xori_cg_cmp_rd_rs1_b24_str
0000309c l       .text.rvtest	00000000 I_xori_cg_cmp_rd_rs1_b25
0000e992 l       .data	00000000 I_xori_cg_cmp_rd_rs1_b25_str
000030c4 l       .text.rvtest	00000000 I_xori_cg_cmp_rd_rs1_b26
0000e9c7 l       .data	00000000 I_xori_cg_cmp_rd_rs1_b26_str
000030e8 l       .text.rvtest	00000000 I_xori_cg_cmp_rd_rs1_b27
0000e9fc l       .data	00000000 I_xori_cg_cmp_rd_rs1_b27_str
00003110 l       .text.rvtest	00000000 I_xori_cg_cmp_rd_rs1_b28
0000ea31 l       .data	00000000 I_xori_cg_cmp_rd_rs1_b28_str
00003134 l       .text.rvtest	00000000 I_xori_cg_cmp_rd_rs1_b29
0000ea66 l       .data	00000000 I_xori_cg_cmp_rd_rs1_b29_str
00003158 l       .text.rvtest	00000000 I_xori_cg_cmp_rd_rs1_b30
0000ea9b l       .data	00000000 I_xori_cg_cmp_rd_rs1_b30_str
00003180 l       .text.rvtest	00000000 I_xori_cg_cmp_rd_rs1_b31
0000ead0 l       .data	00000000 I_xori_cg_cmp_rd_rs1_b31_str
000031a4 l       .text.rvtest	00000000 I_xori_cg_cp_imm_edges_0x0
0000eb05 l       .data	00000000 I_xori_cg_cp_imm_edges_0x0_str
000031c8 l       .text.rvtest	00000000 I_xori_cg_cp_imm_edges_0x1
0000eb3c l       .data	00000000 I_xori_cg_cp_imm_edges_0x1_str
000031ec l       .text.rvtest	00000000 I_xori_cg_cp_imm_edges_0x2
0000eb73 l       .data	00000000 I_xori_cg_cp_imm_edges_0x2_str
00003210 l       .text.rvtest	00000000 I_xori_cg_cp_imm_edges_0x3
0000ebaa l       .data	00000000 I_xori_cg_cp_imm_edges_0x3_str
00003234 l       .text.rvtest	00000000 I_xori_cg_cp_imm_edges_0x4
0000ebe1 l       .data	00000000 I_xori_cg_cp_imm_edges_0x4_str
00003258 l       .text.rvtest	00000000 I_xori_cg_cp_imm_edges_0x8
0000ec18 l       .data	00000000 I_xori_cg_cp_imm_edges_0x8_str
0000327c l       .text.rvtest	00000000 I_xori_cg_cp_imm_edges_0x10
0000ec4f l       .data	00000000 I_xori_cg_cp_imm_edges_0x10_str
000032a0 l       .text.rvtest	00000000 I_xori_cg_cp_imm_edges_0x20
0000ec87 l       .data	00000000 I_xori_cg_cp_imm_edges_0x20_str
000032c4 l       .text.rvtest	00000000 I_xori_cg_cp_imm_edges_0x40
0000ecbf l       .data	00000000 I_xori_cg_cp_imm_edges_0x40_str
000032e8 l       .text.rvtest	00000000 I_xori_cg_cp_imm_edges_0x80
0000ecf7 l       .data	00000000 I_xori_cg_cp_imm_edges_0x80_str
0000330c l       .text.rvtest	00000000 I_xori_cg_cp_imm_edges_0x100
0000ed2f l       .data	00000000 I_xori_cg_cp_imm_edges_0x100_str
00003330 l       .text.rvtest	00000000 I_xori_cg_cp_imm_edges_0x200
0000ed68 l       .data	00000000 I_xori_cg_cp_imm_edges_0x200_str
00003354 l       .text.rvtest	00000000 I_xori_cg_cp_imm_edges_0x3ff
0000eda1 l       .data	00000000 I_xori_cg_cp_imm_edges_0x3ff_str
00003378 l       .text.rvtest	00000000 I_xori_cg_cp_imm_edges_0x400
0000edda l       .data	00000000 I_xori_cg_cp_imm_edges_0x400_str
0000339c l       .text.rvtest	00000000 I_xori_cg_cp_imm_edges_0x703
0000ee13 l       .data	00000000 I_xori_cg_cp_imm_edges_0x703_str
000033c0 l       .text.rvtest	00000000 I_xori_cg_cp_imm_edges_0x7ff
0000ee4c l       .data	00000000 I_xori_cg_cp_imm_edges_0x7ff_str
000033e4 l       .text.rvtest	00000000 I_xori_cg_cp_imm_edges_m0x800
0000ee85 l       .data	00000000 I_xori_cg_cp_imm_edges_m0x800_str
00003408 l       .text.rvtest	00000000 I_xori_cg_cp_imm_edges_m0x7ff
0000eebf l       .data	00000000 I_xori_cg_cp_imm_edges_m0x7ff_str
0000342c l       .text.rvtest	00000000 I_xori_cg_cp_imm_edges_m0x2
0000eef9 l       .data	00000000 I_xori_cg_cp_imm_edges_m0x2_str
00003450 l       .text.rvtest	00000000 I_xori_cg_cp_imm_edges_m0x1
0000ef31 l       .data	00000000 I_xori_cg_cp_imm_edges_m0x1_str
00003470 l       .text.rvtest	00000000 exit_cleanup
0000f5d4 l       .data	00000000 successstr
00020204 l       .text.rvmodel	00000000 rvmodel_io_write_str
00020208 l       .text.rvmodel	00000000 rvmodel_halt_pass
000034b0 l       .text.rvtest	00000000 abort_test
6f5ca309 l       *ABS*	00000000 immx
6f5ca309 l       *ABS*	00000000 absimm
00000000 l       *ABS*	00000000 cry
00000309 l       *ABS*	00000000 imm12
0000ef70 l       .data	00000000 begin_failure_scratch
00003580 l       .text.rvtest	00000000 failedtest_saveregs
00003524 l       .text.rvtest	00000000 failedtest_trap_x7_x9
0000f0e0 l       .data	00000000 saved_mcause
0000f0e8 l       .data	00000000 saved_mtval
0000f0f0 l       .data	00000000 saved_mstatus
000035f0 l       .text.rvtest	00000000 failedtest_saveresults
0000ef70 l       .data	00000000 failure_type
0000366c l       .text.rvtest	00000000 failedtest_saveresults_trap
00003600 l       .text.rvtest	00000000 failedtest_saveresults_int
00003a40 l       .text.rvtest	00000000 failedtest_saveresults_common
0000f0c8 l       .data	00000000 trap_diag_fail_str_ptr
0000f79c l       .data	00000000 trap_sig_offset_mismatch
00003920 l       .text.rvtest	00000000 trap_diag_offset_mismatch
0000f0a0 l       .data	00000000 trap_diag_subtype
0000f800 l       .data	00000000 sv_Mvect_str
000039a0 l       .text.rvtest	00000000 trap_diag_field_identified
0000f902 l       .data	00000000 sv_Mcause_str
0000f9fd l       .data	00000000 sv_Mepc_str
0000faf0 l       .data	00000000 sv_Mtval_str
0000fc63 l       .data	00000000 sv_Mip_str
0000fbe7 l       .data	00000000 sv_Mtval2_str
0000fc25 l       .data	00000000 sv_Mtinst_str
0000f840 l       .data	00000000 sv_Svect_str
0000f940 l       .data	00000000 sv_Scause_str
0000fa39 l       .data	00000000 sv_Sepc_str
0000fb2d l       .data	00000000 sv_Stval_str
0000fc9e l       .data	00000000 sv_Sip_str
0000f880 l       .data	00000000 sv_Hvect_str
0000f97e l       .data	00000000 sv_Hcause_str
0000fa75 l       .data	00000000 sv_Hepc_str
0000fb6a l       .data	00000000 sv_Htval_str
0000fcd9 l       .data	00000000 sv_Hip_str
0000f8c1 l       .data	00000000 sv_Vvect_str
0000f9bd l       .data	00000000 sv_Vcause_str
0000fab2 l       .data	00000000 sv_Vepc_str
0000fba8 l       .data	00000000 sv_Vtval_str
0000fd15 l       .data	00000000 sv_Vip_str
0000fd52 l       .data	00000000 Mclr_Mext_int_str
0000fda1 l       .data	00000000 Mclr_Sext_int_str
0000fe9c l       .data	00000000 Sclr_Sext_int_str
0000ff98 l       .data	00000000 Hclr_Sext_int_str
00003a30 l       .text.rvtest	00000000 trap_diag_generic_report
0000f0b8 l       .data	00000000 trap_diag_actual_offset
0000f0c0 l       .data	00000000 trap_diag_expected_offset
0000f0a4 l       .data	00000000 trap_diag_mode
0000f0a8 l       .data	00000000 trap_diag_actual_value
0000f0b0 l       .data	00000000 trap_diag_expected_value
00003a70 l       .text.rvtest	00000000 failedtest_report
00003a70 l       .text.rvtest	00000000 print_failstr
0000f60b l       .data	00000000 failstr
00003aa8 l       .text.rvtest	00000000 print_testnamestr
0000f69f l       .data	00000000 testnamestr
00003ae8 l       .text.rvtest	00000000 print_failure_test_name_str
0000f090 l       .data	00000000 failure_string_ptr
00003af8 l       .text.rvtest	00000000 print_newline_str
0000f6b1 l       .data	00000000 newlinestr
00003f2c l       .text.rvtest	00000000 failedtest_report_trap_detailed
0000f6b3 l       .data	00000000 inststr
0000f070 l       .data	00000000 failing_instruction
00004e78 l       .text.rvtest	00000000 failedtest_hex_to_str
0000f0f8 l       .data	00000000 ascii_buffer
0000f6c7 l       .data	00000000 addrstr
0000f078 l       .data	00000000 failing_addr
00010144 l       .data	00000000 regstr
00003cd8 l       .text.rvtest	00000000 failedtest_report_not_intreg
0000f074 l       .data	00000000 failing_reg
00004ef4 l       .text.rvtest	00000000 failedtest_dec_to_str
00003db4 l       .text.rvtest	00000000 failedtest_report_print_regstr
00003d2c l       .text.rvtest	00000000 failedtest_report_fpreg
00003d78 l       .text.rvtest	00000000 failedtest_report_vecreg
000101a4 l       .data	00000000 fflagsstr
00003de8 l       .text.rvtest	00000000 failedtest_report_after_reg
00010155 l       .data	00000000 badvalstr
00003e4c l       .text.rvtest	00000000 failedtest_report_badval_not_fp
0000f080 l       .data	00000000 failing_value
00003e5c l       .text.rvtest	00000000 failedtest_report_badval_done
0001016c l       .data	00000000 expvalstr
00003eec l       .text.rvtest	00000000 failedtest_report_expval_not_fp
0000f088 l       .data	00000000 expected_value
00003efc l       .text.rvtest	00000000 failedtest_report_expval_done
00004c24 l       .text.rvtest	00000000 failedtest_report_end
000101d0 l       .data	00000000 trap_diag_header_str
000101fc l       .data	00000000 trap_diag_origstr_label
00004000 l       .text.rvtest	00000000 trap_report_offset_mismatch
00004ab0 l       .text.rvtest	00000000 trap_report_generic
00004374 l       .text.rvtest	00000000 trap_report_field_mismatch
0001020c l       .data	00000000 trap_diag_count_mismatch_str
0001026d l       .data	00000000 trap_diag_expected_offset_str
00010294 l       .data	00000000 trap_diag_actual_offset_str
00004254 l       .text.rvtest	00000000 trap_report_missing_traps
0000413c l       .text.rvtest	00000000 trap_report_extra_traps
000102bb l       .data	00000000 trap_diag_extra_traps_str
00010340 l       .data	00000000 trap_diag_extra_bytes_str
0001036b l       .data	00000000 trap_diag_extra_hint_str
00004c70 l       .text.rvtest	00000000 failedtest_print_csr_context
000102f5 l       .data	00000000 trap_diag_missing_traps_str
00010453 l       .data	00000000 trap_diag_missing_hint_str
0001053a l       .data	00000000 trap_diag_handler_mode_str
00004404 l       .text.rvtest	00000000 trap_mode_m
00004444 l       .text.rvtest	00000000 trap_mode_s
00004484 l       .text.rvtest	00000000 trap_mode_h
000044c4 l       .text.rvtest	00000000 trap_mode_v
00010576 l       .data	00000000 trap_diag_mode_unknown_str
00004500 l       .text.rvtest	00000000 trap_mode_print
00010554 l       .data	00000000 trap_diag_mode_m_str
0001055c l       .data	00000000 trap_diag_mode_s_str
00010564 l       .data	00000000 trap_diag_mode_hs_str
0001056d l       .data	00000000 trap_diag_mode_vs_str
0001057f l       .data	00000000 trap_diag_field_str
000045c4 l       .text.rvtest	00000000 trap_field_vect
00004604 l       .text.rvtest	00000000 trap_field_cause
00004644 l       .text.rvtest	00000000 trap_field_epc
00004684 l       .text.rvtest	00000000 trap_field_tval
000046c4 l       .text.rvtest	00000000 trap_field_ip
00004704 l       .text.rvtest	00000000 trap_field_tval2
00004744 l       .text.rvtest	00000000 trap_field_tinst
00004784 l       .text.rvtest	00000000 trap_field_intid
000106d6 l       .data	00000000 trap_diag_field_unknown_str
000047c0 l       .text.rvtest	00000000 trap_field_print
00010599 l       .data	00000000 trap_diag_field_vect_str
000105ca l       .data	00000000 trap_diag_field_cause_str
000105ea l       .data	00000000 trap_diag_field_epc_str
00010608 l       .data	00000000 trap_diag_field_tval_str
00010627 l       .data	00000000 trap_diag_field_ip_str
0001064f l       .data	00000000 trap_diag_field_tval2_str
0001067b l       .data	00000000 trap_diag_field_tinst_str
000106a7 l       .data	00000000 trap_diag_field_intid_str
000106e5 l       .data	00000000 trap_diag_expected_str
000106fc l       .data	00000000 trap_diag_actual_str
0000495c l       .text.rvtest	00000000 trap_field_not_cause
00010713 l       .data	00000000 trap_diag_expected_cause_name_str
00004b94 l       .text.rvtest	00000000 trap_cause_to_str
0001072a l       .data	00000000 trap_diag_actual_cause_name_str
0000495c l       .text.rvtest	00000000 trap_field_not_epc
000107a0 l       .data	00000000 trap_diag_hint_vect_str
00010876 l       .data	00000000 trap_diag_hint_cause_str
00010969 l       .data	00000000 trap_diag_hint_epc_str
00010a64 l       .data	00000000 trap_diag_hint_tval_str
00010b4b l       .data	00000000 trap_diag_hint_ip_str
00010758 l       .data	00000000 trap_diag_generic_str
0000f0d8 l       .data	00000000 saved_mepc
0000f73b l       .data	00000000 xepcinstrstr
00004bb8 l       .text.rvtest	00000000 trap_cause_interrupt
00004b98 l       .text.rvtest	00000000 trap_cause_exception
00004be4 l       .text.rvtest	00000000 trap_cause_unknown
0000f120 l       .data	00000000 trap_excpt_name_tbl
0000f180 l       .data	00000000 trap_int_name_tbl
0000f5be l       .data	00000000 trap_cause_unknown_str
00010183 l       .data	00000000 endstr
00004c68 l       .text.rvtest	00000000 failedtest_terminate
00020214 l       .text.rvmodel	00000000 rvmodel_halt_fail
0000f0d0 l       .data	00000000 csr_context_ret_addr
0000f75c l       .data	00000000 mepcstr
0000f76c l       .data	00000000 mcausestr
0000f77c l       .data	00000000 mtvalstr
0000f78c l       .data	00000000 mstatusstr
00004eb8 l       .text.rvtest	00000000 failedtest_hex_to_str_loop
00004ed4 l       .text.rvtest	00000000 failedtest_hex_to_str_digit
00004ed8 l       .text.rvtest	00000000 failedtest_hex_to_str_write
00020000 l       .text.rvmodel	00000000 rvtest_boot_to_mmode
00020000 l       .text.rvmodel	00000000 rvtest_init_regs
00010c30 l       .data	00000000 signature_base
000201a0 l       .text.rvmodel	00000000 canary_check
000101ac l       .data	00000000 canary_mismatch
00008000 l       .data	00000000 scratch
0000f120 l       .data	00000000 end_failure_scratch
0000f1c0 l       .data	00000000 trap_excpt_name_0
0000f1e0 l       .data	00000000 trap_excpt_name_1
0000f1fa l       .data	00000000 trap_excpt_name_2
0000f20f l       .data	00000000 trap_excpt_name_3
0000f21b l       .data	00000000 trap_excpt_name_4
0000f234 l       .data	00000000 trap_excpt_name_5
0000f247 l       .data	00000000 trap_excpt_name_6
0000f265 l       .data	00000000 trap_excpt_name_7
0000f27d l       .data	00000000 trap_excpt_name_8
0000f29b l       .data	00000000 trap_excpt_name_9
0000f2b9 l       .data	00000000 trap_excpt_name_10
0000f2d8 l       .data	00000000 trap_excpt_name_11
0000f2f6 l       .data	00000000 trap_excpt_name_12
0000f30e l       .data	00000000 trap_excpt_name_13
0000f31f l       .data	00000000 trap_excpt_name_14
0000f32e l       .data	00000000 trap_excpt_name_15
0000f344 l       .data	00000000 trap_excpt_name_16
0000f351 l       .data	00000000 trap_excpt_name_17
0000f360 l       .data	00000000 trap_excpt_name_18
0000f370 l       .data	00000000 trap_excpt_name_19
0000f380 l       .data	00000000 trap_excpt_name_20
0000f39e l       .data	00000000 trap_excpt_name_21
0000f3b5 l       .data	00000000 trap_excpt_name_22
0000f3ca l       .data	00000000 trap_excpt_name_23
0000f3e6 l       .data	00000000 trap_int_name_0
0000f3fe l       .data	00000000 trap_int_name_1
0000f41d l       .data	00000000 trap_int_name_2
0000f444 l       .data	00000000 trap_int_name_3
0000f460 l       .data	00000000 trap_int_name_4
0000f478 l       .data	00000000 trap_int_name_5
0000f494 l       .data	00000000 trap_int_name_6
0000f4b8 l       .data	00000000 trap_int_name_7
0000f4d1 l       .data	00000000 trap_int_name_8
0000f4e9 l       .data	00000000 trap_int_name_9
0000f508 l       .data	00000000 trap_int_name_10
0000f52f l       .data	00000000 trap_int_name_11
0000f54b l       .data	00000000 trap_int_name_12
0000f570 l       .data	00000000 trap_int_name_13
0000f58c l       .data	00000000 trap_int_name_14
0000f5a5 l       .data	00000000 trap_int_name_15
0000f661 l       .data	00000000 abortstr
0000f708 l       .data	00000000 xepcstr
0000fdf3 l       .data	00000000 Mclr_Vext_int_str
0000fe4d l       .data	00000000 Sclr_Mext_int_str
0000feee l       .data	00000000 Sclr_Vext_int_str
0000ff48 l       .data	00000000 Hclr_Mext_int_str
0000ffeb l       .data	00000000 Hclr_Vext_int_str
00010046 l       .data	00000000 Vclr_Mext_int_str
00010096 l       .data	00000000 Vclr_Sext_int_str
000100e9 l       .data	00000000 Vclr_Vext_int_str
00010741 l       .data	00000000 trap_diag_curr_xepc_str
00011220 l       .data	00000000 trap_sigptr
0001fc90 g       .data	00000000 end_signature
0001fc90 g       .data	00000000 rvtest_sig_end
00000000 g       .text.init	00000000 rvtest_entry_point
00010c30 g       .data	00000000 begin_signature
00003470 g       .text.rvtest	00000000 rvtest_code_end
00000040 g       .text.rvtest	00000000 rvtest_code_begin
00010c30 g       .data	00000000 rvtest_sig_begin
00008110 g       .data	00000000 rvtest_data_begin
00010c30 g       .data	00000000 rvtest_data_end
00003470 g       .text.rvtest	00000000 cleanup_epilogs
00021000 g       .text.rvmodel	00000000 _end



Disassembly of section .text.init:

00000000 <rvtest_entry_point>:

// Include framework macros
#include "riscv_arch_test.h"

// Set up test environment and declare main entry point
RVTEST_BEGIN
   0:	00020097          	auipc	x1,0x20
   4:	00008093          	addi	x1,x1,0 # 20000 <rvmodel_boot>
   8:	00000013          	addi	x0,x0,0
   c:	00000013          	addi	x0,x0,0
  10:	00000013          	addi	x0,x0,0
  14:	00000013          	addi	x0,x0,0
  18:	00000013          	addi	x0,x0,0
  1c:	00000013          	addi	x0,x0,0
  20:	000080e7          	jalr	x1,0(x1)
  24:	00000013          	addi	x0,x0,0
  28:	00000013          	addi	x0,x0,0
  2c:	00000013          	addi	x0,x0,0
  30:	00000013          	addi	x0,x0,0
  34:	00000013          	addi	x0,x0,0
  38:	00000013          	addi	x0,x0,0
  3c:	00000013          	addi	x0,x0,0

Disassembly of section .text.rvtest:

00000040 <rvtest_code_begin>:
/////////////////////////////////
// cp_rs1
/////////////////////////////////

# Testcase cp_rs1 (Test source rs1 = x0)
  RVTEST_TESTDATA_LOAD_INT(x3, x0) # load rs1: x0 = 0xd19a5feb
      40:	0001a003          	lw	x0,0(x3)
      44:	00418193          	addi	x3,x3,4

00000048 <I_xori_cg_cp_rs1_b0>:
I_xori_cg_cp_rs1_b0:
  xori x11, x0, 1198 # perform operation
      48:	4ae04593          	xori	x11,x0,1198
  # Check if x11 contains the expected result. x2 is the signature ptr, x5 is the link ptr, x4 is a temp reg.
  RVTEST_SIGUPD(x2, x5, x4, x11, I_xori_cg_cp_rs1_b0, I_xori_cg_cp_rs1_b0_str)
      4c:	00012203          	lw	x4,0(x2)
      50:	00b20863          	beq	x4,x11,60 <I_xori_cg_cp_rs1_b0+0x18>
      54:	468032ef          	jal	x5,34bc <failedtest_x5_x4>
      58:	00000048          	.word	0x00000048
      5c:	000086d0          	.word	0x000086d0
      60:	00410113          	addi	x2,x2,4

# Testcase cp_rs1 (Test source rs1 = x1)
  RVTEST_TESTDATA_LOAD_INT(x3, x1) # load rs1: x1 = 0xc067eff3
      64:	0001a083          	lw	x1,0(x3)
      68:	00418193          	addi	x3,x3,4

0000006c <I_xori_cg_cp_rs1_b1>:
I_xori_cg_cp_rs1_b1:
  xori x30, x1, 837 # perform operation
      6c:	3450cf13          	xori	x30,x1,837
  # Check if x30 contains the expected result. x2 is the signature ptr, x5 is the link ptr, x4 is a temp reg.
  RVTEST_SIGUPD(x2, x5, x4, x30, I_xori_cg_cp_rs1_b1, I_xori_cg_cp_rs1_b1_str)
      70:	00012203          	lw	x4,0(x2)
      74:	01e20863          	beq	x4,x30,84 <I_xori_cg_cp_rs1_b1+0x18>
      78:	444032ef          	jal	x5,34bc <failedtest_x5_x4>
      7c:	0000006c          	.word	0x0000006c
      80:	000086fe          	.word	0x000086fe
      84:	00410113          	addi	x2,x2,4

  mv x20, x2 # switch signature pointer register to avoid conflict with test
      88:	00010a13          	addi	x20,x2,0
# Testcase cp_rs1 (Test source rs1 = x2)
  RVTEST_TESTDATA_LOAD_INT(x3, x2) # load rs1: x2 = 0x7fb8cfc1
      8c:	0001a103          	lw	x2,0(x3)
      90:	00418193          	addi	x3,x3,4

00000094 <I_xori_cg_cp_rs1_b2>:
I_xori_cg_cp_rs1_b2:
  xori x18, x2, 1826 # perform operation
      94:	72214913          	xori	x18,x2,1826
  # Check if x18 contains the expected result. x20 is the signature ptr, x5 is the link ptr, x4 is a temp reg.
  RVTEST_SIGUPD(x20, x5, x4, x18, I_xori_cg_cp_rs1_b2, I_xori_cg_cp_rs1_b2_str)
      98:	000a2203          	lw	x4,0(x20)
      9c:	01220863          	beq	x4,x18,ac <I_xori_cg_cp_rs1_b2+0x18>
      a0:	41c032ef          	jal	x5,34bc <failedtest_x5_x4>
      a4:	00000094          	.word	0x00000094
      a8:	0000872c          	.word	0x0000872c
      ac:	004a0a13          	addi	x20,x20,4

  mv x22, x3 # switch data pointer register to avoid conflict with test
      b0:	00018b13          	addi	x22,x3,0
# Testcase cp_rs1 (Test source rs1 = x3)
  RVTEST_TESTDATA_LOAD_INT(x22, x3) # load rs1: x3 = 0x5a0eb16c
      b4:	000b2183          	lw	x3,0(x22)
      b8:	004b0b13          	addi	x22,x22,4

000000bc <I_xori_cg_cp_rs1_b3>:
I_xori_cg_cp_rs1_b3:
  xori x18, x3, -1872 # perform operation
      bc:	8b01c913          	xori	x18,x3,-1872
  # Check if x18 contains the expected result. x20 is the signature ptr, x5 is the link ptr, x4 is a temp reg.
  RVTEST_SIGUPD(x20, x5, x4, x18, I_xori_cg_cp_rs1_b3, I_xori_cg_cp_rs1_b3_str)
      c0:	000a2203          	lw	x4,0(x20)
      c4:	01220863          	beq	x4,x18,d4 <I_xori_cg_cp_rs1_b3+0x18>
      c8:	3f4032ef          	jal	x5,34bc <failedtest_x5_x4>
      cc:	000000bc          	.word	0x000000bc
      d0:	0000875a          	.word	0x0000875a
      d4:	004a0a13          	addi	x20,x20,4

  mv x13, x4 # switch temp register to avoid conflict with test
      d8:	00020693          	addi	x13,x4,0 # 0 <rvtest_entry_point>
  mv x14, x5 # switch link pointer register to avoid conflict with test
      dc:	00028713          	addi	x14,x5,0
# Testcase cp_rs1 (Test source rs1 = x4)
  RVTEST_TESTDATA_LOAD_INT(x22, x4) # load rs1: x4 = 0xbc0e423a
      e0:	000b2203          	lw	x4,0(x22)
      e4:	004b0b13          	addi	x22,x22,4

000000e8 <I_xori_cg_cp_rs1_b4>:
I_xori_cg_cp_rs1_b4:
  xori x26, x4, -614 # perform operation
      e8:	d9a24d13          	xori	x26,x4,-614
  # Check if x26 contains the expected result. x20 is the signature ptr, x14 is the link ptr, x13 is a temp reg.
  RVTEST_SIGUPD(x20, x14, x13, x26, I_xori_cg_cp_rs1_b4, I_xori_cg_cp_rs1_b4_str)
      ec:	000a2683          	lw	x13,0(x20)
      f0:	01a68863          	beq	x13,x26,100 <I_xori_cg_cp_rs1_b4+0x18>
      f4:	4080376f          	jal	x14,34fc <failedtest_x14_x13>
      f8:	000000e8          	.word	0x000000e8
      fc:	00008788          	.word	0x00008788
     100:	004a0a13          	addi	x20,x20,4

# Testcase cp_rs1 (Test source rs1 = x5)
  RVTEST_TESTDATA_LOAD_INT(x22, x5) # load rs1: x5 = 0x030e3a2f
     104:	000b2283          	lw	x5,0(x22)
     108:	004b0b13          	addi	x22,x22,4

0000010c <I_xori_cg_cp_rs1_b5>:
I_xori_cg_cp_rs1_b5:
  xori x2, x5, -891 # perform operation
     10c:	c852c113          	xori	x2,x5,-891
  # Check if x2 contains the expected result. x20 is the signature ptr, x14 is the link ptr, x13 is a temp reg.
  RVTEST_SIGUPD(x20, x14, x13, x2, I_xori_cg_cp_rs1_b5, I_xori_cg_cp_rs1_b5_str)
     110:	000a2683          	lw	x13,0(x20)
     114:	00268863          	beq	x13,x2,124 <I_xori_cg_cp_rs1_b5+0x18>
     118:	3e40376f          	jal	x14,34fc <failedtest_x14_x13>
     11c:	0000010c          	.word	0x0000010c
     120:	000087b6          	.word	0x000087b6
     124:	004a0a13          	addi	x20,x20,4

# Testcase cp_rs1 (Test source rs1 = x6)
  RVTEST_TESTDATA_LOAD_INT(x22, x6) # load rs1: x6 = 0x675c575e
     128:	000b2303          	lw	x6,0(x22)
     12c:	004b0b13          	addi	x22,x22,4

00000130 <I_xori_cg_cp_rs1_b6>:
I_xori_cg_cp_rs1_b6:
  xori x12, x6, -1875 # perform operation
     130:	8ad34613          	xori	x12,x6,-1875
  # Check if x12 contains the expected result. x20 is the signature ptr, x14 is the link ptr, x13 is a temp reg.
  RVTEST_SIGUPD(x20, x14, x13, x12, I_xori_cg_cp_rs1_b6, I_xori_cg_cp_rs1_b6_str)
     134:	000a2683          	lw	x13,0(x20)
     138:	00c68863          	beq	x13,x12,148 <I_xori_cg_cp_rs1_b6+0x18>
     13c:	3c00376f          	jal	x14,34fc <failedtest_x14_x13>
     140:	00000130          	.word	0x00000130
     144:	000087e4          	.word	0x000087e4
     148:	004a0a13          	addi	x20,x20,4

# Testcase cp_rs1 (Test source rs1 = x7)
  RVTEST_TESTDATA_LOAD_INT(x22, x7) # load rs1: x7 = 0x7d4def3c
     14c:	000b2383          	lw	x7,0(x22)
     150:	004b0b13          	addi	x22,x22,4

00000154 <I_xori_cg_cp_rs1_b7>:
I_xori_cg_cp_rs1_b7:
  xori x11, x7, -709 # perform operation
     154:	d3b3c593          	xori	x11,x7,-709
  # Check if x11 contains the expected result. x20 is the signature ptr, x14 is the link ptr, x13 is a temp reg.
  RVTEST_SIGUPD(x20, x14, x13, x11, I_xori_cg_cp_rs1_b7, I_xori_cg_cp_rs1_b7_str)
     158:	000a2683          	lw	x13,0(x20)
     15c:	00b68863          	beq	x13,x11,16c <I_xori_cg_cp_rs1_b7+0x18>
     160:	39c0376f          	jal	x14,34fc <failedtest_x14_x13>
     164:	00000154          	.word	0x00000154
     168:	00008812          	.word	0x00008812
     16c:	004a0a13          	addi	x20,x20,4

# Testcase cp_rs1 (Test source rs1 = x8)
  RVTEST_TESTDATA_LOAD_INT(x22, x8) # load rs1: x8 = 0xc2ece8fb
     170:	000b2403          	lw	x8,0(x22)
     174:	004b0b13          	addi	x22,x22,4

00000178 <I_xori_cg_cp_rs1_b8>:
I_xori_cg_cp_rs1_b8:
  xori x26, x8, -1405 # perform operation
     178:	a8344d13          	xori	x26,x8,-1405
  # Check if x26 contains the expected result. x20 is the signature ptr, x14 is the link ptr, x13 is a temp reg.
  RVTEST_SIGUPD(x20, x14, x13, x26, I_xori_cg_cp_rs1_b8, I_xori_cg_cp_rs1_b8_str)
     17c:	000a2683          	lw	x13,0(x20)
     180:	01a68863          	beq	x13,x26,190 <I_xori_cg_cp_rs1_b8+0x18>
     184:	3780376f          	jal	x14,34fc <failedtest_x14_x13>
     188:	00000178          	.word	0x00000178
     18c:	00008840          	.word	0x00008840
     190:	004a0a13          	addi	x20,x20,4

# Testcase cp_rs1 (Test source rs1 = x9)
  RVTEST_TESTDATA_LOAD_INT(x22, x9) # load rs1: x9 = 0x73f2a267
     194:	000b2483          	lw	x9,0(x22)
     198:	004b0b13          	addi	x22,x22,4

0000019c <I_xori_cg_cp_rs1_b9>:
I_xori_cg_cp_rs1_b9:
  xori x18, x9, 645 # perform operation
     19c:	2854c913          	xori	x18,x9,645
  # Check if x18 contains the expected result. x20 is the signature ptr, x14 is the link ptr, x13 is a temp reg.
  RVTEST_SIGUPD(x20, x14, x13, x18, I_xori_cg_cp_rs1_b9, I_xori_cg_cp_rs1_b9_str)
     1a0:	000a2683          	lw	x13,0(x20)
     1a4:	01268863          	beq	x13,x18,1b4 <I_xori_cg_cp_rs1_b9+0x18>
     1a8:	3540376f          	jal	x14,34fc <failedtest_x14_x13>
     1ac:	0000019c          	.word	0x0000019c
     1b0:	0000886e          	.word	0x0000886e
     1b4:	004a0a13          	addi	x20,x20,4

# Testcase cp_rs1 (Test source rs1 = x10)
  RVTEST_TESTDATA_LOAD_INT(x22, x10) # load rs1: x10 = 0x7075748e
     1b8:	000b2503          	lw	x10,0(x22)
     1bc:	004b0b13          	addi	x22,x22,4

000001c0 <I_xori_cg_cp_rs1_b10>:
I_xori_cg_cp_rs1_b10:
  xori x17, x10, -1857 # perform operation
     1c0:	8bf54893          	xori	x17,x10,-1857
  # Check if x17 contains the expected result. x20 is the signature ptr, x14 is the link ptr, x13 is a temp reg.
  RVTEST_SIGUPD(x20, x14, x13, x17, I_xori_cg_cp_rs1_b10, I_xori_cg_cp_rs1_b10_str)
     1c4:	000a2683          	lw	x13,0(x20)
     1c8:	01168863          	beq	x13,x17,1d8 <I_xori_cg_cp_rs1_b10+0x18>
     1cc:	3300376f          	jal	x14,34fc <failedtest_x14_x13>
     1d0:	000001c0          	.word	0x000001c0
     1d4:	0000889d          	.word	0x0000889d
     1d8:	004a0a13          	addi	x20,x20,4

# Testcase cp_rs1 (Test source rs1 = x11)
  RVTEST_TESTDATA_LOAD_INT(x22, x11) # load rs1: x11 = 0x2f3562a6
     1dc:	000b2583          	lw	x11,0(x22)
     1e0:	004b0b13          	addi	x22,x22,4

000001e4 <I_xori_cg_cp_rs1_b11>:
I_xori_cg_cp_rs1_b11:
  xori x25, x11, -452 # perform operation
     1e4:	e3c5cc93          	xori	x25,x11,-452
  # Check if x25 contains the expected result. x20 is the signature ptr, x14 is the link ptr, x13 is a temp reg.
  RVTEST_SIGUPD(x20, x14, x13, x25, I_xori_cg_cp_rs1_b11, I_xori_cg_cp_rs1_b11_str)
     1e8:	000a2683          	lw	x13,0(x20)
     1ec:	01968863          	beq	x13,x25,1fc <I_xori_cg_cp_rs1_b11+0x18>
     1f0:	30c0376f          	jal	x14,34fc <failedtest_x14_x13>
     1f4:	000001e4          	.word	0x000001e4
     1f8:	000088cd          	.word	0x000088cd
     1fc:	004a0a13          	addi	x20,x20,4

# Testcase cp_rs1 (Test source rs1 = x12)
  RVTEST_TESTDATA_LOAD_INT(x22, x12) # load rs1: x12 = 0x1979739b
     200:	000b2603          	lw	x12,0(x22)
     204:	004b0b13          	addi	x22,x22,4

00000208 <I_xori_cg_cp_rs1_b12>:
I_xori_cg_cp_rs1_b12:
  xori x25, x12, 381 # perform operation
     208:	17d64c93          	xori	x25,x12,381
  # Check if x25 contains the expected result. x20 is the signature ptr, x14 is the link ptr, x13 is a temp reg.
  RVTEST_SIGUPD(x20, x14, x13, x25, I_xori_cg_cp_rs1_b12, I_xori_cg_cp_rs1_b12_str)
     20c:	000a2683          	lw	x13,0(x20)
     210:	01968863          	beq	x13,x25,220 <I_xori_cg_cp_rs1_b12+0x18>
     214:	2e80376f          	jal	x14,34fc <failedtest_x14_x13>
     218:	00000208          	.word	0x00000208
     21c:	000088fd          	.word	0x000088fd
     220:	004a0a13          	addi	x20,x20,4

  mv x7, x13 # switch temp register to avoid conflict with test
     224:	00068393          	addi	x7,x13,0
  mv x8, x14 # switch link pointer register to avoid conflict with test
     228:	00070413          	addi	x8,x14,0
# Testcase cp_rs1 (Test source rs1 = x13)
  RVTEST_TESTDATA_LOAD_INT(x22, x13) # load rs1: x13 = 0xe99d7009
     22c:	000b2683          	lw	x13,0(x22)
     230:	004b0b13          	addi	x22,x22,4

00000234 <I_xori_cg_cp_rs1_b13>:
I_xori_cg_cp_rs1_b13:
  xori x26, x13, -1207 # perform operation
     234:	b496cd13          	xori	x26,x13,-1207
  # Check if x26 contains the expected result. x20 is the signature ptr, x8 is the link ptr, x7 is a temp reg.
  RVTEST_SIGUPD(x20, x8, x7, x26, I_xori_cg_cp_rs1_b13, I_xori_cg_cp_rs1_b13_str)
     238:	000a2383          	lw	x7,0(x20)
     23c:	01a38863          	beq	x7,x26,24c <I_xori_cg_cp_rs1_b13+0x18>
     240:	2940346f          	jal	x8,34d4 <failedtest_x8_x7>
     244:	00000234          	.word	0x00000234
     248:	0000892d          	.word	0x0000892d
     24c:	004a0a13          	addi	x20,x20,4

# Testcase cp_rs1 (Test source rs1 = x14)
  RVTEST_TESTDATA_LOAD_INT(x22, x14) # load rs1: x14 = 0x303da987
     250:	000b2703          	lw	x14,0(x22)
     254:	004b0b13          	addi	x22,x22,4

00000258 <I_xori_cg_cp_rs1_b14>:
I_xori_cg_cp_rs1_b14:
  xori x5, x14, 1089 # perform operation
     258:	44174293          	xori	x5,x14,1089
  # Check if x5 contains the expected result. x20 is the signature ptr, x8 is the link ptr, x7 is a temp reg.
  RVTEST_SIGUPD(x20, x8, x7, x5, I_xori_cg_cp_rs1_b14, I_xori_cg_cp_rs1_b14_str)
     25c:	000a2383          	lw	x7,0(x20)
     260:	00538863          	beq	x7,x5,270 <I_xori_cg_cp_rs1_b14+0x18>
     264:	2700346f          	jal	x8,34d4 <failedtest_x8_x7>
     268:	00000258          	.word	0x00000258
     26c:	0000895d          	.word	0x0000895d
     270:	004a0a13          	addi	x20,x20,4

# Testcase cp_rs1 (Test source rs1 = x15)
  RVTEST_TESTDATA_LOAD_INT(x22, x15) # load rs1: x15 = 0xe579afbf
     274:	000b2783          	lw	x15,0(x22)
     278:	004b0b13          	addi	x22,x22,4

0000027c <I_xori_cg_cp_rs1_b15>:
I_xori_cg_cp_rs1_b15:
  xori x28, x15, 1380 # perform operation
     27c:	5647ce13          	xori	x28,x15,1380
  # Check if x28 contains the expected result. x20 is the signature ptr, x8 is the link ptr, x7 is a temp reg.
  RVTEST_SIGUPD(x20, x8, x7, x28, I_xori_cg_cp_rs1_b15, I_xori_cg_cp_rs1_b15_str)
     280:	000a2383          	lw	x7,0(x20)
     284:	01c38863          	beq	x7,x28,294 <I_xori_cg_cp_rs1_b15+0x18>
     288:	24c0346f          	jal	x8,34d4 <failedtest_x8_x7>
     28c:	0000027c          	.word	0x0000027c
     290:	0000898d          	.word	0x0000898d
     294:	004a0a13          	addi	x20,x20,4

# Testcase cp_rs1 (Test source rs1 = x16)
  RVTEST_TESTDATA_LOAD_INT(x22, x16) # load rs1: x16 = 0xb25d8225
     298:	000b2803          	lw	x16,0(x22)
     29c:	004b0b13          	addi	x22,x22,4

000002a0 <I_xori_cg_cp_rs1_b16>:
I_xori_cg_cp_rs1_b16:
  xori x1, x16, 702 # perform operation
     2a0:	2be84093          	xori	x1,x16,702
  # Check if x1 contains the expected result. x20 is the signature ptr, x8 is the link ptr, x7 is a temp reg.
  RVTEST_SIGUPD(x20, x8, x7, x1, I_xori_cg_cp_rs1_b16, I_xori_cg_cp_rs1_b16_str)
     2a4:	000a2383          	lw	x7,0(x20)
     2a8:	00138863          	beq	x7,x1,2b8 <I_xori_cg_cp_rs1_b16+0x18>
     2ac:	2280346f          	jal	x8,34d4 <failedtest_x8_x7>
     2b0:	000002a0          	.word	0x000002a0
     2b4:	000089bd          	.word	0x000089bd
     2b8:	004a0a13          	addi	x20,x20,4

# Testcase cp_rs1 (Test source rs1 = x17)
  RVTEST_TESTDATA_LOAD_INT(x22, x17) # load rs1: x17 = 0x72793c62
     2bc:	000b2883          	lw	x17,0(x22)
     2c0:	004b0b13          	addi	x22,x22,4

000002c4 <I_xori_cg_cp_rs1_b17>:
I_xori_cg_cp_rs1_b17:
  xori x14, x17, -1658 # perform operation
     2c4:	9868c713          	xori	x14,x17,-1658
  # Check if x14 contains the expected result. x20 is the signature ptr, x8 is the link ptr, x7 is a temp reg.
  RVTEST_SIGUPD(x20, x8, x7, x14, I_xori_cg_cp_rs1_b17, I_xori_cg_cp_rs1_b17_str)
     2c8:	000a2383          	lw	x7,0(x20)
     2cc:	00e38863          	beq	x7,x14,2dc <I_xori_cg_cp_rs1_b17+0x18>
     2d0:	2040346f          	jal	x8,34d4 <failedtest_x8_x7>
     2d4:	000002c4          	.word	0x000002c4
     2d8:	000089ed          	.word	0x000089ed
     2dc:	004a0a13          	addi	x20,x20,4

# Testcase cp_rs1 (Test source rs1 = x18)
  RVTEST_TESTDATA_LOAD_INT(x22, x18) # load rs1: x18 = 0x93d0b513
     2e0:	000b2903          	lw	x18,0(x22)
     2e4:	004b0b13          	addi	x22,x22,4

000002e8 <I_xori_cg_cp_rs1_b18>:
I_xori_cg_cp_rs1_b18:
  xori x30, x18, -766 # perform operation
     2e8:	d0294f13          	xori	x30,x18,-766
  # Check if x30 contains the expected result. x20 is the signature ptr, x8 is the link ptr, x7 is a temp reg.
  RVTEST_SIGUPD(x20, x8, x7, x30, I_xori_cg_cp_rs1_b18, I_xori_cg_cp_rs1_b18_str)
     2ec:	000a2383          	lw	x7,0(x20)
     2f0:	01e38863          	beq	x7,x30,300 <I_xori_cg_cp_rs1_b18+0x18>
     2f4:	1e00346f          	jal	x8,34d4 <failedtest_x8_x7>
     2f8:	000002e8          	.word	0x000002e8
     2fc:	00008a1d          	.word	0x00008a1d
     300:	004a0a13          	addi	x20,x20,4

# Testcase cp_rs1 (Test source rs1 = x19)
  RVTEST_TESTDATA_LOAD_INT(x22, x19) # load rs1: x19 = 0x34a7f4a4
     304:	000b2983          	lw	x19,0(x22)
     308:	004b0b13          	addi	x22,x22,4

0000030c <I_xori_cg_cp_rs1_b19>:
I_xori_cg_cp_rs1_b19:
  xori x2, x19, -1443 # perform operation
     30c:	a5d9c113          	xori	x2,x19,-1443
  # Check if x2 contains the expected result. x20 is the signature ptr, x8 is the link ptr, x7 is a temp reg.
  RVTEST_SIGUPD(x20, x8, x7, x2, I_xori_cg_cp_rs1_b19, I_xori_cg_cp_rs1_b19_str)
     310:	000a2383          	lw	x7,0(x20)
     314:	00238863          	beq	x7,x2,324 <I_xori_cg_cp_rs1_b19+0x18>
     318:	1bc0346f          	jal	x8,34d4 <failedtest_x8_x7>
     31c:	0000030c          	.word	0x0000030c
     320:	00008a4d          	.word	0x00008a4d
     324:	004a0a13          	addi	x20,x20,4

  mv x27, x20 # switch signature pointer register to avoid conflict with test
     328:	000a0d93          	addi	x27,x20,0
# Testcase cp_rs1 (Test source rs1 = x20)
  RVTEST_TESTDATA_LOAD_INT(x22, x20) # load rs1: x20 = 0x39b9521f
     32c:	000b2a03          	lw	x20,0(x22)
     330:	004b0b13          	addi	x22,x22,4

00000334 <I_xori_cg_cp_rs1_b20>:
I_xori_cg_cp_rs1_b20:
  xori x13, x20, 164 # perform operation
     334:	0a4a4693          	xori	x13,x20,164
  # Check if x13 contains the expected result. x27 is the signature ptr, x8 is the link ptr, x7 is a temp reg.
  RVTEST_SIGUPD(x27, x8, x7, x13, I_xori_cg_cp_rs1_b20, I_xori_cg_cp_rs1_b20_str)
     338:	000da383          	lw	x7,0(x27)
     33c:	00d38863          	beq	x7,x13,34c <I_xori_cg_cp_rs1_b20+0x18>
     340:	1940346f          	jal	x8,34d4 <failedtest_x8_x7>
     344:	00000334          	.word	0x00000334
     348:	00008a7d          	.word	0x00008a7d
     34c:	004d8d93          	addi	x27,x27,4

# Testcase cp_rs1 (Test source rs1 = x21)
  RVTEST_TESTDATA_LOAD_INT(x22, x21) # load rs1: x21 = 0x2a2f3732
     350:	000b2a83          	lw	x21,0(x22)
     354:	004b0b13          	addi	x22,x22,4

00000358 <I_xori_cg_cp_rs1_b21>:
I_xori_cg_cp_rs1_b21:
  xori x26, x21, -1128 # perform operation
     358:	b98acd13          	xori	x26,x21,-1128
  # Check if x26 contains the expected result. x27 is the signature ptr, x8 is the link ptr, x7 is a temp reg.
  RVTEST_SIGUPD(x27, x8, x7, x26, I_xori_cg_cp_rs1_b21, I_xori_cg_cp_rs1_b21_str)
     35c:	000da383          	lw	x7,0(x27)
     360:	01a38863          	beq	x7,x26,370 <I_xori_cg_cp_rs1_b21+0x18>
     364:	1700346f          	jal	x8,34d4 <failedtest_x8_x7>
     368:	00000358          	.word	0x00000358
     36c:	00008aad          	.word	0x00008aad
     370:	004d8d93          	addi	x27,x27,4

  mv x31, x22 # switch data pointer register to avoid conflict with test
     374:	000b0f93          	addi	x31,x22,0
# Testcase cp_rs1 (Test source rs1 = x22)
  RVTEST_TESTDATA_LOAD_INT(x31, x22) # load rs1: x22 = 0x93e1b567
     378:	000fab03          	lw	x22,0(x31)
     37c:	004f8f93          	addi	x31,x31,4

00000380 <I_xori_cg_cp_rs1_b22>:
I_xori_cg_cp_rs1_b22:
  xori x13, x22, 1707 # perform operation
     380:	6abb4693          	xori	x13,x22,1707
  # Check if x13 contains the expected result. x27 is the signature ptr, x8 is the link ptr, x7 is a temp reg.
  RVTEST_SIGUPD(x27, x8, x7, x13, I_xori_cg_cp_rs1_b22, I_xori_cg_cp_rs1_b22_str)
     384:	000da383          	lw	x7,0(x27)
     388:	00d38863          	beq	x7,x13,398 <I_xori_cg_cp_rs1_b22+0x18>
     38c:	1480346f          	jal	x8,34d4 <failedtest_x8_x7>
     390:	00000380          	.word	0x00000380
     394:	00008add          	.word	0x00008add
     398:	004d8d93          	addi	x27,x27,4

# Testcase cp_rs1 (Test source rs1 = x23)
  RVTEST_TESTDATA_LOAD_INT(x31, x23) # load rs1: x23 = 0x97eb902f
     39c:	000fab83          	lw	x23,0(x31)
     3a0:	004f8f93          	addi	x31,x31,4

000003a4 <I_xori_cg_cp_rs1_b23>:
I_xori_cg_cp_rs1_b23:
  xori x21, x23, 64 # perform operation
     3a4:	040bca93          	xori	x21,x23,64
  # Check if x21 contains the expected result. x27 is the signature ptr, x8 is the link ptr, x7 is a temp reg.
  RVTEST_SIGUPD(x27, x8, x7, x21, I_xori_cg_cp_rs1_b23, I_xori_cg_cp_rs1_b23_str)
     3a8:	000da383          	lw	x7,0(x27)
     3ac:	01538863          	beq	x7,x21,3bc <I_xori_cg_cp_rs1_b23+0x18>
     3b0:	1240346f          	jal	x8,34d4 <failedtest_x8_x7>
     3b4:	000003a4          	.word	0x000003a4
     3b8:	00008b0d          	.word	0x00008b0d
     3bc:	004d8d93          	addi	x27,x27,4

# Testcase cp_rs1 (Test source rs1 = x24)
  RVTEST_TESTDATA_LOAD_INT(x31, x24) # load rs1: x24 = 0x01dd9369
     3c0:	000fac03          	lw	x24,0(x31)
     3c4:	004f8f93          	addi	x31,x31,4

000003c8 <I_xori_cg_cp_rs1_b24>:
I_xori_cg_cp_rs1_b24:
  xori x23, x24, -2020 # perform operation
     3c8:	81cc4b93          	xori	x23,x24,-2020
  # Check if x23 contains the expected result. x27 is the signature ptr, x8 is the link ptr, x7 is a temp reg.
  RVTEST_SIGUPD(x27, x8, x7, x23, I_xori_cg_cp_rs1_b24, I_xori_cg_cp_rs1_b24_str)
     3cc:	000da383          	lw	x7,0(x27)
     3d0:	01738863          	beq	x7,x23,3e0 <I_xori_cg_cp_rs1_b24+0x18>
     3d4:	1000346f          	jal	x8,34d4 <failedtest_x8_x7>
     3d8:	000003c8          	.word	0x000003c8
     3dc:	00008b3d          	.word	0x00008b3d
     3e0:	004d8d93          	addi	x27,x27,4

# Testcase cp_rs1 (Test source rs1 = x25)
  RVTEST_TESTDATA_LOAD_INT(x31, x25) # load rs1: x25 = 0x3cdbec21
     3e4:	000fac83          	lw	x25,0(x31)
     3e8:	004f8f93          	addi	x31,x31,4

000003ec <I_xori_cg_cp_rs1_b25>:
I_xori_cg_cp_rs1_b25:
  xori x30, x25, 1143 # perform operation
     3ec:	477ccf13          	xori	x30,x25,1143
  # Check if x30 contains the expected result. x27 is the signature ptr, x8 is the link ptr, x7 is a temp reg.
  RVTEST_SIGUPD(x27, x8, x7, x30, I_xori_cg_cp_rs1_b25, I_xori_cg_cp_rs1_b25_str)
     3f0:	000da383          	lw	x7,0(x27)
     3f4:	01e38863          	beq	x7,x30,404 <I_xori_cg_cp_rs1_b25+0x18>
     3f8:	0dc0346f          	jal	x8,34d4 <failedtest_x8_x7>
     3fc:	000003ec          	.word	0x000003ec
     400:	00008b6d          	.word	0x00008b6d
     404:	004d8d93          	addi	x27,x27,4

# Testcase cp_rs1 (Test source rs1 = x26)
  RVTEST_TESTDATA_LOAD_INT(x31, x26) # load rs1: x26 = 0xd3f3a812
     408:	000fad03          	lw	x26,0(x31)
     40c:	004f8f93          	addi	x31,x31,4

00000410 <I_xori_cg_cp_rs1_b26>:
I_xori_cg_cp_rs1_b26:
  xori x29, x26, 236 # perform operation
     410:	0ecd4e93          	xori	x29,x26,236
  # Check if x29 contains the expected result. x27 is the signature ptr, x8 is the link ptr, x7 is a temp reg.
  RVTEST_SIGUPD(x27, x8, x7, x29, I_xori_cg_cp_rs1_b26, I_xori_cg_cp_rs1_b26_str)
     414:	000da383          	lw	x7,0(x27)
     418:	01d38863          	beq	x7,x29,428 <I_xori_cg_cp_rs1_b26+0x18>
     41c:	0b80346f          	jal	x8,34d4 <failedtest_x8_x7>
     420:	00000410          	.word	0x00000410
     424:	00008b9d          	.word	0x00008b9d
     428:	004d8d93          	addi	x27,x27,4

  mv x16, x27 # switch signature pointer register to avoid conflict with test
     42c:	000d8813          	addi	x16,x27,0
# Testcase cp_rs1 (Test source rs1 = x27)
  RVTEST_TESTDATA_LOAD_INT(x31, x27) # load rs1: x27 = 0xff17ecbc
     430:	000fad83          	lw	x27,0(x31)
     434:	004f8f93          	addi	x31,x31,4

00000438 <I_xori_cg_cp_rs1_b27>:
I_xori_cg_cp_rs1_b27:
  xori x24, x27, -942 # perform operation
     438:	c52dcc13          	xori	x24,x27,-942
  # Check if x24 contains the expected result. x16 is the signature ptr, x8 is the link ptr, x7 is a temp reg.
  RVTEST_SIGUPD(x16, x8, x7, x24, I_xori_cg_cp_rs1_b27, I_xori_cg_cp_rs1_b27_str)
     43c:	00082383          	lw	x7,0(x16)
     440:	01838863          	beq	x7,x24,450 <I_xori_cg_cp_rs1_b27+0x18>
     444:	0900346f          	jal	x8,34d4 <failedtest_x8_x7>
     448:	00000438          	.word	0x00000438
     44c:	00008bcd          	.word	0x00008bcd
     450:	00480813          	addi	x16,x16,4

# Testcase cp_rs1 (Test source rs1 = x28)
  RVTEST_TESTDATA_LOAD_INT(x31, x28) # load rs1: x28 = 0xcf6f86f3
     454:	000fae03          	lw	x28,0(x31)
     458:	004f8f93          	addi	x31,x31,4

0000045c <I_xori_cg_cp_rs1_b28>:
I_xori_cg_cp_rs1_b28:
  xori x15, x28, 680 # perform operation
     45c:	2a8e4793          	xori	x15,x28,680
  # Check if x15 contains the expected result. x16 is the signature ptr, x8 is the link ptr, x7 is a temp reg.
  RVTEST_SIGUPD(x16, x8, x7, x15, I_xori_cg_cp_rs1_b28, I_xori_cg_cp_rs1_b28_str)
     460:	00082383          	lw	x7,0(x16)
     464:	00f38863          	beq	x7,x15,474 <I_xori_cg_cp_rs1_b28+0x18>
     468:	06c0346f          	jal	x8,34d4 <failedtest_x8_x7>
     46c:	0000045c          	.word	0x0000045c
     470:	00008bfd          	.word	0x00008bfd
     474:	00480813          	addi	x16,x16,4

# Testcase cp_rs1 (Test source rs1 = x29)
  RVTEST_TESTDATA_LOAD_INT(x31, x29) # load rs1: x29 = 0xdb4c3328
     478:	000fae83          	lw	x29,0(x31)
     47c:	004f8f93          	addi	x31,x31,4

00000480 <I_xori_cg_cp_rs1_b29>:
I_xori_cg_cp_rs1_b29:
  xori x11, x29, 488 # perform operation
     480:	1e8ec593          	xori	x11,x29,488
  # Check if x11 contains the expected result. x16 is the signature ptr, x8 is the link ptr, x7 is a temp reg.
  RVTEST_SIGUPD(x16, x8, x7, x11, I_xori_cg_cp_rs1_b29, I_xori_cg_cp_rs1_b29_str)
     484:	00082383          	lw	x7,0(x16)
     488:	00b38863          	beq	x7,x11,498 <I_xori_cg_cp_rs1_b29+0x18>
     48c:	0480346f          	jal	x8,34d4 <failedtest_x8_x7>
     490:	00000480          	.word	0x00000480
     494:	00008c2d          	.word	0x00008c2d
     498:	00480813          	addi	x16,x16,4

# Testcase cp_rs1 (Test source rs1 = x30)
  RVTEST_TESTDATA_LOAD_INT(x31, x30) # load rs1: x30 = 0x2c405a1a
     49c:	000faf03          	lw	x30,0(x31)
     4a0:	004f8f93          	addi	x31,x31,4

000004a4 <I_xori_cg_cp_rs1_b30>:
I_xori_cg_cp_rs1_b30:
  xori x4, x30, 304 # perform operation
     4a4:	130f4213          	xori	x4,x30,304
  # Check if x4 contains the expected result. x16 is the signature ptr, x8 is the link ptr, x7 is a temp reg.
  RVTEST_SIGUPD(x16, x8, x7, x4, I_xori_cg_cp_rs1_b30, I_xori_cg_cp_rs1_b30_str)
     4a8:	00082383          	lw	x7,0(x16)
     4ac:	00438863          	beq	x7,x4,4bc <I_xori_cg_cp_rs1_b30+0x18>
     4b0:	0240346f          	jal	x8,34d4 <failedtest_x8_x7>
     4b4:	000004a4          	.word	0x000004a4
     4b8:	00008c5d          	.word	0x00008c5d
     4bc:	00480813          	addi	x16,x16,4

  mv x25, x31 # switch data pointer register to avoid conflict with test
     4c0:	000f8c93          	addi	x25,x31,0
# Testcase cp_rs1 (Test source rs1 = x31)
  RVTEST_TESTDATA_LOAD_INT(x25, x31) # load rs1: x31 = 0xe61e303d
     4c4:	000caf83          	lw	x31,0(x25)
     4c8:	004c8c93          	addi	x25,x25,4

000004cc <I_xori_cg_cp_rs1_b31>:
I_xori_cg_cp_rs1_b31:
  xori x3, x31, -610 # perform operation
     4cc:	d9efc193          	xori	x3,x31,-610
  # Check if x3 contains the expected result. x16 is the signature ptr, x8 is the link ptr, x7 is a temp reg.
  RVTEST_SIGUPD(x16, x8, x7, x3, I_xori_cg_cp_rs1_b31, I_xori_cg_cp_rs1_b31_str)
     4d0:	00082383          	lw	x7,0(x16)
     4d4:	00338863          	beq	x7,x3,4e4 <I_xori_cg_cp_rs1_b31+0x18>
     4d8:	7fd0246f          	jal	x8,34d4 <failedtest_x8_x7>
     4dc:	000004cc          	.word	0x000004cc
     4e0:	00008c8d          	.word	0x00008c8d
     4e4:	00480813          	addi	x16,x16,4
/////////////////////////////////
// cp_rd
/////////////////////////////////

# Testcase cp_rd (Test destination rd = x0)
  RVTEST_TESTDATA_LOAD_INT(x25, x1) # load rs1: x1 = 0xa36290b0
     4e8:	000ca083          	lw	x1,0(x25)
     4ec:	004c8c93          	addi	x25,x25,4

000004f0 <I_xori_cg_cp_rd_b0>:
I_xori_cg_cp_rd_b0:
  xori x0, x1, -1663 # perform operation
     4f0:	9810c013          	xori	x0,x1,-1663
  # Check if x0 contains the expected result. x16 is the signature ptr, x8 is the link ptr, x7 is a temp reg.
  RVTEST_SIGUPD(x16, x8, x7, x0, I_xori_cg_cp_rd_b0, I_xori_cg_cp_rd_b0_str)
     4f4:	00082383          	lw	x7,0(x16)
     4f8:	00038863          	beq	x7,x0,508 <I_xori_cg_cp_rd_b0+0x18>
     4fc:	7d90246f          	jal	x8,34d4 <failedtest_x8_x7>
     500:	000004f0          	.word	0x000004f0
     504:	00008cbd          	.word	0x00008cbd
     508:	00480813          	addi	x16,x16,4

# Testcase cp_rd (Test destination rd = x1)
  RVTEST_TESTDATA_LOAD_INT(x25, x12) # load rs1: x12 = 0xbd44e507
     50c:	000ca603          	lw	x12,0(x25)
     510:	004c8c93          	addi	x25,x25,4

00000514 <I_xori_cg_cp_rd_b1>:
I_xori_cg_cp_rd_b1:
  xori x1, x12, 955 # perform operation
     514:	3bb64093          	xori	x1,x12,955
  # Check if x1 contains the expected result. x16 is the signature ptr, x8 is the link ptr, x7 is a temp reg.
  RVTEST_SIGUPD(x16, x8, x7, x1, I_xori_cg_cp_rd_b1, I_xori_cg_cp_rd_b1_str)
     518:	00082383          	lw	x7,0(x16)
     51c:	00138863          	beq	x7,x1,52c <I_xori_cg_cp_rd_b1+0x18>
     520:	7b50246f          	jal	x8,34d4 <failedtest_x8_x7>
     524:	00000514          	.word	0x00000514
     528:	00008ceb          	.word	0x00008ceb
     52c:	00480813          	addi	x16,x16,4

# Testcase cp_rd (Test destination rd = x2)
  RVTEST_TESTDATA_LOAD_INT(x25, x28) # load rs1: x28 = 0x0207a983
     530:	000cae03          	lw	x28,0(x25)
     534:	004c8c93          	addi	x25,x25,4

00000538 <I_xori_cg_cp_rd_b2>:
I_xori_cg_cp_rd_b2:
  xori x2, x28, -940 # perform operation
     538:	c54e4113          	xori	x2,x28,-940
  # Check if x2 contains the expected result. x16 is the signature ptr, x8 is the link ptr, x7 is a temp reg.
  RVTEST_SIGUPD(x16, x8, x7, x2, I_xori_cg_cp_rd_b2, I_xori_cg_cp_rd_b2_str)
     53c:	00082383          	lw	x7,0(x16)
     540:	00238863          	beq	x7,x2,550 <I_xori_cg_cp_rd_b2+0x18>
     544:	7910246f          	jal	x8,34d4 <failedtest_x8_x7>
     548:	00000538          	.word	0x00000538
     54c:	00008d19          	.word	0x00008d19
     550:	00480813          	addi	x16,x16,4

# Testcase cp_rd (Test destination rd = x3)
  RVTEST_TESTDATA_LOAD_INT(x25, x10) # load rs1: x10 = 0xbdc041dc
     554:	000ca503          	lw	x10,0(x25)
     558:	004c8c93          	addi	x25,x25,4

0000055c <I_xori_cg_cp_rd_b3>:
I_xori_cg_cp_rd_b3:
  xori x3, x10, 1537 # perform operation
     55c:	60154193          	xori	x3,x10,1537
  # Check if x3 contains the expected result. x16 is the signature ptr, x8 is the link ptr, x7 is a temp reg.
  RVTEST_SIGUPD(x16, x8, x7, x3, I_xori_cg_cp_rd_b3, I_xori_cg_cp_rd_b3_str)
     560:	00082383          	lw	x7,0(x16)
     564:	00338863          	beq	x7,x3,574 <I_xori_cg_cp_rd_b3+0x18>
     568:	76d0246f          	jal	x8,34d4 <failedtest_x8_x7>
     56c:	0000055c          	.word	0x0000055c
     570:	00008d47          	.word	0x00008d47
     574:	00480813          	addi	x16,x16,4

# Testcase cp_rd (Test destination rd = x4)
  RVTEST_TESTDATA_LOAD_INT(x25, x14) # load rs1: x14 = 0x3156eb47
     578:	000ca703          	lw	x14,0(x25)
     57c:	004c8c93          	addi	x25,x25,4

00000580 <I_xori_cg_cp_rd_b4>:
I_xori_cg_cp_rd_b4:
  xori x4, x14, 1816 # perform operation
     580:	71874213          	xori	x4,x14,1816
  # Check if x4 contains the expected result. x16 is the signature ptr, x8 is the link ptr, x7 is a temp reg.
  RVTEST_SIGUPD(x16, x8, x7, x4, I_xori_cg_cp_rd_b4, I_xori_cg_cp_rd_b4_str)
     584:	00082383          	lw	x7,0(x16)
     588:	00438863          	beq	x7,x4,598 <I_xori_cg_cp_rd_b4+0x18>
     58c:	7490246f          	jal	x8,34d4 <failedtest_x8_x7>
     590:	00000580          	.word	0x00000580
     594:	00008d75          	.word	0x00008d75
     598:	00480813          	addi	x16,x16,4

# Testcase cp_rd (Test destination rd = x5)
  RVTEST_TESTDATA_LOAD_INT(x25, x12) # load rs1: x12 = 0x0393824e
     59c:	000ca603          	lw	x12,0(x25)
     5a0:	004c8c93          	addi	x25,x25,4

000005a4 <I_xori_cg_cp_rd_b5>:
I_xori_cg_cp_rd_b5:
  xori x5, x12, -289 # perform operation
     5a4:	edf64293          	xori	x5,x12,-289
  # Check if x5 contains the expected result. x16 is the signature ptr, x8 is the link ptr, x7 is a temp reg.
  RVTEST_SIGUPD(x16, x8, x7, x5, I_xori_cg_cp_rd_b5, I_xori_cg_cp_rd_b5_str)
     5a8:	00082383          	lw	x7,0(x16)
     5ac:	00538863          	beq	x7,x5,5bc <I_xori_cg_cp_rd_b5+0x18>
     5b0:	7250246f          	jal	x8,34d4 <failedtest_x8_x7>
     5b4:	000005a4          	.word	0x000005a4
     5b8:	00008da3          	.word	0x00008da3
     5bc:	00480813          	addi	x16,x16,4

# Testcase cp_rd (Test destination rd = x6)
  RVTEST_TESTDATA_LOAD_INT(x25, x21) # load rs1: x21 = 0x1a9f1fae
     5c0:	000caa83          	lw	x21,0(x25)
     5c4:	004c8c93          	addi	x25,x25,4

000005c8 <I_xori_cg_cp_rd_b6>:
I_xori_cg_cp_rd_b6:
  xori x6, x21, 414 # perform operation
     5c8:	19eac313          	xori	x6,x21,414
  # Check if x6 contains the expected result. x16 is the signature ptr, x8 is the link ptr, x7 is a temp reg.
  RVTEST_SIGUPD(x16, x8, x7, x6, I_xori_cg_cp_rd_b6, I_xori_cg_cp_rd_b6_str)
     5cc:	00082383          	lw	x7,0(x16)
     5d0:	00638863          	beq	x7,x6,5e0 <I_xori_cg_cp_rd_b6+0x18>
     5d4:	7010246f          	jal	x8,34d4 <failedtest_x8_x7>
     5d8:	000005c8          	.word	0x000005c8
     5dc:	00008dd1          	.word	0x00008dd1
     5e0:	00480813          	addi	x16,x16,4

  mv x13, x7 # switch temp register to avoid conflict with test
     5e4:	00038693          	addi	x13,x7,0
  mv x14, x8 # switch link pointer register to avoid conflict with test
     5e8:	00040713          	addi	x14,x8,0
# Testcase cp_rd (Test destination rd = x7)
  RVTEST_TESTDATA_LOAD_INT(x25, x18) # load rs1: x18 = 0x66128afa
     5ec:	000ca903          	lw	x18,0(x25)
     5f0:	004c8c93          	addi	x25,x25,4

000005f4 <I_xori_cg_cp_rd_b7>:
I_xori_cg_cp_rd_b7:
  xori x7, x18, 761 # perform operation
     5f4:	2f994393          	xori	x7,x18,761
  # Check if x7 contains the expected result. x16 is the signature ptr, x14 is the link ptr, x13 is a temp reg.
  RVTEST_SIGUPD(x16, x14, x13, x7, I_xori_cg_cp_rd_b7, I_xori_cg_cp_rd_b7_str)
     5f8:	00082683          	lw	x13,0(x16)
     5fc:	00768863          	beq	x13,x7,60c <I_xori_cg_cp_rd_b7+0x18>
     600:	6fd0276f          	jal	x14,34fc <failedtest_x14_x13>
     604:	000005f4          	.word	0x000005f4
     608:	00008dff          	.word	0x00008dff
     60c:	00480813          	addi	x16,x16,4

# Testcase cp_rd (Test destination rd = x8)
  RVTEST_TESTDATA_LOAD_INT(x25, x9) # load rs1: x9 = 0xb1cc7ba2
     610:	000ca483          	lw	x9,0(x25)
     614:	004c8c93          	addi	x25,x25,4

00000618 <I_xori_cg_cp_rd_b8>:
I_xori_cg_cp_rd_b8:
  xori x8, x9, -932 # perform operation
     618:	c5c4c413          	xori	x8,x9,-932
  # Check if x8 contains the expected result. x16 is the signature ptr, x14 is the link ptr, x13 is a temp reg.
  RVTEST_SIGUPD(x16, x14, x13, x8, I_xori_cg_cp_rd_b8, I_xori_cg_cp_rd_b8_str)
     61c:	00082683          	lw	x13,0(x16)
     620:	00868863          	beq	x13,x8,630 <I_xori_cg_cp_rd_b8+0x18>
     624:	6d90276f          	jal	x14,34fc <failedtest_x14_x13>
     628:	00000618          	.word	0x00000618
     62c:	00008e2d          	.word	0x00008e2d
     630:	00480813          	addi	x16,x16,4

# Testcase cp_rd (Test destination rd = x9)
  RVTEST_TESTDATA_LOAD_INT(x25, x22) # load rs1: x22 = 0xd4c6fb1b
     634:	000cab03          	lw	x22,0(x25)
     638:	004c8c93          	addi	x25,x25,4

0000063c <I_xori_cg_cp_rd_b9>:
I_xori_cg_cp_rd_b9:
  xori x9, x22, -2037 # perform operation
     63c:	80bb4493          	xori	x9,x22,-2037
  # Check if x9 contains the expected result. x16 is the signature ptr, x14 is the link ptr, x13 is a temp reg.
  RVTEST_SIGUPD(x16, x14, x13, x9, I_xori_cg_cp_rd_b9, I_xori_cg_cp_rd_b9_str)
     640:	00082683          	lw	x13,0(x16)
     644:	00968863          	beq	x13,x9,654 <I_xori_cg_cp_rd_b9+0x18>
     648:	6b50276f          	jal	x14,34fc <failedtest_x14_x13>
     64c:	0000063c          	.word	0x0000063c
     650:	00008e5b          	.word	0x00008e5b
     654:	00480813          	addi	x16,x16,4

# Testcase cp_rd (Test destination rd = x10)
  RVTEST_TESTDATA_LOAD_INT(x25, x6) # load rs1: x6 = 0xe81a64e6
     658:	000ca303          	lw	x6,0(x25)
     65c:	004c8c93          	addi	x25,x25,4

00000660 <I_xori_cg_cp_rd_b10>:
I_xori_cg_cp_rd_b10:
  xori x10, x6, -987 # perform operation
     660:	c2534513          	xori	x10,x6,-987
  # Check if x10 contains the expected result. x16 is the signature ptr, x14 is the link ptr, x13 is a temp reg.
  RVTEST_SIGUPD(x16, x14, x13, x10, I_xori_cg_cp_rd_b10, I_xori_cg_cp_rd_b10_str)
     664:	00082683          	lw	x13,0(x16)
     668:	00a68863          	beq	x13,x10,678 <I_xori_cg_cp_rd_b10+0x18>
     66c:	6910276f          	jal	x14,34fc <failedtest_x14_x13>
     670:	00000660          	.word	0x00000660
     674:	00008e89          	.word	0x00008e89
     678:	00480813          	addi	x16,x16,4

# Testcase cp_rd (Test destination rd = x11)
  RVTEST_TESTDATA_LOAD_INT(x25, x12) # load rs1: x12 = 0x335c8efb
     67c:	000ca603          	lw	x12,0(x25)
     680:	004c8c93          	addi	x25,x25,4

00000684 <I_xori_cg_cp_rd_b11>:
I_xori_cg_cp_rd_b11:
  xori x11, x12, -1279 # perform operation
     684:	b0164593          	xori	x11,x12,-1279
  # Check if x11 contains the expected result. x16 is the signature ptr, x14 is the link ptr, x13 is a temp reg.
  RVTEST_SIGUPD(x16, x14, x13, x11, I_xori_cg_cp_rd_b11, I_xori_cg_cp_rd_b11_str)
     688:	00082683          	lw	x13,0(x16)
     68c:	00b68863          	beq	x13,x11,69c <I_xori_cg_cp_rd_b11+0x18>
     690:	66d0276f          	jal	x14,34fc <failedtest_x14_x13>
     694:	00000684          	.word	0x00000684
     698:	00008eb8          	.word	0x00008eb8
     69c:	00480813          	addi	x16,x16,4

# Testcase cp_rd (Test destination rd = x12)
  RVTEST_TESTDATA_LOAD_INT(x25, x26) # load rs1: x26 = 0xb5721fe0
     6a0:	000cad03          	lw	x26,0(x25)
     6a4:	004c8c93          	addi	x25,x25,4

000006a8 <I_xori_cg_cp_rd_b12>:
I_xori_cg_cp_rd_b12:
  xori x12, x26, 854 # perform operation
     6a8:	356d4613          	xori	x12,x26,854
  # Check if x12 contains the expected result. x16 is the signature ptr, x14 is the link ptr, x13 is a temp reg.
  RVTEST_SIGUPD(x16, x14, x13, x12, I_xori_cg_cp_rd_b12, I_xori_cg_cp_rd_b12_str)
     6ac:	00082683          	lw	x13,0(x16)
     6b0:	00c68863          	beq	x13,x12,6c0 <I_xori_cg_cp_rd_b12+0x18>
     6b4:	6490276f          	jal	x14,34fc <failedtest_x14_x13>
     6b8:	000006a8          	.word	0x000006a8
     6bc:	00008ee7          	.word	0x00008ee7
     6c0:	00480813          	addi	x16,x16,4

  mv x4, x13 # switch temp register to avoid conflict with test
     6c4:	00068213          	addi	x4,x13,0
  mv x5, x14 # switch link pointer register to avoid conflict with test
     6c8:	00070293          	addi	x5,x14,0
# Testcase cp_rd (Test destination rd = x13)
  RVTEST_TESTDATA_LOAD_INT(x25, x29) # load rs1: x29 = 0x1871dd8d
     6cc:	000cae83          	lw	x29,0(x25)
     6d0:	004c8c93          	addi	x25,x25,4

000006d4 <I_xori_cg_cp_rd_b13>:
I_xori_cg_cp_rd_b13:
  xori x13, x29, 1574 # perform operation
     6d4:	626ec693          	xori	x13,x29,1574
  # Check if x13 contains the expected result. x16 is the signature ptr, x5 is the link ptr, x4 is a temp reg.
  RVTEST_SIGUPD(x16, x5, x4, x13, I_xori_cg_cp_rd_b13, I_xori_cg_cp_rd_b13_str)
     6d8:	00082203          	lw	x4,0(x16)
     6dc:	00d20863          	beq	x4,x13,6ec <I_xori_cg_cp_rd_b13+0x18>
     6e0:	5dd022ef          	jal	x5,34bc <failedtest_x5_x4>
     6e4:	000006d4          	.word	0x000006d4
     6e8:	00008f16          	.word	0x00008f16
     6ec:	00480813          	addi	x16,x16,4

# Testcase cp_rd (Test destination rd = x14)
  RVTEST_TESTDATA_LOAD_INT(x25, x9) # load rs1: x9 = 0x4528ec7e
     6f0:	000ca483          	lw	x9,0(x25)
     6f4:	004c8c93          	addi	x25,x25,4

000006f8 <I_xori_cg_cp_rd_b14>:
I_xori_cg_cp_rd_b14:
  xori x14, x9, 1296 # perform operation
     6f8:	5104c713          	xori	x14,x9,1296
  # Check if x14 contains the expected result. x16 is the signature ptr, x5 is the link ptr, x4 is a temp reg.
  RVTEST_SIGUPD(x16, x5, x4, x14, I_xori_cg_cp_rd_b14, I_xori_cg_cp_rd_b14_str)
     6fc:	00082203          	lw	x4,0(x16)
     700:	00e20863          	beq	x4,x14,710 <I_xori_cg_cp_rd_b14+0x18>
     704:	5b9022ef          	jal	x5,34bc <failedtest_x5_x4>
     708:	000006f8          	.word	0x000006f8
     70c:	00008f45          	.word	0x00008f45
     710:	00480813          	addi	x16,x16,4

# Testcase cp_rd (Test destination rd = x15)
  RVTEST_TESTDATA_LOAD_INT(x25, x28) # load rs1: x28 = 0x6094cb2d
     714:	000cae03          	lw	x28,0(x25)
     718:	004c8c93          	addi	x25,x25,4

0000071c <I_xori_cg_cp_rd_b15>:
I_xori_cg_cp_rd_b15:
  xori x15, x28, 1869 # perform operation
     71c:	74de4793          	xori	x15,x28,1869
  # Check if x15 contains the expected result. x16 is the signature ptr, x5 is the link ptr, x4 is a temp reg.
  RVTEST_SIGUPD(x16, x5, x4, x15, I_xori_cg_cp_rd_b15, I_xori_cg_cp_rd_b15_str)
     720:	00082203          	lw	x4,0(x16)
     724:	00f20863          	beq	x4,x15,734 <I_xori_cg_cp_rd_b15+0x18>
     728:	595022ef          	jal	x5,34bc <failedtest_x5_x4>
     72c:	0000071c          	.word	0x0000071c
     730:	00008f74          	.word	0x00008f74
     734:	00480813          	addi	x16,x16,4

  mv x12, x16 # switch signature pointer register to avoid conflict with test
     738:	00080613          	addi	x12,x16,0
# Testcase cp_rd (Test destination rd = x16)
  RVTEST_TESTDATA_LOAD_INT(x25, x7) # load rs1: x7 = 0xc750f40f
     73c:	000ca383          	lw	x7,0(x25)
     740:	004c8c93          	addi	x25,x25,4

00000744 <I_xori_cg_cp_rd_b16>:
I_xori_cg_cp_rd_b16:
  xori x16, x7, 1754 # perform operation
     744:	6da3c813          	xori	x16,x7,1754
  # Check if x16 contains the expected result. x12 is the signature ptr, x5 is the link ptr, x4 is a temp reg.
  RVTEST_SIGUPD(x12, x5, x4, x16, I_xori_cg_cp_rd_b16, I_xori_cg_cp_rd_b16_str)
     748:	00062203          	lw	x4,0(x12)
     74c:	01020863          	beq	x4,x16,75c <I_xori_cg_cp_rd_b16+0x18>
     750:	56d022ef          	jal	x5,34bc <failedtest_x5_x4>
     754:	00000744          	.word	0x00000744
     758:	00008fa3          	.word	0x00008fa3
     75c:	00460613          	addi	x12,x12,4

# Testcase cp_rd (Test destination rd = x17)
  RVTEST_TESTDATA_LOAD_INT(x25, x31) # load rs1: x31 = 0x6782d82c
     760:	000caf83          	lw	x31,0(x25)
     764:	004c8c93          	addi	x25,x25,4

00000768 <I_xori_cg_cp_rd_b17>:
I_xori_cg_cp_rd_b17:
  xori x17, x31, -238 # perform operation
     768:	f12fc893          	xori	x17,x31,-238
  # Check if x17 contains the expected result. x12 is the signature ptr, x5 is the link ptr, x4 is a temp reg.
  RVTEST_SIGUPD(x12, x5, x4, x17, I_xori_cg_cp_rd_b17, I_xori_cg_cp_rd_b17_str)
     76c:	00062203          	lw	x4,0(x12)
     770:	01120863          	beq	x4,x17,780 <I_xori_cg_cp_rd_b17+0x18>
     774:	549022ef          	jal	x5,34bc <failedtest_x5_x4>
     778:	00000768          	.word	0x00000768
     77c:	00008fd2          	.word	0x00008fd2
     780:	00460613          	addi	x12,x12,4

# Testcase cp_rd (Test destination rd = x18)
  RVTEST_TESTDATA_LOAD_INT(x25, x21) # load rs1: x21 = 0x48986100
     784:	000caa83          	lw	x21,0(x25)
     788:	004c8c93          	addi	x25,x25,4

0000078c <I_xori_cg_cp_rd_b18>:
I_xori_cg_cp_rd_b18:
  xori x18, x21, -573 # perform operation
     78c:	dc3ac913          	xori	x18,x21,-573
  # Check if x18 contains the expected result. x12 is the signature ptr, x5 is the link ptr, x4 is a temp reg.
  RVTEST_SIGUPD(x12, x5, x4, x18, I_xori_cg_cp_rd_b18, I_xori_cg_cp_rd_b18_str)
     790:	00062203          	lw	x4,0(x12)
     794:	01220863          	beq	x4,x18,7a4 <I_xori_cg_cp_rd_b18+0x18>
     798:	525022ef          	jal	x5,34bc <failedtest_x5_x4>
     79c:	0000078c          	.word	0x0000078c
     7a0:	00009001          	.word	0x00009001
     7a4:	00460613          	addi	x12,x12,4

# Testcase cp_rd (Test destination rd = x19)
  RVTEST_TESTDATA_LOAD_INT(x25, x27) # load rs1: x27 = 0x9163f42f
     7a8:	000cad83          	lw	x27,0(x25)
     7ac:	004c8c93          	addi	x25,x25,4

000007b0 <I_xori_cg_cp_rd_b19>:
I_xori_cg_cp_rd_b19:
  xori x19, x27, 258 # perform operation
     7b0:	102dc993          	xori	x19,x27,258
  # Check if x19 contains the expected result. x12 is the signature ptr, x5 is the link ptr, x4 is a temp reg.
  RVTEST_SIGUPD(x12, x5, x4, x19, I_xori_cg_cp_rd_b19, I_xori_cg_cp_rd_b19_str)
     7b4:	00062203          	lw	x4,0(x12)
     7b8:	01320863          	beq	x4,x19,7c8 <I_xori_cg_cp_rd_b19+0x18>
     7bc:	501022ef          	jal	x5,34bc <failedtest_x5_x4>
     7c0:	000007b0          	.word	0x000007b0
     7c4:	00009030          	.word	0x00009030
     7c8:	00460613          	addi	x12,x12,4

# Testcase cp_rd (Test destination rd = x20)
  RVTEST_TESTDATA_LOAD_INT(x25, x30) # load rs1: x30 = 0xf5df1104
     7cc:	000caf03          	lw	x30,0(x25)
     7d0:	004c8c93          	addi	x25,x25,4

000007d4 <I_xori_cg_cp_rd_b20>:
I_xori_cg_cp_rd_b20:
  xori x20, x30, 1536 # perform operation
     7d4:	600f4a13          	xori	x20,x30,1536
  # Check if x20 contains the expected result. x12 is the signature ptr, x5 is the link ptr, x4 is a temp reg.
  RVTEST_SIGUPD(x12, x5, x4, x20, I_xori_cg_cp_rd_b20, I_xori_cg_cp_rd_b20_str)
     7d8:	00062203          	lw	x4,0(x12)
     7dc:	01420863          	beq	x4,x20,7ec <I_xori_cg_cp_rd_b20+0x18>
     7e0:	4dd022ef          	jal	x5,34bc <failedtest_x5_x4>
     7e4:	000007d4          	.word	0x000007d4
     7e8:	0000905f          	.word	0x0000905f
     7ec:	00460613          	addi	x12,x12,4

# Testcase cp_rd (Test destination rd = x21)
  RVTEST_TESTDATA_LOAD_INT(x25, x0) # load rs1: x0 = 0x9c1e59a3
     7f0:	000ca003          	lw	x0,0(x25)
     7f4:	004c8c93          	addi	x25,x25,4

000007f8 <I_xori_cg_cp_rd_b21>:
I_xori_cg_cp_rd_b21:
  xori x21, x0, 735 # perform operation
     7f8:	2df04a93          	xori	x21,x0,735
  # Check if x21 contains the expected result. x12 is the signature ptr, x5 is the link ptr, x4 is a temp reg.
  RVTEST_SIGUPD(x12, x5, x4, x21, I_xori_cg_cp_rd_b21, I_xori_cg_cp_rd_b21_str)
     7fc:	00062203          	lw	x4,0(x12)
     800:	01520863          	beq	x4,x21,810 <I_xori_cg_cp_rd_b21+0x18>
     804:	4b9022ef          	jal	x5,34bc <failedtest_x5_x4>
     808:	000007f8          	.word	0x000007f8
     80c:	0000908e          	.word	0x0000908e
     810:	00460613          	addi	x12,x12,4

# Testcase cp_rd (Test destination rd = x22)
  RVTEST_TESTDATA_LOAD_INT(x25, x13) # load rs1: x13 = 0x1deebb3d
     814:	000ca683          	lw	x13,0(x25)
     818:	004c8c93          	addi	x25,x25,4

0000081c <I_xori_cg_cp_rd_b22>:
I_xori_cg_cp_rd_b22:
  xori x22, x13, 291 # perform operation
     81c:	1236cb13          	xori	x22,x13,291
  # Check if x22 contains the expected result. x12 is the signature ptr, x5 is the link ptr, x4 is a temp reg.
  RVTEST_SIGUPD(x12, x5, x4, x22, I_xori_cg_cp_rd_b22, I_xori_cg_cp_rd_b22_str)
     820:	00062203          	lw	x4,0(x12)
     824:	01620863          	beq	x4,x22,834 <I_xori_cg_cp_rd_b22+0x18>
     828:	495022ef          	jal	x5,34bc <failedtest_x5_x4>
     82c:	0000081c          	.word	0x0000081c
     830:	000090bd          	.word	0x000090bd
     834:	00460613          	addi	x12,x12,4

# Testcase cp_rd (Test destination rd = x23)
  RVTEST_TESTDATA_LOAD_INT(x25, x27) # load rs1: x27 = 0x28f0496a
     838:	000cad83          	lw	x27,0(x25)
     83c:	004c8c93          	addi	x25,x25,4

00000840 <I_xori_cg_cp_rd_b23>:
I_xori_cg_cp_rd_b23:
  xori x23, x27, -142 # perform operation
     840:	f72dcb93          	xori	x23,x27,-142
  # Check if x23 contains the expected result. x12 is the signature ptr, x5 is the link ptr, x4 is a temp reg.
  RVTEST_SIGUPD(x12, x5, x4, x23, I_xori_cg_cp_rd_b23, I_xori_cg_cp_rd_b23_str)
     844:	00062203          	lw	x4,0(x12)
     848:	01720863          	beq	x4,x23,858 <I_xori_cg_cp_rd_b23+0x18>
     84c:	471022ef          	jal	x5,34bc <failedtest_x5_x4>
     850:	00000840          	.word	0x00000840
     854:	000090ec          	.word	0x000090ec
     858:	00460613          	addi	x12,x12,4

# Testcase cp_rd (Test destination rd = x24)
  RVTEST_TESTDATA_LOAD_INT(x25, x6) # load rs1: x6 = 0xf32beb89
     85c:	000ca303          	lw	x6,0(x25)
     860:	004c8c93          	addi	x25,x25,4

00000864 <I_xori_cg_cp_rd_b24>:
I_xori_cg_cp_rd_b24:
  xori x24, x6, -1699 # perform operation
     864:	95d34c13          	xori	x24,x6,-1699
  # Check if x24 contains the expected result. x12 is the signature ptr, x5 is the link ptr, x4 is a temp reg.
  RVTEST_SIGUPD(x12, x5, x4, x24, I_xori_cg_cp_rd_b24, I_xori_cg_cp_rd_b24_str)
     868:	00062203          	lw	x4,0(x12)
     86c:	01820863          	beq	x4,x24,87c <I_xori_cg_cp_rd_b24+0x18>
     870:	44d022ef          	jal	x5,34bc <failedtest_x5_x4>
     874:	00000864          	.word	0x00000864
     878:	0000911b          	.word	0x0000911b
     87c:	00460613          	addi	x12,x12,4

  mv x24, x25 # switch data pointer register to avoid conflict with test
     880:	000c8c13          	addi	x24,x25,0
# Testcase cp_rd (Test destination rd = x25)
  RVTEST_TESTDATA_LOAD_INT(x24, x14) # load rs1: x14 = 0x4f902be0
     884:	000c2703          	lw	x14,0(x24)
     888:	004c0c13          	addi	x24,x24,4

0000088c <I_xori_cg_cp_rd_b25>:
I_xori_cg_cp_rd_b25:
  xori x25, x14, -1074 # perform operation
     88c:	bce74c93          	xori	x25,x14,-1074
  # Check if x25 contains the expected result. x12 is the signature ptr, x5 is the link ptr, x4 is a temp reg.
  RVTEST_SIGUPD(x12, x5, x4, x25, I_xori_cg_cp_rd_b25, I_xori_cg_cp_rd_b25_str)
     890:	00062203          	lw	x4,0(x12)
     894:	01920863          	beq	x4,x25,8a4 <I_xori_cg_cp_rd_b25+0x18>
     898:	425022ef          	jal	x5,34bc <failedtest_x5_x4>
     89c:	0000088c          	.word	0x0000088c
     8a0:	0000914a          	.word	0x0000914a
     8a4:	00460613          	addi	x12,x12,4

# Testcase cp_rd (Test destination rd = x26)
  RVTEST_TESTDATA_LOAD_INT(x24, x8) # load rs1: x8 = 0x8bba8ea8
     8a8:	000c2403          	lw	x8,0(x24)
     8ac:	004c0c13          	addi	x24,x24,4

000008b0 <I_xori_cg_cp_rd_b26>:
I_xori_cg_cp_rd_b26:
  xori x26, x8, 1981 # perform operation
     8b0:	7bd44d13          	xori	x26,x8,1981
  # Check if x26 contains the expected result. x12 is the signature ptr, x5 is the link ptr, x4 is a temp reg.
  RVTEST_SIGUPD(x12, x5, x4, x26, I_xori_cg_cp_rd_b26, I_xori_cg_cp_rd_b26_str)
     8b4:	00062203          	lw	x4,0(x12)
     8b8:	01a20863          	beq	x4,x26,8c8 <I_xori_cg_cp_rd_b26+0x18>
     8bc:	401022ef          	jal	x5,34bc <failedtest_x5_x4>
     8c0:	000008b0          	.word	0x000008b0
     8c4:	00009179          	.word	0x00009179
     8c8:	00460613          	addi	x12,x12,4

# Testcase cp_rd (Test destination rd = x27)
  RVTEST_TESTDATA_LOAD_INT(x24, x18) # load rs1: x18 = 0x904148d7
     8cc:	000c2903          	lw	x18,0(x24)
     8d0:	004c0c13          	addi	x24,x24,4

000008d4 <I_xori_cg_cp_rd_b27>:
I_xori_cg_cp_rd_b27:
  xori x27, x18, -1503 # perform operation
     8d4:	a2194d93          	xori	x27,x18,-1503
  # Check if x27 contains the expected result. x12 is the signature ptr, x5 is the link ptr, x4 is a temp reg.
  RVTEST_SIGUPD(x12, x5, x4, x27, I_xori_cg_cp_rd_b27, I_xori_cg_cp_rd_b27_str)
     8d8:	00062203          	lw	x4,0(x12)
     8dc:	01b20863          	beq	x4,x27,8ec <I_xori_cg_cp_rd_b27+0x18>
     8e0:	3dd022ef          	jal	x5,34bc <failedtest_x5_x4>
     8e4:	000008d4          	.word	0x000008d4
     8e8:	000091a8          	.word	0x000091a8
     8ec:	00460613          	addi	x12,x12,4

# Testcase cp_rd (Test destination rd = x28)
  RVTEST_TESTDATA_LOAD_INT(x24, x8) # load rs1: x8 = 0x7a6fa4be
     8f0:	000c2403          	lw	x8,0(x24)
     8f4:	004c0c13          	addi	x24,x24,4

000008f8 <I_xori_cg_cp_rd_b28>:
I_xori_cg_cp_rd_b28:
  xori x28, x8, -259 # perform operation
     8f8:	efd44e13          	xori	x28,x8,-259
  # Check if x28 contains the expected result. x12 is the signature ptr, x5 is the link ptr, x4 is a temp reg.
  RVTEST_SIGUPD(x12, x5, x4, x28, I_xori_cg_cp_rd_b28, I_xori_cg_cp_rd_b28_str)
     8fc:	00062203          	lw	x4,0(x12)
     900:	01c20863          	beq	x4,x28,910 <I_xori_cg_cp_rd_b28+0x18>
     904:	3b9022ef          	jal	x5,34bc <failedtest_x5_x4>
     908:	000008f8          	.word	0x000008f8
     90c:	000091d7          	.word	0x000091d7
     910:	00460613          	addi	x12,x12,4

# Testcase cp_rd (Test destination rd = x29)
  RVTEST_TESTDATA_LOAD_INT(x24, x0) # load rs1: x0 = 0x8d14f147
     914:	000c2003          	lw	x0,0(x24)
     918:	004c0c13          	addi	x24,x24,4

0000091c <I_xori_cg_cp_rd_b29>:
I_xori_cg_cp_rd_b29:
  xori x29, x0, -1316 # perform operation
     91c:	adc04e93          	xori	x29,x0,-1316
  # Check if x29 contains the expected result. x12 is the signature ptr, x5 is the link ptr, x4 is a temp reg.
  RVTEST_SIGUPD(x12, x5, x4, x29, I_xori_cg_cp_rd_b29, I_xori_cg_cp_rd_b29_str)
     920:	00062203          	lw	x4,0(x12)
     924:	01d20863          	beq	x4,x29,934 <I_xori_cg_cp_rd_b29+0x18>
     928:	395022ef          	jal	x5,34bc <failedtest_x5_x4>
     92c:	0000091c          	.word	0x0000091c
     930:	00009206          	.word	0x00009206
     934:	00460613          	addi	x12,x12,4

# Testcase cp_rd (Test destination rd = x30)
  RVTEST_TESTDATA_LOAD_INT(x24, x19) # load rs1: x19 = 0x00fbc76d
     938:	000c2983          	lw	x19,0(x24)
     93c:	004c0c13          	addi	x24,x24,4

00000940 <I_xori_cg_cp_rd_b30>:
I_xori_cg_cp_rd_b30:
  xori x30, x19, 469 # perform operation
     940:	1d59cf13          	xori	x30,x19,469
  # Check if x30 contains the expected result. x12 is the signature ptr, x5 is the link ptr, x4 is a temp reg.
  RVTEST_SIGUPD(x12, x5, x4, x30, I_xori_cg_cp_rd_b30, I_xori_cg_cp_rd_b30_str)
     944:	00062203          	lw	x4,0(x12)
     948:	01e20863          	beq	x4,x30,958 <I_xori_cg_cp_rd_b30+0x18>
     94c:	371022ef          	jal	x5,34bc <failedtest_x5_x4>
     950:	00000940          	.word	0x00000940
     954:	00009235          	.word	0x00009235
     958:	00460613          	addi	x12,x12,4

# Testcase cp_rd (Test destination rd = x31)
  RVTEST_TESTDATA_LOAD_INT(x24, x2) # load rs1: x2 = 0xa0ee7b65
     95c:	000c2103          	lw	x2,0(x24)
     960:	004c0c13          	addi	x24,x24,4

00000964 <I_xori_cg_cp_rd_b31>:
I_xori_cg_cp_rd_b31:
  xori x31, x2, 1802 # perform operation
     964:	70a14f93          	xori	x31,x2,1802
  # Check if x31 contains the expected result. x12 is the signature ptr, x5 is the link ptr, x4 is a temp reg.
  RVTEST_SIGUPD(x12, x5, x4, x31, I_xori_cg_cp_rd_b31, I_xori_cg_cp_rd_b31_str)
     968:	00062203          	lw	x4,0(x12)
     96c:	01f20863          	beq	x4,x31,97c <I_xori_cg_cp_rd_b31+0x18>
     970:	34d022ef          	jal	x5,34bc <failedtest_x5_x4>
     974:	00000964          	.word	0x00000964
     978:	00009264          	.word	0x00009264
     97c:	00460613          	addi	x12,x12,4
/////////////////////////////////
// cp_rs1_edges
/////////////////////////////////

# Testcase cp_rs1_edges (Test source rs1 value = 0x00000000)
  RVTEST_TESTDATA_LOAD_INT(x24, x10) # load rs1: x10 = 0x00000000
     980:	000c2503          	lw	x10,0(x24)
     984:	004c0c13          	addi	x24,x24,4

00000988 <I_xori_cg_cp_rs1_edges_0x0>:
I_xori_cg_cp_rs1_edges_0x0:
  xori x21, x10, 1631 # perform operation
     988:	65f54a93          	xori	x21,x10,1631
  # Check if x21 contains the expected result. x12 is the signature ptr, x5 is the link ptr, x4 is a temp reg.
  RVTEST_SIGUPD(x12, x5, x4, x21, I_xori_cg_cp_rs1_edges_0x0, I_xori_cg_cp_rs1_edges_0x0_str)
     98c:	00062203          	lw	x4,0(x12)
     990:	01520863          	beq	x4,x21,9a0 <I_xori_cg_cp_rs1_edges_0x0+0x18>
     994:	329022ef          	jal	x5,34bc <failedtest_x5_x4>
     998:	00000988          	.word	0x00000988
     99c:	00009293          	.word	0x00009293
     9a0:	00460613          	addi	x12,x12,4

# Testcase cp_rs1_edges (Test source rs1 value = 0x00000001)
  RVTEST_TESTDATA_LOAD_INT(x24, x21) # load rs1: x21 = 0x00000001
     9a4:	000c2a83          	lw	x21,0(x24)
     9a8:	004c0c13          	addi	x24,x24,4

000009ac <I_xori_cg_cp_rs1_edges_0x1>:
I_xori_cg_cp_rs1_edges_0x1:
  xori x9, x21, 390 # perform operation
     9ac:	186ac493          	xori	x9,x21,390
  # Check if x9 contains the expected result. x12 is the signature ptr, x5 is the link ptr, x4 is a temp reg.
  RVTEST_SIGUPD(x12, x5, x4, x9, I_xori_cg_cp_rs1_edges_0x1, I_xori_cg_cp_rs1_edges_0x1_str)
     9b0:	00062203          	lw	x4,0(x12)
     9b4:	00920863          	beq	x4,x9,9c4 <I_xori_cg_cp_rs1_edges_0x1+0x18>
     9b8:	305022ef          	jal	x5,34bc <failedtest_x5_x4>
     9bc:	000009ac          	.word	0x000009ac
     9c0:	000092c9          	.word	0x000092c9
     9c4:	00460613          	addi	x12,x12,4

# Testcase cp_rs1_edges (Test source rs1 value = 0x00000002)
  RVTEST_TESTDATA_LOAD_INT(x24, x7) # load rs1: x7 = 0x00000002
     9c8:	000c2383          	lw	x7,0(x24)
     9cc:	004c0c13          	addi	x24,x24,4

000009d0 <I_xori_cg_cp_rs1_edges_0x2>:
I_xori_cg_cp_rs1_edges_0x2:
  xori x28, x7, 382 # perform operation
     9d0:	17e3ce13          	xori	x28,x7,382
  # Check if x28 contains the expected result. x12 is the signature ptr, x5 is the link ptr, x4 is a temp reg.
  RVTEST_SIGUPD(x12, x5, x4, x28, I_xori_cg_cp_rs1_edges_0x2, I_xori_cg_cp_rs1_edges_0x2_str)
     9d4:	00062203          	lw	x4,0(x12)
     9d8:	01c20863          	beq	x4,x28,9e8 <I_xori_cg_cp_rs1_edges_0x2+0x18>
     9dc:	2e1022ef          	jal	x5,34bc <failedtest_x5_x4>
     9e0:	000009d0          	.word	0x000009d0
     9e4:	000092ff          	.word	0x000092ff
     9e8:	00460613          	addi	x12,x12,4

# Testcase cp_rs1_edges (Test source rs1 value = 0x80000000)
  RVTEST_TESTDATA_LOAD_INT(x24, x19) # load rs1: x19 = 0x80000000
     9ec:	000c2983          	lw	x19,0(x24)
     9f0:	004c0c13          	addi	x24,x24,4

000009f4 <I_xori_cg_cp_rs1_edges_0x80000000>:
I_xori_cg_cp_rs1_edges_0x80000000:
  xori x30, x19, 1671 # perform operation
     9f4:	6879cf13          	xori	x30,x19,1671
  # Check if x30 contains the expected result. x12 is the signature ptr, x5 is the link ptr, x4 is a temp reg.
  RVTEST_SIGUPD(x12, x5, x4, x30, I_xori_cg_cp_rs1_edges_0x80000000, I_xori_cg_cp_rs1_edges_0x80000000_str)
     9f8:	00062203          	lw	x4,0(x12)
     9fc:	01e20863          	beq	x4,x30,a0c <I_xori_cg_cp_rs1_edges_0x80000000+0x18>
     a00:	2bd022ef          	jal	x5,34bc <failedtest_x5_x4>
     a04:	000009f4          	.word	0x000009f4
     a08:	00009335          	.word	0x00009335
     a0c:	00460613          	addi	x12,x12,4

# Testcase cp_rs1_edges (Test source rs1 value = 0x80000001)
  RVTEST_TESTDATA_LOAD_INT(x24, x17) # load rs1: x17 = 0x80000001
     a10:	000c2883          	lw	x17,0(x24)
     a14:	004c0c13          	addi	x24,x24,4

00000a18 <I_xori_cg_cp_rs1_edges_0x80000001>:
I_xori_cg_cp_rs1_edges_0x80000001:
  xori x20, x17, 1674 # perform operation
     a18:	68a8ca13          	xori	x20,x17,1674
  # Check if x20 contains the expected result. x12 is the signature ptr, x5 is the link ptr, x4 is a temp reg.
  RVTEST_SIGUPD(x12, x5, x4, x20, I_xori_cg_cp_rs1_edges_0x80000001, I_xori_cg_cp_rs1_edges_0x80000001_str)
     a1c:	00062203          	lw	x4,0(x12)
     a20:	01420863          	beq	x4,x20,a30 <I_xori_cg_cp_rs1_edges_0x80000001+0x18>
     a24:	299022ef          	jal	x5,34bc <failedtest_x5_x4>
     a28:	00000a18          	.word	0x00000a18
     a2c:	00009372          	.word	0x00009372
     a30:	00460613          	addi	x12,x12,4

# Testcase cp_rs1_edges (Test source rs1 value = 0x7fffffff)
  RVTEST_TESTDATA_LOAD_INT(x24, x16) # load rs1: x16 = 0x7fffffff
     a34:	000c2803          	lw	x16,0(x24)
     a38:	004c0c13          	addi	x24,x24,4

00000a3c <I_xori_cg_cp_rs1_edges_0x7fffffff>:
I_xori_cg_cp_rs1_edges_0x7fffffff:
  xori x22, x16, -1022 # perform operation
     a3c:	c0284b13          	xori	x22,x16,-1022
  # Check if x22 contains the expected result. x12 is the signature ptr, x5 is the link ptr, x4 is a temp reg.
  RVTEST_SIGUPD(x12, x5, x4, x22, I_xori_cg_cp_rs1_edges_0x7fffffff, I_xori_cg_cp_rs1_edges_0x7fffffff_str)
     a40:	00062203          	lw	x4,0(x12)
     a44:	01620863          	beq	x4,x22,a54 <I_xori_cg_cp_rs1_edges_0x7fffffff+0x18>
     a48:	275022ef          	jal	x5,34bc <failedtest_x5_x4>
     a4c:	00000a3c          	.word	0x00000a3c
     a50:	000093af          	.word	0x000093af
     a54:	00460613          	addi	x12,x12,4

# Testcase cp_rs1_edges (Test source rs1 value = 0x7ffffffe)
  RVTEST_TESTDATA_LOAD_INT(x24, x19) # load rs1: x19 = 0x7ffffffe
     a58:	000c2983          	lw	x19,0(x24)
     a5c:	004c0c13          	addi	x24,x24,4

00000a60 <I_xori_cg_cp_rs1_edges_0x7ffffffe>:
I_xori_cg_cp_rs1_edges_0x7ffffffe:
  xori x1, x19, -735 # perform operation
     a60:	d219c093          	xori	x1,x19,-735
  # Check if x1 contains the expected result. x12 is the signature ptr, x5 is the link ptr, x4 is a temp reg.
  RVTEST_SIGUPD(x12, x5, x4, x1, I_xori_cg_cp_rs1_edges_0x7ffffffe, I_xori_cg_cp_rs1_edges_0x7ffffffe_str)
     a64:	00062203          	lw	x4,0(x12)
     a68:	00120863          	beq	x4,x1,a78 <I_xori_cg_cp_rs1_edges_0x7ffffffe+0x18>
     a6c:	251022ef          	jal	x5,34bc <failedtest_x5_x4>
     a70:	00000a60          	.word	0x00000a60
     a74:	000093ec          	.word	0x000093ec
     a78:	00460613          	addi	x12,x12,4

# Testcase cp_rs1_edges (Test source rs1 value = 0xffffffff)
  RVTEST_TESTDATA_LOAD_INT(x24, x21) # load rs1: x21 = 0xffffffff
     a7c:	000c2a83          	lw	x21,0(x24)
     a80:	004c0c13          	addi	x24,x24,4

00000a84 <I_xori_cg_cp_rs1_edges_0xffffffff>:
I_xori_cg_cp_rs1_edges_0xffffffff:
  xori x14, x21, 1976 # perform operation
     a84:	7b8ac713          	xori	x14,x21,1976
  # Check if x14 contains the expected result. x12 is the signature ptr, x5 is the link ptr, x4 is a temp reg.
  RVTEST_SIGUPD(x12, x5, x4, x14, I_xori_cg_cp_rs1_edges_0xffffffff, I_xori_cg_cp_rs1_edges_0xffffffff_str)
     a88:	00062203          	lw	x4,0(x12)
     a8c:	00e20863          	beq	x4,x14,a9c <I_xori_cg_cp_rs1_edges_0xffffffff+0x18>
     a90:	22d022ef          	jal	x5,34bc <failedtest_x5_x4>
     a94:	00000a84          	.word	0x00000a84
     a98:	00009429          	.word	0x00009429
     a9c:	00460613          	addi	x12,x12,4

# Testcase cp_rs1_edges (Test source rs1 value = 0xfffffffe)
  RVTEST_TESTDATA_LOAD_INT(x24, x18) # load rs1: x18 = 0xfffffffe
     aa0:	000c2903          	lw	x18,0(x24)
     aa4:	004c0c13          	addi	x24,x24,4

00000aa8 <I_xori_cg_cp_rs1_edges_0xfffffffe>:
I_xori_cg_cp_rs1_edges_0xfffffffe:
  xori x15, x18, 1486 # perform operation
     aa8:	5ce94793          	xori	x15,x18,1486
  # Check if x15 contains the expected result. x12 is the signature ptr, x5 is the link ptr, x4 is a temp reg.
  RVTEST_SIGUPD(x12, x5, x4, x15, I_xori_cg_cp_rs1_edges_0xfffffffe, I_xori_cg_cp_rs1_edges_0xfffffffe_str)
     aac:	00062203          	lw	x4,0(x12)
     ab0:	00f20863          	beq	x4,x15,ac0 <I_xori_cg_cp_rs1_edges_0xfffffffe+0x18>
     ab4:	209022ef          	jal	x5,34bc <failedtest_x5_x4>
     ab8:	00000aa8          	.word	0x00000aa8
     abc:	00009466          	.word	0x00009466
     ac0:	00460613          	addi	x12,x12,4

# Testcase cp_rs1_edges (Test source rs1 value = 0x5bbc8872)
  RVTEST_TESTDATA_LOAD_INT(x24, x30) # load rs1: x30 = 0x5bbc8872
     ac4:	000c2f03          	lw	x30,0(x24)
     ac8:	004c0c13          	addi	x24,x24,4

00000acc <I_xori_cg_cp_rs1_edges_0x5bbc8872>:
I_xori_cg_cp_rs1_edges_0x5bbc8872:
  xori x1, x30, -904 # perform operation
     acc:	c78f4093          	xori	x1,x30,-904
  # Check if x1 contains the expected result. x12 is the signature ptr, x5 is the link ptr, x4 is a temp reg.
  RVTEST_SIGUPD(x12, x5, x4, x1, I_xori_cg_cp_rs1_edges_0x5bbc8872, I_xori_cg_cp_rs1_edges_0x5bbc8872_str)
     ad0:	00062203          	lw	x4,0(x12)
     ad4:	00120863          	beq	x4,x1,ae4 <I_xori_cg_cp_rs1_edges_0x5bbc8872+0x18>
     ad8:	1e5022ef          	jal	x5,34bc <failedtest_x5_x4>
     adc:	00000acc          	.word	0x00000acc
     ae0:	000094a3          	.word	0x000094a3
     ae4:	00460613          	addi	x12,x12,4

# Testcase cp_rs1_edges (Test source rs1 value = 0xaaaaaaaa)
  RVTEST_TESTDATA_LOAD_INT(x24, x28) # load rs1: x28 = 0xaaaaaaaa
     ae8:	000c2e03          	lw	x28,0(x24)
     aec:	004c0c13          	addi	x24,x24,4

00000af0 <I_xori_cg_cp_rs1_edges_0xaaaaaaaa>:
I_xori_cg_cp_rs1_edges_0xaaaaaaaa:
  xori x16, x28, -1318 # perform operation
     af0:	adae4813          	xori	x16,x28,-1318
  # Check if x16 contains the expected result. x12 is the signature ptr, x5 is the link ptr, x4 is a temp reg.
  RVTEST_SIGUPD(x12, x5, x4, x16, I_xori_cg_cp_rs1_edges_0xaaaaaaaa, I_xori_cg_cp_rs1_edges_0xaaaaaaaa_str)
     af4:	00062203          	lw	x4,0(x12)
     af8:	01020863          	beq	x4,x16,b08 <I_xori_cg_cp_rs1_edges_0xaaaaaaaa+0x18>
     afc:	1c1022ef          	jal	x5,34bc <failedtest_x5_x4>
     b00:	00000af0          	.word	0x00000af0
     b04:	000094e0          	.word	0x000094e0
     b08:	00460613          	addi	x12,x12,4

# Testcase cp_rs1_edges (Test source rs1 value = 0x55555555)
  RVTEST_TESTDATA_LOAD_INT(x24, x27) # load rs1: x27 = 0x55555555
     b0c:	000c2d83          	lw	x27,0(x24)
     b10:	004c0c13          	addi	x24,x24,4

00000b14 <I_xori_cg_cp_rs1_edges_0x55555555>:
I_xori_cg_cp_rs1_edges_0x55555555:
  xori x22, x27, -1710 # perform operation
     b14:	952dcb13          	xori	x22,x27,-1710
  # Check if x22 contains the expected result. x12 is the signature ptr, x5 is the link ptr, x4 is a temp reg.
  RVTEST_SIGUPD(x12, x5, x4, x22, I_xori_cg_cp_rs1_edges_0x55555555, I_xori_cg_cp_rs1_edges_0x55555555_str)
     b18:	00062203          	lw	x4,0(x12)
     b1c:	01620863          	beq	x4,x22,b2c <I_xori_cg_cp_rs1_edges_0x55555555+0x18>
     b20:	19d022ef          	jal	x5,34bc <failedtest_x5_x4>
     b24:	00000b14          	.word	0x00000b14
     b28:	0000951d          	.word	0x0000951d
     b2c:	00460613          	addi	x12,x12,4
/////////////////////////////////
// cr_rs1_imm_edges
/////////////////////////////////

# Testcase cr_rs1_imm_edges (rs1 = 0x00000000, imm = 0)
  RVTEST_TESTDATA_LOAD_INT(x24, x21) # load rs1: x21 = 0x00000000
     b30:	000c2a83          	lw	x21,0(x24)
     b34:	004c0c13          	addi	x24,x24,4

00000b38 <I_xori_cg_cr_rs1_imm_edges_rs1val_0x0_immval_0x0>:
I_xori_cg_cr_rs1_imm_edges_rs1val_0x0_immval_0x0:
  xori x15, x21, 0 # perform operation
     b38:	000ac793          	xori	x15,x21,0
  # Check if x15 contains the expected result. x12 is the signature ptr, x5 is the link ptr, x4 is a temp reg.
  RVTEST_SIGUPD(x12, x5, x4, x15, I_xori_cg_cr_rs1_imm_edges_rs1val_0x0_immval_0x0, I_xori_cg_cr_rs1_imm_edges_rs1val_0x0_immval_0x0_str)
     b3c:	00062203          	lw	x4,0(x12)
     b40:	00f20863          	beq	x4,x15,b50 <I_xori_cg_cr_rs1_imm_edges_rs1val_0x0_immval_0x0+0x18>
     b44:	179022ef          	jal	x5,34bc <failedtest_x5_x4>
     b48:	00000b38          	.word	0x00000b38
     b4c:	0000955a          	.word	0x0000955a
     b50:	00460613          	addi	x12,x12,4

# Testcase cr_rs1_imm_edges (rs1 = 0x00000000, imm = 1)
  RVTEST_TESTDATA_LOAD_INT(x24, x19) # load rs1: x19 = 0x00000000
     b54:	000c2983          	lw	x19,0(x24)
     b58:	004c0c13          	addi	x24,x24,4

00000b5c <I_xori_cg_cr_rs1_imm_edges_rs1val_0x0_immval_0x1>:
I_xori_cg_cr_rs1_imm_edges_rs1val_0x0_immval_0x1:
  xori x29, x19, 1 # perform operation
     b5c:	0019ce93          	xori	x29,x19,1
  # Check if x29 contains the expected result. x12 is the signature ptr, x5 is the link ptr, x4 is a temp reg.
  RVTEST_SIGUPD(x12, x5, x4, x29, I_xori_cg_cr_rs1_imm_edges_rs1val_0x0_immval_0x1, I_xori_cg_cr_rs1_imm_edges_rs1val_0x0_immval_0x1_str)
     b60:	00062203          	lw	x4,0(x12)
     b64:	01d20863          	beq	x4,x29,b74 <I_xori_cg_cr_rs1_imm_edges_rs1val_0x0_immval_0x1+0x18>
     b68:	155022ef          	jal	x5,34bc <failedtest_x5_x4>
     b6c:	00000b5c          	.word	0x00000b5c
     b70:	000095a7          	.word	0x000095a7
     b74:	00460613          	addi	x12,x12,4

# Testcase cr_rs1_imm_edges (rs1 = 0x00000000, imm = 2)
  RVTEST_TESTDATA_LOAD_INT(x24, x26) # load rs1: x26 = 0x00000000
     b78:	000c2d03          	lw	x26,0(x24)
     b7c:	004c0c13          	addi	x24,x24,4

00000b80 <I_xori_cg_cr_rs1_imm_edges_rs1val_0x0_immval_0x2>:
I_xori_cg_cr_rs1_imm_edges_rs1val_0x0_immval_0x2:
  xori x25, x26, 2 # perform operation
     b80:	002d4c93          	xori	x25,x26,2
  # Check if x25 contains the expected result. x12 is the signature ptr, x5 is the link ptr, x4 is a temp reg.
  RVTEST_SIGUPD(x12, x5, x4, x25, I_xori_cg_cr_rs1_imm_edges_rs1val_0x0_immval_0x2, I_xori_cg_cr_rs1_imm_edges_rs1val_0x0_immval_0x2_str)
     b84:	00062203          	lw	x4,0(x12)
     b88:	01920863          	beq	x4,x25,b98 <I_xori_cg_cr_rs1_imm_edges_rs1val_0x0_immval_0x2+0x18>
     b8c:	131022ef          	jal	x5,34bc <failedtest_x5_x4>
     b90:	00000b80          	.word	0x00000b80
     b94:	000095f4          	.word	0x000095f4
     b98:	00460613          	addi	x12,x12,4

# Testcase cr_rs1_imm_edges (rs1 = 0x00000000, imm = 3)
  RVTEST_TESTDATA_LOAD_INT(x24, x21) # load rs1: x21 = 0x00000000
     b9c:	000c2a83          	lw	x21,0(x24)
     ba0:	004c0c13          	addi	x24,x24,4

00000ba4 <I_xori_cg_cr_rs1_imm_edges_rs1val_0x0_immval_0x3>:
I_xori_cg_cr_rs1_imm_edges_rs1val_0x0_immval_0x3:
  xori x25, x21, 3 # perform operation
     ba4:	003acc93          	xori	x25,x21,3
  # Check if x25 contains the expected result. x12 is the signature ptr, x5 is the link ptr, x4 is a temp reg.
  RVTEST_SIGUPD(x12, x5, x4, x25, I_xori_cg_cr_rs1_imm_edges_rs1val_0x0_immval_0x3, I_xori_cg_cr_rs1_imm_edges_rs1val_0x0_immval_0x3_str)
     ba8:	00062203          	lw	x4,0(x12)
     bac:	01920863          	beq	x4,x25,bbc <I_xori_cg_cr_rs1_imm_edges_rs1val_0x0_immval_0x3+0x18>
     bb0:	10d022ef          	jal	x5,34bc <failedtest_x5_x4>
     bb4:	00000ba4          	.word	0x00000ba4
     bb8:	00009641          	.word	0x00009641
     bbc:	00460613          	addi	x12,x12,4

# Testcase cr_rs1_imm_edges (rs1 = 0x00000000, imm = 4)
  RVTEST_TESTDATA_LOAD_INT(x24, x28) # load rs1: x28 = 0x00000000
     bc0:	000c2e03          	lw	x28,0(x24)
     bc4:	004c0c13          	addi	x24,x24,4

00000bc8 <I_xori_cg_cr_rs1_imm_edges_rs1val_0x0_immval_0x4>:
I_xori_cg_cr_rs1_imm_edges_rs1val_0x0_immval_0x4:
  xori x16, x28, 4 # perform operation
     bc8:	004e4813          	xori	x16,x28,4
  # Check if x16 contains the expected result. x12 is the signature ptr, x5 is the link ptr, x4 is a temp reg.
  RVTEST_SIGUPD(x12, x5, x4, x16, I_xori_cg_cr_rs1_imm_edges_rs1val_0x0_immval_0x4, I_xori_cg_cr_rs1_imm_edges_rs1val_0x0_immval_0x4_str)
     bcc:	00062203          	lw	x4,0(x12)
     bd0:	01020863          	beq	x4,x16,be0 <I_xori_cg_cr_rs1_imm_edges_rs1val_0x0_immval_0x4+0x18>
     bd4:	0e9022ef          	jal	x5,34bc <failedtest_x5_x4>
     bd8:	00000bc8          	.word	0x00000bc8
     bdc:	0000968e          	.word	0x0000968e
     be0:	00460613          	addi	x12,x12,4

# Testcase cr_rs1_imm_edges (rs1 = 0x00000000, imm = 8)
  RVTEST_TESTDATA_LOAD_INT(x24, x22) # load rs1: x22 = 0x00000000
     be4:	000c2b03          	lw	x22,0(x24)
     be8:	004c0c13          	addi	x24,x24,4

00000bec <I_xori_cg_cr_rs1_imm_edges_rs1val_0x0_immval_0x8>:
I_xori_cg_cr_rs1_imm_edges_rs1val_0x0_immval_0x8:
  xori x25, x22, 8 # perform operation
     bec:	008b4c93          	xori	x25,x22,8
  # Check if x25 contains the expected result. x12 is the signature ptr, x5 is the link ptr, x4 is a temp reg.
  RVTEST_SIGUPD(x12, x5, x4, x25, I_xori_cg_cr_rs1_imm_edges_rs1val_0x0_immval_0x8, I_xori_cg_cr_rs1_imm_edges_rs1val_0x0_immval_0x8_str)
     bf0:	00062203          	lw	x4,0(x12)
     bf4:	01920863          	beq	x4,x25,c04 <I_xori_cg_cr_rs1_imm_edges_rs1val_0x0_immval_0x8+0x18>
     bf8:	0c5022ef          	jal	x5,34bc <failedtest_x5_x4>
     bfc:	00000bec          	.word	0x00000bec
     c00:	000096db          	.word	0x000096db
     c04:	00460613          	addi	x12,x12,4

# Testcase cr_rs1_imm_edges (rs1 = 0x00000000, imm = 16)
  RVTEST_TESTDATA_LOAD_INT(x24, x28) # load rs1: x28 = 0x00000000
     c08:	000c2e03          	lw	x28,0(x24)
     c0c:	004c0c13          	addi	x24,x24,4

00000c10 <I_xori_cg_cr_rs1_imm_edges_rs1val_0x0_immval_0x10>:
I_xori_cg_cr_rs1_imm_edges_rs1val_0x0_immval_0x10:
  xori x3, x28, 16 # perform operation
     c10:	010e4193          	xori	x3,x28,16
  # Check if x3 contains the expected result. x12 is the signature ptr, x5 is the link ptr, x4 is a temp reg.
  RVTEST_SIGUPD(x12, x5, x4, x3, I_xori_cg_cr_rs1_imm_edges_rs1val_0x0_immval_0x10, I_xori_cg_cr_rs1_imm_edges_rs1val_0x0_immval_0x10_str)
     c14:	00062203          	lw	x4,0(x12)
     c18:	00320863          	beq	x4,x3,c28 <I_xori_cg_cr_rs1_imm_edges_rs1val_0x0_immval_0x10+0x18>
     c1c:	0a1022ef          	jal	x5,34bc <failedtest_x5_x4>
     c20:	00000c10          	.word	0x00000c10
     c24:	00009728          	.word	0x00009728
     c28:	00460613          	addi	x12,x12,4

# Testcase cr_rs1_imm_edges (rs1 = 0x00000000, imm = 32)
  RVTEST_TESTDATA_LOAD_INT(x24, x17) # load rs1: x17 = 0x00000000
     c2c:	000c2883          	lw	x17,0(x24)
     c30:	004c0c13          	addi	x24,x24,4

00000c34 <I_xori_cg_cr_rs1_imm_edges_rs1val_0x0_immval_0x20>:
I_xori_cg_cr_rs1_imm_edges_rs1val_0x0_immval_0x20:
  xori x2, x17, 32 # perform operation
     c34:	0208c113          	xori	x2,x17,32
  # Check if x2 contains the expected result. x12 is the signature ptr, x5 is the link ptr, x4 is a temp reg.
  RVTEST_SIGUPD(x12, x5, x4, x2, I_xori_cg_cr_rs1_imm_edges_rs1val_0x0_immval_0x20, I_xori_cg_cr_rs1_imm_edges_rs1val_0x0_immval_0x20_str)
     c38:	00062203          	lw	x4,0(x12)
     c3c:	00220863          	beq	x4,x2,c4c <I_xori_cg_cr_rs1_imm_edges_rs1val_0x0_immval_0x20+0x18>
     c40:	07d022ef          	jal	x5,34bc <failedtest_x5_x4>
     c44:	00000c34          	.word	0x00000c34
     c48:	00009776          	.word	0x00009776
     c4c:	00460613          	addi	x12,x12,4

# Testcase cr_rs1_imm_edges (rs1 = 0x00000000, imm = 64)
  RVTEST_TESTDATA_LOAD_INT(x24, x16) # load rs1: x16 = 0x00000000
     c50:	000c2803          	lw	x16,0(x24)
     c54:	004c0c13          	addi	x24,x24,4

00000c58 <I_xori_cg_cr_rs1_imm_edges_rs1val_0x0_immval_0x40>:
I_xori_cg_cr_rs1_imm_edges_rs1val_0x0_immval_0x40:
  xori x15, x16, 64 # perform operation
     c58:	04084793          	xori	x15,x16,64
  # Check if x15 contains the expected result. x12 is the signature ptr, x5 is the link ptr, x4 is a temp reg.
  RVTEST_SIGUPD(x12, x5, x4, x15, I_xori_cg_cr_rs1_imm_edges_rs1val_0x0_immval_0x40, I_xori_cg_cr_rs1_imm_edges_rs1val_0x0_immval_0x40_str)
     c5c:	00062203          	lw	x4,0(x12)
     c60:	00f20863          	beq	x4,x15,c70 <I_xori_cg_cr_rs1_imm_edges_rs1val_0x0_immval_0x40+0x18>
     c64:	059022ef          	jal	x5,34bc <failedtest_x5_x4>
     c68:	00000c58          	.word	0x00000c58
     c6c:	000097c4          	.word	0x000097c4
     c70:	00460613          	addi	x12,x12,4

# Testcase cr_rs1_imm_edges (rs1 = 0x00000000, imm = 128)
  RVTEST_TESTDATA_LOAD_INT(x24, x30) # load rs1: x30 = 0x00000000
     c74:	000c2f03          	lw	x30,0(x24)
     c78:	004c0c13          	addi	x24,x24,4

00000c7c <I_xori_cg_cr_rs1_imm_edges_rs1val_0x0_immval_0x80>:
I_xori_cg_cr_rs1_imm_edges_rs1val_0x0_immval_0x80:
  xori x20, x30, 128 # perform operation
     c7c:	080f4a13          	xori	x20,x30,128
  # Check if x20 contains the expected result. x12 is the signature ptr, x5 is the link ptr, x4 is a temp reg.
  RVTEST_SIGUPD(x12, x5, x4, x20, I_xori_cg_cr_rs1_imm_edges_rs1val_0x0_immval_0x80, I_xori_cg_cr_rs1_imm_edges_rs1val_0x0_immval_0x80_str)
     c80:	00062203          	lw	x4,0(x12)
     c84:	01420863          	beq	x4,x20,c94 <I_xori_cg_cr_rs1_imm_edges_rs1val_0x0_immval_0x80+0x18>
     c88:	035022ef          	jal	x5,34bc <failedtest_x5_x4>
     c8c:	00000c7c          	.word	0x00000c7c
     c90:	00009812          	.word	0x00009812
     c94:	00460613          	addi	x12,x12,4

# Testcase cr_rs1_imm_edges (rs1 = 0x00000000, imm = 256)
  RVTEST_TESTDATA_LOAD_INT(x24, x29) # load rs1: x29 = 0x00000000
     c98:	000c2e83          	lw	x29,0(x24)
     c9c:	004c0c13          	addi	x24,x24,4

00000ca0 <I_xori_cg_cr_rs1_imm_edges_rs1val_0x0_immval_0x100>:
I_xori_cg_cr_rs1_imm_edges_rs1val_0x0_immval_0x100:
  xori x10, x29, 256 # perform operation
     ca0:	100ec513          	xori	x10,x29,256
  # Check if x10 contains the expected result. x12 is the signature ptr, x5 is the link ptr, x4 is a temp reg.
  RVTEST_SIGUPD(x12, x5, x4, x10, I_xori_cg_cr_rs1_imm_edges_rs1val_0x0_immval_0x100, I_xori_cg_cr_rs1_imm_edges_rs1val_0x0_immval_0x100_str)
     ca4:	00062203          	lw	x4,0(x12)
     ca8:	00a20863          	beq	x4,x10,cb8 <I_xori_cg_cr_rs1_imm_edges_rs1val_0x0_immval_0x100+0x18>
     cac:	011022ef          	jal	x5,34bc <failedtest_x5_x4>
     cb0:	00000ca0          	.word	0x00000ca0
     cb4:	00009860          	.word	0x00009860
     cb8:	00460613          	addi	x12,x12,4

# Testcase cr_rs1_imm_edges (rs1 = 0x00000000, imm = 512)
  RVTEST_TESTDATA_LOAD_INT(x24, x22) # load rs1: x22 = 0x00000000
     cbc:	000c2b03          	lw	x22,0(x24)
     cc0:	004c0c13          	addi	x24,x24,4

00000cc4 <I_xori_cg_cr_rs1_imm_edges_rs1val_0x0_immval_0x200>:
I_xori_cg_cr_rs1_imm_edges_rs1val_0x0_immval_0x200:
  xori x23, x22, 512 # perform operation
     cc4:	200b4b93          	xori	x23,x22,512
  # Check if x23 contains the expected result. x12 is the signature ptr, x5 is the link ptr, x4 is a temp reg.
  RVTEST_SIGUPD(x12, x5, x4, x23, I_xori_cg_cr_rs1_imm_edges_rs1val_0x0_immval_0x200, I_xori_cg_cr_rs1_imm_edges_rs1val_0x0_immval_0x200_str)
     cc8:	00062203          	lw	x4,0(x12)
     ccc:	01720863          	beq	x4,x23,cdc <I_xori_cg_cr_rs1_imm_edges_rs1val_0x0_immval_0x200+0x18>
     cd0:	7ec022ef          	jal	x5,34bc <failedtest_x5_x4>
     cd4:	00000cc4          	.word	0x00000cc4
     cd8:	000098af          	.word	0x000098af
     cdc:	00460613          	addi	x12,x12,4

# Testcase cr_rs1_imm_edges (rs1 = 0x00000000, imm = 1023)
  RVTEST_TESTDATA_LOAD_INT(x24, x14) # load rs1: x14 = 0x00000000
     ce0:	000c2703          	lw	x14,0(x24)
     ce4:	004c0c13          	addi	x24,x24,4

00000ce8 <I_xori_cg_cr_rs1_imm_edges_rs1val_0x0_immval_0x3ff>:
I_xori_cg_cr_rs1_imm_edges_rs1val_0x0_immval_0x3ff:
  xori x10, x14, 1023 # perform operation
     ce8:	3ff74513          	xori	x10,x14,1023
  # Check if x10 contains the expected result. x12 is the signature ptr, x5 is the link ptr, x4 is a temp reg.
  RVTEST_SIGUPD(x12, x5, x4, x10, I_xori_cg_cr_rs1_imm_edges_rs1val_0x0_immval_0x3ff, I_xori_cg_cr_rs1_imm_edges_rs1val_0x0_immval_0x3ff_str)
     cec:	00062203          	lw	x4,0(x12)
     cf0:	00a20863          	beq	x4,x10,d00 <I_xori_cg_cr_rs1_imm_edges_rs1val_0x0_immval_0x3ff+0x18>
     cf4:	7c8022ef          	jal	x5,34bc <failedtest_x5_x4>
     cf8:	00000ce8          	.word	0x00000ce8
     cfc:	000098fe          	.word	0x000098fe
     d00:	00460613          	addi	x12,x12,4

# Testcase cr_rs1_imm_edges (rs1 = 0x00000000, imm = 1024)
  RVTEST_TESTDATA_LOAD_INT(x24, x13) # load rs1: x13 = 0x00000000
     d04:	000c2683          	lw	x13,0(x24)
     d08:	004c0c13          	addi	x24,x24,4

00000d0c <I_xori_cg_cr_rs1_imm_edges_rs1val_0x0_immval_0x400>:
I_xori_cg_cr_rs1_imm_edges_rs1val_0x0_immval_0x400:
  xori x26, x13, 1024 # perform operation
     d0c:	4006cd13          	xori	x26,x13,1024
  # Check if x26 contains the expected result. x12 is the signature ptr, x5 is the link ptr, x4 is a temp reg.
  RVTEST_SIGUPD(x12, x5, x4, x26, I_xori_cg_cr_rs1_imm_edges_rs1val_0x0_immval_0x400, I_xori_cg_cr_rs1_imm_edges_rs1val_0x0_immval_0x400_str)
     d10:	00062203          	lw	x4,0(x12)
     d14:	01a20863          	beq	x4,x26,d24 <I_xori_cg_cr_rs1_imm_edges_rs1val_0x0_immval_0x400+0x18>
     d18:	7a4022ef          	jal	x5,34bc <failedtest_x5_x4>
     d1c:	00000d0c          	.word	0x00000d0c
     d20:	0000994d          	.word	0x0000994d
     d24:	00460613          	addi	x12,x12,4

# Testcase cr_rs1_imm_edges (rs1 = 0x00000000, imm = 1795)
  RVTEST_TESTDATA_LOAD_INT(x24, x19) # load rs1: x19 = 0x00000000
     d28:	000c2983          	lw	x19,0(x24)
     d2c:	004c0c13          	addi	x24,x24,4

00000d30 <I_xori_cg_cr_rs1_imm_edges_rs1val_0x0_immval_0x703>:
I_xori_cg_cr_rs1_imm_edges_rs1val_0x0_immval_0x703:
  xori x11, x19, 1795 # perform operation
     d30:	7039c593          	xori	x11,x19,1795
  # Check if x11 contains the expected result. x12 is the signature ptr, x5 is the link ptr, x4 is a temp reg.
  RVTEST_SIGUPD(x12, x5, x4, x11, I_xori_cg_cr_rs1_imm_edges_rs1val_0x0_immval_0x703, I_xori_cg_cr_rs1_imm_edges_rs1val_0x0_immval_0x703_str)
     d34:	00062203          	lw	x4,0(x12)
     d38:	00b20863          	beq	x4,x11,d48 <I_xori_cg_cr_rs1_imm_edges_rs1val_0x0_immval_0x703+0x18>
     d3c:	780022ef          	jal	x5,34bc <failedtest_x5_x4>
     d40:	00000d30          	.word	0x00000d30
     d44:	0000999c          	.word	0x0000999c
     d48:	00460613          	addi	x12,x12,4

# Testcase cr_rs1_imm_edges (rs1 = 0x00000000, imm = 2047)
  RVTEST_TESTDATA_LOAD_INT(x24, x20) # load rs1: x20 = 0x00000000
     d4c:	000c2a03          	lw	x20,0(x24)
     d50:	004c0c13          	addi	x24,x24,4

00000d54 <I_xori_cg_cr_rs1_imm_edges_rs1val_0x0_immval_0x7ff>:
I_xori_cg_cr_rs1_imm_edges_rs1val_0x0_immval_0x7ff:
  xori x19, x20, 2047 # perform operation
     d54:	7ffa4993          	xori	x19,x20,2047
  # Check if x19 contains the expected result. x12 is the signature ptr, x5 is the link ptr, x4 is a temp reg.
  RVTEST_SIGUPD(x12, x5, x4, x19, I_xori_cg_cr_rs1_imm_edges_rs1val_0x0_immval_0x7ff, I_xori_cg_cr_rs1_imm_edges_rs1val_0x0_immval_0x7ff_str)
     d58:	00062203          	lw	x4,0(x12)
     d5c:	01320863          	beq	x4,x19,d6c <I_xori_cg_cr_rs1_imm_edges_rs1val_0x0_immval_0x7ff+0x18>
     d60:	75c022ef          	jal	x5,34bc <failedtest_x5_x4>
     d64:	00000d54          	.word	0x00000d54
     d68:	000099eb          	.word	0x000099eb
     d6c:	00460613          	addi	x12,x12,4

# Testcase cr_rs1_imm_edges (rs1 = 0x00000000, imm = -2048)
  RVTEST_TESTDATA_LOAD_INT(x24, x27) # load rs1: x27 = 0x00000000
     d70:	000c2d83          	lw	x27,0(x24)
     d74:	004c0c13          	addi	x24,x24,4

00000d78 <I_xori_cg_cr_rs1_imm_edges_rs1val_0x0_immval_m0x800>:
I_xori_cg_cr_rs1_imm_edges_rs1val_0x0_immval_m0x800:
  xori x10, x27, -2048 # perform operation
     d78:	800dc513          	xori	x10,x27,-2048
  # Check if x10 contains the expected result. x12 is the signature ptr, x5 is the link ptr, x4 is a temp reg.
  RVTEST_SIGUPD(x12, x5, x4, x10, I_xori_cg_cr_rs1_imm_edges_rs1val_0x0_immval_m0x800, I_xori_cg_cr_rs1_imm_edges_rs1val_0x0_immval_m0x800_str)
     d7c:	00062203          	lw	x4,0(x12)
     d80:	00a20863          	beq	x4,x10,d90 <I_xori_cg_cr_rs1_imm_edges_rs1val_0x0_immval_m0x800+0x18>
     d84:	738022ef          	jal	x5,34bc <failedtest_x5_x4>
     d88:	00000d78          	.word	0x00000d78
     d8c:	00009a3a          	.word	0x00009a3a
     d90:	00460613          	addi	x12,x12,4

# Testcase cr_rs1_imm_edges (rs1 = 0x00000000, imm = -2047)
  RVTEST_TESTDATA_LOAD_INT(x24, x31) # load rs1: x31 = 0x00000000
     d94:	000c2f83          	lw	x31,0(x24)
     d98:	004c0c13          	addi	x24,x24,4

00000d9c <I_xori_cg_cr_rs1_imm_edges_rs1val_0x0_immval_m0x7ff>:
I_xori_cg_cr_rs1_imm_edges_rs1val_0x0_immval_m0x7ff:
  xori x20, x31, -2047 # perform operation
     d9c:	801fca13          	xori	x20,x31,-2047
  # Check if x20 contains the expected result. x12 is the signature ptr, x5 is the link ptr, x4 is a temp reg.
  RVTEST_SIGUPD(x12, x5, x4, x20, I_xori_cg_cr_rs1_imm_edges_rs1val_0x0_immval_m0x7ff, I_xori_cg_cr_rs1_imm_edges_rs1val_0x0_immval_m0x7ff_str)
     da0:	00062203          	lw	x4,0(x12)
     da4:	01420863          	beq	x4,x20,db4 <I_xori_cg_cr_rs1_imm_edges_rs1val_0x0_immval_m0x7ff+0x18>
     da8:	714022ef          	jal	x5,34bc <failedtest_x5_x4>
     dac:	00000d9c          	.word	0x00000d9c
     db0:	00009a8a          	.word	0x00009a8a
     db4:	00460613          	addi	x12,x12,4

# Testcase cr_rs1_imm_edges (rs1 = 0x00000000, imm = -2)
  RVTEST_TESTDATA_LOAD_INT(x24, x9) # load rs1: x9 = 0x00000000
     db8:	000c2483          	lw	x9,0(x24)
     dbc:	004c0c13          	addi	x24,x24,4

00000dc0 <I_xori_cg_cr_rs1_imm_edges_rs1val_0x0_immval_m0x2>:
I_xori_cg_cr_rs1_imm_edges_rs1val_0x0_immval_m0x2:
  xori x20, x9, -2 # perform operation
     dc0:	ffe4ca13          	xori	x20,x9,-2
  # Check if x20 contains the expected result. x12 is the signature ptr, x5 is the link ptr, x4 is a temp reg.
  RVTEST_SIGUPD(x12, x5, x4, x20, I_xori_cg_cr_rs1_imm_edges_rs1val_0x0_immval_m0x2, I_xori_cg_cr_rs1_imm_edges_rs1val_0x0_immval_m0x2_str)
     dc4:	00062203          	lw	x4,0(x12)
     dc8:	01420863          	beq	x4,x20,dd8 <I_xori_cg_cr_rs1_imm_edges_rs1val_0x0_immval_m0x2+0x18>
     dcc:	6f0022ef          	jal	x5,34bc <failedtest_x5_x4>
     dd0:	00000dc0          	.word	0x00000dc0
     dd4:	00009ada          	.word	0x00009ada
     dd8:	00460613          	addi	x12,x12,4

# Testcase cr_rs1_imm_edges (rs1 = 0x00000000, imm = -1)
  RVTEST_TESTDATA_LOAD_INT(x24, x27) # load rs1: x27 = 0x00000000
     ddc:	000c2d83          	lw	x27,0(x24)
     de0:	004c0c13          	addi	x24,x24,4

00000de4 <I_xori_cg_cr_rs1_imm_edges_rs1val_0x0_immval_m0x1>:
I_xori_cg_cr_rs1_imm_edges_rs1val_0x0_immval_m0x1:
  xori x19, x27, -1 # perform operation
     de4:	fffdc993          	xori	x19,x27,-1
  # Check if x19 contains the expected result. x12 is the signature ptr, x5 is the link ptr, x4 is a temp reg.
  RVTEST_SIGUPD(x12, x5, x4, x19, I_xori_cg_cr_rs1_imm_edges_rs1val_0x0_immval_m0x1, I_xori_cg_cr_rs1_imm_edges_rs1val_0x0_immval_m0x1_str)
     de8:	00062203          	lw	x4,0(x12)
     dec:	01320863          	beq	x4,x19,dfc <I_xori_cg_cr_rs1_imm_edges_rs1val_0x0_immval_m0x1+0x18>
     df0:	6cc022ef          	jal	x5,34bc <failedtest_x5_x4>
     df4:	00000de4          	.word	0x00000de4
     df8:	00009b28          	.word	0x00009b28
     dfc:	00460613          	addi	x12,x12,4

# Testcase cr_rs1_imm_edges (rs1 = 0x00000001, imm = 0)
  RVTEST_TESTDATA_LOAD_INT(x24, x25) # load rs1: x25 = 0x00000001
     e00:	000c2c83          	lw	x25,0(x24)
     e04:	004c0c13          	addi	x24,x24,4

00000e08 <I_xori_cg_cr_rs1_imm_edges_rs1val_0x1_immval_0x0>:
I_xori_cg_cr_rs1_imm_edges_rs1val_0x1_immval_0x0:
  xori x9, x25, 0 # perform operation
     e08:	000cc493          	xori	x9,x25,0
  # Check if x9 contains the expected result. x12 is the signature ptr, x5 is the link ptr, x4 is a temp reg.
  RVTEST_SIGUPD(x12, x5, x4, x9, I_xori_cg_cr_rs1_imm_edges_rs1val_0x1_immval_0x0, I_xori_cg_cr_rs1_imm_edges_rs1val_0x1_immval_0x0_str)
     e0c:	00062203          	lw	x4,0(x12)
     e10:	00920863          	beq	x4,x9,e20 <I_xori_cg_cr_rs1_imm_edges_rs1val_0x1_immval_0x0+0x18>
     e14:	6a8022ef          	jal	x5,34bc <failedtest_x5_x4>
     e18:	00000e08          	.word	0x00000e08
     e1c:	00009b76          	.word	0x00009b76
     e20:	00460613          	addi	x12,x12,4

# Testcase cr_rs1_imm_edges (rs1 = 0x00000001, imm = 1)
  RVTEST_TESTDATA_LOAD_INT(x24, x30) # load rs1: x30 = 0x00000001
     e24:	000c2f03          	lw	x30,0(x24)
     e28:	004c0c13          	addi	x24,x24,4

00000e2c <I_xori_cg_cr_rs1_imm_edges_rs1val_0x1_immval_0x1>:
I_xori_cg_cr_rs1_imm_edges_rs1val_0x1_immval_0x1:
  xori x21, x30, 1 # perform operation
     e2c:	001f4a93          	xori	x21,x30,1
  # Check if x21 contains the expected result. x12 is the signature ptr, x5 is the link ptr, x4 is a temp reg.
  RVTEST_SIGUPD(x12, x5, x4, x21, I_xori_cg_cr_rs1_imm_edges_rs1val_0x1_immval_0x1, I_xori_cg_cr_rs1_imm_edges_rs1val_0x1_immval_0x1_str)
     e30:	00062203          	lw	x4,0(x12)
     e34:	01520863          	beq	x4,x21,e44 <I_xori_cg_cr_rs1_imm_edges_rs1val_0x1_immval_0x1+0x18>
     e38:	684022ef          	jal	x5,34bc <failedtest_x5_x4>
     e3c:	00000e2c          	.word	0x00000e2c
     e40:	00009bc3          	.word	0x00009bc3
     e44:	00460613          	addi	x12,x12,4

# Testcase cr_rs1_imm_edges (rs1 = 0x00000001, imm = 2)
  RVTEST_TESTDATA_LOAD_INT(x24, x28) # load rs1: x28 = 0x00000001
     e48:	000c2e03          	lw	x28,0(x24)
     e4c:	004c0c13          	addi	x24,x24,4

00000e50 <I_xori_cg_cr_rs1_imm_edges_rs1val_0x1_immval_0x2>:
I_xori_cg_cr_rs1_imm_edges_rs1val_0x1_immval_0x2:
  xori x22, x28, 2 # perform operation
     e50:	002e4b13          	xori	x22,x28,2
  # Check if x22 contains the expected result. x12 is the signature ptr, x5 is the link ptr, x4 is a temp reg.
  RVTEST_SIGUPD(x12, x5, x4, x22, I_xori_cg_cr_rs1_imm_edges_rs1val_0x1_immval_0x2, I_xori_cg_cr_rs1_imm_edges_rs1val_0x1_immval_0x2_str)
     e54:	00062203          	lw	x4,0(x12)
     e58:	01620863          	beq	x4,x22,e68 <I_xori_cg_cr_rs1_imm_edges_rs1val_0x1_immval_0x2+0x18>
     e5c:	660022ef          	jal	x5,34bc <failedtest_x5_x4>
     e60:	00000e50          	.word	0x00000e50
     e64:	00009c10          	.word	0x00009c10
     e68:	00460613          	addi	x12,x12,4

# Testcase cr_rs1_imm_edges (rs1 = 0x00000001, imm = 3)
  RVTEST_TESTDATA_LOAD_INT(x24, x11) # load rs1: x11 = 0x00000001
     e6c:	000c2583          	lw	x11,0(x24)
     e70:	004c0c13          	addi	x24,x24,4

00000e74 <I_xori_cg_cr_rs1_imm_edges_rs1val_0x1_immval_0x3>:
I_xori_cg_cr_rs1_imm_edges_rs1val_0x1_immval_0x3:
  xori x19, x11, 3 # perform operation
     e74:	0035c993          	xori	x19,x11,3
  # Check if x19 contains the expected result. x12 is the signature ptr, x5 is the link ptr, x4 is a temp reg.
  RVTEST_SIGUPD(x12, x5, x4, x19, I_xori_cg_cr_rs1_imm_edges_rs1val_0x1_immval_0x3, I_xori_cg_cr_rs1_imm_edges_rs1val_0x1_immval_0x3_str)
     e78:	00062203          	lw	x4,0(x12)
     e7c:	01320863          	beq	x4,x19,e8c <I_xori_cg_cr_rs1_imm_edges_rs1val_0x1_immval_0x3+0x18>
     e80:	63c022ef          	jal	x5,34bc <failedtest_x5_x4>
     e84:	00000e74          	.word	0x00000e74
     e88:	00009c5d          	.word	0x00009c5d
     e8c:	00460613          	addi	x12,x12,4

# Testcase cr_rs1_imm_edges (rs1 = 0x00000001, imm = 4)
  RVTEST_TESTDATA_LOAD_INT(x24, x15) # load rs1: x15 = 0x00000001
     e90:	000c2783          	lw	x15,0(x24)
     e94:	004c0c13          	addi	x24,x24,4

00000e98 <I_xori_cg_cr_rs1_imm_edges_rs1val_0x1_immval_0x4>:
I_xori_cg_cr_rs1_imm_edges_rs1val_0x1_immval_0x4:
  xori x28, x15, 4 # perform operation
     e98:	0047ce13          	xori	x28,x15,4
  # Check if x28 contains the expected result. x12 is the signature ptr, x5 is the link ptr, x4 is a temp reg.
  RVTEST_SIGUPD(x12, x5, x4, x28, I_xori_cg_cr_rs1_imm_edges_rs1val_0x1_immval_0x4, I_xori_cg_cr_rs1_imm_edges_rs1val_0x1_immval_0x4_str)
     e9c:	00062203          	lw	x4,0(x12)
     ea0:	01c20863          	beq	x4,x28,eb0 <I_xori_cg_cr_rs1_imm_edges_rs1val_0x1_immval_0x4+0x18>
     ea4:	618022ef          	jal	x5,34bc <failedtest_x5_x4>
     ea8:	00000e98          	.word	0x00000e98
     eac:	00009cab          	.word	0x00009cab
     eb0:	00460613          	addi	x12,x12,4

# Testcase cr_rs1_imm_edges (rs1 = 0x00000001, imm = 8)
  RVTEST_TESTDATA_LOAD_INT(x24, x18) # load rs1: x18 = 0x00000001
     eb4:	000c2903          	lw	x18,0(x24)
     eb8:	004c0c13          	addi	x24,x24,4

00000ebc <I_xori_cg_cr_rs1_imm_edges_rs1val_0x1_immval_0x8>:
I_xori_cg_cr_rs1_imm_edges_rs1val_0x1_immval_0x8:
  xori x9, x18, 8 # perform operation
     ebc:	00894493          	xori	x9,x18,8
  # Check if x9 contains the expected result. x12 is the signature ptr, x5 is the link ptr, x4 is a temp reg.
  RVTEST_SIGUPD(x12, x5, x4, x9, I_xori_cg_cr_rs1_imm_edges_rs1val_0x1_immval_0x8, I_xori_cg_cr_rs1_imm_edges_rs1val_0x1_immval_0x8_str)
     ec0:	00062203          	lw	x4,0(x12)
     ec4:	00920863          	beq	x4,x9,ed4 <I_xori_cg_cr_rs1_imm_edges_rs1val_0x1_immval_0x8+0x18>
     ec8:	5f4022ef          	jal	x5,34bc <failedtest_x5_x4>
     ecc:	00000ebc          	.word	0x00000ebc
     ed0:	00009cf9          	.word	0x00009cf9
     ed4:	00460613          	addi	x12,x12,4

# Testcase cr_rs1_imm_edges (rs1 = 0x00000001, imm = 16)
  RVTEST_TESTDATA_LOAD_INT(x24, x2) # load rs1: x2 = 0x00000001
     ed8:	000c2103          	lw	x2,0(x24)
     edc:	004c0c13          	addi	x24,x24,4

00000ee0 <I_xori_cg_cr_rs1_imm_edges_rs1val_0x1_immval_0x10>:
I_xori_cg_cr_rs1_imm_edges_rs1val_0x1_immval_0x10:
  xori x23, x2, 16 # perform operation
     ee0:	01014b93          	xori	x23,x2,16
  # Check if x23 contains the expected result. x12 is the signature ptr, x5 is the link ptr, x4 is a temp reg.
  RVTEST_SIGUPD(x12, x5, x4, x23, I_xori_cg_cr_rs1_imm_edges_rs1val_0x1_immval_0x10, I_xori_cg_cr_rs1_imm_edges_rs1val_0x1_immval_0x10_str)
     ee4:	00062203          	lw	x4,0(x12)
     ee8:	01720863          	beq	x4,x23,ef8 <I_xori_cg_cr_rs1_imm_edges_rs1val_0x1_immval_0x10+0x18>
     eec:	5d0022ef          	jal	x5,34bc <failedtest_x5_x4>
     ef0:	00000ee0          	.word	0x00000ee0
     ef4:	00009d47          	.word	0x00009d47
     ef8:	00460613          	addi	x12,x12,4

# Testcase cr_rs1_imm_edges (rs1 = 0x00000001, imm = 32)
  RVTEST_TESTDATA_LOAD_INT(x24, x3) # load rs1: x3 = 0x00000001
     efc:	000c2183          	lw	x3,0(x24)
     f00:	004c0c13          	addi	x24,x24,4

00000f04 <I_xori_cg_cr_rs1_imm_edges_rs1val_0x1_immval_0x20>:
I_xori_cg_cr_rs1_imm_edges_rs1val_0x1_immval_0x20:
  xori x23, x3, 32 # perform operation
     f04:	0201cb93          	xori	x23,x3,32
  # Check if x23 contains the expected result. x12 is the signature ptr, x5 is the link ptr, x4 is a temp reg.
  RVTEST_SIGUPD(x12, x5, x4, x23, I_xori_cg_cr_rs1_imm_edges_rs1val_0x1_immval_0x20, I_xori_cg_cr_rs1_imm_edges_rs1val_0x1_immval_0x20_str)
     f08:	00062203          	lw	x4,0(x12)
     f0c:	01720863          	beq	x4,x23,f1c <I_xori_cg_cr_rs1_imm_edges_rs1val_0x1_immval_0x20+0x18>
     f10:	5ac022ef          	jal	x5,34bc <failedtest_x5_x4>
     f14:	00000f04          	.word	0x00000f04
     f18:	00009d96          	.word	0x00009d96
     f1c:	00460613          	addi	x12,x12,4

# Testcase cr_rs1_imm_edges (rs1 = 0x00000001, imm = 64)
  RVTEST_TESTDATA_LOAD_INT(x24, x9) # load rs1: x9 = 0x00000001
     f20:	000c2483          	lw	x9,0(x24)
     f24:	004c0c13          	addi	x24,x24,4

00000f28 <I_xori_cg_cr_rs1_imm_edges_rs1val_0x1_immval_0x40>:
I_xori_cg_cr_rs1_imm_edges_rs1val_0x1_immval_0x40:
  xori x30, x9, 64 # perform operation
     f28:	0404cf13          	xori	x30,x9,64
  # Check if x30 contains the expected result. x12 is the signature ptr, x5 is the link ptr, x4 is a temp reg.
  RVTEST_SIGUPD(x12, x5, x4, x30, I_xori_cg_cr_rs1_imm_edges_rs1val_0x1_immval_0x40, I_xori_cg_cr_rs1_imm_edges_rs1val_0x1_immval_0x40_str)
     f2c:	00062203          	lw	x4,0(x12)
     f30:	01e20863          	beq	x4,x30,f40 <I_xori_cg_cr_rs1_imm_edges_rs1val_0x1_immval_0x40+0x18>
     f34:	588022ef          	jal	x5,34bc <failedtest_x5_x4>
     f38:	00000f28          	.word	0x00000f28
     f3c:	00009de5          	.word	0x00009de5
     f40:	00460613          	addi	x12,x12,4

# Testcase cr_rs1_imm_edges (rs1 = 0x00000001, imm = 128)
  RVTEST_TESTDATA_LOAD_INT(x24, x1) # load rs1: x1 = 0x00000001
     f44:	000c2083          	lw	x1,0(x24)
     f48:	004c0c13          	addi	x24,x24,4

00000f4c <I_xori_cg_cr_rs1_imm_edges_rs1val_0x1_immval_0x80>:
I_xori_cg_cr_rs1_imm_edges_rs1val_0x1_immval_0x80:
  xori x23, x1, 128 # perform operation
     f4c:	0800cb93          	xori	x23,x1,128
  # Check if x23 contains the expected result. x12 is the signature ptr, x5 is the link ptr, x4 is a temp reg.
  RVTEST_SIGUPD(x12, x5, x4, x23, I_xori_cg_cr_rs1_imm_edges_rs1val_0x1_immval_0x80, I_xori_cg_cr_rs1_imm_edges_rs1val_0x1_immval_0x80_str)
     f50:	00062203          	lw	x4,0(x12)
     f54:	01720863          	beq	x4,x23,f64 <I_xori_cg_cr_rs1_imm_edges_rs1val_0x1_immval_0x80+0x18>
     f58:	564022ef          	jal	x5,34bc <failedtest_x5_x4>
     f5c:	00000f4c          	.word	0x00000f4c
     f60:	00009e34          	.word	0x00009e34
     f64:	00460613          	addi	x12,x12,4

# Testcase cr_rs1_imm_edges (rs1 = 0x00000001, imm = 256)
  RVTEST_TESTDATA_LOAD_INT(x24, x2) # load rs1: x2 = 0x00000001
     f68:	000c2103          	lw	x2,0(x24)
     f6c:	004c0c13          	addi	x24,x24,4

00000f70 <I_xori_cg_cr_rs1_imm_edges_rs1val_0x1_immval_0x100>:
I_xori_cg_cr_rs1_imm_edges_rs1val_0x1_immval_0x100:
  xori x10, x2, 256 # perform operation
     f70:	10014513          	xori	x10,x2,256
  # Check if x10 contains the expected result. x12 is the signature ptr, x5 is the link ptr, x4 is a temp reg.
  RVTEST_SIGUPD(x12, x5, x4, x10, I_xori_cg_cr_rs1_imm_edges_rs1val_0x1_immval_0x100, I_xori_cg_cr_rs1_imm_edges_rs1val_0x1_immval_0x100_str)
     f74:	00062203          	lw	x4,0(x12)
     f78:	00a20863          	beq	x4,x10,f88 <I_xori_cg_cr_rs1_imm_edges_rs1val_0x1_immval_0x100+0x18>
     f7c:	540022ef          	jal	x5,34bc <failedtest_x5_x4>
     f80:	00000f70          	.word	0x00000f70
     f84:	00009e83          	.word	0x00009e83
     f88:	00460613          	addi	x12,x12,4

# Testcase cr_rs1_imm_edges (rs1 = 0x00000001, imm = 512)
  RVTEST_TESTDATA_LOAD_INT(x24, x28) # load rs1: x28 = 0x00000001
     f8c:	000c2e03          	lw	x28,0(x24)
     f90:	004c0c13          	addi	x24,x24,4

00000f94 <I_xori_cg_cr_rs1_imm_edges_rs1val_0x1_immval_0x200>:
I_xori_cg_cr_rs1_imm_edges_rs1val_0x1_immval_0x200:
  xori x16, x28, 512 # perform operation
     f94:	200e4813          	xori	x16,x28,512
  # Check if x16 contains the expected result. x12 is the signature ptr, x5 is the link ptr, x4 is a temp reg.
  RVTEST_SIGUPD(x12, x5, x4, x16, I_xori_cg_cr_rs1_imm_edges_rs1val_0x1_immval_0x200, I_xori_cg_cr_rs1_imm_edges_rs1val_0x1_immval_0x200_str)
     f98:	00062203          	lw	x4,0(x12)
     f9c:	01020863          	beq	x4,x16,fac <I_xori_cg_cr_rs1_imm_edges_rs1val_0x1_immval_0x200+0x18>
     fa0:	51c022ef          	jal	x5,34bc <failedtest_x5_x4>
     fa4:	00000f94          	.word	0x00000f94
     fa8:	00009ed3          	.word	0x00009ed3
     fac:	00460613          	addi	x12,x12,4

# Testcase cr_rs1_imm_edges (rs1 = 0x00000001, imm = 1023)
  RVTEST_TESTDATA_LOAD_INT(x24, x8) # load rs1: x8 = 0x00000001
     fb0:	000c2403          	lw	x8,0(x24)
     fb4:	004c0c13          	addi	x24,x24,4

00000fb8 <I_xori_cg_cr_rs1_imm_edges_rs1val_0x1_immval_0x3ff>:
I_xori_cg_cr_rs1_imm_edges_rs1val_0x1_immval_0x3ff:
  xori x19, x8, 1023 # perform operation
     fb8:	3ff44993          	xori	x19,x8,1023
  # Check if x19 contains the expected result. x12 is the signature ptr, x5 is the link ptr, x4 is a temp reg.
  RVTEST_SIGUPD(x12, x5, x4, x19, I_xori_cg_cr_rs1_imm_edges_rs1val_0x1_immval_0x3ff, I_xori_cg_cr_rs1_imm_edges_rs1val_0x1_immval_0x3ff_str)
     fbc:	00062203          	lw	x4,0(x12)
     fc0:	01320863          	beq	x4,x19,fd0 <I_xori_cg_cr_rs1_imm_edges_rs1val_0x1_immval_0x3ff+0x18>
     fc4:	4f8022ef          	jal	x5,34bc <failedtest_x5_x4>
     fc8:	00000fb8          	.word	0x00000fb8
     fcc:	00009f23          	.word	0x00009f23
     fd0:	00460613          	addi	x12,x12,4

# Testcase cr_rs1_imm_edges (rs1 = 0x00000001, imm = 1024)
  RVTEST_TESTDATA_LOAD_INT(x24, x26) # load rs1: x26 = 0x00000001
     fd4:	000c2d03          	lw	x26,0(x24)
     fd8:	004c0c13          	addi	x24,x24,4

00000fdc <I_xori_cg_cr_rs1_imm_edges_rs1val_0x1_immval_0x400>:
I_xori_cg_cr_rs1_imm_edges_rs1val_0x1_immval_0x400:
  xori x18, x26, 1024 # perform operation
     fdc:	400d4913          	xori	x18,x26,1024
  # Check if x18 contains the expected result. x12 is the signature ptr, x5 is the link ptr, x4 is a temp reg.
  RVTEST_SIGUPD(x12, x5, x4, x18, I_xori_cg_cr_rs1_imm_edges_rs1val_0x1_immval_0x400, I_xori_cg_cr_rs1_imm_edges_rs1val_0x1_immval_0x400_str)
     fe0:	00062203          	lw	x4,0(x12)
     fe4:	01220863          	beq	x4,x18,ff4 <I_xori_cg_cr_rs1_imm_edges_rs1val_0x1_immval_0x400+0x18>
     fe8:	4d4022ef          	jal	x5,34bc <failedtest_x5_x4>
     fec:	00000fdc          	.word	0x00000fdc
     ff0:	00009f73          	.word	0x00009f73
     ff4:	00460613          	addi	x12,x12,4

# Testcase cr_rs1_imm_edges (rs1 = 0x00000001, imm = 1795)
  RVTEST_TESTDATA_LOAD_INT(x24, x10) # load rs1: x10 = 0x00000001
     ff8:	000c2503          	lw	x10,0(x24)
     ffc:	004c0c13          	addi	x24,x24,4

00001000 <I_xori_cg_cr_rs1_imm_edges_rs1val_0x1_immval_0x703>:
I_xori_cg_cr_rs1_imm_edges_rs1val_0x1_immval_0x703:
  xori x30, x10, 1795 # perform operation
    1000:	70354f13          	xori	x30,x10,1795
  # Check if x30 contains the expected result. x12 is the signature ptr, x5 is the link ptr, x4 is a temp reg.
  RVTEST_SIGUPD(x12, x5, x4, x30, I_xori_cg_cr_rs1_imm_edges_rs1val_0x1_immval_0x703, I_xori_cg_cr_rs1_imm_edges_rs1val_0x1_immval_0x703_str)
    1004:	00062203          	lw	x4,0(x12)
    1008:	01e20863          	beq	x4,x30,1018 <I_xori_cg_cr_rs1_imm_edges_rs1val_0x1_immval_0x703+0x18>
    100c:	4b0022ef          	jal	x5,34bc <failedtest_x5_x4>
    1010:	00001000          	.word	0x00001000
    1014:	00009fc3          	.word	0x00009fc3
    1018:	00460613          	addi	x12,x12,4

# Testcase cr_rs1_imm_edges (rs1 = 0x00000001, imm = 2047)
  RVTEST_TESTDATA_LOAD_INT(x24, x7) # load rs1: x7 = 0x00000001
    101c:	000c2383          	lw	x7,0(x24)
    1020:	004c0c13          	addi	x24,x24,4

00001024 <I_xori_cg_cr_rs1_imm_edges_rs1val_0x1_immval_0x7ff>:
I_xori_cg_cr_rs1_imm_edges_rs1val_0x1_immval_0x7ff:
  xori x28, x7, 2047 # perform operation
    1024:	7ff3ce13          	xori	x28,x7,2047
  # Check if x28 contains the expected result. x12 is the signature ptr, x5 is the link ptr, x4 is a temp reg.
  RVTEST_SIGUPD(x12, x5, x4, x28, I_xori_cg_cr_rs1_imm_edges_rs1val_0x1_immval_0x7ff, I_xori_cg_cr_rs1_imm_edges_rs1val_0x1_immval_0x7ff_str)
    1028:	00062203          	lw	x4,0(x12)
    102c:	01c20863          	beq	x4,x28,103c <I_xori_cg_cr_rs1_imm_edges_rs1val_0x1_immval_0x7ff+0x18>
    1030:	48c022ef          	jal	x5,34bc <failedtest_x5_x4>
    1034:	00001024          	.word	0x00001024
    1038:	0000a013          	.word	0x0000a013
    103c:	00460613          	addi	x12,x12,4

# Testcase cr_rs1_imm_edges (rs1 = 0x00000001, imm = -2048)
  RVTEST_TESTDATA_LOAD_INT(x24, x2) # load rs1: x2 = 0x00000001
    1040:	000c2103          	lw	x2,0(x24)
    1044:	004c0c13          	addi	x24,x24,4

00001048 <I_xori_cg_cr_rs1_imm_edges_rs1val_0x1_immval_m0x800>:
I_xori_cg_cr_rs1_imm_edges_rs1val_0x1_immval_m0x800:
  xori x3, x2, -2048 # perform operation
    1048:	80014193          	xori	x3,x2,-2048
  # Check if x3 contains the expected result. x12 is the signature ptr, x5 is the link ptr, x4 is a temp reg.
  RVTEST_SIGUPD(x12, x5, x4, x3, I_xori_cg_cr_rs1_imm_edges_rs1val_0x1_immval_m0x800, I_xori_cg_cr_rs1_imm_edges_rs1val_0x1_immval_m0x800_str)
    104c:	00062203          	lw	x4,0(x12)
    1050:	00320863          	beq	x4,x3,1060 <I_xori_cg_cr_rs1_imm_edges_rs1val_0x1_immval_m0x800+0x18>
    1054:	468022ef          	jal	x5,34bc <failedtest_x5_x4>
    1058:	00001048          	.word	0x00001048
    105c:	0000a063          	.word	0x0000a063
    1060:	00460613          	addi	x12,x12,4

# Testcase cr_rs1_imm_edges (rs1 = 0x00000001, imm = -2047)
  RVTEST_TESTDATA_LOAD_INT(x24, x8) # load rs1: x8 = 0x00000001
    1064:	000c2403          	lw	x8,0(x24)
    1068:	004c0c13          	addi	x24,x24,4

0000106c <I_xori_cg_cr_rs1_imm_edges_rs1val_0x1_immval_m0x7ff>:
I_xori_cg_cr_rs1_imm_edges_rs1val_0x1_immval_m0x7ff:
  xori x17, x8, -2047 # perform operation
    106c:	80144893          	xori	x17,x8,-2047
  # Check if x17 contains the expected result. x12 is the signature ptr, x5 is the link ptr, x4 is a temp reg.
  RVTEST_SIGUPD(x12, x5, x4, x17, I_xori_cg_cr_rs1_imm_edges_rs1val_0x1_immval_m0x7ff, I_xori_cg_cr_rs1_imm_edges_rs1val_0x1_immval_m0x7ff_str)
    1070:	00062203          	lw	x4,0(x12)
    1074:	01120863          	beq	x4,x17,1084 <I_xori_cg_cr_rs1_imm_edges_rs1val_0x1_immval_m0x7ff+0x18>
    1078:	444022ef          	jal	x5,34bc <failedtest_x5_x4>
    107c:	0000106c          	.word	0x0000106c
    1080:	0000a0b4          	.word	0x0000a0b4
    1084:	00460613          	addi	x12,x12,4

# Testcase cr_rs1_imm_edges (rs1 = 0x00000001, imm = -2)
  RVTEST_TESTDATA_LOAD_INT(x24, x7) # load rs1: x7 = 0x00000001
    1088:	000c2383          	lw	x7,0(x24)
    108c:	004c0c13          	addi	x24,x24,4

00001090 <I_xori_cg_cr_rs1_imm_edges_rs1val_0x1_immval_m0x2>:
I_xori_cg_cr_rs1_imm_edges_rs1val_0x1_immval_m0x2:
  xori x29, x7, -2 # perform operation
    1090:	ffe3ce93          	xori	x29,x7,-2
  # Check if x29 contains the expected result. x12 is the signature ptr, x5 is the link ptr, x4 is a temp reg.
  RVTEST_SIGUPD(x12, x5, x4, x29, I_xori_cg_cr_rs1_imm_edges_rs1val_0x1_immval_m0x2, I_xori_cg_cr_rs1_imm_edges_rs1val_0x1_immval_m0x2_str)
    1094:	00062203          	lw	x4,0(x12)
    1098:	01d20863          	beq	x4,x29,10a8 <I_xori_cg_cr_rs1_imm_edges_rs1val_0x1_immval_m0x2+0x18>
    109c:	420022ef          	jal	x5,34bc <failedtest_x5_x4>
    10a0:	00001090          	.word	0x00001090
    10a4:	0000a105          	.word	0x0000a105
    10a8:	00460613          	addi	x12,x12,4

# Testcase cr_rs1_imm_edges (rs1 = 0x00000001, imm = -1)
  RVTEST_TESTDATA_LOAD_INT(x24, x7) # load rs1: x7 = 0x00000001
    10ac:	000c2383          	lw	x7,0(x24)
    10b0:	004c0c13          	addi	x24,x24,4

000010b4 <I_xori_cg_cr_rs1_imm_edges_rs1val_0x1_immval_m0x1>:
I_xori_cg_cr_rs1_imm_edges_rs1val_0x1_immval_m0x1:
  xori x10, x7, -1 # perform operation
    10b4:	fff3c513          	xori	x10,x7,-1
  # Check if x10 contains the expected result. x12 is the signature ptr, x5 is the link ptr, x4 is a temp reg.
  RVTEST_SIGUPD(x12, x5, x4, x10, I_xori_cg_cr_rs1_imm_edges_rs1val_0x1_immval_m0x1, I_xori_cg_cr_rs1_imm_edges_rs1val_0x1_immval_m0x1_str)
    10b8:	00062203          	lw	x4,0(x12)
    10bc:	00a20863          	beq	x4,x10,10cc <I_xori_cg_cr_rs1_imm_edges_rs1val_0x1_immval_m0x1+0x18>
    10c0:	3fc022ef          	jal	x5,34bc <failedtest_x5_x4>
    10c4:	000010b4          	.word	0x000010b4
    10c8:	0000a154          	.word	0x0000a154
    10cc:	00460613          	addi	x12,x12,4

# Testcase cr_rs1_imm_edges (rs1 = 0x00000002, imm = 0)
  RVTEST_TESTDATA_LOAD_INT(x24, x31) # load rs1: x31 = 0x00000002
    10d0:	000c2f83          	lw	x31,0(x24)
    10d4:	004c0c13          	addi	x24,x24,4

000010d8 <I_xori_cg_cr_rs1_imm_edges_rs1val_0x2_immval_0x0>:
I_xori_cg_cr_rs1_imm_edges_rs1val_0x2_immval_0x0:
  xori x16, x31, 0 # perform operation
    10d8:	000fc813          	xori	x16,x31,0
  # Check if x16 contains the expected result. x12 is the signature ptr, x5 is the link ptr, x4 is a temp reg.
  RVTEST_SIGUPD(x12, x5, x4, x16, I_xori_cg_cr_rs1_imm_edges_rs1val_0x2_immval_0x0, I_xori_cg_cr_rs1_imm_edges_rs1val_0x2_immval_0x0_str)
    10dc:	00062203          	lw	x4,0(x12)
    10e0:	01020863          	beq	x4,x16,10f0 <I_xori_cg_cr_rs1_imm_edges_rs1val_0x2_immval_0x0+0x18>
    10e4:	3d8022ef          	jal	x5,34bc <failedtest_x5_x4>
    10e8:	000010d8          	.word	0x000010d8
    10ec:	0000a1a3          	.word	0x0000a1a3
    10f0:	00460613          	addi	x12,x12,4

# Testcase cr_rs1_imm_edges (rs1 = 0x00000002, imm = 1)
  RVTEST_TESTDATA_LOAD_INT(x24, x10) # load rs1: x10 = 0x00000002
    10f4:	000c2503          	lw	x10,0(x24)
    10f8:	004c0c13          	addi	x24,x24,4

000010fc <I_xori_cg_cr_rs1_imm_edges_rs1val_0x2_immval_0x1>:
I_xori_cg_cr_rs1_imm_edges_rs1val_0x2_immval_0x1:
  xori x13, x10, 1 # perform operation
    10fc:	00154693          	xori	x13,x10,1
  # Check if x13 contains the expected result. x12 is the signature ptr, x5 is the link ptr, x4 is a temp reg.
  RVTEST_SIGUPD(x12, x5, x4, x13, I_xori_cg_cr_rs1_imm_edges_rs1val_0x2_immval_0x1, I_xori_cg_cr_rs1_imm_edges_rs1val_0x2_immval_0x1_str)
    1100:	00062203          	lw	x4,0(x12)
    1104:	00d20863          	beq	x4,x13,1114 <I_xori_cg_cr_rs1_imm_edges_rs1val_0x2_immval_0x1+0x18>
    1108:	3b4022ef          	jal	x5,34bc <failedtest_x5_x4>
    110c:	000010fc          	.word	0x000010fc
    1110:	0000a1f1          	.word	0x0000a1f1
    1114:	00460613          	addi	x12,x12,4

# Testcase cr_rs1_imm_edges (rs1 = 0x00000002, imm = 2)
  RVTEST_TESTDATA_LOAD_INT(x24, x11) # load rs1: x11 = 0x00000002
    1118:	000c2583          	lw	x11,0(x24)
    111c:	004c0c13          	addi	x24,x24,4

00001120 <I_xori_cg_cr_rs1_imm_edges_rs1val_0x2_immval_0x2>:
I_xori_cg_cr_rs1_imm_edges_rs1val_0x2_immval_0x2:
  xori x23, x11, 2 # perform operation
    1120:	0025cb93          	xori	x23,x11,2
  # Check if x23 contains the expected result. x12 is the signature ptr, x5 is the link ptr, x4 is a temp reg.
  RVTEST_SIGUPD(x12, x5, x4, x23, I_xori_cg_cr_rs1_imm_edges_rs1val_0x2_immval_0x2, I_xori_cg_cr_rs1_imm_edges_rs1val_0x2_immval_0x2_str)
    1124:	00062203          	lw	x4,0(x12)
    1128:	01720863          	beq	x4,x23,1138 <I_xori_cg_cr_rs1_imm_edges_rs1val_0x2_immval_0x2+0x18>
    112c:	390022ef          	jal	x5,34bc <failedtest_x5_x4>
    1130:	00001120          	.word	0x00001120
    1134:	0000a23f          	.word	0x0000a23f
    1138:	00460613          	addi	x12,x12,4

# Testcase cr_rs1_imm_edges (rs1 = 0x00000002, imm = 3)
  RVTEST_TESTDATA_LOAD_INT(x24, x17) # load rs1: x17 = 0x00000002
    113c:	000c2883          	lw	x17,0(x24)
    1140:	004c0c13          	addi	x24,x24,4

00001144 <I_xori_cg_cr_rs1_imm_edges_rs1val_0x2_immval_0x3>:
I_xori_cg_cr_rs1_imm_edges_rs1val_0x2_immval_0x3:
  xori x3, x17, 3 # perform operation
    1144:	0038c193          	xori	x3,x17,3
  # Check if x3 contains the expected result. x12 is the signature ptr, x5 is the link ptr, x4 is a temp reg.
  RVTEST_SIGUPD(x12, x5, x4, x3, I_xori_cg_cr_rs1_imm_edges_rs1val_0x2_immval_0x3, I_xori_cg_cr_rs1_imm_edges_rs1val_0x2_immval_0x3_str)
    1148:	00062203          	lw	x4,0(x12)
    114c:	00320863          	beq	x4,x3,115c <I_xori_cg_cr_rs1_imm_edges_rs1val_0x2_immval_0x3+0x18>
    1150:	36c022ef          	jal	x5,34bc <failedtest_x5_x4>
    1154:	00001144          	.word	0x00001144
    1158:	0000a28d          	.word	0x0000a28d
    115c:	00460613          	addi	x12,x12,4

# Testcase cr_rs1_imm_edges (rs1 = 0x00000002, imm = 4)
  RVTEST_TESTDATA_LOAD_INT(x24, x1) # load rs1: x1 = 0x00000002
    1160:	000c2083          	lw	x1,0(x24)
    1164:	004c0c13          	addi	x24,x24,4

00001168 <I_xori_cg_cr_rs1_imm_edges_rs1val_0x2_immval_0x4>:
I_xori_cg_cr_rs1_imm_edges_rs1val_0x2_immval_0x4:
  xori x15, x1, 4 # perform operation
    1168:	0040c793          	xori	x15,x1,4
  # Check if x15 contains the expected result. x12 is the signature ptr, x5 is the link ptr, x4 is a temp reg.
  RVTEST_SIGUPD(x12, x5, x4, x15, I_xori_cg_cr_rs1_imm_edges_rs1val_0x2_immval_0x4, I_xori_cg_cr_rs1_imm_edges_rs1val_0x2_immval_0x4_str)
    116c:	00062203          	lw	x4,0(x12)
    1170:	00f20863          	beq	x4,x15,1180 <I_xori_cg_cr_rs1_imm_edges_rs1val_0x2_immval_0x4+0x18>
    1174:	348022ef          	jal	x5,34bc <failedtest_x5_x4>
    1178:	00001168          	.word	0x00001168
    117c:	0000a2db          	.word	0x0000a2db
    1180:	00460613          	addi	x12,x12,4

# Testcase cr_rs1_imm_edges (rs1 = 0x00000002, imm = 8)
  RVTEST_TESTDATA_LOAD_INT(x24, x10) # load rs1: x10 = 0x00000002
    1184:	000c2503          	lw	x10,0(x24)
    1188:	004c0c13          	addi	x24,x24,4

0000118c <I_xori_cg_cr_rs1_imm_edges_rs1val_0x2_immval_0x8>:
I_xori_cg_cr_rs1_imm_edges_rs1val_0x2_immval_0x8:
  xori x27, x10, 8 # perform operation
    118c:	00854d93          	xori	x27,x10,8
  # Check if x27 contains the expected result. x12 is the signature ptr, x5 is the link ptr, x4 is a temp reg.
  RVTEST_SIGUPD(x12, x5, x4, x27, I_xori_cg_cr_rs1_imm_edges_rs1val_0x2_immval_0x8, I_xori_cg_cr_rs1_imm_edges_rs1val_0x2_immval_0x8_str)
    1190:	00062203          	lw	x4,0(x12)
    1194:	01b20863          	beq	x4,x27,11a4 <I_xori_cg_cr_rs1_imm_edges_rs1val_0x2_immval_0x8+0x18>
    1198:	324022ef          	jal	x5,34bc <failedtest_x5_x4>
    119c:	0000118c          	.word	0x0000118c
    11a0:	0000a329          	.word	0x0000a329
    11a4:	00460613          	addi	x12,x12,4

# Testcase cr_rs1_imm_edges (rs1 = 0x00000002, imm = 16)
  RVTEST_TESTDATA_LOAD_INT(x24, x20) # load rs1: x20 = 0x00000002
    11a8:	000c2a03          	lw	x20,0(x24)
    11ac:	004c0c13          	addi	x24,x24,4

000011b0 <I_xori_cg_cr_rs1_imm_edges_rs1val_0x2_immval_0x10>:
I_xori_cg_cr_rs1_imm_edges_rs1val_0x2_immval_0x10:
  xori x8, x20, 16 # perform operation
    11b0:	010a4413          	xori	x8,x20,16
  # Check if x8 contains the expected result. x12 is the signature ptr, x5 is the link ptr, x4 is a temp reg.
  RVTEST_SIGUPD(x12, x5, x4, x8, I_xori_cg_cr_rs1_imm_edges_rs1val_0x2_immval_0x10, I_xori_cg_cr_rs1_imm_edges_rs1val_0x2_immval_0x10_str)
    11b4:	00062203          	lw	x4,0(x12)
    11b8:	00820863          	beq	x4,x8,11c8 <I_xori_cg_cr_rs1_imm_edges_rs1val_0x2_immval_0x10+0x18>
    11bc:	300022ef          	jal	x5,34bc <failedtest_x5_x4>
    11c0:	000011b0          	.word	0x000011b0
    11c4:	0000a377          	.word	0x0000a377
    11c8:	00460613          	addi	x12,x12,4

# Testcase cr_rs1_imm_edges (rs1 = 0x00000002, imm = 32)
  RVTEST_TESTDATA_LOAD_INT(x24, x2) # load rs1: x2 = 0x00000002
    11cc:	000c2103          	lw	x2,0(x24)
    11d0:	004c0c13          	addi	x24,x24,4

000011d4 <I_xori_cg_cr_rs1_imm_edges_rs1val_0x2_immval_0x20>:
I_xori_cg_cr_rs1_imm_edges_rs1val_0x2_immval_0x20:
  xori x17, x2, 32 # perform operation
    11d4:	02014893          	xori	x17,x2,32
  # Check if x17 contains the expected result. x12 is the signature ptr, x5 is the link ptr, x4 is a temp reg.
  RVTEST_SIGUPD(x12, x5, x4, x17, I_xori_cg_cr_rs1_imm_edges_rs1val_0x2_immval_0x20, I_xori_cg_cr_rs1_imm_edges_rs1val_0x2_immval_0x20_str)
    11d8:	00062203          	lw	x4,0(x12)
    11dc:	01120863          	beq	x4,x17,11ec <I_xori_cg_cr_rs1_imm_edges_rs1val_0x2_immval_0x20+0x18>
    11e0:	2dc022ef          	jal	x5,34bc <failedtest_x5_x4>
    11e4:	000011d4          	.word	0x000011d4
    11e8:	0000a3c6          	.word	0x0000a3c6
    11ec:	00460613          	addi	x12,x12,4

# Testcase cr_rs1_imm_edges (rs1 = 0x00000002, imm = 64)
  RVTEST_TESTDATA_LOAD_INT(x24, x16) # load rs1: x16 = 0x00000002
    11f0:	000c2803          	lw	x16,0(x24)
    11f4:	004c0c13          	addi	x24,x24,4

000011f8 <I_xori_cg_cr_rs1_imm_edges_rs1val_0x2_immval_0x40>:
I_xori_cg_cr_rs1_imm_edges_rs1val_0x2_immval_0x40:
  xori x1, x16, 64 # perform operation
    11f8:	04084093          	xori	x1,x16,64
  # Check if x1 contains the expected result. x12 is the signature ptr, x5 is the link ptr, x4 is a temp reg.
  RVTEST_SIGUPD(x12, x5, x4, x1, I_xori_cg_cr_rs1_imm_edges_rs1val_0x2_immval_0x40, I_xori_cg_cr_rs1_imm_edges_rs1val_0x2_immval_0x40_str)
    11fc:	00062203          	lw	x4,0(x12)
    1200:	00120863          	beq	x4,x1,1210 <I_xori_cg_cr_rs1_imm_edges_rs1val_0x2_immval_0x40+0x18>
    1204:	2b8022ef          	jal	x5,34bc <failedtest_x5_x4>
    1208:	000011f8          	.word	0x000011f8
    120c:	0000a415          	.word	0x0000a415
    1210:	00460613          	addi	x12,x12,4

# Testcase cr_rs1_imm_edges (rs1 = 0x00000002, imm = 128)
  RVTEST_TESTDATA_LOAD_INT(x24, x31) # load rs1: x31 = 0x00000002
    1214:	000c2f83          	lw	x31,0(x24)
    1218:	004c0c13          	addi	x24,x24,4

0000121c <I_xori_cg_cr_rs1_imm_edges_rs1val_0x2_immval_0x80>:
I_xori_cg_cr_rs1_imm_edges_rs1val_0x2_immval_0x80:
  xori x19, x31, 128 # perform operation
    121c:	080fc993          	xori	x19,x31,128
  # Check if x19 contains the expected result. x12 is the signature ptr, x5 is the link ptr, x4 is a temp reg.
  RVTEST_SIGUPD(x12, x5, x4, x19, I_xori_cg_cr_rs1_imm_edges_rs1val_0x2_immval_0x80, I_xori_cg_cr_rs1_imm_edges_rs1val_0x2_immval_0x80_str)
    1220:	00062203          	lw	x4,0(x12)
    1224:	01320863          	beq	x4,x19,1234 <I_xori_cg_cr_rs1_imm_edges_rs1val_0x2_immval_0x80+0x18>
    1228:	294022ef          	jal	x5,34bc <failedtest_x5_x4>
    122c:	0000121c          	.word	0x0000121c
    1230:	0000a464          	.word	0x0000a464
    1234:	00460613          	addi	x12,x12,4

# Testcase cr_rs1_imm_edges (rs1 = 0x00000002, imm = 256)
  RVTEST_TESTDATA_LOAD_INT(x24, x29) # load rs1: x29 = 0x00000002
    1238:	000c2e83          	lw	x29,0(x24)
    123c:	004c0c13          	addi	x24,x24,4

00001240 <I_xori_cg_cr_rs1_imm_edges_rs1val_0x2_immval_0x100>:
I_xori_cg_cr_rs1_imm_edges_rs1val_0x2_immval_0x100:
  xori x16, x29, 256 # perform operation
    1240:	100ec813          	xori	x16,x29,256
  # Check if x16 contains the expected result. x12 is the signature ptr, x5 is the link ptr, x4 is a temp reg.
  RVTEST_SIGUPD(x12, x5, x4, x16, I_xori_cg_cr_rs1_imm_edges_rs1val_0x2_immval_0x100, I_xori_cg_cr_rs1_imm_edges_rs1val_0x2_immval_0x100_str)
    1244:	00062203          	lw	x4,0(x12)
    1248:	01020863          	beq	x4,x16,1258 <I_xori_cg_cr_rs1_imm_edges_rs1val_0x2_immval_0x100+0x18>
    124c:	270022ef          	jal	x5,34bc <failedtest_x5_x4>
    1250:	00001240          	.word	0x00001240
    1254:	0000a4b3          	.word	0x0000a4b3
    1258:	00460613          	addi	x12,x12,4

# Testcase cr_rs1_imm_edges (rs1 = 0x00000002, imm = 512)
  RVTEST_TESTDATA_LOAD_INT(x24, x11) # load rs1: x11 = 0x00000002
    125c:	000c2583          	lw	x11,0(x24)
    1260:	004c0c13          	addi	x24,x24,4

00001264 <I_xori_cg_cr_rs1_imm_edges_rs1val_0x2_immval_0x200>:
I_xori_cg_cr_rs1_imm_edges_rs1val_0x2_immval_0x200:
  xori x8, x11, 512 # perform operation
    1264:	2005c413          	xori	x8,x11,512
  # Check if x8 contains the expected result. x12 is the signature ptr, x5 is the link ptr, x4 is a temp reg.
  RVTEST_SIGUPD(x12, x5, x4, x8, I_xori_cg_cr_rs1_imm_edges_rs1val_0x2_immval_0x200, I_xori_cg_cr_rs1_imm_edges_rs1val_0x2_immval_0x200_str)
    1268:	00062203          	lw	x4,0(x12)
    126c:	00820863          	beq	x4,x8,127c <I_xori_cg_cr_rs1_imm_edges_rs1val_0x2_immval_0x200+0x18>
    1270:	24c022ef          	jal	x5,34bc <failedtest_x5_x4>
    1274:	00001264          	.word	0x00001264
    1278:	0000a503          	.word	0x0000a503
    127c:	00460613          	addi	x12,x12,4

# Testcase cr_rs1_imm_edges (rs1 = 0x00000002, imm = 1023)
  RVTEST_TESTDATA_LOAD_INT(x24, x15) # load rs1: x15 = 0x00000002
    1280:	000c2783          	lw	x15,0(x24)
    1284:	004c0c13          	addi	x24,x24,4

00001288 <I_xori_cg_cr_rs1_imm_edges_rs1val_0x2_immval_0x3ff>:
I_xori_cg_cr_rs1_imm_edges_rs1val_0x2_immval_0x3ff:
  xori x7, x15, 1023 # perform operation
    1288:	3ff7c393          	xori	x7,x15,1023
  # Check if x7 contains the expected result. x12 is the signature ptr, x5 is the link ptr, x4 is a temp reg.
  RVTEST_SIGUPD(x12, x5, x4, x7, I_xori_cg_cr_rs1_imm_edges_rs1val_0x2_immval_0x3ff, I_xori_cg_cr_rs1_imm_edges_rs1val_0x2_immval_0x3ff_str)
    128c:	00062203          	lw	x4,0(x12)
    1290:	00720863          	beq	x4,x7,12a0 <I_xori_cg_cr_rs1_imm_edges_rs1val_0x2_immval_0x3ff+0x18>
    1294:	228022ef          	jal	x5,34bc <failedtest_x5_x4>
    1298:	00001288          	.word	0x00001288
    129c:	0000a553          	.word	0x0000a553
    12a0:	00460613          	addi	x12,x12,4

# Testcase cr_rs1_imm_edges (rs1 = 0x00000002, imm = 1024)
  RVTEST_TESTDATA_LOAD_INT(x24, x13) # load rs1: x13 = 0x00000002
    12a4:	000c2683          	lw	x13,0(x24)
    12a8:	004c0c13          	addi	x24,x24,4

000012ac <I_xori_cg_cr_rs1_imm_edges_rs1val_0x2_immval_0x400>:
I_xori_cg_cr_rs1_imm_edges_rs1val_0x2_immval_0x400:
  xori x11, x13, 1024 # perform operation
    12ac:	4006c593          	xori	x11,x13,1024
  # Check if x11 contains the expected result. x12 is the signature ptr, x5 is the link ptr, x4 is a temp reg.
  RVTEST_SIGUPD(x12, x5, x4, x11, I_xori_cg_cr_rs1_imm_edges_rs1val_0x2_immval_0x400, I_xori_cg_cr_rs1_imm_edges_rs1val_0x2_immval_0x400_str)
    12b0:	00062203          	lw	x4,0(x12)
    12b4:	00b20863          	beq	x4,x11,12c4 <I_xori_cg_cr_rs1_imm_edges_rs1val_0x2_immval_0x400+0x18>
    12b8:	204022ef          	jal	x5,34bc <failedtest_x5_x4>
    12bc:	000012ac          	.word	0x000012ac
    12c0:	0000a5a3          	.word	0x0000a5a3
    12c4:	00460613          	addi	x12,x12,4

# Testcase cr_rs1_imm_edges (rs1 = 0x00000002, imm = 1795)
  RVTEST_TESTDATA_LOAD_INT(x24, x6) # load rs1: x6 = 0x00000002
    12c8:	000c2303          	lw	x6,0(x24)
    12cc:	004c0c13          	addi	x24,x24,4

000012d0 <I_xori_cg_cr_rs1_imm_edges_rs1val_0x2_immval_0x703>:
I_xori_cg_cr_rs1_imm_edges_rs1val_0x2_immval_0x703:
  xori x16, x6, 1795 # perform operation
    12d0:	70334813          	xori	x16,x6,1795
  # Check if x16 contains the expected result. x12 is the signature ptr, x5 is the link ptr, x4 is a temp reg.
  RVTEST_SIGUPD(x12, x5, x4, x16, I_xori_cg_cr_rs1_imm_edges_rs1val_0x2_immval_0x703, I_xori_cg_cr_rs1_imm_edges_rs1val_0x2_immval_0x703_str)
    12d4:	00062203          	lw	x4,0(x12)
    12d8:	01020863          	beq	x4,x16,12e8 <I_xori_cg_cr_rs1_imm_edges_rs1val_0x2_immval_0x703+0x18>
    12dc:	1e0022ef          	jal	x5,34bc <failedtest_x5_x4>
    12e0:	000012d0          	.word	0x000012d0
    12e4:	0000a5f3          	.word	0x0000a5f3
    12e8:	00460613          	addi	x12,x12,4

# Testcase cr_rs1_imm_edges (rs1 = 0x00000002, imm = 2047)
  RVTEST_TESTDATA_LOAD_INT(x24, x17) # load rs1: x17 = 0x00000002
    12ec:	000c2883          	lw	x17,0(x24)
    12f0:	004c0c13          	addi	x24,x24,4

000012f4 <I_xori_cg_cr_rs1_imm_edges_rs1val_0x2_immval_0x7ff>:
I_xori_cg_cr_rs1_imm_edges_rs1val_0x2_immval_0x7ff:
  xori x15, x17, 2047 # perform operation
    12f4:	7ff8c793          	xori	x15,x17,2047
  # Check if x15 contains the expected result. x12 is the signature ptr, x5 is the link ptr, x4 is a temp reg.
  RVTEST_SIGUPD(x12, x5, x4, x15, I_xori_cg_cr_rs1_imm_edges_rs1val_0x2_immval_0x7ff, I_xori_cg_cr_rs1_imm_edges_rs1val_0x2_immval_0x7ff_str)
    12f8:	00062203          	lw	x4,0(x12)
    12fc:	00f20863          	beq	x4,x15,130c <I_xori_cg_cr_rs1_imm_edges_rs1val_0x2_immval_0x7ff+0x18>
    1300:	1bc022ef          	jal	x5,34bc <failedtest_x5_x4>
    1304:	000012f4          	.word	0x000012f4
    1308:	0000a643          	.word	0x0000a643
    130c:	00460613          	addi	x12,x12,4

# Testcase cr_rs1_imm_edges (rs1 = 0x00000002, imm = -2048)
  RVTEST_TESTDATA_LOAD_INT(x24, x25) # load rs1: x25 = 0x00000002
    1310:	000c2c83          	lw	x25,0(x24)
    1314:	004c0c13          	addi	x24,x24,4

00001318 <I_xori_cg_cr_rs1_imm_edges_rs1val_0x2_immval_m0x800>:
I_xori_cg_cr_rs1_imm_edges_rs1val_0x2_immval_m0x800:
  xori x17, x25, -2048 # perform operation
    1318:	800cc893          	xori	x17,x25,-2048
  # Check if x17 contains the expected result. x12 is the signature ptr, x5 is the link ptr, x4 is a temp reg.
  RVTEST_SIGUPD(x12, x5, x4, x17, I_xori_cg_cr_rs1_imm_edges_rs1val_0x2_immval_m0x800, I_xori_cg_cr_rs1_imm_edges_rs1val_0x2_immval_m0x800_str)
    131c:	00062203          	lw	x4,0(x12)
    1320:	01120863          	beq	x4,x17,1330 <I_xori_cg_cr_rs1_imm_edges_rs1val_0x2_immval_m0x800+0x18>
    1324:	198022ef          	jal	x5,34bc <failedtest_x5_x4>
    1328:	00001318          	.word	0x00001318
    132c:	0000a693          	.word	0x0000a693
    1330:	00460613          	addi	x12,x12,4

# Testcase cr_rs1_imm_edges (rs1 = 0x00000002, imm = -2047)
  RVTEST_TESTDATA_LOAD_INT(x24, x17) # load rs1: x17 = 0x00000002
    1334:	000c2883          	lw	x17,0(x24)
    1338:	004c0c13          	addi	x24,x24,4

0000133c <I_xori_cg_cr_rs1_imm_edges_rs1val_0x2_immval_m0x7ff>:
I_xori_cg_cr_rs1_imm_edges_rs1val_0x2_immval_m0x7ff:
  xori x11, x17, -2047 # perform operation
    133c:	8018c593          	xori	x11,x17,-2047
  # Check if x11 contains the expected result. x12 is the signature ptr, x5 is the link ptr, x4 is a temp reg.
  RVTEST_SIGUPD(x12, x5, x4, x11, I_xori_cg_cr_rs1_imm_edges_rs1val_0x2_immval_m0x7ff, I_xori_cg_cr_rs1_imm_edges_rs1val_0x2_immval_m0x7ff_str)
    1340:	00062203          	lw	x4,0(x12)
    1344:	00b20863          	beq	x4,x11,1354 <I_xori_cg_cr_rs1_imm_edges_rs1val_0x2_immval_m0x7ff+0x18>
    1348:	174022ef          	jal	x5,34bc <failedtest_x5_x4>
    134c:	0000133c          	.word	0x0000133c
    1350:	0000a6e4          	.word	0x0000a6e4
    1354:	00460613          	addi	x12,x12,4

# Testcase cr_rs1_imm_edges (rs1 = 0x00000002, imm = -2)
  RVTEST_TESTDATA_LOAD_INT(x24, x23) # load rs1: x23 = 0x00000002
    1358:	000c2b83          	lw	x23,0(x24)
    135c:	004c0c13          	addi	x24,x24,4

00001360 <I_xori_cg_cr_rs1_imm_edges_rs1val_0x2_immval_m0x2>:
I_xori_cg_cr_rs1_imm_edges_rs1val_0x2_immval_m0x2:
  xori x17, x23, -2 # perform operation
    1360:	ffebc893          	xori	x17,x23,-2
  # Check if x17 contains the expected result. x12 is the signature ptr, x5 is the link ptr, x4 is a temp reg.
  RVTEST_SIGUPD(x12, x5, x4, x17, I_xori_cg_cr_rs1_imm_edges_rs1val_0x2_immval_m0x2, I_xori_cg_cr_rs1_imm_edges_rs1val_0x2_immval_m0x2_str)
    1364:	00062203          	lw	x4,0(x12)
    1368:	01120863          	beq	x4,x17,1378 <I_xori_cg_cr_rs1_imm_edges_rs1val_0x2_immval_m0x2+0x18>
    136c:	150022ef          	jal	x5,34bc <failedtest_x5_x4>
    1370:	00001360          	.word	0x00001360
    1374:	0000a735          	.word	0x0000a735
    1378:	00460613          	addi	x12,x12,4

# Testcase cr_rs1_imm_edges (rs1 = 0x00000002, imm = -1)
  RVTEST_TESTDATA_LOAD_INT(x24, x25) # load rs1: x25 = 0x00000002
    137c:	000c2c83          	lw	x25,0(x24)
    1380:	004c0c13          	addi	x24,x24,4

00001384 <I_xori_cg_cr_rs1_imm_edges_rs1val_0x2_immval_m0x1>:
I_xori_cg_cr_rs1_imm_edges_rs1val_0x2_immval_m0x1:
  xori x3, x25, -1 # perform operation
    1384:	fffcc193          	xori	x3,x25,-1
  # Check if x3 contains the expected result. x12 is the signature ptr, x5 is the link ptr, x4 is a temp reg.
  RVTEST_SIGUPD(x12, x5, x4, x3, I_xori_cg_cr_rs1_imm_edges_rs1val_0x2_immval_m0x1, I_xori_cg_cr_rs1_imm_edges_rs1val_0x2_immval_m0x1_str)
    1388:	00062203          	lw	x4,0(x12)
    138c:	00320863          	beq	x4,x3,139c <I_xori_cg_cr_rs1_imm_edges_rs1val_0x2_immval_m0x1+0x18>
    1390:	12c022ef          	jal	x5,34bc <failedtest_x5_x4>
    1394:	00001384          	.word	0x00001384
    1398:	0000a784          	.word	0x0000a784
    139c:	00460613          	addi	x12,x12,4

# Testcase cr_rs1_imm_edges (rs1 = 0x80000000, imm = 0)
  RVTEST_TESTDATA_LOAD_INT(x24, x7) # load rs1: x7 = 0x80000000
    13a0:	000c2383          	lw	x7,0(x24)
    13a4:	004c0c13          	addi	x24,x24,4

000013a8 <I_xori_cg_cr_rs1_imm_edges_rs1val_0x80000000_immval_0x0>:
I_xori_cg_cr_rs1_imm_edges_rs1val_0x80000000_immval_0x0:
  xori x11, x7, 0 # perform operation
    13a8:	0003c593          	xori	x11,x7,0
  # Check if x11 contains the expected result. x12 is the signature ptr, x5 is the link ptr, x4 is a temp reg.
  RVTEST_SIGUPD(x12, x5, x4, x11, I_xori_cg_cr_rs1_imm_edges_rs1val_0x80000000_immval_0x0, I_xori_cg_cr_rs1_imm_edges_rs1val_0x80000000_immval_0x0_str)
    13ac:	00062203          	lw	x4,0(x12)
    13b0:	00b20863          	beq	x4,x11,13c0 <I_xori_cg_cr_rs1_imm_edges_rs1val_0x80000000_immval_0x0+0x18>
    13b4:	108022ef          	jal	x5,34bc <failedtest_x5_x4>
    13b8:	000013a8          	.word	0x000013a8
    13bc:	0000a7d3          	.word	0x0000a7d3
    13c0:	00460613          	addi	x12,x12,4

# Testcase cr_rs1_imm_edges (rs1 = 0x80000000, imm = 1)
  RVTEST_TESTDATA_LOAD_INT(x24, x28) # load rs1: x28 = 0x80000000
    13c4:	000c2e03          	lw	x28,0(x24)
    13c8:	004c0c13          	addi	x24,x24,4

000013cc <I_xori_cg_cr_rs1_imm_edges_rs1val_0x80000000_immval_0x1>:
I_xori_cg_cr_rs1_imm_edges_rs1val_0x80000000_immval_0x1:
  xori x14, x28, 1 # perform operation
    13cc:	001e4713          	xori	x14,x28,1
  # Check if x14 contains the expected result. x12 is the signature ptr, x5 is the link ptr, x4 is a temp reg.
  RVTEST_SIGUPD(x12, x5, x4, x14, I_xori_cg_cr_rs1_imm_edges_rs1val_0x80000000_immval_0x1, I_xori_cg_cr_rs1_imm_edges_rs1val_0x80000000_immval_0x1_str)
    13d0:	00062203          	lw	x4,0(x12)
    13d4:	00e20863          	beq	x4,x14,13e4 <I_xori_cg_cr_rs1_imm_edges_rs1val_0x80000000_immval_0x1+0x18>
    13d8:	0e4022ef          	jal	x5,34bc <failedtest_x5_x4>
    13dc:	000013cc          	.word	0x000013cc
    13e0:	0000a828          	.word	0x0000a828
    13e4:	00460613          	addi	x12,x12,4

# Testcase cr_rs1_imm_edges (rs1 = 0x80000000, imm = 2)
  RVTEST_TESTDATA_LOAD_INT(x24, x20) # load rs1: x20 = 0x80000000
    13e8:	000c2a03          	lw	x20,0(x24)
    13ec:	004c0c13          	addi	x24,x24,4

000013f0 <I_xori_cg_cr_rs1_imm_edges_rs1val_0x80000000_immval_0x2>:
I_xori_cg_cr_rs1_imm_edges_rs1val_0x80000000_immval_0x2:
  xori x8, x20, 2 # perform operation
    13f0:	002a4413          	xori	x8,x20,2
  # Check if x8 contains the expected result. x12 is the signature ptr, x5 is the link ptr, x4 is a temp reg.
  RVTEST_SIGUPD(x12, x5, x4, x8, I_xori_cg_cr_rs1_imm_edges_rs1val_0x80000000_immval_0x2, I_xori_cg_cr_rs1_imm_edges_rs1val_0x80000000_immval_0x2_str)
    13f4:	00062203          	lw	x4,0(x12)
    13f8:	00820863          	beq	x4,x8,1408 <I_xori_cg_cr_rs1_imm_edges_rs1val_0x80000000_immval_0x2+0x18>
    13fc:	0c0022ef          	jal	x5,34bc <failedtest_x5_x4>
    1400:	000013f0          	.word	0x000013f0
    1404:	0000a87d          	.word	0x0000a87d
    1408:	00460613          	addi	x12,x12,4

# Testcase cr_rs1_imm_edges (rs1 = 0x80000000, imm = 3)
  RVTEST_TESTDATA_LOAD_INT(x24, x22) # load rs1: x22 = 0x80000000
    140c:	000c2b03          	lw	x22,0(x24)
    1410:	004c0c13          	addi	x24,x24,4

00001414 <I_xori_cg_cr_rs1_imm_edges_rs1val_0x80000000_immval_0x3>:
I_xori_cg_cr_rs1_imm_edges_rs1val_0x80000000_immval_0x3:
  xori x6, x22, 3 # perform operation
    1414:	003b4313          	xori	x6,x22,3
  # Check if x6 contains the expected result. x12 is the signature ptr, x5 is the link ptr, x4 is a temp reg.
  RVTEST_SIGUPD(x12, x5, x4, x6, I_xori_cg_cr_rs1_imm_edges_rs1val_0x80000000_immval_0x3, I_xori_cg_cr_rs1_imm_edges_rs1val_0x80000000_immval_0x3_str)
    1418:	00062203          	lw	x4,0(x12)
    141c:	00620863          	beq	x4,x6,142c <I_xori_cg_cr_rs1_imm_edges_rs1val_0x80000000_immval_0x3+0x18>
    1420:	09c022ef          	jal	x5,34bc <failedtest_x5_x4>
    1424:	00001414          	.word	0x00001414
    1428:	0000a8d2          	.word	0x0000a8d2
    142c:	00460613          	addi	x12,x12,4

# Testcase cr_rs1_imm_edges (rs1 = 0x80000000, imm = 4)
  RVTEST_TESTDATA_LOAD_INT(x24, x11) # load rs1: x11 = 0x80000000
    1430:	000c2583          	lw	x11,0(x24)
    1434:	004c0c13          	addi	x24,x24,4

00001438 <I_xori_cg_cr_rs1_imm_edges_rs1val_0x80000000_immval_0x4>:
I_xori_cg_cr_rs1_imm_edges_rs1val_0x80000000_immval_0x4:
  xori x20, x11, 4 # perform operation
    1438:	0045ca13          	xori	x20,x11,4
  # Check if x20 contains the expected result. x12 is the signature ptr, x5 is the link ptr, x4 is a temp reg.
  RVTEST_SIGUPD(x12, x5, x4, x20, I_xori_cg_cr_rs1_imm_edges_rs1val_0x80000000_immval_0x4, I_xori_cg_cr_rs1_imm_edges_rs1val_0x80000000_immval_0x4_str)
    143c:	00062203          	lw	x4,0(x12)
    1440:	01420863          	beq	x4,x20,1450 <I_xori_cg_cr_rs1_imm_edges_rs1val_0x80000000_immval_0x4+0x18>
    1444:	078022ef          	jal	x5,34bc <failedtest_x5_x4>
    1448:	00001438          	.word	0x00001438
    144c:	0000a927          	.word	0x0000a927
    1450:	00460613          	addi	x12,x12,4

# Testcase cr_rs1_imm_edges (rs1 = 0x80000000, imm = 8)
  RVTEST_TESTDATA_LOAD_INT(x24, x19) # load rs1: x19 = 0x80000000
    1454:	000c2983          	lw	x19,0(x24)
    1458:	004c0c13          	addi	x24,x24,4

0000145c <I_xori_cg_cr_rs1_imm_edges_rs1val_0x80000000_immval_0x8>:
I_xori_cg_cr_rs1_imm_edges_rs1val_0x80000000_immval_0x8:
  xori x14, x19, 8 # perform operation
    145c:	0089c713          	xori	x14,x19,8
  # Check if x14 contains the expected result. x12 is the signature ptr, x5 is the link ptr, x4 is a temp reg.
  RVTEST_SIGUPD(x12, x5, x4, x14, I_xori_cg_cr_rs1_imm_edges_rs1val_0x80000000_immval_0x8, I_xori_cg_cr_rs1_imm_edges_rs1val_0x80000000_immval_0x8_str)
    1460:	00062203          	lw	x4,0(x12)
    1464:	00e20863          	beq	x4,x14,1474 <I_xori_cg_cr_rs1_imm_edges_rs1val_0x80000000_immval_0x8+0x18>
    1468:	054022ef          	jal	x5,34bc <failedtest_x5_x4>
    146c:	0000145c          	.word	0x0000145c
    1470:	0000a97c          	.word	0x0000a97c
    1474:	00460613          	addi	x12,x12,4

# Testcase cr_rs1_imm_edges (rs1 = 0x80000000, imm = 16)
  RVTEST_TESTDATA_LOAD_INT(x24, x14) # load rs1: x14 = 0x80000000
    1478:	000c2703          	lw	x14,0(x24)
    147c:	004c0c13          	addi	x24,x24,4

00001480 <I_xori_cg_cr_rs1_imm_edges_rs1val_0x80000000_immval_0x10>:
I_xori_cg_cr_rs1_imm_edges_rs1val_0x80000000_immval_0x10:
  xori x30, x14, 16 # perform operation
    1480:	01074f13          	xori	x30,x14,16
  # Check if x30 contains the expected result. x12 is the signature ptr, x5 is the link ptr, x4 is a temp reg.
  RVTEST_SIGUPD(x12, x5, x4, x30, I_xori_cg_cr_rs1_imm_edges_rs1val_0x80000000_immval_0x10, I_xori_cg_cr_rs1_imm_edges_rs1val_0x80000000_immval_0x10_str)
    1484:	00062203          	lw	x4,0(x12)
    1488:	01e20863          	beq	x4,x30,1498 <I_xori_cg_cr_rs1_imm_edges_rs1val_0x80000000_immval_0x10+0x18>
    148c:	030022ef          	jal	x5,34bc <failedtest_x5_x4>
    1490:	00001480          	.word	0x00001480
    1494:	0000a9d1          	.word	0x0000a9d1
    1498:	00460613          	addi	x12,x12,4

# Testcase cr_rs1_imm_edges (rs1 = 0x80000000, imm = 32)
  RVTEST_TESTDATA_LOAD_INT(x24, x17) # load rs1: x17 = 0x80000000
    149c:	000c2883          	lw	x17,0(x24)
    14a0:	004c0c13          	addi	x24,x24,4

000014a4 <I_xori_cg_cr_rs1_imm_edges_rs1val_0x80000000_immval_0x20>:
I_xori_cg_cr_rs1_imm_edges_rs1val_0x80000000_immval_0x20:
  xori x25, x17, 32 # perform operation
    14a4:	0208cc93          	xori	x25,x17,32
  # Check if x25 contains the expected result. x12 is the signature ptr, x5 is the link ptr, x4 is a temp reg.
  RVTEST_SIGUPD(x12, x5, x4, x25, I_xori_cg_cr_rs1_imm_edges_rs1val_0x80000000_immval_0x20, I_xori_cg_cr_rs1_imm_edges_rs1val_0x80000000_immval_0x20_str)
    14a8:	00062203          	lw	x4,0(x12)
    14ac:	01920863          	beq	x4,x25,14bc <I_xori_cg_cr_rs1_imm_edges_rs1val_0x80000000_immval_0x20+0x18>
    14b0:	00c022ef          	jal	x5,34bc <failedtest_x5_x4>
    14b4:	000014a4          	.word	0x000014a4
    14b8:	0000aa27          	.word	0x0000aa27
    14bc:	00460613          	addi	x12,x12,4

# Testcase cr_rs1_imm_edges (rs1 = 0x80000000, imm = 64)
  RVTEST_TESTDATA_LOAD_INT(x24, x1) # load rs1: x1 = 0x80000000
    14c0:	000c2083          	lw	x1,0(x24)
    14c4:	004c0c13          	addi	x24,x24,4

000014c8 <I_xori_cg_cr_rs1_imm_edges_rs1val_0x80000000_immval_0x40>:
I_xori_cg_cr_rs1_imm_edges_rs1val_0x80000000_immval_0x40:
  xori x15, x1, 64 # perform operation
    14c8:	0400c793          	xori	x15,x1,64
  # Check if x15 contains the expected result. x12 is the signature ptr, x5 is the link ptr, x4 is a temp reg.
  RVTEST_SIGUPD(x12, x5, x4, x15, I_xori_cg_cr_rs1_imm_edges_rs1val_0x80000000_immval_0x40, I_xori_cg_cr_rs1_imm_edges_rs1val_0x80000000_immval_0x40_str)
    14cc:	00062203          	lw	x4,0(x12)
    14d0:	00f20863          	beq	x4,x15,14e0 <I_xori_cg_cr_rs1_imm_edges_rs1val_0x80000000_immval_0x40+0x18>
    14d4:	7e9012ef          	jal	x5,34bc <failedtest_x5_x4>
    14d8:	000014c8          	.word	0x000014c8
    14dc:	0000aa7d          	.word	0x0000aa7d
    14e0:	00460613          	addi	x12,x12,4

# Testcase cr_rs1_imm_edges (rs1 = 0x80000000, imm = 128)
  RVTEST_TESTDATA_LOAD_INT(x24, x7) # load rs1: x7 = 0x80000000
    14e4:	000c2383          	lw	x7,0(x24)
    14e8:	004c0c13          	addi	x24,x24,4

000014ec <I_xori_cg_cr_rs1_imm_edges_rs1val_0x80000000_immval_0x80>:
I_xori_cg_cr_rs1_imm_edges_rs1val_0x80000000_immval_0x80:
  xori x26, x7, 128 # perform operation
    14ec:	0803cd13          	xori	x26,x7,128
  # Check if x26 contains the expected result. x12 is the signature ptr, x5 is the link ptr, x4 is a temp reg.
  RVTEST_SIGUPD(x12, x5, x4, x26, I_xori_cg_cr_rs1_imm_edges_rs1val_0x80000000_immval_0x80, I_xori_cg_cr_rs1_imm_edges_rs1val_0x80000000_immval_0x80_str)
    14f0:	00062203          	lw	x4,0(x12)
    14f4:	01a20863          	beq	x4,x26,1504 <I_xori_cg_cr_rs1_imm_edges_rs1val_0x80000000_immval_0x80+0x18>
    14f8:	7c5012ef          	jal	x5,34bc <failedtest_x5_x4>
    14fc:	000014ec          	.word	0x000014ec
    1500:	0000aad3          	.word	0x0000aad3
    1504:	00460613          	addi	x12,x12,4

# Testcase cr_rs1_imm_edges (rs1 = 0x80000000, imm = 256)
  RVTEST_TESTDATA_LOAD_INT(x24, x7) # load rs1: x7 = 0x80000000
    1508:	000c2383          	lw	x7,0(x24)
    150c:	004c0c13          	addi	x24,x24,4

00001510 <I_xori_cg_cr_rs1_imm_edges_rs1val_0x80000000_immval_0x100>:
I_xori_cg_cr_rs1_imm_edges_rs1val_0x80000000_immval_0x100:
  xori x15, x7, 256 # perform operation
    1510:	1003c793          	xori	x15,x7,256
  # Check if x15 contains the expected result. x12 is the signature ptr, x5 is the link ptr, x4 is a temp reg.
  RVTEST_SIGUPD(x12, x5, x4, x15, I_xori_cg_cr_rs1_imm_edges_rs1val_0x80000000_immval_0x100, I_xori_cg_cr_rs1_imm_edges_rs1val_0x80000000_immval_0x100_str)
    1514:	00062203          	lw	x4,0(x12)
    1518:	00f20863          	beq	x4,x15,1528 <I_xori_cg_cr_rs1_imm_edges_rs1val_0x80000000_immval_0x100+0x18>
    151c:	7a1012ef          	jal	x5,34bc <failedtest_x5_x4>
    1520:	00001510          	.word	0x00001510
    1524:	0000ab29          	.word	0x0000ab29
    1528:	00460613          	addi	x12,x12,4

# Testcase cr_rs1_imm_edges (rs1 = 0x80000000, imm = 512)
  RVTEST_TESTDATA_LOAD_INT(x24, x9) # load rs1: x9 = 0x80000000
    152c:	000c2483          	lw	x9,0(x24)
    1530:	004c0c13          	addi	x24,x24,4

00001534 <I_xori_cg_cr_rs1_imm_edges_rs1val_0x80000000_immval_0x200>:
I_xori_cg_cr_rs1_imm_edges_rs1val_0x80000000_immval_0x200:
  xori x11, x9, 512 # perform operation
    1534:	2004c593          	xori	x11,x9,512
  # Check if x11 contains the expected result. x12 is the signature ptr, x5 is the link ptr, x4 is a temp reg.
  RVTEST_SIGUPD(x12, x5, x4, x11, I_xori_cg_cr_rs1_imm_edges_rs1val_0x80000000_immval_0x200, I_xori_cg_cr_rs1_imm_edges_rs1val_0x80000000_immval_0x200_str)
    1538:	00062203          	lw	x4,0(x12)
    153c:	00b20863          	beq	x4,x11,154c <I_xori_cg_cr_rs1_imm_edges_rs1val_0x80000000_immval_0x200+0x18>
    1540:	77d012ef          	jal	x5,34bc <failedtest_x5_x4>
    1544:	00001534          	.word	0x00001534
    1548:	0000ab80          	.word	0x0000ab80
    154c:	00460613          	addi	x12,x12,4

# Testcase cr_rs1_imm_edges (rs1 = 0x80000000, imm = 1023)
  RVTEST_TESTDATA_LOAD_INT(x24, x13) # load rs1: x13 = 0x80000000
    1550:	000c2683          	lw	x13,0(x24)
    1554:	004c0c13          	addi	x24,x24,4

00001558 <I_xori_cg_cr_rs1_imm_edges_rs1val_0x80000000_immval_0x3ff>:
I_xori_cg_cr_rs1_imm_edges_rs1val_0x80000000_immval_0x3ff:
  xori x15, x13, 1023 # perform operation
    1558:	3ff6c793          	xori	x15,x13,1023
  # Check if x15 contains the expected result. x12 is the signature ptr, x5 is the link ptr, x4 is a temp reg.
  RVTEST_SIGUPD(x12, x5, x4, x15, I_xori_cg_cr_rs1_imm_edges_rs1val_0x80000000_immval_0x3ff, I_xori_cg_cr_rs1_imm_edges_rs1val_0x80000000_immval_0x3ff_str)
    155c:	00062203          	lw	x4,0(x12)
    1560:	00f20863          	beq	x4,x15,1570 <I_xori_cg_cr_rs1_imm_edges_rs1val_0x80000000_immval_0x3ff+0x18>
    1564:	759012ef          	jal	x5,34bc <failedtest_x5_x4>
    1568:	00001558          	.word	0x00001558
    156c:	0000abd7          	.word	0x0000abd7
    1570:	00460613          	addi	x12,x12,4

# Testcase cr_rs1_imm_edges (rs1 = 0x80000000, imm = 1024)
  RVTEST_TESTDATA_LOAD_INT(x24, x15) # load rs1: x15 = 0x80000000
    1574:	000c2783          	lw	x15,0(x24)
    1578:	004c0c13          	addi	x24,x24,4

0000157c <I_xori_cg_cr_rs1_imm_edges_rs1val_0x80000000_immval_0x400>:
I_xori_cg_cr_rs1_imm_edges_rs1val_0x80000000_immval_0x400:
  xori x16, x15, 1024 # perform operation
    157c:	4007c813          	xori	x16,x15,1024
  # Check if x16 contains the expected result. x12 is the signature ptr, x5 is the link ptr, x4 is a temp reg.
  RVTEST_SIGUPD(x12, x5, x4, x16, I_xori_cg_cr_rs1_imm_edges_rs1val_0x80000000_immval_0x400, I_xori_cg_cr_rs1_imm_edges_rs1val_0x80000000_immval_0x400_str)
    1580:	00062203          	lw	x4,0(x12)
    1584:	01020863          	beq	x4,x16,1594 <I_xori_cg_cr_rs1_imm_edges_rs1val_0x80000000_immval_0x400+0x18>
    1588:	735012ef          	jal	x5,34bc <failedtest_x5_x4>
    158c:	0000157c          	.word	0x0000157c
    1590:	0000ac2e          	.word	0x0000ac2e
    1594:	00460613          	addi	x12,x12,4

# Testcase cr_rs1_imm_edges (rs1 = 0x80000000, imm = 1795)
  RVTEST_TESTDATA_LOAD_INT(x24, x6) # load rs1: x6 = 0x80000000
    1598:	000c2303          	lw	x6,0(x24)
    159c:	004c0c13          	addi	x24,x24,4

000015a0 <I_xori_cg_cr_rs1_imm_edges_rs1val_0x80000000_immval_0x703>:
I_xori_cg_cr_rs1_imm_edges_rs1val_0x80000000_immval_0x703:
  xori x9, x6, 1795 # perform operation
    15a0:	70334493          	xori	x9,x6,1795
  # Check if x9 contains the expected result. x12 is the signature ptr, x5 is the link ptr, x4 is a temp reg.
  RVTEST_SIGUPD(x12, x5, x4, x9, I_xori_cg_cr_rs1_imm_edges_rs1val_0x80000000_immval_0x703, I_xori_cg_cr_rs1_imm_edges_rs1val_0x80000000_immval_0x703_str)
    15a4:	00062203          	lw	x4,0(x12)
    15a8:	00920863          	beq	x4,x9,15b8 <I_xori_cg_cr_rs1_imm_edges_rs1val_0x80000000_immval_0x703+0x18>
    15ac:	711012ef          	jal	x5,34bc <failedtest_x5_x4>
    15b0:	000015a0          	.word	0x000015a0
    15b4:	0000ac85          	.word	0x0000ac85
    15b8:	00460613          	addi	x12,x12,4

# Testcase cr_rs1_imm_edges (rs1 = 0x80000000, imm = 2047)
  RVTEST_TESTDATA_LOAD_INT(x24, x7) # load rs1: x7 = 0x80000000
    15bc:	000c2383          	lw	x7,0(x24)
    15c0:	004c0c13          	addi	x24,x24,4

000015c4 <I_xori_cg_cr_rs1_imm_edges_rs1val_0x80000000_immval_0x7ff>:
I_xori_cg_cr_rs1_imm_edges_rs1val_0x80000000_immval_0x7ff:
  xori x21, x7, 2047 # perform operation
    15c4:	7ff3ca93          	xori	x21,x7,2047
  # Check if x21 contains the expected result. x12 is the signature ptr, x5 is the link ptr, x4 is a temp reg.
  RVTEST_SIGUPD(x12, x5, x4, x21, I_xori_cg_cr_rs1_imm_edges_rs1val_0x80000000_immval_0x7ff, I_xori_cg_cr_rs1_imm_edges_rs1val_0x80000000_immval_0x7ff_str)
    15c8:	00062203          	lw	x4,0(x12)
    15cc:	01520863          	beq	x4,x21,15dc <I_xori_cg_cr_rs1_imm_edges_rs1val_0x80000000_immval_0x7ff+0x18>
    15d0:	6ed012ef          	jal	x5,34bc <failedtest_x5_x4>
    15d4:	000015c4          	.word	0x000015c4
    15d8:	0000acdc          	.word	0x0000acdc
    15dc:	00460613          	addi	x12,x12,4

# Testcase cr_rs1_imm_edges (rs1 = 0x80000000, imm = -2048)
  RVTEST_TESTDATA_LOAD_INT(x24, x23) # load rs1: x23 = 0x80000000
    15e0:	000c2b83          	lw	x23,0(x24)
    15e4:	004c0c13          	addi	x24,x24,4

000015e8 <I_xori_cg_cr_rs1_imm_edges_rs1val_0x80000000_immval_m0x800>:
I_xori_cg_cr_rs1_imm_edges_rs1val_0x80000000_immval_m0x800:
  xori x8, x23, -2048 # perform operation
    15e8:	800bc413          	xori	x8,x23,-2048
  # Check if x8 contains the expected result. x12 is the signature ptr, x5 is the link ptr, x4 is a temp reg.
  RVTEST_SIGUPD(x12, x5, x4, x8, I_xori_cg_cr_rs1_imm_edges_rs1val_0x80000000_immval_m0x800, I_xori_cg_cr_rs1_imm_edges_rs1val_0x80000000_immval_m0x800_str)
    15ec:	00062203          	lw	x4,0(x12)
    15f0:	00820863          	beq	x4,x8,1600 <I_xori_cg_cr_rs1_imm_edges_rs1val_0x80000000_immval_m0x800+0x18>
    15f4:	6c9012ef          	jal	x5,34bc <failedtest_x5_x4>
    15f8:	000015e8          	.word	0x000015e8
    15fc:	0000ad33          	.word	0x0000ad33
    1600:	00460613          	addi	x12,x12,4

# Testcase cr_rs1_imm_edges (rs1 = 0x80000000, imm = -2047)
  RVTEST_TESTDATA_LOAD_INT(x24, x30) # load rs1: x30 = 0x80000000
    1604:	000c2f03          	lw	x30,0(x24)
    1608:	004c0c13          	addi	x24,x24,4

0000160c <I_xori_cg_cr_rs1_imm_edges_rs1val_0x80000000_immval_m0x7ff>:
I_xori_cg_cr_rs1_imm_edges_rs1val_0x80000000_immval_m0x7ff:
  xori x19, x30, -2047 # perform operation
    160c:	801f4993          	xori	x19,x30,-2047
  # Check if x19 contains the expected result. x12 is the signature ptr, x5 is the link ptr, x4 is a temp reg.
  RVTEST_SIGUPD(x12, x5, x4, x19, I_xori_cg_cr_rs1_imm_edges_rs1val_0x80000000_immval_m0x7ff, I_xori_cg_cr_rs1_imm_edges_rs1val_0x80000000_immval_m0x7ff_str)
    1610:	00062203          	lw	x4,0(x12)
    1614:	01320863          	beq	x4,x19,1624 <I_xori_cg_cr_rs1_imm_edges_rs1val_0x80000000_immval_m0x7ff+0x18>
    1618:	6a5012ef          	jal	x5,34bc <failedtest_x5_x4>
    161c:	0000160c          	.word	0x0000160c
    1620:	0000ad8b          	.word	0x0000ad8b
    1624:	00460613          	addi	x12,x12,4

# Testcase cr_rs1_imm_edges (rs1 = 0x80000000, imm = -2)
  RVTEST_TESTDATA_LOAD_INT(x24, x18) # load rs1: x18 = 0x80000000
    1628:	000c2903          	lw	x18,0(x24)
    162c:	004c0c13          	addi	x24,x24,4

00001630 <I_xori_cg_cr_rs1_imm_edges_rs1val_0x80000000_immval_m0x2>:
I_xori_cg_cr_rs1_imm_edges_rs1val_0x80000000_immval_m0x2:
  xori x6, x18, -2 # perform operation
    1630:	ffe94313          	xori	x6,x18,-2
  # Check if x6 contains the expected result. x12 is the signature ptr, x5 is the link ptr, x4 is a temp reg.
  RVTEST_SIGUPD(x12, x5, x4, x6, I_xori_cg_cr_rs1_imm_edges_rs1val_0x80000000_immval_m0x2, I_xori_cg_cr_rs1_imm_edges_rs1val_0x80000000_immval_m0x2_str)
    1634:	00062203          	lw	x4,0(x12)
    1638:	00620863          	beq	x4,x6,1648 <I_xori_cg_cr_rs1_imm_edges_rs1val_0x80000000_immval_m0x2+0x18>
    163c:	681012ef          	jal	x5,34bc <failedtest_x5_x4>
    1640:	00001630          	.word	0x00001630
    1644:	0000ade3          	.word	0x0000ade3
    1648:	00460613          	addi	x12,x12,4

# Testcase cr_rs1_imm_edges (rs1 = 0x80000000, imm = -1)
  RVTEST_TESTDATA_LOAD_INT(x24, x6) # load rs1: x6 = 0x80000000
    164c:	000c2303          	lw	x6,0(x24)
    1650:	004c0c13          	addi	x24,x24,4

00001654 <I_xori_cg_cr_rs1_imm_edges_rs1val_0x80000000_immval_m0x1>:
I_xori_cg_cr_rs1_imm_edges_rs1val_0x80000000_immval_m0x1:
  xori x15, x6, -1 # perform operation
    1654:	fff34793          	xori	x15,x6,-1
  # Check if x15 contains the expected result. x12 is the signature ptr, x5 is the link ptr, x4 is a temp reg.
  RVTEST_SIGUPD(x12, x5, x4, x15, I_xori_cg_cr_rs1_imm_edges_rs1val_0x80000000_immval_m0x1, I_xori_cg_cr_rs1_imm_edges_rs1val_0x80000000_immval_m0x1_str)
    1658:	00062203          	lw	x4,0(x12)
    165c:	00f20863          	beq	x4,x15,166c <I_xori_cg_cr_rs1_imm_edges_rs1val_0x80000000_immval_m0x1+0x18>
    1660:	65d012ef          	jal	x5,34bc <failedtest_x5_x4>
    1664:	00001654          	.word	0x00001654
    1668:	0000ae39          	.word	0x0000ae39
    166c:	00460613          	addi	x12,x12,4

# Testcase cr_rs1_imm_edges (rs1 = 0x80000001, imm = 0)
  RVTEST_TESTDATA_LOAD_INT(x24, x16) # load rs1: x16 = 0x80000001
    1670:	000c2803          	lw	x16,0(x24)
    1674:	004c0c13          	addi	x24,x24,4

00001678 <I_xori_cg_cr_rs1_imm_edges_rs1val_0x80000001_immval_0x0>:
I_xori_cg_cr_rs1_imm_edges_rs1val_0x80000001_immval_0x0:
  xori x7, x16, 0 # perform operation
    1678:	00084393          	xori	x7,x16,0
  # Check if x7 contains the expected result. x12 is the signature ptr, x5 is the link ptr, x4 is a temp reg.
  RVTEST_SIGUPD(x12, x5, x4, x7, I_xori_cg_cr_rs1_imm_edges_rs1val_0x80000001_immval_0x0, I_xori_cg_cr_rs1_imm_edges_rs1val_0x80000001_immval_0x0_str)
    167c:	00062203          	lw	x4,0(x12)
    1680:	00720863          	beq	x4,x7,1690 <I_xori_cg_cr_rs1_imm_edges_rs1val_0x80000001_immval_0x0+0x18>
    1684:	639012ef          	jal	x5,34bc <failedtest_x5_x4>
    1688:	00001678          	.word	0x00001678
    168c:	0000ae8f          	.word	0x0000ae8f
    1690:	00460613          	addi	x12,x12,4

# Testcase cr_rs1_imm_edges (rs1 = 0x80000001, imm = 1)
  RVTEST_TESTDATA_LOAD_INT(x24, x25) # load rs1: x25 = 0x80000001
    1694:	000c2c83          	lw	x25,0(x24)
    1698:	004c0c13          	addi	x24,x24,4

0000169c <I_xori_cg_cr_rs1_imm_edges_rs1val_0x80000001_immval_0x1>:
I_xori_cg_cr_rs1_imm_edges_rs1val_0x80000001_immval_0x1:
  xori x1, x25, 1 # perform operation
    169c:	001cc093          	xori	x1,x25,1
  # Check if x1 contains the expected result. x12 is the signature ptr, x5 is the link ptr, x4 is a temp reg.
  RVTEST_SIGUPD(x12, x5, x4, x1, I_xori_cg_cr_rs1_imm_edges_rs1val_0x80000001_immval_0x1, I_xori_cg_cr_rs1_imm_edges_rs1val_0x80000001_immval_0x1_str)
    16a0:	00062203          	lw	x4,0(x12)
    16a4:	00120863          	beq	x4,x1,16b4 <I_xori_cg_cr_rs1_imm_edges_rs1val_0x80000001_immval_0x1+0x18>
    16a8:	615012ef          	jal	x5,34bc <failedtest_x5_x4>
    16ac:	0000169c          	.word	0x0000169c
    16b0:	0000aee4          	.word	0x0000aee4
    16b4:	00460613          	addi	x12,x12,4

# Testcase cr_rs1_imm_edges (rs1 = 0x80000001, imm = 2)
  RVTEST_TESTDATA_LOAD_INT(x24, x23) # load rs1: x23 = 0x80000001
    16b8:	000c2b83          	lw	x23,0(x24)
    16bc:	004c0c13          	addi	x24,x24,4

000016c0 <I_xori_cg_cr_rs1_imm_edges_rs1val_0x80000001_immval_0x2>:
I_xori_cg_cr_rs1_imm_edges_rs1val_0x80000001_immval_0x2:
  xori x6, x23, 2 # perform operation
    16c0:	002bc313          	xori	x6,x23,2
  # Check if x6 contains the expected result. x12 is the signature ptr, x5 is the link ptr, x4 is a temp reg.
  RVTEST_SIGUPD(x12, x5, x4, x6, I_xori_cg_cr_rs1_imm_edges_rs1val_0x80000001_immval_0x2, I_xori_cg_cr_rs1_imm_edges_rs1val_0x80000001_immval_0x2_str)
    16c4:	00062203          	lw	x4,0(x12)
    16c8:	00620863          	beq	x4,x6,16d8 <I_xori_cg_cr_rs1_imm_edges_rs1val_0x80000001_immval_0x2+0x18>
    16cc:	5f1012ef          	jal	x5,34bc <failedtest_x5_x4>
    16d0:	000016c0          	.word	0x000016c0
    16d4:	0000af39          	.word	0x0000af39
    16d8:	00460613          	addi	x12,x12,4

# Testcase cr_rs1_imm_edges (rs1 = 0x80000001, imm = 3)
  RVTEST_TESTDATA_LOAD_INT(x24, x25) # load rs1: x25 = 0x80000001
    16dc:	000c2c83          	lw	x25,0(x24)
    16e0:	004c0c13          	addi	x24,x24,4

000016e4 <I_xori_cg_cr_rs1_imm_edges_rs1val_0x80000001_immval_0x3>:
I_xori_cg_cr_rs1_imm_edges_rs1val_0x80000001_immval_0x3:
  xori x9, x25, 3 # perform operation
    16e4:	003cc493          	xori	x9,x25,3
  # Check if x9 contains the expected result. x12 is the signature ptr, x5 is the link ptr, x4 is a temp reg.
  RVTEST_SIGUPD(x12, x5, x4, x9, I_xori_cg_cr_rs1_imm_edges_rs1val_0x80000001_immval_0x3, I_xori_cg_cr_rs1_imm_edges_rs1val_0x80000001_immval_0x3_str)
    16e8:	00062203          	lw	x4,0(x12)
    16ec:	00920863          	beq	x4,x9,16fc <I_xori_cg_cr_rs1_imm_edges_rs1val_0x80000001_immval_0x3+0x18>
    16f0:	5cd012ef          	jal	x5,34bc <failedtest_x5_x4>
    16f4:	000016e4          	.word	0x000016e4
    16f8:	0000af8e          	.word	0x0000af8e
    16fc:	00460613          	addi	x12,x12,4

# Testcase cr_rs1_imm_edges (rs1 = 0x80000001, imm = 4)
  RVTEST_TESTDATA_LOAD_INT(x24, x6) # load rs1: x6 = 0x80000001
    1700:	000c2303          	lw	x6,0(x24)
    1704:	004c0c13          	addi	x24,x24,4

00001708 <I_xori_cg_cr_rs1_imm_edges_rs1val_0x80000001_immval_0x4>:
I_xori_cg_cr_rs1_imm_edges_rs1val_0x80000001_immval_0x4:
  xori x3, x6, 4 # perform operation
    1708:	00434193          	xori	x3,x6,4
  # Check if x3 contains the expected result. x12 is the signature ptr, x5 is the link ptr, x4 is a temp reg.
  RVTEST_SIGUPD(x12, x5, x4, x3, I_xori_cg_cr_rs1_imm_edges_rs1val_0x80000001_immval_0x4, I_xori_cg_cr_rs1_imm_edges_rs1val_0x80000001_immval_0x4_str)
    170c:	00062203          	lw	x4,0(x12)
    1710:	00320863          	beq	x4,x3,1720 <I_xori_cg_cr_rs1_imm_edges_rs1val_0x80000001_immval_0x4+0x18>
    1714:	5a9012ef          	jal	x5,34bc <failedtest_x5_x4>
    1718:	00001708          	.word	0x00001708
    171c:	0000afe3          	.word	0x0000afe3
    1720:	00460613          	addi	x12,x12,4

# Testcase cr_rs1_imm_edges (rs1 = 0x80000001, imm = 8)
  RVTEST_TESTDATA_LOAD_INT(x24, x17) # load rs1: x17 = 0x80000001
    1724:	000c2883          	lw	x17,0(x24)
    1728:	004c0c13          	addi	x24,x24,4

0000172c <I_xori_cg_cr_rs1_imm_edges_rs1val_0x80000001_immval_0x8>:
I_xori_cg_cr_rs1_imm_edges_rs1val_0x80000001_immval_0x8:
  xori x23, x17, 8 # perform operation
    172c:	0088cb93          	xori	x23,x17,8
  # Check if x23 contains the expected result. x12 is the signature ptr, x5 is the link ptr, x4 is a temp reg.
  RVTEST_SIGUPD(x12, x5, x4, x23, I_xori_cg_cr_rs1_imm_edges_rs1val_0x80000001_immval_0x8, I_xori_cg_cr_rs1_imm_edges_rs1val_0x80000001_immval_0x8_str)
    1730:	00062203          	lw	x4,0(x12)
    1734:	01720863          	beq	x4,x23,1744 <I_xori_cg_cr_rs1_imm_edges_rs1val_0x80000001_immval_0x8+0x18>
    1738:	585012ef          	jal	x5,34bc <failedtest_x5_x4>
    173c:	0000172c          	.word	0x0000172c
    1740:	0000b038          	.word	0x0000b038
    1744:	00460613          	addi	x12,x12,4

# Testcase cr_rs1_imm_edges (rs1 = 0x80000001, imm = 16)
  RVTEST_TESTDATA_LOAD_INT(x24, x22) # load rs1: x22 = 0x80000001
    1748:	000c2b03          	lw	x22,0(x24)
    174c:	004c0c13          	addi	x24,x24,4

00001750 <I_xori_cg_cr_rs1_imm_edges_rs1val_0x80000001_immval_0x10>:
I_xori_cg_cr_rs1_imm_edges_rs1val_0x80000001_immval_0x10:
  xori x9, x22, 16 # perform operation
    1750:	010b4493          	xori	x9,x22,16
  # Check if x9 contains the expected result. x12 is the signature ptr, x5 is the link ptr, x4 is a temp reg.
  RVTEST_SIGUPD(x12, x5, x4, x9, I_xori_cg_cr_rs1_imm_edges_rs1val_0x80000001_immval_0x10, I_xori_cg_cr_rs1_imm_edges_rs1val_0x80000001_immval_0x10_str)
    1754:	00062203          	lw	x4,0(x12)
    1758:	00920863          	beq	x4,x9,1768 <I_xori_cg_cr_rs1_imm_edges_rs1val_0x80000001_immval_0x10+0x18>
    175c:	561012ef          	jal	x5,34bc <failedtest_x5_x4>
    1760:	00001750          	.word	0x00001750
    1764:	0000b08d          	.word	0x0000b08d
    1768:	00460613          	addi	x12,x12,4

# Testcase cr_rs1_imm_edges (rs1 = 0x80000001, imm = 32)
  RVTEST_TESTDATA_LOAD_INT(x24, x13) # load rs1: x13 = 0x80000001
    176c:	000c2683          	lw	x13,0(x24)
    1770:	004c0c13          	addi	x24,x24,4

00001774 <I_xori_cg_cr_rs1_imm_edges_rs1val_0x80000001_immval_0x20>:
I_xori_cg_cr_rs1_imm_edges_rs1val_0x80000001_immval_0x20:
  xori x31, x13, 32 # perform operation
    1774:	0206cf93          	xori	x31,x13,32
  # Check if x31 contains the expected result. x12 is the signature ptr, x5 is the link ptr, x4 is a temp reg.
  RVTEST_SIGUPD(x12, x5, x4, x31, I_xori_cg_cr_rs1_imm_edges_rs1val_0x80000001_immval_0x20, I_xori_cg_cr_rs1_imm_edges_rs1val_0x80000001_immval_0x20_str)
    1778:	00062203          	lw	x4,0(x12)
    177c:	01f20863          	beq	x4,x31,178c <I_xori_cg_cr_rs1_imm_edges_rs1val_0x80000001_immval_0x20+0x18>
    1780:	53d012ef          	jal	x5,34bc <failedtest_x5_x4>
    1784:	00001774          	.word	0x00001774
    1788:	0000b0e3          	.word	0x0000b0e3
    178c:	00460613          	addi	x12,x12,4

# Testcase cr_rs1_imm_edges (rs1 = 0x80000001, imm = 64)
  RVTEST_TESTDATA_LOAD_INT(x24, x17) # load rs1: x17 = 0x80000001
    1790:	000c2883          	lw	x17,0(x24)
    1794:	004c0c13          	addi	x24,x24,4

00001798 <I_xori_cg_cr_rs1_imm_edges_rs1val_0x80000001_immval_0x40>:
I_xori_cg_cr_rs1_imm_edges_rs1val_0x80000001_immval_0x40:
  xori x31, x17, 64 # perform operation
    1798:	0408cf93          	xori	x31,x17,64
  # Check if x31 contains the expected result. x12 is the signature ptr, x5 is the link ptr, x4 is a temp reg.
  RVTEST_SIGUPD(x12, x5, x4, x31, I_xori_cg_cr_rs1_imm_edges_rs1val_0x80000001_immval_0x40, I_xori_cg_cr_rs1_imm_edges_rs1val_0x80000001_immval_0x40_str)
    179c:	00062203          	lw	x4,0(x12)
    17a0:	01f20863          	beq	x4,x31,17b0 <I_xori_cg_cr_rs1_imm_edges_rs1val_0x80000001_immval_0x40+0x18>
    17a4:	519012ef          	jal	x5,34bc <failedtest_x5_x4>
    17a8:	00001798          	.word	0x00001798
    17ac:	0000b139          	.word	0x0000b139
    17b0:	00460613          	addi	x12,x12,4

# Testcase cr_rs1_imm_edges (rs1 = 0x80000001, imm = 128)
  RVTEST_TESTDATA_LOAD_INT(x24, x23) # load rs1: x23 = 0x80000001
    17b4:	000c2b83          	lw	x23,0(x24)
    17b8:	004c0c13          	addi	x24,x24,4

000017bc <I_xori_cg_cr_rs1_imm_edges_rs1val_0x80000001_immval_0x80>:
I_xori_cg_cr_rs1_imm_edges_rs1val_0x80000001_immval_0x80:
  xori x21, x23, 128 # perform operation
    17bc:	080bca93          	xori	x21,x23,128
  # Check if x21 contains the expected result. x12 is the signature ptr, x5 is the link ptr, x4 is a temp reg.
  RVTEST_SIGUPD(x12, x5, x4, x21, I_xori_cg_cr_rs1_imm_edges_rs1val_0x80000001_immval_0x80, I_xori_cg_cr_rs1_imm_edges_rs1val_0x80000001_immval_0x80_str)
    17c0:	00062203          	lw	x4,0(x12)
    17c4:	01520863          	beq	x4,x21,17d4 <I_xori_cg_cr_rs1_imm_edges_rs1val_0x80000001_immval_0x80+0x18>
    17c8:	4f5012ef          	jal	x5,34bc <failedtest_x5_x4>
    17cc:	000017bc          	.word	0x000017bc
    17d0:	0000b18f          	.word	0x0000b18f
    17d4:	00460613          	addi	x12,x12,4

# Testcase cr_rs1_imm_edges (rs1 = 0x80000001, imm = 256)
  RVTEST_TESTDATA_LOAD_INT(x24, x6) # load rs1: x6 = 0x80000001
    17d8:	000c2303          	lw	x6,0(x24)
    17dc:	004c0c13          	addi	x24,x24,4

000017e0 <I_xori_cg_cr_rs1_imm_edges_rs1val_0x80000001_immval_0x100>:
I_xori_cg_cr_rs1_imm_edges_rs1val_0x80000001_immval_0x100:
  xori x1, x6, 256 # perform operation
    17e0:	10034093          	xori	x1,x6,256
  # Check if x1 contains the expected result. x12 is the signature ptr, x5 is the link ptr, x4 is a temp reg.
  RVTEST_SIGUPD(x12, x5, x4, x1, I_xori_cg_cr_rs1_imm_edges_rs1val_0x80000001_immval_0x100, I_xori_cg_cr_rs1_imm_edges_rs1val_0x80000001_immval_0x100_str)
    17e4:	00062203          	lw	x4,0(x12)
    17e8:	00120863          	beq	x4,x1,17f8 <I_xori_cg_cr_rs1_imm_edges_rs1val_0x80000001_immval_0x100+0x18>
    17ec:	4d1012ef          	jal	x5,34bc <failedtest_x5_x4>
    17f0:	000017e0          	.word	0x000017e0
    17f4:	0000b1e5          	.word	0x0000b1e5
    17f8:	00460613          	addi	x12,x12,4

# Testcase cr_rs1_imm_edges (rs1 = 0x80000001, imm = 512)
  RVTEST_TESTDATA_LOAD_INT(x24, x20) # load rs1: x20 = 0x80000001
    17fc:	000c2a03          	lw	x20,0(x24)
    1800:	004c0c13          	addi	x24,x24,4

00001804 <I_xori_cg_cr_rs1_imm_edges_rs1val_0x80000001_immval_0x200>:
I_xori_cg_cr_rs1_imm_edges_rs1val_0x80000001_immval_0x200:
  xori x23, x20, 512 # perform operation
    1804:	200a4b93          	xori	x23,x20,512
  # Check if x23 contains the expected result. x12 is the signature ptr, x5 is the link ptr, x4 is a temp reg.
  RVTEST_SIGUPD(x12, x5, x4, x23, I_xori_cg_cr_rs1_imm_edges_rs1val_0x80000001_immval_0x200, I_xori_cg_cr_rs1_imm_edges_rs1val_0x80000001_immval_0x200_str)
    1808:	00062203          	lw	x4,0(x12)
    180c:	01720863          	beq	x4,x23,181c <I_xori_cg_cr_rs1_imm_edges_rs1val_0x80000001_immval_0x200+0x18>
    1810:	4ad012ef          	jal	x5,34bc <failedtest_x5_x4>
    1814:	00001804          	.word	0x00001804
    1818:	0000b23c          	.word	0x0000b23c
    181c:	00460613          	addi	x12,x12,4

# Testcase cr_rs1_imm_edges (rs1 = 0x80000001, imm = 1023)
  RVTEST_TESTDATA_LOAD_INT(x24, x16) # load rs1: x16 = 0x80000001
    1820:	000c2803          	lw	x16,0(x24)
    1824:	004c0c13          	addi	x24,x24,4

00001828 <I_xori_cg_cr_rs1_imm_edges_rs1val_0x80000001_immval_0x3ff>:
I_xori_cg_cr_rs1_imm_edges_rs1val_0x80000001_immval_0x3ff:
  xori x6, x16, 1023 # perform operation
    1828:	3ff84313          	xori	x6,x16,1023
  # Check if x6 contains the expected result. x12 is the signature ptr, x5 is the link ptr, x4 is a temp reg.
  RVTEST_SIGUPD(x12, x5, x4, x6, I_xori_cg_cr_rs1_imm_edges_rs1val_0x80000001_immval_0x3ff, I_xori_cg_cr_rs1_imm_edges_rs1val_0x80000001_immval_0x3ff_str)
    182c:	00062203          	lw	x4,0(x12)
    1830:	00620863          	beq	x4,x6,1840 <I_xori_cg_cr_rs1_imm_edges_rs1val_0x80000001_immval_0x3ff+0x18>
    1834:	489012ef          	jal	x5,34bc <failedtest_x5_x4>
    1838:	00001828          	.word	0x00001828
    183c:	0000b293          	.word	0x0000b293
    1840:	00460613          	addi	x12,x12,4

# Testcase cr_rs1_imm_edges (rs1 = 0x80000001, imm = 1024)
  RVTEST_TESTDATA_LOAD_INT(x24, x17) # load rs1: x17 = 0x80000001
    1844:	000c2883          	lw	x17,0(x24)
    1848:	004c0c13          	addi	x24,x24,4

0000184c <I_xori_cg_cr_rs1_imm_edges_rs1val_0x80000001_immval_0x400>:
I_xori_cg_cr_rs1_imm_edges_rs1val_0x80000001_immval_0x400:
  xori x9, x17, 1024 # perform operation
    184c:	4008c493          	xori	x9,x17,1024
  # Check if x9 contains the expected result. x12 is the signature ptr, x5 is the link ptr, x4 is a temp reg.
  RVTEST_SIGUPD(x12, x5, x4, x9, I_xori_cg_cr_rs1_imm_edges_rs1val_0x80000001_immval_0x400, I_xori_cg_cr_rs1_imm_edges_rs1val_0x80000001_immval_0x400_str)
    1850:	00062203          	lw	x4,0(x12)
    1854:	00920863          	beq	x4,x9,1864 <I_xori_cg_cr_rs1_imm_edges_rs1val_0x80000001_immval_0x400+0x18>
    1858:	465012ef          	jal	x5,34bc <failedtest_x5_x4>
    185c:	0000184c          	.word	0x0000184c
    1860:	0000b2ea          	.word	0x0000b2ea
    1864:	00460613          	addi	x12,x12,4

# Testcase cr_rs1_imm_edges (rs1 = 0x80000001, imm = 1795)
  RVTEST_TESTDATA_LOAD_INT(x24, x11) # load rs1: x11 = 0x80000001
    1868:	000c2583          	lw	x11,0(x24)
    186c:	004c0c13          	addi	x24,x24,4

00001870 <I_xori_cg_cr_rs1_imm_edges_rs1val_0x80000001_immval_0x703>:
I_xori_cg_cr_rs1_imm_edges_rs1val_0x80000001_immval_0x703:
  xori x21, x11, 1795 # perform operation
    1870:	7035ca93          	xori	x21,x11,1795
  # Check if x21 contains the expected result. x12 is the signature ptr, x5 is the link ptr, x4 is a temp reg.
  RVTEST_SIGUPD(x12, x5, x4, x21, I_xori_cg_cr_rs1_imm_edges_rs1val_0x80000001_immval_0x703, I_xori_cg_cr_rs1_imm_edges_rs1val_0x80000001_immval_0x703_str)
    1874:	00062203          	lw	x4,0(x12)
    1878:	01520863          	beq	x4,x21,1888 <I_xori_cg_cr_rs1_imm_edges_rs1val_0x80000001_immval_0x703+0x18>
    187c:	441012ef          	jal	x5,34bc <failedtest_x5_x4>
    1880:	00001870          	.word	0x00001870
    1884:	0000b341          	.word	0x0000b341
    1888:	00460613          	addi	x12,x12,4

# Testcase cr_rs1_imm_edges (rs1 = 0x80000001, imm = 2047)
  RVTEST_TESTDATA_LOAD_INT(x24, x21) # load rs1: x21 = 0x80000001
    188c:	000c2a83          	lw	x21,0(x24)
    1890:	004c0c13          	addi	x24,x24,4

00001894 <I_xori_cg_cr_rs1_imm_edges_rs1val_0x80000001_immval_0x7ff>:
I_xori_cg_cr_rs1_imm_edges_rs1val_0x80000001_immval_0x7ff:
  xori x13, x21, 2047 # perform operation
    1894:	7ffac693          	xori	x13,x21,2047
  # Check if x13 contains the expected result. x12 is the signature ptr, x5 is the link ptr, x4 is a temp reg.
  RVTEST_SIGUPD(x12, x5, x4, x13, I_xori_cg_cr_rs1_imm_edges_rs1val_0x80000001_immval_0x7ff, I_xori_cg_cr_rs1_imm_edges_rs1val_0x80000001_immval_0x7ff_str)
    1898:	00062203          	lw	x4,0(x12)
    189c:	00d20863          	beq	x4,x13,18ac <I_xori_cg_cr_rs1_imm_edges_rs1val_0x80000001_immval_0x7ff+0x18>
    18a0:	41d012ef          	jal	x5,34bc <failedtest_x5_x4>
    18a4:	00001894          	.word	0x00001894
    18a8:	0000b398          	.word	0x0000b398
    18ac:	00460613          	addi	x12,x12,4

# Testcase cr_rs1_imm_edges (rs1 = 0x80000001, imm = -2048)
  RVTEST_TESTDATA_LOAD_INT(x24, x29) # load rs1: x29 = 0x80000001
    18b0:	000c2e83          	lw	x29,0(x24)
    18b4:	004c0c13          	addi	x24,x24,4

000018b8 <I_xori_cg_cr_rs1_imm_edges_rs1val_0x80000001_immval_m0x800>:
I_xori_cg_cr_rs1_imm_edges_rs1val_0x80000001_immval_m0x800:
  xori x18, x29, -2048 # perform operation
    18b8:	800ec913          	xori	x18,x29,-2048
  # Check if x18 contains the expected result. x12 is the signature ptr, x5 is the link ptr, x4 is a temp reg.
  RVTEST_SIGUPD(x12, x5, x4, x18, I_xori_cg_cr_rs1_imm_edges_rs1val_0x80000001_immval_m0x800, I_xori_cg_cr_rs1_imm_edges_rs1val_0x80000001_immval_m0x800_str)
    18bc:	00062203          	lw	x4,0(x12)
    18c0:	01220863          	beq	x4,x18,18d0 <I_xori_cg_cr_rs1_imm_edges_rs1val_0x80000001_immval_m0x800+0x18>
    18c4:	3f9012ef          	jal	x5,34bc <failedtest_x5_x4>
    18c8:	000018b8          	.word	0x000018b8
    18cc:	0000b3ef          	.word	0x0000b3ef
    18d0:	00460613          	addi	x12,x12,4

# Testcase cr_rs1_imm_edges (rs1 = 0x80000001, imm = -2047)
  RVTEST_TESTDATA_LOAD_INT(x24, x23) # load rs1: x23 = 0x80000001
    18d4:	000c2b83          	lw	x23,0(x24)
    18d8:	004c0c13          	addi	x24,x24,4

000018dc <I_xori_cg_cr_rs1_imm_edges_rs1val_0x80000001_immval_m0x7ff>:
I_xori_cg_cr_rs1_imm_edges_rs1val_0x80000001_immval_m0x7ff:
  xori x2, x23, -2047 # perform operation
    18dc:	801bc113          	xori	x2,x23,-2047
  # Check if x2 contains the expected result. x12 is the signature ptr, x5 is the link ptr, x4 is a temp reg.
  RVTEST_SIGUPD(x12, x5, x4, x2, I_xori_cg_cr_rs1_imm_edges_rs1val_0x80000001_immval_m0x7ff, I_xori_cg_cr_rs1_imm_edges_rs1val_0x80000001_immval_m0x7ff_str)
    18e0:	00062203          	lw	x4,0(x12)
    18e4:	00220863          	beq	x4,x2,18f4 <I_xori_cg_cr_rs1_imm_edges_rs1val_0x80000001_immval_m0x7ff+0x18>
    18e8:	3d5012ef          	jal	x5,34bc <failedtest_x5_x4>
    18ec:	000018dc          	.word	0x000018dc
    18f0:	0000b447          	.word	0x0000b447
    18f4:	00460613          	addi	x12,x12,4

# Testcase cr_rs1_imm_edges (rs1 = 0x80000001, imm = -2)
  RVTEST_TESTDATA_LOAD_INT(x24, x13) # load rs1: x13 = 0x80000001
    18f8:	000c2683          	lw	x13,0(x24)
    18fc:	004c0c13          	addi	x24,x24,4

00001900 <I_xori_cg_cr_rs1_imm_edges_rs1val_0x80000001_immval_m0x2>:
I_xori_cg_cr_rs1_imm_edges_rs1val_0x80000001_immval_m0x2:
  xori x26, x13, -2 # perform operation
    1900:	ffe6cd13          	xori	x26,x13,-2
  # Check if x26 contains the expected result. x12 is the signature ptr, x5 is the link ptr, x4 is a temp reg.
  RVTEST_SIGUPD(x12, x5, x4, x26, I_xori_cg_cr_rs1_imm_edges_rs1val_0x80000001_immval_m0x2, I_xori_cg_cr_rs1_imm_edges_rs1val_0x80000001_immval_m0x2_str)
    1904:	00062203          	lw	x4,0(x12)
    1908:	01a20863          	beq	x4,x26,1918 <I_xori_cg_cr_rs1_imm_edges_rs1val_0x80000001_immval_m0x2+0x18>
    190c:	3b1012ef          	jal	x5,34bc <failedtest_x5_x4>
    1910:	00001900          	.word	0x00001900
    1914:	0000b49f          	.word	0x0000b49f
    1918:	00460613          	addi	x12,x12,4

# Testcase cr_rs1_imm_edges (rs1 = 0x80000001, imm = -1)
  RVTEST_TESTDATA_LOAD_INT(x24, x30) # load rs1: x30 = 0x80000001
    191c:	000c2f03          	lw	x30,0(x24)
    1920:	004c0c13          	addi	x24,x24,4

00001924 <I_xori_cg_cr_rs1_imm_edges_rs1val_0x80000001_immval_m0x1>:
I_xori_cg_cr_rs1_imm_edges_rs1val_0x80000001_immval_m0x1:
  xori x21, x30, -1 # perform operation
    1924:	ffff4a93          	xori	x21,x30,-1
  # Check if x21 contains the expected result. x12 is the signature ptr, x5 is the link ptr, x4 is a temp reg.
  RVTEST_SIGUPD(x12, x5, x4, x21, I_xori_cg_cr_rs1_imm_edges_rs1val_0x80000001_immval_m0x1, I_xori_cg_cr_rs1_imm_edges_rs1val_0x80000001_immval_m0x1_str)
    1928:	00062203          	lw	x4,0(x12)
    192c:	01520863          	beq	x4,x21,193c <I_xori_cg_cr_rs1_imm_edges_rs1val_0x80000001_immval_m0x1+0x18>
    1930:	38d012ef          	jal	x5,34bc <failedtest_x5_x4>
    1934:	00001924          	.word	0x00001924
    1938:	0000b4f5          	.word	0x0000b4f5
    193c:	00460613          	addi	x12,x12,4

# Testcase cr_rs1_imm_edges (rs1 = 0x7fffffff, imm = 0)
  RVTEST_TESTDATA_LOAD_INT(x24, x26) # load rs1: x26 = 0x7fffffff
    1940:	000c2d03          	lw	x26,0(x24)
    1944:	004c0c13          	addi	x24,x24,4

00001948 <I_xori_cg_cr_rs1_imm_edges_rs1val_0x7fffffff_immval_0x0>:
I_xori_cg_cr_rs1_imm_edges_rs1val_0x7fffffff_immval_0x0:
  xori x11, x26, 0 # perform operation
    1948:	000d4593          	xori	x11,x26,0
  # Check if x11 contains the expected result. x12 is the signature ptr, x5 is the link ptr, x4 is a temp reg.
  RVTEST_SIGUPD(x12, x5, x4, x11, I_xori_cg_cr_rs1_imm_edges_rs1val_0x7fffffff_immval_0x0, I_xori_cg_cr_rs1_imm_edges_rs1val_0x7fffffff_immval_0x0_str)
    194c:	00062203          	lw	x4,0(x12)
    1950:	00b20863          	beq	x4,x11,1960 <I_xori_cg_cr_rs1_imm_edges_rs1val_0x7fffffff_immval_0x0+0x18>
    1954:	369012ef          	jal	x5,34bc <failedtest_x5_x4>
    1958:	00001948          	.word	0x00001948
    195c:	0000b54b          	.word	0x0000b54b
    1960:	00460613          	addi	x12,x12,4

# Testcase cr_rs1_imm_edges (rs1 = 0x7fffffff, imm = 1)
  RVTEST_TESTDATA_LOAD_INT(x24, x3) # load rs1: x3 = 0x7fffffff
    1964:	000c2183          	lw	x3,0(x24)
    1968:	004c0c13          	addi	x24,x24,4

0000196c <I_xori_cg_cr_rs1_imm_edges_rs1val_0x7fffffff_immval_0x1>:
I_xori_cg_cr_rs1_imm_edges_rs1val_0x7fffffff_immval_0x1:
  xori x31, x3, 1 # perform operation
    196c:	0011cf93          	xori	x31,x3,1
  # Check if x31 contains the expected result. x12 is the signature ptr, x5 is the link ptr, x4 is a temp reg.
  RVTEST_SIGUPD(x12, x5, x4, x31, I_xori_cg_cr_rs1_imm_edges_rs1val_0x7fffffff_immval_0x1, I_xori_cg_cr_rs1_imm_edges_rs1val_0x7fffffff_immval_0x1_str)
    1970:	00062203          	lw	x4,0(x12)
    1974:	01f20863          	beq	x4,x31,1984 <I_xori_cg_cr_rs1_imm_edges_rs1val_0x7fffffff_immval_0x1+0x18>
    1978:	345012ef          	jal	x5,34bc <failedtest_x5_x4>
    197c:	0000196c          	.word	0x0000196c
    1980:	0000b5a0          	.word	0x0000b5a0
    1984:	00460613          	addi	x12,x12,4

# Testcase cr_rs1_imm_edges (rs1 = 0x7fffffff, imm = 2)
  RVTEST_TESTDATA_LOAD_INT(x24, x8) # load rs1: x8 = 0x7fffffff
    1988:	000c2403          	lw	x8,0(x24)
    198c:	004c0c13          	addi	x24,x24,4

00001990 <I_xori_cg_cr_rs1_imm_edges_rs1val_0x7fffffff_immval_0x2>:
I_xori_cg_cr_rs1_imm_edges_rs1val_0x7fffffff_immval_0x2:
  xori x6, x8, 2 # perform operation
    1990:	00244313          	xori	x6,x8,2
  # Check if x6 contains the expected result. x12 is the signature ptr, x5 is the link ptr, x4 is a temp reg.
  RVTEST_SIGUPD(x12, x5, x4, x6, I_xori_cg_cr_rs1_imm_edges_rs1val_0x7fffffff_immval_0x2, I_xori_cg_cr_rs1_imm_edges_rs1val_0x7fffffff_immval_0x2_str)
    1994:	00062203          	lw	x4,0(x12)
    1998:	00620863          	beq	x4,x6,19a8 <I_xori_cg_cr_rs1_imm_edges_rs1val_0x7fffffff_immval_0x2+0x18>
    199c:	321012ef          	jal	x5,34bc <failedtest_x5_x4>
    19a0:	00001990          	.word	0x00001990
    19a4:	0000b5f5          	.word	0x0000b5f5
    19a8:	00460613          	addi	x12,x12,4

# Testcase cr_rs1_imm_edges (rs1 = 0x7fffffff, imm = 3)
  RVTEST_TESTDATA_LOAD_INT(x24, x20) # load rs1: x20 = 0x7fffffff
    19ac:	000c2a03          	lw	x20,0(x24)
    19b0:	004c0c13          	addi	x24,x24,4

000019b4 <I_xori_cg_cr_rs1_imm_edges_rs1val_0x7fffffff_immval_0x3>:
I_xori_cg_cr_rs1_imm_edges_rs1val_0x7fffffff_immval_0x3:
  xori x14, x20, 3 # perform operation
    19b4:	003a4713          	xori	x14,x20,3
  # Check if x14 contains the expected result. x12 is the signature ptr, x5 is the link ptr, x4 is a temp reg.
  RVTEST_SIGUPD(x12, x5, x4, x14, I_xori_cg_cr_rs1_imm_edges_rs1val_0x7fffffff_immval_0x3, I_xori_cg_cr_rs1_imm_edges_rs1val_0x7fffffff_immval_0x3_str)
    19b8:	00062203          	lw	x4,0(x12)
    19bc:	00e20863          	beq	x4,x14,19cc <I_xori_cg_cr_rs1_imm_edges_rs1val_0x7fffffff_immval_0x3+0x18>
    19c0:	2fd012ef          	jal	x5,34bc <failedtest_x5_x4>
    19c4:	000019b4          	.word	0x000019b4
    19c8:	0000b64a          	.word	0x0000b64a
    19cc:	00460613          	addi	x12,x12,4

# Testcase cr_rs1_imm_edges (rs1 = 0x7fffffff, imm = 4)
  RVTEST_TESTDATA_LOAD_INT(x24, x28) # load rs1: x28 = 0x7fffffff
    19d0:	000c2e03          	lw	x28,0(x24)
    19d4:	004c0c13          	addi	x24,x24,4

000019d8 <I_xori_cg_cr_rs1_imm_edges_rs1val_0x7fffffff_immval_0x4>:
I_xori_cg_cr_rs1_imm_edges_rs1val_0x7fffffff_immval_0x4:
  xori x3, x28, 4 # perform operation
    19d8:	004e4193          	xori	x3,x28,4
  # Check if x3 contains the expected result. x12 is the signature ptr, x5 is the link ptr, x4 is a temp reg.
  RVTEST_SIGUPD(x12, x5, x4, x3, I_xori_cg_cr_rs1_imm_edges_rs1val_0x7fffffff_immval_0x4, I_xori_cg_cr_rs1_imm_edges_rs1val_0x7fffffff_immval_0x4_str)
    19dc:	00062203          	lw	x4,0(x12)
    19e0:	00320863          	beq	x4,x3,19f0 <I_xori_cg_cr_rs1_imm_edges_rs1val_0x7fffffff_immval_0x4+0x18>
    19e4:	2d9012ef          	jal	x5,34bc <failedtest_x5_x4>
    19e8:	000019d8          	.word	0x000019d8
    19ec:	0000b69f          	.word	0x0000b69f
    19f0:	00460613          	addi	x12,x12,4

# Testcase cr_rs1_imm_edges (rs1 = 0x7fffffff, imm = 8)
  RVTEST_TESTDATA_LOAD_INT(x24, x23) # load rs1: x23 = 0x7fffffff
    19f4:	000c2b83          	lw	x23,0(x24)
    19f8:	004c0c13          	addi	x24,x24,4

000019fc <I_xori_cg_cr_rs1_imm_edges_rs1val_0x7fffffff_immval_0x8>:
I_xori_cg_cr_rs1_imm_edges_rs1val_0x7fffffff_immval_0x8:
  xori x16, x23, 8 # perform operation
    19fc:	008bc813          	xori	x16,x23,8
  # Check if x16 contains the expected result. x12 is the signature ptr, x5 is the link ptr, x4 is a temp reg.
  RVTEST_SIGUPD(x12, x5, x4, x16, I_xori_cg_cr_rs1_imm_edges_rs1val_0x7fffffff_immval_0x8, I_xori_cg_cr_rs1_imm_edges_rs1val_0x7fffffff_immval_0x8_str)
    1a00:	00062203          	lw	x4,0(x12)
    1a04:	01020863          	beq	x4,x16,1a14 <I_xori_cg_cr_rs1_imm_edges_rs1val_0x7fffffff_immval_0x8+0x18>
    1a08:	2b5012ef          	jal	x5,34bc <failedtest_x5_x4>
    1a0c:	000019fc          	.word	0x000019fc
    1a10:	0000b6f4          	.word	0x0000b6f4
    1a14:	00460613          	addi	x12,x12,4

# Testcase cr_rs1_imm_edges (rs1 = 0x7fffffff, imm = 16)
  RVTEST_TESTDATA_LOAD_INT(x24, x3) # load rs1: x3 = 0x7fffffff
    1a18:	000c2183          	lw	x3,0(x24)
    1a1c:	004c0c13          	addi	x24,x24,4

00001a20 <I_xori_cg_cr_rs1_imm_edges_rs1val_0x7fffffff_immval_0x10>:
I_xori_cg_cr_rs1_imm_edges_rs1val_0x7fffffff_immval_0x10:
  xori x2, x3, 16 # perform operation
    1a20:	0101c113          	xori	x2,x3,16
  # Check if x2 contains the expected result. x12 is the signature ptr, x5 is the link ptr, x4 is a temp reg.
  RVTEST_SIGUPD(x12, x5, x4, x2, I_xori_cg_cr_rs1_imm_edges_rs1val_0x7fffffff_immval_0x10, I_xori_cg_cr_rs1_imm_edges_rs1val_0x7fffffff_immval_0x10_str)
    1a24:	00062203          	lw	x4,0(x12)
    1a28:	00220863          	beq	x4,x2,1a38 <I_xori_cg_cr_rs1_imm_edges_rs1val_0x7fffffff_immval_0x10+0x18>
    1a2c:	291012ef          	jal	x5,34bc <failedtest_x5_x4>
    1a30:	00001a20          	.word	0x00001a20
    1a34:	0000b749          	.word	0x0000b749
    1a38:	00460613          	addi	x12,x12,4

# Testcase cr_rs1_imm_edges (rs1 = 0x7fffffff, imm = 32)
  RVTEST_TESTDATA_LOAD_INT(x24, x22) # load rs1: x22 = 0x7fffffff
    1a3c:	000c2b03          	lw	x22,0(x24)
    1a40:	004c0c13          	addi	x24,x24,4

00001a44 <I_xori_cg_cr_rs1_imm_edges_rs1val_0x7fffffff_immval_0x20>:
I_xori_cg_cr_rs1_imm_edges_rs1val_0x7fffffff_immval_0x20:
  xori x8, x22, 32 # perform operation
    1a44:	020b4413          	xori	x8,x22,32
  # Check if x8 contains the expected result. x12 is the signature ptr, x5 is the link ptr, x4 is a temp reg.
  RVTEST_SIGUPD(x12, x5, x4, x8, I_xori_cg_cr_rs1_imm_edges_rs1val_0x7fffffff_immval_0x20, I_xori_cg_cr_rs1_imm_edges_rs1val_0x7fffffff_immval_0x20_str)
    1a48:	00062203          	lw	x4,0(x12)
    1a4c:	00820863          	beq	x4,x8,1a5c <I_xori_cg_cr_rs1_imm_edges_rs1val_0x7fffffff_immval_0x20+0x18>
    1a50:	26d012ef          	jal	x5,34bc <failedtest_x5_x4>
    1a54:	00001a44          	.word	0x00001a44
    1a58:	0000b79f          	.word	0x0000b79f
    1a5c:	00460613          	addi	x12,x12,4

# Testcase cr_rs1_imm_edges (rs1 = 0x7fffffff, imm = 64)
  RVTEST_TESTDATA_LOAD_INT(x24, x18) # load rs1: x18 = 0x7fffffff
    1a60:	000c2903          	lw	x18,0(x24)
    1a64:	004c0c13          	addi	x24,x24,4

00001a68 <I_xori_cg_cr_rs1_imm_edges_rs1val_0x7fffffff_immval_0x40>:
I_xori_cg_cr_rs1_imm_edges_rs1val_0x7fffffff_immval_0x40:
  xori x8, x18, 64 # perform operation
    1a68:	04094413          	xori	x8,x18,64
  # Check if x8 contains the expected result. x12 is the signature ptr, x5 is the link ptr, x4 is a temp reg.
  RVTEST_SIGUPD(x12, x5, x4, x8, I_xori_cg_cr_rs1_imm_edges_rs1val_0x7fffffff_immval_0x40, I_xori_cg_cr_rs1_imm_edges_rs1val_0x7fffffff_immval_0x40_str)
    1a6c:	00062203          	lw	x4,0(x12)
    1a70:	00820863          	beq	x4,x8,1a80 <I_xori_cg_cr_rs1_imm_edges_rs1val_0x7fffffff_immval_0x40+0x18>
    1a74:	249012ef          	jal	x5,34bc <failedtest_x5_x4>
    1a78:	00001a68          	.word	0x00001a68
    1a7c:	0000b7f5          	.word	0x0000b7f5
    1a80:	00460613          	addi	x12,x12,4

# Testcase cr_rs1_imm_edges (rs1 = 0x7fffffff, imm = 128)
  RVTEST_TESTDATA_LOAD_INT(x24, x23) # load rs1: x23 = 0x7fffffff
    1a84:	000c2b83          	lw	x23,0(x24)
    1a88:	004c0c13          	addi	x24,x24,4

00001a8c <I_xori_cg_cr_rs1_imm_edges_rs1val_0x7fffffff_immval_0x80>:
I_xori_cg_cr_rs1_imm_edges_rs1val_0x7fffffff_immval_0x80:
  xori x18, x23, 128 # perform operation
    1a8c:	080bc913          	xori	x18,x23,128
  # Check if x18 contains the expected result. x12 is the signature ptr, x5 is the link ptr, x4 is a temp reg.
  RVTEST_SIGUPD(x12, x5, x4, x18, I_xori_cg_cr_rs1_imm_edges_rs1val_0x7fffffff_immval_0x80, I_xori_cg_cr_rs1_imm_edges_rs1val_0x7fffffff_immval_0x80_str)
    1a90:	00062203          	lw	x4,0(x12)
    1a94:	01220863          	beq	x4,x18,1aa4 <I_xori_cg_cr_rs1_imm_edges_rs1val_0x7fffffff_immval_0x80+0x18>
    1a98:	225012ef          	jal	x5,34bc <failedtest_x5_x4>
    1a9c:	00001a8c          	.word	0x00001a8c
    1aa0:	0000b84b          	.word	0x0000b84b
    1aa4:	00460613          	addi	x12,x12,4

# Testcase cr_rs1_imm_edges (rs1 = 0x7fffffff, imm = 256)
  RVTEST_TESTDATA_LOAD_INT(x24, x20) # load rs1: x20 = 0x7fffffff
    1aa8:	000c2a03          	lw	x20,0(x24)
    1aac:	004c0c13          	addi	x24,x24,4

00001ab0 <I_xori_cg_cr_rs1_imm_edges_rs1val_0x7fffffff_immval_0x100>:
I_xori_cg_cr_rs1_imm_edges_rs1val_0x7fffffff_immval_0x100:
  xori x14, x20, 256 # perform operation
    1ab0:	100a4713          	xori	x14,x20,256
  # Check if x14 contains the expected result. x12 is the signature ptr, x5 is the link ptr, x4 is a temp reg.
  RVTEST_SIGUPD(x12, x5, x4, x14, I_xori_cg_cr_rs1_imm_edges_rs1val_0x7fffffff_immval_0x100, I_xori_cg_cr_rs1_imm_edges_rs1val_0x7fffffff_immval_0x100_str)
    1ab4:	00062203          	lw	x4,0(x12)
    1ab8:	00e20863          	beq	x4,x14,1ac8 <I_xori_cg_cr_rs1_imm_edges_rs1val_0x7fffffff_immval_0x100+0x18>
    1abc:	201012ef          	jal	x5,34bc <failedtest_x5_x4>
    1ac0:	00001ab0          	.word	0x00001ab0
    1ac4:	0000b8a1          	.word	0x0000b8a1
    1ac8:	00460613          	addi	x12,x12,4

# Testcase cr_rs1_imm_edges (rs1 = 0x7fffffff, imm = 512)
  RVTEST_TESTDATA_LOAD_INT(x24, x23) # load rs1: x23 = 0x7fffffff
    1acc:	000c2b83          	lw	x23,0(x24)
    1ad0:	004c0c13          	addi	x24,x24,4

00001ad4 <I_xori_cg_cr_rs1_imm_edges_rs1val_0x7fffffff_immval_0x200>:
I_xori_cg_cr_rs1_imm_edges_rs1val_0x7fffffff_immval_0x200:
  xori x26, x23, 512 # perform operation
    1ad4:	200bcd13          	xori	x26,x23,512
  # Check if x26 contains the expected result. x12 is the signature ptr, x5 is the link ptr, x4 is a temp reg.
  RVTEST_SIGUPD(x12, x5, x4, x26, I_xori_cg_cr_rs1_imm_edges_rs1val_0x7fffffff_immval_0x200, I_xori_cg_cr_rs1_imm_edges_rs1val_0x7fffffff_immval_0x200_str)
    1ad8:	00062203          	lw	x4,0(x12)
    1adc:	01a20863          	beq	x4,x26,1aec <I_xori_cg_cr_rs1_imm_edges_rs1val_0x7fffffff_immval_0x200+0x18>
    1ae0:	1dd012ef          	jal	x5,34bc <failedtest_x5_x4>
    1ae4:	00001ad4          	.word	0x00001ad4
    1ae8:	0000b8f8          	.word	0x0000b8f8
    1aec:	00460613          	addi	x12,x12,4

# Testcase cr_rs1_imm_edges (rs1 = 0x7fffffff, imm = 1023)
  RVTEST_TESTDATA_LOAD_INT(x24, x21) # load rs1: x21 = 0x7fffffff
    1af0:	000c2a83          	lw	x21,0(x24)
    1af4:	004c0c13          	addi	x24,x24,4

00001af8 <I_xori_cg_cr_rs1_imm_edges_rs1val_0x7fffffff_immval_0x3ff>:
I_xori_cg_cr_rs1_imm_edges_rs1val_0x7fffffff_immval_0x3ff:
  xori x3, x21, 1023 # perform operation
    1af8:	3ffac193          	xori	x3,x21,1023
  # Check if x3 contains the expected result. x12 is the signature ptr, x5 is the link ptr, x4 is a temp reg.
  RVTEST_SIGUPD(x12, x5, x4, x3, I_xori_cg_cr_rs1_imm_edges_rs1val_0x7fffffff_immval_0x3ff, I_xori_cg_cr_rs1_imm_edges_rs1val_0x7fffffff_immval_0x3ff_str)
    1afc:	00062203          	lw	x4,0(x12)
    1b00:	00320863          	beq	x4,x3,1b10 <I_xori_cg_cr_rs1_imm_edges_rs1val_0x7fffffff_immval_0x3ff+0x18>
    1b04:	1b9012ef          	jal	x5,34bc <failedtest_x5_x4>
    1b08:	00001af8          	.word	0x00001af8
    1b0c:	0000b94f          	.word	0x0000b94f
    1b10:	00460613          	addi	x12,x12,4

# Testcase cr_rs1_imm_edges (rs1 = 0x7fffffff, imm = 1024)
  RVTEST_TESTDATA_LOAD_INT(x24, x3) # load rs1: x3 = 0x7fffffff
    1b14:	000c2183          	lw	x3,0(x24)
    1b18:	004c0c13          	addi	x24,x24,4

00001b1c <I_xori_cg_cr_rs1_imm_edges_rs1val_0x7fffffff_immval_0x400>:
I_xori_cg_cr_rs1_imm_edges_rs1val_0x7fffffff_immval_0x400:
  xori x23, x3, 1024 # perform operation
    1b1c:	4001cb93          	xori	x23,x3,1024
  # Check if x23 contains the expected result. x12 is the signature ptr, x5 is the link ptr, x4 is a temp reg.
  RVTEST_SIGUPD(x12, x5, x4, x23, I_xori_cg_cr_rs1_imm_edges_rs1val_0x7fffffff_immval_0x400, I_xori_cg_cr_rs1_imm_edges_rs1val_0x7fffffff_immval_0x400_str)
    1b20:	00062203          	lw	x4,0(x12)
    1b24:	01720863          	beq	x4,x23,1b34 <I_xori_cg_cr_rs1_imm_edges_rs1val_0x7fffffff_immval_0x400+0x18>
    1b28:	195012ef          	jal	x5,34bc <failedtest_x5_x4>
    1b2c:	00001b1c          	.word	0x00001b1c
    1b30:	0000b9a6          	.word	0x0000b9a6
    1b34:	00460613          	addi	x12,x12,4

# Testcase cr_rs1_imm_edges (rs1 = 0x7fffffff, imm = 1795)
  RVTEST_TESTDATA_LOAD_INT(x24, x6) # load rs1: x6 = 0x7fffffff
    1b38:	000c2303          	lw	x6,0(x24)
    1b3c:	004c0c13          	addi	x24,x24,4

00001b40 <I_xori_cg_cr_rs1_imm_edges_rs1val_0x7fffffff_immval_0x703>:
I_xori_cg_cr_rs1_imm_edges_rs1val_0x7fffffff_immval_0x703:
  xori x20, x6, 1795 # perform operation
    1b40:	70334a13          	xori	x20,x6,1795
  # Check if x20 contains the expected result. x12 is the signature ptr, x5 is the link ptr, x4 is a temp reg.
  RVTEST_SIGUPD(x12, x5, x4, x20, I_xori_cg_cr_rs1_imm_edges_rs1val_0x7fffffff_immval_0x703, I_xori_cg_cr_rs1_imm_edges_rs1val_0x7fffffff_immval_0x703_str)
    1b44:	00062203          	lw	x4,0(x12)
    1b48:	01420863          	beq	x4,x20,1b58 <I_xori_cg_cr_rs1_imm_edges_rs1val_0x7fffffff_immval_0x703+0x18>
    1b4c:	171012ef          	jal	x5,34bc <failedtest_x5_x4>
    1b50:	00001b40          	.word	0x00001b40
    1b54:	0000b9fd          	.word	0x0000b9fd
    1b58:	00460613          	addi	x12,x12,4

# Testcase cr_rs1_imm_edges (rs1 = 0x7fffffff, imm = 2047)
  RVTEST_TESTDATA_LOAD_INT(x24, x15) # load rs1: x15 = 0x7fffffff
    1b5c:	000c2783          	lw	x15,0(x24)
    1b60:	004c0c13          	addi	x24,x24,4

00001b64 <I_xori_cg_cr_rs1_imm_edges_rs1val_0x7fffffff_immval_0x7ff>:
I_xori_cg_cr_rs1_imm_edges_rs1val_0x7fffffff_immval_0x7ff:
  xori x17, x15, 2047 # perform operation
    1b64:	7ff7c893          	xori	x17,x15,2047
  # Check if x17 contains the expected result. x12 is the signature ptr, x5 is the link ptr, x4 is a temp reg.
  RVTEST_SIGUPD(x12, x5, x4, x17, I_xori_cg_cr_rs1_imm_edges_rs1val_0x7fffffff_immval_0x7ff, I_xori_cg_cr_rs1_imm_edges_rs1val_0x7fffffff_immval_0x7ff_str)
    1b68:	00062203          	lw	x4,0(x12)
    1b6c:	01120863          	beq	x4,x17,1b7c <I_xori_cg_cr_rs1_imm_edges_rs1val_0x7fffffff_immval_0x7ff+0x18>
    1b70:	14d012ef          	jal	x5,34bc <failedtest_x5_x4>
    1b74:	00001b64          	.word	0x00001b64
    1b78:	0000ba54          	.word	0x0000ba54
    1b7c:	00460613          	addi	x12,x12,4

# Testcase cr_rs1_imm_edges (rs1 = 0x7fffffff, imm = -2048)
  RVTEST_TESTDATA_LOAD_INT(x24, x3) # load rs1: x3 = 0x7fffffff
    1b80:	000c2183          	lw	x3,0(x24)
    1b84:	004c0c13          	addi	x24,x24,4

00001b88 <I_xori_cg_cr_rs1_imm_edges_rs1val_0x7fffffff_immval_m0x800>:
I_xori_cg_cr_rs1_imm_edges_rs1val_0x7fffffff_immval_m0x800:
  xori x29, x3, -2048 # perform operation
    1b88:	8001ce93          	xori	x29,x3,-2048
  # Check if x29 contains the expected result. x12 is the signature ptr, x5 is the link ptr, x4 is a temp reg.
  RVTEST_SIGUPD(x12, x5, x4, x29, I_xori_cg_cr_rs1_imm_edges_rs1val_0x7fffffff_immval_m0x800, I_xori_cg_cr_rs1_imm_edges_rs1val_0x7fffffff_immval_m0x800_str)
    1b8c:	00062203          	lw	x4,0(x12)
    1b90:	01d20863          	beq	x4,x29,1ba0 <I_xori_cg_cr_rs1_imm_edges_rs1val_0x7fffffff_immval_m0x800+0x18>
    1b94:	129012ef          	jal	x5,34bc <failedtest_x5_x4>
    1b98:	00001b88          	.word	0x00001b88
    1b9c:	0000baab          	.word	0x0000baab
    1ba0:	00460613          	addi	x12,x12,4

# Testcase cr_rs1_imm_edges (rs1 = 0x7fffffff, imm = -2047)
  RVTEST_TESTDATA_LOAD_INT(x24, x8) # load rs1: x8 = 0x7fffffff
    1ba4:	000c2403          	lw	x8,0(x24)
    1ba8:	004c0c13          	addi	x24,x24,4

00001bac <I_xori_cg_cr_rs1_imm_edges_rs1val_0x7fffffff_immval_m0x7ff>:
I_xori_cg_cr_rs1_imm_edges_rs1val_0x7fffffff_immval_m0x7ff:
  xori x11, x8, -2047 # perform operation
    1bac:	80144593          	xori	x11,x8,-2047
  # Check if x11 contains the expected result. x12 is the signature ptr, x5 is the link ptr, x4 is a temp reg.
  RVTEST_SIGUPD(x12, x5, x4, x11, I_xori_cg_cr_rs1_imm_edges_rs1val_0x7fffffff_immval_m0x7ff, I_xori_cg_cr_rs1_imm_edges_rs1val_0x7fffffff_immval_m0x7ff_str)
    1bb0:	00062203          	lw	x4,0(x12)
    1bb4:	00b20863          	beq	x4,x11,1bc4 <I_xori_cg_cr_rs1_imm_edges_rs1val_0x7fffffff_immval_m0x7ff+0x18>
    1bb8:	105012ef          	jal	x5,34bc <failedtest_x5_x4>
    1bbc:	00001bac          	.word	0x00001bac
    1bc0:	0000bb03          	.word	0x0000bb03
    1bc4:	00460613          	addi	x12,x12,4

# Testcase cr_rs1_imm_edges (rs1 = 0x7fffffff, imm = -2)
  RVTEST_TESTDATA_LOAD_INT(x24, x2) # load rs1: x2 = 0x7fffffff
    1bc8:	000c2103          	lw	x2,0(x24)
    1bcc:	004c0c13          	addi	x24,x24,4

00001bd0 <I_xori_cg_cr_rs1_imm_edges_rs1val_0x7fffffff_immval_m0x2>:
I_xori_cg_cr_rs1_imm_edges_rs1val_0x7fffffff_immval_m0x2:
  xori x10, x2, -2 # perform operation
    1bd0:	ffe14513          	xori	x10,x2,-2
  # Check if x10 contains the expected result. x12 is the signature ptr, x5 is the link ptr, x4 is a temp reg.
  RVTEST_SIGUPD(x12, x5, x4, x10, I_xori_cg_cr_rs1_imm_edges_rs1val_0x7fffffff_immval_m0x2, I_xori_cg_cr_rs1_imm_edges_rs1val_0x7fffffff_immval_m0x2_str)
    1bd4:	00062203          	lw	x4,0(x12)
    1bd8:	00a20863          	beq	x4,x10,1be8 <I_xori_cg_cr_rs1_imm_edges_rs1val_0x7fffffff_immval_m0x2+0x18>
    1bdc:	0e1012ef          	jal	x5,34bc <failedtest_x5_x4>
    1be0:	00001bd0          	.word	0x00001bd0
    1be4:	0000bb5b          	.word	0x0000bb5b
    1be8:	00460613          	addi	x12,x12,4

# Testcase cr_rs1_imm_edges (rs1 = 0x7fffffff, imm = -1)
  RVTEST_TESTDATA_LOAD_INT(x24, x30) # load rs1: x30 = 0x7fffffff
    1bec:	000c2f03          	lw	x30,0(x24)
    1bf0:	004c0c13          	addi	x24,x24,4

00001bf4 <I_xori_cg_cr_rs1_imm_edges_rs1val_0x7fffffff_immval_m0x1>:
I_xori_cg_cr_rs1_imm_edges_rs1val_0x7fffffff_immval_m0x1:
  xori x6, x30, -1 # perform operation
    1bf4:	ffff4313          	xori	x6,x30,-1
  # Check if x6 contains the expected result. x12 is the signature ptr, x5 is the link ptr, x4 is a temp reg.
  RVTEST_SIGUPD(x12, x5, x4, x6, I_xori_cg_cr_rs1_imm_edges_rs1val_0x7fffffff_immval_m0x1, I_xori_cg_cr_rs1_imm_edges_rs1val_0x7fffffff_immval_m0x1_str)
    1bf8:	00062203          	lw	x4,0(x12)
    1bfc:	00620863          	beq	x4,x6,1c0c <I_xori_cg_cr_rs1_imm_edges_rs1val_0x7fffffff_immval_m0x1+0x18>
    1c00:	0bd012ef          	jal	x5,34bc <failedtest_x5_x4>
    1c04:	00001bf4          	.word	0x00001bf4
    1c08:	0000bbb1          	.word	0x0000bbb1
    1c0c:	00460613          	addi	x12,x12,4

# Testcase cr_rs1_imm_edges (rs1 = 0x7ffffffe, imm = 0)
  RVTEST_TESTDATA_LOAD_INT(x24, x11) # load rs1: x11 = 0x7ffffffe
    1c10:	000c2583          	lw	x11,0(x24)
    1c14:	004c0c13          	addi	x24,x24,4

00001c18 <I_xori_cg_cr_rs1_imm_edges_rs1val_0x7ffffffe_immval_0x0>:
I_xori_cg_cr_rs1_imm_edges_rs1val_0x7ffffffe_immval_0x0:
  xori x20, x11, 0 # perform operation
    1c18:	0005ca13          	xori	x20,x11,0
  # Check if x20 contains the expected result. x12 is the signature ptr, x5 is the link ptr, x4 is a temp reg.
  RVTEST_SIGUPD(x12, x5, x4, x20, I_xori_cg_cr_rs1_imm_edges_rs1val_0x7ffffffe_immval_0x0, I_xori_cg_cr_rs1_imm_edges_rs1val_0x7ffffffe_immval_0x0_str)
    1c1c:	00062203          	lw	x4,0(x12)
    1c20:	01420863          	beq	x4,x20,1c30 <I_xori_cg_cr_rs1_imm_edges_rs1val_0x7ffffffe_immval_0x0+0x18>
    1c24:	099012ef          	jal	x5,34bc <failedtest_x5_x4>
    1c28:	00001c18          	.word	0x00001c18
    1c2c:	0000bc07          	.word	0x0000bc07
    1c30:	00460613          	addi	x12,x12,4

# Testcase cr_rs1_imm_edges (rs1 = 0x7ffffffe, imm = 1)
  RVTEST_TESTDATA_LOAD_INT(x24, x3) # load rs1: x3 = 0x7ffffffe
    1c34:	000c2183          	lw	x3,0(x24)
    1c38:	004c0c13          	addi	x24,x24,4

00001c3c <I_xori_cg_cr_rs1_imm_edges_rs1val_0x7ffffffe_immval_0x1>:
I_xori_cg_cr_rs1_imm_edges_rs1val_0x7ffffffe_immval_0x1:
  xori x17, x3, 1 # perform operation
    1c3c:	0011c893          	xori	x17,x3,1
  # Check if x17 contains the expected result. x12 is the signature ptr, x5 is the link ptr, x4 is a temp reg.
  RVTEST_SIGUPD(x12, x5, x4, x17, I_xori_cg_cr_rs1_imm_edges_rs1val_0x7ffffffe_immval_0x1, I_xori_cg_cr_rs1_imm_edges_rs1val_0x7ffffffe_immval_0x1_str)
    1c40:	00062203          	lw	x4,0(x12)
    1c44:	01120863          	beq	x4,x17,1c54 <I_xori_cg_cr_rs1_imm_edges_rs1val_0x7ffffffe_immval_0x1+0x18>
    1c48:	075012ef          	jal	x5,34bc <failedtest_x5_x4>
    1c4c:	00001c3c          	.word	0x00001c3c
    1c50:	0000bc5c          	.word	0x0000bc5c
    1c54:	00460613          	addi	x12,x12,4

# Testcase cr_rs1_imm_edges (rs1 = 0x7ffffffe, imm = 2)
  RVTEST_TESTDATA_LOAD_INT(x24, x7) # load rs1: x7 = 0x7ffffffe
    1c58:	000c2383          	lw	x7,0(x24)
    1c5c:	004c0c13          	addi	x24,x24,4

00001c60 <I_xori_cg_cr_rs1_imm_edges_rs1val_0x7ffffffe_immval_0x2>:
I_xori_cg_cr_rs1_imm_edges_rs1val_0x7ffffffe_immval_0x2:
  xori x23, x7, 2 # perform operation
    1c60:	0023cb93          	xori	x23,x7,2
  # Check if x23 contains the expected result. x12 is the signature ptr, x5 is the link ptr, x4 is a temp reg.
  RVTEST_SIGUPD(x12, x5, x4, x23, I_xori_cg_cr_rs1_imm_edges_rs1val_0x7ffffffe_immval_0x2, I_xori_cg_cr_rs1_imm_edges_rs1val_0x7ffffffe_immval_0x2_str)
    1c64:	00062203          	lw	x4,0(x12)
    1c68:	01720863          	beq	x4,x23,1c78 <I_xori_cg_cr_rs1_imm_edges_rs1val_0x7ffffffe_immval_0x2+0x18>
    1c6c:	051012ef          	jal	x5,34bc <failedtest_x5_x4>
    1c70:	00001c60          	.word	0x00001c60
    1c74:	0000bcb1          	.word	0x0000bcb1
    1c78:	00460613          	addi	x12,x12,4

# Testcase cr_rs1_imm_edges (rs1 = 0x7ffffffe, imm = 3)
  RVTEST_TESTDATA_LOAD_INT(x24, x8) # load rs1: x8 = 0x7ffffffe
    1c7c:	000c2403          	lw	x8,0(x24)
    1c80:	004c0c13          	addi	x24,x24,4

00001c84 <I_xori_cg_cr_rs1_imm_edges_rs1val_0x7ffffffe_immval_0x3>:
I_xori_cg_cr_rs1_imm_edges_rs1val_0x7ffffffe_immval_0x3:
  xori x26, x8, 3 # perform operation
    1c84:	00344d13          	xori	x26,x8,3
  # Check if x26 contains the expected result. x12 is the signature ptr, x5 is the link ptr, x4 is a temp reg.
  RVTEST_SIGUPD(x12, x5, x4, x26, I_xori_cg_cr_rs1_imm_edges_rs1val_0x7ffffffe_immval_0x3, I_xori_cg_cr_rs1_imm_edges_rs1val_0x7ffffffe_immval_0x3_str)
    1c88:	00062203          	lw	x4,0(x12)
    1c8c:	01a20863          	beq	x4,x26,1c9c <I_xori_cg_cr_rs1_imm_edges_rs1val_0x7ffffffe_immval_0x3+0x18>
    1c90:	02d012ef          	jal	x5,34bc <failedtest_x5_x4>
    1c94:	00001c84          	.word	0x00001c84
    1c98:	0000bd06          	.word	0x0000bd06
    1c9c:	00460613          	addi	x12,x12,4

# Testcase cr_rs1_imm_edges (rs1 = 0x7ffffffe, imm = 4)
  RVTEST_TESTDATA_LOAD_INT(x24, x17) # load rs1: x17 = 0x7ffffffe
    1ca0:	000c2883          	lw	x17,0(x24)
    1ca4:	004c0c13          	addi	x24,x24,4

00001ca8 <I_xori_cg_cr_rs1_imm_edges_rs1val_0x7ffffffe_immval_0x4>:
I_xori_cg_cr_rs1_imm_edges_rs1val_0x7ffffffe_immval_0x4:
  xori x23, x17, 4 # perform operation
    1ca8:	0048cb93          	xori	x23,x17,4
  # Check if x23 contains the expected result. x12 is the signature ptr, x5 is the link ptr, x4 is a temp reg.
  RVTEST_SIGUPD(x12, x5, x4, x23, I_xori_cg_cr_rs1_imm_edges_rs1val_0x7ffffffe_immval_0x4, I_xori_cg_cr_rs1_imm_edges_rs1val_0x7ffffffe_immval_0x4_str)
    1cac:	00062203          	lw	x4,0(x12)
    1cb0:	01720863          	beq	x4,x23,1cc0 <I_xori_cg_cr_rs1_imm_edges_rs1val_0x7ffffffe_immval_0x4+0x18>
    1cb4:	009012ef          	jal	x5,34bc <failedtest_x5_x4>
    1cb8:	00001ca8          	.word	0x00001ca8
    1cbc:	0000bd5b          	.word	0x0000bd5b
    1cc0:	00460613          	addi	x12,x12,4

# Testcase cr_rs1_imm_edges (rs1 = 0x7ffffffe, imm = 8)
  RVTEST_TESTDATA_LOAD_INT(x24, x30) # load rs1: x30 = 0x7ffffffe
    1cc4:	000c2f03          	lw	x30,0(x24)
    1cc8:	004c0c13          	addi	x24,x24,4

00001ccc <I_xori_cg_cr_rs1_imm_edges_rs1val_0x7ffffffe_immval_0x8>:
I_xori_cg_cr_rs1_imm_edges_rs1val_0x7ffffffe_immval_0x8:
  xori x26, x30, 8 # perform operation
    1ccc:	008f4d13          	xori	x26,x30,8
  # Check if x26 contains the expected result. x12 is the signature ptr, x5 is the link ptr, x4 is a temp reg.
  RVTEST_SIGUPD(x12, x5, x4, x26, I_xori_cg_cr_rs1_imm_edges_rs1val_0x7ffffffe_immval_0x8, I_xori_cg_cr_rs1_imm_edges_rs1val_0x7ffffffe_immval_0x8_str)
    1cd0:	00062203          	lw	x4,0(x12)
    1cd4:	01a20863          	beq	x4,x26,1ce4 <I_xori_cg_cr_rs1_imm_edges_rs1val_0x7ffffffe_immval_0x8+0x18>
    1cd8:	7e4012ef          	jal	x5,34bc <failedtest_x5_x4>
    1cdc:	00001ccc          	.word	0x00001ccc
    1ce0:	0000bdb0          	.word	0x0000bdb0
    1ce4:	00460613          	addi	x12,x12,4

# Testcase cr_rs1_imm_edges (rs1 = 0x7ffffffe, imm = 16)
  RVTEST_TESTDATA_LOAD_INT(x24, x27) # load rs1: x27 = 0x7ffffffe
    1ce8:	000c2d83          	lw	x27,0(x24)
    1cec:	004c0c13          	addi	x24,x24,4

00001cf0 <I_xori_cg_cr_rs1_imm_edges_rs1val_0x7ffffffe_immval_0x10>:
I_xori_cg_cr_rs1_imm_edges_rs1val_0x7ffffffe_immval_0x10:
  xori x28, x27, 16 # perform operation
    1cf0:	010dce13          	xori	x28,x27,16
  # Check if x28 contains the expected result. x12 is the signature ptr, x5 is the link ptr, x4 is a temp reg.
  RVTEST_SIGUPD(x12, x5, x4, x28, I_xori_cg_cr_rs1_imm_edges_rs1val_0x7ffffffe_immval_0x10, I_xori_cg_cr_rs1_imm_edges_rs1val_0x7ffffffe_immval_0x10_str)
    1cf4:	00062203          	lw	x4,0(x12)
    1cf8:	01c20863          	beq	x4,x28,1d08 <I_xori_cg_cr_rs1_imm_edges_rs1val_0x7ffffffe_immval_0x10+0x18>
    1cfc:	7c0012ef          	jal	x5,34bc <failedtest_x5_x4>
    1d00:	00001cf0          	.word	0x00001cf0
    1d04:	0000be05          	.word	0x0000be05
    1d08:	00460613          	addi	x12,x12,4

# Testcase cr_rs1_imm_edges (rs1 = 0x7ffffffe, imm = 32)
  RVTEST_TESTDATA_LOAD_INT(x24, x2) # load rs1: x2 = 0x7ffffffe
    1d0c:	000c2103          	lw	x2,0(x24)
    1d10:	004c0c13          	addi	x24,x24,4

00001d14 <I_xori_cg_cr_rs1_imm_edges_rs1val_0x7ffffffe_immval_0x20>:
I_xori_cg_cr_rs1_imm_edges_rs1val_0x7ffffffe_immval_0x20:
  xori x15, x2, 32 # perform operation
    1d14:	02014793          	xori	x15,x2,32
  # Check if x15 contains the expected result. x12 is the signature ptr, x5 is the link ptr, x4 is a temp reg.
  RVTEST_SIGUPD(x12, x5, x4, x15, I_xori_cg_cr_rs1_imm_edges_rs1val_0x7ffffffe_immval_0x20, I_xori_cg_cr_rs1_imm_edges_rs1val_0x7ffffffe_immval_0x20_str)
    1d18:	00062203          	lw	x4,0(x12)
    1d1c:	00f20863          	beq	x4,x15,1d2c <I_xori_cg_cr_rs1_imm_edges_rs1val_0x7ffffffe_immval_0x20+0x18>
    1d20:	79c012ef          	jal	x5,34bc <failedtest_x5_x4>
    1d24:	00001d14          	.word	0x00001d14
    1d28:	0000be5b          	.word	0x0000be5b
    1d2c:	00460613          	addi	x12,x12,4

# Testcase cr_rs1_imm_edges (rs1 = 0x7ffffffe, imm = 64)
  RVTEST_TESTDATA_LOAD_INT(x24, x22) # load rs1: x22 = 0x7ffffffe
    1d30:	000c2b03          	lw	x22,0(x24)
    1d34:	004c0c13          	addi	x24,x24,4

00001d38 <I_xori_cg_cr_rs1_imm_edges_rs1val_0x7ffffffe_immval_0x40>:
I_xori_cg_cr_rs1_imm_edges_rs1val_0x7ffffffe_immval_0x40:
  xori x8, x22, 64 # perform operation
    1d38:	040b4413          	xori	x8,x22,64
  # Check if x8 contains the expected result. x12 is the signature ptr, x5 is the link ptr, x4 is a temp reg.
  RVTEST_SIGUPD(x12, x5, x4, x8, I_xori_cg_cr_rs1_imm_edges_rs1val_0x7ffffffe_immval_0x40, I_xori_cg_cr_rs1_imm_edges_rs1val_0x7ffffffe_immval_0x40_str)
    1d3c:	00062203          	lw	x4,0(x12)
    1d40:	00820863          	beq	x4,x8,1d50 <I_xori_cg_cr_rs1_imm_edges_rs1val_0x7ffffffe_immval_0x40+0x18>
    1d44:	778012ef          	jal	x5,34bc <failedtest_x5_x4>
    1d48:	00001d38          	.word	0x00001d38
    1d4c:	0000beb1          	.word	0x0000beb1
    1d50:	00460613          	addi	x12,x12,4

# Testcase cr_rs1_imm_edges (rs1 = 0x7ffffffe, imm = 128)
  RVTEST_TESTDATA_LOAD_INT(x24, x15) # load rs1: x15 = 0x7ffffffe
    1d54:	000c2783          	lw	x15,0(x24)
    1d58:	004c0c13          	addi	x24,x24,4

00001d5c <I_xori_cg_cr_rs1_imm_edges_rs1val_0x7ffffffe_immval_0x80>:
I_xori_cg_cr_rs1_imm_edges_rs1val_0x7ffffffe_immval_0x80:
  xori x21, x15, 128 # perform operation
    1d5c:	0807ca93          	xori	x21,x15,128
  # Check if x21 contains the expected result. x12 is the signature ptr, x5 is the link ptr, x4 is a temp reg.
  RVTEST_SIGUPD(x12, x5, x4, x21, I_xori_cg_cr_rs1_imm_edges_rs1val_0x7ffffffe_immval_0x80, I_xori_cg_cr_rs1_imm_edges_rs1val_0x7ffffffe_immval_0x80_str)
    1d60:	00062203          	lw	x4,0(x12)
    1d64:	01520863          	beq	x4,x21,1d74 <I_xori_cg_cr_rs1_imm_edges_rs1val_0x7ffffffe_immval_0x80+0x18>
    1d68:	754012ef          	jal	x5,34bc <failedtest_x5_x4>
    1d6c:	00001d5c          	.word	0x00001d5c
    1d70:	0000bf07          	.word	0x0000bf07
    1d74:	00460613          	addi	x12,x12,4

# Testcase cr_rs1_imm_edges (rs1 = 0x7ffffffe, imm = 256)
  RVTEST_TESTDATA_LOAD_INT(x24, x16) # load rs1: x16 = 0x7ffffffe
    1d78:	000c2803          	lw	x16,0(x24)
    1d7c:	004c0c13          	addi	x24,x24,4

00001d80 <I_xori_cg_cr_rs1_imm_edges_rs1val_0x7ffffffe_immval_0x100>:
I_xori_cg_cr_rs1_imm_edges_rs1val_0x7ffffffe_immval_0x100:
  xori x15, x16, 256 # perform operation
    1d80:	10084793          	xori	x15,x16,256
  # Check if x15 contains the expected result. x12 is the signature ptr, x5 is the link ptr, x4 is a temp reg.
  RVTEST_SIGUPD(x12, x5, x4, x15, I_xori_cg_cr_rs1_imm_edges_rs1val_0x7ffffffe_immval_0x100, I_xori_cg_cr_rs1_imm_edges_rs1val_0x7ffffffe_immval_0x100_str)
    1d84:	00062203          	lw	x4,0(x12)
    1d88:	00f20863          	beq	x4,x15,1d98 <I_xori_cg_cr_rs1_imm_edges_rs1val_0x7ffffffe_immval_0x100+0x18>
    1d8c:	730012ef          	jal	x5,34bc <failedtest_x5_x4>
    1d90:	00001d80          	.word	0x00001d80
    1d94:	0000bf5d          	.word	0x0000bf5d
    1d98:	00460613          	addi	x12,x12,4

# Testcase cr_rs1_imm_edges (rs1 = 0x7ffffffe, imm = 512)
  RVTEST_TESTDATA_LOAD_INT(x24, x21) # load rs1: x21 = 0x7ffffffe
    1d9c:	000c2a83          	lw	x21,0(x24)
    1da0:	004c0c13          	addi	x24,x24,4

00001da4 <I_xori_cg_cr_rs1_imm_edges_rs1val_0x7ffffffe_immval_0x200>:
I_xori_cg_cr_rs1_imm_edges_rs1val_0x7ffffffe_immval_0x200:
  xori x15, x21, 512 # perform operation
    1da4:	200ac793          	xori	x15,x21,512
  # Check if x15 contains the expected result. x12 is the signature ptr, x5 is the link ptr, x4 is a temp reg.
  RVTEST_SIGUPD(x12, x5, x4, x15, I_xori_cg_cr_rs1_imm_edges_rs1val_0x7ffffffe_immval_0x200, I_xori_cg_cr_rs1_imm_edges_rs1val_0x7ffffffe_immval_0x200_str)
    1da8:	00062203          	lw	x4,0(x12)
    1dac:	00f20863          	beq	x4,x15,1dbc <I_xori_cg_cr_rs1_imm_edges_rs1val_0x7ffffffe_immval_0x200+0x18>
    1db0:	70c012ef          	jal	x5,34bc <failedtest_x5_x4>
    1db4:	00001da4          	.word	0x00001da4
    1db8:	0000bfb4          	.word	0x0000bfb4
    1dbc:	00460613          	addi	x12,x12,4

# Testcase cr_rs1_imm_edges (rs1 = 0x7ffffffe, imm = 1023)
  RVTEST_TESTDATA_LOAD_INT(x24, x22) # load rs1: x22 = 0x7ffffffe
    1dc0:	000c2b03          	lw	x22,0(x24)
    1dc4:	004c0c13          	addi	x24,x24,4

00001dc8 <I_xori_cg_cr_rs1_imm_edges_rs1val_0x7ffffffe_immval_0x3ff>:
I_xori_cg_cr_rs1_imm_edges_rs1val_0x7ffffffe_immval_0x3ff:
  xori x8, x22, 1023 # perform operation
    1dc8:	3ffb4413          	xori	x8,x22,1023
  # Check if x8 contains the expected result. x12 is the signature ptr, x5 is the link ptr, x4 is a temp reg.
  RVTEST_SIGUPD(x12, x5, x4, x8, I_xori_cg_cr_rs1_imm_edges_rs1val_0x7ffffffe_immval_0x3ff, I_xori_cg_cr_rs1_imm_edges_rs1val_0x7ffffffe_immval_0x3ff_str)
    1dcc:	00062203          	lw	x4,0(x12)
    1dd0:	00820863          	beq	x4,x8,1de0 <I_xori_cg_cr_rs1_imm_edges_rs1val_0x7ffffffe_immval_0x3ff+0x18>
    1dd4:	6e8012ef          	jal	x5,34bc <failedtest_x5_x4>
    1dd8:	00001dc8          	.word	0x00001dc8
    1ddc:	0000c00b          	.word	0x0000c00b
    1de0:	00460613          	addi	x12,x12,4

# Testcase cr_rs1_imm_edges (rs1 = 0x7ffffffe, imm = 1024)
  RVTEST_TESTDATA_LOAD_INT(x24, x1) # load rs1: x1 = 0x7ffffffe
    1de4:	000c2083          	lw	x1,0(x24)
    1de8:	004c0c13          	addi	x24,x24,4

00001dec <I_xori_cg_cr_rs1_imm_edges_rs1val_0x7ffffffe_immval_0x400>:
I_xori_cg_cr_rs1_imm_edges_rs1val_0x7ffffffe_immval_0x400:
  xori x23, x1, 1024 # perform operation
    1dec:	4000cb93          	xori	x23,x1,1024
  # Check if x23 contains the expected result. x12 is the signature ptr, x5 is the link ptr, x4 is a temp reg.
  RVTEST_SIGUPD(x12, x5, x4, x23, I_xori_cg_cr_rs1_imm_edges_rs1val_0x7ffffffe_immval_0x400, I_xori_cg_cr_rs1_imm_edges_rs1val_0x7ffffffe_immval_0x400_str)
    1df0:	00062203          	lw	x4,0(x12)
    1df4:	01720863          	beq	x4,x23,1e04 <I_xori_cg_cr_rs1_imm_edges_rs1val_0x7ffffffe_immval_0x400+0x18>
    1df8:	6c4012ef          	jal	x5,34bc <failedtest_x5_x4>
    1dfc:	00001dec          	.word	0x00001dec
    1e00:	0000c062          	.word	0x0000c062
    1e04:	00460613          	addi	x12,x12,4

# Testcase cr_rs1_imm_edges (rs1 = 0x7ffffffe, imm = 1795)
  RVTEST_TESTDATA_LOAD_INT(x24, x20) # load rs1: x20 = 0x7ffffffe
    1e08:	000c2a03          	lw	x20,0(x24)
    1e0c:	004c0c13          	addi	x24,x24,4

00001e10 <I_xori_cg_cr_rs1_imm_edges_rs1val_0x7ffffffe_immval_0x703>:
I_xori_cg_cr_rs1_imm_edges_rs1val_0x7ffffffe_immval_0x703:
  xori x14, x20, 1795 # perform operation
    1e10:	703a4713          	xori	x14,x20,1795
  # Check if x14 contains the expected result. x12 is the signature ptr, x5 is the link ptr, x4 is a temp reg.
  RVTEST_SIGUPD(x12, x5, x4, x14, I_xori_cg_cr_rs1_imm_edges_rs1val_0x7ffffffe_immval_0x703, I_xori_cg_cr_rs1_imm_edges_rs1val_0x7ffffffe_immval_0x703_str)
    1e14:	00062203          	lw	x4,0(x12)
    1e18:	00e20863          	beq	x4,x14,1e28 <I_xori_cg_cr_rs1_imm_edges_rs1val_0x7ffffffe_immval_0x703+0x18>
    1e1c:	6a0012ef          	jal	x5,34bc <failedtest_x5_x4>
    1e20:	00001e10          	.word	0x00001e10
    1e24:	0000c0b9          	.word	0x0000c0b9
    1e28:	00460613          	addi	x12,x12,4

# Testcase cr_rs1_imm_edges (rs1 = 0x7ffffffe, imm = 2047)
  RVTEST_TESTDATA_LOAD_INT(x24, x28) # load rs1: x28 = 0x7ffffffe
    1e2c:	000c2e03          	lw	x28,0(x24)
    1e30:	004c0c13          	addi	x24,x24,4

00001e34 <I_xori_cg_cr_rs1_imm_edges_rs1val_0x7ffffffe_immval_0x7ff>:
I_xori_cg_cr_rs1_imm_edges_rs1val_0x7ffffffe_immval_0x7ff:
  xori x11, x28, 2047 # perform operation
    1e34:	7ffe4593          	xori	x11,x28,2047
  # Check if x11 contains the expected result. x12 is the signature ptr, x5 is the link ptr, x4 is a temp reg.
  RVTEST_SIGUPD(x12, x5, x4, x11, I_xori_cg_cr_rs1_imm_edges_rs1val_0x7ffffffe_immval_0x7ff, I_xori_cg_cr_rs1_imm_edges_rs1val_0x7ffffffe_immval_0x7ff_str)
    1e38:	00062203          	lw	x4,0(x12)
    1e3c:	00b20863          	beq	x4,x11,1e4c <I_xori_cg_cr_rs1_imm_edges_rs1val_0x7ffffffe_immval_0x7ff+0x18>
    1e40:	67c012ef          	jal	x5,34bc <failedtest_x5_x4>
    1e44:	00001e34          	.word	0x00001e34
    1e48:	0000c110          	.word	0x0000c110
    1e4c:	00460613          	addi	x12,x12,4

# Testcase cr_rs1_imm_edges (rs1 = 0x7ffffffe, imm = -2048)
  RVTEST_TESTDATA_LOAD_INT(x24, x1) # load rs1: x1 = 0x7ffffffe
    1e50:	000c2083          	lw	x1,0(x24)
    1e54:	004c0c13          	addi	x24,x24,4

00001e58 <I_xori_cg_cr_rs1_imm_edges_rs1val_0x7ffffffe_immval_m0x800>:
I_xori_cg_cr_rs1_imm_edges_rs1val_0x7ffffffe_immval_m0x800:
  xori x14, x1, -2048 # perform operation
    1e58:	8000c713          	xori	x14,x1,-2048
  # Check if x14 contains the expected result. x12 is the signature ptr, x5 is the link ptr, x4 is a temp reg.
  RVTEST_SIGUPD(x12, x5, x4, x14, I_xori_cg_cr_rs1_imm_edges_rs1val_0x7ffffffe_immval_m0x800, I_xori_cg_cr_rs1_imm_edges_rs1val_0x7ffffffe_immval_m0x800_str)
    1e5c:	00062203          	lw	x4,0(x12)
    1e60:	00e20863          	beq	x4,x14,1e70 <I_xori_cg_cr_rs1_imm_edges_rs1val_0x7ffffffe_immval_m0x800+0x18>
    1e64:	658012ef          	jal	x5,34bc <failedtest_x5_x4>
    1e68:	00001e58          	.word	0x00001e58
    1e6c:	0000c167          	.word	0x0000c167
    1e70:	00460613          	addi	x12,x12,4

# Testcase cr_rs1_imm_edges (rs1 = 0x7ffffffe, imm = -2047)
  RVTEST_TESTDATA_LOAD_INT(x24, x18) # load rs1: x18 = 0x7ffffffe
    1e74:	000c2903          	lw	x18,0(x24)
    1e78:	004c0c13          	addi	x24,x24,4

00001e7c <I_xori_cg_cr_rs1_imm_edges_rs1val_0x7ffffffe_immval_m0x7ff>:
I_xori_cg_cr_rs1_imm_edges_rs1val_0x7ffffffe_immval_m0x7ff:
  xori x20, x18, -2047 # perform operation
    1e7c:	80194a13          	xori	x20,x18,-2047
  # Check if x20 contains the expected result. x12 is the signature ptr, x5 is the link ptr, x4 is a temp reg.
  RVTEST_SIGUPD(x12, x5, x4, x20, I_xori_cg_cr_rs1_imm_edges_rs1val_0x7ffffffe_immval_m0x7ff, I_xori_cg_cr_rs1_imm_edges_rs1val_0x7ffffffe_immval_m0x7ff_str)
    1e80:	00062203          	lw	x4,0(x12)
    1e84:	01420863          	beq	x4,x20,1e94 <I_xori_cg_cr_rs1_imm_edges_rs1val_0x7ffffffe_immval_m0x7ff+0x18>
    1e88:	634012ef          	jal	x5,34bc <failedtest_x5_x4>
    1e8c:	00001e7c          	.word	0x00001e7c
    1e90:	0000c1bf          	.word	0x0000c1bf
    1e94:	00460613          	addi	x12,x12,4

# Testcase cr_rs1_imm_edges (rs1 = 0x7ffffffe, imm = -2)
  RVTEST_TESTDATA_LOAD_INT(x24, x10) # load rs1: x10 = 0x7ffffffe
    1e98:	000c2503          	lw	x10,0(x24)
    1e9c:	004c0c13          	addi	x24,x24,4

00001ea0 <I_xori_cg_cr_rs1_imm_edges_rs1val_0x7ffffffe_immval_m0x2>:
I_xori_cg_cr_rs1_imm_edges_rs1val_0x7ffffffe_immval_m0x2:
  xori x9, x10, -2 # perform operation
    1ea0:	ffe54493          	xori	x9,x10,-2
  # Check if x9 contains the expected result. x12 is the signature ptr, x5 is the link ptr, x4 is a temp reg.
  RVTEST_SIGUPD(x12, x5, x4, x9, I_xori_cg_cr_rs1_imm_edges_rs1val_0x7ffffffe_immval_m0x2, I_xori_cg_cr_rs1_imm_edges_rs1val_0x7ffffffe_immval_m0x2_str)
    1ea4:	00062203          	lw	x4,0(x12)
    1ea8:	00920863          	beq	x4,x9,1eb8 <I_xori_cg_cr_rs1_imm_edges_rs1val_0x7ffffffe_immval_m0x2+0x18>
    1eac:	610012ef          	jal	x5,34bc <failedtest_x5_x4>
    1eb0:	00001ea0          	.word	0x00001ea0
    1eb4:	0000c217          	.word	0x0000c217
    1eb8:	00460613          	addi	x12,x12,4

# Testcase cr_rs1_imm_edges (rs1 = 0x7ffffffe, imm = -1)
  RVTEST_TESTDATA_LOAD_INT(x24, x28) # load rs1: x28 = 0x7ffffffe
    1ebc:	000c2e03          	lw	x28,0(x24)
    1ec0:	004c0c13          	addi	x24,x24,4

00001ec4 <I_xori_cg_cr_rs1_imm_edges_rs1val_0x7ffffffe_immval_m0x1>:
I_xori_cg_cr_rs1_imm_edges_rs1val_0x7ffffffe_immval_m0x1:
  xori x27, x28, -1 # perform operation
    1ec4:	fffe4d93          	xori	x27,x28,-1
  # Check if x27 contains the expected result. x12 is the signature ptr, x5 is the link ptr, x4 is a temp reg.
  RVTEST_SIGUPD(x12, x5, x4, x27, I_xori_cg_cr_rs1_imm_edges_rs1val_0x7ffffffe_immval_m0x1, I_xori_cg_cr_rs1_imm_edges_rs1val_0x7ffffffe_immval_m0x1_str)
    1ec8:	00062203          	lw	x4,0(x12)
    1ecc:	01b20863          	beq	x4,x27,1edc <I_xori_cg_cr_rs1_imm_edges_rs1val_0x7ffffffe_immval_m0x1+0x18>
    1ed0:	5ec012ef          	jal	x5,34bc <failedtest_x5_x4>
    1ed4:	00001ec4          	.word	0x00001ec4
    1ed8:	0000c26d          	.word	0x0000c26d
    1edc:	00460613          	addi	x12,x12,4

# Testcase cr_rs1_imm_edges (rs1 = 0xffffffff, imm = 0)
  RVTEST_TESTDATA_LOAD_INT(x24, x19) # load rs1: x19 = 0xffffffff
    1ee0:	000c2983          	lw	x19,0(x24)
    1ee4:	004c0c13          	addi	x24,x24,4

00001ee8 <I_xori_cg_cr_rs1_imm_edges_rs1val_0xffffffff_immval_0x0>:
I_xori_cg_cr_rs1_imm_edges_rs1val_0xffffffff_immval_0x0:
  xori x6, x19, 0 # perform operation
    1ee8:	0009c313          	xori	x6,x19,0
  # Check if x6 contains the expected result. x12 is the signature ptr, x5 is the link ptr, x4 is a temp reg.
  RVTEST_SIGUPD(x12, x5, x4, x6, I_xori_cg_cr_rs1_imm_edges_rs1val_0xffffffff_immval_0x0, I_xori_cg_cr_rs1_imm_edges_rs1val_0xffffffff_immval_0x0_str)
    1eec:	00062203          	lw	x4,0(x12)
    1ef0:	00620863          	beq	x4,x6,1f00 <I_xori_cg_cr_rs1_imm_edges_rs1val_0xffffffff_immval_0x0+0x18>
    1ef4:	5c8012ef          	jal	x5,34bc <failedtest_x5_x4>
    1ef8:	00001ee8          	.word	0x00001ee8
    1efc:	0000c2c3          	.word	0x0000c2c3
    1f00:	00460613          	addi	x12,x12,4

# Testcase cr_rs1_imm_edges (rs1 = 0xffffffff, imm = 1)
  RVTEST_TESTDATA_LOAD_INT(x24, x28) # load rs1: x28 = 0xffffffff
    1f04:	000c2e03          	lw	x28,0(x24)
    1f08:	004c0c13          	addi	x24,x24,4

00001f0c <I_xori_cg_cr_rs1_imm_edges_rs1val_0xffffffff_immval_0x1>:
I_xori_cg_cr_rs1_imm_edges_rs1val_0xffffffff_immval_0x1:
  xori x26, x28, 1 # perform operation
    1f0c:	001e4d13          	xori	x26,x28,1
  # Check if x26 contains the expected result. x12 is the signature ptr, x5 is the link ptr, x4 is a temp reg.
  RVTEST_SIGUPD(x12, x5, x4, x26, I_xori_cg_cr_rs1_imm_edges_rs1val_0xffffffff_immval_0x1, I_xori_cg_cr_rs1_imm_edges_rs1val_0xffffffff_immval_0x1_str)
    1f10:	00062203          	lw	x4,0(x12)
    1f14:	01a20863          	beq	x4,x26,1f24 <I_xori_cg_cr_rs1_imm_edges_rs1val_0xffffffff_immval_0x1+0x18>
    1f18:	5a4012ef          	jal	x5,34bc <failedtest_x5_x4>
    1f1c:	00001f0c          	.word	0x00001f0c
    1f20:	0000c318          	.word	0x0000c318
    1f24:	00460613          	addi	x12,x12,4

# Testcase cr_rs1_imm_edges (rs1 = 0xffffffff, imm = 2)
  RVTEST_TESTDATA_LOAD_INT(x24, x29) # load rs1: x29 = 0xffffffff
    1f28:	000c2e83          	lw	x29,0(x24)
    1f2c:	004c0c13          	addi	x24,x24,4

00001f30 <I_xori_cg_cr_rs1_imm_edges_rs1val_0xffffffff_immval_0x2>:
I_xori_cg_cr_rs1_imm_edges_rs1val_0xffffffff_immval_0x2:
  xori x28, x29, 2 # perform operation
    1f30:	002ece13          	xori	x28,x29,2
  # Check if x28 contains the expected result. x12 is the signature ptr, x5 is the link ptr, x4 is a temp reg.
  RVTEST_SIGUPD(x12, x5, x4, x28, I_xori_cg_cr_rs1_imm_edges_rs1val_0xffffffff_immval_0x2, I_xori_cg_cr_rs1_imm_edges_rs1val_0xffffffff_immval_0x2_str)
    1f34:	00062203          	lw	x4,0(x12)
    1f38:	01c20863          	beq	x4,x28,1f48 <I_xori_cg_cr_rs1_imm_edges_rs1val_0xffffffff_immval_0x2+0x18>
    1f3c:	580012ef          	jal	x5,34bc <failedtest_x5_x4>
    1f40:	00001f30          	.word	0x00001f30
    1f44:	0000c36d          	.word	0x0000c36d
    1f48:	00460613          	addi	x12,x12,4

# Testcase cr_rs1_imm_edges (rs1 = 0xffffffff, imm = 3)
  RVTEST_TESTDATA_LOAD_INT(x24, x2) # load rs1: x2 = 0xffffffff
    1f4c:	000c2103          	lw	x2,0(x24)
    1f50:	004c0c13          	addi	x24,x24,4

00001f54 <I_xori_cg_cr_rs1_imm_edges_rs1val_0xffffffff_immval_0x3>:
I_xori_cg_cr_rs1_imm_edges_rs1val_0xffffffff_immval_0x3:
  xori x13, x2, 3 # perform operation
    1f54:	00314693          	xori	x13,x2,3
  # Check if x13 contains the expected result. x12 is the signature ptr, x5 is the link ptr, x4 is a temp reg.
  RVTEST_SIGUPD(x12, x5, x4, x13, I_xori_cg_cr_rs1_imm_edges_rs1val_0xffffffff_immval_0x3, I_xori_cg_cr_rs1_imm_edges_rs1val_0xffffffff_immval_0x3_str)
    1f58:	00062203          	lw	x4,0(x12)
    1f5c:	00d20863          	beq	x4,x13,1f6c <I_xori_cg_cr_rs1_imm_edges_rs1val_0xffffffff_immval_0x3+0x18>
    1f60:	55c012ef          	jal	x5,34bc <failedtest_x5_x4>
    1f64:	00001f54          	.word	0x00001f54
    1f68:	0000c3c2          	.word	0x0000c3c2
    1f6c:	00460613          	addi	x12,x12,4

# Testcase cr_rs1_imm_edges (rs1 = 0xffffffff, imm = 4)
  RVTEST_TESTDATA_LOAD_INT(x24, x26) # load rs1: x26 = 0xffffffff
    1f70:	000c2d03          	lw	x26,0(x24)
    1f74:	004c0c13          	addi	x24,x24,4

00001f78 <I_xori_cg_cr_rs1_imm_edges_rs1val_0xffffffff_immval_0x4>:
I_xori_cg_cr_rs1_imm_edges_rs1val_0xffffffff_immval_0x4:
  xori x15, x26, 4 # perform operation
    1f78:	004d4793          	xori	x15,x26,4
  # Check if x15 contains the expected result. x12 is the signature ptr, x5 is the link ptr, x4 is a temp reg.
  RVTEST_SIGUPD(x12, x5, x4, x15, I_xori_cg_cr_rs1_imm_edges_rs1val_0xffffffff_immval_0x4, I_xori_cg_cr_rs1_imm_edges_rs1val_0xffffffff_immval_0x4_str)
    1f7c:	00062203          	lw	x4,0(x12)
    1f80:	00f20863          	beq	x4,x15,1f90 <I_xori_cg_cr_rs1_imm_edges_rs1val_0xffffffff_immval_0x4+0x18>
    1f84:	538012ef          	jal	x5,34bc <failedtest_x5_x4>
    1f88:	00001f78          	.word	0x00001f78
    1f8c:	0000c417          	.word	0x0000c417
    1f90:	00460613          	addi	x12,x12,4

# Testcase cr_rs1_imm_edges (rs1 = 0xffffffff, imm = 8)
  RVTEST_TESTDATA_LOAD_INT(x24, x28) # load rs1: x28 = 0xffffffff
    1f94:	000c2e03          	lw	x28,0(x24)
    1f98:	004c0c13          	addi	x24,x24,4

00001f9c <I_xori_cg_cr_rs1_imm_edges_rs1val_0xffffffff_immval_0x8>:
I_xori_cg_cr_rs1_imm_edges_rs1val_0xffffffff_immval_0x8:
  xori x16, x28, 8 # perform operation
    1f9c:	008e4813          	xori	x16,x28,8
  # Check if x16 contains the expected result. x12 is the signature ptr, x5 is the link ptr, x4 is a temp reg.
  RVTEST_SIGUPD(x12, x5, x4, x16, I_xori_cg_cr_rs1_imm_edges_rs1val_0xffffffff_immval_0x8, I_xori_cg_cr_rs1_imm_edges_rs1val_0xffffffff_immval_0x8_str)
    1fa0:	00062203          	lw	x4,0(x12)
    1fa4:	01020863          	beq	x4,x16,1fb4 <I_xori_cg_cr_rs1_imm_edges_rs1val_0xffffffff_immval_0x8+0x18>
    1fa8:	514012ef          	jal	x5,34bc <failedtest_x5_x4>
    1fac:	00001f9c          	.word	0x00001f9c
    1fb0:	0000c46c          	.word	0x0000c46c
    1fb4:	00460613          	addi	x12,x12,4

# Testcase cr_rs1_imm_edges (rs1 = 0xffffffff, imm = 16)
  RVTEST_TESTDATA_LOAD_INT(x24, x9) # load rs1: x9 = 0xffffffff
    1fb8:	000c2483          	lw	x9,0(x24)
    1fbc:	004c0c13          	addi	x24,x24,4

00001fc0 <I_xori_cg_cr_rs1_imm_edges_rs1val_0xffffffff_immval_0x10>:
I_xori_cg_cr_rs1_imm_edges_rs1val_0xffffffff_immval_0x10:
  xori x14, x9, 16 # perform operation
    1fc0:	0104c713          	xori	x14,x9,16
  # Check if x14 contains the expected result. x12 is the signature ptr, x5 is the link ptr, x4 is a temp reg.
  RVTEST_SIGUPD(x12, x5, x4, x14, I_xori_cg_cr_rs1_imm_edges_rs1val_0xffffffff_immval_0x10, I_xori_cg_cr_rs1_imm_edges_rs1val_0xffffffff_immval_0x10_str)
    1fc4:	00062203          	lw	x4,0(x12)
    1fc8:	00e20863          	beq	x4,x14,1fd8 <I_xori_cg_cr_rs1_imm_edges_rs1val_0xffffffff_immval_0x10+0x18>
    1fcc:	4f0012ef          	jal	x5,34bc <failedtest_x5_x4>
    1fd0:	00001fc0          	.word	0x00001fc0
    1fd4:	0000c4c1          	.word	0x0000c4c1
    1fd8:	00460613          	addi	x12,x12,4

# Testcase cr_rs1_imm_edges (rs1 = 0xffffffff, imm = 32)
  RVTEST_TESTDATA_LOAD_INT(x24, x28) # load rs1: x28 = 0xffffffff
    1fdc:	000c2e03          	lw	x28,0(x24)
    1fe0:	004c0c13          	addi	x24,x24,4

00001fe4 <I_xori_cg_cr_rs1_imm_edges_rs1val_0xffffffff_immval_0x20>:
I_xori_cg_cr_rs1_imm_edges_rs1val_0xffffffff_immval_0x20:
  xori x20, x28, 32 # perform operation
    1fe4:	020e4a13          	xori	x20,x28,32
  # Check if x20 contains the expected result. x12 is the signature ptr, x5 is the link ptr, x4 is a temp reg.
  RVTEST_SIGUPD(x12, x5, x4, x20, I_xori_cg_cr_rs1_imm_edges_rs1val_0xffffffff_immval_0x20, I_xori_cg_cr_rs1_imm_edges_rs1val_0xffffffff_immval_0x20_str)
    1fe8:	00062203          	lw	x4,0(x12)
    1fec:	01420863          	beq	x4,x20,1ffc <I_xori_cg_cr_rs1_imm_edges_rs1val_0xffffffff_immval_0x20+0x18>
    1ff0:	4cc012ef          	jal	x5,34bc <failedtest_x5_x4>
    1ff4:	00001fe4          	.word	0x00001fe4
    1ff8:	0000c517          	.word	0x0000c517
    1ffc:	00460613          	addi	x12,x12,4

# Testcase cr_rs1_imm_edges (rs1 = 0xffffffff, imm = 64)
  RVTEST_TESTDATA_LOAD_INT(x24, x23) # load rs1: x23 = 0xffffffff
    2000:	000c2b83          	lw	x23,0(x24)
    2004:	004c0c13          	addi	x24,x24,4

00002008 <I_xori_cg_cr_rs1_imm_edges_rs1val_0xffffffff_immval_0x40>:
I_xori_cg_cr_rs1_imm_edges_rs1val_0xffffffff_immval_0x40:
  xori x30, x23, 64 # perform operation
    2008:	040bcf13          	xori	x30,x23,64
  # Check if x30 contains the expected result. x12 is the signature ptr, x5 is the link ptr, x4 is a temp reg.
  RVTEST_SIGUPD(x12, x5, x4, x30, I_xori_cg_cr_rs1_imm_edges_rs1val_0xffffffff_immval_0x40, I_xori_cg_cr_rs1_imm_edges_rs1val_0xffffffff_immval_0x40_str)
    200c:	00062203          	lw	x4,0(x12)
    2010:	01e20863          	beq	x4,x30,2020 <I_xori_cg_cr_rs1_imm_edges_rs1val_0xffffffff_immval_0x40+0x18>
    2014:	4a8012ef          	jal	x5,34bc <failedtest_x5_x4>
    2018:	00002008          	.word	0x00002008
    201c:	0000c56d          	.word	0x0000c56d
    2020:	00460613          	addi	x12,x12,4

# Testcase cr_rs1_imm_edges (rs1 = 0xffffffff, imm = 128)
  RVTEST_TESTDATA_LOAD_INT(x24, x14) # load rs1: x14 = 0xffffffff
    2024:	000c2703          	lw	x14,0(x24)
    2028:	004c0c13          	addi	x24,x24,4

0000202c <I_xori_cg_cr_rs1_imm_edges_rs1val_0xffffffff_immval_0x80>:
I_xori_cg_cr_rs1_imm_edges_rs1val_0xffffffff_immval_0x80:
  xori x3, x14, 128 # perform operation
    202c:	08074193          	xori	x3,x14,128
  # Check if x3 contains the expected result. x12 is the signature ptr, x5 is the link ptr, x4 is a temp reg.
  RVTEST_SIGUPD(x12, x5, x4, x3, I_xori_cg_cr_rs1_imm_edges_rs1val_0xffffffff_immval_0x80, I_xori_cg_cr_rs1_imm_edges_rs1val_0xffffffff_immval_0x80_str)
    2030:	00062203          	lw	x4,0(x12)
    2034:	00320863          	beq	x4,x3,2044 <I_xori_cg_cr_rs1_imm_edges_rs1val_0xffffffff_immval_0x80+0x18>
    2038:	484012ef          	jal	x5,34bc <failedtest_x5_x4>
    203c:	0000202c          	.word	0x0000202c
    2040:	0000c5c3          	.word	0x0000c5c3
    2044:	00460613          	addi	x12,x12,4

# Testcase cr_rs1_imm_edges (rs1 = 0xffffffff, imm = 256)
  RVTEST_TESTDATA_LOAD_INT(x24, x23) # load rs1: x23 = 0xffffffff
    2048:	000c2b83          	lw	x23,0(x24)
    204c:	004c0c13          	addi	x24,x24,4

00002050 <I_xori_cg_cr_rs1_imm_edges_rs1val_0xffffffff_immval_0x100>:
I_xori_cg_cr_rs1_imm_edges_rs1val_0xffffffff_immval_0x100:
  xori x13, x23, 256 # perform operation
    2050:	100bc693          	xori	x13,x23,256
  # Check if x13 contains the expected result. x12 is the signature ptr, x5 is the link ptr, x4 is a temp reg.
  RVTEST_SIGUPD(x12, x5, x4, x13, I_xori_cg_cr_rs1_imm_edges_rs1val_0xffffffff_immval_0x100, I_xori_cg_cr_rs1_imm_edges_rs1val_0xffffffff_immval_0x100_str)
    2054:	00062203          	lw	x4,0(x12)
    2058:	00d20863          	beq	x4,x13,2068 <I_xori_cg_cr_rs1_imm_edges_rs1val_0xffffffff_immval_0x100+0x18>
    205c:	460012ef          	jal	x5,34bc <failedtest_x5_x4>
    2060:	00002050          	.word	0x00002050
    2064:	0000c619          	.word	0x0000c619
    2068:	00460613          	addi	x12,x12,4

# Testcase cr_rs1_imm_edges (rs1 = 0xffffffff, imm = 512)
  RVTEST_TESTDATA_LOAD_INT(x24, x18) # load rs1: x18 = 0xffffffff
    206c:	000c2903          	lw	x18,0(x24)
    2070:	004c0c13          	addi	x24,x24,4

00002074 <I_xori_cg_cr_rs1_imm_edges_rs1val_0xffffffff_immval_0x200>:
I_xori_cg_cr_rs1_imm_edges_rs1val_0xffffffff_immval_0x200:
  xori x10, x18, 512 # perform operation
    2074:	20094513          	xori	x10,x18,512
  # Check if x10 contains the expected result. x12 is the signature ptr, x5 is the link ptr, x4 is a temp reg.
  RVTEST_SIGUPD(x12, x5, x4, x10, I_xori_cg_cr_rs1_imm_edges_rs1val_0xffffffff_immval_0x200, I_xori_cg_cr_rs1_imm_edges_rs1val_0xffffffff_immval_0x200_str)
    2078:	00062203          	lw	x4,0(x12)
    207c:	00a20863          	beq	x4,x10,208c <I_xori_cg_cr_rs1_imm_edges_rs1val_0xffffffff_immval_0x200+0x18>
    2080:	43c012ef          	jal	x5,34bc <failedtest_x5_x4>
    2084:	00002074          	.word	0x00002074
    2088:	0000c670          	.word	0x0000c670
    208c:	00460613          	addi	x12,x12,4

# Testcase cr_rs1_imm_edges (rs1 = 0xffffffff, imm = 1023)
  RVTEST_TESTDATA_LOAD_INT(x24, x19) # load rs1: x19 = 0xffffffff
    2090:	000c2983          	lw	x19,0(x24)
    2094:	004c0c13          	addi	x24,x24,4

00002098 <I_xori_cg_cr_rs1_imm_edges_rs1val_0xffffffff_immval_0x3ff>:
I_xori_cg_cr_rs1_imm_edges_rs1val_0xffffffff_immval_0x3ff:
  xori x18, x19, 1023 # perform operation
    2098:	3ff9c913          	xori	x18,x19,1023
  # Check if x18 contains the expected result. x12 is the signature ptr, x5 is the link ptr, x4 is a temp reg.
  RVTEST_SIGUPD(x12, x5, x4, x18, I_xori_cg_cr_rs1_imm_edges_rs1val_0xffffffff_immval_0x3ff, I_xori_cg_cr_rs1_imm_edges_rs1val_0xffffffff_immval_0x3ff_str)
    209c:	00062203          	lw	x4,0(x12)
    20a0:	01220863          	beq	x4,x18,20b0 <I_xori_cg_cr_rs1_imm_edges_rs1val_0xffffffff_immval_0x3ff+0x18>
    20a4:	418012ef          	jal	x5,34bc <failedtest_x5_x4>
    20a8:	00002098          	.word	0x00002098
    20ac:	0000c6c7          	.word	0x0000c6c7
    20b0:	00460613          	addi	x12,x12,4

# Testcase cr_rs1_imm_edges (rs1 = 0xffffffff, imm = 1024)
  RVTEST_TESTDATA_LOAD_INT(x24, x31) # load rs1: x31 = 0xffffffff
    20b4:	000c2f83          	lw	x31,0(x24)
    20b8:	004c0c13          	addi	x24,x24,4

000020bc <I_xori_cg_cr_rs1_imm_edges_rs1val_0xffffffff_immval_0x400>:
I_xori_cg_cr_rs1_imm_edges_rs1val_0xffffffff_immval_0x400:
  xori x25, x31, 1024 # perform operation
    20bc:	400fcc93          	xori	x25,x31,1024
  # Check if x25 contains the expected result. x12 is the signature ptr, x5 is the link ptr, x4 is a temp reg.
  RVTEST_SIGUPD(x12, x5, x4, x25, I_xori_cg_cr_rs1_imm_edges_rs1val_0xffffffff_immval_0x400, I_xori_cg_cr_rs1_imm_edges_rs1val_0xffffffff_immval_0x400_str)
    20c0:	00062203          	lw	x4,0(x12)
    20c4:	01920863          	beq	x4,x25,20d4 <I_xori_cg_cr_rs1_imm_edges_rs1val_0xffffffff_immval_0x400+0x18>
    20c8:	3f4012ef          	jal	x5,34bc <failedtest_x5_x4>
    20cc:	000020bc          	.word	0x000020bc
    20d0:	0000c71e          	.word	0x0000c71e
    20d4:	00460613          	addi	x12,x12,4

# Testcase cr_rs1_imm_edges (rs1 = 0xffffffff, imm = 1795)
  RVTEST_TESTDATA_LOAD_INT(x24, x1) # load rs1: x1 = 0xffffffff
    20d8:	000c2083          	lw	x1,0(x24)
    20dc:	004c0c13          	addi	x24,x24,4

000020e0 <I_xori_cg_cr_rs1_imm_edges_rs1val_0xffffffff_immval_0x703>:
I_xori_cg_cr_rs1_imm_edges_rs1val_0xffffffff_immval_0x703:
  xori x8, x1, 1795 # perform operation
    20e0:	7030c413          	xori	x8,x1,1795
  # Check if x8 contains the expected result. x12 is the signature ptr, x5 is the link ptr, x4 is a temp reg.
  RVTEST_SIGUPD(x12, x5, x4, x8, I_xori_cg_cr_rs1_imm_edges_rs1val_0xffffffff_immval_0x703, I_xori_cg_cr_rs1_imm_edges_rs1val_0xffffffff_immval_0x703_str)
    20e4:	00062203          	lw	x4,0(x12)
    20e8:	00820863          	beq	x4,x8,20f8 <I_xori_cg_cr_rs1_imm_edges_rs1val_0xffffffff_immval_0x703+0x18>
    20ec:	3d0012ef          	jal	x5,34bc <failedtest_x5_x4>
    20f0:	000020e0          	.word	0x000020e0
    20f4:	0000c775          	.word	0x0000c775
    20f8:	00460613          	addi	x12,x12,4

# Testcase cr_rs1_imm_edges (rs1 = 0xffffffff, imm = 2047)
  RVTEST_TESTDATA_LOAD_INT(x24, x25) # load rs1: x25 = 0xffffffff
    20fc:	000c2c83          	lw	x25,0(x24)
    2100:	004c0c13          	addi	x24,x24,4

00002104 <I_xori_cg_cr_rs1_imm_edges_rs1val_0xffffffff_immval_0x7ff>:
I_xori_cg_cr_rs1_imm_edges_rs1val_0xffffffff_immval_0x7ff:
  xori x30, x25, 2047 # perform operation
    2104:	7ffccf13          	xori	x30,x25,2047
  # Check if x30 contains the expected result. x12 is the signature ptr, x5 is the link ptr, x4 is a temp reg.
  RVTEST_SIGUPD(x12, x5, x4, x30, I_xori_cg_cr_rs1_imm_edges_rs1val_0xffffffff_immval_0x7ff, I_xori_cg_cr_rs1_imm_edges_rs1val_0xffffffff_immval_0x7ff_str)
    2108:	00062203          	lw	x4,0(x12)
    210c:	01e20863          	beq	x4,x30,211c <I_xori_cg_cr_rs1_imm_edges_rs1val_0xffffffff_immval_0x7ff+0x18>
    2110:	3ac012ef          	jal	x5,34bc <failedtest_x5_x4>
    2114:	00002104          	.word	0x00002104
    2118:	0000c7cc          	.word	0x0000c7cc
    211c:	00460613          	addi	x12,x12,4

# Testcase cr_rs1_imm_edges (rs1 = 0xffffffff, imm = -2048)
  RVTEST_TESTDATA_LOAD_INT(x24, x16) # load rs1: x16 = 0xffffffff
    2120:	000c2803          	lw	x16,0(x24)
    2124:	004c0c13          	addi	x24,x24,4

00002128 <I_xori_cg_cr_rs1_imm_edges_rs1val_0xffffffff_immval_m0x800>:
I_xori_cg_cr_rs1_imm_edges_rs1val_0xffffffff_immval_m0x800:
  xori x31, x16, -2048 # perform operation
    2128:	80084f93          	xori	x31,x16,-2048
  # Check if x31 contains the expected result. x12 is the signature ptr, x5 is the link ptr, x4 is a temp reg.
  RVTEST_SIGUPD(x12, x5, x4, x31, I_xori_cg_cr_rs1_imm_edges_rs1val_0xffffffff_immval_m0x800, I_xori_cg_cr_rs1_imm_edges_rs1val_0xffffffff_immval_m0x800_str)
    212c:	00062203          	lw	x4,0(x12)
    2130:	01f20863          	beq	x4,x31,2140 <I_xori_cg_cr_rs1_imm_edges_rs1val_0xffffffff_immval_m0x800+0x18>
    2134:	388012ef          	jal	x5,34bc <failedtest_x5_x4>
    2138:	00002128          	.word	0x00002128
    213c:	0000c823          	.word	0x0000c823
    2140:	00460613          	addi	x12,x12,4

# Testcase cr_rs1_imm_edges (rs1 = 0xffffffff, imm = -2047)
  RVTEST_TESTDATA_LOAD_INT(x24, x27) # load rs1: x27 = 0xffffffff
    2144:	000c2d83          	lw	x27,0(x24)
    2148:	004c0c13          	addi	x24,x24,4

0000214c <I_xori_cg_cr_rs1_imm_edges_rs1val_0xffffffff_immval_m0x7ff>:
I_xori_cg_cr_rs1_imm_edges_rs1val_0xffffffff_immval_m0x7ff:
  xori x13, x27, -2047 # perform operation
    214c:	801dc693          	xori	x13,x27,-2047
  # Check if x13 contains the expected result. x12 is the signature ptr, x5 is the link ptr, x4 is a temp reg.
  RVTEST_SIGUPD(x12, x5, x4, x13, I_xori_cg_cr_rs1_imm_edges_rs1val_0xffffffff_immval_m0x7ff, I_xori_cg_cr_rs1_imm_edges_rs1val_0xffffffff_immval_m0x7ff_str)
    2150:	00062203          	lw	x4,0(x12)
    2154:	00d20863          	beq	x4,x13,2164 <I_xori_cg_cr_rs1_imm_edges_rs1val_0xffffffff_immval_m0x7ff+0x18>
    2158:	364012ef          	jal	x5,34bc <failedtest_x5_x4>
    215c:	0000214c          	.word	0x0000214c
    2160:	0000c87b          	.word	0x0000c87b
    2164:	00460613          	addi	x12,x12,4

# Testcase cr_rs1_imm_edges (rs1 = 0xffffffff, imm = -2)
  RVTEST_TESTDATA_LOAD_INT(x24, x19) # load rs1: x19 = 0xffffffff
    2168:	000c2983          	lw	x19,0(x24)
    216c:	004c0c13          	addi	x24,x24,4

00002170 <I_xori_cg_cr_rs1_imm_edges_rs1val_0xffffffff_immval_m0x2>:
I_xori_cg_cr_rs1_imm_edges_rs1val_0xffffffff_immval_m0x2:
  xori x22, x19, -2 # perform operation
    2170:	ffe9cb13          	xori	x22,x19,-2
  # Check if x22 contains the expected result. x12 is the signature ptr, x5 is the link ptr, x4 is a temp reg.
  RVTEST_SIGUPD(x12, x5, x4, x22, I_xori_cg_cr_rs1_imm_edges_rs1val_0xffffffff_immval_m0x2, I_xori_cg_cr_rs1_imm_edges_rs1val_0xffffffff_immval_m0x2_str)
    2174:	00062203          	lw	x4,0(x12)
    2178:	01620863          	beq	x4,x22,2188 <I_xori_cg_cr_rs1_imm_edges_rs1val_0xffffffff_immval_m0x2+0x18>
    217c:	340012ef          	jal	x5,34bc <failedtest_x5_x4>
    2180:	00002170          	.word	0x00002170
    2184:	0000c8d3          	.word	0x0000c8d3
    2188:	00460613          	addi	x12,x12,4

# Testcase cr_rs1_imm_edges (rs1 = 0xffffffff, imm = -1)
  RVTEST_TESTDATA_LOAD_INT(x24, x26) # load rs1: x26 = 0xffffffff
    218c:	000c2d03          	lw	x26,0(x24)
    2190:	004c0c13          	addi	x24,x24,4

00002194 <I_xori_cg_cr_rs1_imm_edges_rs1val_0xffffffff_immval_m0x1>:
I_xori_cg_cr_rs1_imm_edges_rs1val_0xffffffff_immval_m0x1:
  xori x19, x26, -1 # perform operation
    2194:	fffd4993          	xori	x19,x26,-1
  # Check if x19 contains the expected result. x12 is the signature ptr, x5 is the link ptr, x4 is a temp reg.
  RVTEST_SIGUPD(x12, x5, x4, x19, I_xori_cg_cr_rs1_imm_edges_rs1val_0xffffffff_immval_m0x1, I_xori_cg_cr_rs1_imm_edges_rs1val_0xffffffff_immval_m0x1_str)
    2198:	00062203          	lw	x4,0(x12)
    219c:	01320863          	beq	x4,x19,21ac <I_xori_cg_cr_rs1_imm_edges_rs1val_0xffffffff_immval_m0x1+0x18>
    21a0:	31c012ef          	jal	x5,34bc <failedtest_x5_x4>
    21a4:	00002194          	.word	0x00002194
    21a8:	0000c929          	.word	0x0000c929
    21ac:	00460613          	addi	x12,x12,4

# Testcase cr_rs1_imm_edges (rs1 = 0xfffffffe, imm = 0)
  RVTEST_TESTDATA_LOAD_INT(x24, x13) # load rs1: x13 = 0xfffffffe
    21b0:	000c2683          	lw	x13,0(x24)
    21b4:	004c0c13          	addi	x24,x24,4

000021b8 <I_xori_cg_cr_rs1_imm_edges_rs1val_0xfffffffe_immval_0x0>:
I_xori_cg_cr_rs1_imm_edges_rs1val_0xfffffffe_immval_0x0:
  xori x25, x13, 0 # perform operation
    21b8:	0006cc93          	xori	x25,x13,0
  # Check if x25 contains the expected result. x12 is the signature ptr, x5 is the link ptr, x4 is a temp reg.
  RVTEST_SIGUPD(x12, x5, x4, x25, I_xori_cg_cr_rs1_imm_edges_rs1val_0xfffffffe_immval_0x0, I_xori_cg_cr_rs1_imm_edges_rs1val_0xfffffffe_immval_0x0_str)
    21bc:	00062203          	lw	x4,0(x12)
    21c0:	01920863          	beq	x4,x25,21d0 <I_xori_cg_cr_rs1_imm_edges_rs1val_0xfffffffe_immval_0x0+0x18>
    21c4:	2f8012ef          	jal	x5,34bc <failedtest_x5_x4>
    21c8:	000021b8          	.word	0x000021b8
    21cc:	0000c97f          	.word	0x0000c97f
    21d0:	00460613          	addi	x12,x12,4

# Testcase cr_rs1_imm_edges (rs1 = 0xfffffffe, imm = 1)
  RVTEST_TESTDATA_LOAD_INT(x24, x25) # load rs1: x25 = 0xfffffffe
    21d4:	000c2c83          	lw	x25,0(x24)
    21d8:	004c0c13          	addi	x24,x24,4

000021dc <I_xori_cg_cr_rs1_imm_edges_rs1val_0xfffffffe_immval_0x1>:
I_xori_cg_cr_rs1_imm_edges_rs1val_0xfffffffe_immval_0x1:
  xori x11, x25, 1 # perform operation
    21dc:	001cc593          	xori	x11,x25,1
  # Check if x11 contains the expected result. x12 is the signature ptr, x5 is the link ptr, x4 is a temp reg.
  RVTEST_SIGUPD(x12, x5, x4, x11, I_xori_cg_cr_rs1_imm_edges_rs1val_0xfffffffe_immval_0x1, I_xori_cg_cr_rs1_imm_edges_rs1val_0xfffffffe_immval_0x1_str)
    21e0:	00062203          	lw	x4,0(x12)
    21e4:	00b20863          	beq	x4,x11,21f4 <I_xori_cg_cr_rs1_imm_edges_rs1val_0xfffffffe_immval_0x1+0x18>
    21e8:	2d4012ef          	jal	x5,34bc <failedtest_x5_x4>
    21ec:	000021dc          	.word	0x000021dc
    21f0:	0000c9d4          	.word	0x0000c9d4
    21f4:	00460613          	addi	x12,x12,4

# Testcase cr_rs1_imm_edges (rs1 = 0xfffffffe, imm = 2)
  RVTEST_TESTDATA_LOAD_INT(x24, x11) # load rs1: x11 = 0xfffffffe
    21f8:	000c2583          	lw	x11,0(x24)
    21fc:	004c0c13          	addi	x24,x24,4

00002200 <I_xori_cg_cr_rs1_imm_edges_rs1val_0xfffffffe_immval_0x2>:
I_xori_cg_cr_rs1_imm_edges_rs1val_0xfffffffe_immval_0x2:
  xori x3, x11, 2 # perform operation
    2200:	0025c193          	xori	x3,x11,2
  # Check if x3 contains the expected result. x12 is the signature ptr, x5 is the link ptr, x4 is a temp reg.
  RVTEST_SIGUPD(x12, x5, x4, x3, I_xori_cg_cr_rs1_imm_edges_rs1val_0xfffffffe_immval_0x2, I_xori_cg_cr_rs1_imm_edges_rs1val_0xfffffffe_immval_0x2_str)
    2204:	00062203          	lw	x4,0(x12)
    2208:	00320863          	beq	x4,x3,2218 <I_xori_cg_cr_rs1_imm_edges_rs1val_0xfffffffe_immval_0x2+0x18>
    220c:	2b0012ef          	jal	x5,34bc <failedtest_x5_x4>
    2210:	00002200          	.word	0x00002200
    2214:	0000ca29          	.word	0x0000ca29
    2218:	00460613          	addi	x12,x12,4

# Testcase cr_rs1_imm_edges (rs1 = 0xfffffffe, imm = 3)
  RVTEST_TESTDATA_LOAD_INT(x24, x17) # load rs1: x17 = 0xfffffffe
    221c:	000c2883          	lw	x17,0(x24)
    2220:	004c0c13          	addi	x24,x24,4

00002224 <I_xori_cg_cr_rs1_imm_edges_rs1val_0xfffffffe_immval_0x3>:
I_xori_cg_cr_rs1_imm_edges_rs1val_0xfffffffe_immval_0x3:
  xori x15, x17, 3 # perform operation
    2224:	0038c793          	xori	x15,x17,3
  # Check if x15 contains the expected result. x12 is the signature ptr, x5 is the link ptr, x4 is a temp reg.
  RVTEST_SIGUPD(x12, x5, x4, x15, I_xori_cg_cr_rs1_imm_edges_rs1val_0xfffffffe_immval_0x3, I_xori_cg_cr_rs1_imm_edges_rs1val_0xfffffffe_immval_0x3_str)
    2228:	00062203          	lw	x4,0(x12)
    222c:	00f20863          	beq	x4,x15,223c <I_xori_cg_cr_rs1_imm_edges_rs1val_0xfffffffe_immval_0x3+0x18>
    2230:	28c012ef          	jal	x5,34bc <failedtest_x5_x4>
    2234:	00002224          	.word	0x00002224
    2238:	0000ca7e          	.word	0x0000ca7e
    223c:	00460613          	addi	x12,x12,4

# Testcase cr_rs1_imm_edges (rs1 = 0xfffffffe, imm = 4)
  RVTEST_TESTDATA_LOAD_INT(x24, x26) # load rs1: x26 = 0xfffffffe
    2240:	000c2d03          	lw	x26,0(x24)
    2244:	004c0c13          	addi	x24,x24,4

00002248 <I_xori_cg_cr_rs1_imm_edges_rs1val_0xfffffffe_immval_0x4>:
I_xori_cg_cr_rs1_imm_edges_rs1val_0xfffffffe_immval_0x4:
  xori x17, x26, 4 # perform operation
    2248:	004d4893          	xori	x17,x26,4
  # Check if x17 contains the expected result. x12 is the signature ptr, x5 is the link ptr, x4 is a temp reg.
  RVTEST_SIGUPD(x12, x5, x4, x17, I_xori_cg_cr_rs1_imm_edges_rs1val_0xfffffffe_immval_0x4, I_xori_cg_cr_rs1_imm_edges_rs1val_0xfffffffe_immval_0x4_str)
    224c:	00062203          	lw	x4,0(x12)
    2250:	01120863          	beq	x4,x17,2260 <I_xori_cg_cr_rs1_imm_edges_rs1val_0xfffffffe_immval_0x4+0x18>
    2254:	268012ef          	jal	x5,34bc <failedtest_x5_x4>
    2258:	00002248          	.word	0x00002248
    225c:	0000cad3          	.word	0x0000cad3
    2260:	00460613          	addi	x12,x12,4

# Testcase cr_rs1_imm_edges (rs1 = 0xfffffffe, imm = 8)
  RVTEST_TESTDATA_LOAD_INT(x24, x15) # load rs1: x15 = 0xfffffffe
    2264:	000c2783          	lw	x15,0(x24)
    2268:	004c0c13          	addi	x24,x24,4

0000226c <I_xori_cg_cr_rs1_imm_edges_rs1val_0xfffffffe_immval_0x8>:
I_xori_cg_cr_rs1_imm_edges_rs1val_0xfffffffe_immval_0x8:
  xori x21, x15, 8 # perform operation
    226c:	0087ca93          	xori	x21,x15,8
  # Check if x21 contains the expected result. x12 is the signature ptr, x5 is the link ptr, x4 is a temp reg.
  RVTEST_SIGUPD(x12, x5, x4, x21, I_xori_cg_cr_rs1_imm_edges_rs1val_0xfffffffe_immval_0x8, I_xori_cg_cr_rs1_imm_edges_rs1val_0xfffffffe_immval_0x8_str)
    2270:	00062203          	lw	x4,0(x12)
    2274:	01520863          	beq	x4,x21,2284 <I_xori_cg_cr_rs1_imm_edges_rs1val_0xfffffffe_immval_0x8+0x18>
    2278:	244012ef          	jal	x5,34bc <failedtest_x5_x4>
    227c:	0000226c          	.word	0x0000226c
    2280:	0000cb28          	.word	0x0000cb28
    2284:	00460613          	addi	x12,x12,4

# Testcase cr_rs1_imm_edges (rs1 = 0xfffffffe, imm = 16)
  RVTEST_TESTDATA_LOAD_INT(x24, x23) # load rs1: x23 = 0xfffffffe
    2288:	000c2b83          	lw	x23,0(x24)
    228c:	004c0c13          	addi	x24,x24,4

00002290 <I_xori_cg_cr_rs1_imm_edges_rs1val_0xfffffffe_immval_0x10>:
I_xori_cg_cr_rs1_imm_edges_rs1val_0xfffffffe_immval_0x10:
  xori x9, x23, 16 # perform operation
    2290:	010bc493          	xori	x9,x23,16
  # Check if x9 contains the expected result. x12 is the signature ptr, x5 is the link ptr, x4 is a temp reg.
  RVTEST_SIGUPD(x12, x5, x4, x9, I_xori_cg_cr_rs1_imm_edges_rs1val_0xfffffffe_immval_0x10, I_xori_cg_cr_rs1_imm_edges_rs1val_0xfffffffe_immval_0x10_str)
    2294:	00062203          	lw	x4,0(x12)
    2298:	00920863          	beq	x4,x9,22a8 <I_xori_cg_cr_rs1_imm_edges_rs1val_0xfffffffe_immval_0x10+0x18>
    229c:	220012ef          	jal	x5,34bc <failedtest_x5_x4>
    22a0:	00002290          	.word	0x00002290
    22a4:	0000cb7d          	.word	0x0000cb7d
    22a8:	00460613          	addi	x12,x12,4

# Testcase cr_rs1_imm_edges (rs1 = 0xfffffffe, imm = 32)
  RVTEST_TESTDATA_LOAD_INT(x24, x20) # load rs1: x20 = 0xfffffffe
    22ac:	000c2a03          	lw	x20,0(x24)
    22b0:	004c0c13          	addi	x24,x24,4

000022b4 <I_xori_cg_cr_rs1_imm_edges_rs1val_0xfffffffe_immval_0x20>:
I_xori_cg_cr_rs1_imm_edges_rs1val_0xfffffffe_immval_0x20:
  xori x29, x20, 32 # perform operation
    22b4:	020a4e93          	xori	x29,x20,32
  # Check if x29 contains the expected result. x12 is the signature ptr, x5 is the link ptr, x4 is a temp reg.
  RVTEST_SIGUPD(x12, x5, x4, x29, I_xori_cg_cr_rs1_imm_edges_rs1val_0xfffffffe_immval_0x20, I_xori_cg_cr_rs1_imm_edges_rs1val_0xfffffffe_immval_0x20_str)
    22b8:	00062203          	lw	x4,0(x12)
    22bc:	01d20863          	beq	x4,x29,22cc <I_xori_cg_cr_rs1_imm_edges_rs1val_0xfffffffe_immval_0x20+0x18>
    22c0:	1fc012ef          	jal	x5,34bc <failedtest_x5_x4>
    22c4:	000022b4          	.word	0x000022b4
    22c8:	0000cbd3          	.word	0x0000cbd3
    22cc:	00460613          	addi	x12,x12,4

# Testcase cr_rs1_imm_edges (rs1 = 0xfffffffe, imm = 64)
  RVTEST_TESTDATA_LOAD_INT(x24, x3) # load rs1: x3 = 0xfffffffe
    22d0:	000c2183          	lw	x3,0(x24)
    22d4:	004c0c13          	addi	x24,x24,4

000022d8 <I_xori_cg_cr_rs1_imm_edges_rs1val_0xfffffffe_immval_0x40>:
I_xori_cg_cr_rs1_imm_edges_rs1val_0xfffffffe_immval_0x40:
  xori x8, x3, 64 # perform operation
    22d8:	0401c413          	xori	x8,x3,64
  # Check if x8 contains the expected result. x12 is the signature ptr, x5 is the link ptr, x4 is a temp reg.
  RVTEST_SIGUPD(x12, x5, x4, x8, I_xori_cg_cr_rs1_imm_edges_rs1val_0xfffffffe_immval_0x40, I_xori_cg_cr_rs1_imm_edges_rs1val_0xfffffffe_immval_0x40_str)
    22dc:	00062203          	lw	x4,0(x12)
    22e0:	00820863          	beq	x4,x8,22f0 <I_xori_cg_cr_rs1_imm_edges_rs1val_0xfffffffe_immval_0x40+0x18>
    22e4:	1d8012ef          	jal	x5,34bc <failedtest_x5_x4>
    22e8:	000022d8          	.word	0x000022d8
    22ec:	0000cc29          	.word	0x0000cc29
    22f0:	00460613          	addi	x12,x12,4

# Testcase cr_rs1_imm_edges (rs1 = 0xfffffffe, imm = 128)
  RVTEST_TESTDATA_LOAD_INT(x24, x9) # load rs1: x9 = 0xfffffffe
    22f4:	000c2483          	lw	x9,0(x24)
    22f8:	004c0c13          	addi	x24,x24,4

000022fc <I_xori_cg_cr_rs1_imm_edges_rs1val_0xfffffffe_immval_0x80>:
I_xori_cg_cr_rs1_imm_edges_rs1val_0xfffffffe_immval_0x80:
  xori x13, x9, 128 # perform operation
    22fc:	0804c693          	xori	x13,x9,128
  # Check if x13 contains the expected result. x12 is the signature ptr, x5 is the link ptr, x4 is a temp reg.
  RVTEST_SIGUPD(x12, x5, x4, x13, I_xori_cg_cr_rs1_imm_edges_rs1val_0xfffffffe_immval_0x80, I_xori_cg_cr_rs1_imm_edges_rs1val_0xfffffffe_immval_0x80_str)
    2300:	00062203          	lw	x4,0(x12)
    2304:	00d20863          	beq	x4,x13,2314 <I_xori_cg_cr_rs1_imm_edges_rs1val_0xfffffffe_immval_0x80+0x18>
    2308:	1b4012ef          	jal	x5,34bc <failedtest_x5_x4>
    230c:	000022fc          	.word	0x000022fc
    2310:	0000cc7f          	.word	0x0000cc7f
    2314:	00460613          	addi	x12,x12,4

# Testcase cr_rs1_imm_edges (rs1 = 0xfffffffe, imm = 256)
  RVTEST_TESTDATA_LOAD_INT(x24, x18) # load rs1: x18 = 0xfffffffe
    2318:	000c2903          	lw	x18,0(x24)
    231c:	004c0c13          	addi	x24,x24,4

00002320 <I_xori_cg_cr_rs1_imm_edges_rs1val_0xfffffffe_immval_0x100>:
I_xori_cg_cr_rs1_imm_edges_rs1val_0xfffffffe_immval_0x100:
  xori x3, x18, 256 # perform operation
    2320:	10094193          	xori	x3,x18,256
  # Check if x3 contains the expected result. x12 is the signature ptr, x5 is the link ptr, x4 is a temp reg.
  RVTEST_SIGUPD(x12, x5, x4, x3, I_xori_cg_cr_rs1_imm_edges_rs1val_0xfffffffe_immval_0x100, I_xori_cg_cr_rs1_imm_edges_rs1val_0xfffffffe_immval_0x100_str)
    2324:	00062203          	lw	x4,0(x12)
    2328:	00320863          	beq	x4,x3,2338 <I_xori_cg_cr_rs1_imm_edges_rs1val_0xfffffffe_immval_0x100+0x18>
    232c:	190012ef          	jal	x5,34bc <failedtest_x5_x4>
    2330:	00002320          	.word	0x00002320
    2334:	0000ccd5          	.word	0x0000ccd5
    2338:	00460613          	addi	x12,x12,4

# Testcase cr_rs1_imm_edges (rs1 = 0xfffffffe, imm = 512)
  RVTEST_TESTDATA_LOAD_INT(x24, x16) # load rs1: x16 = 0xfffffffe
    233c:	000c2803          	lw	x16,0(x24)
    2340:	004c0c13          	addi	x24,x24,4

00002344 <I_xori_cg_cr_rs1_imm_edges_rs1val_0xfffffffe_immval_0x200>:
I_xori_cg_cr_rs1_imm_edges_rs1val_0xfffffffe_immval_0x200:
  xori x7, x16, 512 # perform operation
    2344:	20084393          	xori	x7,x16,512
  # Check if x7 contains the expected result. x12 is the signature ptr, x5 is the link ptr, x4 is a temp reg.
  RVTEST_SIGUPD(x12, x5, x4, x7, I_xori_cg_cr_rs1_imm_edges_rs1val_0xfffffffe_immval_0x200, I_xori_cg_cr_rs1_imm_edges_rs1val_0xfffffffe_immval_0x200_str)
    2348:	00062203          	lw	x4,0(x12)
    234c:	00720863          	beq	x4,x7,235c <I_xori_cg_cr_rs1_imm_edges_rs1val_0xfffffffe_immval_0x200+0x18>
    2350:	16c012ef          	jal	x5,34bc <failedtest_x5_x4>
    2354:	00002344          	.word	0x00002344
    2358:	0000cd2c          	.word	0x0000cd2c
    235c:	00460613          	addi	x12,x12,4

# Testcase cr_rs1_imm_edges (rs1 = 0xfffffffe, imm = 1023)
  RVTEST_TESTDATA_LOAD_INT(x24, x25) # load rs1: x25 = 0xfffffffe
    2360:	000c2c83          	lw	x25,0(x24)
    2364:	004c0c13          	addi	x24,x24,4

00002368 <I_xori_cg_cr_rs1_imm_edges_rs1val_0xfffffffe_immval_0x3ff>:
I_xori_cg_cr_rs1_imm_edges_rs1val_0xfffffffe_immval_0x3ff:
  xori x20, x25, 1023 # perform operation
    2368:	3ffcca13          	xori	x20,x25,1023
  # Check if x20 contains the expected result. x12 is the signature ptr, x5 is the link ptr, x4 is a temp reg.
  RVTEST_SIGUPD(x12, x5, x4, x20, I_xori_cg_cr_rs1_imm_edges_rs1val_0xfffffffe_immval_0x3ff, I_xori_cg_cr_rs1_imm_edges_rs1val_0xfffffffe_immval_0x3ff_str)
    236c:	00062203          	lw	x4,0(x12)
    2370:	01420863          	beq	x4,x20,2380 <I_xori_cg_cr_rs1_imm_edges_rs1val_0xfffffffe_immval_0x3ff+0x18>
    2374:	148012ef          	jal	x5,34bc <failedtest_x5_x4>
    2378:	00002368          	.word	0x00002368
    237c:	0000cd83          	.word	0x0000cd83
    2380:	00460613          	addi	x12,x12,4

# Testcase cr_rs1_imm_edges (rs1 = 0xfffffffe, imm = 1024)
  RVTEST_TESTDATA_LOAD_INT(x24, x27) # load rs1: x27 = 0xfffffffe
    2384:	000c2d83          	lw	x27,0(x24)
    2388:	004c0c13          	addi	x24,x24,4

0000238c <I_xori_cg_cr_rs1_imm_edges_rs1val_0xfffffffe_immval_0x400>:
I_xori_cg_cr_rs1_imm_edges_rs1val_0xfffffffe_immval_0x400:
  xori x18, x27, 1024 # perform operation
    238c:	400dc913          	xori	x18,x27,1024
  # Check if x18 contains the expected result. x12 is the signature ptr, x5 is the link ptr, x4 is a temp reg.
  RVTEST_SIGUPD(x12, x5, x4, x18, I_xori_cg_cr_rs1_imm_edges_rs1val_0xfffffffe_immval_0x400, I_xori_cg_cr_rs1_imm_edges_rs1val_0xfffffffe_immval_0x400_str)
    2390:	00062203          	lw	x4,0(x12)
    2394:	01220863          	beq	x4,x18,23a4 <I_xori_cg_cr_rs1_imm_edges_rs1val_0xfffffffe_immval_0x400+0x18>
    2398:	124012ef          	jal	x5,34bc <failedtest_x5_x4>
    239c:	0000238c          	.word	0x0000238c
    23a0:	0000cdda          	.word	0x0000cdda
    23a4:	00460613          	addi	x12,x12,4

# Testcase cr_rs1_imm_edges (rs1 = 0xfffffffe, imm = 1795)
  RVTEST_TESTDATA_LOAD_INT(x24, x15) # load rs1: x15 = 0xfffffffe
    23a8:	000c2783          	lw	x15,0(x24)
    23ac:	004c0c13          	addi	x24,x24,4

000023b0 <I_xori_cg_cr_rs1_imm_edges_rs1val_0xfffffffe_immval_0x703>:
I_xori_cg_cr_rs1_imm_edges_rs1val_0xfffffffe_immval_0x703:
  xori x18, x15, 1795 # perform operation
    23b0:	7037c913          	xori	x18,x15,1795
  # Check if x18 contains the expected result. x12 is the signature ptr, x5 is the link ptr, x4 is a temp reg.
  RVTEST_SIGUPD(x12, x5, x4, x18, I_xori_cg_cr_rs1_imm_edges_rs1val_0xfffffffe_immval_0x703, I_xori_cg_cr_rs1_imm_edges_rs1val_0xfffffffe_immval_0x703_str)
    23b4:	00062203          	lw	x4,0(x12)
    23b8:	01220863          	beq	x4,x18,23c8 <I_xori_cg_cr_rs1_imm_edges_rs1val_0xfffffffe_immval_0x703+0x18>
    23bc:	100012ef          	jal	x5,34bc <failedtest_x5_x4>
    23c0:	000023b0          	.word	0x000023b0
    23c4:	0000ce31          	.word	0x0000ce31
    23c8:	00460613          	addi	x12,x12,4

# Testcase cr_rs1_imm_edges (rs1 = 0xfffffffe, imm = 2047)
  RVTEST_TESTDATA_LOAD_INT(x24, x26) # load rs1: x26 = 0xfffffffe
    23cc:	000c2d03          	lw	x26,0(x24)
    23d0:	004c0c13          	addi	x24,x24,4

000023d4 <I_xori_cg_cr_rs1_imm_edges_rs1val_0xfffffffe_immval_0x7ff>:
I_xori_cg_cr_rs1_imm_edges_rs1val_0xfffffffe_immval_0x7ff:
  xori x1, x26, 2047 # perform operation
    23d4:	7ffd4093          	xori	x1,x26,2047
  # Check if x1 contains the expected result. x12 is the signature ptr, x5 is the link ptr, x4 is a temp reg.
  RVTEST_SIGUPD(x12, x5, x4, x1, I_xori_cg_cr_rs1_imm_edges_rs1val_0xfffffffe_immval_0x7ff, I_xori_cg_cr_rs1_imm_edges_rs1val_0xfffffffe_immval_0x7ff_str)
    23d8:	00062203          	lw	x4,0(x12)
    23dc:	00120863          	beq	x4,x1,23ec <I_xori_cg_cr_rs1_imm_edges_rs1val_0xfffffffe_immval_0x7ff+0x18>
    23e0:	0dc012ef          	jal	x5,34bc <failedtest_x5_x4>
    23e4:	000023d4          	.word	0x000023d4
    23e8:	0000ce88          	.word	0x0000ce88
    23ec:	00460613          	addi	x12,x12,4

# Testcase cr_rs1_imm_edges (rs1 = 0xfffffffe, imm = -2048)
  RVTEST_TESTDATA_LOAD_INT(x24, x27) # load rs1: x27 = 0xfffffffe
    23f0:	000c2d83          	lw	x27,0(x24)
    23f4:	004c0c13          	addi	x24,x24,4

000023f8 <I_xori_cg_cr_rs1_imm_edges_rs1val_0xfffffffe_immval_m0x800>:
I_xori_cg_cr_rs1_imm_edges_rs1val_0xfffffffe_immval_m0x800:
  xori x17, x27, -2048 # perform operation
    23f8:	800dc893          	xori	x17,x27,-2048
  # Check if x17 contains the expected result. x12 is the signature ptr, x5 is the link ptr, x4 is a temp reg.
  RVTEST_SIGUPD(x12, x5, x4, x17, I_xori_cg_cr_rs1_imm_edges_rs1val_0xfffffffe_immval_m0x800, I_xori_cg_cr_rs1_imm_edges_rs1val_0xfffffffe_immval_m0x800_str)
    23fc:	00062203          	lw	x4,0(x12)
    2400:	01120863          	beq	x4,x17,2410 <I_xori_cg_cr_rs1_imm_edges_rs1val_0xfffffffe_immval_m0x800+0x18>
    2404:	0b8012ef          	jal	x5,34bc <failedtest_x5_x4>
    2408:	000023f8          	.word	0x000023f8
    240c:	0000cedf          	.word	0x0000cedf
    2410:	00460613          	addi	x12,x12,4

# Testcase cr_rs1_imm_edges (rs1 = 0xfffffffe, imm = -2047)
  RVTEST_TESTDATA_LOAD_INT(x24, x20) # load rs1: x20 = 0xfffffffe
    2414:	000c2a03          	lw	x20,0(x24)
    2418:	004c0c13          	addi	x24,x24,4

0000241c <I_xori_cg_cr_rs1_imm_edges_rs1val_0xfffffffe_immval_m0x7ff>:
I_xori_cg_cr_rs1_imm_edges_rs1val_0xfffffffe_immval_m0x7ff:
  xori x19, x20, -2047 # perform operation
    241c:	801a4993          	xori	x19,x20,-2047
  # Check if x19 contains the expected result. x12 is the signature ptr, x5 is the link ptr, x4 is a temp reg.
  RVTEST_SIGUPD(x12, x5, x4, x19, I_xori_cg_cr_rs1_imm_edges_rs1val_0xfffffffe_immval_m0x7ff, I_xori_cg_cr_rs1_imm_edges_rs1val_0xfffffffe_immval_m0x7ff_str)
    2420:	00062203          	lw	x4,0(x12)
    2424:	01320863          	beq	x4,x19,2434 <I_xori_cg_cr_rs1_imm_edges_rs1val_0xfffffffe_immval_m0x7ff+0x18>
    2428:	094012ef          	jal	x5,34bc <failedtest_x5_x4>
    242c:	0000241c          	.word	0x0000241c
    2430:	0000cf37          	.word	0x0000cf37
    2434:	00460613          	addi	x12,x12,4

# Testcase cr_rs1_imm_edges (rs1 = 0xfffffffe, imm = -2)
  RVTEST_TESTDATA_LOAD_INT(x24, x23) # load rs1: x23 = 0xfffffffe
    2438:	000c2b83          	lw	x23,0(x24)
    243c:	004c0c13          	addi	x24,x24,4

00002440 <I_xori_cg_cr_rs1_imm_edges_rs1val_0xfffffffe_immval_m0x2>:
I_xori_cg_cr_rs1_imm_edges_rs1val_0xfffffffe_immval_m0x2:
  xori x30, x23, -2 # perform operation
    2440:	ffebcf13          	xori	x30,x23,-2
  # Check if x30 contains the expected result. x12 is the signature ptr, x5 is the link ptr, x4 is a temp reg.
  RVTEST_SIGUPD(x12, x5, x4, x30, I_xori_cg_cr_rs1_imm_edges_rs1val_0xfffffffe_immval_m0x2, I_xori_cg_cr_rs1_imm_edges_rs1val_0xfffffffe_immval_m0x2_str)
    2444:	00062203          	lw	x4,0(x12)
    2448:	01e20863          	beq	x4,x30,2458 <I_xori_cg_cr_rs1_imm_edges_rs1val_0xfffffffe_immval_m0x2+0x18>
    244c:	070012ef          	jal	x5,34bc <failedtest_x5_x4>
    2450:	00002440          	.word	0x00002440
    2454:	0000cf8f          	.word	0x0000cf8f
    2458:	00460613          	addi	x12,x12,4

# Testcase cr_rs1_imm_edges (rs1 = 0xfffffffe, imm = -1)
  RVTEST_TESTDATA_LOAD_INT(x24, x2) # load rs1: x2 = 0xfffffffe
    245c:	000c2103          	lw	x2,0(x24)
    2460:	004c0c13          	addi	x24,x24,4

00002464 <I_xori_cg_cr_rs1_imm_edges_rs1val_0xfffffffe_immval_m0x1>:
I_xori_cg_cr_rs1_imm_edges_rs1val_0xfffffffe_immval_m0x1:
  xori x27, x2, -1 # perform operation
    2464:	fff14d93          	xori	x27,x2,-1
  # Check if x27 contains the expected result. x12 is the signature ptr, x5 is the link ptr, x4 is a temp reg.
  RVTEST_SIGUPD(x12, x5, x4, x27, I_xori_cg_cr_rs1_imm_edges_rs1val_0xfffffffe_immval_m0x1, I_xori_cg_cr_rs1_imm_edges_rs1val_0xfffffffe_immval_m0x1_str)
    2468:	00062203          	lw	x4,0(x12)
    246c:	01b20863          	beq	x4,x27,247c <I_xori_cg_cr_rs1_imm_edges_rs1val_0xfffffffe_immval_m0x1+0x18>
    2470:	04c012ef          	jal	x5,34bc <failedtest_x5_x4>
    2474:	00002464          	.word	0x00002464
    2478:	0000cfe5          	.word	0x0000cfe5
    247c:	00460613          	addi	x12,x12,4

# Testcase cr_rs1_imm_edges (rs1 = 0x5bbc8872, imm = 0)
  RVTEST_TESTDATA_LOAD_INT(x24, x31) # load rs1: x31 = 0x5bbc8872
    2480:	000c2f83          	lw	x31,0(x24)
    2484:	004c0c13          	addi	x24,x24,4

00002488 <I_xori_cg_cr_rs1_imm_edges_rs1val_0x5bbc8872_immval_0x0>:
I_xori_cg_cr_rs1_imm_edges_rs1val_0x5bbc8872_immval_0x0:
  xori x17, x31, 0 # perform operation
    2488:	000fc893          	xori	x17,x31,0
  # Check if x17 contains the expected result. x12 is the signature ptr, x5 is the link ptr, x4 is a temp reg.
  RVTEST_SIGUPD(x12, x5, x4, x17, I_xori_cg_cr_rs1_imm_edges_rs1val_0x5bbc8872_immval_0x0, I_xori_cg_cr_rs1_imm_edges_rs1val_0x5bbc8872_immval_0x0_str)
    248c:	00062203          	lw	x4,0(x12)
    2490:	01120863          	beq	x4,x17,24a0 <I_xori_cg_cr_rs1_imm_edges_rs1val_0x5bbc8872_immval_0x0+0x18>
    2494:	028012ef          	jal	x5,34bc <failedtest_x5_x4>
    2498:	00002488          	.word	0x00002488
    249c:	0000d03b          	.word	0x0000d03b
    24a0:	00460613          	addi	x12,x12,4

# Testcase cr_rs1_imm_edges (rs1 = 0x5bbc8872, imm = 1)
  RVTEST_TESTDATA_LOAD_INT(x24, x8) # load rs1: x8 = 0x5bbc8872
    24a4:	000c2403          	lw	x8,0(x24)
    24a8:	004c0c13          	addi	x24,x24,4

000024ac <I_xori_cg_cr_rs1_imm_edges_rs1val_0x5bbc8872_immval_0x1>:
I_xori_cg_cr_rs1_imm_edges_rs1val_0x5bbc8872_immval_0x1:
  xori x1, x8, 1 # perform operation
    24ac:	00144093          	xori	x1,x8,1
  # Check if x1 contains the expected result. x12 is the signature ptr, x5 is the link ptr, x4 is a temp reg.
  RVTEST_SIGUPD(x12, x5, x4, x1, I_xori_cg_cr_rs1_imm_edges_rs1val_0x5bbc8872_immval_0x1, I_xori_cg_cr_rs1_imm_edges_rs1val_0x5bbc8872_immval_0x1_str)
    24b0:	00062203          	lw	x4,0(x12)
    24b4:	00120863          	beq	x4,x1,24c4 <I_xori_cg_cr_rs1_imm_edges_rs1val_0x5bbc8872_immval_0x1+0x18>
    24b8:	004012ef          	jal	x5,34bc <failedtest_x5_x4>
    24bc:	000024ac          	.word	0x000024ac
    24c0:	0000d090          	.word	0x0000d090
    24c4:	00460613          	addi	x12,x12,4

# Testcase cr_rs1_imm_edges (rs1 = 0x5bbc8872, imm = 2)
  RVTEST_TESTDATA_LOAD_INT(x24, x3) # load rs1: x3 = 0x5bbc8872
    24c8:	000c2183          	lw	x3,0(x24)
    24cc:	004c0c13          	addi	x24,x24,4

000024d0 <I_xori_cg_cr_rs1_imm_edges_rs1val_0x5bbc8872_immval_0x2>:
I_xori_cg_cr_rs1_imm_edges_rs1val_0x5bbc8872_immval_0x2:
  xori x21, x3, 2 # perform operation
    24d0:	0021ca93          	xori	x21,x3,2
  # Check if x21 contains the expected result. x12 is the signature ptr, x5 is the link ptr, x4 is a temp reg.
  RVTEST_SIGUPD(x12, x5, x4, x21, I_xori_cg_cr_rs1_imm_edges_rs1val_0x5bbc8872_immval_0x2, I_xori_cg_cr_rs1_imm_edges_rs1val_0x5bbc8872_immval_0x2_str)
    24d4:	00062203          	lw	x4,0(x12)
    24d8:	01520863          	beq	x4,x21,24e8 <I_xori_cg_cr_rs1_imm_edges_rs1val_0x5bbc8872_immval_0x2+0x18>
    24dc:	7e1002ef          	jal	x5,34bc <failedtest_x5_x4>
    24e0:	000024d0          	.word	0x000024d0
    24e4:	0000d0e5          	.word	0x0000d0e5
    24e8:	00460613          	addi	x12,x12,4

# Testcase cr_rs1_imm_edges (rs1 = 0x5bbc8872, imm = 3)
  RVTEST_TESTDATA_LOAD_INT(x24, x2) # load rs1: x2 = 0x5bbc8872
    24ec:	000c2103          	lw	x2,0(x24)
    24f0:	004c0c13          	addi	x24,x24,4

000024f4 <I_xori_cg_cr_rs1_imm_edges_rs1val_0x5bbc8872_immval_0x3>:
I_xori_cg_cr_rs1_imm_edges_rs1val_0x5bbc8872_immval_0x3:
  xori x21, x2, 3 # perform operation
    24f4:	00314a93          	xori	x21,x2,3
  # Check if x21 contains the expected result. x12 is the signature ptr, x5 is the link ptr, x4 is a temp reg.
  RVTEST_SIGUPD(x12, x5, x4, x21, I_xori_cg_cr_rs1_imm_edges_rs1val_0x5bbc8872_immval_0x3, I_xori_cg_cr_rs1_imm_edges_rs1val_0x5bbc8872_immval_0x3_str)
    24f8:	00062203          	lw	x4,0(x12)
    24fc:	01520863          	beq	x4,x21,250c <I_xori_cg_cr_rs1_imm_edges_rs1val_0x5bbc8872_immval_0x3+0x18>
    2500:	7bd002ef          	jal	x5,34bc <failedtest_x5_x4>
    2504:	000024f4          	.word	0x000024f4
    2508:	0000d13a          	.word	0x0000d13a
    250c:	00460613          	addi	x12,x12,4

# Testcase cr_rs1_imm_edges (rs1 = 0x5bbc8872, imm = 4)
  RVTEST_TESTDATA_LOAD_INT(x24, x27) # load rs1: x27 = 0x5bbc8872
    2510:	000c2d83          	lw	x27,0(x24)
    2514:	004c0c13          	addi	x24,x24,4

00002518 <I_xori_cg_cr_rs1_imm_edges_rs1val_0x5bbc8872_immval_0x4>:
I_xori_cg_cr_rs1_imm_edges_rs1val_0x5bbc8872_immval_0x4:
  xori x30, x27, 4 # perform operation
    2518:	004dcf13          	xori	x30,x27,4
  # Check if x30 contains the expected result. x12 is the signature ptr, x5 is the link ptr, x4 is a temp reg.
  RVTEST_SIGUPD(x12, x5, x4, x30, I_xori_cg_cr_rs1_imm_edges_rs1val_0x5bbc8872_immval_0x4, I_xori_cg_cr_rs1_imm_edges_rs1val_0x5bbc8872_immval_0x4_str)
    251c:	00062203          	lw	x4,0(x12)
    2520:	01e20863          	beq	x4,x30,2530 <I_xori_cg_cr_rs1_imm_edges_rs1val_0x5bbc8872_immval_0x4+0x18>
    2524:	799002ef          	jal	x5,34bc <failedtest_x5_x4>
    2528:	00002518          	.word	0x00002518
    252c:	0000d18f          	.word	0x0000d18f
    2530:	00460613          	addi	x12,x12,4

# Testcase cr_rs1_imm_edges (rs1 = 0x5bbc8872, imm = 8)
  RVTEST_TESTDATA_LOAD_INT(x24, x1) # load rs1: x1 = 0x5bbc8872
    2534:	000c2083          	lw	x1,0(x24)
    2538:	004c0c13          	addi	x24,x24,4

0000253c <I_xori_cg_cr_rs1_imm_edges_rs1val_0x5bbc8872_immval_0x8>:
I_xori_cg_cr_rs1_imm_edges_rs1val_0x5bbc8872_immval_0x8:
  xori x11, x1, 8 # perform operation
    253c:	0080c593          	xori	x11,x1,8
  # Check if x11 contains the expected result. x12 is the signature ptr, x5 is the link ptr, x4 is a temp reg.
  RVTEST_SIGUPD(x12, x5, x4, x11, I_xori_cg_cr_rs1_imm_edges_rs1val_0x5bbc8872_immval_0x8, I_xori_cg_cr_rs1_imm_edges_rs1val_0x5bbc8872_immval_0x8_str)
    2540:	00062203          	lw	x4,0(x12)
    2544:	00b20863          	beq	x4,x11,2554 <I_xori_cg_cr_rs1_imm_edges_rs1val_0x5bbc8872_immval_0x8+0x18>
    2548:	775002ef          	jal	x5,34bc <failedtest_x5_x4>
    254c:	0000253c          	.word	0x0000253c
    2550:	0000d1e4          	.word	0x0000d1e4
    2554:	00460613          	addi	x12,x12,4

# Testcase cr_rs1_imm_edges (rs1 = 0x5bbc8872, imm = 16)
  RVTEST_TESTDATA_LOAD_INT(x24, x3) # load rs1: x3 = 0x5bbc8872
    2558:	000c2183          	lw	x3,0(x24)
    255c:	004c0c13          	addi	x24,x24,4

00002560 <I_xori_cg_cr_rs1_imm_edges_rs1val_0x5bbc8872_immval_0x10>:
I_xori_cg_cr_rs1_imm_edges_rs1val_0x5bbc8872_immval_0x10:
  xori x22, x3, 16 # perform operation
    2560:	0101cb13          	xori	x22,x3,16
  # Check if x22 contains the expected result. x12 is the signature ptr, x5 is the link ptr, x4 is a temp reg.
  RVTEST_SIGUPD(x12, x5, x4, x22, I_xori_cg_cr_rs1_imm_edges_rs1val_0x5bbc8872_immval_0x10, I_xori_cg_cr_rs1_imm_edges_rs1val_0x5bbc8872_immval_0x10_str)
    2564:	00062203          	lw	x4,0(x12)
    2568:	01620863          	beq	x4,x22,2578 <I_xori_cg_cr_rs1_imm_edges_rs1val_0x5bbc8872_immval_0x10+0x18>
    256c:	751002ef          	jal	x5,34bc <failedtest_x5_x4>
    2570:	00002560          	.word	0x00002560
    2574:	0000d239          	.word	0x0000d239
    2578:	00460613          	addi	x12,x12,4

# Testcase cr_rs1_imm_edges (rs1 = 0x5bbc8872, imm = 32)
  RVTEST_TESTDATA_LOAD_INT(x24, x6) # load rs1: x6 = 0x5bbc8872
    257c:	000c2303          	lw	x6,0(x24)
    2580:	004c0c13          	addi	x24,x24,4

00002584 <I_xori_cg_cr_rs1_imm_edges_rs1val_0x5bbc8872_immval_0x20>:
I_xori_cg_cr_rs1_imm_edges_rs1val_0x5bbc8872_immval_0x20:
  xori x1, x6, 32 # perform operation
    2584:	02034093          	xori	x1,x6,32
  # Check if x1 contains the expected result. x12 is the signature ptr, x5 is the link ptr, x4 is a temp reg.
  RVTEST_SIGUPD(x12, x5, x4, x1, I_xori_cg_cr_rs1_imm_edges_rs1val_0x5bbc8872_immval_0x20, I_xori_cg_cr_rs1_imm_edges_rs1val_0x5bbc8872_immval_0x20_str)
    2588:	00062203          	lw	x4,0(x12)
    258c:	00120863          	beq	x4,x1,259c <I_xori_cg_cr_rs1_imm_edges_rs1val_0x5bbc8872_immval_0x20+0x18>
    2590:	72d002ef          	jal	x5,34bc <failedtest_x5_x4>
    2594:	00002584          	.word	0x00002584
    2598:	0000d28f          	.word	0x0000d28f
    259c:	00460613          	addi	x12,x12,4

# Testcase cr_rs1_imm_edges (rs1 = 0x5bbc8872, imm = 64)
  RVTEST_TESTDATA_LOAD_INT(x24, x8) # load rs1: x8 = 0x5bbc8872
    25a0:	000c2403          	lw	x8,0(x24)
    25a4:	004c0c13          	addi	x24,x24,4

000025a8 <I_xori_cg_cr_rs1_imm_edges_rs1val_0x5bbc8872_immval_0x40>:
I_xori_cg_cr_rs1_imm_edges_rs1val_0x5bbc8872_immval_0x40:
  xori x1, x8, 64 # perform operation
    25a8:	04044093          	xori	x1,x8,64
  # Check if x1 contains the expected result. x12 is the signature ptr, x5 is the link ptr, x4 is a temp reg.
  RVTEST_SIGUPD(x12, x5, x4, x1, I_xori_cg_cr_rs1_imm_edges_rs1val_0x5bbc8872_immval_0x40, I_xori_cg_cr_rs1_imm_edges_rs1val_0x5bbc8872_immval_0x40_str)
    25ac:	00062203          	lw	x4,0(x12)
    25b0:	00120863          	beq	x4,x1,25c0 <I_xori_cg_cr_rs1_imm_edges_rs1val_0x5bbc8872_immval_0x40+0x18>
    25b4:	709002ef          	jal	x5,34bc <failedtest_x5_x4>
    25b8:	000025a8          	.word	0x000025a8
    25bc:	0000d2e5          	.word	0x0000d2e5
    25c0:	00460613          	addi	x12,x12,4

# Testcase cr_rs1_imm_edges (rs1 = 0x5bbc8872, imm = 128)
  RVTEST_TESTDATA_LOAD_INT(x24, x27) # load rs1: x27 = 0x5bbc8872
    25c4:	000c2d83          	lw	x27,0(x24)
    25c8:	004c0c13          	addi	x24,x24,4

000025cc <I_xori_cg_cr_rs1_imm_edges_rs1val_0x5bbc8872_immval_0x80>:
I_xori_cg_cr_rs1_imm_edges_rs1val_0x5bbc8872_immval_0x80:
  xori x18, x27, 128 # perform operation
    25cc:	080dc913          	xori	x18,x27,128
  # Check if x18 contains the expected result. x12 is the signature ptr, x5 is the link ptr, x4 is a temp reg.
  RVTEST_SIGUPD(x12, x5, x4, x18, I_xori_cg_cr_rs1_imm_edges_rs1val_0x5bbc8872_immval_0x80, I_xori_cg_cr_rs1_imm_edges_rs1val_0x5bbc8872_immval_0x80_str)
    25d0:	00062203          	lw	x4,0(x12)
    25d4:	01220863          	beq	x4,x18,25e4 <I_xori_cg_cr_rs1_imm_edges_rs1val_0x5bbc8872_immval_0x80+0x18>
    25d8:	6e5002ef          	jal	x5,34bc <failedtest_x5_x4>
    25dc:	000025cc          	.word	0x000025cc
    25e0:	0000d33b          	.word	0x0000d33b
    25e4:	00460613          	addi	x12,x12,4

# Testcase cr_rs1_imm_edges (rs1 = 0x5bbc8872, imm = 256)
  RVTEST_TESTDATA_LOAD_INT(x24, x18) # load rs1: x18 = 0x5bbc8872
    25e8:	000c2903          	lw	x18,0(x24)
    25ec:	004c0c13          	addi	x24,x24,4

000025f0 <I_xori_cg_cr_rs1_imm_edges_rs1val_0x5bbc8872_immval_0x100>:
I_xori_cg_cr_rs1_imm_edges_rs1val_0x5bbc8872_immval_0x100:
  xori x23, x18, 256 # perform operation
    25f0:	10094b93          	xori	x23,x18,256
  # Check if x23 contains the expected result. x12 is the signature ptr, x5 is the link ptr, x4 is a temp reg.
  RVTEST_SIGUPD(x12, x5, x4, x23, I_xori_cg_cr_rs1_imm_edges_rs1val_0x5bbc8872_immval_0x100, I_xori_cg_cr_rs1_imm_edges_rs1val_0x5bbc8872_immval_0x100_str)
    25f4:	00062203          	lw	x4,0(x12)
    25f8:	01720863          	beq	x4,x23,2608 <I_xori_cg_cr_rs1_imm_edges_rs1val_0x5bbc8872_immval_0x100+0x18>
    25fc:	6c1002ef          	jal	x5,34bc <failedtest_x5_x4>
    2600:	000025f0          	.word	0x000025f0
    2604:	0000d391          	.word	0x0000d391
    2608:	00460613          	addi	x12,x12,4

# Testcase cr_rs1_imm_edges (rs1 = 0x5bbc8872, imm = 512)
  RVTEST_TESTDATA_LOAD_INT(x24, x14) # load rs1: x14 = 0x5bbc8872
    260c:	000c2703          	lw	x14,0(x24)
    2610:	004c0c13          	addi	x24,x24,4

00002614 <I_xori_cg_cr_rs1_imm_edges_rs1val_0x5bbc8872_immval_0x200>:
I_xori_cg_cr_rs1_imm_edges_rs1val_0x5bbc8872_immval_0x200:
  xori x25, x14, 512 # perform operation
    2614:	20074c93          	xori	x25,x14,512
  # Check if x25 contains the expected result. x12 is the signature ptr, x5 is the link ptr, x4 is a temp reg.
  RVTEST_SIGUPD(x12, x5, x4, x25, I_xori_cg_cr_rs1_imm_edges_rs1val_0x5bbc8872_immval_0x200, I_xori_cg_cr_rs1_imm_edges_rs1val_0x5bbc8872_immval_0x200_str)
    2618:	00062203          	lw	x4,0(x12)
    261c:	01920863          	beq	x4,x25,262c <I_xori_cg_cr_rs1_imm_edges_rs1val_0x5bbc8872_immval_0x200+0x18>
    2620:	69d002ef          	jal	x5,34bc <failedtest_x5_x4>
    2624:	00002614          	.word	0x00002614
    2628:	0000d3e8          	.word	0x0000d3e8
    262c:	00460613          	addi	x12,x12,4

# Testcase cr_rs1_imm_edges (rs1 = 0x5bbc8872, imm = 1023)
  RVTEST_TESTDATA_LOAD_INT(x24, x29) # load rs1: x29 = 0x5bbc8872
    2630:	000c2e83          	lw	x29,0(x24)
    2634:	004c0c13          	addi	x24,x24,4

00002638 <I_xori_cg_cr_rs1_imm_edges_rs1val_0x5bbc8872_immval_0x3ff>:
I_xori_cg_cr_rs1_imm_edges_rs1val_0x5bbc8872_immval_0x3ff:
  xori x6, x29, 1023 # perform operation
    2638:	3ffec313          	xori	x6,x29,1023
  # Check if x6 contains the expected result. x12 is the signature ptr, x5 is the link ptr, x4 is a temp reg.
  RVTEST_SIGUPD(x12, x5, x4, x6, I_xori_cg_cr_rs1_imm_edges_rs1val_0x5bbc8872_immval_0x3ff, I_xori_cg_cr_rs1_imm_edges_rs1val_0x5bbc8872_immval_0x3ff_str)
    263c:	00062203          	lw	x4,0(x12)
    2640:	00620863          	beq	x4,x6,2650 <I_xori_cg_cr_rs1_imm_edges_rs1val_0x5bbc8872_immval_0x3ff+0x18>
    2644:	679002ef          	jal	x5,34bc <failedtest_x5_x4>
    2648:	00002638          	.word	0x00002638
    264c:	0000d43f          	.word	0x0000d43f
    2650:	00460613          	addi	x12,x12,4

# Testcase cr_rs1_imm_edges (rs1 = 0x5bbc8872, imm = 1024)
  RVTEST_TESTDATA_LOAD_INT(x24, x22) # load rs1: x22 = 0x5bbc8872
    2654:	000c2b03          	lw	x22,0(x24)
    2658:	004c0c13          	addi	x24,x24,4

0000265c <I_xori_cg_cr_rs1_imm_edges_rs1val_0x5bbc8872_immval_0x400>:
I_xori_cg_cr_rs1_imm_edges_rs1val_0x5bbc8872_immval_0x400:
  xori x28, x22, 1024 # perform operation
    265c:	400b4e13          	xori	x28,x22,1024
  # Check if x28 contains the expected result. x12 is the signature ptr, x5 is the link ptr, x4 is a temp reg.
  RVTEST_SIGUPD(x12, x5, x4, x28, I_xori_cg_cr_rs1_imm_edges_rs1val_0x5bbc8872_immval_0x400, I_xori_cg_cr_rs1_imm_edges_rs1val_0x5bbc8872_immval_0x400_str)
    2660:	00062203          	lw	x4,0(x12)
    2664:	01c20863          	beq	x4,x28,2674 <I_xori_cg_cr_rs1_imm_edges_rs1val_0x5bbc8872_immval_0x400+0x18>
    2668:	655002ef          	jal	x5,34bc <failedtest_x5_x4>
    266c:	0000265c          	.word	0x0000265c
    2670:	0000d496          	.word	0x0000d496
    2674:	00460613          	addi	x12,x12,4

# Testcase cr_rs1_imm_edges (rs1 = 0x5bbc8872, imm = 1795)
  RVTEST_TESTDATA_LOAD_INT(x24, x16) # load rs1: x16 = 0x5bbc8872
    2678:	000c2803          	lw	x16,0(x24)
    267c:	004c0c13          	addi	x24,x24,4

00002680 <I_xori_cg_cr_rs1_imm_edges_rs1val_0x5bbc8872_immval_0x703>:
I_xori_cg_cr_rs1_imm_edges_rs1val_0x5bbc8872_immval_0x703:
  xori x30, x16, 1795 # perform operation
    2680:	70384f13          	xori	x30,x16,1795
  # Check if x30 contains the expected result. x12 is the signature ptr, x5 is the link ptr, x4 is a temp reg.
  RVTEST_SIGUPD(x12, x5, x4, x30, I_xori_cg_cr_rs1_imm_edges_rs1val_0x5bbc8872_immval_0x703, I_xori_cg_cr_rs1_imm_edges_rs1val_0x5bbc8872_immval_0x703_str)
    2684:	00062203          	lw	x4,0(x12)
    2688:	01e20863          	beq	x4,x30,2698 <I_xori_cg_cr_rs1_imm_edges_rs1val_0x5bbc8872_immval_0x703+0x18>
    268c:	631002ef          	jal	x5,34bc <failedtest_x5_x4>
    2690:	00002680          	.word	0x00002680
    2694:	0000d4ed          	.word	0x0000d4ed
    2698:	00460613          	addi	x12,x12,4

# Testcase cr_rs1_imm_edges (rs1 = 0x5bbc8872, imm = 2047)
  RVTEST_TESTDATA_LOAD_INT(x24, x29) # load rs1: x29 = 0x5bbc8872
    269c:	000c2e83          	lw	x29,0(x24)
    26a0:	004c0c13          	addi	x24,x24,4

000026a4 <I_xori_cg_cr_rs1_imm_edges_rs1val_0x5bbc8872_immval_0x7ff>:
I_xori_cg_cr_rs1_imm_edges_rs1val_0x5bbc8872_immval_0x7ff:
  xori x7, x29, 2047 # perform operation
    26a4:	7ffec393          	xori	x7,x29,2047
  # Check if x7 contains the expected result. x12 is the signature ptr, x5 is the link ptr, x4 is a temp reg.
  RVTEST_SIGUPD(x12, x5, x4, x7, I_xori_cg_cr_rs1_imm_edges_rs1val_0x5bbc8872_immval_0x7ff, I_xori_cg_cr_rs1_imm_edges_rs1val_0x5bbc8872_immval_0x7ff_str)
    26a8:	00062203          	lw	x4,0(x12)
    26ac:	00720863          	beq	x4,x7,26bc <I_xori_cg_cr_rs1_imm_edges_rs1val_0x5bbc8872_immval_0x7ff+0x18>
    26b0:	60d002ef          	jal	x5,34bc <failedtest_x5_x4>
    26b4:	000026a4          	.word	0x000026a4
    26b8:	0000d544          	.word	0x0000d544
    26bc:	00460613          	addi	x12,x12,4

# Testcase cr_rs1_imm_edges (rs1 = 0x5bbc8872, imm = -2048)
  RVTEST_TESTDATA_LOAD_INT(x24, x13) # load rs1: x13 = 0x5bbc8872
    26c0:	000c2683          	lw	x13,0(x24)
    26c4:	004c0c13          	addi	x24,x24,4

000026c8 <I_xori_cg_cr_rs1_imm_edges_rs1val_0x5bbc8872_immval_m0x800>:
I_xori_cg_cr_rs1_imm_edges_rs1val_0x5bbc8872_immval_m0x800:
  xori x6, x13, -2048 # perform operation
    26c8:	8006c313          	xori	x6,x13,-2048
  # Check if x6 contains the expected result. x12 is the signature ptr, x5 is the link ptr, x4 is a temp reg.
  RVTEST_SIGUPD(x12, x5, x4, x6, I_xori_cg_cr_rs1_imm_edges_rs1val_0x5bbc8872_immval_m0x800, I_xori_cg_cr_rs1_imm_edges_rs1val_0x5bbc8872_immval_m0x800_str)
    26cc:	00062203          	lw	x4,0(x12)
    26d0:	00620863          	beq	x4,x6,26e0 <I_xori_cg_cr_rs1_imm_edges_rs1val_0x5bbc8872_immval_m0x800+0x18>
    26d4:	5e9002ef          	jal	x5,34bc <failedtest_x5_x4>
    26d8:	000026c8          	.word	0x000026c8
    26dc:	0000d59b          	.word	0x0000d59b
    26e0:	00460613          	addi	x12,x12,4

# Testcase cr_rs1_imm_edges (rs1 = 0x5bbc8872, imm = -2047)
  RVTEST_TESTDATA_LOAD_INT(x24, x14) # load rs1: x14 = 0x5bbc8872
    26e4:	000c2703          	lw	x14,0(x24)
    26e8:	004c0c13          	addi	x24,x24,4

000026ec <I_xori_cg_cr_rs1_imm_edges_rs1val_0x5bbc8872_immval_m0x7ff>:
I_xori_cg_cr_rs1_imm_edges_rs1val_0x5bbc8872_immval_m0x7ff:
  xori x25, x14, -2047 # perform operation
    26ec:	80174c93          	xori	x25,x14,-2047
  # Check if x25 contains the expected result. x12 is the signature ptr, x5 is the link ptr, x4 is a temp reg.
  RVTEST_SIGUPD(x12, x5, x4, x25, I_xori_cg_cr_rs1_imm_edges_rs1val_0x5bbc8872_immval_m0x7ff, I_xori_cg_cr_rs1_imm_edges_rs1val_0x5bbc8872_immval_m0x7ff_str)
    26f0:	00062203          	lw	x4,0(x12)
    26f4:	01920863          	beq	x4,x25,2704 <I_xori_cg_cr_rs1_imm_edges_rs1val_0x5bbc8872_immval_m0x7ff+0x18>
    26f8:	5c5002ef          	jal	x5,34bc <failedtest_x5_x4>
    26fc:	000026ec          	.word	0x000026ec
    2700:	0000d5f3          	.word	0x0000d5f3
    2704:	00460613          	addi	x12,x12,4

# Testcase cr_rs1_imm_edges (rs1 = 0x5bbc8872, imm = -2)
  RVTEST_TESTDATA_LOAD_INT(x24, x27) # load rs1: x27 = 0x5bbc8872
    2708:	000c2d83          	lw	x27,0(x24)
    270c:	004c0c13          	addi	x24,x24,4

00002710 <I_xori_cg_cr_rs1_imm_edges_rs1val_0x5bbc8872_immval_m0x2>:
I_xori_cg_cr_rs1_imm_edges_rs1val_0x5bbc8872_immval_m0x2:
  xori x28, x27, -2 # perform operation
    2710:	ffedce13          	xori	x28,x27,-2
  # Check if x28 contains the expected result. x12 is the signature ptr, x5 is the link ptr, x4 is a temp reg.
  RVTEST_SIGUPD(x12, x5, x4, x28, I_xori_cg_cr_rs1_imm_edges_rs1val_0x5bbc8872_immval_m0x2, I_xori_cg_cr_rs1_imm_edges_rs1val_0x5bbc8872_immval_m0x2_str)
    2714:	00062203          	lw	x4,0(x12)
    2718:	01c20863          	beq	x4,x28,2728 <I_xori_cg_cr_rs1_imm_edges_rs1val_0x5bbc8872_immval_m0x2+0x18>
    271c:	5a1002ef          	jal	x5,34bc <failedtest_x5_x4>
    2720:	00002710          	.word	0x00002710
    2724:	0000d64b          	.word	0x0000d64b
    2728:	00460613          	addi	x12,x12,4

# Testcase cr_rs1_imm_edges (rs1 = 0x5bbc8872, imm = -1)
  RVTEST_TESTDATA_LOAD_INT(x24, x18) # load rs1: x18 = 0x5bbc8872
    272c:	000c2903          	lw	x18,0(x24)
    2730:	004c0c13          	addi	x24,x24,4

00002734 <I_xori_cg_cr_rs1_imm_edges_rs1val_0x5bbc8872_immval_m0x1>:
I_xori_cg_cr_rs1_imm_edges_rs1val_0x5bbc8872_immval_m0x1:
  xori x23, x18, -1 # perform operation
    2734:	fff94b93          	xori	x23,x18,-1
  # Check if x23 contains the expected result. x12 is the signature ptr, x5 is the link ptr, x4 is a temp reg.
  RVTEST_SIGUPD(x12, x5, x4, x23, I_xori_cg_cr_rs1_imm_edges_rs1val_0x5bbc8872_immval_m0x1, I_xori_cg_cr_rs1_imm_edges_rs1val_0x5bbc8872_immval_m0x1_str)
    2738:	00062203          	lw	x4,0(x12)
    273c:	01720863          	beq	x4,x23,274c <I_xori_cg_cr_rs1_imm_edges_rs1val_0x5bbc8872_immval_m0x1+0x18>
    2740:	57d002ef          	jal	x5,34bc <failedtest_x5_x4>
    2744:	00002734          	.word	0x00002734
    2748:	0000d6a1          	.word	0x0000d6a1
    274c:	00460613          	addi	x12,x12,4

# Testcase cr_rs1_imm_edges (rs1 = 0xaaaaaaaa, imm = 0)
  RVTEST_TESTDATA_LOAD_INT(x24, x7) # load rs1: x7 = 0xaaaaaaaa
    2750:	000c2383          	lw	x7,0(x24)
    2754:	004c0c13          	addi	x24,x24,4

00002758 <I_xori_cg_cr_rs1_imm_edges_rs1val_0xaaaaaaaa_immval_0x0>:
I_xori_cg_cr_rs1_imm_edges_rs1val_0xaaaaaaaa_immval_0x0:
  xori x1, x7, 0 # perform operation
    2758:	0003c093          	xori	x1,x7,0
  # Check if x1 contains the expected result. x12 is the signature ptr, x5 is the link ptr, x4 is a temp reg.
  RVTEST_SIGUPD(x12, x5, x4, x1, I_xori_cg_cr_rs1_imm_edges_rs1val_0xaaaaaaaa_immval_0x0, I_xori_cg_cr_rs1_imm_edges_rs1val_0xaaaaaaaa_immval_0x0_str)
    275c:	00062203          	lw	x4,0(x12)
    2760:	00120863          	beq	x4,x1,2770 <I_xori_cg_cr_rs1_imm_edges_rs1val_0xaaaaaaaa_immval_0x0+0x18>
    2764:	559002ef          	jal	x5,34bc <failedtest_x5_x4>
    2768:	00002758          	.word	0x00002758
    276c:	0000d6f7          	.word	0x0000d6f7
    2770:	00460613          	addi	x12,x12,4

# Testcase cr_rs1_imm_edges (rs1 = 0xaaaaaaaa, imm = 1)
  RVTEST_TESTDATA_LOAD_INT(x24, x29) # load rs1: x29 = 0xaaaaaaaa
    2774:	000c2e83          	lw	x29,0(x24)
    2778:	004c0c13          	addi	x24,x24,4

0000277c <I_xori_cg_cr_rs1_imm_edges_rs1val_0xaaaaaaaa_immval_0x1>:
I_xori_cg_cr_rs1_imm_edges_rs1val_0xaaaaaaaa_immval_0x1:
  xori x26, x29, 1 # perform operation
    277c:	001ecd13          	xori	x26,x29,1
  # Check if x26 contains the expected result. x12 is the signature ptr, x5 is the link ptr, x4 is a temp reg.
  RVTEST_SIGUPD(x12, x5, x4, x26, I_xori_cg_cr_rs1_imm_edges_rs1val_0xaaaaaaaa_immval_0x1, I_xori_cg_cr_rs1_imm_edges_rs1val_0xaaaaaaaa_immval_0x1_str)
    2780:	00062203          	lw	x4,0(x12)
    2784:	01a20863          	beq	x4,x26,2794 <I_xori_cg_cr_rs1_imm_edges_rs1val_0xaaaaaaaa_immval_0x1+0x18>
    2788:	535002ef          	jal	x5,34bc <failedtest_x5_x4>
    278c:	0000277c          	.word	0x0000277c
    2790:	0000d74c          	.word	0x0000d74c
    2794:	00460613          	addi	x12,x12,4

# Testcase cr_rs1_imm_edges (rs1 = 0xaaaaaaaa, imm = 2)
  RVTEST_TESTDATA_LOAD_INT(x24, x15) # load rs1: x15 = 0xaaaaaaaa
    2798:	000c2783          	lw	x15,0(x24)
    279c:	004c0c13          	addi	x24,x24,4

000027a0 <I_xori_cg_cr_rs1_imm_edges_rs1val_0xaaaaaaaa_immval_0x2>:
I_xori_cg_cr_rs1_imm_edges_rs1val_0xaaaaaaaa_immval_0x2:
  xori x22, x15, 2 # perform operation
    27a0:	0027cb13          	xori	x22,x15,2
  # Check if x22 contains the expected result. x12 is the signature ptr, x5 is the link ptr, x4 is a temp reg.
  RVTEST_SIGUPD(x12, x5, x4, x22, I_xori_cg_cr_rs1_imm_edges_rs1val_0xaaaaaaaa_immval_0x2, I_xori_cg_cr_rs1_imm_edges_rs1val_0xaaaaaaaa_immval_0x2_str)
    27a4:	00062203          	lw	x4,0(x12)
    27a8:	01620863          	beq	x4,x22,27b8 <I_xori_cg_cr_rs1_imm_edges_rs1val_0xaaaaaaaa_immval_0x2+0x18>
    27ac:	511002ef          	jal	x5,34bc <failedtest_x5_x4>
    27b0:	000027a0          	.word	0x000027a0
    27b4:	0000d7a1          	.word	0x0000d7a1
    27b8:	00460613          	addi	x12,x12,4

# Testcase cr_rs1_imm_edges (rs1 = 0xaaaaaaaa, imm = 3)
  RVTEST_TESTDATA_LOAD_INT(x24, x18) # load rs1: x18 = 0xaaaaaaaa
    27bc:	000c2903          	lw	x18,0(x24)
    27c0:	004c0c13          	addi	x24,x24,4

000027c4 <I_xori_cg_cr_rs1_imm_edges_rs1val_0xaaaaaaaa_immval_0x3>:
I_xori_cg_cr_rs1_imm_edges_rs1val_0xaaaaaaaa_immval_0x3:
  xori x1, x18, 3 # perform operation
    27c4:	00394093          	xori	x1,x18,3
  # Check if x1 contains the expected result. x12 is the signature ptr, x5 is the link ptr, x4 is a temp reg.
  RVTEST_SIGUPD(x12, x5, x4, x1, I_xori_cg_cr_rs1_imm_edges_rs1val_0xaaaaaaaa_immval_0x3, I_xori_cg_cr_rs1_imm_edges_rs1val_0xaaaaaaaa_immval_0x3_str)
    27c8:	00062203          	lw	x4,0(x12)
    27cc:	00120863          	beq	x4,x1,27dc <I_xori_cg_cr_rs1_imm_edges_rs1val_0xaaaaaaaa_immval_0x3+0x18>
    27d0:	4ed002ef          	jal	x5,34bc <failedtest_x5_x4>
    27d4:	000027c4          	.word	0x000027c4
    27d8:	0000d7f6          	.word	0x0000d7f6
    27dc:	00460613          	addi	x12,x12,4

# Testcase cr_rs1_imm_edges (rs1 = 0xaaaaaaaa, imm = 4)
  RVTEST_TESTDATA_LOAD_INT(x24, x19) # load rs1: x19 = 0xaaaaaaaa
    27e0:	000c2983          	lw	x19,0(x24)
    27e4:	004c0c13          	addi	x24,x24,4

000027e8 <I_xori_cg_cr_rs1_imm_edges_rs1val_0xaaaaaaaa_immval_0x4>:
I_xori_cg_cr_rs1_imm_edges_rs1val_0xaaaaaaaa_immval_0x4:
  xori x16, x19, 4 # perform operation
    27e8:	0049c813          	xori	x16,x19,4
  # Check if x16 contains the expected result. x12 is the signature ptr, x5 is the link ptr, x4 is a temp reg.
  RVTEST_SIGUPD(x12, x5, x4, x16, I_xori_cg_cr_rs1_imm_edges_rs1val_0xaaaaaaaa_immval_0x4, I_xori_cg_cr_rs1_imm_edges_rs1val_0xaaaaaaaa_immval_0x4_str)
    27ec:	00062203          	lw	x4,0(x12)
    27f0:	01020863          	beq	x4,x16,2800 <I_xori_cg_cr_rs1_imm_edges_rs1val_0xaaaaaaaa_immval_0x4+0x18>
    27f4:	4c9002ef          	jal	x5,34bc <failedtest_x5_x4>
    27f8:	000027e8          	.word	0x000027e8
    27fc:	0000d84b          	.word	0x0000d84b
    2800:	00460613          	addi	x12,x12,4

# Testcase cr_rs1_imm_edges (rs1 = 0xaaaaaaaa, imm = 8)
  RVTEST_TESTDATA_LOAD_INT(x24, x15) # load rs1: x15 = 0xaaaaaaaa
    2804:	000c2783          	lw	x15,0(x24)
    2808:	004c0c13          	addi	x24,x24,4

0000280c <I_xori_cg_cr_rs1_imm_edges_rs1val_0xaaaaaaaa_immval_0x8>:
I_xori_cg_cr_rs1_imm_edges_rs1val_0xaaaaaaaa_immval_0x8:
  xori x7, x15, 8 # perform operation
    280c:	0087c393          	xori	x7,x15,8
  # Check if x7 contains the expected result. x12 is the signature ptr, x5 is the link ptr, x4 is a temp reg.
  RVTEST_SIGUPD(x12, x5, x4, x7, I_xori_cg_cr_rs1_imm_edges_rs1val_0xaaaaaaaa_immval_0x8, I_xori_cg_cr_rs1_imm_edges_rs1val_0xaaaaaaaa_immval_0x8_str)
    2810:	00062203          	lw	x4,0(x12)
    2814:	00720863          	beq	x4,x7,2824 <I_xori_cg_cr_rs1_imm_edges_rs1val_0xaaaaaaaa_immval_0x8+0x18>
    2818:	4a5002ef          	jal	x5,34bc <failedtest_x5_x4>
    281c:	0000280c          	.word	0x0000280c
    2820:	0000d8a0          	.word	0x0000d8a0
    2824:	00460613          	addi	x12,x12,4

# Testcase cr_rs1_imm_edges (rs1 = 0xaaaaaaaa, imm = 16)
  RVTEST_TESTDATA_LOAD_INT(x24, x1) # load rs1: x1 = 0xaaaaaaaa
    2828:	000c2083          	lw	x1,0(x24)
    282c:	004c0c13          	addi	x24,x24,4

00002830 <I_xori_cg_cr_rs1_imm_edges_rs1val_0xaaaaaaaa_immval_0x10>:
I_xori_cg_cr_rs1_imm_edges_rs1val_0xaaaaaaaa_immval_0x10:
  xori x3, x1, 16 # perform operation
    2830:	0100c193          	xori	x3,x1,16
  # Check if x3 contains the expected result. x12 is the signature ptr, x5 is the link ptr, x4 is a temp reg.
  RVTEST_SIGUPD(x12, x5, x4, x3, I_xori_cg_cr_rs1_imm_edges_rs1val_0xaaaaaaaa_immval_0x10, I_xori_cg_cr_rs1_imm_edges_rs1val_0xaaaaaaaa_immval_0x10_str)
    2834:	00062203          	lw	x4,0(x12)
    2838:	00320863          	beq	x4,x3,2848 <I_xori_cg_cr_rs1_imm_edges_rs1val_0xaaaaaaaa_immval_0x10+0x18>
    283c:	481002ef          	jal	x5,34bc <failedtest_x5_x4>
    2840:	00002830          	.word	0x00002830
    2844:	0000d8f5          	.word	0x0000d8f5
    2848:	00460613          	addi	x12,x12,4

# Testcase cr_rs1_imm_edges (rs1 = 0xaaaaaaaa, imm = 32)
  RVTEST_TESTDATA_LOAD_INT(x24, x31) # load rs1: x31 = 0xaaaaaaaa
    284c:	000c2f83          	lw	x31,0(x24)
    2850:	004c0c13          	addi	x24,x24,4

00002854 <I_xori_cg_cr_rs1_imm_edges_rs1val_0xaaaaaaaa_immval_0x20>:
I_xori_cg_cr_rs1_imm_edges_rs1val_0xaaaaaaaa_immval_0x20:
  xori x30, x31, 32 # perform operation
    2854:	020fcf13          	xori	x30,x31,32
  # Check if x30 contains the expected result. x12 is the signature ptr, x5 is the link ptr, x4 is a temp reg.
  RVTEST_SIGUPD(x12, x5, x4, x30, I_xori_cg_cr_rs1_imm_edges_rs1val_0xaaaaaaaa_immval_0x20, I_xori_cg_cr_rs1_imm_edges_rs1val_0xaaaaaaaa_immval_0x20_str)
    2858:	00062203          	lw	x4,0(x12)
    285c:	01e20863          	beq	x4,x30,286c <I_xori_cg_cr_rs1_imm_edges_rs1val_0xaaaaaaaa_immval_0x20+0x18>
    2860:	45d002ef          	jal	x5,34bc <failedtest_x5_x4>
    2864:	00002854          	.word	0x00002854
    2868:	0000d94b          	.word	0x0000d94b
    286c:	00460613          	addi	x12,x12,4

# Testcase cr_rs1_imm_edges (rs1 = 0xaaaaaaaa, imm = 64)
  RVTEST_TESTDATA_LOAD_INT(x24, x28) # load rs1: x28 = 0xaaaaaaaa
    2870:	000c2e03          	lw	x28,0(x24)
    2874:	004c0c13          	addi	x24,x24,4

00002878 <I_xori_cg_cr_rs1_imm_edges_rs1val_0xaaaaaaaa_immval_0x40>:
I_xori_cg_cr_rs1_imm_edges_rs1val_0xaaaaaaaa_immval_0x40:
  xori x9, x28, 64 # perform operation
    2878:	040e4493          	xori	x9,x28,64
  # Check if x9 contains the expected result. x12 is the signature ptr, x5 is the link ptr, x4 is a temp reg.
  RVTEST_SIGUPD(x12, x5, x4, x9, I_xori_cg_cr_rs1_imm_edges_rs1val_0xaaaaaaaa_immval_0x40, I_xori_cg_cr_rs1_imm_edges_rs1val_0xaaaaaaaa_immval_0x40_str)
    287c:	00062203          	lw	x4,0(x12)
    2880:	00920863          	beq	x4,x9,2890 <I_xori_cg_cr_rs1_imm_edges_rs1val_0xaaaaaaaa_immval_0x40+0x18>
    2884:	439002ef          	jal	x5,34bc <failedtest_x5_x4>
    2888:	00002878          	.word	0x00002878
    288c:	0000d9a1          	.word	0x0000d9a1
    2890:	00460613          	addi	x12,x12,4

# Testcase cr_rs1_imm_edges (rs1 = 0xaaaaaaaa, imm = 128)
  RVTEST_TESTDATA_LOAD_INT(x24, x20) # load rs1: x20 = 0xaaaaaaaa
    2894:	000c2a03          	lw	x20,0(x24)
    2898:	004c0c13          	addi	x24,x24,4

0000289c <I_xori_cg_cr_rs1_imm_edges_rs1val_0xaaaaaaaa_immval_0x80>:
I_xori_cg_cr_rs1_imm_edges_rs1val_0xaaaaaaaa_immval_0x80:
  xori x18, x20, 128 # perform operation
    289c:	080a4913          	xori	x18,x20,128
  # Check if x18 contains the expected result. x12 is the signature ptr, x5 is the link ptr, x4 is a temp reg.
  RVTEST_SIGUPD(x12, x5, x4, x18, I_xori_cg_cr_rs1_imm_edges_rs1val_0xaaaaaaaa_immval_0x80, I_xori_cg_cr_rs1_imm_edges_rs1val_0xaaaaaaaa_immval_0x80_str)
    28a0:	00062203          	lw	x4,0(x12)
    28a4:	01220863          	beq	x4,x18,28b4 <I_xori_cg_cr_rs1_imm_edges_rs1val_0xaaaaaaaa_immval_0x80+0x18>
    28a8:	415002ef          	jal	x5,34bc <failedtest_x5_x4>
    28ac:	0000289c          	.word	0x0000289c
    28b0:	0000d9f7          	.word	0x0000d9f7
    28b4:	00460613          	addi	x12,x12,4

# Testcase cr_rs1_imm_edges (rs1 = 0xaaaaaaaa, imm = 256)
  RVTEST_TESTDATA_LOAD_INT(x24, x21) # load rs1: x21 = 0xaaaaaaaa
    28b8:	000c2a83          	lw	x21,0(x24)
    28bc:	004c0c13          	addi	x24,x24,4

000028c0 <I_xori_cg_cr_rs1_imm_edges_rs1val_0xaaaaaaaa_immval_0x100>:
I_xori_cg_cr_rs1_imm_edges_rs1val_0xaaaaaaaa_immval_0x100:
  xori x16, x21, 256 # perform operation
    28c0:	100ac813          	xori	x16,x21,256
  # Check if x16 contains the expected result. x12 is the signature ptr, x5 is the link ptr, x4 is a temp reg.
  RVTEST_SIGUPD(x12, x5, x4, x16, I_xori_cg_cr_rs1_imm_edges_rs1val_0xaaaaaaaa_immval_0x100, I_xori_cg_cr_rs1_imm_edges_rs1val_0xaaaaaaaa_immval_0x100_str)
    28c4:	00062203          	lw	x4,0(x12)
    28c8:	01020863          	beq	x4,x16,28d8 <I_xori_cg_cr_rs1_imm_edges_rs1val_0xaaaaaaaa_immval_0x100+0x18>
    28cc:	3f1002ef          	jal	x5,34bc <failedtest_x5_x4>
    28d0:	000028c0          	.word	0x000028c0
    28d4:	0000da4d          	.word	0x0000da4d
    28d8:	00460613          	addi	x12,x12,4

# Testcase cr_rs1_imm_edges (rs1 = 0xaaaaaaaa, imm = 512)
  RVTEST_TESTDATA_LOAD_INT(x24, x26) # load rs1: x26 = 0xaaaaaaaa
    28dc:	000c2d03          	lw	x26,0(x24)
    28e0:	004c0c13          	addi	x24,x24,4

000028e4 <I_xori_cg_cr_rs1_imm_edges_rs1val_0xaaaaaaaa_immval_0x200>:
I_xori_cg_cr_rs1_imm_edges_rs1val_0xaaaaaaaa_immval_0x200:
  xori x10, x26, 512 # perform operation
    28e4:	200d4513          	xori	x10,x26,512
  # Check if x10 contains the expected result. x12 is the signature ptr, x5 is the link ptr, x4 is a temp reg.
  RVTEST_SIGUPD(x12, x5, x4, x10, I_xori_cg_cr_rs1_imm_edges_rs1val_0xaaaaaaaa_immval_0x200, I_xori_cg_cr_rs1_imm_edges_rs1val_0xaaaaaaaa_immval_0x200_str)
    28e8:	00062203          	lw	x4,0(x12)
    28ec:	00a20863          	beq	x4,x10,28fc <I_xori_cg_cr_rs1_imm_edges_rs1val_0xaaaaaaaa_immval_0x200+0x18>
    28f0:	3cd002ef          	jal	x5,34bc <failedtest_x5_x4>
    28f4:	000028e4          	.word	0x000028e4
    28f8:	0000daa4          	.word	0x0000daa4
    28fc:	00460613          	addi	x12,x12,4

# Testcase cr_rs1_imm_edges (rs1 = 0xaaaaaaaa, imm = 1023)
  RVTEST_TESTDATA_LOAD_INT(x24, x31) # load rs1: x31 = 0xaaaaaaaa
    2900:	000c2f83          	lw	x31,0(x24)
    2904:	004c0c13          	addi	x24,x24,4

00002908 <I_xori_cg_cr_rs1_imm_edges_rs1val_0xaaaaaaaa_immval_0x3ff>:
I_xori_cg_cr_rs1_imm_edges_rs1val_0xaaaaaaaa_immval_0x3ff:
  xori x1, x31, 1023 # perform operation
    2908:	3fffc093          	xori	x1,x31,1023
  # Check if x1 contains the expected result. x12 is the signature ptr, x5 is the link ptr, x4 is a temp reg.
  RVTEST_SIGUPD(x12, x5, x4, x1, I_xori_cg_cr_rs1_imm_edges_rs1val_0xaaaaaaaa_immval_0x3ff, I_xori_cg_cr_rs1_imm_edges_rs1val_0xaaaaaaaa_immval_0x3ff_str)
    290c:	00062203          	lw	x4,0(x12)
    2910:	00120863          	beq	x4,x1,2920 <I_xori_cg_cr_rs1_imm_edges_rs1val_0xaaaaaaaa_immval_0x3ff+0x18>
    2914:	3a9002ef          	jal	x5,34bc <failedtest_x5_x4>
    2918:	00002908          	.word	0x00002908
    291c:	0000dafb          	.word	0x0000dafb
    2920:	00460613          	addi	x12,x12,4

# Testcase cr_rs1_imm_edges (rs1 = 0xaaaaaaaa, imm = 1024)
  RVTEST_TESTDATA_LOAD_INT(x24, x2) # load rs1: x2 = 0xaaaaaaaa
    2924:	000c2103          	lw	x2,0(x24)
    2928:	004c0c13          	addi	x24,x24,4

0000292c <I_xori_cg_cr_rs1_imm_edges_rs1val_0xaaaaaaaa_immval_0x400>:
I_xori_cg_cr_rs1_imm_edges_rs1val_0xaaaaaaaa_immval_0x400:
  xori x21, x2, 1024 # perform operation
    292c:	40014a93          	xori	x21,x2,1024
  # Check if x21 contains the expected result. x12 is the signature ptr, x5 is the link ptr, x4 is a temp reg.
  RVTEST_SIGUPD(x12, x5, x4, x21, I_xori_cg_cr_rs1_imm_edges_rs1val_0xaaaaaaaa_immval_0x400, I_xori_cg_cr_rs1_imm_edges_rs1val_0xaaaaaaaa_immval_0x400_str)
    2930:	00062203          	lw	x4,0(x12)
    2934:	01520863          	beq	x4,x21,2944 <I_xori_cg_cr_rs1_imm_edges_rs1val_0xaaaaaaaa_immval_0x400+0x18>
    2938:	385002ef          	jal	x5,34bc <failedtest_x5_x4>
    293c:	0000292c          	.word	0x0000292c
    2940:	0000db52          	.word	0x0000db52
    2944:	00460613          	addi	x12,x12,4

# Testcase cr_rs1_imm_edges (rs1 = 0xaaaaaaaa, imm = 1795)
  RVTEST_TESTDATA_LOAD_INT(x24, x17) # load rs1: x17 = 0xaaaaaaaa
    2948:	000c2883          	lw	x17,0(x24)
    294c:	004c0c13          	addi	x24,x24,4

00002950 <I_xori_cg_cr_rs1_imm_edges_rs1val_0xaaaaaaaa_immval_0x703>:
I_xori_cg_cr_rs1_imm_edges_rs1val_0xaaaaaaaa_immval_0x703:
  xori x6, x17, 1795 # perform operation
    2950:	7038c313          	xori	x6,x17,1795
  # Check if x6 contains the expected result. x12 is the signature ptr, x5 is the link ptr, x4 is a temp reg.
  RVTEST_SIGUPD(x12, x5, x4, x6, I_xori_cg_cr_rs1_imm_edges_rs1val_0xaaaaaaaa_immval_0x703, I_xori_cg_cr_rs1_imm_edges_rs1val_0xaaaaaaaa_immval_0x703_str)
    2954:	00062203          	lw	x4,0(x12)
    2958:	00620863          	beq	x4,x6,2968 <I_xori_cg_cr_rs1_imm_edges_rs1val_0xaaaaaaaa_immval_0x703+0x18>
    295c:	361002ef          	jal	x5,34bc <failedtest_x5_x4>
    2960:	00002950          	.word	0x00002950
    2964:	0000dba9          	.word	0x0000dba9
    2968:	00460613          	addi	x12,x12,4

# Testcase cr_rs1_imm_edges (rs1 = 0xaaaaaaaa, imm = 2047)
  RVTEST_TESTDATA_LOAD_INT(x24, x15) # load rs1: x15 = 0xaaaaaaaa
    296c:	000c2783          	lw	x15,0(x24)
    2970:	004c0c13          	addi	x24,x24,4

00002974 <I_xori_cg_cr_rs1_imm_edges_rs1val_0xaaaaaaaa_immval_0x7ff>:
I_xori_cg_cr_rs1_imm_edges_rs1val_0xaaaaaaaa_immval_0x7ff:
  xori x29, x15, 2047 # perform operation
    2974:	7ff7ce93          	xori	x29,x15,2047
  # Check if x29 contains the expected result. x12 is the signature ptr, x5 is the link ptr, x4 is a temp reg.
  RVTEST_SIGUPD(x12, x5, x4, x29, I_xori_cg_cr_rs1_imm_edges_rs1val_0xaaaaaaaa_immval_0x7ff, I_xori_cg_cr_rs1_imm_edges_rs1val_0xaaaaaaaa_immval_0x7ff_str)
    2978:	00062203          	lw	x4,0(x12)
    297c:	01d20863          	beq	x4,x29,298c <I_xori_cg_cr_rs1_imm_edges_rs1val_0xaaaaaaaa_immval_0x7ff+0x18>
    2980:	33d002ef          	jal	x5,34bc <failedtest_x5_x4>
    2984:	00002974          	.word	0x00002974
    2988:	0000dc00          	.word	0x0000dc00
    298c:	00460613          	addi	x12,x12,4

# Testcase cr_rs1_imm_edges (rs1 = 0xaaaaaaaa, imm = -2048)
  RVTEST_TESTDATA_LOAD_INT(x24, x7) # load rs1: x7 = 0xaaaaaaaa
    2990:	000c2383          	lw	x7,0(x24)
    2994:	004c0c13          	addi	x24,x24,4

00002998 <I_xori_cg_cr_rs1_imm_edges_rs1val_0xaaaaaaaa_immval_m0x800>:
I_xori_cg_cr_rs1_imm_edges_rs1val_0xaaaaaaaa_immval_m0x800:
  xori x30, x7, -2048 # perform operation
    2998:	8003cf13          	xori	x30,x7,-2048
  # Check if x30 contains the expected result. x12 is the signature ptr, x5 is the link ptr, x4 is a temp reg.
  RVTEST_SIGUPD(x12, x5, x4, x30, I_xori_cg_cr_rs1_imm_edges_rs1val_0xaaaaaaaa_immval_m0x800, I_xori_cg_cr_rs1_imm_edges_rs1val_0xaaaaaaaa_immval_m0x800_str)
    299c:	00062203          	lw	x4,0(x12)
    29a0:	01e20863          	beq	x4,x30,29b0 <I_xori_cg_cr_rs1_imm_edges_rs1val_0xaaaaaaaa_immval_m0x800+0x18>
    29a4:	319002ef          	jal	x5,34bc <failedtest_x5_x4>
    29a8:	00002998          	.word	0x00002998
    29ac:	0000dc57          	.word	0x0000dc57
    29b0:	00460613          	addi	x12,x12,4

# Testcase cr_rs1_imm_edges (rs1 = 0xaaaaaaaa, imm = -2047)
  RVTEST_TESTDATA_LOAD_INT(x24, x19) # load rs1: x19 = 0xaaaaaaaa
    29b4:	000c2983          	lw	x19,0(x24)
    29b8:	004c0c13          	addi	x24,x24,4

000029bc <I_xori_cg_cr_rs1_imm_edges_rs1val_0xaaaaaaaa_immval_m0x7ff>:
I_xori_cg_cr_rs1_imm_edges_rs1val_0xaaaaaaaa_immval_m0x7ff:
  xori x10, x19, -2047 # perform operation
    29bc:	8019c513          	xori	x10,x19,-2047
  # Check if x10 contains the expected result. x12 is the signature ptr, x5 is the link ptr, x4 is a temp reg.
  RVTEST_SIGUPD(x12, x5, x4, x10, I_xori_cg_cr_rs1_imm_edges_rs1val_0xaaaaaaaa_immval_m0x7ff, I_xori_cg_cr_rs1_imm_edges_rs1val_0xaaaaaaaa_immval_m0x7ff_str)
    29c0:	00062203          	lw	x4,0(x12)
    29c4:	00a20863          	beq	x4,x10,29d4 <I_xori_cg_cr_rs1_imm_edges_rs1val_0xaaaaaaaa_immval_m0x7ff+0x18>
    29c8:	2f5002ef          	jal	x5,34bc <failedtest_x5_x4>
    29cc:	000029bc          	.word	0x000029bc
    29d0:	0000dcaf          	.word	0x0000dcaf
    29d4:	00460613          	addi	x12,x12,4

# Testcase cr_rs1_imm_edges (rs1 = 0xaaaaaaaa, imm = -2)
  RVTEST_TESTDATA_LOAD_INT(x24, x21) # load rs1: x21 = 0xaaaaaaaa
    29d8:	000c2a83          	lw	x21,0(x24)
    29dc:	004c0c13          	addi	x24,x24,4

000029e0 <I_xori_cg_cr_rs1_imm_edges_rs1val_0xaaaaaaaa_immval_m0x2>:
I_xori_cg_cr_rs1_imm_edges_rs1val_0xaaaaaaaa_immval_m0x2:
  xori x9, x21, -2 # perform operation
    29e0:	ffeac493          	xori	x9,x21,-2
  # Check if x9 contains the expected result. x12 is the signature ptr, x5 is the link ptr, x4 is a temp reg.
  RVTEST_SIGUPD(x12, x5, x4, x9, I_xori_cg_cr_rs1_imm_edges_rs1val_0xaaaaaaaa_immval_m0x2, I_xori_cg_cr_rs1_imm_edges_rs1val_0xaaaaaaaa_immval_m0x2_str)
    29e4:	00062203          	lw	x4,0(x12)
    29e8:	00920863          	beq	x4,x9,29f8 <I_xori_cg_cr_rs1_imm_edges_rs1val_0xaaaaaaaa_immval_m0x2+0x18>
    29ec:	2d1002ef          	jal	x5,34bc <failedtest_x5_x4>
    29f0:	000029e0          	.word	0x000029e0
    29f4:	0000dd07          	.word	0x0000dd07
    29f8:	00460613          	addi	x12,x12,4

# Testcase cr_rs1_imm_edges (rs1 = 0xaaaaaaaa, imm = -1)
  RVTEST_TESTDATA_LOAD_INT(x24, x13) # load rs1: x13 = 0xaaaaaaaa
    29fc:	000c2683          	lw	x13,0(x24)
    2a00:	004c0c13          	addi	x24,x24,4

00002a04 <I_xori_cg_cr_rs1_imm_edges_rs1val_0xaaaaaaaa_immval_m0x1>:
I_xori_cg_cr_rs1_imm_edges_rs1val_0xaaaaaaaa_immval_m0x1:
  xori x22, x13, -1 # perform operation
    2a04:	fff6cb13          	xori	x22,x13,-1
  # Check if x22 contains the expected result. x12 is the signature ptr, x5 is the link ptr, x4 is a temp reg.
  RVTEST_SIGUPD(x12, x5, x4, x22, I_xori_cg_cr_rs1_imm_edges_rs1val_0xaaaaaaaa_immval_m0x1, I_xori_cg_cr_rs1_imm_edges_rs1val_0xaaaaaaaa_immval_m0x1_str)
    2a08:	00062203          	lw	x4,0(x12)
    2a0c:	01620863          	beq	x4,x22,2a1c <I_xori_cg_cr_rs1_imm_edges_rs1val_0xaaaaaaaa_immval_m0x1+0x18>
    2a10:	2ad002ef          	jal	x5,34bc <failedtest_x5_x4>
    2a14:	00002a04          	.word	0x00002a04
    2a18:	0000dd5d          	.word	0x0000dd5d
    2a1c:	00460613          	addi	x12,x12,4

# Testcase cr_rs1_imm_edges (rs1 = 0x55555555, imm = 0)
  RVTEST_TESTDATA_LOAD_INT(x24, x29) # load rs1: x29 = 0x55555555
    2a20:	000c2e83          	lw	x29,0(x24)
    2a24:	004c0c13          	addi	x24,x24,4

00002a28 <I_xori_cg_cr_rs1_imm_edges_rs1val_0x55555555_immval_0x0>:
I_xori_cg_cr_rs1_imm_edges_rs1val_0x55555555_immval_0x0:
  xori x3, x29, 0 # perform operation
    2a28:	000ec193          	xori	x3,x29,0
  # Check if x3 contains the expected result. x12 is the signature ptr, x5 is the link ptr, x4 is a temp reg.
  RVTEST_SIGUPD(x12, x5, x4, x3, I_xori_cg_cr_rs1_imm_edges_rs1val_0x55555555_immval_0x0, I_xori_cg_cr_rs1_imm_edges_rs1val_0x55555555_immval_0x0_str)
    2a2c:	00062203          	lw	x4,0(x12)
    2a30:	00320863          	beq	x4,x3,2a40 <I_xori_cg_cr_rs1_imm_edges_rs1val_0x55555555_immval_0x0+0x18>
    2a34:	289002ef          	jal	x5,34bc <failedtest_x5_x4>
    2a38:	00002a28          	.word	0x00002a28
    2a3c:	0000ddb3          	.word	0x0000ddb3
    2a40:	00460613          	addi	x12,x12,4

# Testcase cr_rs1_imm_edges (rs1 = 0x55555555, imm = 1)
  RVTEST_TESTDATA_LOAD_INT(x24, x16) # load rs1: x16 = 0x55555555
    2a44:	000c2803          	lw	x16,0(x24)
    2a48:	004c0c13          	addi	x24,x24,4

00002a4c <I_xori_cg_cr_rs1_imm_edges_rs1val_0x55555555_immval_0x1>:
I_xori_cg_cr_rs1_imm_edges_rs1val_0x55555555_immval_0x1:
  xori x29, x16, 1 # perform operation
    2a4c:	00184e93          	xori	x29,x16,1
  # Check if x29 contains the expected result. x12 is the signature ptr, x5 is the link ptr, x4 is a temp reg.
  RVTEST_SIGUPD(x12, x5, x4, x29, I_xori_cg_cr_rs1_imm_edges_rs1val_0x55555555_immval_0x1, I_xori_cg_cr_rs1_imm_edges_rs1val_0x55555555_immval_0x1_str)
    2a50:	00062203          	lw	x4,0(x12)
    2a54:	01d20863          	beq	x4,x29,2a64 <I_xori_cg_cr_rs1_imm_edges_rs1val_0x55555555_immval_0x1+0x18>
    2a58:	265002ef          	jal	x5,34bc <failedtest_x5_x4>
    2a5c:	00002a4c          	.word	0x00002a4c
    2a60:	0000de08          	.word	0x0000de08
    2a64:	00460613          	addi	x12,x12,4

# Testcase cr_rs1_imm_edges (rs1 = 0x55555555, imm = 2)
  RVTEST_TESTDATA_LOAD_INT(x24, x16) # load rs1: x16 = 0x55555555
    2a68:	000c2803          	lw	x16,0(x24)
    2a6c:	004c0c13          	addi	x24,x24,4

00002a70 <I_xori_cg_cr_rs1_imm_edges_rs1val_0x55555555_immval_0x2>:
I_xori_cg_cr_rs1_imm_edges_rs1val_0x55555555_immval_0x2:
  xori x27, x16, 2 # perform operation
    2a70:	00284d93          	xori	x27,x16,2
  # Check if x27 contains the expected result. x12 is the signature ptr, x5 is the link ptr, x4 is a temp reg.
  RVTEST_SIGUPD(x12, x5, x4, x27, I_xori_cg_cr_rs1_imm_edges_rs1val_0x55555555_immval_0x2, I_xori_cg_cr_rs1_imm_edges_rs1val_0x55555555_immval_0x2_str)
    2a74:	00062203          	lw	x4,0(x12)
    2a78:	01b20863          	beq	x4,x27,2a88 <I_xori_cg_cr_rs1_imm_edges_rs1val_0x55555555_immval_0x2+0x18>
    2a7c:	241002ef          	jal	x5,34bc <failedtest_x5_x4>
    2a80:	00002a70          	.word	0x00002a70
    2a84:	0000de5d          	.word	0x0000de5d
    2a88:	00460613          	addi	x12,x12,4

# Testcase cr_rs1_imm_edges (rs1 = 0x55555555, imm = 3)
  RVTEST_TESTDATA_LOAD_INT(x24, x8) # load rs1: x8 = 0x55555555
    2a8c:	000c2403          	lw	x8,0(x24)
    2a90:	004c0c13          	addi	x24,x24,4

00002a94 <I_xori_cg_cr_rs1_imm_edges_rs1val_0x55555555_immval_0x3>:
I_xori_cg_cr_rs1_imm_edges_rs1val_0x55555555_immval_0x3:
  xori x21, x8, 3 # perform operation
    2a94:	00344a93          	xori	x21,x8,3
  # Check if x21 contains the expected result. x12 is the signature ptr, x5 is the link ptr, x4 is a temp reg.
  RVTEST_SIGUPD(x12, x5, x4, x21, I_xori_cg_cr_rs1_imm_edges_rs1val_0x55555555_immval_0x3, I_xori_cg_cr_rs1_imm_edges_rs1val_0x55555555_immval_0x3_str)
    2a98:	00062203          	lw	x4,0(x12)
    2a9c:	01520863          	beq	x4,x21,2aac <I_xori_cg_cr_rs1_imm_edges_rs1val_0x55555555_immval_0x3+0x18>
    2aa0:	21d002ef          	jal	x5,34bc <failedtest_x5_x4>
    2aa4:	00002a94          	.word	0x00002a94
    2aa8:	0000deb2          	.word	0x0000deb2
    2aac:	00460613          	addi	x12,x12,4

# Testcase cr_rs1_imm_edges (rs1 = 0x55555555, imm = 4)
  RVTEST_TESTDATA_LOAD_INT(x24, x6) # load rs1: x6 = 0x55555555
    2ab0:	000c2303          	lw	x6,0(x24)
    2ab4:	004c0c13          	addi	x24,x24,4

00002ab8 <I_xori_cg_cr_rs1_imm_edges_rs1val_0x55555555_immval_0x4>:
I_xori_cg_cr_rs1_imm_edges_rs1val_0x55555555_immval_0x4:
  xori x16, x6, 4 # perform operation
    2ab8:	00434813          	xori	x16,x6,4
  # Check if x16 contains the expected result. x12 is the signature ptr, x5 is the link ptr, x4 is a temp reg.
  RVTEST_SIGUPD(x12, x5, x4, x16, I_xori_cg_cr_rs1_imm_edges_rs1val_0x55555555_immval_0x4, I_xori_cg_cr_rs1_imm_edges_rs1val_0x55555555_immval_0x4_str)
    2abc:	00062203          	lw	x4,0(x12)
    2ac0:	01020863          	beq	x4,x16,2ad0 <I_xori_cg_cr_rs1_imm_edges_rs1val_0x55555555_immval_0x4+0x18>
    2ac4:	1f9002ef          	jal	x5,34bc <failedtest_x5_x4>
    2ac8:	00002ab8          	.word	0x00002ab8
    2acc:	0000df07          	.word	0x0000df07
    2ad0:	00460613          	addi	x12,x12,4

# Testcase cr_rs1_imm_edges (rs1 = 0x55555555, imm = 8)
  RVTEST_TESTDATA_LOAD_INT(x24, x19) # load rs1: x19 = 0x55555555
    2ad4:	000c2983          	lw	x19,0(x24)
    2ad8:	004c0c13          	addi	x24,x24,4

00002adc <I_xori_cg_cr_rs1_imm_edges_rs1val_0x55555555_immval_0x8>:
I_xori_cg_cr_rs1_imm_edges_rs1val_0x55555555_immval_0x8:
  xori x18, x19, 8 # perform operation
    2adc:	0089c913          	xori	x18,x19,8
  # Check if x18 contains the expected result. x12 is the signature ptr, x5 is the link ptr, x4 is a temp reg.
  RVTEST_SIGUPD(x12, x5, x4, x18, I_xori_cg_cr_rs1_imm_edges_rs1val_0x55555555_immval_0x8, I_xori_cg_cr_rs1_imm_edges_rs1val_0x55555555_immval_0x8_str)
    2ae0:	00062203          	lw	x4,0(x12)
    2ae4:	01220863          	beq	x4,x18,2af4 <I_xori_cg_cr_rs1_imm_edges_rs1val_0x55555555_immval_0x8+0x18>
    2ae8:	1d5002ef          	jal	x5,34bc <failedtest_x5_x4>
    2aec:	00002adc          	.word	0x00002adc
    2af0:	0000df5c          	.word	0x0000df5c
    2af4:	00460613          	addi	x12,x12,4

# Testcase cr_rs1_imm_edges (rs1 = 0x55555555, imm = 16)
  RVTEST_TESTDATA_LOAD_INT(x24, x30) # load rs1: x30 = 0x55555555
    2af8:	000c2f03          	lw	x30,0(x24)
    2afc:	004c0c13          	addi	x24,x24,4

00002b00 <I_xori_cg_cr_rs1_imm_edges_rs1val_0x55555555_immval_0x10>:
I_xori_cg_cr_rs1_imm_edges_rs1val_0x55555555_immval_0x10:
  xori x27, x30, 16 # perform operation
    2b00:	010f4d93          	xori	x27,x30,16
  # Check if x27 contains the expected result. x12 is the signature ptr, x5 is the link ptr, x4 is a temp reg.
  RVTEST_SIGUPD(x12, x5, x4, x27, I_xori_cg_cr_rs1_imm_edges_rs1val_0x55555555_immval_0x10, I_xori_cg_cr_rs1_imm_edges_rs1val_0x55555555_immval_0x10_str)
    2b04:	00062203          	lw	x4,0(x12)
    2b08:	01b20863          	beq	x4,x27,2b18 <I_xori_cg_cr_rs1_imm_edges_rs1val_0x55555555_immval_0x10+0x18>
    2b0c:	1b1002ef          	jal	x5,34bc <failedtest_x5_x4>
    2b10:	00002b00          	.word	0x00002b00
    2b14:	0000dfb1          	.word	0x0000dfb1
    2b18:	00460613          	addi	x12,x12,4

# Testcase cr_rs1_imm_edges (rs1 = 0x55555555, imm = 32)
  RVTEST_TESTDATA_LOAD_INT(x24, x7) # load rs1: x7 = 0x55555555
    2b1c:	000c2383          	lw	x7,0(x24)
    2b20:	004c0c13          	addi	x24,x24,4

00002b24 <I_xori_cg_cr_rs1_imm_edges_rs1val_0x55555555_immval_0x20>:
I_xori_cg_cr_rs1_imm_edges_rs1val_0x55555555_immval_0x20:
  xori x14, x7, 32 # perform operation
    2b24:	0203c713          	xori	x14,x7,32
  # Check if x14 contains the expected result. x12 is the signature ptr, x5 is the link ptr, x4 is a temp reg.
  RVTEST_SIGUPD(x12, x5, x4, x14, I_xori_cg_cr_rs1_imm_edges_rs1val_0x55555555_immval_0x20, I_xori_cg_cr_rs1_imm_edges_rs1val_0x55555555_immval_0x20_str)
    2b28:	00062203          	lw	x4,0(x12)
    2b2c:	00e20863          	beq	x4,x14,2b3c <I_xori_cg_cr_rs1_imm_edges_rs1val_0x55555555_immval_0x20+0x18>
    2b30:	18d002ef          	jal	x5,34bc <failedtest_x5_x4>
    2b34:	00002b24          	.word	0x00002b24
    2b38:	0000e007          	.word	0x0000e007
    2b3c:	00460613          	addi	x12,x12,4

# Testcase cr_rs1_imm_edges (rs1 = 0x55555555, imm = 64)
  RVTEST_TESTDATA_LOAD_INT(x24, x17) # load rs1: x17 = 0x55555555
    2b40:	000c2883          	lw	x17,0(x24)
    2b44:	004c0c13          	addi	x24,x24,4

00002b48 <I_xori_cg_cr_rs1_imm_edges_rs1val_0x55555555_immval_0x40>:
I_xori_cg_cr_rs1_imm_edges_rs1val_0x55555555_immval_0x40:
  xori x8, x17, 64 # perform operation
    2b48:	0408c413          	xori	x8,x17,64
  # Check if x8 contains the expected result. x12 is the signature ptr, x5 is the link ptr, x4 is a temp reg.
  RVTEST_SIGUPD(x12, x5, x4, x8, I_xori_cg_cr_rs1_imm_edges_rs1val_0x55555555_immval_0x40, I_xori_cg_cr_rs1_imm_edges_rs1val_0x55555555_immval_0x40_str)
    2b4c:	00062203          	lw	x4,0(x12)
    2b50:	00820863          	beq	x4,x8,2b60 <I_xori_cg_cr_rs1_imm_edges_rs1val_0x55555555_immval_0x40+0x18>
    2b54:	169002ef          	jal	x5,34bc <failedtest_x5_x4>
    2b58:	00002b48          	.word	0x00002b48
    2b5c:	0000e05d          	.word	0x0000e05d
    2b60:	00460613          	addi	x12,x12,4

# Testcase cr_rs1_imm_edges (rs1 = 0x55555555, imm = 128)
  RVTEST_TESTDATA_LOAD_INT(x24, x28) # load rs1: x28 = 0x55555555
    2b64:	000c2e03          	lw	x28,0(x24)
    2b68:	004c0c13          	addi	x24,x24,4

00002b6c <I_xori_cg_cr_rs1_imm_edges_rs1val_0x55555555_immval_0x80>:
I_xori_cg_cr_rs1_imm_edges_rs1val_0x55555555_immval_0x80:
  xori x26, x28, 128 # perform operation
    2b6c:	080e4d13          	xori	x26,x28,128
  # Check if x26 contains the expected result. x12 is the signature ptr, x5 is the link ptr, x4 is a temp reg.
  RVTEST_SIGUPD(x12, x5, x4, x26, I_xori_cg_cr_rs1_imm_edges_rs1val_0x55555555_immval_0x80, I_xori_cg_cr_rs1_imm_edges_rs1val_0x55555555_immval_0x80_str)
    2b70:	00062203          	lw	x4,0(x12)
    2b74:	01a20863          	beq	x4,x26,2b84 <I_xori_cg_cr_rs1_imm_edges_rs1val_0x55555555_immval_0x80+0x18>
    2b78:	145002ef          	jal	x5,34bc <failedtest_x5_x4>
    2b7c:	00002b6c          	.word	0x00002b6c
    2b80:	0000e0b3          	.word	0x0000e0b3
    2b84:	00460613          	addi	x12,x12,4

# Testcase cr_rs1_imm_edges (rs1 = 0x55555555, imm = 256)
  RVTEST_TESTDATA_LOAD_INT(x24, x19) # load rs1: x19 = 0x55555555
    2b88:	000c2983          	lw	x19,0(x24)
    2b8c:	004c0c13          	addi	x24,x24,4

00002b90 <I_xori_cg_cr_rs1_imm_edges_rs1val_0x55555555_immval_0x100>:
I_xori_cg_cr_rs1_imm_edges_rs1val_0x55555555_immval_0x100:
  xori x13, x19, 256 # perform operation
    2b90:	1009c693          	xori	x13,x19,256
  # Check if x13 contains the expected result. x12 is the signature ptr, x5 is the link ptr, x4 is a temp reg.
  RVTEST_SIGUPD(x12, x5, x4, x13, I_xori_cg_cr_rs1_imm_edges_rs1val_0x55555555_immval_0x100, I_xori_cg_cr_rs1_imm_edges_rs1val_0x55555555_immval_0x100_str)
    2b94:	00062203          	lw	x4,0(x12)
    2b98:	00d20863          	beq	x4,x13,2ba8 <I_xori_cg_cr_rs1_imm_edges_rs1val_0x55555555_immval_0x100+0x18>
    2b9c:	121002ef          	jal	x5,34bc <failedtest_x5_x4>
    2ba0:	00002b90          	.word	0x00002b90
    2ba4:	0000e109          	.word	0x0000e109
    2ba8:	00460613          	addi	x12,x12,4

# Testcase cr_rs1_imm_edges (rs1 = 0x55555555, imm = 512)
  RVTEST_TESTDATA_LOAD_INT(x24, x23) # load rs1: x23 = 0x55555555
    2bac:	000c2b83          	lw	x23,0(x24)
    2bb0:	004c0c13          	addi	x24,x24,4

00002bb4 <I_xori_cg_cr_rs1_imm_edges_rs1val_0x55555555_immval_0x200>:
I_xori_cg_cr_rs1_imm_edges_rs1val_0x55555555_immval_0x200:
  xori x14, x23, 512 # perform operation
    2bb4:	200bc713          	xori	x14,x23,512
  # Check if x14 contains the expected result. x12 is the signature ptr, x5 is the link ptr, x4 is a temp reg.
  RVTEST_SIGUPD(x12, x5, x4, x14, I_xori_cg_cr_rs1_imm_edges_rs1val_0x55555555_immval_0x200, I_xori_cg_cr_rs1_imm_edges_rs1val_0x55555555_immval_0x200_str)
    2bb8:	00062203          	lw	x4,0(x12)
    2bbc:	00e20863          	beq	x4,x14,2bcc <I_xori_cg_cr_rs1_imm_edges_rs1val_0x55555555_immval_0x200+0x18>
    2bc0:	0fd002ef          	jal	x5,34bc <failedtest_x5_x4>
    2bc4:	00002bb4          	.word	0x00002bb4
    2bc8:	0000e160          	.word	0x0000e160
    2bcc:	00460613          	addi	x12,x12,4

# Testcase cr_rs1_imm_edges (rs1 = 0x55555555, imm = 1023)
  RVTEST_TESTDATA_LOAD_INT(x24, x3) # load rs1: x3 = 0x55555555
    2bd0:	000c2183          	lw	x3,0(x24)
    2bd4:	004c0c13          	addi	x24,x24,4

00002bd8 <I_xori_cg_cr_rs1_imm_edges_rs1val_0x55555555_immval_0x3ff>:
I_xori_cg_cr_rs1_imm_edges_rs1val_0x55555555_immval_0x3ff:
  xori x19, x3, 1023 # perform operation
    2bd8:	3ff1c993          	xori	x19,x3,1023
  # Check if x19 contains the expected result. x12 is the signature ptr, x5 is the link ptr, x4 is a temp reg.
  RVTEST_SIGUPD(x12, x5, x4, x19, I_xori_cg_cr_rs1_imm_edges_rs1val_0x55555555_immval_0x3ff, I_xori_cg_cr_rs1_imm_edges_rs1val_0x55555555_immval_0x3ff_str)
    2bdc:	00062203          	lw	x4,0(x12)
    2be0:	01320863          	beq	x4,x19,2bf0 <I_xori_cg_cr_rs1_imm_edges_rs1val_0x55555555_immval_0x3ff+0x18>
    2be4:	0d9002ef          	jal	x5,34bc <failedtest_x5_x4>
    2be8:	00002bd8          	.word	0x00002bd8
    2bec:	0000e1b7          	.word	0x0000e1b7
    2bf0:	00460613          	addi	x12,x12,4

# Testcase cr_rs1_imm_edges (rs1 = 0x55555555, imm = 1024)
  RVTEST_TESTDATA_LOAD_INT(x24, x17) # load rs1: x17 = 0x55555555
    2bf4:	000c2883          	lw	x17,0(x24)
    2bf8:	004c0c13          	addi	x24,x24,4

00002bfc <I_xori_cg_cr_rs1_imm_edges_rs1val_0x55555555_immval_0x400>:
I_xori_cg_cr_rs1_imm_edges_rs1val_0x55555555_immval_0x400:
  xori x7, x17, 1024 # perform operation
    2bfc:	4008c393          	xori	x7,x17,1024
  # Check if x7 contains the expected result. x12 is the signature ptr, x5 is the link ptr, x4 is a temp reg.
  RVTEST_SIGUPD(x12, x5, x4, x7, I_xori_cg_cr_rs1_imm_edges_rs1val_0x55555555_immval_0x400, I_xori_cg_cr_rs1_imm_edges_rs1val_0x55555555_immval_0x400_str)
    2c00:	00062203          	lw	x4,0(x12)
    2c04:	00720863          	beq	x4,x7,2c14 <I_xori_cg_cr_rs1_imm_edges_rs1val_0x55555555_immval_0x400+0x18>
    2c08:	0b5002ef          	jal	x5,34bc <failedtest_x5_x4>
    2c0c:	00002bfc          	.word	0x00002bfc
    2c10:	0000e20e          	.word	0x0000e20e
    2c14:	00460613          	addi	x12,x12,4

# Testcase cr_rs1_imm_edges (rs1 = 0x55555555, imm = 1795)
  RVTEST_TESTDATA_LOAD_INT(x24, x16) # load rs1: x16 = 0x55555555
    2c18:	000c2803          	lw	x16,0(x24)
    2c1c:	004c0c13          	addi	x24,x24,4

00002c20 <I_xori_cg_cr_rs1_imm_edges_rs1val_0x55555555_immval_0x703>:
I_xori_cg_cr_rs1_imm_edges_rs1val_0x55555555_immval_0x703:
  xori x11, x16, 1795 # perform operation
    2c20:	70384593          	xori	x11,x16,1795
  # Check if x11 contains the expected result. x12 is the signature ptr, x5 is the link ptr, x4 is a temp reg.
  RVTEST_SIGUPD(x12, x5, x4, x11, I_xori_cg_cr_rs1_imm_edges_rs1val_0x55555555_immval_0x703, I_xori_cg_cr_rs1_imm_edges_rs1val_0x55555555_immval_0x703_str)
    2c24:	00062203          	lw	x4,0(x12)
    2c28:	00b20863          	beq	x4,x11,2c38 <I_xori_cg_cr_rs1_imm_edges_rs1val_0x55555555_immval_0x703+0x18>
    2c2c:	091002ef          	jal	x5,34bc <failedtest_x5_x4>
    2c30:	00002c20          	.word	0x00002c20
    2c34:	0000e265          	.word	0x0000e265
    2c38:	00460613          	addi	x12,x12,4

# Testcase cr_rs1_imm_edges (rs1 = 0x55555555, imm = 2047)
  RVTEST_TESTDATA_LOAD_INT(x24, x30) # load rs1: x30 = 0x55555555
    2c3c:	000c2f03          	lw	x30,0(x24)
    2c40:	004c0c13          	addi	x24,x24,4

00002c44 <I_xori_cg_cr_rs1_imm_edges_rs1val_0x55555555_immval_0x7ff>:
I_xori_cg_cr_rs1_imm_edges_rs1val_0x55555555_immval_0x7ff:
  xori x18, x30, 2047 # perform operation
    2c44:	7fff4913          	xori	x18,x30,2047
  # Check if x18 contains the expected result. x12 is the signature ptr, x5 is the link ptr, x4 is a temp reg.
  RVTEST_SIGUPD(x12, x5, x4, x18, I_xori_cg_cr_rs1_imm_edges_rs1val_0x55555555_immval_0x7ff, I_xori_cg_cr_rs1_imm_edges_rs1val_0x55555555_immval_0x7ff_str)
    2c48:	00062203          	lw	x4,0(x12)
    2c4c:	01220863          	beq	x4,x18,2c5c <I_xori_cg_cr_rs1_imm_edges_rs1val_0x55555555_immval_0x7ff+0x18>
    2c50:	06d002ef          	jal	x5,34bc <failedtest_x5_x4>
    2c54:	00002c44          	.word	0x00002c44
    2c58:	0000e2bc          	.word	0x0000e2bc
    2c5c:	00460613          	addi	x12,x12,4

# Testcase cr_rs1_imm_edges (rs1 = 0x55555555, imm = -2048)
  RVTEST_TESTDATA_LOAD_INT(x24, x29) # load rs1: x29 = 0x55555555
    2c60:	000c2e83          	lw	x29,0(x24)
    2c64:	004c0c13          	addi	x24,x24,4

00002c68 <I_xori_cg_cr_rs1_imm_edges_rs1val_0x55555555_immval_m0x800>:
I_xori_cg_cr_rs1_imm_edges_rs1val_0x55555555_immval_m0x800:
  xori x11, x29, -2048 # perform operation
    2c68:	800ec593          	xori	x11,x29,-2048
  # Check if x11 contains the expected result. x12 is the signature ptr, x5 is the link ptr, x4 is a temp reg.
  RVTEST_SIGUPD(x12, x5, x4, x11, I_xori_cg_cr_rs1_imm_edges_rs1val_0x55555555_immval_m0x800, I_xori_cg_cr_rs1_imm_edges_rs1val_0x55555555_immval_m0x800_str)
    2c6c:	00062203          	lw	x4,0(x12)
    2c70:	00b20863          	beq	x4,x11,2c80 <I_xori_cg_cr_rs1_imm_edges_rs1val_0x55555555_immval_m0x800+0x18>
    2c74:	049002ef          	jal	x5,34bc <failedtest_x5_x4>
    2c78:	00002c68          	.word	0x00002c68
    2c7c:	0000e313          	.word	0x0000e313
    2c80:	00460613          	addi	x12,x12,4

# Testcase cr_rs1_imm_edges (rs1 = 0x55555555, imm = -2047)
  RVTEST_TESTDATA_LOAD_INT(x24, x2) # load rs1: x2 = 0x55555555
    2c84:	000c2103          	lw	x2,0(x24)
    2c88:	004c0c13          	addi	x24,x24,4

00002c8c <I_xori_cg_cr_rs1_imm_edges_rs1val_0x55555555_immval_m0x7ff>:
I_xori_cg_cr_rs1_imm_edges_rs1val_0x55555555_immval_m0x7ff:
  xori x7, x2, -2047 # perform operation
    2c8c:	80114393          	xori	x7,x2,-2047
  # Check if x7 contains the expected result. x12 is the signature ptr, x5 is the link ptr, x4 is a temp reg.
  RVTEST_SIGUPD(x12, x5, x4, x7, I_xori_cg_cr_rs1_imm_edges_rs1val_0x55555555_immval_m0x7ff, I_xori_cg_cr_rs1_imm_edges_rs1val_0x55555555_immval_m0x7ff_str)
    2c90:	00062203          	lw	x4,0(x12)
    2c94:	00720863          	beq	x4,x7,2ca4 <I_xori_cg_cr_rs1_imm_edges_rs1val_0x55555555_immval_m0x7ff+0x18>
    2c98:	025002ef          	jal	x5,34bc <failedtest_x5_x4>
    2c9c:	00002c8c          	.word	0x00002c8c
    2ca0:	0000e36b          	.word	0x0000e36b
    2ca4:	00460613          	addi	x12,x12,4

# Testcase cr_rs1_imm_edges (rs1 = 0x55555555, imm = -2)
  RVTEST_TESTDATA_LOAD_INT(x24, x21) # load rs1: x21 = 0x55555555
    2ca8:	000c2a83          	lw	x21,0(x24)
    2cac:	004c0c13          	addi	x24,x24,4

00002cb0 <I_xori_cg_cr_rs1_imm_edges_rs1val_0x55555555_immval_m0x2>:
I_xori_cg_cr_rs1_imm_edges_rs1val_0x55555555_immval_m0x2:
  xori x25, x21, -2 # perform operation
    2cb0:	ffeacc93          	xori	x25,x21,-2
  # Check if x25 contains the expected result. x12 is the signature ptr, x5 is the link ptr, x4 is a temp reg.
  RVTEST_SIGUPD(x12, x5, x4, x25, I_xori_cg_cr_rs1_imm_edges_rs1val_0x55555555_immval_m0x2, I_xori_cg_cr_rs1_imm_edges_rs1val_0x55555555_immval_m0x2_str)
    2cb4:	00062203          	lw	x4,0(x12)
    2cb8:	01920863          	beq	x4,x25,2cc8 <I_xori_cg_cr_rs1_imm_edges_rs1val_0x55555555_immval_m0x2+0x18>
    2cbc:	001002ef          	jal	x5,34bc <failedtest_x5_x4>
    2cc0:	00002cb0          	.word	0x00002cb0
    2cc4:	0000e3c3          	.word	0x0000e3c3
    2cc8:	00460613          	addi	x12,x12,4

# Testcase cr_rs1_imm_edges (rs1 = 0x55555555, imm = -1)
  RVTEST_TESTDATA_LOAD_INT(x24, x19) # load rs1: x19 = 0x55555555
    2ccc:	000c2983          	lw	x19,0(x24)
    2cd0:	004c0c13          	addi	x24,x24,4

00002cd4 <I_xori_cg_cr_rs1_imm_edges_rs1val_0x55555555_immval_m0x1>:
I_xori_cg_cr_rs1_imm_edges_rs1val_0x55555555_immval_m0x1:
  xori x9, x19, -1 # perform operation
    2cd4:	fff9c493          	xori	x9,x19,-1
  # Check if x9 contains the expected result. x12 is the signature ptr, x5 is the link ptr, x4 is a temp reg.
  RVTEST_SIGUPD(x12, x5, x4, x9, I_xori_cg_cr_rs1_imm_edges_rs1val_0x55555555_immval_m0x1, I_xori_cg_cr_rs1_imm_edges_rs1val_0x55555555_immval_m0x1_str)
    2cd8:	00062203          	lw	x4,0(x12)
    2cdc:	00920863          	beq	x4,x9,2cec <I_xori_cg_cr_rs1_imm_edges_rs1val_0x55555555_immval_m0x1+0x18>
    2ce0:	7dc002ef          	jal	x5,34bc <failedtest_x5_x4>
    2ce4:	00002cd4          	.word	0x00002cd4
    2ce8:	0000e419          	.word	0x0000e419
    2cec:	00460613          	addi	x12,x12,4
/////////////////////////////////
// cmp_rd_rs1
/////////////////////////////////

# Testcase cmp_rd_rs1 (Test rd = rs1 = x0)
  RVTEST_TESTDATA_LOAD_INT(x24, x0) # load rs1: x0 = 0xf43ab595
    2cf0:	000c2003          	lw	x0,0(x24)
    2cf4:	004c0c13          	addi	x24,x24,4

00002cf8 <I_xori_cg_cmp_rd_rs1_b0>:
I_xori_cg_cmp_rd_rs1_b0:
  xori x0, x0, -1385 # perform operation
    2cf8:	a9704013          	xori	x0,x0,-1385
  # Check if x0 contains the expected result. x12 is the signature ptr, x5 is the link ptr, x4 is a temp reg.
  RVTEST_SIGUPD(x12, x5, x4, x0, I_xori_cg_cmp_rd_rs1_b0, I_xori_cg_cmp_rd_rs1_b0_str)
    2cfc:	00062203          	lw	x4,0(x12)
    2d00:	00020863          	beq	x4,x0,2d10 <I_xori_cg_cmp_rd_rs1_b0+0x18>
    2d04:	7b8002ef          	jal	x5,34bc <failedtest_x5_x4>
    2d08:	00002cf8          	.word	0x00002cf8
    2d0c:	0000e46f          	.word	0x0000e46f
    2d10:	00460613          	addi	x12,x12,4

# Testcase cmp_rd_rs1 (Test rd = rs1 = x1)
  RVTEST_TESTDATA_LOAD_INT(x24, x1) # load rs1: x1 = 0x40fb74e1
    2d14:	000c2083          	lw	x1,0(x24)
    2d18:	004c0c13          	addi	x24,x24,4

00002d1c <I_xori_cg_cmp_rd_rs1_b1>:
I_xori_cg_cmp_rd_rs1_b1:
  xori x1, x1, 790 # perform operation
    2d1c:	3160c093          	xori	x1,x1,790
  # Check if x1 contains the expected result. x12 is the signature ptr, x5 is the link ptr, x4 is a temp reg.
  RVTEST_SIGUPD(x12, x5, x4, x1, I_xori_cg_cmp_rd_rs1_b1, I_xori_cg_cmp_rd_rs1_b1_str)
    2d20:	00062203          	lw	x4,0(x12)
    2d24:	00120863          	beq	x4,x1,2d34 <I_xori_cg_cmp_rd_rs1_b1+0x18>
    2d28:	794002ef          	jal	x5,34bc <failedtest_x5_x4>
    2d2c:	00002d1c          	.word	0x00002d1c
    2d30:	0000e4a3          	.word	0x0000e4a3
    2d34:	00460613          	addi	x12,x12,4

# Testcase cmp_rd_rs1 (Test rd = rs1 = x2)
  RVTEST_TESTDATA_LOAD_INT(x24, x2) # load rs1: x2 = 0x87057d69
    2d38:	000c2103          	lw	x2,0(x24)
    2d3c:	004c0c13          	addi	x24,x24,4

00002d40 <I_xori_cg_cmp_rd_rs1_b2>:
I_xori_cg_cmp_rd_rs1_b2:
  xori x2, x2, -543 # perform operation
    2d40:	de114113          	xori	x2,x2,-543
  # Check if x2 contains the expected result. x12 is the signature ptr, x5 is the link ptr, x4 is a temp reg.
  RVTEST_SIGUPD(x12, x5, x4, x2, I_xori_cg_cmp_rd_rs1_b2, I_xori_cg_cmp_rd_rs1_b2_str)
    2d44:	00062203          	lw	x4,0(x12)
    2d48:	00220863          	beq	x4,x2,2d58 <I_xori_cg_cmp_rd_rs1_b2+0x18>
    2d4c:	770002ef          	jal	x5,34bc <failedtest_x5_x4>
    2d50:	00002d40          	.word	0x00002d40
    2d54:	0000e4d7          	.word	0x0000e4d7
    2d58:	00460613          	addi	x12,x12,4

# Testcase cmp_rd_rs1 (Test rd = rs1 = x3)
  RVTEST_TESTDATA_LOAD_INT(x24, x3) # load rs1: x3 = 0x0fc23db7
    2d5c:	000c2183          	lw	x3,0(x24)
    2d60:	004c0c13          	addi	x24,x24,4

00002d64 <I_xori_cg_cmp_rd_rs1_b3>:
I_xori_cg_cmp_rd_rs1_b3:
  xori x3, x3, -1282 # perform operation
    2d64:	afe1c193          	xori	x3,x3,-1282
  # Check if x3 contains the expected result. x12 is the signature ptr, x5 is the link ptr, x4 is a temp reg.
  RVTEST_SIGUPD(x12, x5, x4, x3, I_xori_cg_cmp_rd_rs1_b3, I_xori_cg_cmp_rd_rs1_b3_str)
    2d68:	00062203          	lw	x4,0(x12)
    2d6c:	00320863          	beq	x4,x3,2d7c <I_xori_cg_cmp_rd_rs1_b3+0x18>
    2d70:	74c002ef          	jal	x5,34bc <failedtest_x5_x4>
    2d74:	00002d64          	.word	0x00002d64
    2d78:	0000e50b          	.word	0x0000e50b
    2d7c:	00460613          	addi	x12,x12,4

  mv x13, x4 # switch temp register to avoid conflict with test
    2d80:	00020693          	addi	x13,x4,0 # 0 <rvtest_entry_point>
  mv x14, x5 # switch link pointer register to avoid conflict with test
    2d84:	00028713          	addi	x14,x5,0
# Testcase cmp_rd_rs1 (Test rd = rs1 = x4)
  RVTEST_TESTDATA_LOAD_INT(x24, x4) # load rs1: x4 = 0xf61aeeaf
    2d88:	000c2203          	lw	x4,0(x24)
    2d8c:	004c0c13          	addi	x24,x24,4

00002d90 <I_xori_cg_cmp_rd_rs1_b4>:
I_xori_cg_cmp_rd_rs1_b4:
  xori x4, x4, 276 # perform operation
    2d90:	11424213          	xori	x4,x4,276
  # Check if x4 contains the expected result. x12 is the signature ptr, x14 is the link ptr, x13 is a temp reg.
  RVTEST_SIGUPD(x12, x14, x13, x4, I_xori_cg_cmp_rd_rs1_b4, I_xori_cg_cmp_rd_rs1_b4_str)
    2d94:	00062683          	lw	x13,0(x12)
    2d98:	00468863          	beq	x13,x4,2da8 <I_xori_cg_cmp_rd_rs1_b4+0x18>
    2d9c:	7600076f          	jal	x14,34fc <failedtest_x14_x13>
    2da0:	00002d90          	.word	0x00002d90
    2da4:	0000e53f          	.word	0x0000e53f
    2da8:	00460613          	addi	x12,x12,4

# Testcase cmp_rd_rs1 (Test rd = rs1 = x5)
  RVTEST_TESTDATA_LOAD_INT(x24, x5) # load rs1: x5 = 0xfee2db2d
    2dac:	000c2283          	lw	x5,0(x24)
    2db0:	004c0c13          	addi	x24,x24,4

00002db4 <I_xori_cg_cmp_rd_rs1_b5>:
I_xori_cg_cmp_rd_rs1_b5:
  xori x5, x5, -767 # perform operation
    2db4:	d012c293          	xori	x5,x5,-767
  # Check if x5 contains the expected result. x12 is the signature ptr, x14 is the link ptr, x13 is a temp reg.
  RVTEST_SIGUPD(x12, x14, x13, x5, I_xori_cg_cmp_rd_rs1_b5, I_xori_cg_cmp_rd_rs1_b5_str)
    2db8:	00062683          	lw	x13,0(x12)
    2dbc:	00568863          	beq	x13,x5,2dcc <I_xori_cg_cmp_rd_rs1_b5+0x18>
    2dc0:	73c0076f          	jal	x14,34fc <failedtest_x14_x13>
    2dc4:	00002db4          	.word	0x00002db4
    2dc8:	0000e573          	.word	0x0000e573
    2dcc:	00460613          	addi	x12,x12,4

# Testcase cmp_rd_rs1 (Test rd = rs1 = x6)
  RVTEST_TESTDATA_LOAD_INT(x24, x6) # load rs1: x6 = 0x942e7de9
    2dd0:	000c2303          	lw	x6,0(x24)
    2dd4:	004c0c13          	addi	x24,x24,4

00002dd8 <I_xori_cg_cmp_rd_rs1_b6>:
I_xori_cg_cmp_rd_rs1_b6:
  xori x6, x6, 1593 # perform operation
    2dd8:	63934313          	xori	x6,x6,1593
  # Check if x6 contains the expected result. x12 is the signature ptr, x14 is the link ptr, x13 is a temp reg.
  RVTEST_SIGUPD(x12, x14, x13, x6, I_xori_cg_cmp_rd_rs1_b6, I_xori_cg_cmp_rd_rs1_b6_str)
    2ddc:	00062683          	lw	x13,0(x12)
    2de0:	00668863          	beq	x13,x6,2df0 <I_xori_cg_cmp_rd_rs1_b6+0x18>
    2de4:	7180076f          	jal	x14,34fc <failedtest_x14_x13>
    2de8:	00002dd8          	.word	0x00002dd8
    2dec:	0000e5a7          	.word	0x0000e5a7
    2df0:	00460613          	addi	x12,x12,4

# Testcase cmp_rd_rs1 (Test rd = rs1 = x7)
  RVTEST_TESTDATA_LOAD_INT(x24, x7) # load rs1: x7 = 0x4040be76
    2df4:	000c2383          	lw	x7,0(x24)
    2df8:	004c0c13          	addi	x24,x24,4

00002dfc <I_xori_cg_cmp_rd_rs1_b7>:
I_xori_cg_cmp_rd_rs1_b7:
  xori x7, x7, 1147 # perform operation
    2dfc:	47b3c393          	xori	x7,x7,1147
  # Check if x7 contains the expected result. x12 is the signature ptr, x14 is the link ptr, x13 is a temp reg.
  RVTEST_SIGUPD(x12, x14, x13, x7, I_xori_cg_cmp_rd_rs1_b7, I_xori_cg_cmp_rd_rs1_b7_str)
    2e00:	00062683          	lw	x13,0(x12)
    2e04:	00768863          	beq	x13,x7,2e14 <I_xori_cg_cmp_rd_rs1_b7+0x18>
    2e08:	6f40076f          	jal	x14,34fc <failedtest_x14_x13>
    2e0c:	00002dfc          	.word	0x00002dfc
    2e10:	0000e5db          	.word	0x0000e5db
    2e14:	00460613          	addi	x12,x12,4

# Testcase cmp_rd_rs1 (Test rd = rs1 = x8)
  RVTEST_TESTDATA_LOAD_INT(x24, x8) # load rs1: x8 = 0x58ce8f90
    2e18:	000c2403          	lw	x8,0(x24)
    2e1c:	004c0c13          	addi	x24,x24,4

00002e20 <I_xori_cg_cmp_rd_rs1_b8>:
I_xori_cg_cmp_rd_rs1_b8:
  xori x8, x8, -1458 # perform operation
    2e20:	a4e44413          	xori	x8,x8,-1458
  # Check if x8 contains the expected result. x12 is the signature ptr, x14 is the link ptr, x13 is a temp reg.
  RVTEST_SIGUPD(x12, x14, x13, x8, I_xori_cg_cmp_rd_rs1_b8, I_xori_cg_cmp_rd_rs1_b8_str)
    2e24:	00062683          	lw	x13,0(x12)
    2e28:	00868863          	beq	x13,x8,2e38 <I_xori_cg_cmp_rd_rs1_b8+0x18>
    2e2c:	6d00076f          	jal	x14,34fc <failedtest_x14_x13>
    2e30:	00002e20          	.word	0x00002e20
    2e34:	0000e60f          	.word	0x0000e60f
    2e38:	00460613          	addi	x12,x12,4

# Testcase cmp_rd_rs1 (Test rd = rs1 = x9)
  RVTEST_TESTDATA_LOAD_INT(x24, x9) # load rs1: x9 = 0x52a77d29
    2e3c:	000c2483          	lw	x9,0(x24)
    2e40:	004c0c13          	addi	x24,x24,4

00002e44 <I_xori_cg_cmp_rd_rs1_b9>:
I_xori_cg_cmp_rd_rs1_b9:
  xori x9, x9, 1696 # perform operation
    2e44:	6a04c493          	xori	x9,x9,1696
  # Check if x9 contains the expected result. x12 is the signature ptr, x14 is the link ptr, x13 is a temp reg.
  RVTEST_SIGUPD(x12, x14, x13, x9, I_xori_cg_cmp_rd_rs1_b9, I_xori_cg_cmp_rd_rs1_b9_str)
    2e48:	00062683          	lw	x13,0(x12)
    2e4c:	00968863          	beq	x13,x9,2e5c <I_xori_cg_cmp_rd_rs1_b9+0x18>
    2e50:	6ac0076f          	jal	x14,34fc <failedtest_x14_x13>
    2e54:	00002e44          	.word	0x00002e44
    2e58:	0000e643          	.word	0x0000e643
    2e5c:	00460613          	addi	x12,x12,4

# Testcase cmp_rd_rs1 (Test rd = rs1 = x10)
  RVTEST_TESTDATA_LOAD_INT(x24, x10) # load rs1: x10 = 0x0556cd6d
    2e60:	000c2503          	lw	x10,0(x24)
    2e64:	004c0c13          	addi	x24,x24,4

00002e68 <I_xori_cg_cmp_rd_rs1_b10>:
I_xori_cg_cmp_rd_rs1_b10:
  xori x10, x10, 228 # perform operation
    2e68:	0e454513          	xori	x10,x10,228
  # Check if x10 contains the expected result. x12 is the signature ptr, x14 is the link ptr, x13 is a temp reg.
  RVTEST_SIGUPD(x12, x14, x13, x10, I_xori_cg_cmp_rd_rs1_b10, I_xori_cg_cmp_rd_rs1_b10_str)
    2e6c:	00062683          	lw	x13,0(x12)
    2e70:	00a68863          	beq	x13,x10,2e80 <I_xori_cg_cmp_rd_rs1_b10+0x18>
    2e74:	6880076f          	jal	x14,34fc <failedtest_x14_x13>
    2e78:	00002e68          	.word	0x00002e68
    2e7c:	0000e677          	.word	0x0000e677
    2e80:	00460613          	addi	x12,x12,4

# Testcase cmp_rd_rs1 (Test rd = rs1 = x11)
  RVTEST_TESTDATA_LOAD_INT(x24, x11) # load rs1: x11 = 0x42c067ec
    2e84:	000c2583          	lw	x11,0(x24)
    2e88:	004c0c13          	addi	x24,x24,4

00002e8c <I_xori_cg_cmp_rd_rs1_b11>:
I_xori_cg_cmp_rd_rs1_b11:
  xori x11, x11, 730 # perform operation
    2e8c:	2da5c593          	xori	x11,x11,730
  # Check if x11 contains the expected result. x12 is the signature ptr, x14 is the link ptr, x13 is a temp reg.
  RVTEST_SIGUPD(x12, x14, x13, x11, I_xori_cg_cmp_rd_rs1_b11, I_xori_cg_cmp_rd_rs1_b11_str)
    2e90:	00062683          	lw	x13,0(x12)
    2e94:	00b68863          	beq	x13,x11,2ea4 <I_xori_cg_cmp_rd_rs1_b11+0x18>
    2e98:	6640076f          	jal	x14,34fc <failedtest_x14_x13>
    2e9c:	00002e8c          	.word	0x00002e8c
    2ea0:	0000e6ac          	.word	0x0000e6ac
    2ea4:	00460613          	addi	x12,x12,4

  mv x17, x12 # switch signature pointer register to avoid conflict with test
    2ea8:	00060893          	addi	x17,x12,0
# Testcase cmp_rd_rs1 (Test rd = rs1 = x12)
  RVTEST_TESTDATA_LOAD_INT(x24, x12) # load rs1: x12 = 0xba25f653
    2eac:	000c2603          	lw	x12,0(x24)
    2eb0:	004c0c13          	addi	x24,x24,4

00002eb4 <I_xori_cg_cmp_rd_rs1_b12>:
I_xori_cg_cmp_rd_rs1_b12:
  xori x12, x12, 1559 # perform operation
    2eb4:	61764613          	xori	x12,x12,1559
  # Check if x12 contains the expected result. x17 is the signature ptr, x14 is the link ptr, x13 is a temp reg.
  RVTEST_SIGUPD(x17, x14, x13, x12, I_xori_cg_cmp_rd_rs1_b12, I_xori_cg_cmp_rd_rs1_b12_str)
    2eb8:	0008a683          	lw	x13,0(x17)
    2ebc:	00c68863          	beq	x13,x12,2ecc <I_xori_cg_cmp_rd_rs1_b12+0x18>
    2ec0:	63c0076f          	jal	x14,34fc <failedtest_x14_x13>
    2ec4:	00002eb4          	.word	0x00002eb4
    2ec8:	0000e6e1          	.word	0x0000e6e1
    2ecc:	00488893          	addi	x17,x17,4

  mv x4, x13 # switch temp register to avoid conflict with test
    2ed0:	00068213          	addi	x4,x13,0
  mv x5, x14 # switch link pointer register to avoid conflict with test
    2ed4:	00070293          	addi	x5,x14,0
# Testcase cmp_rd_rs1 (Test rd = rs1 = x13)
  RVTEST_TESTDATA_LOAD_INT(x24, x13) # load rs1: x13 = 0x2c57e129
    2ed8:	000c2683          	lw	x13,0(x24)
    2edc:	004c0c13          	addi	x24,x24,4

00002ee0 <I_xori_cg_cmp_rd_rs1_b13>:
I_xori_cg_cmp_rd_rs1_b13:
  xori x13, x13, -80 # perform operation
    2ee0:	fb06c693          	xori	x13,x13,-80
  # Check if x13 contains the expected result. x17 is the signature ptr, x5 is the link ptr, x4 is a temp reg.
  RVTEST_SIGUPD(x17, x5, x4, x13, I_xori_cg_cmp_rd_rs1_b13, I_xori_cg_cmp_rd_rs1_b13_str)
    2ee4:	0008a203          	lw	x4,0(x17)
    2ee8:	00d20863          	beq	x4,x13,2ef8 <I_xori_cg_cmp_rd_rs1_b13+0x18>
    2eec:	5d0002ef          	jal	x5,34bc <failedtest_x5_x4>
    2ef0:	00002ee0          	.word	0x00002ee0
    2ef4:	0000e716          	.word	0x0000e716
    2ef8:	00488893          	addi	x17,x17,4

# Testcase cmp_rd_rs1 (Test rd = rs1 = x14)
  RVTEST_TESTDATA_LOAD_INT(x24, x14) # load rs1: x14 = 0x57df9728
    2efc:	000c2703          	lw	x14,0(x24)
    2f00:	004c0c13          	addi	x24,x24,4

00002f04 <I_xori_cg_cmp_rd_rs1_b14>:
I_xori_cg_cmp_rd_rs1_b14:
  xori x14, x14, 345 # perform operation
    2f04:	15974713          	xori	x14,x14,345
  # Check if x14 contains the expected result. x17 is the signature ptr, x5 is the link ptr, x4 is a temp reg.
  RVTEST_SIGUPD(x17, x5, x4, x14, I_xori_cg_cmp_rd_rs1_b14, I_xori_cg_cmp_rd_rs1_b14_str)
    2f08:	0008a203          	lw	x4,0(x17)
    2f0c:	00e20863          	beq	x4,x14,2f1c <I_xori_cg_cmp_rd_rs1_b14+0x18>
    2f10:	5ac002ef          	jal	x5,34bc <failedtest_x5_x4>
    2f14:	00002f04          	.word	0x00002f04
    2f18:	0000e74b          	.word	0x0000e74b
    2f1c:	00488893          	addi	x17,x17,4

# Testcase cmp_rd_rs1 (Test rd = rs1 = x15)
  RVTEST_TESTDATA_LOAD_INT(x24, x15) # load rs1: x15 = 0xca4d5627
    2f20:	000c2783          	lw	x15,0(x24)
    2f24:	004c0c13          	addi	x24,x24,4

00002f28 <I_xori_cg_cmp_rd_rs1_b15>:
I_xori_cg_cmp_rd_rs1_b15:
  xori x15, x15, -1812 # perform operation
    2f28:	8ec7c793          	xori	x15,x15,-1812
  # Check if x15 contains the expected result. x17 is the signature ptr, x5 is the link ptr, x4 is a temp reg.
  RVTEST_SIGUPD(x17, x5, x4, x15, I_xori_cg_cmp_rd_rs1_b15, I_xori_cg_cmp_rd_rs1_b15_str)
    2f2c:	0008a203          	lw	x4,0(x17)
    2f30:	00f20863          	beq	x4,x15,2f40 <I_xori_cg_cmp_rd_rs1_b15+0x18>
    2f34:	588002ef          	jal	x5,34bc <failedtest_x5_x4>
    2f38:	00002f28          	.word	0x00002f28
    2f3c:	0000e780          	.word	0x0000e780
    2f40:	00488893          	addi	x17,x17,4

# Testcase cmp_rd_rs1 (Test rd = rs1 = x16)
  RVTEST_TESTDATA_LOAD_INT(x24, x16) # load rs1: x16 = 0x55c11afb
    2f44:	000c2803          	lw	x16,0(x24)
    2f48:	004c0c13          	addi	x24,x24,4

00002f4c <I_xori_cg_cmp_rd_rs1_b16>:
I_xori_cg_cmp_rd_rs1_b16:
  xori x16, x16, -259 # perform operation
    2f4c:	efd84813          	xori	x16,x16,-259
  # Check if x16 contains the expected result. x17 is the signature ptr, x5 is the link ptr, x4 is a temp reg.
  RVTEST_SIGUPD(x17, x5, x4, x16, I_xori_cg_cmp_rd_rs1_b16, I_xori_cg_cmp_rd_rs1_b16_str)
    2f50:	0008a203          	lw	x4,0(x17)
    2f54:	01020863          	beq	x4,x16,2f64 <I_xori_cg_cmp_rd_rs1_b16+0x18>
    2f58:	564002ef          	jal	x5,34bc <failedtest_x5_x4>
    2f5c:	00002f4c          	.word	0x00002f4c
    2f60:	0000e7b5          	.word	0x0000e7b5
    2f64:	00488893          	addi	x17,x17,4

  mv x19, x17 # switch signature pointer register to avoid conflict with test
    2f68:	00088993          	addi	x19,x17,0
# Testcase cmp_rd_rs1 (Test rd = rs1 = x17)
  RVTEST_TESTDATA_LOAD_INT(x24, x17) # load rs1: x17 = 0x378ccea6
    2f6c:	000c2883          	lw	x17,0(x24)
    2f70:	004c0c13          	addi	x24,x24,4

00002f74 <I_xori_cg_cmp_rd_rs1_b17>:
I_xori_cg_cmp_rd_rs1_b17:
  xori x17, x17, 130 # perform operation
    2f74:	0828c893          	xori	x17,x17,130
  # Check if x17 contains the expected result. x19 is the signature ptr, x5 is the link ptr, x4 is a temp reg.
  RVTEST_SIGUPD(x19, x5, x4, x17, I_xori_cg_cmp_rd_rs1_b17, I_xori_cg_cmp_rd_rs1_b17_str)
    2f78:	0009a203          	lw	x4,0(x19)
    2f7c:	01120863          	beq	x4,x17,2f8c <I_xori_cg_cmp_rd_rs1_b17+0x18>
    2f80:	53c002ef          	jal	x5,34bc <failedtest_x5_x4>
    2f84:	00002f74          	.word	0x00002f74
    2f88:	0000e7ea          	.word	0x0000e7ea
    2f8c:	00498993          	addi	x19,x19,4

# Testcase cmp_rd_rs1 (Test rd = rs1 = x18)
  RVTEST_TESTDATA_LOAD_INT(x24, x18) # load rs1: x18 = 0x177562eb
    2f90:	000c2903          	lw	x18,0(x24)
    2f94:	004c0c13          	addi	x24,x24,4

00002f98 <I_xori_cg_cmp_rd_rs1_b18>:
I_xori_cg_cmp_rd_rs1_b18:
  xori x18, x18, -1672 # perform operation
    2f98:	97894913          	xori	x18,x18,-1672
  # Check if x18 contains the expected result. x19 is the signature ptr, x5 is the link ptr, x4 is a temp reg.
  RVTEST_SIGUPD(x19, x5, x4, x18, I_xori_cg_cmp_rd_rs1_b18, I_xori_cg_cmp_rd_rs1_b18_str)
    2f9c:	0009a203          	lw	x4,0(x19)
    2fa0:	01220863          	beq	x4,x18,2fb0 <I_xori_cg_cmp_rd_rs1_b18+0x18>
    2fa4:	518002ef          	jal	x5,34bc <failedtest_x5_x4>
    2fa8:	00002f98          	.word	0x00002f98
    2fac:	0000e81f          	.word	0x0000e81f
    2fb0:	00498993          	addi	x19,x19,4

  mv x26, x19 # switch signature pointer register to avoid conflict with test
    2fb4:	00098d13          	addi	x26,x19,0
# Testcase cmp_rd_rs1 (Test rd = rs1 = x19)
  RVTEST_TESTDATA_LOAD_INT(x24, x19) # load rs1: x19 = 0x21d6e2f5
    2fb8:	000c2983          	lw	x19,0(x24)
    2fbc:	004c0c13          	addi	x24,x24,4

00002fc0 <I_xori_cg_cmp_rd_rs1_b19>:
I_xori_cg_cmp_rd_rs1_b19:
  xori x19, x19, 527 # perform operation
    2fc0:	20f9c993          	xori	x19,x19,527
  # Check if x19 contains the expected result. x26 is the signature ptr, x5 is the link ptr, x4 is a temp reg.
  RVTEST_SIGUPD(x26, x5, x4, x19, I_xori_cg_cmp_rd_rs1_b19, I_xori_cg_cmp_rd_rs1_b19_str)
    2fc4:	000d2203          	lw	x4,0(x26)
    2fc8:	01320863          	beq	x4,x19,2fd8 <I_xori_cg_cmp_rd_rs1_b19+0x18>
    2fcc:	4f0002ef          	jal	x5,34bc <failedtest_x5_x4>
    2fd0:	00002fc0          	.word	0x00002fc0
    2fd4:	0000e854          	.word	0x0000e854
    2fd8:	004d0d13          	addi	x26,x26,4

# Testcase cmp_rd_rs1 (Test rd = rs1 = x20)
  RVTEST_TESTDATA_LOAD_INT(x24, x20) # load rs1: x20 = 0x7c4881a6
    2fdc:	000c2a03          	lw	x20,0(x24)
    2fe0:	004c0c13          	addi	x24,x24,4

00002fe4 <I_xori_cg_cmp_rd_rs1_b20>:
I_xori_cg_cmp_rd_rs1_b20:
  xori x20, x20, -923 # perform operation
    2fe4:	c65a4a13          	xori	x20,x20,-923
  # Check if x20 contains the expected result. x26 is the signature ptr, x5 is the link ptr, x4 is a temp reg.
  RVTEST_SIGUPD(x26, x5, x4, x20, I_xori_cg_cmp_rd_rs1_b20, I_xori_cg_cmp_rd_rs1_b20_str)
    2fe8:	000d2203          	lw	x4,0(x26)
    2fec:	01420863          	beq	x4,x20,2ffc <I_xori_cg_cmp_rd_rs1_b20+0x18>
    2ff0:	4cc002ef          	jal	x5,34bc <failedtest_x5_x4>
    2ff4:	00002fe4          	.word	0x00002fe4
    2ff8:	0000e889          	.word	0x0000e889
    2ffc:	004d0d13          	addi	x26,x26,4

# Testcase cmp_rd_rs1 (Test rd = rs1 = x21)
  RVTEST_TESTDATA_LOAD_INT(x24, x21) # load rs1: x21 = 0x6347efa6
    3000:	000c2a83          	lw	x21,0(x24)
    3004:	004c0c13          	addi	x24,x24,4

00003008 <I_xori_cg_cmp_rd_rs1_b21>:
I_xori_cg_cmp_rd_rs1_b21:
  xori x21, x21, -1457 # perform operation
    3008:	a4faca93          	xori	x21,x21,-1457
  # Check if x21 contains the expected result. x26 is the signature ptr, x5 is the link ptr, x4 is a temp reg.
  RVTEST_SIGUPD(x26, x5, x4, x21, I_xori_cg_cmp_rd_rs1_b21, I_xori_cg_cmp_rd_rs1_b21_str)
    300c:	000d2203          	lw	x4,0(x26)
    3010:	01520863          	beq	x4,x21,3020 <I_xori_cg_cmp_rd_rs1_b21+0x18>
    3014:	4a8002ef          	jal	x5,34bc <failedtest_x5_x4>
    3018:	00003008          	.word	0x00003008
    301c:	0000e8be          	.word	0x0000e8be
    3020:	004d0d13          	addi	x26,x26,4

# Testcase cmp_rd_rs1 (Test rd = rs1 = x22)
  RVTEST_TESTDATA_LOAD_INT(x24, x22) # load rs1: x22 = 0x0dde63cd
    3024:	000c2b03          	lw	x22,0(x24)
    3028:	004c0c13          	addi	x24,x24,4

0000302c <I_xori_cg_cmp_rd_rs1_b22>:
I_xori_cg_cmp_rd_rs1_b22:
  xori x22, x22, -1873 # perform operation
    302c:	8afb4b13          	xori	x22,x22,-1873
  # Check if x22 contains the expected result. x26 is the signature ptr, x5 is the link ptr, x4 is a temp reg.
  RVTEST_SIGUPD(x26, x5, x4, x22, I_xori_cg_cmp_rd_rs1_b22, I_xori_cg_cmp_rd_rs1_b22_str)
    3030:	000d2203          	lw	x4,0(x26)
    3034:	01620863          	beq	x4,x22,3044 <I_xori_cg_cmp_rd_rs1_b22+0x18>
    3038:	484002ef          	jal	x5,34bc <failedtest_x5_x4>
    303c:	0000302c          	.word	0x0000302c
    3040:	0000e8f3          	.word	0x0000e8f3
    3044:	004d0d13          	addi	x26,x26,4

# Testcase cmp_rd_rs1 (Test rd = rs1 = x23)
  RVTEST_TESTDATA_LOAD_INT(x24, x23) # load rs1: x23 = 0x88976963
    3048:	000c2b83          	lw	x23,0(x24)
    304c:	004c0c13          	addi	x24,x24,4

00003050 <I_xori_cg_cmp_rd_rs1_b23>:
I_xori_cg_cmp_rd_rs1_b23:
  xori x23, x23, 1621 # perform operation
    3050:	655bcb93          	xori	x23,x23,1621
  # Check if x23 contains the expected result. x26 is the signature ptr, x5 is the link ptr, x4 is a temp reg.
  RVTEST_SIGUPD(x26, x5, x4, x23, I_xori_cg_cmp_rd_rs1_b23, I_xori_cg_cmp_rd_rs1_b23_str)
    3054:	000d2203          	lw	x4,0(x26)
    3058:	01720863          	beq	x4,x23,3068 <I_xori_cg_cmp_rd_rs1_b23+0x18>
    305c:	460002ef          	jal	x5,34bc <failedtest_x5_x4>
    3060:	00003050          	.word	0x00003050
    3064:	0000e928          	.word	0x0000e928
    3068:	004d0d13          	addi	x26,x26,4

  mv x28, x24 # switch data pointer register to avoid conflict with test
    306c:	000c0e13          	addi	x28,x24,0
# Testcase cmp_rd_rs1 (Test rd = rs1 = x24)
  RVTEST_TESTDATA_LOAD_INT(x28, x24) # load rs1: x24 = 0x1b1c9daa
    3070:	000e2c03          	lw	x24,0(x28)
    3074:	004e0e13          	addi	x28,x28,4

00003078 <I_xori_cg_cmp_rd_rs1_b24>:
I_xori_cg_cmp_rd_rs1_b24:
  xori x24, x24, -320 # perform operation
    3078:	ec0c4c13          	xori	x24,x24,-320
  # Check if x24 contains the expected result. x26 is the signature ptr, x5 is the link ptr, x4 is a temp reg.
  RVTEST_SIGUPD(x26, x5, x4, x24, I_xori_cg_cmp_rd_rs1_b24, I_xori_cg_cmp_rd_rs1_b24_str)
    307c:	000d2203          	lw	x4,0(x26)
    3080:	01820863          	beq	x4,x24,3090 <I_xori_cg_cmp_rd_rs1_b24+0x18>
    3084:	438002ef          	jal	x5,34bc <failedtest_x5_x4>
    3088:	00003078          	.word	0x00003078
    308c:	0000e95d          	.word	0x0000e95d
    3090:	004d0d13          	addi	x26,x26,4

# Testcase cmp_rd_rs1 (Test rd = rs1 = x25)
  RVTEST_TESTDATA_LOAD_INT(x28, x25) # load rs1: x25 = 0xad073d62
    3094:	000e2c83          	lw	x25,0(x28)
    3098:	004e0e13          	addi	x28,x28,4

0000309c <I_xori_cg_cmp_rd_rs1_b25>:
I_xori_cg_cmp_rd_rs1_b25:
  xori x25, x25, 2004 # perform operation
    309c:	7d4ccc93          	xori	x25,x25,2004
  # Check if x25 contains the expected result. x26 is the signature ptr, x5 is the link ptr, x4 is a temp reg.
  RVTEST_SIGUPD(x26, x5, x4, x25, I_xori_cg_cmp_rd_rs1_b25, I_xori_cg_cmp_rd_rs1_b25_str)
    30a0:	000d2203          	lw	x4,0(x26)
    30a4:	01920863          	beq	x4,x25,30b4 <I_xori_cg_cmp_rd_rs1_b25+0x18>
    30a8:	414002ef          	jal	x5,34bc <failedtest_x5_x4>
    30ac:	0000309c          	.word	0x0000309c
    30b0:	0000e992          	.word	0x0000e992
    30b4:	004d0d13          	addi	x26,x26,4

  mv x1, x26 # switch signature pointer register to avoid conflict with test
    30b8:	000d0093          	addi	x1,x26,0
# Testcase cmp_rd_rs1 (Test rd = rs1 = x26)
  RVTEST_TESTDATA_LOAD_INT(x28, x26) # load rs1: x26 = 0xaf602b15
    30bc:	000e2d03          	lw	x26,0(x28)
    30c0:	004e0e13          	addi	x28,x28,4

000030c4 <I_xori_cg_cmp_rd_rs1_b26>:
I_xori_cg_cmp_rd_rs1_b26:
  xori x26, x26, -833 # perform operation
    30c4:	cbfd4d13          	xori	x26,x26,-833
  # Check if x26 contains the expected result. x1 is the signature ptr, x5 is the link ptr, x4 is a temp reg.
  RVTEST_SIGUPD(x1, x5, x4, x26, I_xori_cg_cmp_rd_rs1_b26, I_xori_cg_cmp_rd_rs1_b26_str)
    30c8:	0000a203          	lw	x4,0(x1)
    30cc:	01a20863          	beq	x4,x26,30dc <I_xori_cg_cmp_rd_rs1_b26+0x18>
    30d0:	3ec002ef          	jal	x5,34bc <failedtest_x5_x4>
    30d4:	000030c4          	.word	0x000030c4
    30d8:	0000e9c7          	.word	0x0000e9c7
    30dc:	00408093          	addi	x1,x1,4

# Testcase cmp_rd_rs1 (Test rd = rs1 = x27)
  RVTEST_TESTDATA_LOAD_INT(x28, x27) # load rs1: x27 = 0x07adb221
    30e0:	000e2d83          	lw	x27,0(x28)
    30e4:	004e0e13          	addi	x28,x28,4

000030e8 <I_xori_cg_cmp_rd_rs1_b27>:
I_xori_cg_cmp_rd_rs1_b27:
  xori x27, x27, -200 # perform operation
    30e8:	f38dcd93          	xori	x27,x27,-200
  # Check if x27 contains the expected result. x1 is the signature ptr, x5 is the link ptr, x4 is a temp reg.
  RVTEST_SIGUPD(x1, x5, x4, x27, I_xori_cg_cmp_rd_rs1_b27, I_xori_cg_cmp_rd_rs1_b27_str)
    30ec:	0000a203          	lw	x4,0(x1)
    30f0:	01b20863          	beq	x4,x27,3100 <I_xori_cg_cmp_rd_rs1_b27+0x18>
    30f4:	3c8002ef          	jal	x5,34bc <failedtest_x5_x4>
    30f8:	000030e8          	.word	0x000030e8
    30fc:	0000e9fc          	.word	0x0000e9fc
    3100:	00408093          	addi	x1,x1,4

  mv x31, x28 # switch data pointer register to avoid conflict with test
    3104:	000e0f93          	addi	x31,x28,0
# Testcase cmp_rd_rs1 (Test rd = rs1 = x28)
  RVTEST_TESTDATA_LOAD_INT(x31, x28) # load rs1: x28 = 0xada8fde0
    3108:	000fae03          	lw	x28,0(x31)
    310c:	004f8f93          	addi	x31,x31,4

00003110 <I_xori_cg_cmp_rd_rs1_b28>:
I_xori_cg_cmp_rd_rs1_b28:
  xori x28, x28, -1933 # perform operation
    3110:	873e4e13          	xori	x28,x28,-1933
  # Check if x28 contains the expected result. x1 is the signature ptr, x5 is the link ptr, x4 is a temp reg.
  RVTEST_SIGUPD(x1, x5, x4, x28, I_xori_cg_cmp_rd_rs1_b28, I_xori_cg_cmp_rd_rs1_b28_str)
    3114:	0000a203          	lw	x4,0(x1)
    3118:	01c20863          	beq	x4,x28,3128 <I_xori_cg_cmp_rd_rs1_b28+0x18>
    311c:	3a0002ef          	jal	x5,34bc <failedtest_x5_x4>
    3120:	00003110          	.word	0x00003110
    3124:	0000ea31          	.word	0x0000ea31
    3128:	00408093          	addi	x1,x1,4

# Testcase cmp_rd_rs1 (Test rd = rs1 = x29)
  RVTEST_TESTDATA_LOAD_INT(x31, x29) # load rs1: x29 = 0x24d43693
    312c:	000fae83          	lw	x29,0(x31)
    3130:	004f8f93          	addi	x31,x31,4

00003134 <I_xori_cg_cmp_rd_rs1_b29>:
I_xori_cg_cmp_rd_rs1_b29:
  xori x29, x29, 883 # perform operation
    3134:	373ece93          	xori	x29,x29,883
  # Check if x29 contains the expected result. x1 is the signature ptr, x5 is the link ptr, x4 is a temp reg.
  RVTEST_SIGUPD(x1, x5, x4, x29, I_xori_cg_cmp_rd_rs1_b29, I_xori_cg_cmp_rd_rs1_b29_str)
    3138:	0000a203          	lw	x4,0(x1)
    313c:	01d20863          	beq	x4,x29,314c <I_xori_cg_cmp_rd_rs1_b29+0x18>
    3140:	37c002ef          	jal	x5,34bc <failedtest_x5_x4>
    3144:	00003134          	.word	0x00003134
    3148:	0000ea66          	.word	0x0000ea66
    314c:	00408093          	addi	x1,x1,4

# Testcase cmp_rd_rs1 (Test rd = rs1 = x30)
  RVTEST_TESTDATA_LOAD_INT(x31, x30) # load rs1: x30 = 0x08bbf1be
    3150:	000faf03          	lw	x30,0(x31)
    3154:	004f8f93          	addi	x31,x31,4

00003158 <I_xori_cg_cmp_rd_rs1_b30>:
I_xori_cg_cmp_rd_rs1_b30:
  xori x30, x30, 673 # perform operation
    3158:	2a1f4f13          	xori	x30,x30,673
  # Check if x30 contains the expected result. x1 is the signature ptr, x5 is the link ptr, x4 is a temp reg.
  RVTEST_SIGUPD(x1, x5, x4, x30, I_xori_cg_cmp_rd_rs1_b30, I_xori_cg_cmp_rd_rs1_b30_str)
    315c:	0000a203          	lw	x4,0(x1)
    3160:	01e20863          	beq	x4,x30,3170 <I_xori_cg_cmp_rd_rs1_b30+0x18>
    3164:	358002ef          	jal	x5,34bc <failedtest_x5_x4>
    3168:	00003158          	.word	0x00003158
    316c:	0000ea9b          	.word	0x0000ea9b
    3170:	00408093          	addi	x1,x1,4

  mv x2, x31 # switch data pointer register to avoid conflict with test
    3174:	000f8113          	addi	x2,x31,0
# Testcase cmp_rd_rs1 (Test rd = rs1 = x31)
  RVTEST_TESTDATA_LOAD_INT(x2, x31) # load rs1: x31 = 0xd0786a95
    3178:	00012f83          	lw	x31,0(x2)
    317c:	00410113          	addi	x2,x2,4

00003180 <I_xori_cg_cmp_rd_rs1_b31>:
I_xori_cg_cmp_rd_rs1_b31:
  xori x31, x31, 42 # perform operation
    3180:	02afcf93          	xori	x31,x31,42
  # Check if x31 contains the expected result. x1 is the signature ptr, x5 is the link ptr, x4 is a temp reg.
  RVTEST_SIGUPD(x1, x5, x4, x31, I_xori_cg_cmp_rd_rs1_b31, I_xori_cg_cmp_rd_rs1_b31_str)
    3184:	0000a203          	lw	x4,0(x1)
    3188:	01f20863          	beq	x4,x31,3198 <I_xori_cg_cmp_rd_rs1_b31+0x18>
    318c:	330002ef          	jal	x5,34bc <failedtest_x5_x4>
    3190:	00003180          	.word	0x00003180
    3194:	0000ead0          	.word	0x0000ead0
    3198:	00408093          	addi	x1,x1,4
/////////////////////////////////
// cp_imm_edges
/////////////////////////////////

# Testcase cp_imm_edges (imm = 0)
  RVTEST_TESTDATA_LOAD_INT(x2, x10) # load rs1: x10 = 0x0aa776a7
    319c:	00012503          	lw	x10,0(x2)
    31a0:	00410113          	addi	x2,x2,4

000031a4 <I_xori_cg_cp_imm_edges_0x0>:
I_xori_cg_cp_imm_edges_0x0:
  xori x28, x10, 0 # perform operation
    31a4:	00054e13          	xori	x28,x10,0
  # Check if x28 contains the expected result. x1 is the signature ptr, x5 is the link ptr, x4 is a temp reg.
  RVTEST_SIGUPD(x1, x5, x4, x28, I_xori_cg_cp_imm_edges_0x0, I_xori_cg_cp_imm_edges_0x0_str)
    31a8:	0000a203          	lw	x4,0(x1)
    31ac:	01c20863          	beq	x4,x28,31bc <I_xori_cg_cp_imm_edges_0x0+0x18>
    31b0:	30c002ef          	jal	x5,34bc <failedtest_x5_x4>
    31b4:	000031a4          	.word	0x000031a4
    31b8:	0000eb05          	.word	0x0000eb05
    31bc:	00408093          	addi	x1,x1,4

# Testcase cp_imm_edges (imm = 1)
  RVTEST_TESTDATA_LOAD_INT(x2, x19) # load rs1: x19 = 0xf643cc07
    31c0:	00012983          	lw	x19,0(x2)
    31c4:	00410113          	addi	x2,x2,4

000031c8 <I_xori_cg_cp_imm_edges_0x1>:
I_xori_cg_cp_imm_edges_0x1:
  xori x26, x19, 1 # perform operation
    31c8:	0019cd13          	xori	x26,x19,1
  # Check if x26 contains the expected result. x1 is the signature ptr, x5 is the link ptr, x4 is a temp reg.
  RVTEST_SIGUPD(x1, x5, x4, x26, I_xori_cg_cp_imm_edges_0x1, I_xori_cg_cp_imm_edges_0x1_str)
    31cc:	0000a203          	lw	x4,0(x1)
    31d0:	01a20863          	beq	x4,x26,31e0 <I_xori_cg_cp_imm_edges_0x1+0x18>
    31d4:	2e8002ef          	jal	x5,34bc <failedtest_x5_x4>
    31d8:	000031c8          	.word	0x000031c8
    31dc:	0000eb3c          	.word	0x0000eb3c
    31e0:	00408093          	addi	x1,x1,4

# Testcase cp_imm_edges (imm = 2)
  RVTEST_TESTDATA_LOAD_INT(x2, x22) # load rs1: x22 = 0x171e173b
    31e4:	00012b03          	lw	x22,0(x2)
    31e8:	00410113          	addi	x2,x2,4

000031ec <I_xori_cg_cp_imm_edges_0x2>:
I_xori_cg_cp_imm_edges_0x2:
  xori x16, x22, 2 # perform operation
    31ec:	002b4813          	xori	x16,x22,2
  # Check if x16 contains the expected result. x1 is the signature ptr, x5 is the link ptr, x4 is a temp reg.
  RVTEST_SIGUPD(x1, x5, x4, x16, I_xori_cg_cp_imm_edges_0x2, I_xori_cg_cp_imm_edges_0x2_str)
    31f0:	0000a203          	lw	x4,0(x1)
    31f4:	01020863          	beq	x4,x16,3204 <I_xori_cg_cp_imm_edges_0x2+0x18>
    31f8:	2c4002ef          	jal	x5,34bc <failedtest_x5_x4>
    31fc:	000031ec          	.word	0x000031ec
    3200:	0000eb73          	.word	0x0000eb73
    3204:	00408093          	addi	x1,x1,4

# Testcase cp_imm_edges (imm = 3)
  RVTEST_TESTDATA_LOAD_INT(x2, x21) # load rs1: x21 = 0xd6e820b3
    3208:	00012a83          	lw	x21,0(x2)
    320c:	00410113          	addi	x2,x2,4

00003210 <I_xori_cg_cp_imm_edges_0x3>:
I_xori_cg_cp_imm_edges_0x3:
  xori x17, x21, 3 # perform operation
    3210:	003ac893          	xori	x17,x21,3
  # Check if x17 contains the expected result. x1 is the signature ptr, x5 is the link ptr, x4 is a temp reg.
  RVTEST_SIGUPD(x1, x5, x4, x17, I_xori_cg_cp_imm_edges_0x3, I_xori_cg_cp_imm_edges_0x3_str)
    3214:	0000a203          	lw	x4,0(x1)
    3218:	01120863          	beq	x4,x17,3228 <I_xori_cg_cp_imm_edges_0x3+0x18>
    321c:	2a0002ef          	jal	x5,34bc <failedtest_x5_x4>
    3220:	00003210          	.word	0x00003210
    3224:	0000ebaa          	.word	0x0000ebaa
    3228:	00408093          	addi	x1,x1,4

# Testcase cp_imm_edges (imm = 4)
  RVTEST_TESTDATA_LOAD_INT(x2, x27) # load rs1: x27 = 0x7b4267c5
    322c:	00012d83          	lw	x27,0(x2)
    3230:	00410113          	addi	x2,x2,4

00003234 <I_xori_cg_cp_imm_edges_0x4>:
I_xori_cg_cp_imm_edges_0x4:
  xori x24, x27, 4 # perform operation
    3234:	004dcc13          	xori	x24,x27,4
  # Check if x24 contains the expected result. x1 is the signature ptr, x5 is the link ptr, x4 is a temp reg.
  RVTEST_SIGUPD(x1, x5, x4, x24, I_xori_cg_cp_imm_edges_0x4, I_xori_cg_cp_imm_edges_0x4_str)
    3238:	0000a203          	lw	x4,0(x1)
    323c:	01820863          	beq	x4,x24,324c <I_xori_cg_cp_imm_edges_0x4+0x18>
    3240:	27c002ef          	jal	x5,34bc <failedtest_x5_x4>
    3244:	00003234          	.word	0x00003234
    3248:	0000ebe1          	.word	0x0000ebe1
    324c:	00408093          	addi	x1,x1,4

# Testcase cp_imm_edges (imm = 8)
  RVTEST_TESTDATA_LOAD_INT(x2, x10) # load rs1: x10 = 0x83badcbd
    3250:	00012503          	lw	x10,0(x2)
    3254:	00410113          	addi	x2,x2,4

00003258 <I_xori_cg_cp_imm_edges_0x8>:
I_xori_cg_cp_imm_edges_0x8:
  xori x7, x10, 8 # perform operation
    3258:	00854393          	xori	x7,x10,8
  # Check if x7 contains the expected result. x1 is the signature ptr, x5 is the link ptr, x4 is a temp reg.
  RVTEST_SIGUPD(x1, x5, x4, x7, I_xori_cg_cp_imm_edges_0x8, I_xori_cg_cp_imm_edges_0x8_str)
    325c:	0000a203          	lw	x4,0(x1)
    3260:	00720863          	beq	x4,x7,3270 <I_xori_cg_cp_imm_edges_0x8+0x18>
    3264:	258002ef          	jal	x5,34bc <failedtest_x5_x4>
    3268:	00003258          	.word	0x00003258
    326c:	0000ec18          	.word	0x0000ec18
    3270:	00408093          	addi	x1,x1,4

# Testcase cp_imm_edges (imm = 16)
  RVTEST_TESTDATA_LOAD_INT(x2, x16) # load rs1: x16 = 0x22ca5443
    3274:	00012803          	lw	x16,0(x2)
    3278:	00410113          	addi	x2,x2,4

0000327c <I_xori_cg_cp_imm_edges_0x10>:
I_xori_cg_cp_imm_edges_0x10:
  xori x24, x16, 16 # perform operation
    327c:	01084c13          	xori	x24,x16,16
  # Check if x24 contains the expected result. x1 is the signature ptr, x5 is the link ptr, x4 is a temp reg.
  RVTEST_SIGUPD(x1, x5, x4, x24, I_xori_cg_cp_imm_edges_0x10, I_xori_cg_cp_imm_edges_0x10_str)
    3280:	0000a203          	lw	x4,0(x1)
    3284:	01820863          	beq	x4,x24,3294 <I_xori_cg_cp_imm_edges_0x10+0x18>
    3288:	234002ef          	jal	x5,34bc <failedtest_x5_x4>
    328c:	0000327c          	.word	0x0000327c
    3290:	0000ec4f          	.word	0x0000ec4f
    3294:	00408093          	addi	x1,x1,4

# Testcase cp_imm_edges (imm = 32)
  RVTEST_TESTDATA_LOAD_INT(x2, x28) # load rs1: x28 = 0x0356a174
    3298:	00012e03          	lw	x28,0(x2)
    329c:	00410113          	addi	x2,x2,4

000032a0 <I_xori_cg_cp_imm_edges_0x20>:
I_xori_cg_cp_imm_edges_0x20:
  xori x18, x28, 32 # perform operation
    32a0:	020e4913          	xori	x18,x28,32
  # Check if x18 contains the expected result. x1 is the signature ptr, x5 is the link ptr, x4 is a temp reg.
  RVTEST_SIGUPD(x1, x5, x4, x18, I_xori_cg_cp_imm_edges_0x20, I_xori_cg_cp_imm_edges_0x20_str)
    32a4:	0000a203          	lw	x4,0(x1)
    32a8:	01220863          	beq	x4,x18,32b8 <I_xori_cg_cp_imm_edges_0x20+0x18>
    32ac:	210002ef          	jal	x5,34bc <failedtest_x5_x4>
    32b0:	000032a0          	.word	0x000032a0
    32b4:	0000ec87          	.word	0x0000ec87
    32b8:	00408093          	addi	x1,x1,4

# Testcase cp_imm_edges (imm = 64)
  RVTEST_TESTDATA_LOAD_INT(x2, x26) # load rs1: x26 = 0xd3da036a
    32bc:	00012d03          	lw	x26,0(x2)
    32c0:	00410113          	addi	x2,x2,4

000032c4 <I_xori_cg_cp_imm_edges_0x40>:
I_xori_cg_cp_imm_edges_0x40:
  xori x7, x26, 64 # perform operation
    32c4:	040d4393          	xori	x7,x26,64
  # Check if x7 contains the expected result. x1 is the signature ptr, x5 is the link ptr, x4 is a temp reg.
  RVTEST_SIGUPD(x1, x5, x4, x7, I_xori_cg_cp_imm_edges_0x40, I_xori_cg_cp_imm_edges_0x40_str)
    32c8:	0000a203          	lw	x4,0(x1)
    32cc:	00720863          	beq	x4,x7,32dc <I_xori_cg_cp_imm_edges_0x40+0x18>
    32d0:	1ec002ef          	jal	x5,34bc <failedtest_x5_x4>
    32d4:	000032c4          	.word	0x000032c4
    32d8:	0000ecbf          	.word	0x0000ecbf
    32dc:	00408093          	addi	x1,x1,4

# Testcase cp_imm_edges (imm = 128)
  RVTEST_TESTDATA_LOAD_INT(x2, x8) # load rs1: x8 = 0x3b56bcee
    32e0:	00012403          	lw	x8,0(x2)
    32e4:	00410113          	addi	x2,x2,4

000032e8 <I_xori_cg_cp_imm_edges_0x80>:
I_xori_cg_cp_imm_edges_0x80:
  xori x14, x8, 128 # perform operation
    32e8:	08044713          	xori	x14,x8,128
  # Check if x14 contains the expected result. x1 is the signature ptr, x5 is the link ptr, x4 is a temp reg.
  RVTEST_SIGUPD(x1, x5, x4, x14, I_xori_cg_cp_imm_edges_0x80, I_xori_cg_cp_imm_edges_0x80_str)
    32ec:	0000a203          	lw	x4,0(x1)
    32f0:	00e20863          	beq	x4,x14,3300 <I_xori_cg_cp_imm_edges_0x80+0x18>
    32f4:	1c8002ef          	jal	x5,34bc <failedtest_x5_x4>
    32f8:	000032e8          	.word	0x000032e8
    32fc:	0000ecf7          	.word	0x0000ecf7
    3300:	00408093          	addi	x1,x1,4

# Testcase cp_imm_edges (imm = 256)
  RVTEST_TESTDATA_LOAD_INT(x2, x24) # load rs1: x24 = 0x040c27f4
    3304:	00012c03          	lw	x24,0(x2)
    3308:	00410113          	addi	x2,x2,4

0000330c <I_xori_cg_cp_imm_edges_0x100>:
I_xori_cg_cp_imm_edges_0x100:
  xori x12, x24, 256 # perform operation
    330c:	100c4613          	xori	x12,x24,256
  # Check if x12 contains the expected result. x1 is the signature ptr, x5 is the link ptr, x4 is a temp reg.
  RVTEST_SIGUPD(x1, x5, x4, x12, I_xori_cg_cp_imm_edges_0x100, I_xori_cg_cp_imm_edges_0x100_str)
    3310:	0000a203          	lw	x4,0(x1)
    3314:	00c20863          	beq	x4,x12,3324 <I_xori_cg_cp_imm_edges_0x100+0x18>
    3318:	1a4002ef          	jal	x5,34bc <failedtest_x5_x4>
    331c:	0000330c          	.word	0x0000330c
    3320:	0000ed2f          	.word	0x0000ed2f
    3324:	00408093          	addi	x1,x1,4

# Testcase cp_imm_edges (imm = 512)
  RVTEST_TESTDATA_LOAD_INT(x2, x20) # load rs1: x20 = 0x8f6266e5
    3328:	00012a03          	lw	x20,0(x2)
    332c:	00410113          	addi	x2,x2,4

00003330 <I_xori_cg_cp_imm_edges_0x200>:
I_xori_cg_cp_imm_edges_0x200:
  xori x16, x20, 512 # perform operation
    3330:	200a4813          	xori	x16,x20,512
  # Check if x16 contains the expected result. x1 is the signature ptr, x5 is the link ptr, x4 is a temp reg.
  RVTEST_SIGUPD(x1, x5, x4, x16, I_xori_cg_cp_imm_edges_0x200, I_xori_cg_cp_imm_edges_0x200_str)
    3334:	0000a203          	lw	x4,0(x1)
    3338:	01020863          	beq	x4,x16,3348 <I_xori_cg_cp_imm_edges_0x200+0x18>
    333c:	180002ef          	jal	x5,34bc <failedtest_x5_x4>
    3340:	00003330          	.word	0x00003330
    3344:	0000ed68          	.word	0x0000ed68
    3348:	00408093          	addi	x1,x1,4

# Testcase cp_imm_edges (imm = 1023)
  RVTEST_TESTDATA_LOAD_INT(x2, x15) # load rs1: x15 = 0xb3ab0224
    334c:	00012783          	lw	x15,0(x2)
    3350:	00410113          	addi	x2,x2,4

00003354 <I_xori_cg_cp_imm_edges_0x3ff>:
I_xori_cg_cp_imm_edges_0x3ff:
  xori x21, x15, 1023 # perform operation
    3354:	3ff7ca93          	xori	x21,x15,1023
  # Check if x21 contains the expected result. x1 is the signature ptr, x5 is the link ptr, x4 is a temp reg.
  RVTEST_SIGUPD(x1, x5, x4, x21, I_xori_cg_cp_imm_edges_0x3ff, I_xori_cg_cp_imm_edges_0x3ff_str)
    3358:	0000a203          	lw	x4,0(x1)
    335c:	01520863          	beq	x4,x21,336c <I_xori_cg_cp_imm_edges_0x3ff+0x18>
    3360:	15c002ef          	jal	x5,34bc <failedtest_x5_x4>
    3364:	00003354          	.word	0x00003354
    3368:	0000eda1          	.word	0x0000eda1
    336c:	00408093          	addi	x1,x1,4

# Testcase cp_imm_edges (imm = 1024)
  RVTEST_TESTDATA_LOAD_INT(x2, x15) # load rs1: x15 = 0xaffb3b52
    3370:	00012783          	lw	x15,0(x2)
    3374:	00410113          	addi	x2,x2,4

00003378 <I_xori_cg_cp_imm_edges_0x400>:
I_xori_cg_cp_imm_edges_0x400:
  xori x21, x15, 1024 # perform operation
    3378:	4007ca93          	xori	x21,x15,1024
  # Check if x21 contains the expected result. x1 is the signature ptr, x5 is the link ptr, x4 is a temp reg.
  RVTEST_SIGUPD(x1, x5, x4, x21, I_xori_cg_cp_imm_edges_0x400, I_xori_cg_cp_imm_edges_0x400_str)
    337c:	0000a203          	lw	x4,0(x1)
    3380:	01520863          	beq	x4,x21,3390 <I_xori_cg_cp_imm_edges_0x400+0x18>
    3384:	138002ef          	jal	x5,34bc <failedtest_x5_x4>
    3388:	00003378          	.word	0x00003378
    338c:	0000edda          	.word	0x0000edda
    3390:	00408093          	addi	x1,x1,4

# Testcase cp_imm_edges (imm = 1795)
  RVTEST_TESTDATA_LOAD_INT(x2, x14) # load rs1: x14 = 0x6761df82
    3394:	00012703          	lw	x14,0(x2)
    3398:	00410113          	addi	x2,x2,4

0000339c <I_xori_cg_cp_imm_edges_0x703>:
I_xori_cg_cp_imm_edges_0x703:
  xori x12, x14, 1795 # perform operation
    339c:	70374613          	xori	x12,x14,1795
  # Check if x12 contains the expected result. x1 is the signature ptr, x5 is the link ptr, x4 is a temp reg.
  RVTEST_SIGUPD(x1, x5, x4, x12, I_xori_cg_cp_imm_edges_0x703, I_xori_cg_cp_imm_edges_0x703_str)
    33a0:	0000a203          	lw	x4,0(x1)
    33a4:	00c20863          	beq	x4,x12,33b4 <I_xori_cg_cp_imm_edges_0x703+0x18>
    33a8:	114002ef          	jal	x5,34bc <failedtest_x5_x4>
    33ac:	0000339c          	.word	0x0000339c
    33b0:	0000ee13          	.word	0x0000ee13
    33b4:	00408093          	addi	x1,x1,4

# Testcase cp_imm_edges (imm = 2047)
  RVTEST_TESTDATA_LOAD_INT(x2, x13) # load rs1: x13 = 0xe75bfb5f
    33b8:	00012683          	lw	x13,0(x2)
    33bc:	00410113          	addi	x2,x2,4

000033c0 <I_xori_cg_cp_imm_edges_0x7ff>:
I_xori_cg_cp_imm_edges_0x7ff:
  xori x12, x13, 2047 # perform operation
    33c0:	7ff6c613          	xori	x12,x13,2047
  # Check if x12 contains the expected result. x1 is the signature ptr, x5 is the link ptr, x4 is a temp reg.
  RVTEST_SIGUPD(x1, x5, x4, x12, I_xori_cg_cp_imm_edges_0x7ff, I_xori_cg_cp_imm_edges_0x7ff_str)
    33c4:	0000a203          	lw	x4,0(x1)
    33c8:	00c20863          	beq	x4,x12,33d8 <I_xori_cg_cp_imm_edges_0x7ff+0x18>
    33cc:	0f0002ef          	jal	x5,34bc <failedtest_x5_x4>
    33d0:	000033c0          	.word	0x000033c0
    33d4:	0000ee4c          	.word	0x0000ee4c
    33d8:	00408093          	addi	x1,x1,4

# Testcase cp_imm_edges (imm = -2048)
  RVTEST_TESTDATA_LOAD_INT(x2, x8) # load rs1: x8 = 0x5763761d
    33dc:	00012403          	lw	x8,0(x2)
    33e0:	00410113          	addi	x2,x2,4

000033e4 <I_xori_cg_cp_imm_edges_m0x800>:
I_xori_cg_cp_imm_edges_m0x800:
  xori x3, x8, -2048 # perform operation
    33e4:	80044193          	xori	x3,x8,-2048
  # Check if x3 contains the expected result. x1 is the signature ptr, x5 is the link ptr, x4 is a temp reg.
  RVTEST_SIGUPD(x1, x5, x4, x3, I_xori_cg_cp_imm_edges_m0x800, I_xori_cg_cp_imm_edges_m0x800_str)
    33e8:	0000a203          	lw	x4,0(x1)
    33ec:	00320863          	beq	x4,x3,33fc <I_xori_cg_cp_imm_edges_m0x800+0x18>
    33f0:	0cc002ef          	jal	x5,34bc <failedtest_x5_x4>
    33f4:	000033e4          	.word	0x000033e4
    33f8:	0000ee85          	.word	0x0000ee85
    33fc:	00408093          	addi	x1,x1,4

# Testcase cp_imm_edges (imm = -2047)
  RVTEST_TESTDATA_LOAD_INT(x2, x14) # load rs1: x14 = 0xf677a032
    3400:	00012703          	lw	x14,0(x2)
    3404:	00410113          	addi	x2,x2,4

00003408 <I_xori_cg_cp_imm_edges_m0x7ff>:
I_xori_cg_cp_imm_edges_m0x7ff:
  xori x26, x14, -2047 # perform operation
    3408:	80174d13          	xori	x26,x14,-2047
  # Check if x26 contains the expected result. x1 is the signature ptr, x5 is the link ptr, x4 is a temp reg.
  RVTEST_SIGUPD(x1, x5, x4, x26, I_xori_cg_cp_imm_edges_m0x7ff, I_xori_cg_cp_imm_edges_m0x7ff_str)
    340c:	0000a203          	lw	x4,0(x1)
    3410:	01a20863          	beq	x4,x26,3420 <I_xori_cg_cp_imm_edges_m0x7ff+0x18>
    3414:	0a8002ef          	jal	x5,34bc <failedtest_x5_x4>
    3418:	00003408          	.word	0x00003408
    341c:	0000eebf          	.word	0x0000eebf
    3420:	00408093          	addi	x1,x1,4

# Testcase cp_imm_edges (imm = -2)
  RVTEST_TESTDATA_LOAD_INT(x2, x24) # load rs1: x24 = 0x9b02dab8
    3424:	00012c03          	lw	x24,0(x2)
    3428:	00410113          	addi	x2,x2,4

0000342c <I_xori_cg_cp_imm_edges_m0x2>:
I_xori_cg_cp_imm_edges_m0x2:
  xori x11, x24, -2 # perform operation
    342c:	ffec4593          	xori	x11,x24,-2
  # Check if x11 contains the expected result. x1 is the signature ptr, x5 is the link ptr, x4 is a temp reg.
  RVTEST_SIGUPD(x1, x5, x4, x11, I_xori_cg_cp_imm_edges_m0x2, I_xori_cg_cp_imm_edges_m0x2_str)
    3430:	0000a203          	lw	x4,0(x1)
    3434:	00b20863          	beq	x4,x11,3444 <I_xori_cg_cp_imm_edges_m0x2+0x18>
    3438:	084002ef          	jal	x5,34bc <failedtest_x5_x4>
    343c:	0000342c          	.word	0x0000342c
    3440:	0000eef9          	.word	0x0000eef9
    3444:	00408093          	addi	x1,x1,4

# Testcase cp_imm_edges (imm = -1)
  RVTEST_TESTDATA_LOAD_INT(x2, x8) # load rs1: x8 = 0xff519f19
    3448:	00012403          	lw	x8,0(x2)
    344c:	00410113          	addi	x2,x2,4

00003450 <I_xori_cg_cp_imm_edges_m0x1>:
I_xori_cg_cp_imm_edges_m0x1:
  xori x21, x8, -1 # perform operation
    3450:	fff44a93          	xori	x21,x8,-1
  # Check if x21 contains the expected result. x1 is the signature ptr, x5 is the link ptr, x4 is a temp reg.
  RVTEST_SIGUPD(x1, x5, x4, x21, I_xori_cg_cp_imm_edges_m0x1, I_xori_cg_cp_imm_edges_m0x1_str)
    3454:	0000a203          	lw	x4,0(x1)
    3458:	01520863          	beq	x4,x21,3468 <I_xori_cg_cp_imm_edges_m0x1+0x18>
    345c:	060002ef          	jal	x5,34bc <failedtest_x5_x4>
    3460:	00003450          	.word	0x00003450
    3464:	0000ef31          	.word	0x0000ef31
    3468:	00408093          	addi	x1,x1,4

  mv x2, x1 # restore signature pointer to default register for teardown
    346c:	00008113          	addi	x2,x1,0

00003470 <cleanup_epilogs>:
    3470:	00000013          	addi	x0,x0,0
    3474:	00000013          	addi	x0,x0,0
    3478:	00000013          	addi	x0,x0,0
    347c:	00000013          	addi	x0,x0,0

// Instantiate trap handlers and other epilog code, call RVMODEL_HALT at end of test
RVTEST_CODE_END
    3480:	0000c517          	auipc	x10,0xc
    3484:	15450513          	addi	x10,x10,340 # f5d4 <successstr>
    3488:	00000013          	addi	x0,x0,0
    348c:	00000013          	addi	x0,x0,0
    3490:	00000013          	addi	x0,x0,0
    3494:	00000013          	addi	x0,x0,0
    3498:	00000013          	addi	x0,x0,0
    349c:	00000013          	addi	x0,x0,0
    34a0:	0001d097          	auipc	x1,0x1d
    34a4:	d64080e7          	jalr	x1,-668(x1) # 20204 <rvmodel_io_write_str>
    34a8:	0001d097          	auipc	x1,0x1d
    34ac:	d60080e7          	jalr	x1,-672(x1) # 20208 <rvmodel_halt_pass>

000034b0 <abort_test>:
    34b0:	bad0e737          	lui	x14,0xbad0e
    34b4:	ead70713          	addi	x14,x14,-339 # bad0dead <absimm+0x4b743ba4>
    34b8:	fb9ff06f          	jal	x0,3470 <cleanup_epilogs>

000034bc <failedtest_x5_x4>:
    34bc:	0000c217          	auipc	x4,0xc
    34c0:	ab420213          	addi	x4,x4,-1356 # ef70 <begin_failure_scratch>
    34c4:	02522423          	sw	x5,40(x4) # 28 <MMODE_SIG+0x25>
    34c8:	00122423          	sw	x1,8(x4) # 8 <MMODE_SIG+0x5>
    34cc:	00022023          	sw	x0,0(x4) # 0 <rvtest_entry_point>
    34d0:	0b00006f          	jal	x0,3580 <failedtest_saveregs>

000034d4 <failedtest_x8_x7>:
    34d4:	0000c397          	auipc	x7,0xc
    34d8:	a9c38393          	addi	x7,x7,-1380 # ef70 <begin_failure_scratch>
    34dc:	0483a023          	sw	x8,64(x7)
    34e0:	0243a023          	sw	x4,32(x7)
    34e4:	0253a423          	sw	x5,40(x7)
    34e8:	0013a423          	sw	x1,8(x7)
    34ec:	0003a023          	sw	x0,0(x7)
    34f0:	00038213          	addi	x4,x7,0
    34f4:	00040293          	addi	x5,x8,0
    34f8:	0880006f          	jal	x0,3580 <failedtest_saveregs>

000034fc <failedtest_x14_x13>:
    34fc:	0000c697          	auipc	x13,0xc
    3500:	a7468693          	addi	x13,x13,-1420 # ef70 <begin_failure_scratch>
    3504:	06e6a823          	sw	x14,112(x13)
    3508:	0246a023          	sw	x4,32(x13)
    350c:	0256a423          	sw	x5,40(x13)
    3510:	0016a423          	sw	x1,8(x13)
    3514:	0006a023          	sw	x0,0(x13)
    3518:	00068213          	addi	x4,x13,0
    351c:	00070293          	addi	x5,x14,0
    3520:	0600006f          	jal	x0,3580 <failedtest_saveregs>

00003524 <failedtest_trap_x7_x9>:
    3524:	0000c497          	auipc	x9,0xc
    3528:	a4c48493          	addi	x9,x9,-1460 # ef70 <begin_failure_scratch>
    352c:	0674a423          	sw	x7,104(x9)
    3530:	0244a023          	sw	x4,32(x9)
    3534:	0254a423          	sw	x5,40(x9)
    3538:	0014a423          	sw	x1,8(x9)
    353c:	00300093          	addi	x1,x0,3
    3540:	0014a023          	sw	x1,0(x9)
    3544:	00048213          	addi	x4,x9,0
    3548:	00038293          	addi	x5,x7,0
    354c:	342020f3          	csrrs	x1,mcause,x0
    3550:	0000c497          	auipc	x9,0xc
    3554:	b9048493          	addi	x9,x9,-1136 # f0e0 <saved_mcause>
    3558:	0014a023          	sw	x1,0(x9)
    355c:	343020f3          	csrrs	x1,mtval,x0
    3560:	0000c497          	auipc	x9,0xc
    3564:	b8848493          	addi	x9,x9,-1144 # f0e8 <saved_mtval>
    3568:	0014a023          	sw	x1,0(x9)
    356c:	300020f3          	csrrs	x1,mstatus,x0
    3570:	0000c497          	auipc	x9,0xc
    3574:	b8048493          	addi	x9,x9,-1152 # f0f0 <saved_mstatus>
    3578:	0014a023          	sw	x1,0(x9)
    357c:	0040006f          	jal	x0,3580 <failedtest_saveregs>

00003580 <failedtest_saveregs>:
    3580:	00222823          	sw	x2,16(x4) # 10 <MMODE_SIG+0xd>
    3584:	00322c23          	sw	x3,24(x4) # 18 <MMODE_SIG+0x15>
    3588:	02622823          	sw	x6,48(x4) # 30 <MMODE_SIG+0x2d>
    358c:	02722c23          	sw	x7,56(x4) # 38 <MMODE_SIG+0x35>
    3590:	04822023          	sw	x8,64(x4) # 40 <rvtest_code_begin>
    3594:	04922423          	sw	x9,72(x4) # 48 <I_xori_cg_cp_rs1_b0>
    3598:	04a22823          	sw	x10,80(x4) # 50 <I_xori_cg_cp_rs1_b0+0x8>
    359c:	04b22c23          	sw	x11,88(x4) # 58 <I_xori_cg_cp_rs1_b0+0x10>
    35a0:	06c22023          	sw	x12,96(x4) # 60 <I_xori_cg_cp_rs1_b0+0x18>
    35a4:	06d22423          	sw	x13,104(x4) # 68 <I_xori_cg_cp_rs1_b0+0x20>
    35a8:	06e22823          	sw	x14,112(x4) # 70 <I_xori_cg_cp_rs1_b1+0x4>
    35ac:	06f22c23          	sw	x15,120(x4) # 78 <I_xori_cg_cp_rs1_b1+0xc>
    35b0:	09022023          	sw	x16,128(x4) # 80 <I_xori_cg_cp_rs1_b1+0x14>
    35b4:	09122423          	sw	x17,136(x4) # 88 <I_xori_cg_cp_rs1_b1+0x1c>
    35b8:	09222823          	sw	x18,144(x4) # 90 <I_xori_cg_cp_rs1_b1+0x24>
    35bc:	09322c23          	sw	x19,152(x4) # 98 <I_xori_cg_cp_rs1_b2+0x4>
    35c0:	0b422023          	sw	x20,160(x4) # a0 <I_xori_cg_cp_rs1_b2+0xc>
    35c4:	0b522423          	sw	x21,168(x4) # a8 <I_xori_cg_cp_rs1_b2+0x14>
    35c8:	0b622823          	sw	x22,176(x4) # b0 <I_xori_cg_cp_rs1_b2+0x1c>
    35cc:	0b722c23          	sw	x23,184(x4) # b8 <I_xori_cg_cp_rs1_b2+0x24>
    35d0:	0d822023          	sw	x24,192(x4) # c0 <I_xori_cg_cp_rs1_b3+0x4>
    35d4:	0d922423          	sw	x25,200(x4) # c8 <I_xori_cg_cp_rs1_b3+0xc>
    35d8:	0da22823          	sw	x26,208(x4) # d0 <I_xori_cg_cp_rs1_b3+0x14>
    35dc:	0db22c23          	sw	x27,216(x4) # d8 <I_xori_cg_cp_rs1_b3+0x1c>
    35e0:	0fc22023          	sw	x28,224(x4) # e0 <I_xori_cg_cp_rs1_b3+0x24>
    35e4:	0fd22423          	sw	x29,232(x4) # e8 <I_xori_cg_cp_rs1_b4>
    35e8:	0fe22823          	sw	x30,240(x4) # f0 <I_xori_cg_cp_rs1_b4+0x8>
    35ec:	0ff22c23          	sw	x31,248(x4) # f8 <I_xori_cg_cp_rs1_b4+0x10>

000035f0 <failedtest_saveresults>:
    35f0:	0000c497          	auipc	x9,0xc
    35f4:	9804a483          	lw	x9,-1664(x9) # ef70 <begin_failure_scratch>
    35f8:	00300513          	addi	x10,x0,3
    35fc:	06a48863          	beq	x9,x10,366c <failedtest_saveresults_trap>

00003600 <failedtest_saveresults_int>:
    3600:	ffa2d303          	lhu	x6,-6(x5)
    3604:	ff82d383          	lhu	x7,-8(x5)
    3608:	01031313          	slli	x6,x6,0x10
    360c:	00736333          	or	x6,x6,x7
    3610:	00f35393          	srli	x7,x6,0xf
    3614:	01f3f393          	andi	x7,x7,31
    3618:	01435413          	srli	x8,x6,0x14
    361c:	01f47413          	andi	x8,x8,31
    3620:	10822223          	sw	x8,260(x4) # 104 <I_xori_cg_cp_rs1_b4+0x1c>
    3624:	00341313          	slli	x6,x8,0x3
    3628:	00620333          	add	x6,x4,x6
    362c:	00032303          	lw	x6,0(x6)
    3630:	10622823          	sw	x6,272(x4) # 110 <I_xori_cg_cp_rs1_b5+0x4>
    3634:	ff62d303          	lhu	x6,-10(x5)
    3638:	ff42d383          	lhu	x7,-12(x5)
    363c:	01031313          	slli	x6,x6,0x10
    3640:	00736333          	or	x6,x6,x7
    3644:	41435393          	srai	x7,x6,0x14
    3648:	00f35313          	srli	x6,x6,0xf
    364c:	01f37313          	andi	x6,x6,31
    3650:	00331313          	slli	x6,x6,0x3
    3654:	00620333          	add	x6,x4,x6
    3658:	00032303          	lw	x6,0(x6)
    365c:	00730333          	add	x6,x6,x7
    3660:	00032303          	lw	x6,0(x6)
    3664:	10622c23          	sw	x6,280(x4) # 118 <I_xori_cg_cp_rs1_b5+0xc>
    3668:	3d80006f          	jal	x0,3a40 <failedtest_saveresults_common>

0000366c <failedtest_saveresults_trap>:
    366c:	0042a303          	lw	x6,4(x5)
    3670:	0000c817          	auipc	x16,0xc
    3674:	a5880813          	addi	x16,x16,-1448 # f0c8 <trap_diag_fail_str_ptr>
    3678:	00682023          	sw	x6,0(x16)
    367c:	0002a303          	lw	x6,0(x5)
    3680:	10622423          	sw	x6,264(x4) # 108 <I_xori_cg_cp_rs1_b4+0x20>
    3684:	0000c817          	auipc	x16,0xc
    3688:	a4480813          	addi	x16,x16,-1468 # f0c8 <trap_diag_fail_str_ptr>
    368c:	00082303          	lw	x6,0(x16)
    3690:	0000c397          	auipc	x7,0xc
    3694:	10c38393          	addi	x7,x7,268 # f79c <trap_sig_offset_mismatch>
    3698:	28730463          	beq	x6,x7,3920 <trap_diag_offset_mismatch>
    369c:	00000413          	addi	x8,x0,0
    36a0:	0000c817          	auipc	x16,0xc
    36a4:	a0080813          	addi	x16,x16,-1536 # f0a0 <trap_diag_subtype>
    36a8:	00882023          	sw	x8,0(x16)
    36ac:	0000c397          	auipc	x7,0xc
    36b0:	15438393          	addi	x7,x7,340 # f800 <sv_Mvect_str>
    36b4:	00731863          	bne	x6,x7,36c4 <failedtest_saveresults_trap+0x58>
    36b8:	00100413          	addi	x8,x0,1
    36bc:	00000493          	addi	x9,x0,0
    36c0:	2e00006f          	jal	x0,39a0 <trap_diag_field_identified>
    36c4:	0000c397          	auipc	x7,0xc
    36c8:	23e38393          	addi	x7,x7,574 # f902 <sv_Mcause_str>
    36cc:	00731863          	bne	x6,x7,36dc <failedtest_saveresults_trap+0x70>
    36d0:	00200413          	addi	x8,x0,2
    36d4:	00000493          	addi	x9,x0,0
    36d8:	2c80006f          	jal	x0,39a0 <trap_diag_field_identified>
    36dc:	0000c397          	auipc	x7,0xc
    36e0:	32138393          	addi	x7,x7,801 # f9fd <sv_Mepc_str>
    36e4:	00731863          	bne	x6,x7,36f4 <failedtest_saveresults_trap+0x88>
    36e8:	00300413          	addi	x8,x0,3
    36ec:	00000493          	addi	x9,x0,0
    36f0:	2b00006f          	jal	x0,39a0 <trap_diag_field_identified>
    36f4:	0000c397          	auipc	x7,0xc
    36f8:	3fc38393          	addi	x7,x7,1020 # faf0 <sv_Mtval_str>
    36fc:	00731863          	bne	x6,x7,370c <failedtest_saveresults_trap+0xa0>
    3700:	00400413          	addi	x8,x0,4
    3704:	00000493          	addi	x9,x0,0
    3708:	2980006f          	jal	x0,39a0 <trap_diag_field_identified>
    370c:	0000c397          	auipc	x7,0xc
    3710:	55738393          	addi	x7,x7,1367 # fc63 <sv_Mip_str>
    3714:	00731863          	bne	x6,x7,3724 <failedtest_saveresults_trap+0xb8>
    3718:	00500413          	addi	x8,x0,5
    371c:	00000493          	addi	x9,x0,0
    3720:	2800006f          	jal	x0,39a0 <trap_diag_field_identified>
    3724:	0000c397          	auipc	x7,0xc
    3728:	4c338393          	addi	x7,x7,1219 # fbe7 <sv_Mtval2_str>
    372c:	00731863          	bne	x6,x7,373c <failedtest_saveresults_trap+0xd0>
    3730:	00600413          	addi	x8,x0,6
    3734:	00000493          	addi	x9,x0,0
    3738:	2680006f          	jal	x0,39a0 <trap_diag_field_identified>
    373c:	0000c397          	auipc	x7,0xc
    3740:	4e938393          	addi	x7,x7,1257 # fc25 <sv_Mtinst_str>
    3744:	00731863          	bne	x6,x7,3754 <failedtest_saveresults_trap+0xe8>
    3748:	00700413          	addi	x8,x0,7
    374c:	00000493          	addi	x9,x0,0
    3750:	2500006f          	jal	x0,39a0 <trap_diag_field_identified>
    3754:	0000c397          	auipc	x7,0xc
    3758:	0ec38393          	addi	x7,x7,236 # f840 <sv_Svect_str>
    375c:	00731863          	bne	x6,x7,376c <failedtest_saveresults_trap+0x100>
    3760:	00100413          	addi	x8,x0,1
    3764:	00100493          	addi	x9,x0,1
    3768:	2380006f          	jal	x0,39a0 <trap_diag_field_identified>
    376c:	0000c397          	auipc	x7,0xc
    3770:	1d438393          	addi	x7,x7,468 # f940 <sv_Scause_str>
    3774:	00731863          	bne	x6,x7,3784 <failedtest_saveresults_trap+0x118>
    3778:	00200413          	addi	x8,x0,2
    377c:	00100493          	addi	x9,x0,1
    3780:	2200006f          	jal	x0,39a0 <trap_diag_field_identified>
    3784:	0000c397          	auipc	x7,0xc
    3788:	2b538393          	addi	x7,x7,693 # fa39 <sv_Sepc_str>
    378c:	00731863          	bne	x6,x7,379c <failedtest_saveresults_trap+0x130>
    3790:	00300413          	addi	x8,x0,3
    3794:	00100493          	addi	x9,x0,1
    3798:	2080006f          	jal	x0,39a0 <trap_diag_field_identified>
    379c:	0000c397          	auipc	x7,0xc
    37a0:	39138393          	addi	x7,x7,913 # fb2d <sv_Stval_str>
    37a4:	00731863          	bne	x6,x7,37b4 <failedtest_saveresults_trap+0x148>
    37a8:	00400413          	addi	x8,x0,4
    37ac:	00100493          	addi	x9,x0,1
    37b0:	1f00006f          	jal	x0,39a0 <trap_diag_field_identified>
    37b4:	0000c397          	auipc	x7,0xc
    37b8:	4ea38393          	addi	x7,x7,1258 # fc9e <sv_Sip_str>
    37bc:	00731863          	bne	x6,x7,37cc <failedtest_saveresults_trap+0x160>
    37c0:	00500413          	addi	x8,x0,5
    37c4:	00100493          	addi	x9,x0,1
    37c8:	1d80006f          	jal	x0,39a0 <trap_diag_field_identified>
    37cc:	0000c397          	auipc	x7,0xc
    37d0:	0b438393          	addi	x7,x7,180 # f880 <sv_Hvect_str>
    37d4:	00731863          	bne	x6,x7,37e4 <failedtest_saveresults_trap+0x178>
    37d8:	00100413          	addi	x8,x0,1
    37dc:	00200493          	addi	x9,x0,2
    37e0:	1c00006f          	jal	x0,39a0 <trap_diag_field_identified>
    37e4:	0000c397          	auipc	x7,0xc
    37e8:	19a38393          	addi	x7,x7,410 # f97e <sv_Hcause_str>
    37ec:	00731863          	bne	x6,x7,37fc <failedtest_saveresults_trap+0x190>
    37f0:	00200413          	addi	x8,x0,2
    37f4:	00200493          	addi	x9,x0,2
    37f8:	1a80006f          	jal	x0,39a0 <trap_diag_field_identified>
    37fc:	0000c397          	auipc	x7,0xc
    3800:	27938393          	addi	x7,x7,633 # fa75 <sv_Hepc_str>
    3804:	00731863          	bne	x6,x7,3814 <failedtest_saveresults_trap+0x1a8>
    3808:	00300413          	addi	x8,x0,3
    380c:	00200493          	addi	x9,x0,2
    3810:	1900006f          	jal	x0,39a0 <trap_diag_field_identified>
    3814:	0000c397          	auipc	x7,0xc
    3818:	35638393          	addi	x7,x7,854 # fb6a <sv_Htval_str>
    381c:	00731863          	bne	x6,x7,382c <failedtest_saveresults_trap+0x1c0>
    3820:	00400413          	addi	x8,x0,4
    3824:	00200493          	addi	x9,x0,2
    3828:	1780006f          	jal	x0,39a0 <trap_diag_field_identified>
    382c:	0000c397          	auipc	x7,0xc
    3830:	4ad38393          	addi	x7,x7,1197 # fcd9 <sv_Hip_str>
    3834:	00731863          	bne	x6,x7,3844 <failedtest_saveresults_trap+0x1d8>
    3838:	00500413          	addi	x8,x0,5
    383c:	00200493          	addi	x9,x0,2
    3840:	1600006f          	jal	x0,39a0 <trap_diag_field_identified>
    3844:	0000c397          	auipc	x7,0xc
    3848:	07d38393          	addi	x7,x7,125 # f8c1 <sv_Vvect_str>
    384c:	00731863          	bne	x6,x7,385c <failedtest_saveresults_trap+0x1f0>
    3850:	00100413          	addi	x8,x0,1
    3854:	00300493          	addi	x9,x0,3
    3858:	1480006f          	jal	x0,39a0 <trap_diag_field_identified>
    385c:	0000c397          	auipc	x7,0xc
    3860:	16138393          	addi	x7,x7,353 # f9bd <sv_Vcause_str>
    3864:	00731863          	bne	x6,x7,3874 <failedtest_saveresults_trap+0x208>
    3868:	00200413          	addi	x8,x0,2
    386c:	00300493          	addi	x9,x0,3
    3870:	1300006f          	jal	x0,39a0 <trap_diag_field_identified>
    3874:	0000c397          	auipc	x7,0xc
    3878:	23e38393          	addi	x7,x7,574 # fab2 <sv_Vepc_str>
    387c:	00731863          	bne	x6,x7,388c <failedtest_saveresults_trap+0x220>
    3880:	00300413          	addi	x8,x0,3
    3884:	00300493          	addi	x9,x0,3
    3888:	1180006f          	jal	x0,39a0 <trap_diag_field_identified>
    388c:	0000c397          	auipc	x7,0xc
    3890:	31c38393          	addi	x7,x7,796 # fba8 <sv_Vtval_str>
    3894:	00731863          	bne	x6,x7,38a4 <failedtest_saveresults_trap+0x238>
    3898:	00400413          	addi	x8,x0,4
    389c:	00300493          	addi	x9,x0,3
    38a0:	1000006f          	jal	x0,39a0 <trap_diag_field_identified>
    38a4:	0000c397          	auipc	x7,0xc
    38a8:	47138393          	addi	x7,x7,1137 # fd15 <sv_Vip_str>
    38ac:	00731863          	bne	x6,x7,38bc <failedtest_saveresults_trap+0x250>
    38b0:	00500413          	addi	x8,x0,5
    38b4:	00300493          	addi	x9,x0,3
    38b8:	0e80006f          	jal	x0,39a0 <trap_diag_field_identified>
    38bc:	0000c397          	auipc	x7,0xc
    38c0:	49638393          	addi	x7,x7,1174 # fd52 <Mclr_Mext_int_str>
    38c4:	00731863          	bne	x6,x7,38d4 <failedtest_saveresults_trap+0x268>
    38c8:	00800413          	addi	x8,x0,8
    38cc:	00000493          	addi	x9,x0,0
    38d0:	0d00006f          	jal	x0,39a0 <trap_diag_field_identified>
    38d4:	0000c397          	auipc	x7,0xc
    38d8:	4cd38393          	addi	x7,x7,1229 # fda1 <Mclr_Sext_int_str>
    38dc:	00731863          	bne	x6,x7,38ec <failedtest_saveresults_trap+0x280>
    38e0:	00800413          	addi	x8,x0,8
    38e4:	00000493          	addi	x9,x0,0
    38e8:	0b80006f          	jal	x0,39a0 <trap_diag_field_identified>
    38ec:	0000c397          	auipc	x7,0xc
    38f0:	5b038393          	addi	x7,x7,1456 # fe9c <Sclr_Sext_int_str>
    38f4:	00731863          	bne	x6,x7,3904 <failedtest_saveresults_trap+0x298>
    38f8:	00800413          	addi	x8,x0,8
    38fc:	00100493          	addi	x9,x0,1
    3900:	0a00006f          	jal	x0,39a0 <trap_diag_field_identified>
    3904:	0000c397          	auipc	x7,0xc
    3908:	69438393          	addi	x7,x7,1684 # ff98 <Hclr_Sext_int_str>
    390c:	00731863          	bne	x6,x7,391c <failedtest_saveresults_trap+0x2b0>
    3910:	00800413          	addi	x8,x0,8
    3914:	00200493          	addi	x9,x0,2
    3918:	0880006f          	jal	x0,39a0 <trap_diag_field_identified>
    391c:	1140006f          	jal	x0,3a30 <trap_diag_generic_report>

00003920 <trap_diag_offset_mismatch>:
    3920:	00900413          	addi	x8,x0,9
    3924:	0000b817          	auipc	x16,0xb
    3928:	77c80813          	addi	x16,x16,1916 # f0a0 <trap_diag_subtype>
    392c:	00882023          	sw	x8,0(x16)
    3930:	ffa2d303          	lhu	x6,-6(x5)
    3934:	ff82d383          	lhu	x7,-8(x5)
    3938:	01031313          	slli	x6,x6,0x10
    393c:	00736333          	or	x6,x6,x7
    3940:	01435413          	srli	x8,x6,0x14
    3944:	01f47413          	andi	x8,x8,31
    3948:	00341313          	slli	x6,x8,0x3
    394c:	00620333          	add	x6,x4,x6
    3950:	00032303          	lw	x6,0(x6)
    3954:	0000b817          	auipc	x16,0xb
    3958:	76480813          	addi	x16,x16,1892 # f0b8 <trap_diag_actual_offset>
    395c:	00682023          	sw	x6,0(x16)
    3960:	ff62d303          	lhu	x6,-10(x5)
    3964:	ff42d383          	lhu	x7,-12(x5)
    3968:	01031313          	slli	x6,x6,0x10
    396c:	00736333          	or	x6,x6,x7
    3970:	41435393          	srai	x7,x6,0x14
    3974:	00f35313          	srli	x6,x6,0xf
    3978:	01f37313          	andi	x6,x6,31
    397c:	00331313          	slli	x6,x6,0x3
    3980:	00620333          	add	x6,x4,x6
    3984:	00032303          	lw	x6,0(x6)
    3988:	00730333          	add	x6,x6,x7
    398c:	00032303          	lw	x6,0(x6)
    3990:	0000b817          	auipc	x16,0xb
    3994:	73080813          	addi	x16,x16,1840 # f0c0 <trap_diag_expected_offset>
    3998:	00682023          	sw	x6,0(x16)
    399c:	0a40006f          	jal	x0,3a40 <failedtest_saveresults_common>

000039a0 <trap_diag_field_identified>:
    39a0:	0000b817          	auipc	x16,0xb
    39a4:	70080813          	addi	x16,x16,1792 # f0a0 <trap_diag_subtype>
    39a8:	00882023          	sw	x8,0(x16)
    39ac:	0000b817          	auipc	x16,0xb
    39b0:	6f880813          	addi	x16,x16,1784 # f0a4 <trap_diag_mode>
    39b4:	00982023          	sw	x9,0(x16)
    39b8:	ffa2d303          	lhu	x6,-6(x5)
    39bc:	ff82d383          	lhu	x7,-8(x5)
    39c0:	01031313          	slli	x6,x6,0x10
    39c4:	00736333          	or	x6,x6,x7
    39c8:	01435713          	srli	x14,x6,0x14
    39cc:	01f77713          	andi	x14,x14,31
    39d0:	00371313          	slli	x6,x14,0x3
    39d4:	00620333          	add	x6,x4,x6
    39d8:	00032303          	lw	x6,0(x6)
    39dc:	10622823          	sw	x6,272(x4) # 110 <I_xori_cg_cp_rs1_b5+0x4>
    39e0:	0000b817          	auipc	x16,0xb
    39e4:	6c880813          	addi	x16,x16,1736 # f0a8 <trap_diag_actual_value>
    39e8:	00682023          	sw	x6,0(x16)
    39ec:	ff62d303          	lhu	x6,-10(x5)
    39f0:	ff42d383          	lhu	x7,-12(x5)
    39f4:	01031313          	slli	x6,x6,0x10
    39f8:	00736333          	or	x6,x6,x7
    39fc:	41435393          	srai	x7,x6,0x14
    3a00:	00f35313          	srli	x6,x6,0xf
    3a04:	01f37313          	andi	x6,x6,31
    3a08:	00331313          	slli	x6,x6,0x3
    3a0c:	00620333          	add	x6,x4,x6
    3a10:	00032303          	lw	x6,0(x6)
    3a14:	00730333          	add	x6,x6,x7
    3a18:	00032303          	lw	x6,0(x6)
    3a1c:	10622c23          	sw	x6,280(x4) # 118 <I_xori_cg_cp_rs1_b5+0xc>
    3a20:	0000b817          	auipc	x16,0xb
    3a24:	69080813          	addi	x16,x16,1680 # f0b0 <trap_diag_expected_value>
    3a28:	00682023          	sw	x6,0(x16)
    3a2c:	0140006f          	jal	x0,3a40 <failedtest_saveresults_common>

00003a30 <trap_diag_generic_report>:
    3a30:	0000b817          	auipc	x16,0xb
    3a34:	67080813          	addi	x16,x16,1648 # f0a0 <trap_diag_subtype>
    3a38:	00082023          	sw	x0,0(x16)
    3a3c:	0040006f          	jal	x0,3a40 <failedtest_saveresults_common>

00003a40 <failedtest_saveresults_common>:
    3a40:	0002a303          	lw	x6,0(x5)
    3a44:	10622423          	sw	x6,264(x4) # 108 <I_xori_cg_cp_rs1_b4+0x20>
    3a48:	00035383          	lhu	x7,0(x6)
    3a4c:	0033f413          	andi	x8,x7,3
    3a50:	00300493          	addi	x9,x0,3
    3a54:	00941863          	bne	x8,x9,3a64 <failedtest_saveresults_common+0x24>
    3a58:	00235403          	lhu	x8,2(x6)
    3a5c:	01041413          	slli	x8,x8,0x10
    3a60:	0083e3b3          	or	x7,x7,x8
    3a64:	10722023          	sw	x7,256(x4) # 100 <I_xori_cg_cp_rs1_b4+0x18>
    3a68:	0042a303          	lw	x6,4(x5)
    3a6c:	12622023          	sw	x6,288(x4) # 120 <I_xori_cg_cp_rs1_b5+0x14>

00003a70 <failedtest_report>:
    3a70:	00000013          	addi	x0,x0,0
    3a74:	00000013          	addi	x0,x0,0
    3a78:	00000013          	addi	x0,x0,0
    3a7c:	00000013          	addi	x0,x0,0
    3a80:	0000c517          	auipc	x10,0xc
    3a84:	b8b50513          	addi	x10,x10,-1141 # f60b <failstr>
    3a88:	00000013          	addi	x0,x0,0
    3a8c:	00000013          	addi	x0,x0,0
    3a90:	00000013          	addi	x0,x0,0
    3a94:	00000013          	addi	x0,x0,0
    3a98:	00000013          	addi	x0,x0,0
    3a9c:	00000013          	addi	x0,x0,0
    3aa0:	0001c097          	auipc	x1,0x1c
    3aa4:	764080e7          	jalr	x1,1892(x1) # 20204 <rvmodel_io_write_str>

00003aa8 <print_testnamestr>:
    3aa8:	00000013          	addi	x0,x0,0
    3aac:	00000013          	addi	x0,x0,0
    3ab0:	00000013          	addi	x0,x0,0
    3ab4:	00000013          	addi	x0,x0,0
    3ab8:	00000013          	addi	x0,x0,0
    3abc:	00000013          	addi	x0,x0,0
    3ac0:	0000c517          	auipc	x10,0xc
    3ac4:	bdf50513          	addi	x10,x10,-1057 # f69f <testnamestr>
    3ac8:	00000013          	addi	x0,x0,0
    3acc:	00000013          	addi	x0,x0,0
    3ad0:	00000013          	addi	x0,x0,0
    3ad4:	00000013          	addi	x0,x0,0
    3ad8:	00000013          	addi	x0,x0,0
    3adc:	00000013          	addi	x0,x0,0
    3ae0:	0001c097          	auipc	x1,0x1c
    3ae4:	724080e7          	jalr	x1,1828(x1) # 20204 <rvmodel_io_write_str>

00003ae8 <print_failure_test_name_str>:
    3ae8:	0000b517          	auipc	x10,0xb
    3aec:	5a852503          	lw	x10,1448(x10) # f090 <failure_string_ptr>
    3af0:	0001c097          	auipc	x1,0x1c
    3af4:	714080e7          	jalr	x1,1812(x1) # 20204 <rvmodel_io_write_str>

00003af8 <print_newline_str>:
    3af8:	00000013          	addi	x0,x0,0
    3afc:	00000013          	addi	x0,x0,0
    3b00:	0000c517          	auipc	x10,0xc
    3b04:	bb150513          	addi	x10,x10,-1103 # f6b1 <newlinestr>
    3b08:	00000013          	addi	x0,x0,0
    3b0c:	00000013          	addi	x0,x0,0
    3b10:	00000013          	addi	x0,x0,0
    3b14:	00000013          	addi	x0,x0,0
    3b18:	00000013          	addi	x0,x0,0
    3b1c:	00000013          	addi	x0,x0,0
    3b20:	0001c097          	auipc	x1,0x1c
    3b24:	6e4080e7          	jalr	x1,1764(x1) # 20204 <rvmodel_io_write_str>
    3b28:	0000b517          	auipc	x10,0xb
    3b2c:	44852503          	lw	x10,1096(x10) # ef70 <begin_failure_scratch>
    3b30:	00300593          	addi	x11,x0,3
    3b34:	3eb50c63          	beq	x10,x11,3f2c <failedtest_report_trap_detailed>
    3b38:	00000013          	addi	x0,x0,0
    3b3c:	00000013          	addi	x0,x0,0
    3b40:	0000c517          	auipc	x10,0xc
    3b44:	b7350513          	addi	x10,x10,-1165 # f6b3 <inststr>
    3b48:	00000013          	addi	x0,x0,0
    3b4c:	00000013          	addi	x0,x0,0
    3b50:	00000013          	addi	x0,x0,0
    3b54:	00000013          	addi	x0,x0,0
    3b58:	00000013          	addi	x0,x0,0
    3b5c:	00000013          	addi	x0,x0,0
    3b60:	0001c097          	auipc	x1,0x1c
    3b64:	6a4080e7          	jalr	x1,1700(x1) # 20204 <rvmodel_io_write_str>
    3b68:	0000b517          	auipc	x10,0xb
    3b6c:	50852503          	lw	x10,1288(x10) # f070 <failing_instruction>
    3b70:	02000593          	addi	x11,x0,32
    3b74:	00357613          	andi	x12,x10,3
    3b78:	00300693          	addi	x13,x0,3
    3b7c:	00d60463          	beq	x12,x13,3b84 <print_newline_str+0x8c>
    3b80:	01000593          	addi	x11,x0,16
    3b84:	2f4010ef          	jal	x1,4e78 <failedtest_hex_to_str>
    3b88:	00000013          	addi	x0,x0,0
    3b8c:	00000013          	addi	x0,x0,0
    3b90:	00000013          	addi	x0,x0,0
    3b94:	00000013          	addi	x0,x0,0
    3b98:	00000013          	addi	x0,x0,0
    3b9c:	00000013          	addi	x0,x0,0
    3ba0:	0000b517          	auipc	x10,0xb
    3ba4:	55850513          	addi	x10,x10,1368 # f0f8 <ascii_buffer>
    3ba8:	00000013          	addi	x0,x0,0
    3bac:	00000013          	addi	x0,x0,0
    3bb0:	00000013          	addi	x0,x0,0
    3bb4:	00000013          	addi	x0,x0,0
    3bb8:	00000013          	addi	x0,x0,0
    3bbc:	00000013          	addi	x0,x0,0
    3bc0:	0001c097          	auipc	x1,0x1c
    3bc4:	644080e7          	jalr	x1,1604(x1) # 20204 <rvmodel_io_write_str>
    3bc8:	00000013          	addi	x0,x0,0
    3bcc:	00000013          	addi	x0,x0,0
    3bd0:	00000013          	addi	x0,x0,0
    3bd4:	00000013          	addi	x0,x0,0
    3bd8:	00000013          	addi	x0,x0,0
    3bdc:	00000013          	addi	x0,x0,0
    3be0:	0000c517          	auipc	x10,0xc
    3be4:	ae750513          	addi	x10,x10,-1305 # f6c7 <addrstr>
    3be8:	00000013          	addi	x0,x0,0
    3bec:	00000013          	addi	x0,x0,0
    3bf0:	00000013          	addi	x0,x0,0
    3bf4:	00000013          	addi	x0,x0,0
    3bf8:	00000013          	addi	x0,x0,0
    3bfc:	00000013          	addi	x0,x0,0
    3c00:	0001c097          	auipc	x1,0x1c
    3c04:	604080e7          	jalr	x1,1540(x1) # 20204 <rvmodel_io_write_str>
    3c08:	0000b517          	auipc	x10,0xb
    3c0c:	47052503          	lw	x10,1136(x10) # f078 <failing_addr>
    3c10:	02000593          	addi	x11,x0,32
    3c14:	264010ef          	jal	x1,4e78 <failedtest_hex_to_str>
    3c18:	00000013          	addi	x0,x0,0
    3c1c:	00000013          	addi	x0,x0,0
    3c20:	0000b517          	auipc	x10,0xb
    3c24:	4d850513          	addi	x10,x10,1240 # f0f8 <ascii_buffer>
    3c28:	00000013          	addi	x0,x0,0
    3c2c:	00000013          	addi	x0,x0,0
    3c30:	00000013          	addi	x0,x0,0
    3c34:	00000013          	addi	x0,x0,0
    3c38:	00000013          	addi	x0,x0,0
    3c3c:	00000013          	addi	x0,x0,0
    3c40:	0001c097          	auipc	x1,0x1c
    3c44:	5c4080e7          	jalr	x1,1476(x1) # 20204 <rvmodel_io_write_str>
    3c48:	00000013          	addi	x0,x0,0
    3c4c:	00000013          	addi	x0,x0,0
    3c50:	00000013          	addi	x0,x0,0
    3c54:	00000013          	addi	x0,x0,0
    3c58:	00000013          	addi	x0,x0,0
    3c5c:	00000013          	addi	x0,x0,0
    3c60:	0000c517          	auipc	x10,0xc
    3c64:	4e450513          	addi	x10,x10,1252 # 10144 <regstr>
    3c68:	00000013          	addi	x0,x0,0
    3c6c:	00000013          	addi	x0,x0,0
    3c70:	00000013          	addi	x0,x0,0
    3c74:	00000013          	addi	x0,x0,0
    3c78:	00000013          	addi	x0,x0,0
    3c7c:	00000013          	addi	x0,x0,0
    3c80:	0001c097          	auipc	x1,0x1c
    3c84:	584080e7          	jalr	x1,1412(x1) # 20204 <rvmodel_io_write_str>
    3c88:	0000b517          	auipc	x10,0xb
    3c8c:	2e852503          	lw	x10,744(x10) # ef70 <begin_failure_scratch>
    3c90:	00050663          	beq	x10,x0,3c9c <print_newline_str+0x1a4>
    3c94:	00300593          	addi	x11,x0,3
    3c98:	04b51063          	bne	x10,x11,3cd8 <failedtest_report_not_intreg>
    3c9c:	07800593          	addi	x11,x0,120
    3ca0:	0000b617          	auipc	x12,0xb
    3ca4:	45860613          	addi	x12,x12,1112 # f0f8 <ascii_buffer>
    3ca8:	00000013          	addi	x0,x0,0
    3cac:	00000013          	addi	x0,x0,0
    3cb0:	00000013          	addi	x0,x0,0
    3cb4:	00000013          	addi	x0,x0,0
    3cb8:	00000013          	addi	x0,x0,0
    3cbc:	00000013          	addi	x0,x0,0
    3cc0:	00b60023          	sb	x11,0(x12)
    3cc4:	00160613          	addi	x12,x12,1
    3cc8:	0000b517          	auipc	x10,0xb
    3ccc:	3ac52503          	lw	x10,940(x10) # f074 <failing_reg>
    3cd0:	224010ef          	jal	x1,4ef4 <failedtest_dec_to_str>
    3cd4:	0e00006f          	jal	x0,3db4 <failedtest_report_print_regstr>

00003cd8 <failedtest_report_not_intreg>:
    3cd8:	00100593          	addi	x11,x0,1
    3cdc:	04b50863          	beq	x10,x11,3d2c <failedtest_report_fpreg>
    3ce0:	00400593          	addi	x11,x0,4
    3ce4:	08b50a63          	beq	x10,x11,3d78 <failedtest_report_vecreg>
    3ce8:	00000013          	addi	x0,x0,0
    3cec:	00000013          	addi	x0,x0,0
    3cf0:	00000013          	addi	x0,x0,0
    3cf4:	00000013          	addi	x0,x0,0
    3cf8:	00000013          	addi	x0,x0,0
    3cfc:	00000013          	addi	x0,x0,0
    3d00:	0000c517          	auipc	x10,0xc
    3d04:	4a450513          	addi	x10,x10,1188 # 101a4 <fflagsstr>
    3d08:	00000013          	addi	x0,x0,0
    3d0c:	00000013          	addi	x0,x0,0
    3d10:	00000013          	addi	x0,x0,0
    3d14:	00000013          	addi	x0,x0,0
    3d18:	00000013          	addi	x0,x0,0
    3d1c:	00000013          	addi	x0,x0,0
    3d20:	0001c097          	auipc	x1,0x1c
    3d24:	4e4080e7          	jalr	x1,1252(x1) # 20204 <rvmodel_io_write_str>
    3d28:	0c00006f          	jal	x0,3de8 <failedtest_report_after_reg>

00003d2c <failedtest_report_fpreg>:
    3d2c:	06600593          	addi	x11,x0,102
    3d30:	00000013          	addi	x0,x0,0
    3d34:	00000013          	addi	x0,x0,0
    3d38:	00000013          	addi	x0,x0,0
    3d3c:	00000013          	addi	x0,x0,0
    3d40:	0000b617          	auipc	x12,0xb
    3d44:	3b860613          	addi	x12,x12,952 # f0f8 <ascii_buffer>
    3d48:	00000013          	addi	x0,x0,0
    3d4c:	00000013          	addi	x0,x0,0
    3d50:	00000013          	addi	x0,x0,0
    3d54:	00000013          	addi	x0,x0,0
    3d58:	00000013          	addi	x0,x0,0
    3d5c:	00000013          	addi	x0,x0,0
    3d60:	00b60023          	sb	x11,0(x12)
    3d64:	00160613          	addi	x12,x12,1
    3d68:	0000b517          	auipc	x10,0xb
    3d6c:	30c52503          	lw	x10,780(x10) # f074 <failing_reg>
    3d70:	184010ef          	jal	x1,4ef4 <failedtest_dec_to_str>
    3d74:	0400006f          	jal	x0,3db4 <failedtest_report_print_regstr>

00003d78 <failedtest_report_vecreg>:
    3d78:	07600593          	addi	x11,x0,118
    3d7c:	00000013          	addi	x0,x0,0
    3d80:	0000b617          	auipc	x12,0xb
    3d84:	37860613          	addi	x12,x12,888 # f0f8 <ascii_buffer>
    3d88:	00000013          	addi	x0,x0,0
    3d8c:	00000013          	addi	x0,x0,0
    3d90:	00000013          	addi	x0,x0,0
    3d94:	00000013          	addi	x0,x0,0
    3d98:	00000013          	addi	x0,x0,0
    3d9c:	00000013          	addi	x0,x0,0
    3da0:	00b60023          	sb	x11,0(x12)
    3da4:	00160613          	addi	x12,x12,1
    3da8:	0000b517          	auipc	x10,0xb
    3dac:	2cc52503          	lw	x10,716(x10) # f074 <failing_reg>
    3db0:	144010ef          	jal	x1,4ef4 <failedtest_dec_to_str>

00003db4 <failedtest_report_print_regstr>:
    3db4:	00000013          	addi	x0,x0,0
    3db8:	00000013          	addi	x0,x0,0
    3dbc:	00000013          	addi	x0,x0,0
    3dc0:	0000b517          	auipc	x10,0xb
    3dc4:	33850513          	addi	x10,x10,824 # f0f8 <ascii_buffer>
    3dc8:	00000013          	addi	x0,x0,0
    3dcc:	00000013          	addi	x0,x0,0
    3dd0:	00000013          	addi	x0,x0,0
    3dd4:	00000013          	addi	x0,x0,0
    3dd8:	00000013          	addi	x0,x0,0
    3ddc:	00000013          	addi	x0,x0,0
    3de0:	0001c097          	auipc	x1,0x1c
    3de4:	424080e7          	jalr	x1,1060(x1) # 20204 <rvmodel_io_write_str>

00003de8 <failedtest_report_after_reg>:
    3de8:	00000013          	addi	x0,x0,0
    3dec:	00000013          	addi	x0,x0,0
    3df0:	00000013          	addi	x0,x0,0
    3df4:	00000013          	addi	x0,x0,0
    3df8:	00000013          	addi	x0,x0,0
    3dfc:	00000013          	addi	x0,x0,0
    3e00:	0000c517          	auipc	x10,0xc
    3e04:	35550513          	addi	x10,x10,853 # 10155 <badvalstr>
    3e08:	00000013          	addi	x0,x0,0
    3e0c:	00000013          	addi	x0,x0,0
    3e10:	00000013          	addi	x0,x0,0
    3e14:	00000013          	addi	x0,x0,0
    3e18:	00000013          	addi	x0,x0,0
    3e1c:	00000013          	addi	x0,x0,0
    3e20:	0001c097          	auipc	x1,0x1c
    3e24:	3e4080e7          	jalr	x1,996(x1) # 20204 <rvmodel_io_write_str>
    3e28:	0000b517          	auipc	x10,0xb
    3e2c:	14852503          	lw	x10,328(x10) # ef70 <begin_failure_scratch>
    3e30:	00100593          	addi	x11,x0,1
    3e34:	00b51c63          	bne	x10,x11,3e4c <failedtest_report_badval_not_fp>
    3e38:	0000b517          	auipc	x10,0xb
    3e3c:	24852503          	lw	x10,584(x10) # f080 <failing_value>
    3e40:	02000593          	addi	x11,x0,32
    3e44:	034010ef          	jal	x1,4e78 <failedtest_hex_to_str>
    3e48:	0140006f          	jal	x0,3e5c <failedtest_report_badval_done>

00003e4c <failedtest_report_badval_not_fp>:
    3e4c:	0000b517          	auipc	x10,0xb
    3e50:	23452503          	lw	x10,564(x10) # f080 <failing_value>
    3e54:	02000593          	addi	x11,x0,32
    3e58:	020010ef          	jal	x1,4e78 <failedtest_hex_to_str>

00003e5c <failedtest_report_badval_done>:
    3e5c:	00000013          	addi	x0,x0,0
    3e60:	0000b517          	auipc	x10,0xb
    3e64:	29850513          	addi	x10,x10,664 # f0f8 <ascii_buffer>
    3e68:	00000013          	addi	x0,x0,0
    3e6c:	00000013          	addi	x0,x0,0
    3e70:	00000013          	addi	x0,x0,0
    3e74:	00000013          	addi	x0,x0,0
    3e78:	00000013          	addi	x0,x0,0
    3e7c:	00000013          	addi	x0,x0,0
    3e80:	0001c097          	auipc	x1,0x1c
    3e84:	384080e7          	jalr	x1,900(x1) # 20204 <rvmodel_io_write_str>
    3e88:	00000013          	addi	x0,x0,0
    3e8c:	00000013          	addi	x0,x0,0
    3e90:	00000013          	addi	x0,x0,0
    3e94:	00000013          	addi	x0,x0,0
    3e98:	00000013          	addi	x0,x0,0
    3e9c:	00000013          	addi	x0,x0,0
    3ea0:	0000c517          	auipc	x10,0xc
    3ea4:	2cc50513          	addi	x10,x10,716 # 1016c <expvalstr>
    3ea8:	00000013          	addi	x0,x0,0
    3eac:	00000013          	addi	x0,x0,0
    3eb0:	00000013          	addi	x0,x0,0
    3eb4:	00000013          	addi	x0,x0,0
    3eb8:	00000013          	addi	x0,x0,0
    3ebc:	00000013          	addi	x0,x0,0
    3ec0:	0001c097          	auipc	x1,0x1c
    3ec4:	344080e7          	jalr	x1,836(x1) # 20204 <rvmodel_io_write_str>
    3ec8:	0000b517          	auipc	x10,0xb
    3ecc:	0a852503          	lw	x10,168(x10) # ef70 <begin_failure_scratch>
    3ed0:	00100593          	addi	x11,x0,1
    3ed4:	00b51c63          	bne	x10,x11,3eec <failedtest_report_expval_not_fp>
    3ed8:	0000b517          	auipc	x10,0xb
    3edc:	1b052503          	lw	x10,432(x10) # f088 <expected_value>
    3ee0:	02000593          	addi	x11,x0,32
    3ee4:	795000ef          	jal	x1,4e78 <failedtest_hex_to_str>
    3ee8:	0140006f          	jal	x0,3efc <failedtest_report_expval_done>

00003eec <failedtest_report_expval_not_fp>:
    3eec:	0000b517          	auipc	x10,0xb
    3ef0:	19c52503          	lw	x10,412(x10) # f088 <expected_value>
    3ef4:	02000593          	addi	x11,x0,32
    3ef8:	781000ef          	jal	x1,4e78 <failedtest_hex_to_str>

00003efc <failedtest_report_expval_done>:
    3efc:	00000013          	addi	x0,x0,0
    3f00:	0000b517          	auipc	x10,0xb
    3f04:	1f850513          	addi	x10,x10,504 # f0f8 <ascii_buffer>
    3f08:	00000013          	addi	x0,x0,0
    3f0c:	00000013          	addi	x0,x0,0
    3f10:	00000013          	addi	x0,x0,0
    3f14:	00000013          	addi	x0,x0,0
    3f18:	00000013          	addi	x0,x0,0
    3f1c:	00000013          	addi	x0,x0,0
    3f20:	0001c097          	auipc	x1,0x1c
    3f24:	2e4080e7          	jalr	x1,740(x1) # 20204 <rvmodel_io_write_str>
    3f28:	4fd0006f          	jal	x0,4c24 <failedtest_report_end>

00003f2c <failedtest_report_trap_detailed>:
    3f2c:	00000013          	addi	x0,x0,0
    3f30:	00000013          	addi	x0,x0,0
    3f34:	00000013          	addi	x0,x0,0
    3f38:	00000013          	addi	x0,x0,0
    3f3c:	00000013          	addi	x0,x0,0
    3f40:	0000c517          	auipc	x10,0xc
    3f44:	29050513          	addi	x10,x10,656 # 101d0 <trap_diag_header_str>
    3f48:	00000013          	addi	x0,x0,0
    3f4c:	00000013          	addi	x0,x0,0
    3f50:	00000013          	addi	x0,x0,0
    3f54:	00000013          	addi	x0,x0,0
    3f58:	00000013          	addi	x0,x0,0
    3f5c:	00000013          	addi	x0,x0,0
    3f60:	0001c097          	auipc	x1,0x1c
    3f64:	2a4080e7          	jalr	x1,676(x1) # 20204 <rvmodel_io_write_str>
    3f68:	00000013          	addi	x0,x0,0
    3f6c:	00000013          	addi	x0,x0,0
    3f70:	00000013          	addi	x0,x0,0
    3f74:	00000013          	addi	x0,x0,0
    3f78:	00000013          	addi	x0,x0,0
    3f7c:	00000013          	addi	x0,x0,0
    3f80:	0000c517          	auipc	x10,0xc
    3f84:	27c50513          	addi	x10,x10,636 # 101fc <trap_diag_origstr_label>
    3f88:	00000013          	addi	x0,x0,0
    3f8c:	00000013          	addi	x0,x0,0
    3f90:	00000013          	addi	x0,x0,0
    3f94:	00000013          	addi	x0,x0,0
    3f98:	00000013          	addi	x0,x0,0
    3f9c:	00000013          	addi	x0,x0,0
    3fa0:	0001c097          	auipc	x1,0x1c
    3fa4:	264080e7          	jalr	x1,612(x1) # 20204 <rvmodel_io_write_str>
    3fa8:	0000b817          	auipc	x16,0xb
    3fac:	12080813          	addi	x16,x16,288 # f0c8 <trap_diag_fail_str_ptr>
    3fb0:	00082503          	lw	x10,0(x16)
    3fb4:	0001c097          	auipc	x1,0x1c
    3fb8:	250080e7          	jalr	x1,592(x1) # 20204 <rvmodel_io_write_str>
    3fbc:	00000013          	addi	x0,x0,0
    3fc0:	0000b517          	auipc	x10,0xb
    3fc4:	6f150513          	addi	x10,x10,1777 # f6b1 <newlinestr>
    3fc8:	00000013          	addi	x0,x0,0
    3fcc:	00000013          	addi	x0,x0,0
    3fd0:	00000013          	addi	x0,x0,0
    3fd4:	00000013          	addi	x0,x0,0
    3fd8:	00000013          	addi	x0,x0,0
    3fdc:	00000013          	addi	x0,x0,0
    3fe0:	0001c097          	auipc	x1,0x1c
    3fe4:	224080e7          	jalr	x1,548(x1) # 20204 <rvmodel_io_write_str>
    3fe8:	0000b417          	auipc	x8,0xb
    3fec:	0b842403          	lw	x8,184(x8) # f0a0 <trap_diag_subtype>
    3ff0:	00900493          	addi	x9,x0,9
    3ff4:	00940663          	beq	x8,x9,4000 <trap_report_offset_mismatch>
    3ff8:	2a040ce3          	beq	x8,x0,4ab0 <trap_report_generic>
    3ffc:	3780006f          	jal	x0,4374 <trap_report_field_mismatch>

00004000 <trap_report_offset_mismatch>:
    4000:	0000c517          	auipc	x10,0xc
    4004:	20c50513          	addi	x10,x10,524 # 1020c <trap_diag_count_mismatch_str>
    4008:	00000013          	addi	x0,x0,0
    400c:	00000013          	addi	x0,x0,0
    4010:	00000013          	addi	x0,x0,0
    4014:	00000013          	addi	x0,x0,0
    4018:	00000013          	addi	x0,x0,0
    401c:	00000013          	addi	x0,x0,0
    4020:	0001c097          	auipc	x1,0x1c
    4024:	1e4080e7          	jalr	x1,484(x1) # 20204 <rvmodel_io_write_str>
    4028:	00000013          	addi	x0,x0,0
    402c:	00000013          	addi	x0,x0,0
    4030:	00000013          	addi	x0,x0,0
    4034:	00000013          	addi	x0,x0,0
    4038:	00000013          	addi	x0,x0,0
    403c:	00000013          	addi	x0,x0,0
    4040:	0000c517          	auipc	x10,0xc
    4044:	22d50513          	addi	x10,x10,557 # 1026d <trap_diag_expected_offset_str>
    4048:	00000013          	addi	x0,x0,0
    404c:	00000013          	addi	x0,x0,0
    4050:	00000013          	addi	x0,x0,0
    4054:	00000013          	addi	x0,x0,0
    4058:	00000013          	addi	x0,x0,0
    405c:	00000013          	addi	x0,x0,0
    4060:	0001c097          	auipc	x1,0x1c
    4064:	1a4080e7          	jalr	x1,420(x1) # 20204 <rvmodel_io_write_str>
    4068:	0000b517          	auipc	x10,0xb
    406c:	05852503          	lw	x10,88(x10) # f0c0 <trap_diag_expected_offset>
    4070:	02000593          	addi	x11,x0,32
    4074:	605000ef          	jal	x1,4e78 <failedtest_hex_to_str>
    4078:	00000013          	addi	x0,x0,0
    407c:	00000013          	addi	x0,x0,0
    4080:	0000b517          	auipc	x10,0xb
    4084:	07850513          	addi	x10,x10,120 # f0f8 <ascii_buffer>
    4088:	00000013          	addi	x0,x0,0
    408c:	00000013          	addi	x0,x0,0
    4090:	00000013          	addi	x0,x0,0
    4094:	00000013          	addi	x0,x0,0
    4098:	00000013          	addi	x0,x0,0
    409c:	00000013          	addi	x0,x0,0
    40a0:	0001c097          	auipc	x1,0x1c
    40a4:	164080e7          	jalr	x1,356(x1) # 20204 <rvmodel_io_write_str>
    40a8:	00000013          	addi	x0,x0,0
    40ac:	00000013          	addi	x0,x0,0
    40b0:	00000013          	addi	x0,x0,0
    40b4:	00000013          	addi	x0,x0,0
    40b8:	00000013          	addi	x0,x0,0
    40bc:	00000013          	addi	x0,x0,0
    40c0:	0000c517          	auipc	x10,0xc
    40c4:	1d450513          	addi	x10,x10,468 # 10294 <trap_diag_actual_offset_str>
    40c8:	00000013          	addi	x0,x0,0
    40cc:	00000013          	addi	x0,x0,0
    40d0:	00000013          	addi	x0,x0,0
    40d4:	00000013          	addi	x0,x0,0
    40d8:	00000013          	addi	x0,x0,0
    40dc:	00000013          	addi	x0,x0,0
    40e0:	0001c097          	auipc	x1,0x1c
    40e4:	124080e7          	jalr	x1,292(x1) # 20204 <rvmodel_io_write_str>
    40e8:	0000b517          	auipc	x10,0xb
    40ec:	fd052503          	lw	x10,-48(x10) # f0b8 <trap_diag_actual_offset>
    40f0:	02000593          	addi	x11,x0,32
    40f4:	585000ef          	jal	x1,4e78 <failedtest_hex_to_str>
    40f8:	00000013          	addi	x0,x0,0
    40fc:	00000013          	addi	x0,x0,0
    4100:	0000b517          	auipc	x10,0xb
    4104:	ff850513          	addi	x10,x10,-8 # f0f8 <ascii_buffer>
    4108:	00000013          	addi	x0,x0,0
    410c:	00000013          	addi	x0,x0,0
    4110:	00000013          	addi	x0,x0,0
    4114:	00000013          	addi	x0,x0,0
    4118:	00000013          	addi	x0,x0,0
    411c:	00000013          	addi	x0,x0,0
    4120:	0001c097          	auipc	x1,0x1c
    4124:	0e4080e7          	jalr	x1,228(x1) # 20204 <rvmodel_io_write_str>
    4128:	0000b317          	auipc	x6,0xb
    412c:	f9032303          	lw	x6,-112(x6) # f0b8 <trap_diag_actual_offset>
    4130:	0000b397          	auipc	x7,0xb
    4134:	f903a383          	lw	x7,-112(x7) # f0c0 <trap_diag_expected_offset>
    4138:	10734e63          	blt	x6,x7,4254 <trap_report_missing_traps>

0000413c <trap_report_extra_traps>:
    413c:	00000013          	addi	x0,x0,0
    4140:	0000c517          	auipc	x10,0xc
    4144:	17b50513          	addi	x10,x10,379 # 102bb <trap_diag_extra_traps_str>
    4148:	00000013          	addi	x0,x0,0
    414c:	00000013          	addi	x0,x0,0
    4150:	00000013          	addi	x0,x0,0
    4154:	00000013          	addi	x0,x0,0
    4158:	00000013          	addi	x0,x0,0
    415c:	00000013          	addi	x0,x0,0
    4160:	0001c097          	auipc	x1,0x1c
    4164:	0a4080e7          	jalr	x1,164(x1) # 20204 <rvmodel_io_write_str>
    4168:	0000b317          	auipc	x6,0xb
    416c:	f5032303          	lw	x6,-176(x6) # f0b8 <trap_diag_actual_offset>
    4170:	0000b397          	auipc	x7,0xb
    4174:	f503a383          	lw	x7,-176(x7) # f0c0 <trap_diag_expected_offset>
    4178:	40730333          	sub	x6,x6,x7
    417c:	00235313          	srli	x6,x6,0x2
    4180:	0000c517          	auipc	x10,0xc
    4184:	1c050513          	addi	x10,x10,448 # 10340 <trap_diag_extra_bytes_str>
    4188:	00000013          	addi	x0,x0,0
    418c:	00000013          	addi	x0,x0,0
    4190:	00000013          	addi	x0,x0,0
    4194:	00000013          	addi	x0,x0,0
    4198:	00000013          	addi	x0,x0,0
    419c:	00000013          	addi	x0,x0,0
    41a0:	0001c097          	auipc	x1,0x1c
    41a4:	064080e7          	jalr	x1,100(x1) # 20204 <rvmodel_io_write_str>
    41a8:	0000b317          	auipc	x6,0xb
    41ac:	f1032303          	lw	x6,-240(x6) # f0b8 <trap_diag_actual_offset>
    41b0:	0000b397          	auipc	x7,0xb
    41b4:	f103a383          	lw	x7,-240(x7) # f0c0 <trap_diag_expected_offset>
    41b8:	40730533          	sub	x10,x6,x7
    41bc:	02000593          	addi	x11,x0,32
    41c0:	4b9000ef          	jal	x1,4e78 <failedtest_hex_to_str>
    41c4:	00000013          	addi	x0,x0,0
    41c8:	00000013          	addi	x0,x0,0
    41cc:	00000013          	addi	x0,x0,0
    41d0:	00000013          	addi	x0,x0,0
    41d4:	00000013          	addi	x0,x0,0
    41d8:	00000013          	addi	x0,x0,0
    41dc:	00000013          	addi	x0,x0,0
    41e0:	0000b517          	auipc	x10,0xb
    41e4:	f1850513          	addi	x10,x10,-232 # f0f8 <ascii_buffer>
    41e8:	00000013          	addi	x0,x0,0
    41ec:	00000013          	addi	x0,x0,0
    41f0:	00000013          	addi	x0,x0,0
    41f4:	00000013          	addi	x0,x0,0
    41f8:	00000013          	addi	x0,x0,0
    41fc:	00000013          	addi	x0,x0,0
    4200:	0001c097          	auipc	x1,0x1c
    4204:	004080e7          	jalr	x1,4(x1) # 20204 <rvmodel_io_write_str>
    4208:	00000013          	addi	x0,x0,0
    420c:	00000013          	addi	x0,x0,0
    4210:	00000013          	addi	x0,x0,0
    4214:	00000013          	addi	x0,x0,0
    4218:	00000013          	addi	x0,x0,0
    421c:	00000013          	addi	x0,x0,0
    4220:	0000c517          	auipc	x10,0xc
    4224:	14b50513          	addi	x10,x10,331 # 1036b <trap_diag_extra_hint_str>
    4228:	00000013          	addi	x0,x0,0
    422c:	00000013          	addi	x0,x0,0
    4230:	00000013          	addi	x0,x0,0
    4234:	00000013          	addi	x0,x0,0
    4238:	00000013          	addi	x0,x0,0
    423c:	00000013          	addi	x0,x0,0
    4240:	0001c097          	auipc	x1,0x1c
    4244:	fc4080e7          	jalr	x1,-60(x1) # 20204 <rvmodel_io_write_str>
    4248:	00001097          	auipc	x1,0x1
    424c:	a28080e7          	jalr	x1,-1496(x1) # 4c70 <failedtest_print_csr_context>
    4250:	1d50006f          	jal	x0,4c24 <failedtest_report_end>

00004254 <trap_report_missing_traps>:
    4254:	00000013          	addi	x0,x0,0
    4258:	00000013          	addi	x0,x0,0
    425c:	00000013          	addi	x0,x0,0
    4260:	0000c517          	auipc	x10,0xc
    4264:	09550513          	addi	x10,x10,149 # 102f5 <trap_diag_missing_traps_str>
    4268:	00000013          	addi	x0,x0,0
    426c:	00000013          	addi	x0,x0,0
    4270:	00000013          	addi	x0,x0,0
    4274:	00000013          	addi	x0,x0,0
    4278:	00000013          	addi	x0,x0,0
    427c:	00000013          	addi	x0,x0,0
    4280:	0001c097          	auipc	x1,0x1c
    4284:	f84080e7          	jalr	x1,-124(x1) # 20204 <rvmodel_io_write_str>
    4288:	00000013          	addi	x0,x0,0
    428c:	00000013          	addi	x0,x0,0
    4290:	00000013          	addi	x0,x0,0
    4294:	00000013          	addi	x0,x0,0
    4298:	00000013          	addi	x0,x0,0
    429c:	00000013          	addi	x0,x0,0
    42a0:	0000c517          	auipc	x10,0xc
    42a4:	0a050513          	addi	x10,x10,160 # 10340 <trap_diag_extra_bytes_str>
    42a8:	00000013          	addi	x0,x0,0
    42ac:	00000013          	addi	x0,x0,0
    42b0:	00000013          	addi	x0,x0,0
    42b4:	00000013          	addi	x0,x0,0
    42b8:	00000013          	addi	x0,x0,0
    42bc:	00000013          	addi	x0,x0,0
    42c0:	0001c097          	auipc	x1,0x1c
    42c4:	f44080e7          	jalr	x1,-188(x1) # 20204 <rvmodel_io_write_str>
    42c8:	0000b317          	auipc	x6,0xb
    42cc:	df832303          	lw	x6,-520(x6) # f0c0 <trap_diag_expected_offset>
    42d0:	0000b397          	auipc	x7,0xb
    42d4:	de83a383          	lw	x7,-536(x7) # f0b8 <trap_diag_actual_offset>
    42d8:	40730533          	sub	x10,x6,x7
    42dc:	02000593          	addi	x11,x0,32
    42e0:	399000ef          	jal	x1,4e78 <failedtest_hex_to_str>
    42e4:	00000013          	addi	x0,x0,0
    42e8:	00000013          	addi	x0,x0,0
    42ec:	00000013          	addi	x0,x0,0
    42f0:	00000013          	addi	x0,x0,0
    42f4:	00000013          	addi	x0,x0,0
    42f8:	00000013          	addi	x0,x0,0
    42fc:	00000013          	addi	x0,x0,0
    4300:	0000b517          	auipc	x10,0xb
    4304:	df850513          	addi	x10,x10,-520 # f0f8 <ascii_buffer>
    4308:	00000013          	addi	x0,x0,0
    430c:	00000013          	addi	x0,x0,0
    4310:	00000013          	addi	x0,x0,0
    4314:	00000013          	addi	x0,x0,0
    4318:	00000013          	addi	x0,x0,0
    431c:	00000013          	addi	x0,x0,0
    4320:	0001c097          	auipc	x1,0x1c
    4324:	ee4080e7          	jalr	x1,-284(x1) # 20204 <rvmodel_io_write_str>
    4328:	00000013          	addi	x0,x0,0
    432c:	00000013          	addi	x0,x0,0
    4330:	00000013          	addi	x0,x0,0
    4334:	00000013          	addi	x0,x0,0
    4338:	00000013          	addi	x0,x0,0
    433c:	00000013          	addi	x0,x0,0
    4340:	0000c517          	auipc	x10,0xc
    4344:	11350513          	addi	x10,x10,275 # 10453 <trap_diag_missing_hint_str>
    4348:	00000013          	addi	x0,x0,0
    434c:	00000013          	addi	x0,x0,0
    4350:	00000013          	addi	x0,x0,0
    4354:	00000013          	addi	x0,x0,0
    4358:	00000013          	addi	x0,x0,0
    435c:	00000013          	addi	x0,x0,0
    4360:	0001c097          	auipc	x1,0x1c
    4364:	ea4080e7          	jalr	x1,-348(x1) # 20204 <rvmodel_io_write_str>
    4368:	00001097          	auipc	x1,0x1
    436c:	908080e7          	jalr	x1,-1784(x1) # 4c70 <failedtest_print_csr_context>
    4370:	0b50006f          	jal	x0,4c24 <failedtest_report_end>

00004374 <trap_report_field_mismatch>:
    4374:	00000013          	addi	x0,x0,0
    4378:	00000013          	addi	x0,x0,0
    437c:	00000013          	addi	x0,x0,0
    4380:	0000c517          	auipc	x10,0xc
    4384:	1ba50513          	addi	x10,x10,442 # 1053a <trap_diag_handler_mode_str>
    4388:	00000013          	addi	x0,x0,0
    438c:	00000013          	addi	x0,x0,0
    4390:	00000013          	addi	x0,x0,0
    4394:	00000013          	addi	x0,x0,0
    4398:	00000013          	addi	x0,x0,0
    439c:	00000013          	addi	x0,x0,0
    43a0:	0001c097          	auipc	x1,0x1c
    43a4:	e64080e7          	jalr	x1,-412(x1) # 20204 <rvmodel_io_write_str>
    43a8:	0000b517          	auipc	x10,0xb
    43ac:	cfc52503          	lw	x10,-772(x10) # f0a4 <trap_diag_mode>
    43b0:	04050a63          	beq	x10,x0,4404 <trap_mode_m>
    43b4:	00100593          	addi	x11,x0,1
    43b8:	08b50663          	beq	x10,x11,4444 <trap_mode_s>
    43bc:	00200593          	addi	x11,x0,2
    43c0:	0cb50263          	beq	x10,x11,4484 <trap_mode_h>
    43c4:	00300593          	addi	x11,x0,3
    43c8:	0eb50e63          	beq	x10,x11,44c4 <trap_mode_v>
    43cc:	00000013          	addi	x0,x0,0
    43d0:	00000013          	addi	x0,x0,0
    43d4:	00000013          	addi	x0,x0,0
    43d8:	00000013          	addi	x0,x0,0
    43dc:	00000013          	addi	x0,x0,0
    43e0:	0000c517          	auipc	x10,0xc
    43e4:	19650513          	addi	x10,x10,406 # 10576 <trap_diag_mode_unknown_str>
    43e8:	00000013          	addi	x0,x0,0
    43ec:	00000013          	addi	x0,x0,0
    43f0:	00000013          	addi	x0,x0,0
    43f4:	00000013          	addi	x0,x0,0
    43f8:	00000013          	addi	x0,x0,0
    43fc:	00000013          	addi	x0,x0,0
    4400:	1000006f          	jal	x0,4500 <trap_mode_print>

00004404 <trap_mode_m>:
    4404:	00000013          	addi	x0,x0,0
    4408:	00000013          	addi	x0,x0,0
    440c:	00000013          	addi	x0,x0,0
    4410:	00000013          	addi	x0,x0,0
    4414:	00000013          	addi	x0,x0,0
    4418:	00000013          	addi	x0,x0,0
    441c:	00000013          	addi	x0,x0,0
    4420:	0000c517          	auipc	x10,0xc
    4424:	13450513          	addi	x10,x10,308 # 10554 <trap_diag_mode_m_str>
    4428:	00000013          	addi	x0,x0,0
    442c:	00000013          	addi	x0,x0,0
    4430:	00000013          	addi	x0,x0,0
    4434:	00000013          	addi	x0,x0,0
    4438:	00000013          	addi	x0,x0,0
    443c:	00000013          	addi	x0,x0,0
    4440:	0c00006f          	jal	x0,4500 <trap_mode_print>

00004444 <trap_mode_s>:
    4444:	00000013          	addi	x0,x0,0
    4448:	00000013          	addi	x0,x0,0
    444c:	00000013          	addi	x0,x0,0
    4450:	00000013          	addi	x0,x0,0
    4454:	00000013          	addi	x0,x0,0
    4458:	00000013          	addi	x0,x0,0
    445c:	00000013          	addi	x0,x0,0
    4460:	0000c517          	auipc	x10,0xc
    4464:	0fc50513          	addi	x10,x10,252 # 1055c <trap_diag_mode_s_str>
    4468:	00000013          	addi	x0,x0,0
    446c:	00000013          	addi	x0,x0,0
    4470:	00000013          	addi	x0,x0,0
    4474:	00000013          	addi	x0,x0,0
    4478:	00000013          	addi	x0,x0,0
    447c:	00000013          	addi	x0,x0,0
    4480:	0800006f          	jal	x0,4500 <trap_mode_print>

00004484 <trap_mode_h>:
    4484:	00000013          	addi	x0,x0,0
    4488:	00000013          	addi	x0,x0,0
    448c:	00000013          	addi	x0,x0,0
    4490:	00000013          	addi	x0,x0,0
    4494:	00000013          	addi	x0,x0,0
    4498:	00000013          	addi	x0,x0,0
    449c:	00000013          	addi	x0,x0,0
    44a0:	0000c517          	auipc	x10,0xc
    44a4:	0c450513          	addi	x10,x10,196 # 10564 <trap_diag_mode_hs_str>
    44a8:	00000013          	addi	x0,x0,0
    44ac:	00000013          	addi	x0,x0,0
    44b0:	00000013          	addi	x0,x0,0
    44b4:	00000013          	addi	x0,x0,0
    44b8:	00000013          	addi	x0,x0,0
    44bc:	00000013          	addi	x0,x0,0
    44c0:	0400006f          	jal	x0,4500 <trap_mode_print>

000044c4 <trap_mode_v>:
    44c4:	00000013          	addi	x0,x0,0
    44c8:	00000013          	addi	x0,x0,0
    44cc:	00000013          	addi	x0,x0,0
    44d0:	00000013          	addi	x0,x0,0
    44d4:	00000013          	addi	x0,x0,0
    44d8:	00000013          	addi	x0,x0,0
    44dc:	00000013          	addi	x0,x0,0
    44e0:	0000c517          	auipc	x10,0xc
    44e4:	08d50513          	addi	x10,x10,141 # 1056d <trap_diag_mode_vs_str>
    44e8:	00000013          	addi	x0,x0,0
    44ec:	00000013          	addi	x0,x0,0
    44f0:	00000013          	addi	x0,x0,0
    44f4:	00000013          	addi	x0,x0,0
    44f8:	00000013          	addi	x0,x0,0
    44fc:	00000013          	addi	x0,x0,0

00004500 <trap_mode_print>:
    4500:	0001c097          	auipc	x1,0x1c
    4504:	d04080e7          	jalr	x1,-764(x1) # 20204 <rvmodel_io_write_str>
    4508:	00000013          	addi	x0,x0,0
    450c:	00000013          	addi	x0,x0,0
    4510:	00000013          	addi	x0,x0,0
    4514:	00000013          	addi	x0,x0,0
    4518:	00000013          	addi	x0,x0,0
    451c:	00000013          	addi	x0,x0,0
    4520:	0000c517          	auipc	x10,0xc
    4524:	05f50513          	addi	x10,x10,95 # 1057f <trap_diag_field_str>
    4528:	00000013          	addi	x0,x0,0
    452c:	00000013          	addi	x0,x0,0
    4530:	00000013          	addi	x0,x0,0
    4534:	00000013          	addi	x0,x0,0
    4538:	00000013          	addi	x0,x0,0
    453c:	00000013          	addi	x0,x0,0
    4540:	0001c097          	auipc	x1,0x1c
    4544:	cc4080e7          	jalr	x1,-828(x1) # 20204 <rvmodel_io_write_str>
    4548:	0000b517          	auipc	x10,0xb
    454c:	b5852503          	lw	x10,-1192(x10) # f0a0 <trap_diag_subtype>
    4550:	00100593          	addi	x11,x0,1
    4554:	06b50863          	beq	x10,x11,45c4 <trap_field_vect>
    4558:	00200593          	addi	x11,x0,2
    455c:	0ab50463          	beq	x10,x11,4604 <trap_field_cause>
    4560:	00300593          	addi	x11,x0,3
    4564:	0eb50063          	beq	x10,x11,4644 <trap_field_epc>
    4568:	00400593          	addi	x11,x0,4
    456c:	10b50c63          	beq	x10,x11,4684 <trap_field_tval>
    4570:	00500593          	addi	x11,x0,5
    4574:	14b50863          	beq	x10,x11,46c4 <trap_field_ip>
    4578:	00600593          	addi	x11,x0,6
    457c:	18b50463          	beq	x10,x11,4704 <trap_field_tval2>
    4580:	00700593          	addi	x11,x0,7
    4584:	1cb50063          	beq	x10,x11,4744 <trap_field_tinst>
    4588:	00800593          	addi	x11,x0,8
    458c:	1eb50c63          	beq	x10,x11,4784 <trap_field_intid>
    4590:	00000013          	addi	x0,x0,0
    4594:	00000013          	addi	x0,x0,0
    4598:	00000013          	addi	x0,x0,0
    459c:	00000013          	addi	x0,x0,0
    45a0:	0000c517          	auipc	x10,0xc
    45a4:	13650513          	addi	x10,x10,310 # 106d6 <trap_diag_field_unknown_str>
    45a8:	00000013          	addi	x0,x0,0
    45ac:	00000013          	addi	x0,x0,0
    45b0:	00000013          	addi	x0,x0,0
    45b4:	00000013          	addi	x0,x0,0
    45b8:	00000013          	addi	x0,x0,0
    45bc:	00000013          	addi	x0,x0,0
    45c0:	2000006f          	jal	x0,47c0 <trap_field_print>

000045c4 <trap_field_vect>:
    45c4:	00000013          	addi	x0,x0,0
    45c8:	00000013          	addi	x0,x0,0
    45cc:	00000013          	addi	x0,x0,0
    45d0:	00000013          	addi	x0,x0,0
    45d4:	00000013          	addi	x0,x0,0
    45d8:	00000013          	addi	x0,x0,0
    45dc:	00000013          	addi	x0,x0,0
    45e0:	0000c517          	auipc	x10,0xc
    45e4:	fb950513          	addi	x10,x10,-71 # 10599 <trap_diag_field_vect_str>
    45e8:	00000013          	addi	x0,x0,0
    45ec:	00000013          	addi	x0,x0,0
    45f0:	00000013          	addi	x0,x0,0
    45f4:	00000013          	addi	x0,x0,0
    45f8:	00000013          	addi	x0,x0,0
    45fc:	00000013          	addi	x0,x0,0
    4600:	1c00006f          	jal	x0,47c0 <trap_field_print>

00004604 <trap_field_cause>:
    4604:	00000013          	addi	x0,x0,0
    4608:	00000013          	addi	x0,x0,0
    460c:	00000013          	addi	x0,x0,0
    4610:	00000013          	addi	x0,x0,0
    4614:	00000013          	addi	x0,x0,0
    4618:	00000013          	addi	x0,x0,0
    461c:	00000013          	addi	x0,x0,0
    4620:	0000c517          	auipc	x10,0xc
    4624:	faa50513          	addi	x10,x10,-86 # 105ca <trap_diag_field_cause_str>
    4628:	00000013          	addi	x0,x0,0
    462c:	00000013          	addi	x0,x0,0
    4630:	00000013          	addi	x0,x0,0
    4634:	00000013          	addi	x0,x0,0
    4638:	00000013          	addi	x0,x0,0
    463c:	00000013          	addi	x0,x0,0
    4640:	1800006f          	jal	x0,47c0 <trap_field_print>

00004644 <trap_field_epc>:
    4644:	00000013          	addi	x0,x0,0
    4648:	00000013          	addi	x0,x0,0
    464c:	00000013          	addi	x0,x0,0
    4650:	00000013          	addi	x0,x0,0
    4654:	00000013          	addi	x0,x0,0
    4658:	00000013          	addi	x0,x0,0
    465c:	00000013          	addi	x0,x0,0
    4660:	0000c517          	auipc	x10,0xc
    4664:	f8a50513          	addi	x10,x10,-118 # 105ea <trap_diag_field_epc_str>
    4668:	00000013          	addi	x0,x0,0
    466c:	00000013          	addi	x0,x0,0
    4670:	00000013          	addi	x0,x0,0
    4674:	00000013          	addi	x0,x0,0
    4678:	00000013          	addi	x0,x0,0
    467c:	00000013          	addi	x0,x0,0
    4680:	1400006f          	jal	x0,47c0 <trap_field_print>

00004684 <trap_field_tval>:
    4684:	00000013          	addi	x0,x0,0
    4688:	00000013          	addi	x0,x0,0
    468c:	00000013          	addi	x0,x0,0
    4690:	00000013          	addi	x0,x0,0
    4694:	00000013          	addi	x0,x0,0
    4698:	00000013          	addi	x0,x0,0
    469c:	00000013          	addi	x0,x0,0
    46a0:	0000c517          	auipc	x10,0xc
    46a4:	f6850513          	addi	x10,x10,-152 # 10608 <trap_diag_field_tval_str>
    46a8:	00000013          	addi	x0,x0,0
    46ac:	00000013          	addi	x0,x0,0
    46b0:	00000013          	addi	x0,x0,0
    46b4:	00000013          	addi	x0,x0,0
    46b8:	00000013          	addi	x0,x0,0
    46bc:	00000013          	addi	x0,x0,0
    46c0:	1000006f          	jal	x0,47c0 <trap_field_print>

000046c4 <trap_field_ip>:
    46c4:	00000013          	addi	x0,x0,0
    46c8:	00000013          	addi	x0,x0,0
    46cc:	00000013          	addi	x0,x0,0
    46d0:	00000013          	addi	x0,x0,0
    46d4:	00000013          	addi	x0,x0,0
    46d8:	00000013          	addi	x0,x0,0
    46dc:	00000013          	addi	x0,x0,0
    46e0:	0000c517          	auipc	x10,0xc
    46e4:	f4750513          	addi	x10,x10,-185 # 10627 <trap_diag_field_ip_str>
    46e8:	00000013          	addi	x0,x0,0
    46ec:	00000013          	addi	x0,x0,0
    46f0:	00000013          	addi	x0,x0,0
    46f4:	00000013          	addi	x0,x0,0
    46f8:	00000013          	addi	x0,x0,0
    46fc:	00000013          	addi	x0,x0,0
    4700:	0c00006f          	jal	x0,47c0 <trap_field_print>

00004704 <trap_field_tval2>:
    4704:	00000013          	addi	x0,x0,0
    4708:	00000013          	addi	x0,x0,0
    470c:	00000013          	addi	x0,x0,0
    4710:	00000013          	addi	x0,x0,0
    4714:	00000013          	addi	x0,x0,0
    4718:	00000013          	addi	x0,x0,0
    471c:	00000013          	addi	x0,x0,0
    4720:	0000c517          	auipc	x10,0xc
    4724:	f2f50513          	addi	x10,x10,-209 # 1064f <trap_diag_field_tval2_str>
    4728:	00000013          	addi	x0,x0,0
    472c:	00000013          	addi	x0,x0,0
    4730:	00000013          	addi	x0,x0,0
    4734:	00000013          	addi	x0,x0,0
    4738:	00000013          	addi	x0,x0,0
    473c:	00000013          	addi	x0,x0,0
    4740:	0800006f          	jal	x0,47c0 <trap_field_print>

00004744 <trap_field_tinst>:
    4744:	00000013          	addi	x0,x0,0
    4748:	00000013          	addi	x0,x0,0
    474c:	00000013          	addi	x0,x0,0
    4750:	00000013          	addi	x0,x0,0
    4754:	00000013          	addi	x0,x0,0
    4758:	00000013          	addi	x0,x0,0
    475c:	00000013          	addi	x0,x0,0
    4760:	0000c517          	auipc	x10,0xc
    4764:	f1b50513          	addi	x10,x10,-229 # 1067b <trap_diag_field_tinst_str>
    4768:	00000013          	addi	x0,x0,0
    476c:	00000013          	addi	x0,x0,0
    4770:	00000013          	addi	x0,x0,0
    4774:	00000013          	addi	x0,x0,0
    4778:	00000013          	addi	x0,x0,0
    477c:	00000013          	addi	x0,x0,0
    4780:	0400006f          	jal	x0,47c0 <trap_field_print>

00004784 <trap_field_intid>:
    4784:	00000013          	addi	x0,x0,0
    4788:	00000013          	addi	x0,x0,0
    478c:	00000013          	addi	x0,x0,0
    4790:	00000013          	addi	x0,x0,0
    4794:	00000013          	addi	x0,x0,0
    4798:	00000013          	addi	x0,x0,0
    479c:	00000013          	addi	x0,x0,0
    47a0:	0000c517          	auipc	x10,0xc
    47a4:	f0750513          	addi	x10,x10,-249 # 106a7 <trap_diag_field_intid_str>
    47a8:	00000013          	addi	x0,x0,0
    47ac:	00000013          	addi	x0,x0,0
    47b0:	00000013          	addi	x0,x0,0
    47b4:	00000013          	addi	x0,x0,0
    47b8:	00000013          	addi	x0,x0,0
    47bc:	00000013          	addi	x0,x0,0

000047c0 <trap_field_print>:
    47c0:	0001c097          	auipc	x1,0x1c
    47c4:	a44080e7          	jalr	x1,-1468(x1) # 20204 <rvmodel_io_write_str>
    47c8:	00000013          	addi	x0,x0,0
    47cc:	00000013          	addi	x0,x0,0
    47d0:	00000013          	addi	x0,x0,0
    47d4:	00000013          	addi	x0,x0,0
    47d8:	00000013          	addi	x0,x0,0
    47dc:	00000013          	addi	x0,x0,0
    47e0:	0000c517          	auipc	x10,0xc
    47e4:	f0550513          	addi	x10,x10,-251 # 106e5 <trap_diag_expected_str>
    47e8:	00000013          	addi	x0,x0,0
    47ec:	00000013          	addi	x0,x0,0
    47f0:	00000013          	addi	x0,x0,0
    47f4:	00000013          	addi	x0,x0,0
    47f8:	00000013          	addi	x0,x0,0
    47fc:	00000013          	addi	x0,x0,0
    4800:	0001c097          	auipc	x1,0x1c
    4804:	a04080e7          	jalr	x1,-1532(x1) # 20204 <rvmodel_io_write_str>
    4808:	0000b517          	auipc	x10,0xb
    480c:	8a852503          	lw	x10,-1880(x10) # f0b0 <trap_diag_expected_value>
    4810:	02000593          	addi	x11,x0,32
    4814:	664000ef          	jal	x1,4e78 <failedtest_hex_to_str>
    4818:	00000013          	addi	x0,x0,0
    481c:	00000013          	addi	x0,x0,0
    4820:	0000b517          	auipc	x10,0xb
    4824:	8d850513          	addi	x10,x10,-1832 # f0f8 <ascii_buffer>
    4828:	00000013          	addi	x0,x0,0
    482c:	00000013          	addi	x0,x0,0
    4830:	00000013          	addi	x0,x0,0
    4834:	00000013          	addi	x0,x0,0
    4838:	00000013          	addi	x0,x0,0
    483c:	00000013          	addi	x0,x0,0
    4840:	0001c097          	auipc	x1,0x1c
    4844:	9c4080e7          	jalr	x1,-1596(x1) # 20204 <rvmodel_io_write_str>
    4848:	00000013          	addi	x0,x0,0
    484c:	00000013          	addi	x0,x0,0
    4850:	00000013          	addi	x0,x0,0
    4854:	00000013          	addi	x0,x0,0
    4858:	00000013          	addi	x0,x0,0
    485c:	00000013          	addi	x0,x0,0
    4860:	0000c517          	auipc	x10,0xc
    4864:	e9c50513          	addi	x10,x10,-356 # 106fc <trap_diag_actual_str>
    4868:	00000013          	addi	x0,x0,0
    486c:	00000013          	addi	x0,x0,0
    4870:	00000013          	addi	x0,x0,0
    4874:	00000013          	addi	x0,x0,0
    4878:	00000013          	addi	x0,x0,0
    487c:	00000013          	addi	x0,x0,0
    4880:	0001c097          	auipc	x1,0x1c
    4884:	984080e7          	jalr	x1,-1660(x1) # 20204 <rvmodel_io_write_str>
    4888:	0000b517          	auipc	x10,0xb
    488c:	82052503          	lw	x10,-2016(x10) # f0a8 <trap_diag_actual_value>
    4890:	02000593          	addi	x11,x0,32
    4894:	5e4000ef          	jal	x1,4e78 <failedtest_hex_to_str>
    4898:	00000013          	addi	x0,x0,0
    489c:	00000013          	addi	x0,x0,0
    48a0:	0000b517          	auipc	x10,0xb
    48a4:	85850513          	addi	x10,x10,-1960 # f0f8 <ascii_buffer>
    48a8:	00000013          	addi	x0,x0,0
    48ac:	00000013          	addi	x0,x0,0
    48b0:	00000013          	addi	x0,x0,0
    48b4:	00000013          	addi	x0,x0,0
    48b8:	00000013          	addi	x0,x0,0
    48bc:	00000013          	addi	x0,x0,0
    48c0:	0001c097          	auipc	x1,0x1c
    48c4:	944080e7          	jalr	x1,-1724(x1) # 20204 <rvmodel_io_write_str>
    48c8:	0000a517          	auipc	x10,0xa
    48cc:	7d852503          	lw	x10,2008(x10) # f0a0 <trap_diag_subtype>
    48d0:	00200593          	addi	x11,x0,2
    48d4:	08b51463          	bne	x10,x11,495c <trap_field_not_cause>
    48d8:	00000013          	addi	x0,x0,0
    48dc:	00000013          	addi	x0,x0,0
    48e0:	0000c517          	auipc	x10,0xc
    48e4:	e3350513          	addi	x10,x10,-461 # 10713 <trap_diag_expected_cause_name_str>
    48e8:	00000013          	addi	x0,x0,0
    48ec:	00000013          	addi	x0,x0,0
    48f0:	00000013          	addi	x0,x0,0
    48f4:	00000013          	addi	x0,x0,0
    48f8:	00000013          	addi	x0,x0,0
    48fc:	00000013          	addi	x0,x0,0
    4900:	0001c097          	auipc	x1,0x1c
    4904:	904080e7          	jalr	x1,-1788(x1) # 20204 <rvmodel_io_write_str>
    4908:	0000a517          	auipc	x10,0xa
    490c:	7a852503          	lw	x10,1960(x10) # f0b0 <trap_diag_expected_value>
    4910:	284000ef          	jal	x1,4b94 <trap_cause_to_str>
    4914:	0001c097          	auipc	x1,0x1c
    4918:	8f0080e7          	jalr	x1,-1808(x1) # 20204 <rvmodel_io_write_str>
    491c:	00000013          	addi	x0,x0,0
    4920:	0000c517          	auipc	x10,0xc
    4924:	e0a50513          	addi	x10,x10,-502 # 1072a <trap_diag_actual_cause_name_str>
    4928:	00000013          	addi	x0,x0,0
    492c:	00000013          	addi	x0,x0,0
    4930:	00000013          	addi	x0,x0,0
    4934:	00000013          	addi	x0,x0,0
    4938:	00000013          	addi	x0,x0,0
    493c:	00000013          	addi	x0,x0,0
    4940:	0001c097          	auipc	x1,0x1c
    4944:	8c4080e7          	jalr	x1,-1852(x1) # 20204 <rvmodel_io_write_str>
    4948:	0000a517          	auipc	x10,0xa
    494c:	76052503          	lw	x10,1888(x10) # f0a8 <trap_diag_actual_value>
    4950:	244000ef          	jal	x1,4b94 <trap_cause_to_str>
    4954:	0001c097          	auipc	x1,0x1c
    4958:	8b0080e7          	jalr	x1,-1872(x1) # 20204 <rvmodel_io_write_str>

0000495c <trap_field_not_cause>:
    495c:	00000097          	auipc	x1,0x0
    4960:	314080e7          	jalr	x1,788(x1) # 4c70 <failedtest_print_csr_context>
    4964:	0000a517          	auipc	x10,0xa
    4968:	73c52503          	lw	x10,1852(x10) # f0a0 <trap_diag_subtype>
    496c:	00100593          	addi	x11,x0,1
    4970:	02b51e63          	bne	x10,x11,49ac <trap_field_not_cause+0x50>
    4974:	00000013          	addi	x0,x0,0
    4978:	00000013          	addi	x0,x0,0
    497c:	00000013          	addi	x0,x0,0
    4980:	0000c517          	auipc	x10,0xc
    4984:	e2050513          	addi	x10,x10,-480 # 107a0 <trap_diag_hint_vect_str>
    4988:	00000013          	addi	x0,x0,0
    498c:	00000013          	addi	x0,x0,0
    4990:	00000013          	addi	x0,x0,0
    4994:	00000013          	addi	x0,x0,0
    4998:	00000013          	addi	x0,x0,0
    499c:	00000013          	addi	x0,x0,0
    49a0:	0001c097          	auipc	x1,0x1c
    49a4:	864080e7          	jalr	x1,-1948(x1) # 20204 <rvmodel_io_write_str>
    49a8:	27c0006f          	jal	x0,4c24 <failedtest_report_end>
    49ac:	00200593          	addi	x11,x0,2
    49b0:	02b51e63          	bne	x10,x11,49ec <trap_field_not_cause+0x90>
    49b4:	00000013          	addi	x0,x0,0
    49b8:	00000013          	addi	x0,x0,0
    49bc:	00000013          	addi	x0,x0,0
    49c0:	0000c517          	auipc	x10,0xc
    49c4:	eb650513          	addi	x10,x10,-330 # 10876 <trap_diag_hint_cause_str>
    49c8:	00000013          	addi	x0,x0,0
    49cc:	00000013          	addi	x0,x0,0
    49d0:	00000013          	addi	x0,x0,0
    49d4:	00000013          	addi	x0,x0,0
    49d8:	00000013          	addi	x0,x0,0
    49dc:	00000013          	addi	x0,x0,0
    49e0:	0001c097          	auipc	x1,0x1c
    49e4:	824080e7          	jalr	x1,-2012(x1) # 20204 <rvmodel_io_write_str>
    49e8:	23c0006f          	jal	x0,4c24 <failedtest_report_end>
    49ec:	00300593          	addi	x11,x0,3
    49f0:	02b51e63          	bne	x10,x11,4a2c <trap_field_not_cause+0xd0>
    49f4:	00000013          	addi	x0,x0,0
    49f8:	00000013          	addi	x0,x0,0
    49fc:	00000013          	addi	x0,x0,0
    4a00:	0000c517          	auipc	x10,0xc
    4a04:	f6950513          	addi	x10,x10,-151 # 10969 <trap_diag_hint_epc_str>
    4a08:	00000013          	addi	x0,x0,0
    4a0c:	00000013          	addi	x0,x0,0
    4a10:	00000013          	addi	x0,x0,0
    4a14:	00000013          	addi	x0,x0,0
    4a18:	00000013          	addi	x0,x0,0
    4a1c:	00000013          	addi	x0,x0,0
    4a20:	0001b097          	auipc	x1,0x1b
    4a24:	7e4080e7          	jalr	x1,2020(x1) # 20204 <rvmodel_io_write_str>
    4a28:	1fc0006f          	jal	x0,4c24 <failedtest_report_end>
    4a2c:	00400593          	addi	x11,x0,4
    4a30:	02b51e63          	bne	x10,x11,4a6c <trap_field_not_cause+0x110>
    4a34:	00000013          	addi	x0,x0,0
    4a38:	00000013          	addi	x0,x0,0
    4a3c:	00000013          	addi	x0,x0,0
    4a40:	0000c517          	auipc	x10,0xc
    4a44:	02450513          	addi	x10,x10,36 # 10a64 <trap_diag_hint_tval_str>
    4a48:	00000013          	addi	x0,x0,0
    4a4c:	00000013          	addi	x0,x0,0
    4a50:	00000013          	addi	x0,x0,0
    4a54:	00000013          	addi	x0,x0,0
    4a58:	00000013          	addi	x0,x0,0
    4a5c:	00000013          	addi	x0,x0,0
    4a60:	0001b097          	auipc	x1,0x1b
    4a64:	7a4080e7          	jalr	x1,1956(x1) # 20204 <rvmodel_io_write_str>
    4a68:	1bc0006f          	jal	x0,4c24 <failedtest_report_end>
    4a6c:	00500593          	addi	x11,x0,5
    4a70:	02b51e63          	bne	x10,x11,4aac <trap_field_not_cause+0x150>
    4a74:	00000013          	addi	x0,x0,0
    4a78:	00000013          	addi	x0,x0,0
    4a7c:	00000013          	addi	x0,x0,0
    4a80:	0000c517          	auipc	x10,0xc
    4a84:	0cb50513          	addi	x10,x10,203 # 10b4b <trap_diag_hint_ip_str>
    4a88:	00000013          	addi	x0,x0,0
    4a8c:	00000013          	addi	x0,x0,0
    4a90:	00000013          	addi	x0,x0,0
    4a94:	00000013          	addi	x0,x0,0
    4a98:	00000013          	addi	x0,x0,0
    4a9c:	00000013          	addi	x0,x0,0
    4aa0:	0001b097          	auipc	x1,0x1b
    4aa4:	764080e7          	jalr	x1,1892(x1) # 20204 <rvmodel_io_write_str>
    4aa8:	17c0006f          	jal	x0,4c24 <failedtest_report_end>
    4aac:	1780006f          	jal	x0,4c24 <failedtest_report_end>

00004ab0 <trap_report_generic>:
    4ab0:	00000013          	addi	x0,x0,0
    4ab4:	00000013          	addi	x0,x0,0
    4ab8:	00000013          	addi	x0,x0,0
    4abc:	00000013          	addi	x0,x0,0
    4ac0:	0000c517          	auipc	x10,0xc
    4ac4:	c9850513          	addi	x10,x10,-872 # 10758 <trap_diag_generic_str>
    4ac8:	00000013          	addi	x0,x0,0
    4acc:	00000013          	addi	x0,x0,0
    4ad0:	00000013          	addi	x0,x0,0
    4ad4:	00000013          	addi	x0,x0,0
    4ad8:	00000013          	addi	x0,x0,0
    4adc:	00000013          	addi	x0,x0,0
    4ae0:	0001b097          	auipc	x1,0x1b
    4ae4:	724080e7          	jalr	x1,1828(x1) # 20204 <rvmodel_io_write_str>
    4ae8:	0000a617          	auipc	x12,0xa
    4aec:	5f062603          	lw	x12,1520(x12) # f0d8 <saved_mepc>
    4af0:	00000013          	addi	x0,x0,0
    4af4:	00000013          	addi	x0,x0,0
    4af8:	00000013          	addi	x0,x0,0
    4afc:	00000013          	addi	x0,x0,0
    4b00:	0000b517          	auipc	x10,0xb
    4b04:	c3b50513          	addi	x10,x10,-965 # f73b <xepcinstrstr>
    4b08:	00000013          	addi	x0,x0,0
    4b0c:	00000013          	addi	x0,x0,0
    4b10:	00000013          	addi	x0,x0,0
    4b14:	00000013          	addi	x0,x0,0
    4b18:	00000013          	addi	x0,x0,0
    4b1c:	00000013          	addi	x0,x0,0
    4b20:	0001b097          	auipc	x1,0x1b
    4b24:	6e4080e7          	jalr	x1,1764(x1) # 20204 <rvmodel_io_write_str>
    4b28:	00065503          	lhu	x10,0(x12)
    4b2c:	01000593          	addi	x11,x0,16
    4b30:	00357413          	andi	x8,x10,3
    4b34:	00300493          	addi	x9,x0,3
    4b38:	00941a63          	bne	x8,x9,4b4c <trap_report_generic+0x9c>
    4b3c:	00265403          	lhu	x8,2(x12)
    4b40:	01041413          	slli	x8,x8,0x10
    4b44:	00856533          	or	x10,x10,x8
    4b48:	02000593          	addi	x11,x0,32
    4b4c:	32c000ef          	jal	x1,4e78 <failedtest_hex_to_str>
    4b50:	00000013          	addi	x0,x0,0
    4b54:	00000013          	addi	x0,x0,0
    4b58:	00000013          	addi	x0,x0,0
    4b5c:	00000013          	addi	x0,x0,0
    4b60:	0000a517          	auipc	x10,0xa
    4b64:	59850513          	addi	x10,x10,1432 # f0f8 <ascii_buffer>
    4b68:	00000013          	addi	x0,x0,0
    4b6c:	00000013          	addi	x0,x0,0
    4b70:	00000013          	addi	x0,x0,0
    4b74:	00000013          	addi	x0,x0,0
    4b78:	00000013          	addi	x0,x0,0
    4b7c:	00000013          	addi	x0,x0,0
    4b80:	0001b097          	auipc	x1,0x1b
    4b84:	684080e7          	jalr	x1,1668(x1) # 20204 <rvmodel_io_write_str>
    4b88:	00000097          	auipc	x1,0x0
    4b8c:	0e8080e7          	jalr	x1,232(x1) # 4c70 <failedtest_print_csr_context>
    4b90:	0940006f          	jal	x0,4c24 <failedtest_report_end>

00004b94 <trap_cause_to_str>:
    4b94:	02054263          	blt	x10,x0,4bb8 <trap_cause_interrupt>

00004b98 <trap_cause_exception>:
    4b98:	01800593          	addi	x11,x0,24
    4b9c:	04b55463          	bge	x10,x11,4be4 <trap_cause_unknown>
    4ba0:	0000a597          	auipc	x11,0xa
    4ba4:	58058593          	addi	x11,x11,1408 # f120 <end_failure_scratch>
    4ba8:	00251613          	slli	x12,x10,0x2
    4bac:	00c585b3          	add	x11,x11,x12
    4bb0:	0005a503          	lw	x10,0(x11)
    4bb4:	00008067          	jalr	x0,0(x1)

00004bb8 <trap_cause_interrupt>:
    4bb8:	00100593          	addi	x11,x0,1
    4bbc:	01f59593          	slli	x11,x11,0x1f
    4bc0:	00b54533          	xor	x10,x10,x11
    4bc4:	01000593          	addi	x11,x0,16
    4bc8:	00b55e63          	bge	x10,x11,4be4 <trap_cause_unknown>
    4bcc:	0000a597          	auipc	x11,0xa
    4bd0:	5b458593          	addi	x11,x11,1460 # f180 <trap_int_name_tbl>
    4bd4:	00251613          	slli	x12,x10,0x2
    4bd8:	00c585b3          	add	x11,x11,x12
    4bdc:	0005a503          	lw	x10,0(x11)
    4be0:	00008067          	jalr	x0,0(x1)

00004be4 <trap_cause_unknown>:
    4be4:	00000013          	addi	x0,x0,0
    4be8:	00000013          	addi	x0,x0,0
    4bec:	00000013          	addi	x0,x0,0
    4bf0:	00000013          	addi	x0,x0,0
    4bf4:	00000013          	addi	x0,x0,0
    4bf8:	00000013          	addi	x0,x0,0
    4bfc:	00000013          	addi	x0,x0,0
    4c00:	0000b517          	auipc	x10,0xb
    4c04:	9be50513          	addi	x10,x10,-1602 # f5be <trap_cause_unknown_str>
    4c08:	00000013          	addi	x0,x0,0
    4c0c:	00000013          	addi	x0,x0,0
    4c10:	00000013          	addi	x0,x0,0
    4c14:	00000013          	addi	x0,x0,0
    4c18:	00000013          	addi	x0,x0,0
    4c1c:	00000013          	addi	x0,x0,0
    4c20:	00008067          	jalr	x0,0(x1)

00004c24 <failedtest_report_end>:
    4c24:	00000013          	addi	x0,x0,0
    4c28:	00000013          	addi	x0,x0,0
    4c2c:	00000013          	addi	x0,x0,0
    4c30:	00000013          	addi	x0,x0,0
    4c34:	00000013          	addi	x0,x0,0
    4c38:	00000013          	addi	x0,x0,0
    4c3c:	00000013          	addi	x0,x0,0
    4c40:	0000b517          	auipc	x10,0xb
    4c44:	54350513          	addi	x10,x10,1347 # 10183 <endstr>
    4c48:	00000013          	addi	x0,x0,0
    4c4c:	00000013          	addi	x0,x0,0
    4c50:	00000013          	addi	x0,x0,0
    4c54:	00000013          	addi	x0,x0,0
    4c58:	00000013          	addi	x0,x0,0
    4c5c:	00000013          	addi	x0,x0,0
    4c60:	0001b097          	auipc	x1,0x1b
    4c64:	5a4080e7          	jalr	x1,1444(x1) # 20204 <rvmodel_io_write_str>

00004c68 <failedtest_terminate>:
    4c68:	0001b097          	auipc	x1,0x1b
    4c6c:	5ac080e7          	jalr	x1,1452(x1) # 20214 <rvmodel_halt_fail>

00004c70 <failedtest_print_csr_context>:
    4c70:	0000a617          	auipc	x12,0xa
    4c74:	46060613          	addi	x12,x12,1120 # f0d0 <csr_context_ret_addr>
    4c78:	00162023          	sw	x1,0(x12)
    4c7c:	00000013          	addi	x0,x0,0
    4c80:	0000b517          	auipc	x10,0xb
    4c84:	adc50513          	addi	x10,x10,-1316 # f75c <mepcstr>
    4c88:	00000013          	addi	x0,x0,0
    4c8c:	00000013          	addi	x0,x0,0
    4c90:	00000013          	addi	x0,x0,0
    4c94:	00000013          	addi	x0,x0,0
    4c98:	00000013          	addi	x0,x0,0
    4c9c:	00000013          	addi	x0,x0,0
    4ca0:	0001b097          	auipc	x1,0x1b
    4ca4:	564080e7          	jalr	x1,1380(x1) # 20204 <rvmodel_io_write_str>
    4ca8:	0000a517          	auipc	x10,0xa
    4cac:	43052503          	lw	x10,1072(x10) # f0d8 <saved_mepc>
    4cb0:	02000593          	addi	x11,x0,32
    4cb4:	1c4000ef          	jal	x1,4e78 <failedtest_hex_to_str>
    4cb8:	00000013          	addi	x0,x0,0
    4cbc:	00000013          	addi	x0,x0,0
    4cc0:	0000a517          	auipc	x10,0xa
    4cc4:	43850513          	addi	x10,x10,1080 # f0f8 <ascii_buffer>
    4cc8:	00000013          	addi	x0,x0,0
    4ccc:	00000013          	addi	x0,x0,0
    4cd0:	00000013          	addi	x0,x0,0
    4cd4:	00000013          	addi	x0,x0,0
    4cd8:	00000013          	addi	x0,x0,0
    4cdc:	00000013          	addi	x0,x0,0
    4ce0:	0001b097          	auipc	x1,0x1b
    4ce4:	524080e7          	jalr	x1,1316(x1) # 20204 <rvmodel_io_write_str>
    4ce8:	00000013          	addi	x0,x0,0
    4cec:	00000013          	addi	x0,x0,0
    4cf0:	00000013          	addi	x0,x0,0
    4cf4:	00000013          	addi	x0,x0,0
    4cf8:	00000013          	addi	x0,x0,0
    4cfc:	00000013          	addi	x0,x0,0
    4d00:	0000b517          	auipc	x10,0xb
    4d04:	a6c50513          	addi	x10,x10,-1428 # f76c <mcausestr>
    4d08:	00000013          	addi	x0,x0,0
    4d0c:	00000013          	addi	x0,x0,0
    4d10:	00000013          	addi	x0,x0,0
    4d14:	00000013          	addi	x0,x0,0
    4d18:	00000013          	addi	x0,x0,0
    4d1c:	00000013          	addi	x0,x0,0
    4d20:	0001b097          	auipc	x1,0x1b
    4d24:	4e4080e7          	jalr	x1,1252(x1) # 20204 <rvmodel_io_write_str>
    4d28:	0000a517          	auipc	x10,0xa
    4d2c:	3b852503          	lw	x10,952(x10) # f0e0 <saved_mcause>
    4d30:	02000593          	addi	x11,x0,32
    4d34:	144000ef          	jal	x1,4e78 <failedtest_hex_to_str>
    4d38:	00000013          	addi	x0,x0,0
    4d3c:	00000013          	addi	x0,x0,0
    4d40:	0000a517          	auipc	x10,0xa
    4d44:	3b850513          	addi	x10,x10,952 # f0f8 <ascii_buffer>
    4d48:	00000013          	addi	x0,x0,0
    4d4c:	00000013          	addi	x0,x0,0
    4d50:	00000013          	addi	x0,x0,0
    4d54:	00000013          	addi	x0,x0,0
    4d58:	00000013          	addi	x0,x0,0
    4d5c:	00000013          	addi	x0,x0,0
    4d60:	0001b097          	auipc	x1,0x1b
    4d64:	4a4080e7          	jalr	x1,1188(x1) # 20204 <rvmodel_io_write_str>
    4d68:	00000013          	addi	x0,x0,0
    4d6c:	00000013          	addi	x0,x0,0
    4d70:	00000013          	addi	x0,x0,0
    4d74:	00000013          	addi	x0,x0,0
    4d78:	00000013          	addi	x0,x0,0
    4d7c:	00000013          	addi	x0,x0,0
    4d80:	0000b517          	auipc	x10,0xb
    4d84:	9fc50513          	addi	x10,x10,-1540 # f77c <mtvalstr>
    4d88:	00000013          	addi	x0,x0,0
    4d8c:	00000013          	addi	x0,x0,0
    4d90:	00000013          	addi	x0,x0,0
    4d94:	00000013          	addi	x0,x0,0
    4d98:	00000013          	addi	x0,x0,0
    4d9c:	00000013          	addi	x0,x0,0
    4da0:	0001b097          	auipc	x1,0x1b
    4da4:	464080e7          	jalr	x1,1124(x1) # 20204 <rvmodel_io_write_str>
    4da8:	0000a517          	auipc	x10,0xa
    4dac:	34052503          	lw	x10,832(x10) # f0e8 <saved_mtval>
    4db0:	02000593          	addi	x11,x0,32
    4db4:	0c4000ef          	jal	x1,4e78 <failedtest_hex_to_str>
    4db8:	00000013          	addi	x0,x0,0
    4dbc:	00000013          	addi	x0,x0,0
    4dc0:	0000a517          	auipc	x10,0xa
    4dc4:	33850513          	addi	x10,x10,824 # f0f8 <ascii_buffer>
    4dc8:	00000013          	addi	x0,x0,0
    4dcc:	00000013          	addi	x0,x0,0
    4dd0:	00000013          	addi	x0,x0,0
    4dd4:	00000013          	addi	x0,x0,0
    4dd8:	00000013          	addi	x0,x0,0
    4ddc:	00000013          	addi	x0,x0,0
    4de0:	0001b097          	auipc	x1,0x1b
    4de4:	424080e7          	jalr	x1,1060(x1) # 20204 <rvmodel_io_write_str>
    4de8:	00000013          	addi	x0,x0,0
    4dec:	00000013          	addi	x0,x0,0
    4df0:	00000013          	addi	x0,x0,0
    4df4:	00000013          	addi	x0,x0,0
    4df8:	00000013          	addi	x0,x0,0
    4dfc:	00000013          	addi	x0,x0,0
    4e00:	0000b517          	auipc	x10,0xb
    4e04:	98c50513          	addi	x10,x10,-1652 # f78c <mstatusstr>
    4e08:	00000013          	addi	x0,x0,0
    4e0c:	00000013          	addi	x0,x0,0
    4e10:	00000013          	addi	x0,x0,0
    4e14:	00000013          	addi	x0,x0,0
    4e18:	00000013          	addi	x0,x0,0
    4e1c:	00000013          	addi	x0,x0,0
    4e20:	0001b097          	auipc	x1,0x1b
    4e24:	3e4080e7          	jalr	x1,996(x1) # 20204 <rvmodel_io_write_str>
    4e28:	0000a517          	auipc	x10,0xa
    4e2c:	2c852503          	lw	x10,712(x10) # f0f0 <saved_mstatus>
    4e30:	02000593          	addi	x11,x0,32
    4e34:	044000ef          	jal	x1,4e78 <failedtest_hex_to_str>
    4e38:	00000013          	addi	x0,x0,0
    4e3c:	00000013          	addi	x0,x0,0
    4e40:	0000a517          	auipc	x10,0xa
    4e44:	2b850513          	addi	x10,x10,696 # f0f8 <ascii_buffer>
    4e48:	00000013          	addi	x0,x0,0
    4e4c:	00000013          	addi	x0,x0,0
    4e50:	00000013          	addi	x0,x0,0
    4e54:	00000013          	addi	x0,x0,0
    4e58:	00000013          	addi	x0,x0,0
    4e5c:	00000013          	addi	x0,x0,0
    4e60:	0001b097          	auipc	x1,0x1b
    4e64:	3a4080e7          	jalr	x1,932(x1) # 20204 <rvmodel_io_write_str>
    4e68:	0000a617          	auipc	x12,0xa
    4e6c:	26860613          	addi	x12,x12,616 # f0d0 <csr_context_ret_addr>
    4e70:	00062083          	lw	x1,0(x12)
    4e74:	00008067          	jalr	x0,0(x1)

00004e78 <failedtest_hex_to_str>:
    4e78:	00000013          	addi	x0,x0,0
    4e7c:	00000013          	addi	x0,x0,0
    4e80:	0000a617          	auipc	x12,0xa
    4e84:	27860613          	addi	x12,x12,632 # f0f8 <ascii_buffer>
    4e88:	00000013          	addi	x0,x0,0
    4e8c:	00000013          	addi	x0,x0,0
    4e90:	00000013          	addi	x0,x0,0
    4e94:	00000013          	addi	x0,x0,0
    4e98:	00000013          	addi	x0,x0,0
    4e9c:	00000013          	addi	x0,x0,0
    4ea0:	03000693          	addi	x13,x0,48
    4ea4:	00d60023          	sb	x13,0(x12)
    4ea8:	07800693          	addi	x13,x0,120
    4eac:	00d600a3          	sb	x13,1(x12)
    4eb0:	00260613          	addi	x12,x12,2
    4eb4:	00058693          	addi	x13,x11,0

00004eb8 <failedtest_hex_to_str_loop>:
    4eb8:	ffc68693          	addi	x13,x13,-4
    4ebc:	00d55733          	srl	x14,x10,x13
    4ec0:	00f77713          	andi	x14,x14,15
    4ec4:	00a00793          	addi	x15,x0,10
    4ec8:	00f74663          	blt	x14,x15,4ed4 <failedtest_hex_to_str_digit>
    4ecc:	05770713          	addi	x14,x14,87
    4ed0:	0080006f          	jal	x0,4ed8 <failedtest_hex_to_str_write>

00004ed4 <failedtest_hex_to_str_digit>:
    4ed4:	03070713          	addi	x14,x14,48

00004ed8 <failedtest_hex_to_str_write>:
    4ed8:	00e60023          	sb	x14,0(x12)
    4edc:	00160613          	addi	x12,x12,1
    4ee0:	fc069ce3          	bne	x13,x0,4eb8 <failedtest_hex_to_str_loop>
    4ee4:	00a00693          	addi	x13,x0,10
    4ee8:	00d60023          	sb	x13,0(x12)
    4eec:	000600a3          	sb	x0,1(x12)
    4ef0:	00008067          	jalr	x0,0(x1)

00004ef4 <failedtest_dec_to_str>:
    4ef4:	00a00693          	addi	x13,x0,10
    4ef8:	02d54663          	blt	x10,x13,4f24 <failedtest_dec_to_str+0x30>
    4efc:	ff650513          	addi	x10,x10,-10
    4f00:	03100713          	addi	x14,x0,49
    4f04:	00d54c63          	blt	x10,x13,4f1c <failedtest_dec_to_str+0x28>
    4f08:	ff650513          	addi	x10,x10,-10
    4f0c:	03200713          	addi	x14,x0,50
    4f10:	00d54663          	blt	x10,x13,4f1c <failedtest_dec_to_str+0x28>
    4f14:	ff650513          	addi	x10,x10,-10
    4f18:	03300713          	addi	x14,x0,51
    4f1c:	00e60023          	sb	x14,0(x12)
    4f20:	00160613          	addi	x12,x12,1
    4f24:	03050513          	addi	x10,x10,48
    4f28:	00a60023          	sb	x10,0(x12)
    4f2c:	00a00693          	addi	x13,x0,10
    4f30:	00d600a3          	sb	x13,1(x12)
    4f34:	00060123          	sb	x0,2(x12)
    4f38:	00008067          	jalr	x0,0(x1)
    4f3c:	00000013          	addi	x0,x0,0

Disassembly of section .text.rvmodel:

00020000 <rvmodel_boot>:
   20000:	feedc0b7          	lui	x1,0xfeedc
   20004:	ead08093          	addi	x1,x1,-339 # feedbead <absimm+0x8f911ba4>
   20008:	01909793          	slli	x15,x1,0x19
   2000c:	0070d113          	srli	x2,x1,0x7
   20010:	00f16133          	or	x2,x2,x15
   20014:	01911793          	slli	x15,x2,0x19
   20018:	00715193          	srli	x3,x2,0x7
   2001c:	00f1e1b3          	or	x3,x3,x15
   20020:	01919793          	slli	x15,x3,0x19
   20024:	0071d213          	srli	x4,x3,0x7
   20028:	00f26233          	or	x4,x4,x15
   2002c:	01921793          	slli	x15,x4,0x19
   20030:	00725293          	srli	x5,x4,0x7
   20034:	00f2e2b3          	or	x5,x5,x15
   20038:	01929793          	slli	x15,x5,0x19
   2003c:	0072d313          	srli	x6,x5,0x7
   20040:	00f36333          	or	x6,x6,x15
   20044:	01931793          	slli	x15,x6,0x19
   20048:	00735393          	srli	x7,x6,0x7
   2004c:	00f3e3b3          	or	x7,x7,x15
   20050:	01939793          	slli	x15,x7,0x19
   20054:	0073d413          	srli	x8,x7,0x7
   20058:	00f46433          	or	x8,x8,x15
   2005c:	01941793          	slli	x15,x8,0x19
   20060:	00745493          	srli	x9,x8,0x7
   20064:	00f4e4b3          	or	x9,x9,x15
   20068:	01949793          	slli	x15,x9,0x19
   2006c:	0074d513          	srli	x10,x9,0x7
   20070:	00f56533          	or	x10,x10,x15
   20074:	01951793          	slli	x15,x10,0x19
   20078:	00755593          	srli	x11,x10,0x7
   2007c:	00f5e5b3          	or	x11,x11,x15
   20080:	01959793          	slli	x15,x11,0x19
   20084:	0075d613          	srli	x12,x11,0x7
   20088:	00f66633          	or	x12,x12,x15
   2008c:	01961793          	slli	x15,x12,0x19
   20090:	00765693          	srli	x13,x12,0x7
   20094:	00f6e6b3          	or	x13,x13,x15
   20098:	01969793          	slli	x15,x13,0x19
   2009c:	0076d713          	srli	x14,x13,0x7
   200a0:	00f76733          	or	x14,x14,x15
   200a4:	fab807b7          	lui	x15,0xfab80
   200a8:	bb678793          	addi	x15,x15,-1098 # fab7fbb6 <absimm+0x8b5b58ad>
   200ac:	7d5c0837          	lui	x16,0x7d5c0
   200b0:	ddb80813          	addi	x16,x16,-549 # 7d5bfddb <absimm+0xdff5ad2>
   200b4:	01981793          	slli	x15,x16,0x19
   200b8:	00785893          	srli	x17,x16,0x7
   200bc:	00f8e8b3          	or	x17,x17,x15
   200c0:	01989793          	slli	x15,x17,0x19
   200c4:	0078d913          	srli	x18,x17,0x7
   200c8:	00f96933          	or	x18,x18,x15
   200cc:	01991793          	slli	x15,x18,0x19
   200d0:	00795993          	srli	x19,x18,0x7
   200d4:	00f9e9b3          	or	x19,x19,x15
   200d8:	01999793          	slli	x15,x19,0x19
   200dc:	0079da13          	srli	x20,x19,0x7
   200e0:	00fa6a33          	or	x20,x20,x15
   200e4:	019a1793          	slli	x15,x20,0x19
   200e8:	007a5a93          	srli	x21,x20,0x7
   200ec:	00faeab3          	or	x21,x21,x15
   200f0:	019a9793          	slli	x15,x21,0x19
   200f4:	007adb13          	srli	x22,x21,0x7
   200f8:	00fb6b33          	or	x22,x22,x15
   200fc:	019b1793          	slli	x15,x22,0x19
   20100:	007b5b93          	srli	x23,x22,0x7
   20104:	00fbebb3          	or	x23,x23,x15
   20108:	019b9793          	slli	x15,x23,0x19
   2010c:	007bdc13          	srli	x24,x23,0x7
   20110:	00fc6c33          	or	x24,x24,x15
   20114:	019c1793          	slli	x15,x24,0x19
   20118:	007c5c93          	srli	x25,x24,0x7
   2011c:	00fcecb3          	or	x25,x25,x15
   20120:	019c9793          	slli	x15,x25,0x19
   20124:	007cdd13          	srli	x26,x25,0x7
   20128:	00fd6d33          	or	x26,x26,x15
   2012c:	019d1793          	slli	x15,x26,0x19
   20130:	007d5d93          	srli	x27,x26,0x7
   20134:	00fdedb3          	or	x27,x27,x15
   20138:	019d9793          	slli	x15,x27,0x19
   2013c:	007dde13          	srli	x28,x27,0x7
   20140:	00fe6e33          	or	x28,x28,x15
   20144:	019e1793          	slli	x15,x28,0x19
   20148:	007e5e93          	srli	x29,x28,0x7
   2014c:	00feeeb3          	or	x29,x29,x15
   20150:	019e9793          	slli	x15,x29,0x19
   20154:	007edf13          	srli	x30,x29,0x7
   20158:	00ff6f33          	or	x30,x30,x15
   2015c:	019f1793          	slli	x15,x30,0x19
   20160:	007f5f93          	srli	x31,x30,0x7
   20164:	00ffefb3          	or	x31,x31,x15
   20168:	00000013          	addi	x0,x0,0
   2016c:	00000013          	addi	x0,x0,0
   20170:	00000013          	addi	x0,x0,0
   20174:	00000013          	addi	x0,x0,0
   20178:	00000013          	addi	x0,x0,0
   2017c:	00000013          	addi	x0,x0,0
   20180:	ffff1117          	auipc	x2,0xffff1
   20184:	ab010113          	addi	x2,x2,-1360 # 10c30 <begin_signature>
   20188:	00000013          	addi	x0,x0,0
   2018c:	00000013          	addi	x0,x0,0
   20190:	00000013          	addi	x0,x0,0
   20194:	00000013          	addi	x0,x0,0
   20198:	00000013          	addi	x0,x0,0
   2019c:	00000013          	addi	x0,x0,0

000201a0 <canary_check>:
   201a0:	6f5ca337          	lui	x6,0x6f5ca
   201a4:	30930313          	addi	x6,x6,777 # 6f5ca309 <absimm>
   201a8:	00012203          	lw	x4,0(x2)
   201ac:	00620863          	beq	x4,x6,201bc <canary_check+0x1c>
   201b0:	b0ce32ef          	jal	x5,34bc <failedtest_x5_x4>
   201b4:	000201a0          	.word	0x000201a0
   201b8:	000101ac          	.word	0x000101ac
   201bc:	00410113          	addi	x2,x2,4
   201c0:	fffe8197          	auipc	x3,0xfffe8
   201c4:	f5018193          	addi	x3,x3,-176 # 8110 <rvtest_data_begin>
   201c8:	00000013          	addi	x0,x0,0
   201cc:	00000013          	addi	x0,x0,0
   201d0:	00000013          	addi	x0,x0,0
   201d4:	00000013          	addi	x0,x0,0
   201d8:	00000013          	addi	x0,x0,0
   201dc:	00000013          	addi	x0,x0,0
   201e0:	fffe0317          	auipc	x6,0xfffe0
   201e4:	e6030313          	addi	x6,x6,-416 # 40 <rvtest_code_begin>
   201e8:	00000013          	addi	x0,x0,0
   201ec:	00000013          	addi	x0,x0,0
   201f0:	00000013          	addi	x0,x0,0
   201f4:	00000013          	addi	x0,x0,0
   201f8:	00000013          	addi	x0,x0,0
   201fc:	00000013          	addi	x0,x0,0
   20200:	00030067          	jalr	x0,0(x6)

00020204 <rvmodel_io_write_str>:
   20204:	00008067          	jalr	x0,0(x1)

00020208 <rvmodel_halt_pass>:
   20208:	00000513          	addi	x10,x0,0
   2020c:	00000073          	ecall
   20210:	0000006f          	jal	x0,20210 <rvmodel_halt_pass+0x8>

00020214 <rvmodel_halt_fail>:
   20214:	00100513          	addi	x10,x0,1
   20218:	00000073          	ecall
   2021c:	0000006f          	jal	x0,2021c <rvmodel_halt_fail+0x8>
   20220:	00000013          	addi	x0,x0,0
   20224:	00000013          	addi	x0,x0,0
   20228:	00000013          	addi	x0,x0,0
   2022c:	00000013          	addi	x0,x0,0
   20230:	00000013          	addi	x0,x0,0
   20234:	00000013          	addi	x0,x0,0
   20238:	00000013          	addi	x0,x0,0
   2023c:	00000013          	addi	x0,x0,0
